ARM GAS  C:\Users\PROYEC~1\AppData\Local\Temp\cc7YSakf.s 			page 1


   1              		.syntax unified
   2              		.cpu cortex-m3
   3              		.fpu softvfp
   4              		.eabi_attribute 20, 1
   5              		.eabi_attribute 21, 1
   6              		.eabi_attribute 23, 3
   7              		.eabi_attribute 24, 1
   8              		.eabi_attribute 25, 1
   9              		.eabi_attribute 26, 1
  10              		.eabi_attribute 30, 6
  11              		.eabi_attribute 34, 1
  12              		.eabi_attribute 18, 4
  13              		.thumb
  14              		.file	"Beagle_INT.c"
  15              		.text
  16              	.Ltext0:
  17              		.cfi_sections	.debug_frame
  18              		.section	.text.Beagle_RXISR,"ax",%progbits
  19              		.align	2
  20              		.global	Beagle_RXISR
  21              		.thumb
  22              		.thumb_func
  23              		.type	Beagle_RXISR, %function
  24              	Beagle_RXISR:
  25              	.LFB0:
  26              		.file 1 ".\\Generated_Source\\PSoC5\\Beagle_INT.c"
   1:.\Generated_Source\PSoC5/Beagle_INT.c **** /*******************************************************************************
   2:.\Generated_Source\PSoC5/Beagle_INT.c **** * File Name: Beagle_INT.c
   3:.\Generated_Source\PSoC5/Beagle_INT.c **** * Version 2.30
   4:.\Generated_Source\PSoC5/Beagle_INT.c **** *
   5:.\Generated_Source\PSoC5/Beagle_INT.c **** * Description:
   6:.\Generated_Source\PSoC5/Beagle_INT.c **** *  This file provides all Interrupt Service functionality of the UART component
   7:.\Generated_Source\PSoC5/Beagle_INT.c **** *
   8:.\Generated_Source\PSoC5/Beagle_INT.c **** * Note:
   9:.\Generated_Source\PSoC5/Beagle_INT.c **** *  Any unusual or non-standard behavior should be noted here. Other-
  10:.\Generated_Source\PSoC5/Beagle_INT.c **** *  wise, this section should remain blank.
  11:.\Generated_Source\PSoC5/Beagle_INT.c **** *
  12:.\Generated_Source\PSoC5/Beagle_INT.c **** ********************************************************************************
  13:.\Generated_Source\PSoC5/Beagle_INT.c **** * Copyright 2008-2012, Cypress Semiconductor Corporation.  All rights reserved.
  14:.\Generated_Source\PSoC5/Beagle_INT.c **** * You may use this file only in accordance with the license, terms, conditions,
  15:.\Generated_Source\PSoC5/Beagle_INT.c **** * disclaimers, and limitations in the end user license agreement accompanying
  16:.\Generated_Source\PSoC5/Beagle_INT.c **** * the software package with which this file was provided.
  17:.\Generated_Source\PSoC5/Beagle_INT.c **** *******************************************************************************/
  18:.\Generated_Source\PSoC5/Beagle_INT.c **** 
  19:.\Generated_Source\PSoC5/Beagle_INT.c **** #include "Beagle.h"
  20:.\Generated_Source\PSoC5/Beagle_INT.c **** #include "CyLib.h"
  21:.\Generated_Source\PSoC5/Beagle_INT.c **** 
  22:.\Generated_Source\PSoC5/Beagle_INT.c **** 
  23:.\Generated_Source\PSoC5/Beagle_INT.c **** /***************************************
  24:.\Generated_Source\PSoC5/Beagle_INT.c **** * Custom Declratations
  25:.\Generated_Source\PSoC5/Beagle_INT.c **** ***************************************/
  26:.\Generated_Source\PSoC5/Beagle_INT.c **** /* `#START CUSTOM_DECLARATIONS` Place your declaration here */
  27:.\Generated_Source\PSoC5/Beagle_INT.c **** 
  28:.\Generated_Source\PSoC5/Beagle_INT.c **** /* `#END` */
  29:.\Generated_Source\PSoC5/Beagle_INT.c **** 
  30:.\Generated_Source\PSoC5/Beagle_INT.c **** #if( (Beagle_RX_ENABLED || Beagle_HD_ENABLED) && \
  31:.\Generated_Source\PSoC5/Beagle_INT.c ****      (Beagle_RXBUFFERSIZE > Beagle_FIFO_LENGTH))
ARM GAS  C:\Users\PROYEC~1\AppData\Local\Temp\cc7YSakf.s 			page 2


  32:.\Generated_Source\PSoC5/Beagle_INT.c **** 
  33:.\Generated_Source\PSoC5/Beagle_INT.c **** 
  34:.\Generated_Source\PSoC5/Beagle_INT.c ****     /*******************************************************************************
  35:.\Generated_Source\PSoC5/Beagle_INT.c ****     * Function Name: Beagle_RXISR
  36:.\Generated_Source\PSoC5/Beagle_INT.c ****     ********************************************************************************
  37:.\Generated_Source\PSoC5/Beagle_INT.c ****     *
  38:.\Generated_Source\PSoC5/Beagle_INT.c ****     * Summary:
  39:.\Generated_Source\PSoC5/Beagle_INT.c ****     *  Interrupt Service Routine for RX portion of the UART
  40:.\Generated_Source\PSoC5/Beagle_INT.c ****     *
  41:.\Generated_Source\PSoC5/Beagle_INT.c ****     * Parameters:
  42:.\Generated_Source\PSoC5/Beagle_INT.c ****     *  None.
  43:.\Generated_Source\PSoC5/Beagle_INT.c ****     *
  44:.\Generated_Source\PSoC5/Beagle_INT.c ****     * Return:
  45:.\Generated_Source\PSoC5/Beagle_INT.c ****     *  None.
  46:.\Generated_Source\PSoC5/Beagle_INT.c ****     *
  47:.\Generated_Source\PSoC5/Beagle_INT.c ****     * Global Variables:
  48:.\Generated_Source\PSoC5/Beagle_INT.c ****     *  Beagle_rxBuffer - RAM buffer pointer for save received data.
  49:.\Generated_Source\PSoC5/Beagle_INT.c ****     *  Beagle_rxBufferWrite - cyclic index for write to rxBuffer,
  50:.\Generated_Source\PSoC5/Beagle_INT.c ****     *     increments after each byte saved to buffer.
  51:.\Generated_Source\PSoC5/Beagle_INT.c ****     *  Beagle_rxBufferRead - cyclic index for read from rxBuffer,
  52:.\Generated_Source\PSoC5/Beagle_INT.c ****     *     checked to detect overflow condition.
  53:.\Generated_Source\PSoC5/Beagle_INT.c ****     *  Beagle_rxBufferOverflow - software overflow flag. Set to one
  54:.\Generated_Source\PSoC5/Beagle_INT.c ****     *     when Beagle_rxBufferWrite index overtakes
  55:.\Generated_Source\PSoC5/Beagle_INT.c ****     *     Beagle_rxBufferRead index.
  56:.\Generated_Source\PSoC5/Beagle_INT.c ****     *  Beagle_rxBufferLoopDetect - additional variable to detect overflow.
  57:.\Generated_Source\PSoC5/Beagle_INT.c ****     *     Set to one when Beagle_rxBufferWrite is equal to
  58:.\Generated_Source\PSoC5/Beagle_INT.c ****     *    Beagle_rxBufferRead
  59:.\Generated_Source\PSoC5/Beagle_INT.c ****     *  Beagle_rxAddressMode - this variable contains the Address mode,
  60:.\Generated_Source\PSoC5/Beagle_INT.c ****     *     selected in customizer or set by UART_SetRxAddressMode() API.
  61:.\Generated_Source\PSoC5/Beagle_INT.c ****     *  Beagle_rxAddressDetected - set to 1 when correct address received,
  62:.\Generated_Source\PSoC5/Beagle_INT.c ****     *     and analysed to store following addressed data bytes to the buffer.
  63:.\Generated_Source\PSoC5/Beagle_INT.c ****     *     When not correct address received, set to 0 to skip following data bytes.
  64:.\Generated_Source\PSoC5/Beagle_INT.c ****     *
  65:.\Generated_Source\PSoC5/Beagle_INT.c ****     *******************************************************************************/
  66:.\Generated_Source\PSoC5/Beagle_INT.c ****     CY_ISR(Beagle_RXISR)
  67:.\Generated_Source\PSoC5/Beagle_INT.c ****     {
  27              		.loc 1 67 0
  28              		.cfi_startproc
  29              		@ args = 0, pretend = 0, frame = 8
  30              		@ frame_needed = 1, uses_anonymous_args = 0
  31              		@ link register save eliminated.
  32 0000 80B4     		push	{r7}
  33              		.cfi_def_cfa_offset 4
  34              		.cfi_offset 7, -4
  35 0002 83B0     		sub	sp, sp, #12
  36              		.cfi_def_cfa_offset 16
  37 0004 00AF     		add	r7, sp, #0
  38              		.cfi_def_cfa_register 7
  68:.\Generated_Source\PSoC5/Beagle_INT.c ****         uint8 readData;
  69:.\Generated_Source\PSoC5/Beagle_INT.c ****         uint8 increment_pointer = 0u;
  39              		.loc 1 69 0
  40 0006 0023     		movs	r3, #0
  41 0008 BB71     		strb	r3, [r7, #6]
  70:.\Generated_Source\PSoC5/Beagle_INT.c ****         #if(CY_PSOC3)
  71:.\Generated_Source\PSoC5/Beagle_INT.c ****             uint8 int_en;
  72:.\Generated_Source\PSoC5/Beagle_INT.c ****         #endif /* CY_PSOC3 */
  73:.\Generated_Source\PSoC5/Beagle_INT.c **** 
ARM GAS  C:\Users\PROYEC~1\AppData\Local\Temp\cc7YSakf.s 			page 3


  74:.\Generated_Source\PSoC5/Beagle_INT.c ****         /* User code required at start of ISR */
  75:.\Generated_Source\PSoC5/Beagle_INT.c ****         /* `#START Beagle_RXISR_START` */
  76:.\Generated_Source\PSoC5/Beagle_INT.c **** 
  77:.\Generated_Source\PSoC5/Beagle_INT.c ****         /* `#END` */
  78:.\Generated_Source\PSoC5/Beagle_INT.c **** 
  79:.\Generated_Source\PSoC5/Beagle_INT.c ****         #if(CY_PSOC3)   /* Make sure nested interrupt is enabled */
  80:.\Generated_Source\PSoC5/Beagle_INT.c ****             int_en = EA;
  81:.\Generated_Source\PSoC5/Beagle_INT.c ****             CyGlobalIntEnable;
  82:.\Generated_Source\PSoC5/Beagle_INT.c ****         #endif /* CY_PSOC3 */
  83:.\Generated_Source\PSoC5/Beagle_INT.c **** 
  84:.\Generated_Source\PSoC5/Beagle_INT.c ****         readData = Beagle_RXSTATUS_REG;
  42              		.loc 1 84 0
  43 000a 214B     		ldr	r3, .L7
  44 000c 1B78     		ldrb	r3, [r3]
  45 000e FB71     		strb	r3, [r7, #7]
  85:.\Generated_Source\PSoC5/Beagle_INT.c **** 
  86:.\Generated_Source\PSoC5/Beagle_INT.c ****         if((readData & (Beagle_RX_STS_BREAK | Beagle_RX_STS_PAR_ERROR |
  87:.\Generated_Source\PSoC5/Beagle_INT.c ****                         Beagle_RX_STS_STOP_ERROR | Beagle_RX_STS_OVERRUN)) != 0u)
  88:.\Generated_Source\PSoC5/Beagle_INT.c ****         {
  89:.\Generated_Source\PSoC5/Beagle_INT.c ****             /* ERROR handling. */
  90:.\Generated_Source\PSoC5/Beagle_INT.c ****             /* `#START Beagle_RXISR_ERROR` */
  91:.\Generated_Source\PSoC5/Beagle_INT.c **** 
  92:.\Generated_Source\PSoC5/Beagle_INT.c ****             /* `#END` */
  93:.\Generated_Source\PSoC5/Beagle_INT.c ****         }
  94:.\Generated_Source\PSoC5/Beagle_INT.c **** 
  95:.\Generated_Source\PSoC5/Beagle_INT.c ****         while((readData & Beagle_RX_STS_FIFO_NOTEMPTY) != 0u)
  46              		.loc 1 95 0
  47 0010 34E0     		b	.L2
  48              	.L6:
  96:.\Generated_Source\PSoC5/Beagle_INT.c ****         {
  97:.\Generated_Source\PSoC5/Beagle_INT.c **** 
  98:.\Generated_Source\PSoC5/Beagle_INT.c ****             #if (Beagle_RXHW_ADDRESS_ENABLED)
  99:.\Generated_Source\PSoC5/Beagle_INT.c ****                 if(Beagle_rxAddressMode == (uint8)Beagle__B_UART__AM_SW_DETECT_TO_BUFFER)
 100:.\Generated_Source\PSoC5/Beagle_INT.c ****                 {
 101:.\Generated_Source\PSoC5/Beagle_INT.c ****                     if((readData & Beagle_RX_STS_MRKSPC) != 0u)
 102:.\Generated_Source\PSoC5/Beagle_INT.c ****                     {
 103:.\Generated_Source\PSoC5/Beagle_INT.c ****                         if ((readData & Beagle_RX_STS_ADDR_MATCH) != 0u)
 104:.\Generated_Source\PSoC5/Beagle_INT.c ****                         {
 105:.\Generated_Source\PSoC5/Beagle_INT.c ****                             Beagle_rxAddressDetected = 1u;
 106:.\Generated_Source\PSoC5/Beagle_INT.c ****                         }
 107:.\Generated_Source\PSoC5/Beagle_INT.c ****                         else
 108:.\Generated_Source\PSoC5/Beagle_INT.c ****                         {
 109:.\Generated_Source\PSoC5/Beagle_INT.c ****                             Beagle_rxAddressDetected = 0u;
 110:.\Generated_Source\PSoC5/Beagle_INT.c ****                         }
 111:.\Generated_Source\PSoC5/Beagle_INT.c ****                     }
 112:.\Generated_Source\PSoC5/Beagle_INT.c **** 
 113:.\Generated_Source\PSoC5/Beagle_INT.c ****                     readData = Beagle_RXDATA_REG;
 114:.\Generated_Source\PSoC5/Beagle_INT.c ****                     if(Beagle_rxAddressDetected != 0u)
 115:.\Generated_Source\PSoC5/Beagle_INT.c ****                     {   /* store only addressed data */
 116:.\Generated_Source\PSoC5/Beagle_INT.c ****                         Beagle_rxBuffer[Beagle_rxBufferWrite] = readData;
 117:.\Generated_Source\PSoC5/Beagle_INT.c ****                         increment_pointer = 1u;
 118:.\Generated_Source\PSoC5/Beagle_INT.c ****                     }
 119:.\Generated_Source\PSoC5/Beagle_INT.c ****                 }
 120:.\Generated_Source\PSoC5/Beagle_INT.c ****                 else /* without software addressing */
 121:.\Generated_Source\PSoC5/Beagle_INT.c ****                 {
 122:.\Generated_Source\PSoC5/Beagle_INT.c ****                     Beagle_rxBuffer[Beagle_rxBufferWrite] = Beagle_RXDATA_REG;
 123:.\Generated_Source\PSoC5/Beagle_INT.c ****                     increment_pointer = 1u;
ARM GAS  C:\Users\PROYEC~1\AppData\Local\Temp\cc7YSakf.s 			page 4


 124:.\Generated_Source\PSoC5/Beagle_INT.c ****                 }
 125:.\Generated_Source\PSoC5/Beagle_INT.c ****             #else  /* without addressing */
 126:.\Generated_Source\PSoC5/Beagle_INT.c ****                 Beagle_rxBuffer[Beagle_rxBufferWrite] = Beagle_RXDATA_REG;
  49              		.loc 1 126 0
  50 0012 204B     		ldr	r3, .L7+4
  51 0014 1B88     		ldrh	r3, [r3]	@ movhi
  52 0016 9BB2     		uxth	r3, r3
  53 0018 1A46     		mov	r2, r3
  54 001a 1F4B     		ldr	r3, .L7+8
  55 001c 1B78     		ldrb	r3, [r3]
  56 001e D9B2     		uxtb	r1, r3
  57 0020 1E4B     		ldr	r3, .L7+12
  58 0022 9954     		strb	r1, [r3, r2]
 127:.\Generated_Source\PSoC5/Beagle_INT.c ****                 increment_pointer = 1u;
  59              		.loc 1 127 0
  60 0024 0123     		movs	r3, #1
  61 0026 BB71     		strb	r3, [r7, #6]
 128:.\Generated_Source\PSoC5/Beagle_INT.c ****             #endif /* End SW_DETECT_TO_BUFFER */
 129:.\Generated_Source\PSoC5/Beagle_INT.c **** 
 130:.\Generated_Source\PSoC5/Beagle_INT.c ****             /* do not increment buffer pointer when skip not adderessed data */
 131:.\Generated_Source\PSoC5/Beagle_INT.c ****             if( increment_pointer != 0u )
  62              		.loc 1 131 0
  63 0028 BB79     		ldrb	r3, [r7, #6]	@ zero_extendqisi2
  64 002a 002B     		cmp	r3, #0
  65 002c 23D0     		beq	.L3
 132:.\Generated_Source\PSoC5/Beagle_INT.c ****             {
 133:.\Generated_Source\PSoC5/Beagle_INT.c ****                 if(Beagle_rxBufferLoopDetect != 0u)
  66              		.loc 1 133 0
  67 002e 1C4B     		ldr	r3, .L7+16
  68 0030 1B78     		ldrb	r3, [r3]
  69 0032 DBB2     		uxtb	r3, r3
  70 0034 002B     		cmp	r3, #0
  71 0036 02D0     		beq	.L4
 134:.\Generated_Source\PSoC5/Beagle_INT.c ****                 {   /* Set Software Buffer status Overflow */
 135:.\Generated_Source\PSoC5/Beagle_INT.c ****                     Beagle_rxBufferOverflow = 1u;
  72              		.loc 1 135 0
  73 0038 1A4B     		ldr	r3, .L7+20
  74 003a 0122     		movs	r2, #1
  75 003c 1A70     		strb	r2, [r3]
  76              	.L4:
 136:.\Generated_Source\PSoC5/Beagle_INT.c ****                 }
 137:.\Generated_Source\PSoC5/Beagle_INT.c ****                 /* Set next pointer. */
 138:.\Generated_Source\PSoC5/Beagle_INT.c ****                 Beagle_rxBufferWrite++;
  77              		.loc 1 138 0
  78 003e 154B     		ldr	r3, .L7+4
  79 0040 1B88     		ldrh	r3, [r3]	@ movhi
  80 0042 9BB2     		uxth	r3, r3
  81 0044 0133     		adds	r3, r3, #1
  82 0046 9AB2     		uxth	r2, r3
  83 0048 124B     		ldr	r3, .L7+4
  84 004a 1A80     		strh	r2, [r3]	@ movhi
 139:.\Generated_Source\PSoC5/Beagle_INT.c **** 
 140:.\Generated_Source\PSoC5/Beagle_INT.c ****                 /* Check pointer for a loop condition */
 141:.\Generated_Source\PSoC5/Beagle_INT.c ****                 if(Beagle_rxBufferWrite >= Beagle_RXBUFFERSIZE)
  85              		.loc 1 141 0
  86 004c 114B     		ldr	r3, .L7+4
  87 004e 1B88     		ldrh	r3, [r3]	@ movhi
ARM GAS  C:\Users\PROYEC~1\AppData\Local\Temp\cc7YSakf.s 			page 5


  88 0050 9BB2     		uxth	r3, r3
  89 0052 40F2DB52 		movw	r2, #1499
  90 0056 9342     		cmp	r3, r2
  91 0058 02D9     		bls	.L5
 142:.\Generated_Source\PSoC5/Beagle_INT.c ****                 {
 143:.\Generated_Source\PSoC5/Beagle_INT.c ****                     Beagle_rxBufferWrite = 0u;
  92              		.loc 1 143 0
  93 005a 0E4B     		ldr	r3, .L7+4
  94 005c 0022     		movs	r2, #0
  95 005e 1A80     		strh	r2, [r3]	@ movhi
  96              	.L5:
 144:.\Generated_Source\PSoC5/Beagle_INT.c ****                 }
 145:.\Generated_Source\PSoC5/Beagle_INT.c ****                 /* Detect pre-overload condition and set flag */
 146:.\Generated_Source\PSoC5/Beagle_INT.c ****                 if(Beagle_rxBufferWrite == Beagle_rxBufferRead)
  97              		.loc 1 146 0
  98 0060 0C4B     		ldr	r3, .L7+4
  99 0062 1B88     		ldrh	r3, [r3]	@ movhi
 100 0064 9AB2     		uxth	r2, r3
 101 0066 104B     		ldr	r3, .L7+24
 102 0068 1B88     		ldrh	r3, [r3]	@ movhi
 103 006a 9BB2     		uxth	r3, r3
 104 006c 9A42     		cmp	r2, r3
 105 006e 02D1     		bne	.L3
 147:.\Generated_Source\PSoC5/Beagle_INT.c ****                 {
 148:.\Generated_Source\PSoC5/Beagle_INT.c ****                     Beagle_rxBufferLoopDetect = 1u;
 106              		.loc 1 148 0
 107 0070 0B4B     		ldr	r3, .L7+16
 108 0072 0122     		movs	r2, #1
 109 0074 1A70     		strb	r2, [r3]
 110              	.L3:
 149:.\Generated_Source\PSoC5/Beagle_INT.c ****                     /* When Hardware Flow Control selected */
 150:.\Generated_Source\PSoC5/Beagle_INT.c ****                     #if(Beagle_FLOW_CONTROL != 0u)
 151:.\Generated_Source\PSoC5/Beagle_INT.c ****                     /* Disable RX interrupt mask, it will be enabled when user read data from the b
 152:.\Generated_Source\PSoC5/Beagle_INT.c ****                         Beagle_RXSTATUS_MASK_REG  &= (uint8)~Beagle_RX_STS_FIFO_NOTEMPTY;
 153:.\Generated_Source\PSoC5/Beagle_INT.c ****                         CyIntClearPending(Beagle_RX_VECT_NUM);
 154:.\Generated_Source\PSoC5/Beagle_INT.c ****                         break; /* Break the reading of the FIFO loop, leave the data there for gene
 155:.\Generated_Source\PSoC5/Beagle_INT.c ****                     #endif /* End Beagle_FLOW_CONTROL != 0 */
 156:.\Generated_Source\PSoC5/Beagle_INT.c ****                 }
 157:.\Generated_Source\PSoC5/Beagle_INT.c ****             }
 158:.\Generated_Source\PSoC5/Beagle_INT.c **** 
 159:.\Generated_Source\PSoC5/Beagle_INT.c ****             /* Check again if there is data. */
 160:.\Generated_Source\PSoC5/Beagle_INT.c ****             readData = Beagle_RXSTATUS_REG;
 111              		.loc 1 160 0
 112 0076 064B     		ldr	r3, .L7
 113 0078 1B78     		ldrb	r3, [r3]
 114 007a FB71     		strb	r3, [r7, #7]
 115              	.L2:
  95:.\Generated_Source\PSoC5/Beagle_INT.c ****         {
 116              		.loc 1 95 0
 117 007c FB79     		ldrb	r3, [r7, #7]	@ zero_extendqisi2
 118 007e 03F02003 		and	r3, r3, #32
 119 0082 002B     		cmp	r3, #0
 120 0084 C5D1     		bne	.L6
 161:.\Generated_Source\PSoC5/Beagle_INT.c ****         }
 162:.\Generated_Source\PSoC5/Beagle_INT.c **** 
 163:.\Generated_Source\PSoC5/Beagle_INT.c ****         /* User code required at end of ISR (Optional) */
 164:.\Generated_Source\PSoC5/Beagle_INT.c ****         /* `#START Beagle_RXISR_END` */
ARM GAS  C:\Users\PROYEC~1\AppData\Local\Temp\cc7YSakf.s 			page 6


 165:.\Generated_Source\PSoC5/Beagle_INT.c **** 
 166:.\Generated_Source\PSoC5/Beagle_INT.c ****         /* `#END` */
 167:.\Generated_Source\PSoC5/Beagle_INT.c **** 
 168:.\Generated_Source\PSoC5/Beagle_INT.c ****         #if(CY_PSOC3)
 169:.\Generated_Source\PSoC5/Beagle_INT.c ****             EA = int_en;
 170:.\Generated_Source\PSoC5/Beagle_INT.c ****         #endif /* CY_PSOC3 */
 171:.\Generated_Source\PSoC5/Beagle_INT.c **** 
 172:.\Generated_Source\PSoC5/Beagle_INT.c ****     }
 121              		.loc 1 172 0
 122 0086 0C37     		adds	r7, r7, #12
 123              		.cfi_def_cfa_offset 4
 124 0088 BD46     		mov	sp, r7
 125              		.cfi_def_cfa_register 13
 126              		@ sp needed
 127 008a 5DF8047B 		ldr	r7, [sp], #4
 128              		.cfi_restore 7
 129              		.cfi_def_cfa_offset 0
 130 008e 7047     		bx	lr
 131              	.L8:
 132              		.align	2
 133              	.L7:
 134 0090 66650040 		.word	1073767782
 135 0094 00000000 		.word	Beagle_rxBufferWrite
 136 0098 42640040 		.word	1073767490
 137 009c 00000000 		.word	Beagle_rxBuffer
 138 00a0 00000000 		.word	Beagle_rxBufferLoopDetect
 139 00a4 00000000 		.word	Beagle_rxBufferOverflow
 140 00a8 00000000 		.word	Beagle_rxBufferRead
 141              		.cfi_endproc
 142              	.LFE0:
 143              		.size	Beagle_RXISR, .-Beagle_RXISR
 144              		.text
 145              	.Letext0:
 146              		.file 2 ".\\Generated_Source\\PSoC5\\cytypes.h"
 147              		.file 3 ".\\Generated_Source\\PSoC5\\Beagle.h"