ARM GAS  C:\Users\Lenovo\AppData\Local\Temp\cceofia7.s 			page 1


   1              		.syntax unified
   2              		.cpu cortex-m3
   3              		.fpu softvfp
   4              		.eabi_attribute 20, 1
   5              		.eabi_attribute 21, 1
   6              		.eabi_attribute 23, 3
   7              		.eabi_attribute 24, 1
   8              		.eabi_attribute 25, 1
   9              		.eabi_attribute 26, 1
  10              		.eabi_attribute 30, 6
  11              		.eabi_attribute 34, 1
  12              		.eabi_attribute 18, 4
  13              		.thumb
  14              		.file	"Beagle.c"
  15              		.text
  16              	.Ltext0:
  17              		.cfi_sections	.debug_frame
  18              		.global	Beagle_initVar
  19              		.bss
  20              		.type	Beagle_initVar, %object
  21              		.size	Beagle_initVar, 1
  22              	Beagle_initVar:
  23 0000 00       		.space	1
  24              		.comm	Beagle_rxBuffer,1500,4
  25              		.global	Beagle_rxBufferRead
  26 0001 00       		.align	1
  27              		.type	Beagle_rxBufferRead, %object
  28              		.size	Beagle_rxBufferRead, 2
  29              	Beagle_rxBufferRead:
  30 0002 0000     		.space	2
  31              		.global	Beagle_rxBufferWrite
  32              		.align	1
  33              		.type	Beagle_rxBufferWrite, %object
  34              		.size	Beagle_rxBufferWrite, 2
  35              	Beagle_rxBufferWrite:
  36 0004 0000     		.space	2
  37              		.global	Beagle_rxBufferLoopDetect
  38              		.type	Beagle_rxBufferLoopDetect, %object
  39              		.size	Beagle_rxBufferLoopDetect, 1
  40              	Beagle_rxBufferLoopDetect:
  41 0006 00       		.space	1
  42              		.global	Beagle_rxBufferOverflow
  43              		.type	Beagle_rxBufferOverflow, %object
  44              		.size	Beagle_rxBufferOverflow, 1
  45              	Beagle_rxBufferOverflow:
  46 0007 00       		.space	1
  47              		.section	.text.Beagle_Start,"ax",%progbits
  48              		.align	2
  49              		.global	Beagle_Start
  50              		.thumb
  51              		.thumb_func
  52              		.type	Beagle_Start, %function
  53              	Beagle_Start:
  54              	.LFB0:
  55              		.file 1 ".\\Generated_Source\\PSoC5\\Beagle.c"
   1:.\Generated_Source\PSoC5/Beagle.c **** /*******************************************************************************
   2:.\Generated_Source\PSoC5/Beagle.c **** * File Name: Beagle.c
ARM GAS  C:\Users\Lenovo\AppData\Local\Temp\cceofia7.s 			page 2


   3:.\Generated_Source\PSoC5/Beagle.c **** * Version 2.30
   4:.\Generated_Source\PSoC5/Beagle.c **** *
   5:.\Generated_Source\PSoC5/Beagle.c **** * Description:
   6:.\Generated_Source\PSoC5/Beagle.c **** *  This file provides all API functionality of the UART component
   7:.\Generated_Source\PSoC5/Beagle.c **** *
   8:.\Generated_Source\PSoC5/Beagle.c **** * Note:
   9:.\Generated_Source\PSoC5/Beagle.c **** *
  10:.\Generated_Source\PSoC5/Beagle.c **** ********************************************************************************
  11:.\Generated_Source\PSoC5/Beagle.c **** * Copyright 2008-2012, Cypress Semiconductor Corporation.  All rights reserved.
  12:.\Generated_Source\PSoC5/Beagle.c **** * You may use this file only in accordance with the license, terms, conditions,
  13:.\Generated_Source\PSoC5/Beagle.c **** * disclaimers, and limitations in the end user license agreement accompanying
  14:.\Generated_Source\PSoC5/Beagle.c **** * the software package with which this file was provided.
  15:.\Generated_Source\PSoC5/Beagle.c **** *******************************************************************************/
  16:.\Generated_Source\PSoC5/Beagle.c **** 
  17:.\Generated_Source\PSoC5/Beagle.c **** #include "Beagle.h"
  18:.\Generated_Source\PSoC5/Beagle.c **** #include "CyLib.h"
  19:.\Generated_Source\PSoC5/Beagle.c **** #if(Beagle_INTERNAL_CLOCK_USED)
  20:.\Generated_Source\PSoC5/Beagle.c ****     #include "Beagle_IntClock.h"
  21:.\Generated_Source\PSoC5/Beagle.c **** #endif /* End Beagle_INTERNAL_CLOCK_USED */
  22:.\Generated_Source\PSoC5/Beagle.c **** 
  23:.\Generated_Source\PSoC5/Beagle.c **** 
  24:.\Generated_Source\PSoC5/Beagle.c **** /***************************************
  25:.\Generated_Source\PSoC5/Beagle.c **** * Global data allocation
  26:.\Generated_Source\PSoC5/Beagle.c **** ***************************************/
  27:.\Generated_Source\PSoC5/Beagle.c **** 
  28:.\Generated_Source\PSoC5/Beagle.c **** uint8 Beagle_initVar = 0u;
  29:.\Generated_Source\PSoC5/Beagle.c **** #if( Beagle_TX_ENABLED && (Beagle_TXBUFFERSIZE > Beagle_FIFO_LENGTH))
  30:.\Generated_Source\PSoC5/Beagle.c ****     volatile uint8 Beagle_txBuffer[Beagle_TXBUFFERSIZE];
  31:.\Generated_Source\PSoC5/Beagle.c ****     volatile uint8 Beagle_txBufferRead = 0u;
  32:.\Generated_Source\PSoC5/Beagle.c ****     uint8 Beagle_txBufferWrite = 0u;
  33:.\Generated_Source\PSoC5/Beagle.c **** #endif /* End Beagle_TX_ENABLED */
  34:.\Generated_Source\PSoC5/Beagle.c **** #if( ( Beagle_RX_ENABLED || Beagle_HD_ENABLED ) && \
  35:.\Generated_Source\PSoC5/Beagle.c ****      (Beagle_RXBUFFERSIZE > Beagle_FIFO_LENGTH) )
  36:.\Generated_Source\PSoC5/Beagle.c ****     volatile uint8 Beagle_rxBuffer[Beagle_RXBUFFERSIZE];
  37:.\Generated_Source\PSoC5/Beagle.c ****     volatile uint16 Beagle_rxBufferRead = 0u;
  38:.\Generated_Source\PSoC5/Beagle.c ****     volatile uint16 Beagle_rxBufferWrite = 0u;
  39:.\Generated_Source\PSoC5/Beagle.c ****     volatile uint8 Beagle_rxBufferLoopDetect = 0u;
  40:.\Generated_Source\PSoC5/Beagle.c ****     volatile uint8 Beagle_rxBufferOverflow = 0u;
  41:.\Generated_Source\PSoC5/Beagle.c ****     #if (Beagle_RXHW_ADDRESS_ENABLED)
  42:.\Generated_Source\PSoC5/Beagle.c ****         volatile uint8 Beagle_rxAddressMode = Beagle_RXADDRESSMODE;
  43:.\Generated_Source\PSoC5/Beagle.c ****         volatile uint8 Beagle_rxAddressDetected = 0u;
  44:.\Generated_Source\PSoC5/Beagle.c ****     #endif /* End EnableHWAddress */
  45:.\Generated_Source\PSoC5/Beagle.c **** #endif /* End Beagle_RX_ENABLED */
  46:.\Generated_Source\PSoC5/Beagle.c **** 
  47:.\Generated_Source\PSoC5/Beagle.c **** 
  48:.\Generated_Source\PSoC5/Beagle.c **** /*******************************************************************************
  49:.\Generated_Source\PSoC5/Beagle.c **** * Function Name: Beagle_Start
  50:.\Generated_Source\PSoC5/Beagle.c **** ********************************************************************************
  51:.\Generated_Source\PSoC5/Beagle.c **** *
  52:.\Generated_Source\PSoC5/Beagle.c **** * Summary:
  53:.\Generated_Source\PSoC5/Beagle.c **** *  Initialize and Enable the UART component.
  54:.\Generated_Source\PSoC5/Beagle.c **** *  Enable the clock input to enable operation.
  55:.\Generated_Source\PSoC5/Beagle.c **** *
  56:.\Generated_Source\PSoC5/Beagle.c **** * Parameters:
  57:.\Generated_Source\PSoC5/Beagle.c **** *  None.
  58:.\Generated_Source\PSoC5/Beagle.c **** *
  59:.\Generated_Source\PSoC5/Beagle.c **** * Return:
ARM GAS  C:\Users\Lenovo\AppData\Local\Temp\cceofia7.s 			page 3


  60:.\Generated_Source\PSoC5/Beagle.c **** *  None.
  61:.\Generated_Source\PSoC5/Beagle.c **** *
  62:.\Generated_Source\PSoC5/Beagle.c **** * Global variables:
  63:.\Generated_Source\PSoC5/Beagle.c **** *  The Beagle_intiVar variable is used to indicate initial
  64:.\Generated_Source\PSoC5/Beagle.c **** *  configuration of this component. The variable is initialized to zero (0u)
  65:.\Generated_Source\PSoC5/Beagle.c **** *  and set to one (1u) the first time UART_Start() is called. This allows for
  66:.\Generated_Source\PSoC5/Beagle.c **** *  component initialization without re-initialization in all subsequent calls
  67:.\Generated_Source\PSoC5/Beagle.c **** *  to the Beagle_Start() routine.
  68:.\Generated_Source\PSoC5/Beagle.c **** *
  69:.\Generated_Source\PSoC5/Beagle.c **** * Reentrant:
  70:.\Generated_Source\PSoC5/Beagle.c **** *  No.
  71:.\Generated_Source\PSoC5/Beagle.c **** *
  72:.\Generated_Source\PSoC5/Beagle.c **** *******************************************************************************/
  73:.\Generated_Source\PSoC5/Beagle.c **** void Beagle_Start(void) 
  74:.\Generated_Source\PSoC5/Beagle.c **** {
  56              		.loc 1 74 0
  57              		.cfi_startproc
  58              		@ args = 0, pretend = 0, frame = 0
  59              		@ frame_needed = 1, uses_anonymous_args = 0
  60 0000 80B5     		push	{r7, lr}
  61              		.cfi_def_cfa_offset 8
  62              		.cfi_offset 7, -8
  63              		.cfi_offset 14, -4
  64 0002 00AF     		add	r7, sp, #0
  65              		.cfi_def_cfa_register 7
  75:.\Generated_Source\PSoC5/Beagle.c ****     /* If not Initialized then initialize all required hardware and software */
  76:.\Generated_Source\PSoC5/Beagle.c ****     if(Beagle_initVar == 0u)
  66              		.loc 1 76 0
  67 0004 054B     		ldr	r3, .L3
  68 0006 1B78     		ldrb	r3, [r3]	@ zero_extendqisi2
  69 0008 002B     		cmp	r3, #0
  70 000a 04D1     		bne	.L2
  77:.\Generated_Source\PSoC5/Beagle.c ****     {
  78:.\Generated_Source\PSoC5/Beagle.c ****         Beagle_Init();
  71              		.loc 1 78 0
  72 000c FFF7FEFF 		bl	Beagle_Init
  79:.\Generated_Source\PSoC5/Beagle.c ****         Beagle_initVar = 1u;
  73              		.loc 1 79 0
  74 0010 024B     		ldr	r3, .L3
  75 0012 0122     		movs	r2, #1
  76 0014 1A70     		strb	r2, [r3]
  77              	.L2:
  80:.\Generated_Source\PSoC5/Beagle.c ****     }
  81:.\Generated_Source\PSoC5/Beagle.c ****     Beagle_Enable();
  78              		.loc 1 81 0
  79 0016 FFF7FEFF 		bl	Beagle_Enable
  82:.\Generated_Source\PSoC5/Beagle.c **** }
  80              		.loc 1 82 0
  81 001a 80BD     		pop	{r7, pc}
  82              	.L4:
  83              		.align	2
  84              	.L3:
  85 001c 00000000 		.word	Beagle_initVar
  86              		.cfi_endproc
  87              	.LFE0:
  88              		.size	Beagle_Start, .-Beagle_Start
  89              		.section	.text.Beagle_Init,"ax",%progbits
ARM GAS  C:\Users\Lenovo\AppData\Local\Temp\cceofia7.s 			page 4


  90              		.align	2
  91              		.global	Beagle_Init
  92              		.thumb
  93              		.thumb_func
  94              		.type	Beagle_Init, %function
  95              	Beagle_Init:
  96              	.LFB1:
  83:.\Generated_Source\PSoC5/Beagle.c **** 
  84:.\Generated_Source\PSoC5/Beagle.c **** 
  85:.\Generated_Source\PSoC5/Beagle.c **** /*******************************************************************************
  86:.\Generated_Source\PSoC5/Beagle.c **** * Function Name: Beagle_Init
  87:.\Generated_Source\PSoC5/Beagle.c **** ********************************************************************************
  88:.\Generated_Source\PSoC5/Beagle.c **** *
  89:.\Generated_Source\PSoC5/Beagle.c **** * Summary:
  90:.\Generated_Source\PSoC5/Beagle.c **** *  Initialize component's parameters to the parameters set by user in the
  91:.\Generated_Source\PSoC5/Beagle.c **** *  customizer of the component placed onto schematic. Usually called in
  92:.\Generated_Source\PSoC5/Beagle.c **** *  Beagle_Start().
  93:.\Generated_Source\PSoC5/Beagle.c **** *
  94:.\Generated_Source\PSoC5/Beagle.c **** * Parameters:
  95:.\Generated_Source\PSoC5/Beagle.c **** *  None.
  96:.\Generated_Source\PSoC5/Beagle.c **** *
  97:.\Generated_Source\PSoC5/Beagle.c **** * Return:
  98:.\Generated_Source\PSoC5/Beagle.c **** *  None.
  99:.\Generated_Source\PSoC5/Beagle.c **** *
 100:.\Generated_Source\PSoC5/Beagle.c **** *******************************************************************************/
 101:.\Generated_Source\PSoC5/Beagle.c **** void Beagle_Init(void) 
 102:.\Generated_Source\PSoC5/Beagle.c **** {
  97              		.loc 1 102 0
  98              		.cfi_startproc
  99              		@ args = 0, pretend = 0, frame = 0
 100              		@ frame_needed = 1, uses_anonymous_args = 0
 101 0000 80B5     		push	{r7, lr}
 102              		.cfi_def_cfa_offset 8
 103              		.cfi_offset 7, -8
 104              		.cfi_offset 14, -4
 105 0002 00AF     		add	r7, sp, #0
 106              		.cfi_def_cfa_register 7
 103:.\Generated_Source\PSoC5/Beagle.c ****     #if(Beagle_RX_ENABLED || Beagle_HD_ENABLED)
 104:.\Generated_Source\PSoC5/Beagle.c **** 
 105:.\Generated_Source\PSoC5/Beagle.c ****         #if(Beagle_RX_INTERRUPT_ENABLED && (Beagle_RXBUFFERSIZE > Beagle_FIFO_LENGTH))
 106:.\Generated_Source\PSoC5/Beagle.c ****             /* Set the RX Interrupt. */
 107:.\Generated_Source\PSoC5/Beagle.c ****             (void)CyIntSetVector(Beagle_RX_VECT_NUM, &Beagle_RXISR);
 107              		.loc 1 107 0
 108 0004 0020     		movs	r0, #0
 109 0006 0B49     		ldr	r1, .L6
 110 0008 FFF7FEFF 		bl	CyIntSetVector
 108:.\Generated_Source\PSoC5/Beagle.c ****             CyIntSetPriority(Beagle_RX_VECT_NUM, Beagle_RX_PRIOR_NUM);
 111              		.loc 1 108 0
 112 000c 0020     		movs	r0, #0
 113 000e 0721     		movs	r1, #7
 114 0010 FFF7FEFF 		bl	CyIntSetPriority
 109:.\Generated_Source\PSoC5/Beagle.c ****         #endif /* End Beagle_RX_INTERRUPT_ENABLED */
 110:.\Generated_Source\PSoC5/Beagle.c **** 
 111:.\Generated_Source\PSoC5/Beagle.c ****         #if (Beagle_RXHW_ADDRESS_ENABLED)
 112:.\Generated_Source\PSoC5/Beagle.c ****             Beagle_SetRxAddressMode(Beagle_RXAddressMode);
 113:.\Generated_Source\PSoC5/Beagle.c ****             Beagle_SetRxAddress1(Beagle_RXHWADDRESS1);
 114:.\Generated_Source\PSoC5/Beagle.c ****             Beagle_SetRxAddress2(Beagle_RXHWADDRESS2);
ARM GAS  C:\Users\Lenovo\AppData\Local\Temp\cceofia7.s 			page 5


 115:.\Generated_Source\PSoC5/Beagle.c ****         #endif /* End Beagle_RXHW_ADDRESS_ENABLED */
 116:.\Generated_Source\PSoC5/Beagle.c **** 
 117:.\Generated_Source\PSoC5/Beagle.c ****         /* Init Count7 period */
 118:.\Generated_Source\PSoC5/Beagle.c ****         Beagle_RXBITCTR_PERIOD_REG = Beagle_RXBITCTR_INIT;
 115              		.loc 1 118 0
 116 0014 084B     		ldr	r3, .L6+4
 117 0016 7222     		movs	r2, #114
 118 0018 1A70     		strb	r2, [r3]
 119:.\Generated_Source\PSoC5/Beagle.c ****         /* Configure the Initial RX interrupt mask */
 120:.\Generated_Source\PSoC5/Beagle.c ****         Beagle_RXSTATUS_MASK_REG  = Beagle_INIT_RX_INTERRUPTS_MASK;
 119              		.loc 1 120 0
 120 001a 084B     		ldr	r3, .L6+8
 121 001c 2022     		movs	r2, #32
 122 001e 1A70     		strb	r2, [r3]
 121:.\Generated_Source\PSoC5/Beagle.c ****     #endif /* End Beagle_RX_ENABLED || Beagle_HD_ENABLED*/
 122:.\Generated_Source\PSoC5/Beagle.c **** 
 123:.\Generated_Source\PSoC5/Beagle.c ****     #if(Beagle_TX_ENABLED)
 124:.\Generated_Source\PSoC5/Beagle.c ****         #if(Beagle_TX_INTERRUPT_ENABLED && (Beagle_TXBUFFERSIZE > Beagle_FIFO_LENGTH))
 125:.\Generated_Source\PSoC5/Beagle.c ****             /* Set the TX Interrupt. */
 126:.\Generated_Source\PSoC5/Beagle.c ****             (void)CyIntSetVector(Beagle_TX_VECT_NUM, &Beagle_TXISR);
 127:.\Generated_Source\PSoC5/Beagle.c ****             CyIntSetPriority(Beagle_TX_VECT_NUM, Beagle_TX_PRIOR_NUM);
 128:.\Generated_Source\PSoC5/Beagle.c ****         #endif /* End Beagle_TX_INTERRUPT_ENABLED */
 129:.\Generated_Source\PSoC5/Beagle.c **** 
 130:.\Generated_Source\PSoC5/Beagle.c ****         /* Write Counter Value for TX Bit Clk Generator*/
 131:.\Generated_Source\PSoC5/Beagle.c ****         #if(Beagle_TXCLKGEN_DP)
 132:.\Generated_Source\PSoC5/Beagle.c ****             Beagle_TXBITCLKGEN_CTR_REG = Beagle_BIT_CENTER;
 123              		.loc 1 132 0
 124 0020 074B     		ldr	r3, .L6+12
 125 0022 0722     		movs	r2, #7
 126 0024 1A70     		strb	r2, [r3]
 133:.\Generated_Source\PSoC5/Beagle.c ****             Beagle_TXBITCLKTX_COMPLETE_REG = (Beagle_NUMBER_OF_DATA_BITS +
 127              		.loc 1 133 0
 128 0026 074B     		ldr	r3, .L6+16
 129 0028 4822     		movs	r2, #72
 130 002a 1A70     		strb	r2, [r3]
 134:.\Generated_Source\PSoC5/Beagle.c ****                         Beagle_NUMBER_OF_START_BIT) * Beagle_OVER_SAMPLE_COUNT;
 135:.\Generated_Source\PSoC5/Beagle.c ****         #else
 136:.\Generated_Source\PSoC5/Beagle.c ****             Beagle_TXBITCTR_PERIOD_REG = ((Beagle_NUMBER_OF_DATA_BITS +
 137:.\Generated_Source\PSoC5/Beagle.c ****                         Beagle_NUMBER_OF_START_BIT) * Beagle_OVER_SAMPLE_8) - 1u;
 138:.\Generated_Source\PSoC5/Beagle.c ****         #endif /* End Beagle_TXCLKGEN_DP */
 139:.\Generated_Source\PSoC5/Beagle.c **** 
 140:.\Generated_Source\PSoC5/Beagle.c ****         /* Configure the Initial TX interrupt mask */
 141:.\Generated_Source\PSoC5/Beagle.c ****         #if(Beagle_TX_INTERRUPT_ENABLED && (Beagle_TXBUFFERSIZE > Beagle_FIFO_LENGTH))
 142:.\Generated_Source\PSoC5/Beagle.c ****             Beagle_TXSTATUS_MASK_REG = Beagle_TX_STS_FIFO_EMPTY;
 143:.\Generated_Source\PSoC5/Beagle.c ****         #else
 144:.\Generated_Source\PSoC5/Beagle.c ****             Beagle_TXSTATUS_MASK_REG = Beagle_INIT_TX_INTERRUPTS_MASK;
 131              		.loc 1 144 0
 132 002c 064B     		ldr	r3, .L6+20
 133 002e 0022     		movs	r2, #0
 134 0030 1A70     		strb	r2, [r3]
 145:.\Generated_Source\PSoC5/Beagle.c ****         #endif /*End Beagle_TX_INTERRUPT_ENABLED*/
 146:.\Generated_Source\PSoC5/Beagle.c **** 
 147:.\Generated_Source\PSoC5/Beagle.c ****     #endif /* End Beagle_TX_ENABLED */
 148:.\Generated_Source\PSoC5/Beagle.c **** 
 149:.\Generated_Source\PSoC5/Beagle.c ****     #if(Beagle_PARITY_TYPE_SW)  /* Write Parity to Control Register */
 150:.\Generated_Source\PSoC5/Beagle.c ****         Beagle_WriteControlRegister( \
 151:.\Generated_Source\PSoC5/Beagle.c ****             (Beagle_ReadControlRegister() & (uint8)~Beagle_CTRL_PARITY_TYPE_MASK) | \
ARM GAS  C:\Users\Lenovo\AppData\Local\Temp\cceofia7.s 			page 6


 152:.\Generated_Source\PSoC5/Beagle.c ****             (uint8)(Beagle_PARITY_TYPE << Beagle_CTRL_PARITY_TYPE0_SHIFT) );
 153:.\Generated_Source\PSoC5/Beagle.c ****     #endif /* End Beagle_PARITY_TYPE_SW */
 154:.\Generated_Source\PSoC5/Beagle.c **** }
 135              		.loc 1 154 0
 136 0032 80BD     		pop	{r7, pc}
 137              	.L7:
 138              		.align	2
 139              	.L6:
 140 0034 00000000 		.word	Beagle_RXISR
 141 0038 81640040 		.word	1073767553
 142 003c 86650040 		.word	1073767814
 143 0040 28650040 		.word	1073767720
 144 0044 38650040 		.word	1073767736
 145 0048 8B640040 		.word	1073767563
 146              		.cfi_endproc
 147              	.LFE1:
 148              		.size	Beagle_Init, .-Beagle_Init
 149              		.section	.text.Beagle_Enable,"ax",%progbits
 150              		.align	2
 151              		.global	Beagle_Enable
 152              		.thumb
 153              		.thumb_func
 154              		.type	Beagle_Enable, %function
 155              	Beagle_Enable:
 156              	.LFB2:
 155:.\Generated_Source\PSoC5/Beagle.c **** 
 156:.\Generated_Source\PSoC5/Beagle.c **** 
 157:.\Generated_Source\PSoC5/Beagle.c **** /*******************************************************************************
 158:.\Generated_Source\PSoC5/Beagle.c **** * Function Name: Beagle_Enable
 159:.\Generated_Source\PSoC5/Beagle.c **** ********************************************************************************
 160:.\Generated_Source\PSoC5/Beagle.c **** *
 161:.\Generated_Source\PSoC5/Beagle.c **** * Summary:
 162:.\Generated_Source\PSoC5/Beagle.c **** *  Enables the UART block operation
 163:.\Generated_Source\PSoC5/Beagle.c **** *
 164:.\Generated_Source\PSoC5/Beagle.c **** * Parameters:
 165:.\Generated_Source\PSoC5/Beagle.c **** *  None.
 166:.\Generated_Source\PSoC5/Beagle.c **** *
 167:.\Generated_Source\PSoC5/Beagle.c **** * Return:
 168:.\Generated_Source\PSoC5/Beagle.c **** *  None.
 169:.\Generated_Source\PSoC5/Beagle.c **** *
 170:.\Generated_Source\PSoC5/Beagle.c **** * Global Variables:
 171:.\Generated_Source\PSoC5/Beagle.c **** *  Beagle_rxAddressDetected - set to initial state (0).
 172:.\Generated_Source\PSoC5/Beagle.c **** *
 173:.\Generated_Source\PSoC5/Beagle.c **** *******************************************************************************/
 174:.\Generated_Source\PSoC5/Beagle.c **** void Beagle_Enable(void) 
 175:.\Generated_Source\PSoC5/Beagle.c **** {
 157              		.loc 1 175 0
 158              		.cfi_startproc
 159              		@ args = 0, pretend = 0, frame = 8
 160              		@ frame_needed = 1, uses_anonymous_args = 0
 161 0000 80B5     		push	{r7, lr}
 162              		.cfi_def_cfa_offset 8
 163              		.cfi_offset 7, -8
 164              		.cfi_offset 14, -4
 165 0002 82B0     		sub	sp, sp, #8
 166              		.cfi_def_cfa_offset 16
 167 0004 00AF     		add	r7, sp, #0
ARM GAS  C:\Users\Lenovo\AppData\Local\Temp\cceofia7.s 			page 7


 168              		.cfi_def_cfa_register 7
 176:.\Generated_Source\PSoC5/Beagle.c ****     uint8 enableInterrupts;
 177:.\Generated_Source\PSoC5/Beagle.c ****     enableInterrupts = CyEnterCriticalSection();
 169              		.loc 1 177 0
 170 0006 FFF7FEFF 		bl	CyEnterCriticalSection
 171 000a 0346     		mov	r3, r0
 172 000c FB71     		strb	r3, [r7, #7]
 178:.\Generated_Source\PSoC5/Beagle.c **** 
 179:.\Generated_Source\PSoC5/Beagle.c ****     #if(Beagle_RX_ENABLED || Beagle_HD_ENABLED)
 180:.\Generated_Source\PSoC5/Beagle.c ****         /*RX Counter (Count7) Enable */
 181:.\Generated_Source\PSoC5/Beagle.c ****         Beagle_RXBITCTR_CONTROL_REG |= Beagle_CNTR_ENABLE;
 173              		.loc 1 181 0
 174 000e 124A     		ldr	r2, .L9
 175 0010 114B     		ldr	r3, .L9
 176 0012 1B78     		ldrb	r3, [r3]
 177 0014 DBB2     		uxtb	r3, r3
 178 0016 43F02003 		orr	r3, r3, #32
 179 001a DBB2     		uxtb	r3, r3
 180 001c 1370     		strb	r3, [r2]
 182:.\Generated_Source\PSoC5/Beagle.c ****         /* Enable the RX Interrupt. */
 183:.\Generated_Source\PSoC5/Beagle.c ****         Beagle_RXSTATUS_ACTL_REG  |= Beagle_INT_ENABLE;
 181              		.loc 1 183 0
 182 001e 0F4A     		ldr	r2, .L9+4
 183 0020 0E4B     		ldr	r3, .L9+4
 184 0022 1B78     		ldrb	r3, [r3]
 185 0024 DBB2     		uxtb	r3, r3
 186 0026 43F01003 		orr	r3, r3, #16
 187 002a DBB2     		uxtb	r3, r3
 188 002c 1370     		strb	r3, [r2]
 184:.\Generated_Source\PSoC5/Beagle.c ****         #if(Beagle_RX_INTERRUPT_ENABLED && (Beagle_RXBUFFERSIZE > Beagle_FIFO_LENGTH))
 185:.\Generated_Source\PSoC5/Beagle.c ****             CyIntEnable(Beagle_RX_VECT_NUM);
 189              		.loc 1 185 0
 190 002e 0C4B     		ldr	r3, .L9+8
 191 0030 0122     		movs	r2, #1
 192 0032 1A60     		str	r2, [r3]
 186:.\Generated_Source\PSoC5/Beagle.c ****             #if (Beagle_RXHW_ADDRESS_ENABLED)
 187:.\Generated_Source\PSoC5/Beagle.c ****                 Beagle_rxAddressDetected = 0u;
 188:.\Generated_Source\PSoC5/Beagle.c ****             #endif /* End Beagle_RXHW_ADDRESS_ENABLED */
 189:.\Generated_Source\PSoC5/Beagle.c ****         #endif /* End Beagle_RX_INTERRUPT_ENABLED */
 190:.\Generated_Source\PSoC5/Beagle.c ****     #endif /* End Beagle_RX_ENABLED || Beagle_HD_ENABLED*/
 191:.\Generated_Source\PSoC5/Beagle.c **** 
 192:.\Generated_Source\PSoC5/Beagle.c ****     #if(Beagle_TX_ENABLED)
 193:.\Generated_Source\PSoC5/Beagle.c ****         /*TX Counter (DP/Count7) Enable */
 194:.\Generated_Source\PSoC5/Beagle.c ****         #if(!Beagle_TXCLKGEN_DP)
 195:.\Generated_Source\PSoC5/Beagle.c ****             Beagle_TXBITCTR_CONTROL_REG |= Beagle_CNTR_ENABLE;
 196:.\Generated_Source\PSoC5/Beagle.c ****         #endif /* End Beagle_TXCLKGEN_DP */
 197:.\Generated_Source\PSoC5/Beagle.c ****         /* Enable the TX Interrupt. */
 198:.\Generated_Source\PSoC5/Beagle.c ****         Beagle_TXSTATUS_ACTL_REG |= Beagle_INT_ENABLE;
 193              		.loc 1 198 0
 194 0034 0B4A     		ldr	r2, .L9+12
 195 0036 0B4B     		ldr	r3, .L9+12
 196 0038 1B78     		ldrb	r3, [r3]
 197 003a DBB2     		uxtb	r3, r3
 198 003c 43F01003 		orr	r3, r3, #16
 199 0040 DBB2     		uxtb	r3, r3
 200 0042 1370     		strb	r3, [r2]
 199:.\Generated_Source\PSoC5/Beagle.c ****         #if(Beagle_TX_INTERRUPT_ENABLED && (Beagle_TXBUFFERSIZE > Beagle_FIFO_LENGTH))
ARM GAS  C:\Users\Lenovo\AppData\Local\Temp\cceofia7.s 			page 8


 200:.\Generated_Source\PSoC5/Beagle.c ****             CyIntEnable(Beagle_TX_VECT_NUM);
 201:.\Generated_Source\PSoC5/Beagle.c ****         #endif /* End Beagle_TX_INTERRUPT_ENABLED*/
 202:.\Generated_Source\PSoC5/Beagle.c ****      #endif /* End Beagle_TX_ENABLED */
 203:.\Generated_Source\PSoC5/Beagle.c **** 
 204:.\Generated_Source\PSoC5/Beagle.c ****     #if(Beagle_INTERNAL_CLOCK_USED)
 205:.\Generated_Source\PSoC5/Beagle.c ****         /* Enable the clock. */
 206:.\Generated_Source\PSoC5/Beagle.c ****         Beagle_IntClock_Start();
 201              		.loc 1 206 0
 202 0044 FFF7FEFF 		bl	Beagle_IntClock_Start
 207:.\Generated_Source\PSoC5/Beagle.c ****     #endif /* End Beagle_INTERNAL_CLOCK_USED */
 208:.\Generated_Source\PSoC5/Beagle.c **** 
 209:.\Generated_Source\PSoC5/Beagle.c ****     CyExitCriticalSection(enableInterrupts);
 203              		.loc 1 209 0
 204 0048 FB79     		ldrb	r3, [r7, #7]	@ zero_extendqisi2
 205 004a 1846     		mov	r0, r3
 206 004c FFF7FEFF 		bl	CyExitCriticalSection
 210:.\Generated_Source\PSoC5/Beagle.c **** }
 207              		.loc 1 210 0
 208 0050 0837     		adds	r7, r7, #8
 209              		.cfi_def_cfa_offset 8
 210 0052 BD46     		mov	sp, r7
 211              		.cfi_def_cfa_register 13
 212              		@ sp needed
 213 0054 80BD     		pop	{r7, pc}
 214              	.L10:
 215 0056 00BF     		.align	2
 216              	.L9:
 217 0058 91640040 		.word	1073767569
 218 005c 96650040 		.word	1073767830
 219 0060 00E100E0 		.word	-536813312
 220 0064 9B640040 		.word	1073767579
 221              		.cfi_endproc
 222              	.LFE2:
 223              		.size	Beagle_Enable, .-Beagle_Enable
 224              		.section	.text.Beagle_Stop,"ax",%progbits
 225              		.align	2
 226              		.global	Beagle_Stop
 227              		.thumb
 228              		.thumb_func
 229              		.type	Beagle_Stop, %function
 230              	Beagle_Stop:
 231              	.LFB3:
 211:.\Generated_Source\PSoC5/Beagle.c **** 
 212:.\Generated_Source\PSoC5/Beagle.c **** 
 213:.\Generated_Source\PSoC5/Beagle.c **** /*******************************************************************************
 214:.\Generated_Source\PSoC5/Beagle.c **** * Function Name: Beagle_Stop
 215:.\Generated_Source\PSoC5/Beagle.c **** ********************************************************************************
 216:.\Generated_Source\PSoC5/Beagle.c **** *
 217:.\Generated_Source\PSoC5/Beagle.c **** * Summary:
 218:.\Generated_Source\PSoC5/Beagle.c **** *  Disable the UART component
 219:.\Generated_Source\PSoC5/Beagle.c **** *
 220:.\Generated_Source\PSoC5/Beagle.c **** * Parameters:
 221:.\Generated_Source\PSoC5/Beagle.c **** *  None.
 222:.\Generated_Source\PSoC5/Beagle.c **** *
 223:.\Generated_Source\PSoC5/Beagle.c **** * Return:
 224:.\Generated_Source\PSoC5/Beagle.c **** *  None.
 225:.\Generated_Source\PSoC5/Beagle.c **** *
ARM GAS  C:\Users\Lenovo\AppData\Local\Temp\cceofia7.s 			page 9


 226:.\Generated_Source\PSoC5/Beagle.c **** *******************************************************************************/
 227:.\Generated_Source\PSoC5/Beagle.c **** void Beagle_Stop(void) 
 228:.\Generated_Source\PSoC5/Beagle.c **** {
 232              		.loc 1 228 0
 233              		.cfi_startproc
 234              		@ args = 0, pretend = 0, frame = 8
 235              		@ frame_needed = 1, uses_anonymous_args = 0
 236 0000 80B5     		push	{r7, lr}
 237              		.cfi_def_cfa_offset 8
 238              		.cfi_offset 7, -8
 239              		.cfi_offset 14, -4
 240 0002 82B0     		sub	sp, sp, #8
 241              		.cfi_def_cfa_offset 16
 242 0004 00AF     		add	r7, sp, #0
 243              		.cfi_def_cfa_register 7
 229:.\Generated_Source\PSoC5/Beagle.c ****     uint8 enableInterrupts;
 230:.\Generated_Source\PSoC5/Beagle.c ****     enableInterrupts = CyEnterCriticalSection();
 244              		.loc 1 230 0
 245 0006 FFF7FEFF 		bl	CyEnterCriticalSection
 246 000a 0346     		mov	r3, r0
 247 000c FB71     		strb	r3, [r7, #7]
 231:.\Generated_Source\PSoC5/Beagle.c **** 
 232:.\Generated_Source\PSoC5/Beagle.c ****     /* Write Bit Counter Disable */
 233:.\Generated_Source\PSoC5/Beagle.c ****     #if(Beagle_RX_ENABLED || Beagle_HD_ENABLED)
 234:.\Generated_Source\PSoC5/Beagle.c ****         Beagle_RXBITCTR_CONTROL_REG &= (uint8)~Beagle_CNTR_ENABLE;
 248              		.loc 1 234 0
 249 000e 114A     		ldr	r2, .L12
 250 0010 104B     		ldr	r3, .L12
 251 0012 1B78     		ldrb	r3, [r3]
 252 0014 DBB2     		uxtb	r3, r3
 253 0016 23F02003 		bic	r3, r3, #32
 254 001a DBB2     		uxtb	r3, r3
 255 001c 1370     		strb	r3, [r2]
 235:.\Generated_Source\PSoC5/Beagle.c ****     #endif /* End Beagle_RX_ENABLED */
 236:.\Generated_Source\PSoC5/Beagle.c **** 
 237:.\Generated_Source\PSoC5/Beagle.c ****     #if(Beagle_TX_ENABLED)
 238:.\Generated_Source\PSoC5/Beagle.c ****         #if(!Beagle_TXCLKGEN_DP)
 239:.\Generated_Source\PSoC5/Beagle.c ****             Beagle_TXBITCTR_CONTROL_REG &= (uint8)~Beagle_CNTR_ENABLE;
 240:.\Generated_Source\PSoC5/Beagle.c ****         #endif /* End Beagle_TXCLKGEN_DP */
 241:.\Generated_Source\PSoC5/Beagle.c ****     #endif /* Beagle_TX_ENABLED */
 242:.\Generated_Source\PSoC5/Beagle.c **** 
 243:.\Generated_Source\PSoC5/Beagle.c ****     #if(Beagle_INTERNAL_CLOCK_USED)
 244:.\Generated_Source\PSoC5/Beagle.c ****         /* Disable the clock. */
 245:.\Generated_Source\PSoC5/Beagle.c ****         Beagle_IntClock_Stop();
 256              		.loc 1 245 0
 257 001e FFF7FEFF 		bl	Beagle_IntClock_Stop
 246:.\Generated_Source\PSoC5/Beagle.c ****     #endif /* End Beagle_INTERNAL_CLOCK_USED */
 247:.\Generated_Source\PSoC5/Beagle.c **** 
 248:.\Generated_Source\PSoC5/Beagle.c ****     /* Disable internal interrupt component */
 249:.\Generated_Source\PSoC5/Beagle.c ****     #if(Beagle_RX_ENABLED || Beagle_HD_ENABLED)
 250:.\Generated_Source\PSoC5/Beagle.c ****         Beagle_RXSTATUS_ACTL_REG  &= (uint8)~Beagle_INT_ENABLE;
 258              		.loc 1 250 0
 259 0022 0D4A     		ldr	r2, .L12+4
 260 0024 0C4B     		ldr	r3, .L12+4
 261 0026 1B78     		ldrb	r3, [r3]
 262 0028 DBB2     		uxtb	r3, r3
 263 002a 23F01003 		bic	r3, r3, #16
ARM GAS  C:\Users\Lenovo\AppData\Local\Temp\cceofia7.s 			page 10


 264 002e DBB2     		uxtb	r3, r3
 265 0030 1370     		strb	r3, [r2]
 251:.\Generated_Source\PSoC5/Beagle.c ****         #if(Beagle_RX_INTERRUPT_ENABLED && (Beagle_RXBUFFERSIZE > Beagle_FIFO_LENGTH))
 252:.\Generated_Source\PSoC5/Beagle.c ****             Beagle_DisableRxInt();
 266              		.loc 1 252 0
 267 0032 FFF7FEFF 		bl	Beagle_DisableRxInt
 253:.\Generated_Source\PSoC5/Beagle.c ****         #endif /* End Beagle_RX_INTERRUPT_ENABLED */
 254:.\Generated_Source\PSoC5/Beagle.c ****     #endif /* End Beagle_RX_ENABLED */
 255:.\Generated_Source\PSoC5/Beagle.c **** 
 256:.\Generated_Source\PSoC5/Beagle.c ****     #if(Beagle_TX_ENABLED)
 257:.\Generated_Source\PSoC5/Beagle.c ****         Beagle_TXSTATUS_ACTL_REG &= (uint8)~Beagle_INT_ENABLE;
 268              		.loc 1 257 0
 269 0036 094A     		ldr	r2, .L12+8
 270 0038 084B     		ldr	r3, .L12+8
 271 003a 1B78     		ldrb	r3, [r3]
 272 003c DBB2     		uxtb	r3, r3
 273 003e 23F01003 		bic	r3, r3, #16
 274 0042 DBB2     		uxtb	r3, r3
 275 0044 1370     		strb	r3, [r2]
 258:.\Generated_Source\PSoC5/Beagle.c ****         #if(Beagle_TX_INTERRUPT_ENABLED && (Beagle_TXBUFFERSIZE > Beagle_FIFO_LENGTH))
 259:.\Generated_Source\PSoC5/Beagle.c ****             Beagle_DisableTxInt();
 260:.\Generated_Source\PSoC5/Beagle.c ****         #endif /* End Beagle_TX_INTERRUPT_ENABLED */
 261:.\Generated_Source\PSoC5/Beagle.c ****     #endif /* End Beagle_TX_ENABLED */
 262:.\Generated_Source\PSoC5/Beagle.c **** 
 263:.\Generated_Source\PSoC5/Beagle.c ****     CyExitCriticalSection(enableInterrupts);
 276              		.loc 1 263 0
 277 0046 FB79     		ldrb	r3, [r7, #7]	@ zero_extendqisi2
 278 0048 1846     		mov	r0, r3
 279 004a FFF7FEFF 		bl	CyExitCriticalSection
 264:.\Generated_Source\PSoC5/Beagle.c **** }
 280              		.loc 1 264 0
 281 004e 0837     		adds	r7, r7, #8
 282              		.cfi_def_cfa_offset 8
 283 0050 BD46     		mov	sp, r7
 284              		.cfi_def_cfa_register 13
 285              		@ sp needed
 286 0052 80BD     		pop	{r7, pc}
 287              	.L13:
 288              		.align	2
 289              	.L12:
 290 0054 91640040 		.word	1073767569
 291 0058 96650040 		.word	1073767830
 292 005c 9B640040 		.word	1073767579
 293              		.cfi_endproc
 294              	.LFE3:
 295              		.size	Beagle_Stop, .-Beagle_Stop
 296              		.section	.text.Beagle_ReadControlRegister,"ax",%progbits
 297              		.align	2
 298              		.global	Beagle_ReadControlRegister
 299              		.thumb
 300              		.thumb_func
 301              		.type	Beagle_ReadControlRegister, %function
 302              	Beagle_ReadControlRegister:
 303              	.LFB4:
 265:.\Generated_Source\PSoC5/Beagle.c **** 
 266:.\Generated_Source\PSoC5/Beagle.c **** 
 267:.\Generated_Source\PSoC5/Beagle.c **** /*******************************************************************************
ARM GAS  C:\Users\Lenovo\AppData\Local\Temp\cceofia7.s 			page 11


 268:.\Generated_Source\PSoC5/Beagle.c **** * Function Name: Beagle_ReadControlRegister
 269:.\Generated_Source\PSoC5/Beagle.c **** ********************************************************************************
 270:.\Generated_Source\PSoC5/Beagle.c **** *
 271:.\Generated_Source\PSoC5/Beagle.c **** * Summary:
 272:.\Generated_Source\PSoC5/Beagle.c **** *  Read the current state of the control register
 273:.\Generated_Source\PSoC5/Beagle.c **** *
 274:.\Generated_Source\PSoC5/Beagle.c **** * Parameters:
 275:.\Generated_Source\PSoC5/Beagle.c **** *  None.
 276:.\Generated_Source\PSoC5/Beagle.c **** *
 277:.\Generated_Source\PSoC5/Beagle.c **** * Return:
 278:.\Generated_Source\PSoC5/Beagle.c **** *  Current state of the control register.
 279:.\Generated_Source\PSoC5/Beagle.c **** *
 280:.\Generated_Source\PSoC5/Beagle.c **** *******************************************************************************/
 281:.\Generated_Source\PSoC5/Beagle.c **** uint8 Beagle_ReadControlRegister(void) 
 282:.\Generated_Source\PSoC5/Beagle.c **** {
 304              		.loc 1 282 0
 305              		.cfi_startproc
 306              		@ args = 0, pretend = 0, frame = 0
 307              		@ frame_needed = 1, uses_anonymous_args = 0
 308              		@ link register save eliminated.
 309 0000 80B4     		push	{r7}
 310              		.cfi_def_cfa_offset 4
 311              		.cfi_offset 7, -4
 312 0002 00AF     		add	r7, sp, #0
 313              		.cfi_def_cfa_register 7
 283:.\Generated_Source\PSoC5/Beagle.c ****     #if( Beagle_CONTROL_REG_REMOVED )
 284:.\Generated_Source\PSoC5/Beagle.c ****         return(0u);
 314              		.loc 1 284 0
 315 0004 0023     		movs	r3, #0
 285:.\Generated_Source\PSoC5/Beagle.c ****     #else
 286:.\Generated_Source\PSoC5/Beagle.c ****         return(Beagle_CONTROL_REG);
 287:.\Generated_Source\PSoC5/Beagle.c ****     #endif /* End Beagle_CONTROL_REG_REMOVED */
 288:.\Generated_Source\PSoC5/Beagle.c **** }
 316              		.loc 1 288 0
 317 0006 1846     		mov	r0, r3
 318 0008 BD46     		mov	sp, r7
 319              		.cfi_def_cfa_register 13
 320              		@ sp needed
 321 000a 5DF8047B 		ldr	r7, [sp], #4
 322              		.cfi_restore 7
 323              		.cfi_def_cfa_offset 0
 324 000e 7047     		bx	lr
 325              		.cfi_endproc
 326              	.LFE4:
 327              		.size	Beagle_ReadControlRegister, .-Beagle_ReadControlRegister
 328              		.section	.text.Beagle_WriteControlRegister,"ax",%progbits
 329              		.align	2
 330              		.global	Beagle_WriteControlRegister
 331              		.thumb
 332              		.thumb_func
 333              		.type	Beagle_WriteControlRegister, %function
 334              	Beagle_WriteControlRegister:
 335              	.LFB5:
 289:.\Generated_Source\PSoC5/Beagle.c **** 
 290:.\Generated_Source\PSoC5/Beagle.c **** 
 291:.\Generated_Source\PSoC5/Beagle.c **** /*******************************************************************************
 292:.\Generated_Source\PSoC5/Beagle.c **** * Function Name: Beagle_WriteControlRegister
ARM GAS  C:\Users\Lenovo\AppData\Local\Temp\cceofia7.s 			page 12


 293:.\Generated_Source\PSoC5/Beagle.c **** ********************************************************************************
 294:.\Generated_Source\PSoC5/Beagle.c **** *
 295:.\Generated_Source\PSoC5/Beagle.c **** * Summary:
 296:.\Generated_Source\PSoC5/Beagle.c **** *  Writes an 8-bit value into the control register
 297:.\Generated_Source\PSoC5/Beagle.c **** *
 298:.\Generated_Source\PSoC5/Beagle.c **** * Parameters:
 299:.\Generated_Source\PSoC5/Beagle.c **** *  control:  control register value
 300:.\Generated_Source\PSoC5/Beagle.c **** *
 301:.\Generated_Source\PSoC5/Beagle.c **** * Return:
 302:.\Generated_Source\PSoC5/Beagle.c **** *  None.
 303:.\Generated_Source\PSoC5/Beagle.c **** *
 304:.\Generated_Source\PSoC5/Beagle.c **** *******************************************************************************/
 305:.\Generated_Source\PSoC5/Beagle.c **** void  Beagle_WriteControlRegister(uint8 control) 
 306:.\Generated_Source\PSoC5/Beagle.c **** {
 336              		.loc 1 306 0
 337              		.cfi_startproc
 338              		@ args = 0, pretend = 0, frame = 8
 339              		@ frame_needed = 1, uses_anonymous_args = 0
 340              		@ link register save eliminated.
 341 0000 80B4     		push	{r7}
 342              		.cfi_def_cfa_offset 4
 343              		.cfi_offset 7, -4
 344 0002 83B0     		sub	sp, sp, #12
 345              		.cfi_def_cfa_offset 16
 346 0004 00AF     		add	r7, sp, #0
 347              		.cfi_def_cfa_register 7
 348 0006 0346     		mov	r3, r0
 349 0008 FB71     		strb	r3, [r7, #7]
 307:.\Generated_Source\PSoC5/Beagle.c ****     #if( Beagle_CONTROL_REG_REMOVED )
 308:.\Generated_Source\PSoC5/Beagle.c ****         if(control != 0u) { }      /* release compiler warning */
 309:.\Generated_Source\PSoC5/Beagle.c ****     #else
 310:.\Generated_Source\PSoC5/Beagle.c ****        Beagle_CONTROL_REG = control;
 311:.\Generated_Source\PSoC5/Beagle.c ****     #endif /* End Beagle_CONTROL_REG_REMOVED */
 312:.\Generated_Source\PSoC5/Beagle.c **** }
 350              		.loc 1 312 0
 351 000a 0C37     		adds	r7, r7, #12
 352              		.cfi_def_cfa_offset 4
 353 000c BD46     		mov	sp, r7
 354              		.cfi_def_cfa_register 13
 355              		@ sp needed
 356 000e 5DF8047B 		ldr	r7, [sp], #4
 357              		.cfi_restore 7
 358              		.cfi_def_cfa_offset 0
 359 0012 7047     		bx	lr
 360              		.cfi_endproc
 361              	.LFE5:
 362              		.size	Beagle_WriteControlRegister, .-Beagle_WriteControlRegister
 363              		.section	.text.Beagle_EnableRxInt,"ax",%progbits
 364              		.align	2
 365              		.global	Beagle_EnableRxInt
 366              		.thumb
 367              		.thumb_func
 368              		.type	Beagle_EnableRxInt, %function
 369              	Beagle_EnableRxInt:
 370              	.LFB6:
 313:.\Generated_Source\PSoC5/Beagle.c **** 
 314:.\Generated_Source\PSoC5/Beagle.c **** 
ARM GAS  C:\Users\Lenovo\AppData\Local\Temp\cceofia7.s 			page 13


 315:.\Generated_Source\PSoC5/Beagle.c **** #if(Beagle_RX_ENABLED || Beagle_HD_ENABLED)
 316:.\Generated_Source\PSoC5/Beagle.c **** 
 317:.\Generated_Source\PSoC5/Beagle.c ****     #if(Beagle_RX_INTERRUPT_ENABLED)
 318:.\Generated_Source\PSoC5/Beagle.c **** 
 319:.\Generated_Source\PSoC5/Beagle.c ****         /*******************************************************************************
 320:.\Generated_Source\PSoC5/Beagle.c ****         * Function Name: Beagle_EnableRxInt
 321:.\Generated_Source\PSoC5/Beagle.c ****         ********************************************************************************
 322:.\Generated_Source\PSoC5/Beagle.c ****         *
 323:.\Generated_Source\PSoC5/Beagle.c ****         * Summary:
 324:.\Generated_Source\PSoC5/Beagle.c ****         *  Enable RX interrupt generation
 325:.\Generated_Source\PSoC5/Beagle.c ****         *
 326:.\Generated_Source\PSoC5/Beagle.c ****         * Parameters:
 327:.\Generated_Source\PSoC5/Beagle.c ****         *  None.
 328:.\Generated_Source\PSoC5/Beagle.c ****         *
 329:.\Generated_Source\PSoC5/Beagle.c ****         * Return:
 330:.\Generated_Source\PSoC5/Beagle.c ****         *  None.
 331:.\Generated_Source\PSoC5/Beagle.c ****         *
 332:.\Generated_Source\PSoC5/Beagle.c ****         * Theory:
 333:.\Generated_Source\PSoC5/Beagle.c ****         *  Enable the interrupt output -or- the interrupt component itself
 334:.\Generated_Source\PSoC5/Beagle.c ****         *
 335:.\Generated_Source\PSoC5/Beagle.c ****         *******************************************************************************/
 336:.\Generated_Source\PSoC5/Beagle.c ****         void Beagle_EnableRxInt(void) 
 337:.\Generated_Source\PSoC5/Beagle.c ****         {
 371              		.loc 1 337 0
 372              		.cfi_startproc
 373              		@ args = 0, pretend = 0, frame = 0
 374              		@ frame_needed = 1, uses_anonymous_args = 0
 375              		@ link register save eliminated.
 376 0000 80B4     		push	{r7}
 377              		.cfi_def_cfa_offset 4
 378              		.cfi_offset 7, -4
 379 0002 00AF     		add	r7, sp, #0
 380              		.cfi_def_cfa_register 7
 338:.\Generated_Source\PSoC5/Beagle.c ****             CyIntEnable(Beagle_RX_VECT_NUM);
 381              		.loc 1 338 0
 382 0004 034B     		ldr	r3, .L18
 383 0006 0122     		movs	r2, #1
 384 0008 1A60     		str	r2, [r3]
 339:.\Generated_Source\PSoC5/Beagle.c ****         }
 385              		.loc 1 339 0
 386 000a BD46     		mov	sp, r7
 387              		.cfi_def_cfa_register 13
 388              		@ sp needed
 389 000c 5DF8047B 		ldr	r7, [sp], #4
 390              		.cfi_restore 7
 391              		.cfi_def_cfa_offset 0
 392 0010 7047     		bx	lr
 393              	.L19:
 394 0012 00BF     		.align	2
 395              	.L18:
 396 0014 00E100E0 		.word	-536813312
 397              		.cfi_endproc
 398              	.LFE6:
 399              		.size	Beagle_EnableRxInt, .-Beagle_EnableRxInt
 400              		.section	.text.Beagle_DisableRxInt,"ax",%progbits
 401              		.align	2
 402              		.global	Beagle_DisableRxInt
ARM GAS  C:\Users\Lenovo\AppData\Local\Temp\cceofia7.s 			page 14


 403              		.thumb
 404              		.thumb_func
 405              		.type	Beagle_DisableRxInt, %function
 406              	Beagle_DisableRxInt:
 407              	.LFB7:
 340:.\Generated_Source\PSoC5/Beagle.c **** 
 341:.\Generated_Source\PSoC5/Beagle.c **** 
 342:.\Generated_Source\PSoC5/Beagle.c ****         /*******************************************************************************
 343:.\Generated_Source\PSoC5/Beagle.c ****         * Function Name: Beagle_DisableRxInt
 344:.\Generated_Source\PSoC5/Beagle.c ****         ********************************************************************************
 345:.\Generated_Source\PSoC5/Beagle.c ****         *
 346:.\Generated_Source\PSoC5/Beagle.c ****         * Summary:
 347:.\Generated_Source\PSoC5/Beagle.c ****         *  Disable RX interrupt generation
 348:.\Generated_Source\PSoC5/Beagle.c ****         *
 349:.\Generated_Source\PSoC5/Beagle.c ****         * Parameters:
 350:.\Generated_Source\PSoC5/Beagle.c ****         *  None.
 351:.\Generated_Source\PSoC5/Beagle.c ****         *
 352:.\Generated_Source\PSoC5/Beagle.c ****         * Return:
 353:.\Generated_Source\PSoC5/Beagle.c ****         *  None.
 354:.\Generated_Source\PSoC5/Beagle.c ****         *
 355:.\Generated_Source\PSoC5/Beagle.c ****         * Theory:
 356:.\Generated_Source\PSoC5/Beagle.c ****         *  Disable the interrupt output -or- the interrupt component itself
 357:.\Generated_Source\PSoC5/Beagle.c ****         *
 358:.\Generated_Source\PSoC5/Beagle.c ****         *******************************************************************************/
 359:.\Generated_Source\PSoC5/Beagle.c ****         void Beagle_DisableRxInt(void) 
 360:.\Generated_Source\PSoC5/Beagle.c ****         {
 408              		.loc 1 360 0
 409              		.cfi_startproc
 410              		@ args = 0, pretend = 0, frame = 0
 411              		@ frame_needed = 1, uses_anonymous_args = 0
 412              		@ link register save eliminated.
 413 0000 80B4     		push	{r7}
 414              		.cfi_def_cfa_offset 4
 415              		.cfi_offset 7, -4
 416 0002 00AF     		add	r7, sp, #0
 417              		.cfi_def_cfa_register 7
 361:.\Generated_Source\PSoC5/Beagle.c ****             CyIntDisable(Beagle_RX_VECT_NUM);
 418              		.loc 1 361 0
 419 0004 034B     		ldr	r3, .L21
 420 0006 0122     		movs	r2, #1
 421 0008 1A60     		str	r2, [r3]
 362:.\Generated_Source\PSoC5/Beagle.c ****         }
 422              		.loc 1 362 0
 423 000a BD46     		mov	sp, r7
 424              		.cfi_def_cfa_register 13
 425              		@ sp needed
 426 000c 5DF8047B 		ldr	r7, [sp], #4
 427              		.cfi_restore 7
 428              		.cfi_def_cfa_offset 0
 429 0010 7047     		bx	lr
 430              	.L22:
 431 0012 00BF     		.align	2
 432              	.L21:
 433 0014 80E100E0 		.word	-536813184
 434              		.cfi_endproc
 435              	.LFE7:
 436              		.size	Beagle_DisableRxInt, .-Beagle_DisableRxInt
ARM GAS  C:\Users\Lenovo\AppData\Local\Temp\cceofia7.s 			page 15


 437              		.section	.text.Beagle_SetRxInterruptMode,"ax",%progbits
 438              		.align	2
 439              		.global	Beagle_SetRxInterruptMode
 440              		.thumb
 441              		.thumb_func
 442              		.type	Beagle_SetRxInterruptMode, %function
 443              	Beagle_SetRxInterruptMode:
 444              	.LFB8:
 363:.\Generated_Source\PSoC5/Beagle.c **** 
 364:.\Generated_Source\PSoC5/Beagle.c ****     #endif /* Beagle_RX_INTERRUPT_ENABLED */
 365:.\Generated_Source\PSoC5/Beagle.c **** 
 366:.\Generated_Source\PSoC5/Beagle.c **** 
 367:.\Generated_Source\PSoC5/Beagle.c ****     /*******************************************************************************
 368:.\Generated_Source\PSoC5/Beagle.c ****     * Function Name: Beagle_SetRxInterruptMode
 369:.\Generated_Source\PSoC5/Beagle.c ****     ********************************************************************************
 370:.\Generated_Source\PSoC5/Beagle.c ****     *
 371:.\Generated_Source\PSoC5/Beagle.c ****     * Summary:
 372:.\Generated_Source\PSoC5/Beagle.c ****     *  Configure which status bits trigger an interrupt event
 373:.\Generated_Source\PSoC5/Beagle.c ****     *
 374:.\Generated_Source\PSoC5/Beagle.c ****     * Parameters:
 375:.\Generated_Source\PSoC5/Beagle.c ****     *  IntSrc:  An or'd combination of the desired status bit masks (defined in
 376:.\Generated_Source\PSoC5/Beagle.c ****     *           the header file)
 377:.\Generated_Source\PSoC5/Beagle.c ****     *
 378:.\Generated_Source\PSoC5/Beagle.c ****     * Return:
 379:.\Generated_Source\PSoC5/Beagle.c ****     *  None.
 380:.\Generated_Source\PSoC5/Beagle.c ****     *
 381:.\Generated_Source\PSoC5/Beagle.c ****     * Theory:
 382:.\Generated_Source\PSoC5/Beagle.c ****     *  Enables the output of specific status bits to the interrupt controller
 383:.\Generated_Source\PSoC5/Beagle.c ****     *
 384:.\Generated_Source\PSoC5/Beagle.c ****     *******************************************************************************/
 385:.\Generated_Source\PSoC5/Beagle.c ****     void Beagle_SetRxInterruptMode(uint8 intSrc) 
 386:.\Generated_Source\PSoC5/Beagle.c ****     {
 445              		.loc 1 386 0
 446              		.cfi_startproc
 447              		@ args = 0, pretend = 0, frame = 8
 448              		@ frame_needed = 1, uses_anonymous_args = 0
 449              		@ link register save eliminated.
 450 0000 80B4     		push	{r7}
 451              		.cfi_def_cfa_offset 4
 452              		.cfi_offset 7, -4
 453 0002 83B0     		sub	sp, sp, #12
 454              		.cfi_def_cfa_offset 16
 455 0004 00AF     		add	r7, sp, #0
 456              		.cfi_def_cfa_register 7
 457 0006 0346     		mov	r3, r0
 458 0008 FB71     		strb	r3, [r7, #7]
 387:.\Generated_Source\PSoC5/Beagle.c ****         Beagle_RXSTATUS_MASK_REG  = intSrc;
 459              		.loc 1 387 0
 460 000a 044A     		ldr	r2, .L24
 461 000c FB79     		ldrb	r3, [r7, #7]
 462 000e 1370     		strb	r3, [r2]
 388:.\Generated_Source\PSoC5/Beagle.c ****     }
 463              		.loc 1 388 0
 464 0010 0C37     		adds	r7, r7, #12
 465              		.cfi_def_cfa_offset 4
 466 0012 BD46     		mov	sp, r7
 467              		.cfi_def_cfa_register 13
ARM GAS  C:\Users\Lenovo\AppData\Local\Temp\cceofia7.s 			page 16


 468              		@ sp needed
 469 0014 5DF8047B 		ldr	r7, [sp], #4
 470              		.cfi_restore 7
 471              		.cfi_def_cfa_offset 0
 472 0018 7047     		bx	lr
 473              	.L25:
 474 001a 00BF     		.align	2
 475              	.L24:
 476 001c 86650040 		.word	1073767814
 477              		.cfi_endproc
 478              	.LFE8:
 479              		.size	Beagle_SetRxInterruptMode, .-Beagle_SetRxInterruptMode
 480              		.section	.text.Beagle_ReadRxData,"ax",%progbits
 481              		.align	2
 482              		.global	Beagle_ReadRxData
 483              		.thumb
 484              		.thumb_func
 485              		.type	Beagle_ReadRxData, %function
 486              	Beagle_ReadRxData:
 487              	.LFB9:
 389:.\Generated_Source\PSoC5/Beagle.c **** 
 390:.\Generated_Source\PSoC5/Beagle.c **** 
 391:.\Generated_Source\PSoC5/Beagle.c ****     /*******************************************************************************
 392:.\Generated_Source\PSoC5/Beagle.c ****     * Function Name: Beagle_ReadRxData
 393:.\Generated_Source\PSoC5/Beagle.c ****     ********************************************************************************
 394:.\Generated_Source\PSoC5/Beagle.c ****     *
 395:.\Generated_Source\PSoC5/Beagle.c ****     * Summary:
 396:.\Generated_Source\PSoC5/Beagle.c ****     *  Returns data in RX Data register without checking status register to
 397:.\Generated_Source\PSoC5/Beagle.c ****     *  determine if data is valid
 398:.\Generated_Source\PSoC5/Beagle.c ****     *
 399:.\Generated_Source\PSoC5/Beagle.c ****     * Parameters:
 400:.\Generated_Source\PSoC5/Beagle.c ****     *  None.
 401:.\Generated_Source\PSoC5/Beagle.c ****     *
 402:.\Generated_Source\PSoC5/Beagle.c ****     * Return:
 403:.\Generated_Source\PSoC5/Beagle.c ****     *  Received data from RX register
 404:.\Generated_Source\PSoC5/Beagle.c ****     *
 405:.\Generated_Source\PSoC5/Beagle.c ****     * Global Variables:
 406:.\Generated_Source\PSoC5/Beagle.c ****     *  Beagle_rxBuffer - RAM buffer pointer for save received data.
 407:.\Generated_Source\PSoC5/Beagle.c ****     *  Beagle_rxBufferWrite - cyclic index for write to rxBuffer,
 408:.\Generated_Source\PSoC5/Beagle.c ****     *     checked to identify new data.
 409:.\Generated_Source\PSoC5/Beagle.c ****     *  Beagle_rxBufferRead - cyclic index for read from rxBuffer,
 410:.\Generated_Source\PSoC5/Beagle.c ****     *     incremented after each byte has been read from buffer.
 411:.\Generated_Source\PSoC5/Beagle.c ****     *  Beagle_rxBufferLoopDetect - creared if loop condition was detected
 412:.\Generated_Source\PSoC5/Beagle.c ****     *     in RX ISR.
 413:.\Generated_Source\PSoC5/Beagle.c ****     *
 414:.\Generated_Source\PSoC5/Beagle.c ****     * Reentrant:
 415:.\Generated_Source\PSoC5/Beagle.c ****     *  No.
 416:.\Generated_Source\PSoC5/Beagle.c ****     *
 417:.\Generated_Source\PSoC5/Beagle.c ****     *******************************************************************************/
 418:.\Generated_Source\PSoC5/Beagle.c ****     uint8 Beagle_ReadRxData(void) 
 419:.\Generated_Source\PSoC5/Beagle.c ****     {
 488              		.loc 1 419 0
 489              		.cfi_startproc
 490              		@ args = 0, pretend = 0, frame = 8
 491              		@ frame_needed = 1, uses_anonymous_args = 0
 492 0000 80B5     		push	{r7, lr}
 493              		.cfi_def_cfa_offset 8
ARM GAS  C:\Users\Lenovo\AppData\Local\Temp\cceofia7.s 			page 17


 494              		.cfi_offset 7, -8
 495              		.cfi_offset 14, -4
 496 0002 82B0     		sub	sp, sp, #8
 497              		.cfi_def_cfa_offset 16
 498 0004 00AF     		add	r7, sp, #0
 499              		.cfi_def_cfa_register 7
 420:.\Generated_Source\PSoC5/Beagle.c ****         uint8 rxData;
 421:.\Generated_Source\PSoC5/Beagle.c **** 
 422:.\Generated_Source\PSoC5/Beagle.c ****         #if(Beagle_RXBUFFERSIZE > Beagle_FIFO_LENGTH)
 423:.\Generated_Source\PSoC5/Beagle.c ****             uint16 loc_rxBufferRead;
 424:.\Generated_Source\PSoC5/Beagle.c ****             uint16 loc_rxBufferWrite;
 425:.\Generated_Source\PSoC5/Beagle.c ****             /* Protect variables that could change on interrupt. */
 426:.\Generated_Source\PSoC5/Beagle.c ****             /* Disable Rx interrupt. */
 427:.\Generated_Source\PSoC5/Beagle.c ****             #if(Beagle_RX_INTERRUPT_ENABLED)
 428:.\Generated_Source\PSoC5/Beagle.c ****                 Beagle_DisableRxInt();
 500              		.loc 1 428 0
 501 0006 FFF7FEFF 		bl	Beagle_DisableRxInt
 429:.\Generated_Source\PSoC5/Beagle.c ****             #endif /* Beagle_RX_INTERRUPT_ENABLED */
 430:.\Generated_Source\PSoC5/Beagle.c ****             loc_rxBufferRead = Beagle_rxBufferRead;
 502              		.loc 1 430 0
 503 000a 1A4B     		ldr	r3, .L33
 504 000c 1B88     		ldrh	r3, [r3]	@ movhi
 505 000e BB80     		strh	r3, [r7, #4]	@ movhi
 431:.\Generated_Source\PSoC5/Beagle.c ****             loc_rxBufferWrite = Beagle_rxBufferWrite;
 506              		.loc 1 431 0
 507 0010 194B     		ldr	r3, .L33+4
 508 0012 1B88     		ldrh	r3, [r3]	@ movhi
 509 0014 7B80     		strh	r3, [r7, #2]	@ movhi
 432:.\Generated_Source\PSoC5/Beagle.c **** 
 433:.\Generated_Source\PSoC5/Beagle.c ****             if( (Beagle_rxBufferLoopDetect != 0u) || (loc_rxBufferRead != loc_rxBufferWrite) )
 510              		.loc 1 433 0
 511 0016 194B     		ldr	r3, .L33+8
 512 0018 1B78     		ldrb	r3, [r3]
 513 001a DBB2     		uxtb	r3, r3
 514 001c 002B     		cmp	r3, #0
 515 001e 03D1     		bne	.L27
 516              		.loc 1 433 0 is_stmt 0 discriminator 1
 517 0020 BA88     		ldrh	r2, [r7, #4]
 518 0022 7B88     		ldrh	r3, [r7, #2]
 519 0024 9A42     		cmp	r2, r3
 520 0026 1AD0     		beq	.L28
 521              	.L27:
 434:.\Generated_Source\PSoC5/Beagle.c ****             {
 435:.\Generated_Source\PSoC5/Beagle.c ****                 rxData = Beagle_rxBuffer[loc_rxBufferRead];
 522              		.loc 1 435 0 is_stmt 1
 523 0028 BB88     		ldrh	r3, [r7, #4]
 524 002a 154A     		ldr	r2, .L33+12
 525 002c D35C     		ldrb	r3, [r2, r3]
 526 002e FB71     		strb	r3, [r7, #7]
 436:.\Generated_Source\PSoC5/Beagle.c ****                 loc_rxBufferRead++;
 527              		.loc 1 436 0
 528 0030 BB88     		ldrh	r3, [r7, #4]
 529 0032 0133     		adds	r3, r3, #1
 530 0034 BB80     		strh	r3, [r7, #4]	@ movhi
 437:.\Generated_Source\PSoC5/Beagle.c **** 
 438:.\Generated_Source\PSoC5/Beagle.c ****                 if(loc_rxBufferRead >= Beagle_RXBUFFERSIZE)
 531              		.loc 1 438 0
ARM GAS  C:\Users\Lenovo\AppData\Local\Temp\cceofia7.s 			page 18


 532 0036 BB88     		ldrh	r3, [r7, #4]
 533 0038 40F2DB52 		movw	r2, #1499
 534 003c 9342     		cmp	r3, r2
 535 003e 01D9     		bls	.L29
 439:.\Generated_Source\PSoC5/Beagle.c ****                 {
 440:.\Generated_Source\PSoC5/Beagle.c ****                     loc_rxBufferRead = 0u;
 536              		.loc 1 440 0
 537 0040 0023     		movs	r3, #0
 538 0042 BB80     		strh	r3, [r7, #4]	@ movhi
 539              	.L29:
 441:.\Generated_Source\PSoC5/Beagle.c ****                 }
 442:.\Generated_Source\PSoC5/Beagle.c ****                 /* Update the real pointer */
 443:.\Generated_Source\PSoC5/Beagle.c ****                 Beagle_rxBufferRead = loc_rxBufferRead;
 540              		.loc 1 443 0
 541 0044 0B4A     		ldr	r2, .L33
 542 0046 BB88     		ldrh	r3, [r7, #4]	@ movhi
 543 0048 1380     		strh	r3, [r2]	@ movhi
 444:.\Generated_Source\PSoC5/Beagle.c **** 
 445:.\Generated_Source\PSoC5/Beagle.c ****                 if(Beagle_rxBufferLoopDetect != 0u )
 544              		.loc 1 445 0
 545 004a 0C4B     		ldr	r3, .L33+8
 546 004c 1B78     		ldrb	r3, [r3]
 547 004e DBB2     		uxtb	r3, r3
 548 0050 002B     		cmp	r3, #0
 549 0052 03D0     		beq	.L30
 446:.\Generated_Source\PSoC5/Beagle.c ****                 {
 447:.\Generated_Source\PSoC5/Beagle.c ****                     Beagle_rxBufferLoopDetect = 0u;
 550              		.loc 1 447 0
 551 0054 094B     		ldr	r3, .L33+8
 552 0056 0022     		movs	r2, #0
 553 0058 1A70     		strb	r2, [r3]
 445:.\Generated_Source\PSoC5/Beagle.c ****                 {
 554              		.loc 1 445 0
 555 005a 03E0     		b	.L31
 556              	.L30:
 557 005c 02E0     		b	.L31
 558              	.L28:
 448:.\Generated_Source\PSoC5/Beagle.c ****                     #if( (Beagle_RX_INTERRUPT_ENABLED) && (Beagle_FLOW_CONTROL != 0u) && \
 449:.\Generated_Source\PSoC5/Beagle.c ****                          (Beagle_RXBUFFERSIZE > Beagle_FIFO_LENGTH) )
 450:.\Generated_Source\PSoC5/Beagle.c ****                         /* When Hardware Flow Control selected - return RX mask */
 451:.\Generated_Source\PSoC5/Beagle.c ****                         #if( Beagle_HD_ENABLED )
 452:.\Generated_Source\PSoC5/Beagle.c ****                             if((Beagle_CONTROL_REG & Beagle_CTRL_HD_SEND) == 0u)
 453:.\Generated_Source\PSoC5/Beagle.c ****                             {   /* In Half duplex mode return RX mask only in RX
 454:.\Generated_Source\PSoC5/Beagle.c ****                                 *  configuration set, otherwise
 455:.\Generated_Source\PSoC5/Beagle.c ****                                 *  mask will be returned in LoadRxConfig() API.
 456:.\Generated_Source\PSoC5/Beagle.c ****                                 */
 457:.\Generated_Source\PSoC5/Beagle.c ****                                 Beagle_RXSTATUS_MASK_REG  |= Beagle_RX_STS_FIFO_NOTEMPTY;
 458:.\Generated_Source\PSoC5/Beagle.c ****                             }
 459:.\Generated_Source\PSoC5/Beagle.c ****                         #else
 460:.\Generated_Source\PSoC5/Beagle.c ****                             Beagle_RXSTATUS_MASK_REG  |= Beagle_RX_STS_FIFO_NOTEMPTY;
 461:.\Generated_Source\PSoC5/Beagle.c ****                         #endif /* end Beagle_HD_ENABLED */
 462:.\Generated_Source\PSoC5/Beagle.c ****                     #endif /* Beagle_RX_INTERRUPT_ENABLED and Hardware flow control*/
 463:.\Generated_Source\PSoC5/Beagle.c ****                 }
 464:.\Generated_Source\PSoC5/Beagle.c ****             }
 465:.\Generated_Source\PSoC5/Beagle.c ****             else
 466:.\Generated_Source\PSoC5/Beagle.c ****             {   /* Needs to check status for RX_STS_FIFO_NOTEMPTY bit*/
 467:.\Generated_Source\PSoC5/Beagle.c ****                 rxData = Beagle_RXDATA_REG;
ARM GAS  C:\Users\Lenovo\AppData\Local\Temp\cceofia7.s 			page 19


 559              		.loc 1 467 0
 560 005e 094B     		ldr	r3, .L33+16
 561 0060 1B78     		ldrb	r3, [r3]
 562 0062 FB71     		strb	r3, [r7, #7]
 563              	.L31:
 468:.\Generated_Source\PSoC5/Beagle.c ****             }
 469:.\Generated_Source\PSoC5/Beagle.c **** 
 470:.\Generated_Source\PSoC5/Beagle.c ****             /* Enable Rx interrupt. */
 471:.\Generated_Source\PSoC5/Beagle.c ****             #if(Beagle_RX_INTERRUPT_ENABLED)
 472:.\Generated_Source\PSoC5/Beagle.c ****                 Beagle_EnableRxInt();
 564              		.loc 1 472 0
 565 0064 FFF7FEFF 		bl	Beagle_EnableRxInt
 473:.\Generated_Source\PSoC5/Beagle.c ****             #endif /* End Beagle_RX_INTERRUPT_ENABLED */
 474:.\Generated_Source\PSoC5/Beagle.c **** 
 475:.\Generated_Source\PSoC5/Beagle.c ****         #else /* Beagle_RXBUFFERSIZE > Beagle_FIFO_LENGTH */
 476:.\Generated_Source\PSoC5/Beagle.c **** 
 477:.\Generated_Source\PSoC5/Beagle.c ****             /* Needs to check status for RX_STS_FIFO_NOTEMPTY bit*/
 478:.\Generated_Source\PSoC5/Beagle.c ****             rxData = Beagle_RXDATA_REG;
 479:.\Generated_Source\PSoC5/Beagle.c **** 
 480:.\Generated_Source\PSoC5/Beagle.c ****         #endif /* Beagle_RXBUFFERSIZE > Beagle_FIFO_LENGTH */
 481:.\Generated_Source\PSoC5/Beagle.c **** 
 482:.\Generated_Source\PSoC5/Beagle.c ****         return(rxData);
 566              		.loc 1 482 0
 567 0068 FB79     		ldrb	r3, [r7, #7]	@ zero_extendqisi2
 483:.\Generated_Source\PSoC5/Beagle.c ****     }
 568              		.loc 1 483 0
 569 006a 1846     		mov	r0, r3
 570 006c 0837     		adds	r7, r7, #8
 571              		.cfi_def_cfa_offset 8
 572 006e BD46     		mov	sp, r7
 573              		.cfi_def_cfa_register 13
 574              		@ sp needed
 575 0070 80BD     		pop	{r7, pc}
 576              	.L34:
 577 0072 00BF     		.align	2
 578              	.L33:
 579 0074 00000000 		.word	Beagle_rxBufferRead
 580 0078 00000000 		.word	Beagle_rxBufferWrite
 581 007c 00000000 		.word	Beagle_rxBufferLoopDetect
 582 0080 00000000 		.word	Beagle_rxBuffer
 583 0084 42640040 		.word	1073767490
 584              		.cfi_endproc
 585              	.LFE9:
 586              		.size	Beagle_ReadRxData, .-Beagle_ReadRxData
 587              		.section	.text.Beagle_ReadRxStatus,"ax",%progbits
 588              		.align	2
 589              		.global	Beagle_ReadRxStatus
 590              		.thumb
 591              		.thumb_func
 592              		.type	Beagle_ReadRxStatus, %function
 593              	Beagle_ReadRxStatus:
 594              	.LFB10:
 484:.\Generated_Source\PSoC5/Beagle.c **** 
 485:.\Generated_Source\PSoC5/Beagle.c **** 
 486:.\Generated_Source\PSoC5/Beagle.c ****     /*******************************************************************************
 487:.\Generated_Source\PSoC5/Beagle.c ****     * Function Name: Beagle_ReadRxStatus
 488:.\Generated_Source\PSoC5/Beagle.c ****     ********************************************************************************
ARM GAS  C:\Users\Lenovo\AppData\Local\Temp\cceofia7.s 			page 20


 489:.\Generated_Source\PSoC5/Beagle.c ****     *
 490:.\Generated_Source\PSoC5/Beagle.c ****     * Summary:
 491:.\Generated_Source\PSoC5/Beagle.c ****     *  Read the current state of the status register
 492:.\Generated_Source\PSoC5/Beagle.c ****     *  And detect software buffer overflow.
 493:.\Generated_Source\PSoC5/Beagle.c ****     *
 494:.\Generated_Source\PSoC5/Beagle.c ****     * Parameters:
 495:.\Generated_Source\PSoC5/Beagle.c ****     *  None.
 496:.\Generated_Source\PSoC5/Beagle.c ****     *
 497:.\Generated_Source\PSoC5/Beagle.c ****     * Return:
 498:.\Generated_Source\PSoC5/Beagle.c ****     *  Current state of the status register.
 499:.\Generated_Source\PSoC5/Beagle.c ****     *
 500:.\Generated_Source\PSoC5/Beagle.c ****     * Global Variables:
 501:.\Generated_Source\PSoC5/Beagle.c ****     *  Beagle_rxBufferOverflow - used to indicate overload condition.
 502:.\Generated_Source\PSoC5/Beagle.c ****     *   It set to one in RX interrupt when there isn?t free space in
 503:.\Generated_Source\PSoC5/Beagle.c ****     *   Beagle_rxBufferRead to write new data. This condition returned
 504:.\Generated_Source\PSoC5/Beagle.c ****     *   and cleared to zero by this API as an
 505:.\Generated_Source\PSoC5/Beagle.c ****     *   Beagle_RX_STS_SOFT_BUFF_OVER bit along with RX Status register
 506:.\Generated_Source\PSoC5/Beagle.c ****     *   bits.
 507:.\Generated_Source\PSoC5/Beagle.c ****     *
 508:.\Generated_Source\PSoC5/Beagle.c ****     *******************************************************************************/
 509:.\Generated_Source\PSoC5/Beagle.c ****     uint8 Beagle_ReadRxStatus(void) 
 510:.\Generated_Source\PSoC5/Beagle.c ****     {
 595              		.loc 1 510 0
 596              		.cfi_startproc
 597              		@ args = 0, pretend = 0, frame = 8
 598              		@ frame_needed = 1, uses_anonymous_args = 0
 599              		@ link register save eliminated.
 600 0000 80B4     		push	{r7}
 601              		.cfi_def_cfa_offset 4
 602              		.cfi_offset 7, -4
 603 0002 83B0     		sub	sp, sp, #12
 604              		.cfi_def_cfa_offset 16
 605 0004 00AF     		add	r7, sp, #0
 606              		.cfi_def_cfa_register 7
 511:.\Generated_Source\PSoC5/Beagle.c ****         uint8 status;
 512:.\Generated_Source\PSoC5/Beagle.c **** 
 513:.\Generated_Source\PSoC5/Beagle.c ****         status = Beagle_RXSTATUS_REG & Beagle_RX_HW_MASK;
 607              		.loc 1 513 0
 608 0006 0C4B     		ldr	r3, .L38
 609 0008 1B78     		ldrb	r3, [r3]
 610 000a DBB2     		uxtb	r3, r3
 611 000c 03F07F03 		and	r3, r3, #127
 612 0010 FB71     		strb	r3, [r7, #7]
 514:.\Generated_Source\PSoC5/Beagle.c **** 
 515:.\Generated_Source\PSoC5/Beagle.c ****         #if(Beagle_RXBUFFERSIZE > Beagle_FIFO_LENGTH)
 516:.\Generated_Source\PSoC5/Beagle.c ****             if( Beagle_rxBufferOverflow != 0u )
 613              		.loc 1 516 0
 614 0012 0A4B     		ldr	r3, .L38+4
 615 0014 1B78     		ldrb	r3, [r3]
 616 0016 DBB2     		uxtb	r3, r3
 617 0018 002B     		cmp	r3, #0
 618 001a 06D0     		beq	.L36
 517:.\Generated_Source\PSoC5/Beagle.c ****             {
 518:.\Generated_Source\PSoC5/Beagle.c ****                 status |= Beagle_RX_STS_SOFT_BUFF_OVER;
 619              		.loc 1 518 0
 620 001c FB79     		ldrb	r3, [r7, #7]
 621 001e 63F07F03 		orn	r3, r3, #127
ARM GAS  C:\Users\Lenovo\AppData\Local\Temp\cceofia7.s 			page 21


 622 0022 FB71     		strb	r3, [r7, #7]
 519:.\Generated_Source\PSoC5/Beagle.c ****                 Beagle_rxBufferOverflow = 0u;
 623              		.loc 1 519 0
 624 0024 054B     		ldr	r3, .L38+4
 625 0026 0022     		movs	r2, #0
 626 0028 1A70     		strb	r2, [r3]
 627              	.L36:
 520:.\Generated_Source\PSoC5/Beagle.c ****             }
 521:.\Generated_Source\PSoC5/Beagle.c ****         #endif /* Beagle_RXBUFFERSIZE */
 522:.\Generated_Source\PSoC5/Beagle.c **** 
 523:.\Generated_Source\PSoC5/Beagle.c ****         return(status);
 628              		.loc 1 523 0
 629 002a FB79     		ldrb	r3, [r7, #7]	@ zero_extendqisi2
 524:.\Generated_Source\PSoC5/Beagle.c ****     }
 630              		.loc 1 524 0
 631 002c 1846     		mov	r0, r3
 632 002e 0C37     		adds	r7, r7, #12
 633              		.cfi_def_cfa_offset 4
 634 0030 BD46     		mov	sp, r7
 635              		.cfi_def_cfa_register 13
 636              		@ sp needed
 637 0032 5DF8047B 		ldr	r7, [sp], #4
 638              		.cfi_restore 7
 639              		.cfi_def_cfa_offset 0
 640 0036 7047     		bx	lr
 641              	.L39:
 642              		.align	2
 643              	.L38:
 644 0038 66650040 		.word	1073767782
 645 003c 00000000 		.word	Beagle_rxBufferOverflow
 646              		.cfi_endproc
 647              	.LFE10:
 648              		.size	Beagle_ReadRxStatus, .-Beagle_ReadRxStatus
 649              		.section	.text.Beagle_GetChar,"ax",%progbits
 650              		.align	2
 651              		.global	Beagle_GetChar
 652              		.thumb
 653              		.thumb_func
 654              		.type	Beagle_GetChar, %function
 655              	Beagle_GetChar:
 656              	.LFB11:
 525:.\Generated_Source\PSoC5/Beagle.c **** 
 526:.\Generated_Source\PSoC5/Beagle.c **** 
 527:.\Generated_Source\PSoC5/Beagle.c ****     /*******************************************************************************
 528:.\Generated_Source\PSoC5/Beagle.c ****     * Function Name: Beagle_GetChar
 529:.\Generated_Source\PSoC5/Beagle.c ****     ********************************************************************************
 530:.\Generated_Source\PSoC5/Beagle.c ****     *
 531:.\Generated_Source\PSoC5/Beagle.c ****     * Summary:
 532:.\Generated_Source\PSoC5/Beagle.c ****     *  Reads UART RX buffer immediately, if data is not available or an error
 533:.\Generated_Source\PSoC5/Beagle.c ****     *  condition exists, zero is returned; otherwise, character is read and
 534:.\Generated_Source\PSoC5/Beagle.c ****     *  returned.
 535:.\Generated_Source\PSoC5/Beagle.c ****     *
 536:.\Generated_Source\PSoC5/Beagle.c ****     * Parameters:
 537:.\Generated_Source\PSoC5/Beagle.c ****     *  None.
 538:.\Generated_Source\PSoC5/Beagle.c ****     *
 539:.\Generated_Source\PSoC5/Beagle.c ****     * Return:
 540:.\Generated_Source\PSoC5/Beagle.c ****     *  Character read from UART RX buffer. ASCII characters from 1 to 255 are valid.
ARM GAS  C:\Users\Lenovo\AppData\Local\Temp\cceofia7.s 			page 22


 541:.\Generated_Source\PSoC5/Beagle.c ****     *  A returned zero signifies an error condition or no data available.
 542:.\Generated_Source\PSoC5/Beagle.c ****     *
 543:.\Generated_Source\PSoC5/Beagle.c ****     * Global Variables:
 544:.\Generated_Source\PSoC5/Beagle.c ****     *  Beagle_rxBuffer - RAM buffer pointer for save received data.
 545:.\Generated_Source\PSoC5/Beagle.c ****     *  Beagle_rxBufferWrite - cyclic index for write to rxBuffer,
 546:.\Generated_Source\PSoC5/Beagle.c ****     *     checked to identify new data.
 547:.\Generated_Source\PSoC5/Beagle.c ****     *  Beagle_rxBufferRead - cyclic index for read from rxBuffer,
 548:.\Generated_Source\PSoC5/Beagle.c ****     *     incremented after each byte has been read from buffer.
 549:.\Generated_Source\PSoC5/Beagle.c ****     *  Beagle_rxBufferLoopDetect - creared if loop condition was detected
 550:.\Generated_Source\PSoC5/Beagle.c ****     *     in RX ISR.
 551:.\Generated_Source\PSoC5/Beagle.c ****     *
 552:.\Generated_Source\PSoC5/Beagle.c ****     * Reentrant:
 553:.\Generated_Source\PSoC5/Beagle.c ****     *  No.
 554:.\Generated_Source\PSoC5/Beagle.c ****     *
 555:.\Generated_Source\PSoC5/Beagle.c ****     *******************************************************************************/
 556:.\Generated_Source\PSoC5/Beagle.c ****     uint8 Beagle_GetChar(void) 
 557:.\Generated_Source\PSoC5/Beagle.c ****     {
 657              		.loc 1 557 0
 658              		.cfi_startproc
 659              		@ args = 0, pretend = 0, frame = 8
 660              		@ frame_needed = 1, uses_anonymous_args = 0
 661 0000 80B5     		push	{r7, lr}
 662              		.cfi_def_cfa_offset 8
 663              		.cfi_offset 7, -8
 664              		.cfi_offset 14, -4
 665 0002 82B0     		sub	sp, sp, #8
 666              		.cfi_def_cfa_offset 16
 667 0004 00AF     		add	r7, sp, #0
 668              		.cfi_def_cfa_register 7
 558:.\Generated_Source\PSoC5/Beagle.c ****         uint8 rxData = 0u;
 669              		.loc 1 558 0
 670 0006 0023     		movs	r3, #0
 671 0008 FB71     		strb	r3, [r7, #7]
 559:.\Generated_Source\PSoC5/Beagle.c ****         uint8 rxStatus;
 560:.\Generated_Source\PSoC5/Beagle.c **** 
 561:.\Generated_Source\PSoC5/Beagle.c ****         #if(Beagle_RXBUFFERSIZE > Beagle_FIFO_LENGTH)
 562:.\Generated_Source\PSoC5/Beagle.c ****             uint16 loc_rxBufferRead;
 563:.\Generated_Source\PSoC5/Beagle.c ****             uint16 loc_rxBufferWrite;
 564:.\Generated_Source\PSoC5/Beagle.c ****             /* Protect variables that could change on interrupt. */
 565:.\Generated_Source\PSoC5/Beagle.c ****             /* Disable Rx interrupt. */
 566:.\Generated_Source\PSoC5/Beagle.c ****             #if(Beagle_RX_INTERRUPT_ENABLED)
 567:.\Generated_Source\PSoC5/Beagle.c ****                 Beagle_DisableRxInt();
 672              		.loc 1 567 0
 673 000a FFF7FEFF 		bl	Beagle_DisableRxInt
 568:.\Generated_Source\PSoC5/Beagle.c ****             #endif /* Beagle_RX_INTERRUPT_ENABLED */
 569:.\Generated_Source\PSoC5/Beagle.c ****             loc_rxBufferRead = Beagle_rxBufferRead;
 674              		.loc 1 569 0
 675 000e 214B     		ldr	r3, .L47
 676 0010 1B88     		ldrh	r3, [r3]	@ movhi
 677 0012 BB80     		strh	r3, [r7, #4]	@ movhi
 570:.\Generated_Source\PSoC5/Beagle.c ****             loc_rxBufferWrite = Beagle_rxBufferWrite;
 678              		.loc 1 570 0
 679 0014 204B     		ldr	r3, .L47+4
 680 0016 1B88     		ldrh	r3, [r3]	@ movhi
 681 0018 7B80     		strh	r3, [r7, #2]	@ movhi
 571:.\Generated_Source\PSoC5/Beagle.c **** 
 572:.\Generated_Source\PSoC5/Beagle.c ****             if( (Beagle_rxBufferLoopDetect != 0u) || (loc_rxBufferRead != loc_rxBufferWrite) )
ARM GAS  C:\Users\Lenovo\AppData\Local\Temp\cceofia7.s 			page 23


 682              		.loc 1 572 0
 683 001a 204B     		ldr	r3, .L47+8
 684 001c 1B78     		ldrb	r3, [r3]
 685 001e DBB2     		uxtb	r3, r3
 686 0020 002B     		cmp	r3, #0
 687 0022 03D1     		bne	.L41
 688              		.loc 1 572 0 is_stmt 0 discriminator 1
 689 0024 BA88     		ldrh	r2, [r7, #4]
 690 0026 7B88     		ldrh	r3, [r7, #2]
 691 0028 9A42     		cmp	r2, r3
 692 002a 1AD0     		beq	.L42
 693              	.L41:
 573:.\Generated_Source\PSoC5/Beagle.c ****             {
 574:.\Generated_Source\PSoC5/Beagle.c ****                 rxData = Beagle_rxBuffer[loc_rxBufferRead];
 694              		.loc 1 574 0 is_stmt 1
 695 002c BB88     		ldrh	r3, [r7, #4]
 696 002e 1C4A     		ldr	r2, .L47+12
 697 0030 D35C     		ldrb	r3, [r2, r3]
 698 0032 FB71     		strb	r3, [r7, #7]
 575:.\Generated_Source\PSoC5/Beagle.c ****                 loc_rxBufferRead++;
 699              		.loc 1 575 0
 700 0034 BB88     		ldrh	r3, [r7, #4]
 701 0036 0133     		adds	r3, r3, #1
 702 0038 BB80     		strh	r3, [r7, #4]	@ movhi
 576:.\Generated_Source\PSoC5/Beagle.c ****                 if(loc_rxBufferRead >= Beagle_RXBUFFERSIZE)
 703              		.loc 1 576 0
 704 003a BB88     		ldrh	r3, [r7, #4]
 705 003c 40F2DB52 		movw	r2, #1499
 706 0040 9342     		cmp	r3, r2
 707 0042 01D9     		bls	.L43
 577:.\Generated_Source\PSoC5/Beagle.c ****                 {
 578:.\Generated_Source\PSoC5/Beagle.c ****                     loc_rxBufferRead = 0u;
 708              		.loc 1 578 0
 709 0044 0023     		movs	r3, #0
 710 0046 BB80     		strh	r3, [r7, #4]	@ movhi
 711              	.L43:
 579:.\Generated_Source\PSoC5/Beagle.c ****                 }
 580:.\Generated_Source\PSoC5/Beagle.c ****                 /* Update the real pointer */
 581:.\Generated_Source\PSoC5/Beagle.c ****                 Beagle_rxBufferRead = loc_rxBufferRead;
 712              		.loc 1 581 0
 713 0048 124A     		ldr	r2, .L47
 714 004a BB88     		ldrh	r3, [r7, #4]	@ movhi
 715 004c 1380     		strh	r3, [r2]	@ movhi
 582:.\Generated_Source\PSoC5/Beagle.c **** 
 583:.\Generated_Source\PSoC5/Beagle.c ****                 if(Beagle_rxBufferLoopDetect > 0u )
 716              		.loc 1 583 0
 717 004e 134B     		ldr	r3, .L47+8
 718 0050 1B78     		ldrb	r3, [r3]
 719 0052 DBB2     		uxtb	r3, r3
 720 0054 002B     		cmp	r3, #0
 721 0056 03D0     		beq	.L44
 584:.\Generated_Source\PSoC5/Beagle.c ****                 {
 585:.\Generated_Source\PSoC5/Beagle.c ****                     Beagle_rxBufferLoopDetect = 0u;
 722              		.loc 1 585 0
 723 0058 104B     		ldr	r3, .L47+8
 724 005a 0022     		movs	r2, #0
 725 005c 1A70     		strb	r2, [r3]
ARM GAS  C:\Users\Lenovo\AppData\Local\Temp\cceofia7.s 			page 24


 583:.\Generated_Source\PSoC5/Beagle.c ****                 {
 726              		.loc 1 583 0
 727 005e 12E0     		b	.L45
 728              	.L44:
 729 0060 11E0     		b	.L45
 730              	.L42:
 586:.\Generated_Source\PSoC5/Beagle.c ****                     #if( (Beagle_RX_INTERRUPT_ENABLED) && (Beagle_FLOW_CONTROL != 0u) )
 587:.\Generated_Source\PSoC5/Beagle.c ****                         /* When Hardware Flow Control selected - return RX mask */
 588:.\Generated_Source\PSoC5/Beagle.c ****                         #if( Beagle_HD_ENABLED )
 589:.\Generated_Source\PSoC5/Beagle.c ****                             if((Beagle_CONTROL_REG & Beagle_CTRL_HD_SEND) == 0u)
 590:.\Generated_Source\PSoC5/Beagle.c ****                             {   /* In Half duplex mode return RX mask only if
 591:.\Generated_Source\PSoC5/Beagle.c ****                                 *  RX configuration set, otherwise
 592:.\Generated_Source\PSoC5/Beagle.c ****                                 *  mask will be returned in LoadRxConfig() API.
 593:.\Generated_Source\PSoC5/Beagle.c ****                                 */
 594:.\Generated_Source\PSoC5/Beagle.c ****                                 Beagle_RXSTATUS_MASK_REG  |= Beagle_RX_STS_FIFO_NOTEMPTY;
 595:.\Generated_Source\PSoC5/Beagle.c ****                             }
 596:.\Generated_Source\PSoC5/Beagle.c ****                         #else
 597:.\Generated_Source\PSoC5/Beagle.c ****                             Beagle_RXSTATUS_MASK_REG  |= Beagle_RX_STS_FIFO_NOTEMPTY;
 598:.\Generated_Source\PSoC5/Beagle.c ****                         #endif /* end Beagle_HD_ENABLED */
 599:.\Generated_Source\PSoC5/Beagle.c ****                     #endif /* Beagle_RX_INTERRUPT_ENABLED and Hardware flow control*/
 600:.\Generated_Source\PSoC5/Beagle.c ****                 }
 601:.\Generated_Source\PSoC5/Beagle.c **** 
 602:.\Generated_Source\PSoC5/Beagle.c ****             }
 603:.\Generated_Source\PSoC5/Beagle.c ****             else
 604:.\Generated_Source\PSoC5/Beagle.c ****             {   rxStatus = Beagle_RXSTATUS_REG;
 731              		.loc 1 604 0
 732 0062 104B     		ldr	r3, .L47+16
 733 0064 1B78     		ldrb	r3, [r3]
 734 0066 7B70     		strb	r3, [r7, #1]
 605:.\Generated_Source\PSoC5/Beagle.c ****                 if((rxStatus & Beagle_RX_STS_FIFO_NOTEMPTY) != 0u)
 735              		.loc 1 605 0
 736 0068 7B78     		ldrb	r3, [r7, #1]	@ zero_extendqisi2
 737 006a 03F02003 		and	r3, r3, #32
 738 006e 002B     		cmp	r3, #0
 739 0070 09D0     		beq	.L45
 606:.\Generated_Source\PSoC5/Beagle.c ****                 {   /* Read received data from FIFO*/
 607:.\Generated_Source\PSoC5/Beagle.c ****                     rxData = Beagle_RXDATA_REG;
 740              		.loc 1 607 0
 741 0072 0D4B     		ldr	r3, .L47+20
 742 0074 1B78     		ldrb	r3, [r3]
 743 0076 FB71     		strb	r3, [r7, #7]
 608:.\Generated_Source\PSoC5/Beagle.c ****                     /*Check status on error*/
 609:.\Generated_Source\PSoC5/Beagle.c ****                     if((rxStatus & (Beagle_RX_STS_BREAK | Beagle_RX_STS_PAR_ERROR |
 610:.\Generated_Source\PSoC5/Beagle.c ****                                    Beagle_RX_STS_STOP_ERROR | Beagle_RX_STS_OVERRUN)) != 0u)
 744              		.loc 1 610 0
 745 0078 7B78     		ldrb	r3, [r7, #1]	@ zero_extendqisi2
 746 007a 03F01E03 		and	r3, r3, #30
 609:.\Generated_Source\PSoC5/Beagle.c ****                                    Beagle_RX_STS_STOP_ERROR | Beagle_RX_STS_OVERRUN)) != 0u)
 747              		.loc 1 609 0
 748 007e 002B     		cmp	r3, #0
 749 0080 01D0     		beq	.L45
 611:.\Generated_Source\PSoC5/Beagle.c ****                     {
 612:.\Generated_Source\PSoC5/Beagle.c ****                         rxData = 0u;
 750              		.loc 1 612 0
 751 0082 0023     		movs	r3, #0
 752 0084 FB71     		strb	r3, [r7, #7]
 753              	.L45:
ARM GAS  C:\Users\Lenovo\AppData\Local\Temp\cceofia7.s 			page 25


 613:.\Generated_Source\PSoC5/Beagle.c ****                     }
 614:.\Generated_Source\PSoC5/Beagle.c ****                 }
 615:.\Generated_Source\PSoC5/Beagle.c ****             }
 616:.\Generated_Source\PSoC5/Beagle.c **** 
 617:.\Generated_Source\PSoC5/Beagle.c ****             /* Enable Rx interrupt. */
 618:.\Generated_Source\PSoC5/Beagle.c ****             #if(Beagle_RX_INTERRUPT_ENABLED)
 619:.\Generated_Source\PSoC5/Beagle.c ****                 Beagle_EnableRxInt();
 754              		.loc 1 619 0
 755 0086 FFF7FEFF 		bl	Beagle_EnableRxInt
 620:.\Generated_Source\PSoC5/Beagle.c ****             #endif /* Beagle_RX_INTERRUPT_ENABLED */
 621:.\Generated_Source\PSoC5/Beagle.c **** 
 622:.\Generated_Source\PSoC5/Beagle.c ****         #else /* Beagle_RXBUFFERSIZE > Beagle_FIFO_LENGTH */
 623:.\Generated_Source\PSoC5/Beagle.c **** 
 624:.\Generated_Source\PSoC5/Beagle.c ****             rxStatus =Beagle_RXSTATUS_REG;
 625:.\Generated_Source\PSoC5/Beagle.c ****             if((rxStatus & Beagle_RX_STS_FIFO_NOTEMPTY) != 0u)
 626:.\Generated_Source\PSoC5/Beagle.c ****             {   /* Read received data from FIFO*/
 627:.\Generated_Source\PSoC5/Beagle.c ****                 rxData = Beagle_RXDATA_REG;
 628:.\Generated_Source\PSoC5/Beagle.c ****                 /*Check status on error*/
 629:.\Generated_Source\PSoC5/Beagle.c ****                 if((rxStatus & (Beagle_RX_STS_BREAK | Beagle_RX_STS_PAR_ERROR |
 630:.\Generated_Source\PSoC5/Beagle.c ****                                Beagle_RX_STS_STOP_ERROR | Beagle_RX_STS_OVERRUN)) != 0u)
 631:.\Generated_Source\PSoC5/Beagle.c ****                 {
 632:.\Generated_Source\PSoC5/Beagle.c ****                     rxData = 0u;
 633:.\Generated_Source\PSoC5/Beagle.c ****                 }
 634:.\Generated_Source\PSoC5/Beagle.c ****             }
 635:.\Generated_Source\PSoC5/Beagle.c ****         #endif /* Beagle_RXBUFFERSIZE > Beagle_FIFO_LENGTH */
 636:.\Generated_Source\PSoC5/Beagle.c **** 
 637:.\Generated_Source\PSoC5/Beagle.c ****         return(rxData);
 756              		.loc 1 637 0
 757 008a FB79     		ldrb	r3, [r7, #7]	@ zero_extendqisi2
 638:.\Generated_Source\PSoC5/Beagle.c ****     }
 758              		.loc 1 638 0
 759 008c 1846     		mov	r0, r3
 760 008e 0837     		adds	r7, r7, #8
 761              		.cfi_def_cfa_offset 8
 762 0090 BD46     		mov	sp, r7
 763              		.cfi_def_cfa_register 13
 764              		@ sp needed
 765 0092 80BD     		pop	{r7, pc}
 766              	.L48:
 767              		.align	2
 768              	.L47:
 769 0094 00000000 		.word	Beagle_rxBufferRead
 770 0098 00000000 		.word	Beagle_rxBufferWrite
 771 009c 00000000 		.word	Beagle_rxBufferLoopDetect
 772 00a0 00000000 		.word	Beagle_rxBuffer
 773 00a4 66650040 		.word	1073767782
 774 00a8 42640040 		.word	1073767490
 775              		.cfi_endproc
 776              	.LFE11:
 777              		.size	Beagle_GetChar, .-Beagle_GetChar
 778              		.section	.text.Beagle_GetByte,"ax",%progbits
 779              		.align	2
 780              		.global	Beagle_GetByte
 781              		.thumb
 782              		.thumb_func
 783              		.type	Beagle_GetByte, %function
 784              	Beagle_GetByte:
ARM GAS  C:\Users\Lenovo\AppData\Local\Temp\cceofia7.s 			page 26


 785              	.LFB12:
 639:.\Generated_Source\PSoC5/Beagle.c **** 
 640:.\Generated_Source\PSoC5/Beagle.c **** 
 641:.\Generated_Source\PSoC5/Beagle.c ****     /*******************************************************************************
 642:.\Generated_Source\PSoC5/Beagle.c ****     * Function Name: Beagle_GetByte
 643:.\Generated_Source\PSoC5/Beagle.c ****     ********************************************************************************
 644:.\Generated_Source\PSoC5/Beagle.c ****     *
 645:.\Generated_Source\PSoC5/Beagle.c ****     * Summary:
 646:.\Generated_Source\PSoC5/Beagle.c ****     *  Grab the next available byte of data from the recieve FIFO
 647:.\Generated_Source\PSoC5/Beagle.c ****     *
 648:.\Generated_Source\PSoC5/Beagle.c ****     * Parameters:
 649:.\Generated_Source\PSoC5/Beagle.c ****     *  None.
 650:.\Generated_Source\PSoC5/Beagle.c ****     *
 651:.\Generated_Source\PSoC5/Beagle.c ****     * Return:
 652:.\Generated_Source\PSoC5/Beagle.c ****     *  MSB contains Status Register and LSB contains UART RX data
 653:.\Generated_Source\PSoC5/Beagle.c ****     *
 654:.\Generated_Source\PSoC5/Beagle.c ****     * Reentrant:
 655:.\Generated_Source\PSoC5/Beagle.c ****     *  No.
 656:.\Generated_Source\PSoC5/Beagle.c ****     *
 657:.\Generated_Source\PSoC5/Beagle.c ****     *******************************************************************************/
 658:.\Generated_Source\PSoC5/Beagle.c ****     uint16 Beagle_GetByte(void) 
 659:.\Generated_Source\PSoC5/Beagle.c ****     {
 786              		.loc 1 659 0
 787              		.cfi_startproc
 788              		@ args = 0, pretend = 0, frame = 0
 789              		@ frame_needed = 1, uses_anonymous_args = 0
 790 0000 98B5     		push	{r3, r4, r7, lr}
 791              		.cfi_def_cfa_offset 16
 792              		.cfi_offset 3, -16
 793              		.cfi_offset 4, -12
 794              		.cfi_offset 7, -8
 795              		.cfi_offset 14, -4
 796 0002 00AF     		add	r7, sp, #0
 797              		.cfi_def_cfa_register 7
 660:.\Generated_Source\PSoC5/Beagle.c ****         return ( ((uint16)Beagle_ReadRxStatus() << 8u) | Beagle_ReadRxData() );
 798              		.loc 1 660 0
 799 0004 FFF7FEFF 		bl	Beagle_ReadRxStatus
 800 0008 0346     		mov	r3, r0
 801 000a 1B02     		lsls	r3, r3, #8
 802 000c 9CB2     		uxth	r4, r3
 803 000e FFF7FEFF 		bl	Beagle_ReadRxData
 804 0012 0346     		mov	r3, r0
 805 0014 9BB2     		uxth	r3, r3
 806 0016 2246     		mov	r2, r4	@ movhi
 807 0018 1343     		orrs	r3, r3, r2
 808 001a 9BB2     		uxth	r3, r3
 809 001c 9BB2     		uxth	r3, r3
 661:.\Generated_Source\PSoC5/Beagle.c ****     }
 810              		.loc 1 661 0
 811 001e 1846     		mov	r0, r3
 812 0020 98BD     		pop	{r3, r4, r7, pc}
 813              		.cfi_endproc
 814              	.LFE12:
 815              		.size	Beagle_GetByte, .-Beagle_GetByte
 816 0022 00BF     		.section	.text.Beagle_GetRxBufferSize,"ax",%progbits
 817              		.align	2
 818              		.global	Beagle_GetRxBufferSize
ARM GAS  C:\Users\Lenovo\AppData\Local\Temp\cceofia7.s 			page 27


 819              		.thumb
 820              		.thumb_func
 821              		.type	Beagle_GetRxBufferSize, %function
 822              	Beagle_GetRxBufferSize:
 823              	.LFB13:
 662:.\Generated_Source\PSoC5/Beagle.c **** 
 663:.\Generated_Source\PSoC5/Beagle.c **** 
 664:.\Generated_Source\PSoC5/Beagle.c ****     /*******************************************************************************
 665:.\Generated_Source\PSoC5/Beagle.c ****     * Function Name: Beagle_GetRxBufferSize
 666:.\Generated_Source\PSoC5/Beagle.c ****     ********************************************************************************
 667:.\Generated_Source\PSoC5/Beagle.c ****     *
 668:.\Generated_Source\PSoC5/Beagle.c ****     * Summary:
 669:.\Generated_Source\PSoC5/Beagle.c ****     *  Determine the amount of bytes left in the RX buffer and return the count in
 670:.\Generated_Source\PSoC5/Beagle.c ****     *  bytes
 671:.\Generated_Source\PSoC5/Beagle.c ****     *
 672:.\Generated_Source\PSoC5/Beagle.c ****     * Parameters:
 673:.\Generated_Source\PSoC5/Beagle.c ****     *  None.
 674:.\Generated_Source\PSoC5/Beagle.c ****     *
 675:.\Generated_Source\PSoC5/Beagle.c ****     * Return:
 676:.\Generated_Source\PSoC5/Beagle.c ****     *  uint16: Integer count of the number of bytes left
 677:.\Generated_Source\PSoC5/Beagle.c ****     *  in the RX buffer
 678:.\Generated_Source\PSoC5/Beagle.c ****     *
 679:.\Generated_Source\PSoC5/Beagle.c ****     * Global Variables:
 680:.\Generated_Source\PSoC5/Beagle.c ****     *  Beagle_rxBufferWrite - used to calculate left bytes.
 681:.\Generated_Source\PSoC5/Beagle.c ****     *  Beagle_rxBufferRead - used to calculate left bytes.
 682:.\Generated_Source\PSoC5/Beagle.c ****     *  Beagle_rxBufferLoopDetect - checked to decide left bytes amount.
 683:.\Generated_Source\PSoC5/Beagle.c ****     *
 684:.\Generated_Source\PSoC5/Beagle.c ****     * Reentrant:
 685:.\Generated_Source\PSoC5/Beagle.c ****     *  No.
 686:.\Generated_Source\PSoC5/Beagle.c ****     *
 687:.\Generated_Source\PSoC5/Beagle.c ****     * Theory:
 688:.\Generated_Source\PSoC5/Beagle.c ****     *  Allows the user to find out how full the RX Buffer is.
 689:.\Generated_Source\PSoC5/Beagle.c ****     *
 690:.\Generated_Source\PSoC5/Beagle.c ****     *******************************************************************************/
 691:.\Generated_Source\PSoC5/Beagle.c ****     uint16 Beagle_GetRxBufferSize(void)
 692:.\Generated_Source\PSoC5/Beagle.c ****                                                             
 693:.\Generated_Source\PSoC5/Beagle.c ****     {
 824              		.loc 1 693 0
 825              		.cfi_startproc
 826              		@ args = 0, pretend = 0, frame = 8
 827              		@ frame_needed = 1, uses_anonymous_args = 0
 828 0000 80B5     		push	{r7, lr}
 829              		.cfi_def_cfa_offset 8
 830              		.cfi_offset 7, -8
 831              		.cfi_offset 14, -4
 832 0002 82B0     		sub	sp, sp, #8
 833              		.cfi_def_cfa_offset 16
 834 0004 00AF     		add	r7, sp, #0
 835              		.cfi_def_cfa_register 7
 694:.\Generated_Source\PSoC5/Beagle.c ****         uint16 size;
 695:.\Generated_Source\PSoC5/Beagle.c **** 
 696:.\Generated_Source\PSoC5/Beagle.c ****         #if(Beagle_RXBUFFERSIZE > Beagle_FIFO_LENGTH)
 697:.\Generated_Source\PSoC5/Beagle.c **** 
 698:.\Generated_Source\PSoC5/Beagle.c ****             /* Disable Rx interrupt. */
 699:.\Generated_Source\PSoC5/Beagle.c ****             /* Protect variables that could change on interrupt. */
 700:.\Generated_Source\PSoC5/Beagle.c ****             #if(Beagle_RX_INTERRUPT_ENABLED)
 701:.\Generated_Source\PSoC5/Beagle.c ****                 Beagle_DisableRxInt();
ARM GAS  C:\Users\Lenovo\AppData\Local\Temp\cceofia7.s 			page 28


 836              		.loc 1 701 0
 837 0006 FFF7FEFF 		bl	Beagle_DisableRxInt
 702:.\Generated_Source\PSoC5/Beagle.c ****             #endif /* Beagle_RX_INTERRUPT_ENABLED */
 703:.\Generated_Source\PSoC5/Beagle.c **** 
 704:.\Generated_Source\PSoC5/Beagle.c ****             if(Beagle_rxBufferRead == Beagle_rxBufferWrite)
 838              		.loc 1 704 0
 839 000a 1B4B     		ldr	r3, .L58
 840 000c 1B88     		ldrh	r3, [r3]	@ movhi
 841 000e 9AB2     		uxth	r2, r3
 842 0010 1A4B     		ldr	r3, .L58+4
 843 0012 1B88     		ldrh	r3, [r3]	@ movhi
 844 0014 9BB2     		uxth	r3, r3
 845 0016 9A42     		cmp	r2, r3
 846 0018 0BD1     		bne	.L52
 705:.\Generated_Source\PSoC5/Beagle.c ****             {
 706:.\Generated_Source\PSoC5/Beagle.c ****                 if(Beagle_rxBufferLoopDetect > 0u)
 847              		.loc 1 706 0
 848 001a 194B     		ldr	r3, .L58+8
 849 001c 1B78     		ldrb	r3, [r3]
 850 001e DBB2     		uxtb	r3, r3
 851 0020 002B     		cmp	r3, #0
 852 0022 03D0     		beq	.L53
 707:.\Generated_Source\PSoC5/Beagle.c ****                 {
 708:.\Generated_Source\PSoC5/Beagle.c ****                     size = Beagle_RXBUFFERSIZE;
 853              		.loc 1 708 0
 854 0024 40F2DC53 		movw	r3, #1500
 855 0028 FB80     		strh	r3, [r7, #6]	@ movhi
 856 002a 1EE0     		b	.L55
 857              	.L53:
 709:.\Generated_Source\PSoC5/Beagle.c ****                 }
 710:.\Generated_Source\PSoC5/Beagle.c ****                 else
 711:.\Generated_Source\PSoC5/Beagle.c ****                 {
 712:.\Generated_Source\PSoC5/Beagle.c ****                     size = 0u;
 858              		.loc 1 712 0
 859 002c 0023     		movs	r3, #0
 860 002e FB80     		strh	r3, [r7, #6]	@ movhi
 861 0030 1BE0     		b	.L55
 862              	.L52:
 713:.\Generated_Source\PSoC5/Beagle.c ****                 }
 714:.\Generated_Source\PSoC5/Beagle.c ****             }
 715:.\Generated_Source\PSoC5/Beagle.c ****             else if(Beagle_rxBufferRead < Beagle_rxBufferWrite)
 863              		.loc 1 715 0
 864 0032 114B     		ldr	r3, .L58
 865 0034 1B88     		ldrh	r3, [r3]	@ movhi
 866 0036 9AB2     		uxth	r2, r3
 867 0038 104B     		ldr	r3, .L58+4
 868 003a 1B88     		ldrh	r3, [r3]	@ movhi
 869 003c 9BB2     		uxth	r3, r3
 870 003e 9A42     		cmp	r2, r3
 871 0040 08D2     		bcs	.L56
 716:.\Generated_Source\PSoC5/Beagle.c ****             {
 717:.\Generated_Source\PSoC5/Beagle.c ****                 size = (Beagle_rxBufferWrite - Beagle_rxBufferRead);
 872              		.loc 1 717 0
 873 0042 0E4B     		ldr	r3, .L58+4
 874 0044 1B88     		ldrh	r3, [r3]	@ movhi
 875 0046 9AB2     		uxth	r2, r3
 876 0048 0B4B     		ldr	r3, .L58
ARM GAS  C:\Users\Lenovo\AppData\Local\Temp\cceofia7.s 			page 29


 877 004a 1B88     		ldrh	r3, [r3]	@ movhi
 878 004c 9BB2     		uxth	r3, r3
 879 004e D31A     		subs	r3, r2, r3
 880 0050 FB80     		strh	r3, [r7, #6]	@ movhi
 881 0052 0AE0     		b	.L55
 882              	.L56:
 718:.\Generated_Source\PSoC5/Beagle.c ****             }
 719:.\Generated_Source\PSoC5/Beagle.c ****             else
 720:.\Generated_Source\PSoC5/Beagle.c ****             {
 721:.\Generated_Source\PSoC5/Beagle.c ****                 size = (Beagle_RXBUFFERSIZE - Beagle_rxBufferRead) + Beagle_rxBufferWrite;
 883              		.loc 1 721 0
 884 0054 094B     		ldr	r3, .L58+4
 885 0056 1B88     		ldrh	r3, [r3]	@ movhi
 886 0058 9AB2     		uxth	r2, r3
 887 005a 074B     		ldr	r3, .L58
 888 005c 1B88     		ldrh	r3, [r3]	@ movhi
 889 005e 9BB2     		uxth	r3, r3
 890 0060 D31A     		subs	r3, r2, r3
 891 0062 9BB2     		uxth	r3, r3
 892 0064 03F2DC53 		addw	r3, r3, #1500
 893 0068 FB80     		strh	r3, [r7, #6]	@ movhi
 894              	.L55:
 722:.\Generated_Source\PSoC5/Beagle.c ****             }
 723:.\Generated_Source\PSoC5/Beagle.c **** 
 724:.\Generated_Source\PSoC5/Beagle.c ****             /* Enable Rx interrupt. */
 725:.\Generated_Source\PSoC5/Beagle.c ****             #if(Beagle_RX_INTERRUPT_ENABLED)
 726:.\Generated_Source\PSoC5/Beagle.c ****                 Beagle_EnableRxInt();
 895              		.loc 1 726 0
 896 006a FFF7FEFF 		bl	Beagle_EnableRxInt
 727:.\Generated_Source\PSoC5/Beagle.c ****             #endif /* End Beagle_RX_INTERRUPT_ENABLED */
 728:.\Generated_Source\PSoC5/Beagle.c **** 
 729:.\Generated_Source\PSoC5/Beagle.c ****         #else /* Beagle_RXBUFFERSIZE > Beagle_FIFO_LENGTH */
 730:.\Generated_Source\PSoC5/Beagle.c **** 
 731:.\Generated_Source\PSoC5/Beagle.c ****             /* We can only know if there is data in the fifo. */
 732:.\Generated_Source\PSoC5/Beagle.c ****             size = ((Beagle_RXSTATUS_REG & Beagle_RX_STS_FIFO_NOTEMPTY) != 0u) ? 1u : 0u;
 733:.\Generated_Source\PSoC5/Beagle.c **** 
 734:.\Generated_Source\PSoC5/Beagle.c ****         #endif /* End Beagle_RXBUFFERSIZE > Beagle_FIFO_LENGTH */
 735:.\Generated_Source\PSoC5/Beagle.c **** 
 736:.\Generated_Source\PSoC5/Beagle.c ****         return(size);
 897              		.loc 1 736 0
 898 006e FB88     		ldrh	r3, [r7, #6]
 737:.\Generated_Source\PSoC5/Beagle.c ****     }
 899              		.loc 1 737 0
 900 0070 1846     		mov	r0, r3
 901 0072 0837     		adds	r7, r7, #8
 902              		.cfi_def_cfa_offset 8
 903 0074 BD46     		mov	sp, r7
 904              		.cfi_def_cfa_register 13
 905              		@ sp needed
 906 0076 80BD     		pop	{r7, pc}
 907              	.L59:
 908              		.align	2
 909              	.L58:
 910 0078 00000000 		.word	Beagle_rxBufferRead
 911 007c 00000000 		.word	Beagle_rxBufferWrite
 912 0080 00000000 		.word	Beagle_rxBufferLoopDetect
 913              		.cfi_endproc
ARM GAS  C:\Users\Lenovo\AppData\Local\Temp\cceofia7.s 			page 30


 914              	.LFE13:
 915              		.size	Beagle_GetRxBufferSize, .-Beagle_GetRxBufferSize
 916              		.section	.text.Beagle_ClearRxBuffer,"ax",%progbits
 917              		.align	2
 918              		.global	Beagle_ClearRxBuffer
 919              		.thumb
 920              		.thumb_func
 921              		.type	Beagle_ClearRxBuffer, %function
 922              	Beagle_ClearRxBuffer:
 923              	.LFB14:
 738:.\Generated_Source\PSoC5/Beagle.c **** 
 739:.\Generated_Source\PSoC5/Beagle.c **** 
 740:.\Generated_Source\PSoC5/Beagle.c ****     /*******************************************************************************
 741:.\Generated_Source\PSoC5/Beagle.c ****     * Function Name: Beagle_ClearRxBuffer
 742:.\Generated_Source\PSoC5/Beagle.c ****     ********************************************************************************
 743:.\Generated_Source\PSoC5/Beagle.c ****     *
 744:.\Generated_Source\PSoC5/Beagle.c ****     * Summary:
 745:.\Generated_Source\PSoC5/Beagle.c ****     *  Clears the RX RAM buffer by setting the read and write pointers both to zero.
 746:.\Generated_Source\PSoC5/Beagle.c ****     *  Clears hardware RX FIFO.
 747:.\Generated_Source\PSoC5/Beagle.c ****     *
 748:.\Generated_Source\PSoC5/Beagle.c ****     * Parameters:
 749:.\Generated_Source\PSoC5/Beagle.c ****     *  None.
 750:.\Generated_Source\PSoC5/Beagle.c ****     *
 751:.\Generated_Source\PSoC5/Beagle.c ****     * Return:
 752:.\Generated_Source\PSoC5/Beagle.c ****     *  None.
 753:.\Generated_Source\PSoC5/Beagle.c ****     *
 754:.\Generated_Source\PSoC5/Beagle.c ****     * Global Variables:
 755:.\Generated_Source\PSoC5/Beagle.c ****     *  Beagle_rxBufferWrite - cleared to zero.
 756:.\Generated_Source\PSoC5/Beagle.c ****     *  Beagle_rxBufferRead - cleared to zero.
 757:.\Generated_Source\PSoC5/Beagle.c ****     *  Beagle_rxBufferLoopDetect - cleared to zero.
 758:.\Generated_Source\PSoC5/Beagle.c ****     *  Beagle_rxBufferOverflow - cleared to zero.
 759:.\Generated_Source\PSoC5/Beagle.c ****     *
 760:.\Generated_Source\PSoC5/Beagle.c ****     * Reentrant:
 761:.\Generated_Source\PSoC5/Beagle.c ****     *  No.
 762:.\Generated_Source\PSoC5/Beagle.c ****     *
 763:.\Generated_Source\PSoC5/Beagle.c ****     * Theory:
 764:.\Generated_Source\PSoC5/Beagle.c ****     *  Setting the pointers to zero makes the system believe there is no data to
 765:.\Generated_Source\PSoC5/Beagle.c ****     *  read and writing will resume at address 0 overwriting any data that may
 766:.\Generated_Source\PSoC5/Beagle.c ****     *  have remained in the RAM.
 767:.\Generated_Source\PSoC5/Beagle.c ****     *
 768:.\Generated_Source\PSoC5/Beagle.c ****     * Side Effects:
 769:.\Generated_Source\PSoC5/Beagle.c ****     *  Any received data not read from the RAM or FIFO buffer will be lost.
 770:.\Generated_Source\PSoC5/Beagle.c ****     *******************************************************************************/
 771:.\Generated_Source\PSoC5/Beagle.c ****     void Beagle_ClearRxBuffer(void) 
 772:.\Generated_Source\PSoC5/Beagle.c ****     {
 924              		.loc 1 772 0
 925              		.cfi_startproc
 926              		@ args = 0, pretend = 0, frame = 8
 927              		@ frame_needed = 1, uses_anonymous_args = 0
 928 0000 80B5     		push	{r7, lr}
 929              		.cfi_def_cfa_offset 8
 930              		.cfi_offset 7, -8
 931              		.cfi_offset 14, -4
 932 0002 82B0     		sub	sp, sp, #8
 933              		.cfi_def_cfa_offset 16
 934 0004 00AF     		add	r7, sp, #0
 935              		.cfi_def_cfa_register 7
ARM GAS  C:\Users\Lenovo\AppData\Local\Temp\cceofia7.s 			page 31


 773:.\Generated_Source\PSoC5/Beagle.c ****         uint8 enableInterrupts;
 774:.\Generated_Source\PSoC5/Beagle.c **** 
 775:.\Generated_Source\PSoC5/Beagle.c ****         /* clear the HW FIFO */
 776:.\Generated_Source\PSoC5/Beagle.c ****         /* Enter critical section */
 777:.\Generated_Source\PSoC5/Beagle.c ****         enableInterrupts = CyEnterCriticalSection();
 936              		.loc 1 777 0
 937 0006 FFF7FEFF 		bl	CyEnterCriticalSection
 938 000a 0346     		mov	r3, r0
 939 000c FB71     		strb	r3, [r7, #7]
 778:.\Generated_Source\PSoC5/Beagle.c ****         Beagle_RXDATA_AUX_CTL_REG |=  Beagle_RX_FIFO_CLR;
 940              		.loc 1 778 0
 941 000e 134A     		ldr	r2, .L61
 942 0010 124B     		ldr	r3, .L61
 943 0012 1B78     		ldrb	r3, [r3]
 944 0014 DBB2     		uxtb	r3, r3
 945 0016 43F00103 		orr	r3, r3, #1
 946 001a DBB2     		uxtb	r3, r3
 947 001c 1370     		strb	r3, [r2]
 779:.\Generated_Source\PSoC5/Beagle.c ****         Beagle_RXDATA_AUX_CTL_REG &= (uint8)~Beagle_RX_FIFO_CLR;
 948              		.loc 1 779 0
 949 001e 0F4A     		ldr	r2, .L61
 950 0020 0E4B     		ldr	r3, .L61
 951 0022 1B78     		ldrb	r3, [r3]
 952 0024 DBB2     		uxtb	r3, r3
 953 0026 23F00103 		bic	r3, r3, #1
 954 002a DBB2     		uxtb	r3, r3
 955 002c 1370     		strb	r3, [r2]
 780:.\Generated_Source\PSoC5/Beagle.c ****         /* Exit critical section */
 781:.\Generated_Source\PSoC5/Beagle.c ****         CyExitCriticalSection(enableInterrupts);
 956              		.loc 1 781 0
 957 002e FB79     		ldrb	r3, [r7, #7]	@ zero_extendqisi2
 958 0030 1846     		mov	r0, r3
 959 0032 FFF7FEFF 		bl	CyExitCriticalSection
 782:.\Generated_Source\PSoC5/Beagle.c **** 
 783:.\Generated_Source\PSoC5/Beagle.c ****         #if(Beagle_RXBUFFERSIZE > Beagle_FIFO_LENGTH)
 784:.\Generated_Source\PSoC5/Beagle.c ****             /* Disable Rx interrupt. */
 785:.\Generated_Source\PSoC5/Beagle.c ****             /* Protect variables that could change on interrupt. */
 786:.\Generated_Source\PSoC5/Beagle.c ****             #if(Beagle_RX_INTERRUPT_ENABLED)
 787:.\Generated_Source\PSoC5/Beagle.c ****                 Beagle_DisableRxInt();
 960              		.loc 1 787 0
 961 0036 FFF7FEFF 		bl	Beagle_DisableRxInt
 788:.\Generated_Source\PSoC5/Beagle.c ****             #endif /* End Beagle_RX_INTERRUPT_ENABLED */
 789:.\Generated_Source\PSoC5/Beagle.c **** 
 790:.\Generated_Source\PSoC5/Beagle.c ****             Beagle_rxBufferRead = 0u;
 962              		.loc 1 790 0
 963 003a 094B     		ldr	r3, .L61+4
 964 003c 0022     		movs	r2, #0
 965 003e 1A80     		strh	r2, [r3]	@ movhi
 791:.\Generated_Source\PSoC5/Beagle.c ****             Beagle_rxBufferWrite = 0u;
 966              		.loc 1 791 0
 967 0040 084B     		ldr	r3, .L61+8
 968 0042 0022     		movs	r2, #0
 969 0044 1A80     		strh	r2, [r3]	@ movhi
 792:.\Generated_Source\PSoC5/Beagle.c ****             Beagle_rxBufferLoopDetect = 0u;
 970              		.loc 1 792 0
 971 0046 084B     		ldr	r3, .L61+12
 972 0048 0022     		movs	r2, #0
ARM GAS  C:\Users\Lenovo\AppData\Local\Temp\cceofia7.s 			page 32


 973 004a 1A70     		strb	r2, [r3]
 793:.\Generated_Source\PSoC5/Beagle.c ****             Beagle_rxBufferOverflow = 0u;
 974              		.loc 1 793 0
 975 004c 074B     		ldr	r3, .L61+16
 976 004e 0022     		movs	r2, #0
 977 0050 1A70     		strb	r2, [r3]
 794:.\Generated_Source\PSoC5/Beagle.c **** 
 795:.\Generated_Source\PSoC5/Beagle.c ****             /* Enable Rx interrupt. */
 796:.\Generated_Source\PSoC5/Beagle.c ****             #if(Beagle_RX_INTERRUPT_ENABLED)
 797:.\Generated_Source\PSoC5/Beagle.c ****                 Beagle_EnableRxInt();
 978              		.loc 1 797 0
 979 0052 FFF7FEFF 		bl	Beagle_EnableRxInt
 798:.\Generated_Source\PSoC5/Beagle.c ****             #endif /* End Beagle_RX_INTERRUPT_ENABLED */
 799:.\Generated_Source\PSoC5/Beagle.c ****         #endif /* End Beagle_RXBUFFERSIZE > Beagle_FIFO_LENGTH */
 800:.\Generated_Source\PSoC5/Beagle.c **** 
 801:.\Generated_Source\PSoC5/Beagle.c ****     }
 980              		.loc 1 801 0
 981 0056 0837     		adds	r7, r7, #8
 982              		.cfi_def_cfa_offset 8
 983 0058 BD46     		mov	sp, r7
 984              		.cfi_def_cfa_register 13
 985              		@ sp needed
 986 005a 80BD     		pop	{r7, pc}
 987              	.L62:
 988              		.align	2
 989              	.L61:
 990 005c 92640040 		.word	1073767570
 991 0060 00000000 		.word	Beagle_rxBufferRead
 992 0064 00000000 		.word	Beagle_rxBufferWrite
 993 0068 00000000 		.word	Beagle_rxBufferLoopDetect
 994 006c 00000000 		.word	Beagle_rxBufferOverflow
 995              		.cfi_endproc
 996              	.LFE14:
 997              		.size	Beagle_ClearRxBuffer, .-Beagle_ClearRxBuffer
 998              		.section	.text.Beagle_SetRxAddressMode,"ax",%progbits
 999              		.align	2
 1000              		.global	Beagle_SetRxAddressMode
 1001              		.thumb
 1002              		.thumb_func
 1003              		.type	Beagle_SetRxAddressMode, %function
 1004              	Beagle_SetRxAddressMode:
 1005              	.LFB15:
 802:.\Generated_Source\PSoC5/Beagle.c **** 
 803:.\Generated_Source\PSoC5/Beagle.c **** 
 804:.\Generated_Source\PSoC5/Beagle.c ****     /*******************************************************************************
 805:.\Generated_Source\PSoC5/Beagle.c ****     * Function Name: Beagle_SetRxAddressMode
 806:.\Generated_Source\PSoC5/Beagle.c ****     ********************************************************************************
 807:.\Generated_Source\PSoC5/Beagle.c ****     *
 808:.\Generated_Source\PSoC5/Beagle.c ****     * Summary:
 809:.\Generated_Source\PSoC5/Beagle.c ****     *  Set the receive addressing mode
 810:.\Generated_Source\PSoC5/Beagle.c ****     *
 811:.\Generated_Source\PSoC5/Beagle.c ****     * Parameters:
 812:.\Generated_Source\PSoC5/Beagle.c ****     *  addressMode: Enumerated value indicating the mode of RX addressing
 813:.\Generated_Source\PSoC5/Beagle.c ****     *  Beagle__B_UART__AM_SW_BYTE_BYTE -  Software Byte-by-Byte address
 814:.\Generated_Source\PSoC5/Beagle.c ****     *                                               detection
 815:.\Generated_Source\PSoC5/Beagle.c ****     *  Beagle__B_UART__AM_SW_DETECT_TO_BUFFER - Software Detect to Buffer
 816:.\Generated_Source\PSoC5/Beagle.c ****     *                                               address detection
ARM GAS  C:\Users\Lenovo\AppData\Local\Temp\cceofia7.s 			page 33


 817:.\Generated_Source\PSoC5/Beagle.c ****     *  Beagle__B_UART__AM_HW_BYTE_BY_BYTE - Hardware Byte-by-Byte address
 818:.\Generated_Source\PSoC5/Beagle.c ****     *                                               detection
 819:.\Generated_Source\PSoC5/Beagle.c ****     *  Beagle__B_UART__AM_HW_DETECT_TO_BUFFER - Hardware Detect to Buffer
 820:.\Generated_Source\PSoC5/Beagle.c ****     *                                               address detection
 821:.\Generated_Source\PSoC5/Beagle.c ****     *  Beagle__B_UART__AM_NONE - No address detection
 822:.\Generated_Source\PSoC5/Beagle.c ****     *
 823:.\Generated_Source\PSoC5/Beagle.c ****     * Return:
 824:.\Generated_Source\PSoC5/Beagle.c ****     *  None.
 825:.\Generated_Source\PSoC5/Beagle.c ****     *
 826:.\Generated_Source\PSoC5/Beagle.c ****     * Global Variables:
 827:.\Generated_Source\PSoC5/Beagle.c ****     *  Beagle_rxAddressMode - the parameter stored in this variable for
 828:.\Generated_Source\PSoC5/Beagle.c ****     *   the farther usage in RX ISR.
 829:.\Generated_Source\PSoC5/Beagle.c ****     *  Beagle_rxAddressDetected - set to initial state (0).
 830:.\Generated_Source\PSoC5/Beagle.c ****     *
 831:.\Generated_Source\PSoC5/Beagle.c ****     *******************************************************************************/
 832:.\Generated_Source\PSoC5/Beagle.c ****     void Beagle_SetRxAddressMode(uint8 addressMode)
 833:.\Generated_Source\PSoC5/Beagle.c ****                                                         
 834:.\Generated_Source\PSoC5/Beagle.c ****     {
 1006              		.loc 1 834 0
 1007              		.cfi_startproc
 1008              		@ args = 0, pretend = 0, frame = 8
 1009              		@ frame_needed = 1, uses_anonymous_args = 0
 1010              		@ link register save eliminated.
 1011 0000 80B4     		push	{r7}
 1012              		.cfi_def_cfa_offset 4
 1013              		.cfi_offset 7, -4
 1014 0002 83B0     		sub	sp, sp, #12
 1015              		.cfi_def_cfa_offset 16
 1016 0004 00AF     		add	r7, sp, #0
 1017              		.cfi_def_cfa_register 7
 1018 0006 0346     		mov	r3, r0
 1019 0008 FB71     		strb	r3, [r7, #7]
 835:.\Generated_Source\PSoC5/Beagle.c ****         #if(Beagle_RXHW_ADDRESS_ENABLED)
 836:.\Generated_Source\PSoC5/Beagle.c ****             #if(Beagle_CONTROL_REG_REMOVED)
 837:.\Generated_Source\PSoC5/Beagle.c ****                 if(addressMode != 0u) { }     /* release compiler warning */
 838:.\Generated_Source\PSoC5/Beagle.c ****             #else /* Beagle_CONTROL_REG_REMOVED */
 839:.\Generated_Source\PSoC5/Beagle.c ****                 uint8 tmpCtrl;
 840:.\Generated_Source\PSoC5/Beagle.c ****                 tmpCtrl = Beagle_CONTROL_REG & (uint8)~Beagle_CTRL_RXADDR_MODE_MASK;
 841:.\Generated_Source\PSoC5/Beagle.c ****                 tmpCtrl |= (uint8)(addressMode << Beagle_CTRL_RXADDR_MODE0_SHIFT);
 842:.\Generated_Source\PSoC5/Beagle.c ****                 Beagle_CONTROL_REG = tmpCtrl;
 843:.\Generated_Source\PSoC5/Beagle.c ****                 #if(Beagle_RX_INTERRUPT_ENABLED && \
 844:.\Generated_Source\PSoC5/Beagle.c ****                    (Beagle_RXBUFFERSIZE > Beagle_FIFO_LENGTH) )
 845:.\Generated_Source\PSoC5/Beagle.c ****                     Beagle_rxAddressMode = addressMode;
 846:.\Generated_Source\PSoC5/Beagle.c ****                     Beagle_rxAddressDetected = 0u;
 847:.\Generated_Source\PSoC5/Beagle.c ****                 #endif /* End Beagle_RXBUFFERSIZE > Beagle_FIFO_LENGTH*/
 848:.\Generated_Source\PSoC5/Beagle.c ****             #endif /* End Beagle_CONTROL_REG_REMOVED */
 849:.\Generated_Source\PSoC5/Beagle.c ****         #else /* Beagle_RXHW_ADDRESS_ENABLED */
 850:.\Generated_Source\PSoC5/Beagle.c ****             if(addressMode != 0u) { }     /* release compiler warning */
 851:.\Generated_Source\PSoC5/Beagle.c ****         #endif /* End Beagle_RXHW_ADDRESS_ENABLED */
 852:.\Generated_Source\PSoC5/Beagle.c ****     }
 1020              		.loc 1 852 0
 1021 000a 0C37     		adds	r7, r7, #12
 1022              		.cfi_def_cfa_offset 4
 1023 000c BD46     		mov	sp, r7
 1024              		.cfi_def_cfa_register 13
 1025              		@ sp needed
 1026 000e 5DF8047B 		ldr	r7, [sp], #4
ARM GAS  C:\Users\Lenovo\AppData\Local\Temp\cceofia7.s 			page 34


 1027              		.cfi_restore 7
 1028              		.cfi_def_cfa_offset 0
 1029 0012 7047     		bx	lr
 1030              		.cfi_endproc
 1031              	.LFE15:
 1032              		.size	Beagle_SetRxAddressMode, .-Beagle_SetRxAddressMode
 1033              		.section	.text.Beagle_SetRxAddress1,"ax",%progbits
 1034              		.align	2
 1035              		.global	Beagle_SetRxAddress1
 1036              		.thumb
 1037              		.thumb_func
 1038              		.type	Beagle_SetRxAddress1, %function
 1039              	Beagle_SetRxAddress1:
 1040              	.LFB16:
 853:.\Generated_Source\PSoC5/Beagle.c **** 
 854:.\Generated_Source\PSoC5/Beagle.c **** 
 855:.\Generated_Source\PSoC5/Beagle.c ****     /*******************************************************************************
 856:.\Generated_Source\PSoC5/Beagle.c ****     * Function Name: Beagle_SetRxAddress1
 857:.\Generated_Source\PSoC5/Beagle.c ****     ********************************************************************************
 858:.\Generated_Source\PSoC5/Beagle.c ****     *
 859:.\Generated_Source\PSoC5/Beagle.c ****     * Summary:
 860:.\Generated_Source\PSoC5/Beagle.c ****     *  Set the first hardware address compare value
 861:.\Generated_Source\PSoC5/Beagle.c ****     *
 862:.\Generated_Source\PSoC5/Beagle.c ****     * Parameters:
 863:.\Generated_Source\PSoC5/Beagle.c ****     *  address
 864:.\Generated_Source\PSoC5/Beagle.c ****     *
 865:.\Generated_Source\PSoC5/Beagle.c ****     * Return:
 866:.\Generated_Source\PSoC5/Beagle.c ****     *  None.
 867:.\Generated_Source\PSoC5/Beagle.c ****     *
 868:.\Generated_Source\PSoC5/Beagle.c ****     *******************************************************************************/
 869:.\Generated_Source\PSoC5/Beagle.c ****     void Beagle_SetRxAddress1(uint8 address) 
 870:.\Generated_Source\PSoC5/Beagle.c **** 
 871:.\Generated_Source\PSoC5/Beagle.c ****     {
 1041              		.loc 1 871 0
 1042              		.cfi_startproc
 1043              		@ args = 0, pretend = 0, frame = 8
 1044              		@ frame_needed = 1, uses_anonymous_args = 0
 1045              		@ link register save eliminated.
 1046 0000 80B4     		push	{r7}
 1047              		.cfi_def_cfa_offset 4
 1048              		.cfi_offset 7, -4
 1049 0002 83B0     		sub	sp, sp, #12
 1050              		.cfi_def_cfa_offset 16
 1051 0004 00AF     		add	r7, sp, #0
 1052              		.cfi_def_cfa_register 7
 1053 0006 0346     		mov	r3, r0
 1054 0008 FB71     		strb	r3, [r7, #7]
 872:.\Generated_Source\PSoC5/Beagle.c ****         Beagle_RXADDRESS1_REG = address;
 1055              		.loc 1 872 0
 1056 000a 044A     		ldr	r2, .L65
 1057 000c FB79     		ldrb	r3, [r7, #7]
 1058 000e 1370     		strb	r3, [r2]
 873:.\Generated_Source\PSoC5/Beagle.c ****     }
 1059              		.loc 1 873 0
 1060 0010 0C37     		adds	r7, r7, #12
 1061              		.cfi_def_cfa_offset 4
 1062 0012 BD46     		mov	sp, r7
ARM GAS  C:\Users\Lenovo\AppData\Local\Temp\cceofia7.s 			page 35


 1063              		.cfi_def_cfa_register 13
 1064              		@ sp needed
 1065 0014 5DF8047B 		ldr	r7, [sp], #4
 1066              		.cfi_restore 7
 1067              		.cfi_def_cfa_offset 0
 1068 0018 7047     		bx	lr
 1069              	.L66:
 1070 001a 00BF     		.align	2
 1071              	.L65:
 1072 001c 22640040 		.word	1073767458
 1073              		.cfi_endproc
 1074              	.LFE16:
 1075              		.size	Beagle_SetRxAddress1, .-Beagle_SetRxAddress1
 1076              		.section	.text.Beagle_SetRxAddress2,"ax",%progbits
 1077              		.align	2
 1078              		.global	Beagle_SetRxAddress2
 1079              		.thumb
 1080              		.thumb_func
 1081              		.type	Beagle_SetRxAddress2, %function
 1082              	Beagle_SetRxAddress2:
 1083              	.LFB17:
 874:.\Generated_Source\PSoC5/Beagle.c **** 
 875:.\Generated_Source\PSoC5/Beagle.c **** 
 876:.\Generated_Source\PSoC5/Beagle.c ****     /*******************************************************************************
 877:.\Generated_Source\PSoC5/Beagle.c ****     * Function Name: Beagle_SetRxAddress2
 878:.\Generated_Source\PSoC5/Beagle.c ****     ********************************************************************************
 879:.\Generated_Source\PSoC5/Beagle.c ****     *
 880:.\Generated_Source\PSoC5/Beagle.c ****     * Summary:
 881:.\Generated_Source\PSoC5/Beagle.c ****     *  Set the second hardware address compare value
 882:.\Generated_Source\PSoC5/Beagle.c ****     *
 883:.\Generated_Source\PSoC5/Beagle.c ****     * Parameters:
 884:.\Generated_Source\PSoC5/Beagle.c ****     *  address
 885:.\Generated_Source\PSoC5/Beagle.c ****     *
 886:.\Generated_Source\PSoC5/Beagle.c ****     * Return:
 887:.\Generated_Source\PSoC5/Beagle.c ****     *  None.
 888:.\Generated_Source\PSoC5/Beagle.c ****     *
 889:.\Generated_Source\PSoC5/Beagle.c ****     *******************************************************************************/
 890:.\Generated_Source\PSoC5/Beagle.c ****     void Beagle_SetRxAddress2(uint8 address) 
 891:.\Generated_Source\PSoC5/Beagle.c ****     {
 1084              		.loc 1 891 0
 1085              		.cfi_startproc
 1086              		@ args = 0, pretend = 0, frame = 8
 1087              		@ frame_needed = 1, uses_anonymous_args = 0
 1088              		@ link register save eliminated.
 1089 0000 80B4     		push	{r7}
 1090              		.cfi_def_cfa_offset 4
 1091              		.cfi_offset 7, -4
 1092 0002 83B0     		sub	sp, sp, #12
 1093              		.cfi_def_cfa_offset 16
 1094 0004 00AF     		add	r7, sp, #0
 1095              		.cfi_def_cfa_register 7
 1096 0006 0346     		mov	r3, r0
 1097 0008 FB71     		strb	r3, [r7, #7]
 892:.\Generated_Source\PSoC5/Beagle.c ****         Beagle_RXADDRESS2_REG = address;
 1098              		.loc 1 892 0
 1099 000a 044A     		ldr	r2, .L68
 1100 000c FB79     		ldrb	r3, [r7, #7]
ARM GAS  C:\Users\Lenovo\AppData\Local\Temp\cceofia7.s 			page 36


 1101 000e 1370     		strb	r3, [r2]
 893:.\Generated_Source\PSoC5/Beagle.c ****     }
 1102              		.loc 1 893 0
 1103 0010 0C37     		adds	r7, r7, #12
 1104              		.cfi_def_cfa_offset 4
 1105 0012 BD46     		mov	sp, r7
 1106              		.cfi_def_cfa_register 13
 1107              		@ sp needed
 1108 0014 5DF8047B 		ldr	r7, [sp], #4
 1109              		.cfi_restore 7
 1110              		.cfi_def_cfa_offset 0
 1111 0018 7047     		bx	lr
 1112              	.L69:
 1113 001a 00BF     		.align	2
 1114              	.L68:
 1115 001c 32640040 		.word	1073767474
 1116              		.cfi_endproc
 1117              	.LFE17:
 1118              		.size	Beagle_SetRxAddress2, .-Beagle_SetRxAddress2
 1119              		.section	.text.Beagle_SetTxInterruptMode,"ax",%progbits
 1120              		.align	2
 1121              		.global	Beagle_SetTxInterruptMode
 1122              		.thumb
 1123              		.thumb_func
 1124              		.type	Beagle_SetTxInterruptMode, %function
 1125              	Beagle_SetTxInterruptMode:
 1126              	.LFB18:
 894:.\Generated_Source\PSoC5/Beagle.c **** 
 895:.\Generated_Source\PSoC5/Beagle.c **** #endif  /* Beagle_RX_ENABLED || Beagle_HD_ENABLED*/
 896:.\Generated_Source\PSoC5/Beagle.c **** 
 897:.\Generated_Source\PSoC5/Beagle.c **** 
 898:.\Generated_Source\PSoC5/Beagle.c **** #if( (Beagle_TX_ENABLED) || (Beagle_HD_ENABLED) )
 899:.\Generated_Source\PSoC5/Beagle.c **** 
 900:.\Generated_Source\PSoC5/Beagle.c ****     #if(Beagle_TX_INTERRUPT_ENABLED)
 901:.\Generated_Source\PSoC5/Beagle.c **** 
 902:.\Generated_Source\PSoC5/Beagle.c ****         /*******************************************************************************
 903:.\Generated_Source\PSoC5/Beagle.c ****         * Function Name: Beagle_EnableTxInt
 904:.\Generated_Source\PSoC5/Beagle.c ****         ********************************************************************************
 905:.\Generated_Source\PSoC5/Beagle.c ****         *
 906:.\Generated_Source\PSoC5/Beagle.c ****         * Summary:
 907:.\Generated_Source\PSoC5/Beagle.c ****         *  Enable TX interrupt generation
 908:.\Generated_Source\PSoC5/Beagle.c ****         *
 909:.\Generated_Source\PSoC5/Beagle.c ****         * Parameters:
 910:.\Generated_Source\PSoC5/Beagle.c ****         *  None.
 911:.\Generated_Source\PSoC5/Beagle.c ****         *
 912:.\Generated_Source\PSoC5/Beagle.c ****         * Return:
 913:.\Generated_Source\PSoC5/Beagle.c ****         *  None.
 914:.\Generated_Source\PSoC5/Beagle.c ****         *
 915:.\Generated_Source\PSoC5/Beagle.c ****         * Theory:
 916:.\Generated_Source\PSoC5/Beagle.c ****         *  Enable the interrupt output -or- the interrupt component itself
 917:.\Generated_Source\PSoC5/Beagle.c ****         *
 918:.\Generated_Source\PSoC5/Beagle.c ****         *******************************************************************************/
 919:.\Generated_Source\PSoC5/Beagle.c ****         void Beagle_EnableTxInt(void) 
 920:.\Generated_Source\PSoC5/Beagle.c ****         {
 921:.\Generated_Source\PSoC5/Beagle.c ****             CyIntEnable(Beagle_TX_VECT_NUM);
 922:.\Generated_Source\PSoC5/Beagle.c ****         }
 923:.\Generated_Source\PSoC5/Beagle.c **** 
ARM GAS  C:\Users\Lenovo\AppData\Local\Temp\cceofia7.s 			page 37


 924:.\Generated_Source\PSoC5/Beagle.c **** 
 925:.\Generated_Source\PSoC5/Beagle.c ****         /*******************************************************************************
 926:.\Generated_Source\PSoC5/Beagle.c ****         * Function Name: Beagle_DisableTxInt
 927:.\Generated_Source\PSoC5/Beagle.c ****         ********************************************************************************
 928:.\Generated_Source\PSoC5/Beagle.c ****         *
 929:.\Generated_Source\PSoC5/Beagle.c ****         * Summary:
 930:.\Generated_Source\PSoC5/Beagle.c ****         *  Disable TX interrupt generation
 931:.\Generated_Source\PSoC5/Beagle.c ****         *
 932:.\Generated_Source\PSoC5/Beagle.c ****         * Parameters:
 933:.\Generated_Source\PSoC5/Beagle.c ****         *  None.
 934:.\Generated_Source\PSoC5/Beagle.c ****         *
 935:.\Generated_Source\PSoC5/Beagle.c ****         * Return:
 936:.\Generated_Source\PSoC5/Beagle.c ****         *  None.
 937:.\Generated_Source\PSoC5/Beagle.c ****         *
 938:.\Generated_Source\PSoC5/Beagle.c ****         * Theory:
 939:.\Generated_Source\PSoC5/Beagle.c ****         *  Disable the interrupt output -or- the interrupt component itself
 940:.\Generated_Source\PSoC5/Beagle.c ****         *
 941:.\Generated_Source\PSoC5/Beagle.c ****         *******************************************************************************/
 942:.\Generated_Source\PSoC5/Beagle.c ****         void Beagle_DisableTxInt(void) 
 943:.\Generated_Source\PSoC5/Beagle.c ****         {
 944:.\Generated_Source\PSoC5/Beagle.c ****             CyIntDisable(Beagle_TX_VECT_NUM);
 945:.\Generated_Source\PSoC5/Beagle.c ****         }
 946:.\Generated_Source\PSoC5/Beagle.c **** 
 947:.\Generated_Source\PSoC5/Beagle.c ****     #endif /* Beagle_TX_INTERRUPT_ENABLED */
 948:.\Generated_Source\PSoC5/Beagle.c **** 
 949:.\Generated_Source\PSoC5/Beagle.c **** 
 950:.\Generated_Source\PSoC5/Beagle.c ****     /*******************************************************************************
 951:.\Generated_Source\PSoC5/Beagle.c ****     * Function Name: Beagle_SetTxInterruptMode
 952:.\Generated_Source\PSoC5/Beagle.c ****     ********************************************************************************
 953:.\Generated_Source\PSoC5/Beagle.c ****     *
 954:.\Generated_Source\PSoC5/Beagle.c ****     * Summary:
 955:.\Generated_Source\PSoC5/Beagle.c ****     *  Configure which status bits trigger an interrupt event
 956:.\Generated_Source\PSoC5/Beagle.c ****     *
 957:.\Generated_Source\PSoC5/Beagle.c ****     * Parameters:
 958:.\Generated_Source\PSoC5/Beagle.c ****     *  intSrc: An or'd combination of the desired status bit masks (defined in
 959:.\Generated_Source\PSoC5/Beagle.c ****     *          the header file)
 960:.\Generated_Source\PSoC5/Beagle.c ****     *
 961:.\Generated_Source\PSoC5/Beagle.c ****     * Return:
 962:.\Generated_Source\PSoC5/Beagle.c ****     *  None.
 963:.\Generated_Source\PSoC5/Beagle.c ****     *
 964:.\Generated_Source\PSoC5/Beagle.c ****     * Theory:
 965:.\Generated_Source\PSoC5/Beagle.c ****     *  Enables the output of specific status bits to the interrupt controller
 966:.\Generated_Source\PSoC5/Beagle.c ****     *
 967:.\Generated_Source\PSoC5/Beagle.c ****     *******************************************************************************/
 968:.\Generated_Source\PSoC5/Beagle.c ****     void Beagle_SetTxInterruptMode(uint8 intSrc) 
 969:.\Generated_Source\PSoC5/Beagle.c ****     {
 1127              		.loc 1 969 0
 1128              		.cfi_startproc
 1129              		@ args = 0, pretend = 0, frame = 8
 1130              		@ frame_needed = 1, uses_anonymous_args = 0
 1131              		@ link register save eliminated.
 1132 0000 80B4     		push	{r7}
 1133              		.cfi_def_cfa_offset 4
 1134              		.cfi_offset 7, -4
 1135 0002 83B0     		sub	sp, sp, #12
 1136              		.cfi_def_cfa_offset 16
 1137 0004 00AF     		add	r7, sp, #0
ARM GAS  C:\Users\Lenovo\AppData\Local\Temp\cceofia7.s 			page 38


 1138              		.cfi_def_cfa_register 7
 1139 0006 0346     		mov	r3, r0
 1140 0008 FB71     		strb	r3, [r7, #7]
 970:.\Generated_Source\PSoC5/Beagle.c ****         Beagle_TXSTATUS_MASK_REG = intSrc;
 1141              		.loc 1 970 0
 1142 000a 044A     		ldr	r2, .L71
 1143 000c FB79     		ldrb	r3, [r7, #7]
 1144 000e 1370     		strb	r3, [r2]
 971:.\Generated_Source\PSoC5/Beagle.c ****     }
 1145              		.loc 1 971 0
 1146 0010 0C37     		adds	r7, r7, #12
 1147              		.cfi_def_cfa_offset 4
 1148 0012 BD46     		mov	sp, r7
 1149              		.cfi_def_cfa_register 13
 1150              		@ sp needed
 1151 0014 5DF8047B 		ldr	r7, [sp], #4
 1152              		.cfi_restore 7
 1153              		.cfi_def_cfa_offset 0
 1154 0018 7047     		bx	lr
 1155              	.L72:
 1156 001a 00BF     		.align	2
 1157              	.L71:
 1158 001c 8B640040 		.word	1073767563
 1159              		.cfi_endproc
 1160              	.LFE18:
 1161              		.size	Beagle_SetTxInterruptMode, .-Beagle_SetTxInterruptMode
 1162              		.section	.text.Beagle_WriteTxData,"ax",%progbits
 1163              		.align	2
 1164              		.global	Beagle_WriteTxData
 1165              		.thumb
 1166              		.thumb_func
 1167              		.type	Beagle_WriteTxData, %function
 1168              	Beagle_WriteTxData:
 1169              	.LFB19:
 972:.\Generated_Source\PSoC5/Beagle.c **** 
 973:.\Generated_Source\PSoC5/Beagle.c **** 
 974:.\Generated_Source\PSoC5/Beagle.c ****     /*******************************************************************************
 975:.\Generated_Source\PSoC5/Beagle.c ****     * Function Name: Beagle_WriteTxData
 976:.\Generated_Source\PSoC5/Beagle.c ****     ********************************************************************************
 977:.\Generated_Source\PSoC5/Beagle.c ****     *
 978:.\Generated_Source\PSoC5/Beagle.c ****     * Summary:
 979:.\Generated_Source\PSoC5/Beagle.c ****     *  Write a byte of data to the Transmit FIFO or TX buffer to be sent when the
 980:.\Generated_Source\PSoC5/Beagle.c ****     *  bus is available. WriteTxData sends a byte without checking for buffer room
 981:.\Generated_Source\PSoC5/Beagle.c ****     *  or status. It is up to the user to separately check status.
 982:.\Generated_Source\PSoC5/Beagle.c ****     *
 983:.\Generated_Source\PSoC5/Beagle.c ****     * Parameters:
 984:.\Generated_Source\PSoC5/Beagle.c ****     *  TXDataByte: byte of data to place in the transmit FIFO
 985:.\Generated_Source\PSoC5/Beagle.c ****     *
 986:.\Generated_Source\PSoC5/Beagle.c ****     * Return:
 987:.\Generated_Source\PSoC5/Beagle.c ****     * void
 988:.\Generated_Source\PSoC5/Beagle.c ****     *
 989:.\Generated_Source\PSoC5/Beagle.c ****     * Global Variables:
 990:.\Generated_Source\PSoC5/Beagle.c ****     *  Beagle_txBuffer - RAM buffer pointer for save data for transmission
 991:.\Generated_Source\PSoC5/Beagle.c ****     *  Beagle_txBufferWrite - cyclic index for write to txBuffer,
 992:.\Generated_Source\PSoC5/Beagle.c ****     *    incremented after each byte saved to buffer.
 993:.\Generated_Source\PSoC5/Beagle.c ****     *  Beagle_txBufferRead - cyclic index for read from txBuffer,
 994:.\Generated_Source\PSoC5/Beagle.c ****     *    checked to identify the condition to write to FIFO directly or to TX buffer
ARM GAS  C:\Users\Lenovo\AppData\Local\Temp\cceofia7.s 			page 39


 995:.\Generated_Source\PSoC5/Beagle.c ****     *  Beagle_initVar - checked to identify that the component has been
 996:.\Generated_Source\PSoC5/Beagle.c ****     *    initialized.
 997:.\Generated_Source\PSoC5/Beagle.c ****     *
 998:.\Generated_Source\PSoC5/Beagle.c ****     * Reentrant:
 999:.\Generated_Source\PSoC5/Beagle.c ****     *  No.
1000:.\Generated_Source\PSoC5/Beagle.c ****     *
1001:.\Generated_Source\PSoC5/Beagle.c ****     *******************************************************************************/
1002:.\Generated_Source\PSoC5/Beagle.c ****     void Beagle_WriteTxData(uint8 txDataByte) 
1003:.\Generated_Source\PSoC5/Beagle.c ****     {
 1170              		.loc 1 1003 0
 1171              		.cfi_startproc
 1172              		@ args = 0, pretend = 0, frame = 8
 1173              		@ frame_needed = 1, uses_anonymous_args = 0
 1174              		@ link register save eliminated.
 1175 0000 80B4     		push	{r7}
 1176              		.cfi_def_cfa_offset 4
 1177              		.cfi_offset 7, -4
 1178 0002 83B0     		sub	sp, sp, #12
 1179              		.cfi_def_cfa_offset 16
 1180 0004 00AF     		add	r7, sp, #0
 1181              		.cfi_def_cfa_register 7
 1182 0006 0346     		mov	r3, r0
 1183 0008 FB71     		strb	r3, [r7, #7]
1004:.\Generated_Source\PSoC5/Beagle.c ****         /* If not Initialized then skip this function*/
1005:.\Generated_Source\PSoC5/Beagle.c ****         if(Beagle_initVar != 0u)
 1184              		.loc 1 1005 0
 1185 000a 064B     		ldr	r3, .L75
 1186 000c 1B78     		ldrb	r3, [r3]	@ zero_extendqisi2
 1187 000e 002B     		cmp	r3, #0
 1188 0010 02D0     		beq	.L73
1006:.\Generated_Source\PSoC5/Beagle.c ****         {
1007:.\Generated_Source\PSoC5/Beagle.c ****             #if(Beagle_TXBUFFERSIZE > Beagle_FIFO_LENGTH)
1008:.\Generated_Source\PSoC5/Beagle.c **** 
1009:.\Generated_Source\PSoC5/Beagle.c ****                 /* Disable Tx interrupt. */
1010:.\Generated_Source\PSoC5/Beagle.c ****                 /* Protect variables that could change on interrupt. */
1011:.\Generated_Source\PSoC5/Beagle.c ****                 #if(Beagle_TX_INTERRUPT_ENABLED)
1012:.\Generated_Source\PSoC5/Beagle.c ****                     Beagle_DisableTxInt();
1013:.\Generated_Source\PSoC5/Beagle.c ****                 #endif /* End Beagle_TX_INTERRUPT_ENABLED */
1014:.\Generated_Source\PSoC5/Beagle.c **** 
1015:.\Generated_Source\PSoC5/Beagle.c ****                 if( (Beagle_txBufferRead == Beagle_txBufferWrite) &&
1016:.\Generated_Source\PSoC5/Beagle.c ****                     ((Beagle_TXSTATUS_REG & Beagle_TX_STS_FIFO_FULL) == 0u) )
1017:.\Generated_Source\PSoC5/Beagle.c ****                 {
1018:.\Generated_Source\PSoC5/Beagle.c ****                     /* Add directly to the FIFO. */
1019:.\Generated_Source\PSoC5/Beagle.c ****                     Beagle_TXDATA_REG = txDataByte;
1020:.\Generated_Source\PSoC5/Beagle.c ****                 }
1021:.\Generated_Source\PSoC5/Beagle.c ****                 else
1022:.\Generated_Source\PSoC5/Beagle.c ****                 {
1023:.\Generated_Source\PSoC5/Beagle.c ****                     if(Beagle_txBufferWrite >= Beagle_TXBUFFERSIZE)
1024:.\Generated_Source\PSoC5/Beagle.c ****                     {
1025:.\Generated_Source\PSoC5/Beagle.c ****                         Beagle_txBufferWrite = 0u;
1026:.\Generated_Source\PSoC5/Beagle.c ****                     }
1027:.\Generated_Source\PSoC5/Beagle.c **** 
1028:.\Generated_Source\PSoC5/Beagle.c ****                     Beagle_txBuffer[Beagle_txBufferWrite] = txDataByte;
1029:.\Generated_Source\PSoC5/Beagle.c **** 
1030:.\Generated_Source\PSoC5/Beagle.c ****                     /* Add to the software buffer. */
1031:.\Generated_Source\PSoC5/Beagle.c ****                     Beagle_txBufferWrite++;
1032:.\Generated_Source\PSoC5/Beagle.c **** 
ARM GAS  C:\Users\Lenovo\AppData\Local\Temp\cceofia7.s 			page 40


1033:.\Generated_Source\PSoC5/Beagle.c ****                 }
1034:.\Generated_Source\PSoC5/Beagle.c **** 
1035:.\Generated_Source\PSoC5/Beagle.c ****                 /* Enable Tx interrupt. */
1036:.\Generated_Source\PSoC5/Beagle.c ****                 #if(Beagle_TX_INTERRUPT_ENABLED)
1037:.\Generated_Source\PSoC5/Beagle.c ****                     Beagle_EnableTxInt();
1038:.\Generated_Source\PSoC5/Beagle.c ****                 #endif /* End Beagle_TX_INTERRUPT_ENABLED */
1039:.\Generated_Source\PSoC5/Beagle.c **** 
1040:.\Generated_Source\PSoC5/Beagle.c ****             #else /* Beagle_TXBUFFERSIZE > Beagle_FIFO_LENGTH */
1041:.\Generated_Source\PSoC5/Beagle.c **** 
1042:.\Generated_Source\PSoC5/Beagle.c ****                 /* Add directly to the FIFO. */
1043:.\Generated_Source\PSoC5/Beagle.c ****                 Beagle_TXDATA_REG = txDataByte;
 1189              		.loc 1 1043 0
 1190 0012 054A     		ldr	r2, .L75+4
 1191 0014 FB79     		ldrb	r3, [r7, #7]
 1192 0016 1370     		strb	r3, [r2]
 1193              	.L73:
1044:.\Generated_Source\PSoC5/Beagle.c **** 
1045:.\Generated_Source\PSoC5/Beagle.c ****             #endif /* End Beagle_TXBUFFERSIZE > Beagle_FIFO_LENGTH */
1046:.\Generated_Source\PSoC5/Beagle.c ****         }
1047:.\Generated_Source\PSoC5/Beagle.c ****     }
 1194              		.loc 1 1047 0
 1195 0018 0C37     		adds	r7, r7, #12
 1196              		.cfi_def_cfa_offset 4
 1197 001a BD46     		mov	sp, r7
 1198              		.cfi_def_cfa_register 13
 1199              		@ sp needed
 1200 001c 5DF8047B 		ldr	r7, [sp], #4
 1201              		.cfi_restore 7
 1202              		.cfi_def_cfa_offset 0
 1203 0020 7047     		bx	lr
 1204              	.L76:
 1205 0022 00BF     		.align	2
 1206              	.L75:
 1207 0024 00000000 		.word	Beagle_initVar
 1208 0028 4B640040 		.word	1073767499
 1209              		.cfi_endproc
 1210              	.LFE19:
 1211              		.size	Beagle_WriteTxData, .-Beagle_WriteTxData
 1212              		.section	.text.Beagle_ReadTxStatus,"ax",%progbits
 1213              		.align	2
 1214              		.global	Beagle_ReadTxStatus
 1215              		.thumb
 1216              		.thumb_func
 1217              		.type	Beagle_ReadTxStatus, %function
 1218              	Beagle_ReadTxStatus:
 1219              	.LFB20:
1048:.\Generated_Source\PSoC5/Beagle.c **** 
1049:.\Generated_Source\PSoC5/Beagle.c **** 
1050:.\Generated_Source\PSoC5/Beagle.c ****     /*******************************************************************************
1051:.\Generated_Source\PSoC5/Beagle.c ****     * Function Name: Beagle_ReadTxStatus
1052:.\Generated_Source\PSoC5/Beagle.c ****     ********************************************************************************
1053:.\Generated_Source\PSoC5/Beagle.c ****     *
1054:.\Generated_Source\PSoC5/Beagle.c ****     * Summary:
1055:.\Generated_Source\PSoC5/Beagle.c ****     *  Read the status register for the component
1056:.\Generated_Source\PSoC5/Beagle.c ****     *
1057:.\Generated_Source\PSoC5/Beagle.c ****     * Parameters:
1058:.\Generated_Source\PSoC5/Beagle.c ****     *  None.
ARM GAS  C:\Users\Lenovo\AppData\Local\Temp\cceofia7.s 			page 41


1059:.\Generated_Source\PSoC5/Beagle.c ****     *
1060:.\Generated_Source\PSoC5/Beagle.c ****     * Return:
1061:.\Generated_Source\PSoC5/Beagle.c ****     *  Contents of the status register
1062:.\Generated_Source\PSoC5/Beagle.c ****     *
1063:.\Generated_Source\PSoC5/Beagle.c ****     * Theory:
1064:.\Generated_Source\PSoC5/Beagle.c ****     *  This function reads the status register which is clear on read. It is up to
1065:.\Generated_Source\PSoC5/Beagle.c ****     *  the user to handle all bits in this return value accordingly, even if the bit
1066:.\Generated_Source\PSoC5/Beagle.c ****     *  was not enabled as an interrupt source the event happened and must be handled
1067:.\Generated_Source\PSoC5/Beagle.c ****     *  accordingly.
1068:.\Generated_Source\PSoC5/Beagle.c ****     *
1069:.\Generated_Source\PSoC5/Beagle.c ****     *******************************************************************************/
1070:.\Generated_Source\PSoC5/Beagle.c ****     uint8 Beagle_ReadTxStatus(void) 
1071:.\Generated_Source\PSoC5/Beagle.c ****     {
 1220              		.loc 1 1071 0
 1221              		.cfi_startproc
 1222              		@ args = 0, pretend = 0, frame = 0
 1223              		@ frame_needed = 1, uses_anonymous_args = 0
 1224              		@ link register save eliminated.
 1225 0000 80B4     		push	{r7}
 1226              		.cfi_def_cfa_offset 4
 1227              		.cfi_offset 7, -4
 1228 0002 00AF     		add	r7, sp, #0
 1229              		.cfi_def_cfa_register 7
1072:.\Generated_Source\PSoC5/Beagle.c ****         return(Beagle_TXSTATUS_REG);
 1230              		.loc 1 1072 0
 1231 0004 034B     		ldr	r3, .L79
 1232 0006 1B78     		ldrb	r3, [r3]
 1233 0008 DBB2     		uxtb	r3, r3
1073:.\Generated_Source\PSoC5/Beagle.c ****     }
 1234              		.loc 1 1073 0
 1235 000a 1846     		mov	r0, r3
 1236 000c BD46     		mov	sp, r7
 1237              		.cfi_def_cfa_register 13
 1238              		@ sp needed
 1239 000e 5DF8047B 		ldr	r7, [sp], #4
 1240              		.cfi_restore 7
 1241              		.cfi_def_cfa_offset 0
 1242 0012 7047     		bx	lr
 1243              	.L80:
 1244              		.align	2
 1245              	.L79:
 1246 0014 6B640040 		.word	1073767531
 1247              		.cfi_endproc
 1248              	.LFE20:
 1249              		.size	Beagle_ReadTxStatus, .-Beagle_ReadTxStatus
 1250              		.section	.text.Beagle_PutChar,"ax",%progbits
 1251              		.align	2
 1252              		.global	Beagle_PutChar
 1253              		.thumb
 1254              		.thumb_func
 1255              		.type	Beagle_PutChar, %function
 1256              	Beagle_PutChar:
 1257              	.LFB21:
1074:.\Generated_Source\PSoC5/Beagle.c **** 
1075:.\Generated_Source\PSoC5/Beagle.c **** 
1076:.\Generated_Source\PSoC5/Beagle.c ****     /*******************************************************************************
1077:.\Generated_Source\PSoC5/Beagle.c ****     * Function Name: Beagle_PutChar
ARM GAS  C:\Users\Lenovo\AppData\Local\Temp\cceofia7.s 			page 42


1078:.\Generated_Source\PSoC5/Beagle.c ****     ********************************************************************************
1079:.\Generated_Source\PSoC5/Beagle.c ****     *
1080:.\Generated_Source\PSoC5/Beagle.c ****     * Summary:
1081:.\Generated_Source\PSoC5/Beagle.c ****     *  Wait to send byte until TX register or buffer has room.
1082:.\Generated_Source\PSoC5/Beagle.c ****     *
1083:.\Generated_Source\PSoC5/Beagle.c ****     * Parameters:
1084:.\Generated_Source\PSoC5/Beagle.c ****     *  txDataByte: The 8-bit data value to send across the UART.
1085:.\Generated_Source\PSoC5/Beagle.c ****     *
1086:.\Generated_Source\PSoC5/Beagle.c ****     * Return:
1087:.\Generated_Source\PSoC5/Beagle.c ****     *  None.
1088:.\Generated_Source\PSoC5/Beagle.c ****     *
1089:.\Generated_Source\PSoC5/Beagle.c ****     * Global Variables:
1090:.\Generated_Source\PSoC5/Beagle.c ****     *  Beagle_txBuffer - RAM buffer pointer for save data for transmission
1091:.\Generated_Source\PSoC5/Beagle.c ****     *  Beagle_txBufferWrite - cyclic index for write to txBuffer,
1092:.\Generated_Source\PSoC5/Beagle.c ****     *     checked to identify free space in txBuffer and incremented after each byte
1093:.\Generated_Source\PSoC5/Beagle.c ****     *     saved to buffer.
1094:.\Generated_Source\PSoC5/Beagle.c ****     *  Beagle_txBufferRead - cyclic index for read from txBuffer,
1095:.\Generated_Source\PSoC5/Beagle.c ****     *     checked to identify free space in txBuffer.
1096:.\Generated_Source\PSoC5/Beagle.c ****     *  Beagle_initVar - checked to identify that the component has been
1097:.\Generated_Source\PSoC5/Beagle.c ****     *     initialized.
1098:.\Generated_Source\PSoC5/Beagle.c ****     *
1099:.\Generated_Source\PSoC5/Beagle.c ****     * Reentrant:
1100:.\Generated_Source\PSoC5/Beagle.c ****     *  No.
1101:.\Generated_Source\PSoC5/Beagle.c ****     *
1102:.\Generated_Source\PSoC5/Beagle.c ****     * Theory:
1103:.\Generated_Source\PSoC5/Beagle.c ****     *  Allows the user to transmit any byte of data in a single transfer
1104:.\Generated_Source\PSoC5/Beagle.c ****     *
1105:.\Generated_Source\PSoC5/Beagle.c ****     *******************************************************************************/
1106:.\Generated_Source\PSoC5/Beagle.c ****     void Beagle_PutChar(uint8 txDataByte) 
1107:.\Generated_Source\PSoC5/Beagle.c ****     {
 1258              		.loc 1 1107 0
 1259              		.cfi_startproc
 1260              		@ args = 0, pretend = 0, frame = 8
 1261              		@ frame_needed = 1, uses_anonymous_args = 0
 1262              		@ link register save eliminated.
 1263 0000 80B4     		push	{r7}
 1264              		.cfi_def_cfa_offset 4
 1265              		.cfi_offset 7, -4
 1266 0002 83B0     		sub	sp, sp, #12
 1267              		.cfi_def_cfa_offset 16
 1268 0004 00AF     		add	r7, sp, #0
 1269              		.cfi_def_cfa_register 7
 1270 0006 0346     		mov	r3, r0
 1271 0008 FB71     		strb	r3, [r7, #7]
1108:.\Generated_Source\PSoC5/Beagle.c ****             #if(Beagle_TXBUFFERSIZE > Beagle_FIFO_LENGTH)
1109:.\Generated_Source\PSoC5/Beagle.c ****                 /* The temporary output pointer is used since it takes two instructions
1110:.\Generated_Source\PSoC5/Beagle.c ****                 *  to increment with a wrap, and we can't risk doing that with the real
1111:.\Generated_Source\PSoC5/Beagle.c ****                 *  pointer and getting an interrupt in between instructions.
1112:.\Generated_Source\PSoC5/Beagle.c ****                 */
1113:.\Generated_Source\PSoC5/Beagle.c ****                 uint8 loc_txBufferWrite;
1114:.\Generated_Source\PSoC5/Beagle.c ****                 uint8 loc_txBufferRead;
1115:.\Generated_Source\PSoC5/Beagle.c **** 
1116:.\Generated_Source\PSoC5/Beagle.c ****                 do{
1117:.\Generated_Source\PSoC5/Beagle.c ****                     /* Block if software buffer is full, so we don't overwrite. */
1118:.\Generated_Source\PSoC5/Beagle.c ****                     #if ((Beagle_TXBUFFERSIZE > Beagle_MAX_BYTE_VALUE) && (CY_PSOC3))
1119:.\Generated_Source\PSoC5/Beagle.c ****                         /* Disable TX interrupt to protect variables that could change on interrupt
1120:.\Generated_Source\PSoC5/Beagle.c ****                         CyIntDisable(Beagle_TX_VECT_NUM);
ARM GAS  C:\Users\Lenovo\AppData\Local\Temp\cceofia7.s 			page 43


1121:.\Generated_Source\PSoC5/Beagle.c ****                     #endif /* End TXBUFFERSIZE > 255 */
1122:.\Generated_Source\PSoC5/Beagle.c ****                     loc_txBufferWrite = Beagle_txBufferWrite;
1123:.\Generated_Source\PSoC5/Beagle.c ****                     loc_txBufferRead = Beagle_txBufferRead;
1124:.\Generated_Source\PSoC5/Beagle.c ****                     #if ((Beagle_TXBUFFERSIZE > Beagle_MAX_BYTE_VALUE) && (CY_PSOC3))
1125:.\Generated_Source\PSoC5/Beagle.c ****                         /* Enable interrupt to continue transmission */
1126:.\Generated_Source\PSoC5/Beagle.c ****                         CyIntEnable(Beagle_TX_VECT_NUM);
1127:.\Generated_Source\PSoC5/Beagle.c ****                     #endif /* End TXBUFFERSIZE > 255 */
1128:.\Generated_Source\PSoC5/Beagle.c ****                 }while( (loc_txBufferWrite < loc_txBufferRead) ? (loc_txBufferWrite == (loc_txBuffe
1129:.\Generated_Source\PSoC5/Beagle.c ****                                         ((loc_txBufferWrite - loc_txBufferRead) ==
1130:.\Generated_Source\PSoC5/Beagle.c ****                                         (uint8)(Beagle_TXBUFFERSIZE - 1u)) );
1131:.\Generated_Source\PSoC5/Beagle.c **** 
1132:.\Generated_Source\PSoC5/Beagle.c ****                 if( (loc_txBufferRead == loc_txBufferWrite) &&
1133:.\Generated_Source\PSoC5/Beagle.c ****                     ((Beagle_TXSTATUS_REG & Beagle_TX_STS_FIFO_FULL) == 0u) )
1134:.\Generated_Source\PSoC5/Beagle.c ****                 {
1135:.\Generated_Source\PSoC5/Beagle.c ****                     /* Add directly to the FIFO. */
1136:.\Generated_Source\PSoC5/Beagle.c ****                     Beagle_TXDATA_REG = txDataByte;
1137:.\Generated_Source\PSoC5/Beagle.c ****                 }
1138:.\Generated_Source\PSoC5/Beagle.c ****                 else
1139:.\Generated_Source\PSoC5/Beagle.c ****                 {
1140:.\Generated_Source\PSoC5/Beagle.c ****                     if(loc_txBufferWrite >= Beagle_TXBUFFERSIZE)
1141:.\Generated_Source\PSoC5/Beagle.c ****                     {
1142:.\Generated_Source\PSoC5/Beagle.c ****                         loc_txBufferWrite = 0u;
1143:.\Generated_Source\PSoC5/Beagle.c ****                     }
1144:.\Generated_Source\PSoC5/Beagle.c ****                     /* Add to the software buffer. */
1145:.\Generated_Source\PSoC5/Beagle.c ****                     Beagle_txBuffer[loc_txBufferWrite] = txDataByte;
1146:.\Generated_Source\PSoC5/Beagle.c ****                     loc_txBufferWrite++;
1147:.\Generated_Source\PSoC5/Beagle.c **** 
1148:.\Generated_Source\PSoC5/Beagle.c ****                     /* Finally, update the real output pointer */
1149:.\Generated_Source\PSoC5/Beagle.c ****                     #if ((Beagle_TXBUFFERSIZE > Beagle_MAX_BYTE_VALUE) && (CY_PSOC3))
1150:.\Generated_Source\PSoC5/Beagle.c ****                         CyIntDisable(Beagle_TX_VECT_NUM);
1151:.\Generated_Source\PSoC5/Beagle.c ****                     #endif /* End TXBUFFERSIZE > 255 */
1152:.\Generated_Source\PSoC5/Beagle.c ****                     Beagle_txBufferWrite = loc_txBufferWrite;
1153:.\Generated_Source\PSoC5/Beagle.c ****                     #if ((Beagle_TXBUFFERSIZE > Beagle_MAX_BYTE_VALUE) && (CY_PSOC3))
1154:.\Generated_Source\PSoC5/Beagle.c ****                         CyIntEnable(Beagle_TX_VECT_NUM);
1155:.\Generated_Source\PSoC5/Beagle.c ****                     #endif /* End TXBUFFERSIZE > 255 */
1156:.\Generated_Source\PSoC5/Beagle.c ****                 }
1157:.\Generated_Source\PSoC5/Beagle.c **** 
1158:.\Generated_Source\PSoC5/Beagle.c ****             #else /* Beagle_TXBUFFERSIZE > Beagle_FIFO_LENGTH */
1159:.\Generated_Source\PSoC5/Beagle.c **** 
1160:.\Generated_Source\PSoC5/Beagle.c ****                 while((Beagle_TXSTATUS_REG & Beagle_TX_STS_FIFO_FULL) != 0u)
 1272              		.loc 1 1160 0
 1273 000a 00BF     		nop
 1274              	.L82:
 1275              		.loc 1 1160 0 is_stmt 0 discriminator 1
 1276 000c 074B     		ldr	r3, .L83
 1277 000e 1B78     		ldrb	r3, [r3]
 1278 0010 DBB2     		uxtb	r3, r3
 1279 0012 03F00403 		and	r3, r3, #4
 1280 0016 002B     		cmp	r3, #0
 1281 0018 F8D1     		bne	.L82
1161:.\Generated_Source\PSoC5/Beagle.c ****                 {
1162:.\Generated_Source\PSoC5/Beagle.c ****                     ; /* Wait for room in the FIFO. */
1163:.\Generated_Source\PSoC5/Beagle.c ****                 }
1164:.\Generated_Source\PSoC5/Beagle.c **** 
1165:.\Generated_Source\PSoC5/Beagle.c ****                 /* Add directly to the FIFO. */
1166:.\Generated_Source\PSoC5/Beagle.c ****                 Beagle_TXDATA_REG = txDataByte;
 1282              		.loc 1 1166 0 is_stmt 1
ARM GAS  C:\Users\Lenovo\AppData\Local\Temp\cceofia7.s 			page 44


 1283 001a 054A     		ldr	r2, .L83+4
 1284 001c FB79     		ldrb	r3, [r7, #7]
 1285 001e 1370     		strb	r3, [r2]
1167:.\Generated_Source\PSoC5/Beagle.c **** 
1168:.\Generated_Source\PSoC5/Beagle.c ****             #endif /* End Beagle_TXBUFFERSIZE > Beagle_FIFO_LENGTH */
1169:.\Generated_Source\PSoC5/Beagle.c ****     }
 1286              		.loc 1 1169 0
 1287 0020 0C37     		adds	r7, r7, #12
 1288              		.cfi_def_cfa_offset 4
 1289 0022 BD46     		mov	sp, r7
 1290              		.cfi_def_cfa_register 13
 1291              		@ sp needed
 1292 0024 5DF8047B 		ldr	r7, [sp], #4
 1293              		.cfi_restore 7
 1294              		.cfi_def_cfa_offset 0
 1295 0028 7047     		bx	lr
 1296              	.L84:
 1297 002a 00BF     		.align	2
 1298              	.L83:
 1299 002c 6B640040 		.word	1073767531
 1300 0030 4B640040 		.word	1073767499
 1301              		.cfi_endproc
 1302              	.LFE21:
 1303              		.size	Beagle_PutChar, .-Beagle_PutChar
 1304              		.section	.text.Beagle_PutString,"ax",%progbits
 1305              		.align	2
 1306              		.global	Beagle_PutString
 1307              		.thumb
 1308              		.thumb_func
 1309              		.type	Beagle_PutString, %function
 1310              	Beagle_PutString:
 1311              	.LFB22:
1170:.\Generated_Source\PSoC5/Beagle.c **** 
1171:.\Generated_Source\PSoC5/Beagle.c **** 
1172:.\Generated_Source\PSoC5/Beagle.c ****     /*******************************************************************************
1173:.\Generated_Source\PSoC5/Beagle.c ****     * Function Name: Beagle_PutString
1174:.\Generated_Source\PSoC5/Beagle.c ****     ********************************************************************************
1175:.\Generated_Source\PSoC5/Beagle.c ****     *
1176:.\Generated_Source\PSoC5/Beagle.c ****     * Summary:
1177:.\Generated_Source\PSoC5/Beagle.c ****     *  Write a Sequence of bytes on the Transmit line. Data comes from RAM or ROM.
1178:.\Generated_Source\PSoC5/Beagle.c ****     *
1179:.\Generated_Source\PSoC5/Beagle.c ****     * Parameters:
1180:.\Generated_Source\PSoC5/Beagle.c ****     *  string: char pointer to character string of Data to Send.
1181:.\Generated_Source\PSoC5/Beagle.c ****     *
1182:.\Generated_Source\PSoC5/Beagle.c ****     * Return:
1183:.\Generated_Source\PSoC5/Beagle.c ****     *  None.
1184:.\Generated_Source\PSoC5/Beagle.c ****     *
1185:.\Generated_Source\PSoC5/Beagle.c ****     * Global Variables:
1186:.\Generated_Source\PSoC5/Beagle.c ****     *  Beagle_initVar - checked to identify that the component has been
1187:.\Generated_Source\PSoC5/Beagle.c ****     *     initialized.
1188:.\Generated_Source\PSoC5/Beagle.c ****     *
1189:.\Generated_Source\PSoC5/Beagle.c ****     * Reentrant:
1190:.\Generated_Source\PSoC5/Beagle.c ****     *  No.
1191:.\Generated_Source\PSoC5/Beagle.c ****     *
1192:.\Generated_Source\PSoC5/Beagle.c ****     * Theory:
1193:.\Generated_Source\PSoC5/Beagle.c ****     *  This function will block if there is not enough memory to place the whole
1194:.\Generated_Source\PSoC5/Beagle.c ****     *  string, it will block until the entire string has been written to the
ARM GAS  C:\Users\Lenovo\AppData\Local\Temp\cceofia7.s 			page 45


1195:.\Generated_Source\PSoC5/Beagle.c ****     *  transmit buffer.
1196:.\Generated_Source\PSoC5/Beagle.c ****     *
1197:.\Generated_Source\PSoC5/Beagle.c ****     *******************************************************************************/
1198:.\Generated_Source\PSoC5/Beagle.c ****     void Beagle_PutString(const char8 string[]) 
1199:.\Generated_Source\PSoC5/Beagle.c ****     {
 1312              		.loc 1 1199 0
 1313              		.cfi_startproc
 1314              		@ args = 0, pretend = 0, frame = 16
 1315              		@ frame_needed = 1, uses_anonymous_args = 0
 1316 0000 80B5     		push	{r7, lr}
 1317              		.cfi_def_cfa_offset 8
 1318              		.cfi_offset 7, -8
 1319              		.cfi_offset 14, -4
 1320 0002 84B0     		sub	sp, sp, #16
 1321              		.cfi_def_cfa_offset 24
 1322 0004 00AF     		add	r7, sp, #0
 1323              		.cfi_def_cfa_register 7
 1324 0006 7860     		str	r0, [r7, #4]
1200:.\Generated_Source\PSoC5/Beagle.c ****         uint16 buf_index = 0u;
 1325              		.loc 1 1200 0
 1326 0008 0023     		movs	r3, #0
 1327 000a FB81     		strh	r3, [r7, #14]	@ movhi
1201:.\Generated_Source\PSoC5/Beagle.c ****         /* If not Initialized then skip this function*/
1202:.\Generated_Source\PSoC5/Beagle.c ****         if(Beagle_initVar != 0u)
 1328              		.loc 1 1202 0
 1329 000c 0B4B     		ldr	r3, .L89
 1330 000e 1B78     		ldrb	r3, [r3]	@ zero_extendqisi2
 1331 0010 002B     		cmp	r3, #0
 1332 0012 10D0     		beq	.L85
1203:.\Generated_Source\PSoC5/Beagle.c ****         {
1204:.\Generated_Source\PSoC5/Beagle.c ****             /* This is a blocking function, it will not exit until all data is sent*/
1205:.\Generated_Source\PSoC5/Beagle.c ****             while(string[buf_index] != (char8)0)
 1333              		.loc 1 1205 0
 1334 0014 09E0     		b	.L87
 1335              	.L88:
1206:.\Generated_Source\PSoC5/Beagle.c ****             {
1207:.\Generated_Source\PSoC5/Beagle.c ****                 Beagle_PutChar((uint8)string[buf_index]);
 1336              		.loc 1 1207 0
 1337 0016 FB89     		ldrh	r3, [r7, #14]
 1338 0018 7A68     		ldr	r2, [r7, #4]
 1339 001a 1344     		add	r3, r3, r2
 1340 001c 1B78     		ldrb	r3, [r3]	@ zero_extendqisi2
 1341 001e 1846     		mov	r0, r3
 1342 0020 FFF7FEFF 		bl	Beagle_PutChar
1208:.\Generated_Source\PSoC5/Beagle.c ****                 buf_index++;
 1343              		.loc 1 1208 0
 1344 0024 FB89     		ldrh	r3, [r7, #14]
 1345 0026 0133     		adds	r3, r3, #1
 1346 0028 FB81     		strh	r3, [r7, #14]	@ movhi
 1347              	.L87:
1205:.\Generated_Source\PSoC5/Beagle.c ****             {
 1348              		.loc 1 1205 0
 1349 002a FB89     		ldrh	r3, [r7, #14]
 1350 002c 7A68     		ldr	r2, [r7, #4]
 1351 002e 1344     		add	r3, r3, r2
 1352 0030 1B78     		ldrb	r3, [r3]	@ zero_extendqisi2
 1353 0032 002B     		cmp	r3, #0
ARM GAS  C:\Users\Lenovo\AppData\Local\Temp\cceofia7.s 			page 46


 1354 0034 EFD1     		bne	.L88
 1355              	.L85:
1209:.\Generated_Source\PSoC5/Beagle.c ****             }
1210:.\Generated_Source\PSoC5/Beagle.c ****         }
1211:.\Generated_Source\PSoC5/Beagle.c ****     }
 1356              		.loc 1 1211 0
 1357 0036 1037     		adds	r7, r7, #16
 1358              		.cfi_def_cfa_offset 8
 1359 0038 BD46     		mov	sp, r7
 1360              		.cfi_def_cfa_register 13
 1361              		@ sp needed
 1362 003a 80BD     		pop	{r7, pc}
 1363              	.L90:
 1364              		.align	2
 1365              	.L89:
 1366 003c 00000000 		.word	Beagle_initVar
 1367              		.cfi_endproc
 1368              	.LFE22:
 1369              		.size	Beagle_PutString, .-Beagle_PutString
 1370              		.section	.text.Beagle_PutArray,"ax",%progbits
 1371              		.align	2
 1372              		.global	Beagle_PutArray
 1373              		.thumb
 1374              		.thumb_func
 1375              		.type	Beagle_PutArray, %function
 1376              	Beagle_PutArray:
 1377              	.LFB23:
1212:.\Generated_Source\PSoC5/Beagle.c **** 
1213:.\Generated_Source\PSoC5/Beagle.c **** 
1214:.\Generated_Source\PSoC5/Beagle.c ****     /*******************************************************************************
1215:.\Generated_Source\PSoC5/Beagle.c ****     * Function Name: Beagle_PutArray
1216:.\Generated_Source\PSoC5/Beagle.c ****     ********************************************************************************
1217:.\Generated_Source\PSoC5/Beagle.c ****     *
1218:.\Generated_Source\PSoC5/Beagle.c ****     * Summary:
1219:.\Generated_Source\PSoC5/Beagle.c ****     *  Write a Sequence of bytes on the Transmit line. Data comes from RAM or ROM.
1220:.\Generated_Source\PSoC5/Beagle.c ****     *
1221:.\Generated_Source\PSoC5/Beagle.c ****     * Parameters:
1222:.\Generated_Source\PSoC5/Beagle.c ****     *  string: Address of the memory array residing in RAM or ROM.
1223:.\Generated_Source\PSoC5/Beagle.c ****     *  byteCount: Number of Bytes to be transmitted.
1224:.\Generated_Source\PSoC5/Beagle.c ****     *
1225:.\Generated_Source\PSoC5/Beagle.c ****     * Return:
1226:.\Generated_Source\PSoC5/Beagle.c ****     *  None.
1227:.\Generated_Source\PSoC5/Beagle.c ****     *
1228:.\Generated_Source\PSoC5/Beagle.c ****     * Global Variables:
1229:.\Generated_Source\PSoC5/Beagle.c ****     *  Beagle_initVar - checked to identify that the component has been
1230:.\Generated_Source\PSoC5/Beagle.c ****     *     initialized.
1231:.\Generated_Source\PSoC5/Beagle.c ****     *
1232:.\Generated_Source\PSoC5/Beagle.c ****     * Reentrant:
1233:.\Generated_Source\PSoC5/Beagle.c ****     *  No.
1234:.\Generated_Source\PSoC5/Beagle.c ****     *
1235:.\Generated_Source\PSoC5/Beagle.c ****     *******************************************************************************/
1236:.\Generated_Source\PSoC5/Beagle.c ****     void Beagle_PutArray(const uint8 string[], uint8 byteCount)
1237:.\Generated_Source\PSoC5/Beagle.c ****                                                                     
1238:.\Generated_Source\PSoC5/Beagle.c ****     {
 1378              		.loc 1 1238 0
 1379              		.cfi_startproc
 1380              		@ args = 0, pretend = 0, frame = 16
ARM GAS  C:\Users\Lenovo\AppData\Local\Temp\cceofia7.s 			page 47


 1381              		@ frame_needed = 1, uses_anonymous_args = 0
 1382 0000 80B5     		push	{r7, lr}
 1383              		.cfi_def_cfa_offset 8
 1384              		.cfi_offset 7, -8
 1385              		.cfi_offset 14, -4
 1386 0002 84B0     		sub	sp, sp, #16
 1387              		.cfi_def_cfa_offset 24
 1388 0004 00AF     		add	r7, sp, #0
 1389              		.cfi_def_cfa_register 7
 1390 0006 7860     		str	r0, [r7, #4]
 1391 0008 0B46     		mov	r3, r1
 1392 000a FB70     		strb	r3, [r7, #3]
1239:.\Generated_Source\PSoC5/Beagle.c ****         uint8 buf_index = 0u;
 1393              		.loc 1 1239 0
 1394 000c 0023     		movs	r3, #0
 1395 000e FB73     		strb	r3, [r7, #15]
1240:.\Generated_Source\PSoC5/Beagle.c ****         /* If not Initialized then skip this function*/
1241:.\Generated_Source\PSoC5/Beagle.c ****         if(Beagle_initVar != 0u)
 1396              		.loc 1 1241 0
 1397 0010 0A4B     		ldr	r3, .L94
 1398 0012 1B78     		ldrb	r3, [r3]	@ zero_extendqisi2
 1399 0014 002B     		cmp	r3, #0
 1400 0016 0DD0     		beq	.L91
 1401              	.L93:
1242:.\Generated_Source\PSoC5/Beagle.c ****         {
1243:.\Generated_Source\PSoC5/Beagle.c ****             do
1244:.\Generated_Source\PSoC5/Beagle.c ****             {
1245:.\Generated_Source\PSoC5/Beagle.c ****                 Beagle_PutChar(string[buf_index]);
 1402              		.loc 1 1245 0 discriminator 1
 1403 0018 FB7B     		ldrb	r3, [r7, #15]	@ zero_extendqisi2
 1404 001a 7A68     		ldr	r2, [r7, #4]
 1405 001c 1344     		add	r3, r3, r2
 1406 001e 1B78     		ldrb	r3, [r3]	@ zero_extendqisi2
 1407 0020 1846     		mov	r0, r3
 1408 0022 FFF7FEFF 		bl	Beagle_PutChar
1246:.\Generated_Source\PSoC5/Beagle.c ****                 buf_index++;
 1409              		.loc 1 1246 0 discriminator 1
 1410 0026 FB7B     		ldrb	r3, [r7, #15]	@ zero_extendqisi2
 1411 0028 0133     		adds	r3, r3, #1
 1412 002a FB73     		strb	r3, [r7, #15]
1247:.\Generated_Source\PSoC5/Beagle.c ****             }while(buf_index < byteCount);
 1413              		.loc 1 1247 0 discriminator 1
 1414 002c FA7B     		ldrb	r2, [r7, #15]	@ zero_extendqisi2
 1415 002e FB78     		ldrb	r3, [r7, #3]	@ zero_extendqisi2
 1416 0030 9A42     		cmp	r2, r3
 1417 0032 F1D3     		bcc	.L93
 1418              	.L91:
1248:.\Generated_Source\PSoC5/Beagle.c ****         }
1249:.\Generated_Source\PSoC5/Beagle.c ****     }
 1419              		.loc 1 1249 0
 1420 0034 1037     		adds	r7, r7, #16
 1421              		.cfi_def_cfa_offset 8
 1422 0036 BD46     		mov	sp, r7
 1423              		.cfi_def_cfa_register 13
 1424              		@ sp needed
 1425 0038 80BD     		pop	{r7, pc}
 1426              	.L95:
ARM GAS  C:\Users\Lenovo\AppData\Local\Temp\cceofia7.s 			page 48


 1427 003a 00BF     		.align	2
 1428              	.L94:
 1429 003c 00000000 		.word	Beagle_initVar
 1430              		.cfi_endproc
 1431              	.LFE23:
 1432              		.size	Beagle_PutArray, .-Beagle_PutArray
 1433              		.section	.text.Beagle_PutCRLF,"ax",%progbits
 1434              		.align	2
 1435              		.global	Beagle_PutCRLF
 1436              		.thumb
 1437              		.thumb_func
 1438              		.type	Beagle_PutCRLF, %function
 1439              	Beagle_PutCRLF:
 1440              	.LFB24:
1250:.\Generated_Source\PSoC5/Beagle.c **** 
1251:.\Generated_Source\PSoC5/Beagle.c **** 
1252:.\Generated_Source\PSoC5/Beagle.c ****     /*******************************************************************************
1253:.\Generated_Source\PSoC5/Beagle.c ****     * Function Name: Beagle_PutCRLF
1254:.\Generated_Source\PSoC5/Beagle.c ****     ********************************************************************************
1255:.\Generated_Source\PSoC5/Beagle.c ****     *
1256:.\Generated_Source\PSoC5/Beagle.c ****     * Summary:
1257:.\Generated_Source\PSoC5/Beagle.c ****     *  Write a character and then carriage return and line feed.
1258:.\Generated_Source\PSoC5/Beagle.c ****     *
1259:.\Generated_Source\PSoC5/Beagle.c ****     * Parameters:
1260:.\Generated_Source\PSoC5/Beagle.c ****     *  txDataByte: uint8 Character to send.
1261:.\Generated_Source\PSoC5/Beagle.c ****     *
1262:.\Generated_Source\PSoC5/Beagle.c ****     * Return:
1263:.\Generated_Source\PSoC5/Beagle.c ****     *  None.
1264:.\Generated_Source\PSoC5/Beagle.c ****     *
1265:.\Generated_Source\PSoC5/Beagle.c ****     * Global Variables:
1266:.\Generated_Source\PSoC5/Beagle.c ****     *  Beagle_initVar - checked to identify that the component has been
1267:.\Generated_Source\PSoC5/Beagle.c ****     *     initialized.
1268:.\Generated_Source\PSoC5/Beagle.c ****     *
1269:.\Generated_Source\PSoC5/Beagle.c ****     * Reentrant:
1270:.\Generated_Source\PSoC5/Beagle.c ****     *  No.
1271:.\Generated_Source\PSoC5/Beagle.c ****     *
1272:.\Generated_Source\PSoC5/Beagle.c ****     *******************************************************************************/
1273:.\Generated_Source\PSoC5/Beagle.c ****     void Beagle_PutCRLF(uint8 txDataByte) 
1274:.\Generated_Source\PSoC5/Beagle.c ****     {
 1441              		.loc 1 1274 0
 1442              		.cfi_startproc
 1443              		@ args = 0, pretend = 0, frame = 8
 1444              		@ frame_needed = 1, uses_anonymous_args = 0
 1445 0000 80B5     		push	{r7, lr}
 1446              		.cfi_def_cfa_offset 8
 1447              		.cfi_offset 7, -8
 1448              		.cfi_offset 14, -4
 1449 0002 82B0     		sub	sp, sp, #8
 1450              		.cfi_def_cfa_offset 16
 1451 0004 00AF     		add	r7, sp, #0
 1452              		.cfi_def_cfa_register 7
 1453 0006 0346     		mov	r3, r0
 1454 0008 FB71     		strb	r3, [r7, #7]
1275:.\Generated_Source\PSoC5/Beagle.c ****         /* If not Initialized then skip this function*/
1276:.\Generated_Source\PSoC5/Beagle.c ****         if(Beagle_initVar != 0u)
 1455              		.loc 1 1276 0
 1456 000a 084B     		ldr	r3, .L98
ARM GAS  C:\Users\Lenovo\AppData\Local\Temp\cceofia7.s 			page 49


 1457 000c 1B78     		ldrb	r3, [r3]	@ zero_extendqisi2
 1458 000e 002B     		cmp	r3, #0
 1459 0010 09D0     		beq	.L96
1277:.\Generated_Source\PSoC5/Beagle.c ****         {
1278:.\Generated_Source\PSoC5/Beagle.c ****             Beagle_PutChar(txDataByte);
 1460              		.loc 1 1278 0
 1461 0012 FB79     		ldrb	r3, [r7, #7]	@ zero_extendqisi2
 1462 0014 1846     		mov	r0, r3
 1463 0016 FFF7FEFF 		bl	Beagle_PutChar
1279:.\Generated_Source\PSoC5/Beagle.c ****             Beagle_PutChar(0x0Du);
 1464              		.loc 1 1279 0
 1465 001a 0D20     		movs	r0, #13
 1466 001c FFF7FEFF 		bl	Beagle_PutChar
1280:.\Generated_Source\PSoC5/Beagle.c ****             Beagle_PutChar(0x0Au);
 1467              		.loc 1 1280 0
 1468 0020 0A20     		movs	r0, #10
 1469 0022 FFF7FEFF 		bl	Beagle_PutChar
 1470              	.L96:
1281:.\Generated_Source\PSoC5/Beagle.c ****         }
1282:.\Generated_Source\PSoC5/Beagle.c ****     }
 1471              		.loc 1 1282 0
 1472 0026 0837     		adds	r7, r7, #8
 1473              		.cfi_def_cfa_offset 8
 1474 0028 BD46     		mov	sp, r7
 1475              		.cfi_def_cfa_register 13
 1476              		@ sp needed
 1477 002a 80BD     		pop	{r7, pc}
 1478              	.L99:
 1479              		.align	2
 1480              	.L98:
 1481 002c 00000000 		.word	Beagle_initVar
 1482              		.cfi_endproc
 1483              	.LFE24:
 1484              		.size	Beagle_PutCRLF, .-Beagle_PutCRLF
 1485              		.section	.text.Beagle_GetTxBufferSize,"ax",%progbits
 1486              		.align	2
 1487              		.global	Beagle_GetTxBufferSize
 1488              		.thumb
 1489              		.thumb_func
 1490              		.type	Beagle_GetTxBufferSize, %function
 1491              	Beagle_GetTxBufferSize:
 1492              	.LFB25:
1283:.\Generated_Source\PSoC5/Beagle.c **** 
1284:.\Generated_Source\PSoC5/Beagle.c **** 
1285:.\Generated_Source\PSoC5/Beagle.c ****     /*******************************************************************************
1286:.\Generated_Source\PSoC5/Beagle.c ****     * Function Name: Beagle_GetTxBufferSize
1287:.\Generated_Source\PSoC5/Beagle.c ****     ********************************************************************************
1288:.\Generated_Source\PSoC5/Beagle.c ****     *
1289:.\Generated_Source\PSoC5/Beagle.c ****     * Summary:
1290:.\Generated_Source\PSoC5/Beagle.c ****     *  Determine the amount of space left in the TX buffer and return the count in
1291:.\Generated_Source\PSoC5/Beagle.c ****     *  bytes
1292:.\Generated_Source\PSoC5/Beagle.c ****     *
1293:.\Generated_Source\PSoC5/Beagle.c ****     * Parameters:
1294:.\Generated_Source\PSoC5/Beagle.c ****     *  None.
1295:.\Generated_Source\PSoC5/Beagle.c ****     *
1296:.\Generated_Source\PSoC5/Beagle.c ****     * Return:
1297:.\Generated_Source\PSoC5/Beagle.c ****     *  Integer count of the number of bytes left in the TX buffer
ARM GAS  C:\Users\Lenovo\AppData\Local\Temp\cceofia7.s 			page 50


1298:.\Generated_Source\PSoC5/Beagle.c ****     *
1299:.\Generated_Source\PSoC5/Beagle.c ****     * Global Variables:
1300:.\Generated_Source\PSoC5/Beagle.c ****     *  Beagle_txBufferWrite - used to calculate left space.
1301:.\Generated_Source\PSoC5/Beagle.c ****     *  Beagle_txBufferRead - used to calculate left space.
1302:.\Generated_Source\PSoC5/Beagle.c ****     *
1303:.\Generated_Source\PSoC5/Beagle.c ****     * Reentrant:
1304:.\Generated_Source\PSoC5/Beagle.c ****     *  No.
1305:.\Generated_Source\PSoC5/Beagle.c ****     *
1306:.\Generated_Source\PSoC5/Beagle.c ****     * Theory:
1307:.\Generated_Source\PSoC5/Beagle.c ****     *  Allows the user to find out how full the TX Buffer is.
1308:.\Generated_Source\PSoC5/Beagle.c ****     *
1309:.\Generated_Source\PSoC5/Beagle.c ****     *******************************************************************************/
1310:.\Generated_Source\PSoC5/Beagle.c ****     uint8 Beagle_GetTxBufferSize(void)
1311:.\Generated_Source\PSoC5/Beagle.c ****                                                             
1312:.\Generated_Source\PSoC5/Beagle.c ****     {
 1493              		.loc 1 1312 0
 1494              		.cfi_startproc
 1495              		@ args = 0, pretend = 0, frame = 8
 1496              		@ frame_needed = 1, uses_anonymous_args = 0
 1497              		@ link register save eliminated.
 1498 0000 80B4     		push	{r7}
 1499              		.cfi_def_cfa_offset 4
 1500              		.cfi_offset 7, -4
 1501 0002 83B0     		sub	sp, sp, #12
 1502              		.cfi_def_cfa_offset 16
 1503 0004 00AF     		add	r7, sp, #0
 1504              		.cfi_def_cfa_register 7
1313:.\Generated_Source\PSoC5/Beagle.c ****         uint8 size;
1314:.\Generated_Source\PSoC5/Beagle.c **** 
1315:.\Generated_Source\PSoC5/Beagle.c ****         #if(Beagle_TXBUFFERSIZE > Beagle_FIFO_LENGTH)
1316:.\Generated_Source\PSoC5/Beagle.c **** 
1317:.\Generated_Source\PSoC5/Beagle.c ****             /* Disable Tx interrupt. */
1318:.\Generated_Source\PSoC5/Beagle.c ****             /* Protect variables that could change on interrupt. */
1319:.\Generated_Source\PSoC5/Beagle.c ****             #if(Beagle_TX_INTERRUPT_ENABLED)
1320:.\Generated_Source\PSoC5/Beagle.c ****                 Beagle_DisableTxInt();
1321:.\Generated_Source\PSoC5/Beagle.c ****             #endif /* End Beagle_TX_INTERRUPT_ENABLED */
1322:.\Generated_Source\PSoC5/Beagle.c **** 
1323:.\Generated_Source\PSoC5/Beagle.c ****             if(Beagle_txBufferRead == Beagle_txBufferWrite)
1324:.\Generated_Source\PSoC5/Beagle.c ****             {
1325:.\Generated_Source\PSoC5/Beagle.c ****                 size = 0u;
1326:.\Generated_Source\PSoC5/Beagle.c ****             }
1327:.\Generated_Source\PSoC5/Beagle.c ****             else if(Beagle_txBufferRead < Beagle_txBufferWrite)
1328:.\Generated_Source\PSoC5/Beagle.c ****             {
1329:.\Generated_Source\PSoC5/Beagle.c ****                 size = (Beagle_txBufferWrite - Beagle_txBufferRead);
1330:.\Generated_Source\PSoC5/Beagle.c ****             }
1331:.\Generated_Source\PSoC5/Beagle.c ****             else
1332:.\Generated_Source\PSoC5/Beagle.c ****             {
1333:.\Generated_Source\PSoC5/Beagle.c ****                 size = (Beagle_TXBUFFERSIZE - Beagle_txBufferRead) + Beagle_txBufferWrite;
1334:.\Generated_Source\PSoC5/Beagle.c ****             }
1335:.\Generated_Source\PSoC5/Beagle.c **** 
1336:.\Generated_Source\PSoC5/Beagle.c ****             /* Enable Tx interrupt. */
1337:.\Generated_Source\PSoC5/Beagle.c ****             #if(Beagle_TX_INTERRUPT_ENABLED)
1338:.\Generated_Source\PSoC5/Beagle.c ****                 Beagle_EnableTxInt();
1339:.\Generated_Source\PSoC5/Beagle.c ****             #endif /* End Beagle_TX_INTERRUPT_ENABLED */
1340:.\Generated_Source\PSoC5/Beagle.c **** 
1341:.\Generated_Source\PSoC5/Beagle.c ****         #else /* Beagle_TXBUFFERSIZE > Beagle_FIFO_LENGTH */
1342:.\Generated_Source\PSoC5/Beagle.c **** 
ARM GAS  C:\Users\Lenovo\AppData\Local\Temp\cceofia7.s 			page 51


1343:.\Generated_Source\PSoC5/Beagle.c ****             size = Beagle_TXSTATUS_REG;
 1505              		.loc 1 1343 0
 1506 0006 0E4B     		ldr	r3, .L105
 1507 0008 1B78     		ldrb	r3, [r3]
 1508 000a FB71     		strb	r3, [r7, #7]
1344:.\Generated_Source\PSoC5/Beagle.c **** 
1345:.\Generated_Source\PSoC5/Beagle.c ****             /* Is the fifo is full. */
1346:.\Generated_Source\PSoC5/Beagle.c ****             if((size & Beagle_TX_STS_FIFO_FULL) != 0u)
 1509              		.loc 1 1346 0
 1510 000c FB79     		ldrb	r3, [r7, #7]	@ zero_extendqisi2
 1511 000e 03F00403 		and	r3, r3, #4
 1512 0012 002B     		cmp	r3, #0
 1513 0014 02D0     		beq	.L101
1347:.\Generated_Source\PSoC5/Beagle.c ****             {
1348:.\Generated_Source\PSoC5/Beagle.c ****                 size = Beagle_FIFO_LENGTH;
 1514              		.loc 1 1348 0
 1515 0016 0423     		movs	r3, #4
 1516 0018 FB71     		strb	r3, [r7, #7]
 1517 001a 09E0     		b	.L102
 1518              	.L101:
1349:.\Generated_Source\PSoC5/Beagle.c ****             }
1350:.\Generated_Source\PSoC5/Beagle.c ****             else if((size & Beagle_TX_STS_FIFO_EMPTY) != 0u)
 1519              		.loc 1 1350 0
 1520 001c FB79     		ldrb	r3, [r7, #7]	@ zero_extendqisi2
 1521 001e 03F00203 		and	r3, r3, #2
 1522 0022 002B     		cmp	r3, #0
 1523 0024 02D0     		beq	.L103
1351:.\Generated_Source\PSoC5/Beagle.c ****             {
1352:.\Generated_Source\PSoC5/Beagle.c ****                 size = 0u;
 1524              		.loc 1 1352 0
 1525 0026 0023     		movs	r3, #0
 1526 0028 FB71     		strb	r3, [r7, #7]
 1527 002a 01E0     		b	.L102
 1528              	.L103:
1353:.\Generated_Source\PSoC5/Beagle.c ****             }
1354:.\Generated_Source\PSoC5/Beagle.c ****             else
1355:.\Generated_Source\PSoC5/Beagle.c ****             {
1356:.\Generated_Source\PSoC5/Beagle.c ****                 /* We only know there is data in the fifo. */
1357:.\Generated_Source\PSoC5/Beagle.c ****                 size = 1u;
 1529              		.loc 1 1357 0
 1530 002c 0123     		movs	r3, #1
 1531 002e FB71     		strb	r3, [r7, #7]
 1532              	.L102:
1358:.\Generated_Source\PSoC5/Beagle.c ****             }
1359:.\Generated_Source\PSoC5/Beagle.c **** 
1360:.\Generated_Source\PSoC5/Beagle.c ****         #endif /* End Beagle_TXBUFFERSIZE > Beagle_FIFO_LENGTH */
1361:.\Generated_Source\PSoC5/Beagle.c **** 
1362:.\Generated_Source\PSoC5/Beagle.c ****         return(size);
 1533              		.loc 1 1362 0
 1534 0030 FB79     		ldrb	r3, [r7, #7]	@ zero_extendqisi2
1363:.\Generated_Source\PSoC5/Beagle.c ****     }
 1535              		.loc 1 1363 0
 1536 0032 1846     		mov	r0, r3
 1537 0034 0C37     		adds	r7, r7, #12
 1538              		.cfi_def_cfa_offset 4
 1539 0036 BD46     		mov	sp, r7
 1540              		.cfi_def_cfa_register 13
ARM GAS  C:\Users\Lenovo\AppData\Local\Temp\cceofia7.s 			page 52


 1541              		@ sp needed
 1542 0038 5DF8047B 		ldr	r7, [sp], #4
 1543              		.cfi_restore 7
 1544              		.cfi_def_cfa_offset 0
 1545 003c 7047     		bx	lr
 1546              	.L106:
 1547 003e 00BF     		.align	2
 1548              	.L105:
 1549 0040 6B640040 		.word	1073767531
 1550              		.cfi_endproc
 1551              	.LFE25:
 1552              		.size	Beagle_GetTxBufferSize, .-Beagle_GetTxBufferSize
 1553              		.section	.text.Beagle_ClearTxBuffer,"ax",%progbits
 1554              		.align	2
 1555              		.global	Beagle_ClearTxBuffer
 1556              		.thumb
 1557              		.thumb_func
 1558              		.type	Beagle_ClearTxBuffer, %function
 1559              	Beagle_ClearTxBuffer:
 1560              	.LFB26:
1364:.\Generated_Source\PSoC5/Beagle.c **** 
1365:.\Generated_Source\PSoC5/Beagle.c **** 
1366:.\Generated_Source\PSoC5/Beagle.c ****     /*******************************************************************************
1367:.\Generated_Source\PSoC5/Beagle.c ****     * Function Name: Beagle_ClearTxBuffer
1368:.\Generated_Source\PSoC5/Beagle.c ****     ********************************************************************************
1369:.\Generated_Source\PSoC5/Beagle.c ****     *
1370:.\Generated_Source\PSoC5/Beagle.c ****     * Summary:
1371:.\Generated_Source\PSoC5/Beagle.c ****     *  Clears the TX RAM buffer by setting the read and write pointers both to zero.
1372:.\Generated_Source\PSoC5/Beagle.c ****     *  Clears the hardware TX FIFO.  Any data present in the FIFO will not be sent.
1373:.\Generated_Source\PSoC5/Beagle.c ****     *
1374:.\Generated_Source\PSoC5/Beagle.c ****     * Parameters:
1375:.\Generated_Source\PSoC5/Beagle.c ****     *  None.
1376:.\Generated_Source\PSoC5/Beagle.c ****     *
1377:.\Generated_Source\PSoC5/Beagle.c ****     * Return:
1378:.\Generated_Source\PSoC5/Beagle.c ****     *  None.
1379:.\Generated_Source\PSoC5/Beagle.c ****     *
1380:.\Generated_Source\PSoC5/Beagle.c ****     * Global Variables:
1381:.\Generated_Source\PSoC5/Beagle.c ****     *  Beagle_txBufferWrite - cleared to zero.
1382:.\Generated_Source\PSoC5/Beagle.c ****     *  Beagle_txBufferRead - cleared to zero.
1383:.\Generated_Source\PSoC5/Beagle.c ****     *
1384:.\Generated_Source\PSoC5/Beagle.c ****     * Reentrant:
1385:.\Generated_Source\PSoC5/Beagle.c ****     *  No.
1386:.\Generated_Source\PSoC5/Beagle.c ****     *
1387:.\Generated_Source\PSoC5/Beagle.c ****     * Theory:
1388:.\Generated_Source\PSoC5/Beagle.c ****     *  Setting the pointers to zero makes the system believe there is no data to
1389:.\Generated_Source\PSoC5/Beagle.c ****     *  read and writing will resume at address 0 overwriting any data that may have
1390:.\Generated_Source\PSoC5/Beagle.c ****     *  remained in the RAM.
1391:.\Generated_Source\PSoC5/Beagle.c ****     *
1392:.\Generated_Source\PSoC5/Beagle.c ****     * Side Effects:
1393:.\Generated_Source\PSoC5/Beagle.c ****     *  Any received data not read from the RAM buffer will be lost when overwritten.
1394:.\Generated_Source\PSoC5/Beagle.c ****     *
1395:.\Generated_Source\PSoC5/Beagle.c ****     *******************************************************************************/
1396:.\Generated_Source\PSoC5/Beagle.c ****     void Beagle_ClearTxBuffer(void) 
1397:.\Generated_Source\PSoC5/Beagle.c ****     {
 1561              		.loc 1 1397 0
 1562              		.cfi_startproc
 1563              		@ args = 0, pretend = 0, frame = 8
ARM GAS  C:\Users\Lenovo\AppData\Local\Temp\cceofia7.s 			page 53


 1564              		@ frame_needed = 1, uses_anonymous_args = 0
 1565 0000 80B5     		push	{r7, lr}
 1566              		.cfi_def_cfa_offset 8
 1567              		.cfi_offset 7, -8
 1568              		.cfi_offset 14, -4
 1569 0002 82B0     		sub	sp, sp, #8
 1570              		.cfi_def_cfa_offset 16
 1571 0004 00AF     		add	r7, sp, #0
 1572              		.cfi_def_cfa_register 7
1398:.\Generated_Source\PSoC5/Beagle.c ****         uint8 enableInterrupts;
1399:.\Generated_Source\PSoC5/Beagle.c **** 
1400:.\Generated_Source\PSoC5/Beagle.c ****         /* Enter critical section */
1401:.\Generated_Source\PSoC5/Beagle.c ****         enableInterrupts = CyEnterCriticalSection();
 1573              		.loc 1 1401 0
 1574 0006 FFF7FEFF 		bl	CyEnterCriticalSection
 1575 000a 0346     		mov	r3, r0
 1576 000c FB71     		strb	r3, [r7, #7]
1402:.\Generated_Source\PSoC5/Beagle.c ****         /* clear the HW FIFO */
1403:.\Generated_Source\PSoC5/Beagle.c ****         Beagle_TXDATA_AUX_CTL_REG |=  Beagle_TX_FIFO_CLR;
 1577              		.loc 1 1403 0
 1578 000e 0B4A     		ldr	r2, .L108
 1579 0010 0A4B     		ldr	r3, .L108
 1580 0012 1B78     		ldrb	r3, [r3]
 1581 0014 DBB2     		uxtb	r3, r3
 1582 0016 43F00103 		orr	r3, r3, #1
 1583 001a DBB2     		uxtb	r3, r3
 1584 001c 1370     		strb	r3, [r2]
1404:.\Generated_Source\PSoC5/Beagle.c ****         Beagle_TXDATA_AUX_CTL_REG &= (uint8)~Beagle_TX_FIFO_CLR;
 1585              		.loc 1 1404 0
 1586 001e 074A     		ldr	r2, .L108
 1587 0020 064B     		ldr	r3, .L108
 1588 0022 1B78     		ldrb	r3, [r3]
 1589 0024 DBB2     		uxtb	r3, r3
 1590 0026 23F00103 		bic	r3, r3, #1
 1591 002a DBB2     		uxtb	r3, r3
 1592 002c 1370     		strb	r3, [r2]
1405:.\Generated_Source\PSoC5/Beagle.c ****         /* Exit critical section */
1406:.\Generated_Source\PSoC5/Beagle.c ****         CyExitCriticalSection(enableInterrupts);
 1593              		.loc 1 1406 0
 1594 002e FB79     		ldrb	r3, [r7, #7]	@ zero_extendqisi2
 1595 0030 1846     		mov	r0, r3
 1596 0032 FFF7FEFF 		bl	CyExitCriticalSection
1407:.\Generated_Source\PSoC5/Beagle.c **** 
1408:.\Generated_Source\PSoC5/Beagle.c ****         #if(Beagle_TXBUFFERSIZE > Beagle_FIFO_LENGTH)
1409:.\Generated_Source\PSoC5/Beagle.c **** 
1410:.\Generated_Source\PSoC5/Beagle.c ****             /* Disable Tx interrupt. */
1411:.\Generated_Source\PSoC5/Beagle.c ****             /* Protect variables that could change on interrupt. */
1412:.\Generated_Source\PSoC5/Beagle.c ****             #if(Beagle_TX_INTERRUPT_ENABLED)
1413:.\Generated_Source\PSoC5/Beagle.c ****                 Beagle_DisableTxInt();
1414:.\Generated_Source\PSoC5/Beagle.c ****             #endif /* End Beagle_TX_INTERRUPT_ENABLED */
1415:.\Generated_Source\PSoC5/Beagle.c **** 
1416:.\Generated_Source\PSoC5/Beagle.c ****             Beagle_txBufferRead = 0u;
1417:.\Generated_Source\PSoC5/Beagle.c ****             Beagle_txBufferWrite = 0u;
1418:.\Generated_Source\PSoC5/Beagle.c **** 
1419:.\Generated_Source\PSoC5/Beagle.c ****             /* Enable Tx interrupt. */
1420:.\Generated_Source\PSoC5/Beagle.c ****             #if(Beagle_TX_INTERRUPT_ENABLED)
1421:.\Generated_Source\PSoC5/Beagle.c ****                 Beagle_EnableTxInt();
ARM GAS  C:\Users\Lenovo\AppData\Local\Temp\cceofia7.s 			page 54


1422:.\Generated_Source\PSoC5/Beagle.c ****             #endif /* End Beagle_TX_INTERRUPT_ENABLED */
1423:.\Generated_Source\PSoC5/Beagle.c **** 
1424:.\Generated_Source\PSoC5/Beagle.c ****         #endif /* End Beagle_TXBUFFERSIZE > Beagle_FIFO_LENGTH */
1425:.\Generated_Source\PSoC5/Beagle.c ****     }
 1597              		.loc 1 1425 0
 1598 0036 0837     		adds	r7, r7, #8
 1599              		.cfi_def_cfa_offset 8
 1600 0038 BD46     		mov	sp, r7
 1601              		.cfi_def_cfa_register 13
 1602              		@ sp needed
 1603 003a 80BD     		pop	{r7, pc}
 1604              	.L109:
 1605              		.align	2
 1606              	.L108:
 1607 003c 9B640040 		.word	1073767579
 1608              		.cfi_endproc
 1609              	.LFE26:
 1610              		.size	Beagle_ClearTxBuffer, .-Beagle_ClearTxBuffer
 1611              		.section	.text.Beagle_SendBreak,"ax",%progbits
 1612              		.align	2
 1613              		.global	Beagle_SendBreak
 1614              		.thumb
 1615              		.thumb_func
 1616              		.type	Beagle_SendBreak, %function
 1617              	Beagle_SendBreak:
 1618              	.LFB27:
1426:.\Generated_Source\PSoC5/Beagle.c **** 
1427:.\Generated_Source\PSoC5/Beagle.c **** 
1428:.\Generated_Source\PSoC5/Beagle.c ****     /*******************************************************************************
1429:.\Generated_Source\PSoC5/Beagle.c ****     * Function Name: Beagle_SendBreak
1430:.\Generated_Source\PSoC5/Beagle.c ****     ********************************************************************************
1431:.\Generated_Source\PSoC5/Beagle.c ****     *
1432:.\Generated_Source\PSoC5/Beagle.c ****     * Summary:
1433:.\Generated_Source\PSoC5/Beagle.c ****     *  Write a Break command to the UART
1434:.\Generated_Source\PSoC5/Beagle.c ****     *
1435:.\Generated_Source\PSoC5/Beagle.c ****     * Parameters:
1436:.\Generated_Source\PSoC5/Beagle.c ****     *  uint8 retMode:  Wait mode,
1437:.\Generated_Source\PSoC5/Beagle.c ****     *   0 - Initialize registers for Break, sends the Break signal and return
1438:.\Generated_Source\PSoC5/Beagle.c ****     *       imediately.
1439:.\Generated_Source\PSoC5/Beagle.c ****     *   1 - Wait until Break sending is complete, reinitialize registers to normal
1440:.\Generated_Source\PSoC5/Beagle.c ****     *       transmission mode then return.
1441:.\Generated_Source\PSoC5/Beagle.c ****     *   2 - Reinitialize registers to normal transmission mode then return.
1442:.\Generated_Source\PSoC5/Beagle.c ****     *   3 - both steps: 0 and 1
1443:.\Generated_Source\PSoC5/Beagle.c ****     *       init registers for Break, send Break signal
1444:.\Generated_Source\PSoC5/Beagle.c ****     *       wait until Break sending is complete, reinit registers to normal
1445:.\Generated_Source\PSoC5/Beagle.c ****     *       transmission mode then return.
1446:.\Generated_Source\PSoC5/Beagle.c ****     *
1447:.\Generated_Source\PSoC5/Beagle.c ****     * Return:
1448:.\Generated_Source\PSoC5/Beagle.c ****     *  None.
1449:.\Generated_Source\PSoC5/Beagle.c ****     *
1450:.\Generated_Source\PSoC5/Beagle.c ****     * Global Variables:
1451:.\Generated_Source\PSoC5/Beagle.c ****     *  Beagle_initVar - checked to identify that the component has been
1452:.\Generated_Source\PSoC5/Beagle.c ****     *     initialized.
1453:.\Generated_Source\PSoC5/Beagle.c ****     *  tx_period - static variable, used for keeping TX period configuration.
1454:.\Generated_Source\PSoC5/Beagle.c ****     *
1455:.\Generated_Source\PSoC5/Beagle.c ****     * Reentrant:
1456:.\Generated_Source\PSoC5/Beagle.c ****     *  No.
ARM GAS  C:\Users\Lenovo\AppData\Local\Temp\cceofia7.s 			page 55


1457:.\Generated_Source\PSoC5/Beagle.c ****     *
1458:.\Generated_Source\PSoC5/Beagle.c ****     * Theory:
1459:.\Generated_Source\PSoC5/Beagle.c ****     *  SendBreak function initializes registers to send 13-bit break signal. It is
1460:.\Generated_Source\PSoC5/Beagle.c ****     *  important to return the registers configuration to normal for continue 8-bit
1461:.\Generated_Source\PSoC5/Beagle.c ****     *  operation.
1462:.\Generated_Source\PSoC5/Beagle.c ****     *  Trere are 3 variants for this API usage:
1463:.\Generated_Source\PSoC5/Beagle.c ****     *  1) SendBreak(3) - function will send the Break signal and take care on the
1464:.\Generated_Source\PSoC5/Beagle.c ****     *     configuration returning. Funcition will block CPU untill transmition
1465:.\Generated_Source\PSoC5/Beagle.c ****     *     complete.
1466:.\Generated_Source\PSoC5/Beagle.c ****     *  2) User may want to use bloking time if UART configured to the low speed
1467:.\Generated_Source\PSoC5/Beagle.c ****     *     operation
1468:.\Generated_Source\PSoC5/Beagle.c ****     *     Emample for this case:
1469:.\Generated_Source\PSoC5/Beagle.c ****     *     SendBreak(0);     - init Break signal transmition
1470:.\Generated_Source\PSoC5/Beagle.c ****     *         Add your code here to use CPU time
1471:.\Generated_Source\PSoC5/Beagle.c ****     *     SendBreak(1);     - complete Break operation
1472:.\Generated_Source\PSoC5/Beagle.c ****     *  3) Same to 2) but user may want to init and use the interrupt for complete
1473:.\Generated_Source\PSoC5/Beagle.c ****     *     break operation.
1474:.\Generated_Source\PSoC5/Beagle.c ****     *     Example for this case:
1475:.\Generated_Source\PSoC5/Beagle.c ****     *     Init TX interrupt whith "TX - On TX Complete" parameter
1476:.\Generated_Source\PSoC5/Beagle.c ****     *     SendBreak(0);     - init Break signal transmition
1477:.\Generated_Source\PSoC5/Beagle.c ****     *         Add your code here to use CPU time
1478:.\Generated_Source\PSoC5/Beagle.c ****     *     When interrupt appear with UART_TX_STS_COMPLETE status:
1479:.\Generated_Source\PSoC5/Beagle.c ****     *     SendBreak(2);     - complete Break operation
1480:.\Generated_Source\PSoC5/Beagle.c ****     *
1481:.\Generated_Source\PSoC5/Beagle.c ****     * Side Effects:
1482:.\Generated_Source\PSoC5/Beagle.c ****     *   Uses static variable to keep registers configuration.
1483:.\Generated_Source\PSoC5/Beagle.c ****     *
1484:.\Generated_Source\PSoC5/Beagle.c ****     *******************************************************************************/
1485:.\Generated_Source\PSoC5/Beagle.c ****     void Beagle_SendBreak(uint8 retMode) 
1486:.\Generated_Source\PSoC5/Beagle.c ****     {
 1619              		.loc 1 1486 0
 1620              		.cfi_startproc
 1621              		@ args = 0, pretend = 0, frame = 16
 1622              		@ frame_needed = 1, uses_anonymous_args = 0
 1623              		@ link register save eliminated.
 1624 0000 80B4     		push	{r7}
 1625              		.cfi_def_cfa_offset 4
 1626              		.cfi_offset 7, -4
 1627 0002 85B0     		sub	sp, sp, #20
 1628              		.cfi_def_cfa_offset 24
 1629 0004 00AF     		add	r7, sp, #0
 1630              		.cfi_def_cfa_register 7
 1631 0006 0346     		mov	r3, r0
 1632 0008 FB71     		strb	r3, [r7, #7]
1487:.\Generated_Source\PSoC5/Beagle.c **** 
1488:.\Generated_Source\PSoC5/Beagle.c ****         /* If not Initialized then skip this function*/
1489:.\Generated_Source\PSoC5/Beagle.c ****         if(Beagle_initVar != 0u)
 1633              		.loc 1 1489 0
 1634 000a 1F4B     		ldr	r3, .L118
 1635 000c 1B78     		ldrb	r3, [r3]	@ zero_extendqisi2
 1636 000e 002B     		cmp	r3, #0
 1637 0010 35D0     		beq	.L110
 1638              	.LBB2:
1490:.\Generated_Source\PSoC5/Beagle.c ****         {
1491:.\Generated_Source\PSoC5/Beagle.c ****             /*Set the Counter to 13-bits and transmit a 00 byte*/
1492:.\Generated_Source\PSoC5/Beagle.c ****             /*When that is done then reset the counter value back*/
1493:.\Generated_Source\PSoC5/Beagle.c ****             uint8 tmpStat;
ARM GAS  C:\Users\Lenovo\AppData\Local\Temp\cceofia7.s 			page 56


1494:.\Generated_Source\PSoC5/Beagle.c **** 
1495:.\Generated_Source\PSoC5/Beagle.c ****             #if(Beagle_HD_ENABLED) /* Half Duplex mode*/
1496:.\Generated_Source\PSoC5/Beagle.c **** 
1497:.\Generated_Source\PSoC5/Beagle.c ****                 if( (retMode == Beagle_SEND_BREAK) ||
1498:.\Generated_Source\PSoC5/Beagle.c ****                     (retMode == Beagle_SEND_WAIT_REINIT ) )
1499:.\Generated_Source\PSoC5/Beagle.c ****                 {
1500:.\Generated_Source\PSoC5/Beagle.c ****                     /* CTRL_HD_SEND_BREAK - sends break bits in HD mode*/
1501:.\Generated_Source\PSoC5/Beagle.c ****                     Beagle_WriteControlRegister(Beagle_ReadControlRegister() |
1502:.\Generated_Source\PSoC5/Beagle.c ****                                                           Beagle_CTRL_HD_SEND_BREAK);
1503:.\Generated_Source\PSoC5/Beagle.c ****                     /* Send zeros*/
1504:.\Generated_Source\PSoC5/Beagle.c ****                     Beagle_TXDATA_REG = 0u;
1505:.\Generated_Source\PSoC5/Beagle.c **** 
1506:.\Generated_Source\PSoC5/Beagle.c ****                     do /*wait until transmit starts*/
1507:.\Generated_Source\PSoC5/Beagle.c ****                     {
1508:.\Generated_Source\PSoC5/Beagle.c ****                         tmpStat = Beagle_TXSTATUS_REG;
1509:.\Generated_Source\PSoC5/Beagle.c ****                     }while((tmpStat & Beagle_TX_STS_FIFO_EMPTY) != 0u);
1510:.\Generated_Source\PSoC5/Beagle.c ****                 }
1511:.\Generated_Source\PSoC5/Beagle.c **** 
1512:.\Generated_Source\PSoC5/Beagle.c ****                 if( (retMode == Beagle_WAIT_FOR_COMPLETE_REINIT) ||
1513:.\Generated_Source\PSoC5/Beagle.c ****                     (retMode == Beagle_SEND_WAIT_REINIT) )
1514:.\Generated_Source\PSoC5/Beagle.c ****                 {
1515:.\Generated_Source\PSoC5/Beagle.c ****                     do /*wait until transmit complete*/
1516:.\Generated_Source\PSoC5/Beagle.c ****                     {
1517:.\Generated_Source\PSoC5/Beagle.c ****                         tmpStat = Beagle_TXSTATUS_REG;
1518:.\Generated_Source\PSoC5/Beagle.c ****                     }while(((uint8)~tmpStat & Beagle_TX_STS_COMPLETE) != 0u);
1519:.\Generated_Source\PSoC5/Beagle.c ****                 }
1520:.\Generated_Source\PSoC5/Beagle.c **** 
1521:.\Generated_Source\PSoC5/Beagle.c ****                 if( (retMode == Beagle_WAIT_FOR_COMPLETE_REINIT) ||
1522:.\Generated_Source\PSoC5/Beagle.c ****                     (retMode == Beagle_REINIT) ||
1523:.\Generated_Source\PSoC5/Beagle.c ****                     (retMode == Beagle_SEND_WAIT_REINIT) )
1524:.\Generated_Source\PSoC5/Beagle.c ****                 {
1525:.\Generated_Source\PSoC5/Beagle.c ****                     Beagle_WriteControlRegister(Beagle_ReadControlRegister() &
1526:.\Generated_Source\PSoC5/Beagle.c ****                                                   (uint8)~Beagle_CTRL_HD_SEND_BREAK);
1527:.\Generated_Source\PSoC5/Beagle.c ****                 }
1528:.\Generated_Source\PSoC5/Beagle.c **** 
1529:.\Generated_Source\PSoC5/Beagle.c ****             #else /* Beagle_HD_ENABLED Full Duplex mode */
1530:.\Generated_Source\PSoC5/Beagle.c **** 
1531:.\Generated_Source\PSoC5/Beagle.c ****                 static uint8 tx_period;
1532:.\Generated_Source\PSoC5/Beagle.c **** 
1533:.\Generated_Source\PSoC5/Beagle.c ****                 if( (retMode == Beagle_SEND_BREAK) ||
 1639              		.loc 1 1533 0
 1640 0012 FB79     		ldrb	r3, [r7, #7]	@ zero_extendqisi2
 1641 0014 002B     		cmp	r3, #0
 1642 0016 02D0     		beq	.L112
 1643              		.loc 1 1533 0 is_stmt 0 discriminator 1
 1644 0018 FB79     		ldrb	r3, [r7, #7]	@ zero_extendqisi2
 1645 001a 032B     		cmp	r3, #3
 1646 001c 12D1     		bne	.L113
 1647              	.L112:
1534:.\Generated_Source\PSoC5/Beagle.c ****                     (retMode == Beagle_SEND_WAIT_REINIT) )
1535:.\Generated_Source\PSoC5/Beagle.c ****                 {
1536:.\Generated_Source\PSoC5/Beagle.c ****                     /* CTRL_HD_SEND_BREAK - skip to send parity bit at Break signal in Full Duplex 
1537:.\Generated_Source\PSoC5/Beagle.c ****                     #if( (Beagle_PARITY_TYPE != Beagle__B_UART__NONE_REVB) || \
1538:.\Generated_Source\PSoC5/Beagle.c ****                                         (Beagle_PARITY_TYPE_SW != 0u) )
1539:.\Generated_Source\PSoC5/Beagle.c ****                         Beagle_WriteControlRegister(Beagle_ReadControlRegister() |
1540:.\Generated_Source\PSoC5/Beagle.c ****                                                               Beagle_CTRL_HD_SEND_BREAK);
1541:.\Generated_Source\PSoC5/Beagle.c ****                     #endif /* End Beagle_PARITY_TYPE != Beagle__B_UART__NONE_REVB  */
ARM GAS  C:\Users\Lenovo\AppData\Local\Temp\cceofia7.s 			page 57


1542:.\Generated_Source\PSoC5/Beagle.c **** 
1543:.\Generated_Source\PSoC5/Beagle.c ****                     #if(Beagle_TXCLKGEN_DP)
1544:.\Generated_Source\PSoC5/Beagle.c ****                         tx_period = Beagle_TXBITCLKTX_COMPLETE_REG;
 1648              		.loc 1 1544 0 is_stmt 1
 1649 001e 1B4B     		ldr	r3, .L118+4
 1650 0020 1B78     		ldrb	r3, [r3]
 1651 0022 DAB2     		uxtb	r2, r3
 1652 0024 1A4B     		ldr	r3, .L118+8
 1653 0026 1A70     		strb	r2, [r3]
1545:.\Generated_Source\PSoC5/Beagle.c ****                         Beagle_TXBITCLKTX_COMPLETE_REG = Beagle_TXBITCTR_BREAKBITS;
 1654              		.loc 1 1545 0
 1655 0028 184B     		ldr	r3, .L118+4
 1656 002a 6722     		movs	r2, #103
 1657 002c 1A70     		strb	r2, [r3]
1546:.\Generated_Source\PSoC5/Beagle.c ****                     #else
1547:.\Generated_Source\PSoC5/Beagle.c ****                         tx_period = Beagle_TXBITCTR_PERIOD_REG;
1548:.\Generated_Source\PSoC5/Beagle.c ****                         Beagle_TXBITCTR_PERIOD_REG = Beagle_TXBITCTR_BREAKBITS8X;
1549:.\Generated_Source\PSoC5/Beagle.c ****                     #endif /* End Beagle_TXCLKGEN_DP */
1550:.\Generated_Source\PSoC5/Beagle.c **** 
1551:.\Generated_Source\PSoC5/Beagle.c ****                     /* Send zeros*/
1552:.\Generated_Source\PSoC5/Beagle.c ****                     Beagle_TXDATA_REG = 0u;
 1658              		.loc 1 1552 0
 1659 002e 194B     		ldr	r3, .L118+12
 1660 0030 0022     		movs	r2, #0
 1661 0032 1A70     		strb	r2, [r3]
 1662              	.L114:
1553:.\Generated_Source\PSoC5/Beagle.c **** 
1554:.\Generated_Source\PSoC5/Beagle.c ****                     do /* wait until transmit starts */
1555:.\Generated_Source\PSoC5/Beagle.c ****                     {
1556:.\Generated_Source\PSoC5/Beagle.c ****                         tmpStat = Beagle_TXSTATUS_REG;
 1663              		.loc 1 1556 0 discriminator 1
 1664 0034 184B     		ldr	r3, .L118+16
 1665 0036 1B78     		ldrb	r3, [r3]
 1666 0038 FB73     		strb	r3, [r7, #15]
1557:.\Generated_Source\PSoC5/Beagle.c ****                     }while((tmpStat & Beagle_TX_STS_FIFO_EMPTY) != 0u);
 1667              		.loc 1 1557 0 discriminator 1
 1668 003a FB7B     		ldrb	r3, [r7, #15]	@ zero_extendqisi2
 1669 003c 03F00203 		and	r3, r3, #2
 1670 0040 002B     		cmp	r3, #0
 1671 0042 F7D1     		bne	.L114
 1672              	.L113:
1558:.\Generated_Source\PSoC5/Beagle.c ****                 }
1559:.\Generated_Source\PSoC5/Beagle.c **** 
1560:.\Generated_Source\PSoC5/Beagle.c ****                 if( (retMode == Beagle_WAIT_FOR_COMPLETE_REINIT) ||
 1673              		.loc 1 1560 0
 1674 0044 FB79     		ldrb	r3, [r7, #7]	@ zero_extendqisi2
 1675 0046 012B     		cmp	r3, #1
 1676 0048 02D0     		beq	.L115
 1677              		.loc 1 1560 0 is_stmt 0 discriminator 1
 1678 004a FB79     		ldrb	r3, [r7, #7]	@ zero_extendqisi2
 1679 004c 032B     		cmp	r3, #3
 1680 004e 09D1     		bne	.L116
 1681              	.L115:
1561:.\Generated_Source\PSoC5/Beagle.c ****                     (retMode == Beagle_SEND_WAIT_REINIT) )
1562:.\Generated_Source\PSoC5/Beagle.c ****                 {
1563:.\Generated_Source\PSoC5/Beagle.c ****                     do /*wait until transmit complete*/
1564:.\Generated_Source\PSoC5/Beagle.c ****                     {
ARM GAS  C:\Users\Lenovo\AppData\Local\Temp\cceofia7.s 			page 58


1565:.\Generated_Source\PSoC5/Beagle.c ****                         tmpStat = Beagle_TXSTATUS_REG;
 1682              		.loc 1 1565 0 is_stmt 1 discriminator 1
 1683 0050 114B     		ldr	r3, .L118+16
 1684 0052 1B78     		ldrb	r3, [r3]
 1685 0054 FB73     		strb	r3, [r7, #15]
1566:.\Generated_Source\PSoC5/Beagle.c ****                     }while(((uint8)~tmpStat & Beagle_TX_STS_COMPLETE) != 0u);
 1686              		.loc 1 1566 0 discriminator 1
 1687 0056 FB7B     		ldrb	r3, [r7, #15]
 1688 0058 DB43     		mvns	r3, r3
 1689 005a DBB2     		uxtb	r3, r3
 1690 005c 03F00103 		and	r3, r3, #1
 1691 0060 002B     		cmp	r3, #0
 1692 0062 F5D1     		bne	.L115
 1693              	.L116:
1567:.\Generated_Source\PSoC5/Beagle.c ****                 }
1568:.\Generated_Source\PSoC5/Beagle.c **** 
1569:.\Generated_Source\PSoC5/Beagle.c ****                 if( (retMode == Beagle_WAIT_FOR_COMPLETE_REINIT) ||
 1694              		.loc 1 1569 0
 1695 0064 FB79     		ldrb	r3, [r7, #7]	@ zero_extendqisi2
 1696 0066 012B     		cmp	r3, #1
 1697 0068 05D0     		beq	.L117
 1698              		.loc 1 1569 0 is_stmt 0 discriminator 1
 1699 006a FB79     		ldrb	r3, [r7, #7]	@ zero_extendqisi2
 1700 006c 022B     		cmp	r3, #2
 1701 006e 02D0     		beq	.L117
1570:.\Generated_Source\PSoC5/Beagle.c ****                     (retMode == Beagle_REINIT) ||
 1702              		.loc 1 1570 0 is_stmt 1
 1703 0070 FB79     		ldrb	r3, [r7, #7]	@ zero_extendqisi2
 1704 0072 032B     		cmp	r3, #3
 1705 0074 03D1     		bne	.L110
 1706              	.L117:
1571:.\Generated_Source\PSoC5/Beagle.c ****                     (retMode == Beagle_SEND_WAIT_REINIT) )
1572:.\Generated_Source\PSoC5/Beagle.c ****                 {
1573:.\Generated_Source\PSoC5/Beagle.c **** 
1574:.\Generated_Source\PSoC5/Beagle.c ****                     #if(Beagle_TXCLKGEN_DP)
1575:.\Generated_Source\PSoC5/Beagle.c ****                         Beagle_TXBITCLKTX_COMPLETE_REG = tx_period;
 1707              		.loc 1 1575 0
 1708 0076 054B     		ldr	r3, .L118+4
 1709 0078 054A     		ldr	r2, .L118+8
 1710 007a 1278     		ldrb	r2, [r2]	@ zero_extendqisi2
 1711 007c 1A70     		strb	r2, [r3]
 1712              	.L110:
 1713              	.LBE2:
1576:.\Generated_Source\PSoC5/Beagle.c ****                     #else
1577:.\Generated_Source\PSoC5/Beagle.c ****                         Beagle_TXBITCTR_PERIOD_REG = tx_period;
1578:.\Generated_Source\PSoC5/Beagle.c ****                     #endif /* End Beagle_TXCLKGEN_DP */
1579:.\Generated_Source\PSoC5/Beagle.c **** 
1580:.\Generated_Source\PSoC5/Beagle.c ****                     #if( (Beagle_PARITY_TYPE != Beagle__B_UART__NONE_REVB) || \
1581:.\Generated_Source\PSoC5/Beagle.c ****                          (Beagle_PARITY_TYPE_SW != 0u) )
1582:.\Generated_Source\PSoC5/Beagle.c ****                         Beagle_WriteControlRegister(Beagle_ReadControlRegister() &
1583:.\Generated_Source\PSoC5/Beagle.c ****                                                       (uint8)~Beagle_CTRL_HD_SEND_BREAK);
1584:.\Generated_Source\PSoC5/Beagle.c ****                     #endif /* End Beagle_PARITY_TYPE != NONE */
1585:.\Generated_Source\PSoC5/Beagle.c ****                 }
1586:.\Generated_Source\PSoC5/Beagle.c ****             #endif    /* End Beagle_HD_ENABLED */
1587:.\Generated_Source\PSoC5/Beagle.c ****         }
1588:.\Generated_Source\PSoC5/Beagle.c ****     }
 1714              		.loc 1 1588 0
ARM GAS  C:\Users\Lenovo\AppData\Local\Temp\cceofia7.s 			page 59


 1715 007e 1437     		adds	r7, r7, #20
 1716              		.cfi_def_cfa_offset 4
 1717 0080 BD46     		mov	sp, r7
 1718              		.cfi_def_cfa_register 13
 1719              		@ sp needed
 1720 0082 5DF8047B 		ldr	r7, [sp], #4
 1721              		.cfi_restore 7
 1722              		.cfi_def_cfa_offset 0
 1723 0086 7047     		bx	lr
 1724              	.L119:
 1725              		.align	2
 1726              	.L118:
 1727 0088 00000000 		.word	Beagle_initVar
 1728 008c 38650040 		.word	1073767736
 1729 0090 08000000 		.word	tx_period.5012
 1730 0094 4B640040 		.word	1073767499
 1731 0098 6B640040 		.word	1073767531
 1732              		.cfi_endproc
 1733              	.LFE27:
 1734              		.size	Beagle_SendBreak, .-Beagle_SendBreak
 1735              		.section	.text.Beagle_SetTxAddressMode,"ax",%progbits
 1736              		.align	2
 1737              		.global	Beagle_SetTxAddressMode
 1738              		.thumb
 1739              		.thumb_func
 1740              		.type	Beagle_SetTxAddressMode, %function
 1741              	Beagle_SetTxAddressMode:
 1742              	.LFB28:
1589:.\Generated_Source\PSoC5/Beagle.c **** 
1590:.\Generated_Source\PSoC5/Beagle.c **** 
1591:.\Generated_Source\PSoC5/Beagle.c ****     /*******************************************************************************
1592:.\Generated_Source\PSoC5/Beagle.c ****     * Function Name: Beagle_SetTxAddressMode
1593:.\Generated_Source\PSoC5/Beagle.c ****     ********************************************************************************
1594:.\Generated_Source\PSoC5/Beagle.c ****     *
1595:.\Generated_Source\PSoC5/Beagle.c ****     * Summary:
1596:.\Generated_Source\PSoC5/Beagle.c ****     *  Set the transmit addressing mode
1597:.\Generated_Source\PSoC5/Beagle.c ****     *
1598:.\Generated_Source\PSoC5/Beagle.c ****     * Parameters:
1599:.\Generated_Source\PSoC5/Beagle.c ****     *  addressMode: 0 -> Space
1600:.\Generated_Source\PSoC5/Beagle.c ****     *               1 -> Mark
1601:.\Generated_Source\PSoC5/Beagle.c ****     *
1602:.\Generated_Source\PSoC5/Beagle.c ****     * Return:
1603:.\Generated_Source\PSoC5/Beagle.c ****     *  None.
1604:.\Generated_Source\PSoC5/Beagle.c ****     *
1605:.\Generated_Source\PSoC5/Beagle.c ****     *******************************************************************************/
1606:.\Generated_Source\PSoC5/Beagle.c ****     void Beagle_SetTxAddressMode(uint8 addressMode) 
1607:.\Generated_Source\PSoC5/Beagle.c ****     {
 1743              		.loc 1 1607 0
 1744              		.cfi_startproc
 1745              		@ args = 0, pretend = 0, frame = 8
 1746              		@ frame_needed = 1, uses_anonymous_args = 0
 1747              		@ link register save eliminated.
 1748 0000 80B4     		push	{r7}
 1749              		.cfi_def_cfa_offset 4
 1750              		.cfi_offset 7, -4
 1751 0002 83B0     		sub	sp, sp, #12
 1752              		.cfi_def_cfa_offset 16
ARM GAS  C:\Users\Lenovo\AppData\Local\Temp\cceofia7.s 			page 60


 1753 0004 00AF     		add	r7, sp, #0
 1754              		.cfi_def_cfa_register 7
 1755 0006 0346     		mov	r3, r0
 1756 0008 FB71     		strb	r3, [r7, #7]
1608:.\Generated_Source\PSoC5/Beagle.c ****         /* Mark/Space sending enable*/
1609:.\Generated_Source\PSoC5/Beagle.c ****         if(addressMode != 0u)
1610:.\Generated_Source\PSoC5/Beagle.c ****         {
1611:.\Generated_Source\PSoC5/Beagle.c ****             #if( Beagle_CONTROL_REG_REMOVED == 0u )
1612:.\Generated_Source\PSoC5/Beagle.c ****                 Beagle_WriteControlRegister(Beagle_ReadControlRegister() |
1613:.\Generated_Source\PSoC5/Beagle.c ****                                                       Beagle_CTRL_MARK);
1614:.\Generated_Source\PSoC5/Beagle.c ****             #endif /* End Beagle_CONTROL_REG_REMOVED == 0u */
1615:.\Generated_Source\PSoC5/Beagle.c ****         }
1616:.\Generated_Source\PSoC5/Beagle.c ****         else
1617:.\Generated_Source\PSoC5/Beagle.c ****         {
1618:.\Generated_Source\PSoC5/Beagle.c ****             #if( Beagle_CONTROL_REG_REMOVED == 0u )
1619:.\Generated_Source\PSoC5/Beagle.c ****                 Beagle_WriteControlRegister(Beagle_ReadControlRegister() &
1620:.\Generated_Source\PSoC5/Beagle.c ****                                                     (uint8)~Beagle_CTRL_MARK);
1621:.\Generated_Source\PSoC5/Beagle.c ****             #endif /* End Beagle_CONTROL_REG_REMOVED == 0u */
1622:.\Generated_Source\PSoC5/Beagle.c ****         }
1623:.\Generated_Source\PSoC5/Beagle.c ****     }
 1757              		.loc 1 1623 0
 1758 000a 0C37     		adds	r7, r7, #12
 1759              		.cfi_def_cfa_offset 4
 1760 000c BD46     		mov	sp, r7
 1761              		.cfi_def_cfa_register 13
 1762              		@ sp needed
 1763 000e 5DF8047B 		ldr	r7, [sp], #4
 1764              		.cfi_restore 7
 1765              		.cfi_def_cfa_offset 0
 1766 0012 7047     		bx	lr
 1767              		.cfi_endproc
 1768              	.LFE28:
 1769              		.size	Beagle_SetTxAddressMode, .-Beagle_SetTxAddressMode
 1770              		.bss
 1771              	tx_period.5012:
 1772 0008 00       		.space	1
 1773 0009 00       		.text
 1774              	.Letext0:
 1775              		.file 2 ".\\Generated_Source\\PSoC5\\cytypes.h"