ARM GAS  C:\Users\Lenovo\AppData\Local\Temp\ccp7JJIV.s 			page 1


   1              		.syntax unified
   2              		.cpu cortex-m3
   3              		.fpu softvfp
   4              		.eabi_attribute 20, 1
   5              		.eabi_attribute 21, 1
   6              		.eabi_attribute 23, 3
   7              		.eabi_attribute 24, 1
   8              		.eabi_attribute 25, 1
   9              		.eabi_attribute 26, 1
  10              		.eabi_attribute 30, 6
  11              		.eabi_attribute 34, 1
  12              		.eabi_attribute 18, 4
  13              		.thumb
  14              		.file	"Code_Bar.c"
  15              		.text
  16              	.Ltext0:
  17              		.cfi_sections	.debug_frame
  18              		.global	Code_Bar_initVar
  19              		.bss
  20              		.type	Code_Bar_initVar, %object
  21              		.size	Code_Bar_initVar, 1
  22              	Code_Bar_initVar:
  23 0000 00       		.space	1
  24              		.comm	Code_Bar_rxBuffer,256,4
  25              		.global	Code_Bar_rxBufferRead
  26 0001 00       		.align	1
  27              		.type	Code_Bar_rxBufferRead, %object
  28              		.size	Code_Bar_rxBufferRead, 2
  29              	Code_Bar_rxBufferRead:
  30 0002 0000     		.space	2
  31              		.global	Code_Bar_rxBufferWrite
  32              		.align	1
  33              		.type	Code_Bar_rxBufferWrite, %object
  34              		.size	Code_Bar_rxBufferWrite, 2
  35              	Code_Bar_rxBufferWrite:
  36 0004 0000     		.space	2
  37              		.global	Code_Bar_rxBufferLoopDetect
  38              		.type	Code_Bar_rxBufferLoopDetect, %object
  39              		.size	Code_Bar_rxBufferLoopDetect, 1
  40              	Code_Bar_rxBufferLoopDetect:
  41 0006 00       		.space	1
  42              		.global	Code_Bar_rxBufferOverflow
  43              		.type	Code_Bar_rxBufferOverflow, %object
  44              		.size	Code_Bar_rxBufferOverflow, 1
  45              	Code_Bar_rxBufferOverflow:
  46 0007 00       		.space	1
  47              		.section	.text.Code_Bar_Start,"ax",%progbits
  48              		.align	2
  49              		.global	Code_Bar_Start
  50              		.thumb
  51              		.thumb_func
  52              		.type	Code_Bar_Start, %function
  53              	Code_Bar_Start:
  54              	.LFB0:
  55              		.file 1 ".\\Generated_Source\\PSoC5\\Code_Bar.c"
   1:.\Generated_Source\PSoC5/Code_Bar.c **** /*******************************************************************************
   2:.\Generated_Source\PSoC5/Code_Bar.c **** * File Name: Code_Bar.c
ARM GAS  C:\Users\Lenovo\AppData\Local\Temp\ccp7JJIV.s 			page 2


   3:.\Generated_Source\PSoC5/Code_Bar.c **** * Version 2.30
   4:.\Generated_Source\PSoC5/Code_Bar.c **** *
   5:.\Generated_Source\PSoC5/Code_Bar.c **** * Description:
   6:.\Generated_Source\PSoC5/Code_Bar.c **** *  This file provides all API functionality of the UART component
   7:.\Generated_Source\PSoC5/Code_Bar.c **** *
   8:.\Generated_Source\PSoC5/Code_Bar.c **** * Note:
   9:.\Generated_Source\PSoC5/Code_Bar.c **** *
  10:.\Generated_Source\PSoC5/Code_Bar.c **** ********************************************************************************
  11:.\Generated_Source\PSoC5/Code_Bar.c **** * Copyright 2008-2012, Cypress Semiconductor Corporation.  All rights reserved.
  12:.\Generated_Source\PSoC5/Code_Bar.c **** * You may use this file only in accordance with the license, terms, conditions,
  13:.\Generated_Source\PSoC5/Code_Bar.c **** * disclaimers, and limitations in the end user license agreement accompanying
  14:.\Generated_Source\PSoC5/Code_Bar.c **** * the software package with which this file was provided.
  15:.\Generated_Source\PSoC5/Code_Bar.c **** *******************************************************************************/
  16:.\Generated_Source\PSoC5/Code_Bar.c **** 
  17:.\Generated_Source\PSoC5/Code_Bar.c **** #include "Code_Bar.h"
  18:.\Generated_Source\PSoC5/Code_Bar.c **** #include "CyLib.h"
  19:.\Generated_Source\PSoC5/Code_Bar.c **** #if(Code_Bar_INTERNAL_CLOCK_USED)
  20:.\Generated_Source\PSoC5/Code_Bar.c ****     #include "Code_Bar_IntClock.h"
  21:.\Generated_Source\PSoC5/Code_Bar.c **** #endif /* End Code_Bar_INTERNAL_CLOCK_USED */
  22:.\Generated_Source\PSoC5/Code_Bar.c **** 
  23:.\Generated_Source\PSoC5/Code_Bar.c **** 
  24:.\Generated_Source\PSoC5/Code_Bar.c **** /***************************************
  25:.\Generated_Source\PSoC5/Code_Bar.c **** * Global data allocation
  26:.\Generated_Source\PSoC5/Code_Bar.c **** ***************************************/
  27:.\Generated_Source\PSoC5/Code_Bar.c **** 
  28:.\Generated_Source\PSoC5/Code_Bar.c **** uint8 Code_Bar_initVar = 0u;
  29:.\Generated_Source\PSoC5/Code_Bar.c **** #if( Code_Bar_TX_ENABLED && (Code_Bar_TXBUFFERSIZE > Code_Bar_FIFO_LENGTH))
  30:.\Generated_Source\PSoC5/Code_Bar.c ****     volatile uint8 Code_Bar_txBuffer[Code_Bar_TXBUFFERSIZE];
  31:.\Generated_Source\PSoC5/Code_Bar.c ****     volatile uint8 Code_Bar_txBufferRead = 0u;
  32:.\Generated_Source\PSoC5/Code_Bar.c ****     uint8 Code_Bar_txBufferWrite = 0u;
  33:.\Generated_Source\PSoC5/Code_Bar.c **** #endif /* End Code_Bar_TX_ENABLED */
  34:.\Generated_Source\PSoC5/Code_Bar.c **** #if( ( Code_Bar_RX_ENABLED || Code_Bar_HD_ENABLED ) && \
  35:.\Generated_Source\PSoC5/Code_Bar.c ****      (Code_Bar_RXBUFFERSIZE > Code_Bar_FIFO_LENGTH) )
  36:.\Generated_Source\PSoC5/Code_Bar.c ****     volatile uint8 Code_Bar_rxBuffer[Code_Bar_RXBUFFERSIZE];
  37:.\Generated_Source\PSoC5/Code_Bar.c ****     volatile uint16 Code_Bar_rxBufferRead = 0u;
  38:.\Generated_Source\PSoC5/Code_Bar.c ****     volatile uint16 Code_Bar_rxBufferWrite = 0u;
  39:.\Generated_Source\PSoC5/Code_Bar.c ****     volatile uint8 Code_Bar_rxBufferLoopDetect = 0u;
  40:.\Generated_Source\PSoC5/Code_Bar.c ****     volatile uint8 Code_Bar_rxBufferOverflow = 0u;
  41:.\Generated_Source\PSoC5/Code_Bar.c ****     #if (Code_Bar_RXHW_ADDRESS_ENABLED)
  42:.\Generated_Source\PSoC5/Code_Bar.c ****         volatile uint8 Code_Bar_rxAddressMode = Code_Bar_RXADDRESSMODE;
  43:.\Generated_Source\PSoC5/Code_Bar.c ****         volatile uint8 Code_Bar_rxAddressDetected = 0u;
  44:.\Generated_Source\PSoC5/Code_Bar.c ****     #endif /* End EnableHWAddress */
  45:.\Generated_Source\PSoC5/Code_Bar.c **** #endif /* End Code_Bar_RX_ENABLED */
  46:.\Generated_Source\PSoC5/Code_Bar.c **** 
  47:.\Generated_Source\PSoC5/Code_Bar.c **** 
  48:.\Generated_Source\PSoC5/Code_Bar.c **** /*******************************************************************************
  49:.\Generated_Source\PSoC5/Code_Bar.c **** * Function Name: Code_Bar_Start
  50:.\Generated_Source\PSoC5/Code_Bar.c **** ********************************************************************************
  51:.\Generated_Source\PSoC5/Code_Bar.c **** *
  52:.\Generated_Source\PSoC5/Code_Bar.c **** * Summary:
  53:.\Generated_Source\PSoC5/Code_Bar.c **** *  Initialize and Enable the UART component.
  54:.\Generated_Source\PSoC5/Code_Bar.c **** *  Enable the clock input to enable operation.
  55:.\Generated_Source\PSoC5/Code_Bar.c **** *
  56:.\Generated_Source\PSoC5/Code_Bar.c **** * Parameters:
  57:.\Generated_Source\PSoC5/Code_Bar.c **** *  None.
  58:.\Generated_Source\PSoC5/Code_Bar.c **** *
  59:.\Generated_Source\PSoC5/Code_Bar.c **** * Return:
ARM GAS  C:\Users\Lenovo\AppData\Local\Temp\ccp7JJIV.s 			page 3


  60:.\Generated_Source\PSoC5/Code_Bar.c **** *  None.
  61:.\Generated_Source\PSoC5/Code_Bar.c **** *
  62:.\Generated_Source\PSoC5/Code_Bar.c **** * Global variables:
  63:.\Generated_Source\PSoC5/Code_Bar.c **** *  The Code_Bar_intiVar variable is used to indicate initial
  64:.\Generated_Source\PSoC5/Code_Bar.c **** *  configuration of this component. The variable is initialized to zero (0u)
  65:.\Generated_Source\PSoC5/Code_Bar.c **** *  and set to one (1u) the first time UART_Start() is called. This allows for
  66:.\Generated_Source\PSoC5/Code_Bar.c **** *  component initialization without re-initialization in all subsequent calls
  67:.\Generated_Source\PSoC5/Code_Bar.c **** *  to the Code_Bar_Start() routine.
  68:.\Generated_Source\PSoC5/Code_Bar.c **** *
  69:.\Generated_Source\PSoC5/Code_Bar.c **** * Reentrant:
  70:.\Generated_Source\PSoC5/Code_Bar.c **** *  No.
  71:.\Generated_Source\PSoC5/Code_Bar.c **** *
  72:.\Generated_Source\PSoC5/Code_Bar.c **** *******************************************************************************/
  73:.\Generated_Source\PSoC5/Code_Bar.c **** void Code_Bar_Start(void) 
  74:.\Generated_Source\PSoC5/Code_Bar.c **** {
  56              		.loc 1 74 0
  57              		.cfi_startproc
  58              		@ args = 0, pretend = 0, frame = 0
  59              		@ frame_needed = 1, uses_anonymous_args = 0
  60 0000 80B5     		push	{r7, lr}
  61              		.cfi_def_cfa_offset 8
  62              		.cfi_offset 7, -8
  63              		.cfi_offset 14, -4
  64 0002 00AF     		add	r7, sp, #0
  65              		.cfi_def_cfa_register 7
  75:.\Generated_Source\PSoC5/Code_Bar.c ****     /* If not Initialized then initialize all required hardware and software */
  76:.\Generated_Source\PSoC5/Code_Bar.c ****     if(Code_Bar_initVar == 0u)
  66              		.loc 1 76 0
  67 0004 054B     		ldr	r3, .L3
  68 0006 1B78     		ldrb	r3, [r3]	@ zero_extendqisi2
  69 0008 002B     		cmp	r3, #0
  70 000a 04D1     		bne	.L2
  77:.\Generated_Source\PSoC5/Code_Bar.c ****     {
  78:.\Generated_Source\PSoC5/Code_Bar.c ****         Code_Bar_Init();
  71              		.loc 1 78 0
  72 000c FFF7FEFF 		bl	Code_Bar_Init
  79:.\Generated_Source\PSoC5/Code_Bar.c ****         Code_Bar_initVar = 1u;
  73              		.loc 1 79 0
  74 0010 024B     		ldr	r3, .L3
  75 0012 0122     		movs	r2, #1
  76 0014 1A70     		strb	r2, [r3]
  77              	.L2:
  80:.\Generated_Source\PSoC5/Code_Bar.c ****     }
  81:.\Generated_Source\PSoC5/Code_Bar.c ****     Code_Bar_Enable();
  78              		.loc 1 81 0
  79 0016 FFF7FEFF 		bl	Code_Bar_Enable
  82:.\Generated_Source\PSoC5/Code_Bar.c **** }
  80              		.loc 1 82 0
  81 001a 80BD     		pop	{r7, pc}
  82              	.L4:
  83              		.align	2
  84              	.L3:
  85 001c 00000000 		.word	Code_Bar_initVar
  86              		.cfi_endproc
  87              	.LFE0:
  88              		.size	Code_Bar_Start, .-Code_Bar_Start
  89              		.section	.text.Code_Bar_Init,"ax",%progbits
ARM GAS  C:\Users\Lenovo\AppData\Local\Temp\ccp7JJIV.s 			page 4


  90              		.align	2
  91              		.global	Code_Bar_Init
  92              		.thumb
  93              		.thumb_func
  94              		.type	Code_Bar_Init, %function
  95              	Code_Bar_Init:
  96              	.LFB1:
  83:.\Generated_Source\PSoC5/Code_Bar.c **** 
  84:.\Generated_Source\PSoC5/Code_Bar.c **** 
  85:.\Generated_Source\PSoC5/Code_Bar.c **** /*******************************************************************************
  86:.\Generated_Source\PSoC5/Code_Bar.c **** * Function Name: Code_Bar_Init
  87:.\Generated_Source\PSoC5/Code_Bar.c **** ********************************************************************************
  88:.\Generated_Source\PSoC5/Code_Bar.c **** *
  89:.\Generated_Source\PSoC5/Code_Bar.c **** * Summary:
  90:.\Generated_Source\PSoC5/Code_Bar.c **** *  Initialize component's parameters to the parameters set by user in the
  91:.\Generated_Source\PSoC5/Code_Bar.c **** *  customizer of the component placed onto schematic. Usually called in
  92:.\Generated_Source\PSoC5/Code_Bar.c **** *  Code_Bar_Start().
  93:.\Generated_Source\PSoC5/Code_Bar.c **** *
  94:.\Generated_Source\PSoC5/Code_Bar.c **** * Parameters:
  95:.\Generated_Source\PSoC5/Code_Bar.c **** *  None.
  96:.\Generated_Source\PSoC5/Code_Bar.c **** *
  97:.\Generated_Source\PSoC5/Code_Bar.c **** * Return:
  98:.\Generated_Source\PSoC5/Code_Bar.c **** *  None.
  99:.\Generated_Source\PSoC5/Code_Bar.c **** *
 100:.\Generated_Source\PSoC5/Code_Bar.c **** *******************************************************************************/
 101:.\Generated_Source\PSoC5/Code_Bar.c **** void Code_Bar_Init(void) 
 102:.\Generated_Source\PSoC5/Code_Bar.c **** {
  97              		.loc 1 102 0
  98              		.cfi_startproc
  99              		@ args = 0, pretend = 0, frame = 0
 100              		@ frame_needed = 1, uses_anonymous_args = 0
 101 0000 80B5     		push	{r7, lr}
 102              		.cfi_def_cfa_offset 8
 103              		.cfi_offset 7, -8
 104              		.cfi_offset 14, -4
 105 0002 00AF     		add	r7, sp, #0
 106              		.cfi_def_cfa_register 7
 103:.\Generated_Source\PSoC5/Code_Bar.c ****     #if(Code_Bar_RX_ENABLED || Code_Bar_HD_ENABLED)
 104:.\Generated_Source\PSoC5/Code_Bar.c **** 
 105:.\Generated_Source\PSoC5/Code_Bar.c ****         #if(Code_Bar_RX_INTERRUPT_ENABLED && (Code_Bar_RXBUFFERSIZE > Code_Bar_FIFO_LENGTH))
 106:.\Generated_Source\PSoC5/Code_Bar.c ****             /* Set the RX Interrupt. */
 107:.\Generated_Source\PSoC5/Code_Bar.c ****             (void)CyIntSetVector(Code_Bar_RX_VECT_NUM, &Code_Bar_RXISR);
 107              		.loc 1 107 0
 108 0004 0120     		movs	r0, #1
 109 0006 0B49     		ldr	r1, .L6
 110 0008 FFF7FEFF 		bl	CyIntSetVector
 108:.\Generated_Source\PSoC5/Code_Bar.c ****             CyIntSetPriority(Code_Bar_RX_VECT_NUM, Code_Bar_RX_PRIOR_NUM);
 111              		.loc 1 108 0
 112 000c 0120     		movs	r0, #1
 113 000e 0721     		movs	r1, #7
 114 0010 FFF7FEFF 		bl	CyIntSetPriority
 109:.\Generated_Source\PSoC5/Code_Bar.c ****         #endif /* End Code_Bar_RX_INTERRUPT_ENABLED */
 110:.\Generated_Source\PSoC5/Code_Bar.c **** 
 111:.\Generated_Source\PSoC5/Code_Bar.c ****         #if (Code_Bar_RXHW_ADDRESS_ENABLED)
 112:.\Generated_Source\PSoC5/Code_Bar.c ****             Code_Bar_SetRxAddressMode(Code_Bar_RXAddressMode);
 113:.\Generated_Source\PSoC5/Code_Bar.c ****             Code_Bar_SetRxAddress1(Code_Bar_RXHWADDRESS1);
 114:.\Generated_Source\PSoC5/Code_Bar.c ****             Code_Bar_SetRxAddress2(Code_Bar_RXHWADDRESS2);
ARM GAS  C:\Users\Lenovo\AppData\Local\Temp\ccp7JJIV.s 			page 5


 115:.\Generated_Source\PSoC5/Code_Bar.c ****         #endif /* End Code_Bar_RXHW_ADDRESS_ENABLED */
 116:.\Generated_Source\PSoC5/Code_Bar.c **** 
 117:.\Generated_Source\PSoC5/Code_Bar.c ****         /* Init Count7 period */
 118:.\Generated_Source\PSoC5/Code_Bar.c ****         Code_Bar_RXBITCTR_PERIOD_REG = Code_Bar_RXBITCTR_INIT;
 115              		.loc 1 118 0
 116 0014 084B     		ldr	r3, .L6+4
 117 0016 7222     		movs	r2, #114
 118 0018 1A70     		strb	r2, [r3]
 119:.\Generated_Source\PSoC5/Code_Bar.c ****         /* Configure the Initial RX interrupt mask */
 120:.\Generated_Source\PSoC5/Code_Bar.c ****         Code_Bar_RXSTATUS_MASK_REG  = Code_Bar_INIT_RX_INTERRUPTS_MASK;
 119              		.loc 1 120 0
 120 001a 084B     		ldr	r3, .L6+8
 121 001c 2022     		movs	r2, #32
 122 001e 1A70     		strb	r2, [r3]
 121:.\Generated_Source\PSoC5/Code_Bar.c ****     #endif /* End Code_Bar_RX_ENABLED || Code_Bar_HD_ENABLED*/
 122:.\Generated_Source\PSoC5/Code_Bar.c **** 
 123:.\Generated_Source\PSoC5/Code_Bar.c ****     #if(Code_Bar_TX_ENABLED)
 124:.\Generated_Source\PSoC5/Code_Bar.c ****         #if(Code_Bar_TX_INTERRUPT_ENABLED && (Code_Bar_TXBUFFERSIZE > Code_Bar_FIFO_LENGTH))
 125:.\Generated_Source\PSoC5/Code_Bar.c ****             /* Set the TX Interrupt. */
 126:.\Generated_Source\PSoC5/Code_Bar.c ****             (void)CyIntSetVector(Code_Bar_TX_VECT_NUM, &Code_Bar_TXISR);
 127:.\Generated_Source\PSoC5/Code_Bar.c ****             CyIntSetPriority(Code_Bar_TX_VECT_NUM, Code_Bar_TX_PRIOR_NUM);
 128:.\Generated_Source\PSoC5/Code_Bar.c ****         #endif /* End Code_Bar_TX_INTERRUPT_ENABLED */
 129:.\Generated_Source\PSoC5/Code_Bar.c **** 
 130:.\Generated_Source\PSoC5/Code_Bar.c ****         /* Write Counter Value for TX Bit Clk Generator*/
 131:.\Generated_Source\PSoC5/Code_Bar.c ****         #if(Code_Bar_TXCLKGEN_DP)
 132:.\Generated_Source\PSoC5/Code_Bar.c ****             Code_Bar_TXBITCLKGEN_CTR_REG = Code_Bar_BIT_CENTER;
 123              		.loc 1 132 0
 124 0020 074B     		ldr	r3, .L6+12
 125 0022 0722     		movs	r2, #7
 126 0024 1A70     		strb	r2, [r3]
 133:.\Generated_Source\PSoC5/Code_Bar.c ****             Code_Bar_TXBITCLKTX_COMPLETE_REG = (Code_Bar_NUMBER_OF_DATA_BITS +
 127              		.loc 1 133 0
 128 0026 074B     		ldr	r3, .L6+16
 129 0028 4822     		movs	r2, #72
 130 002a 1A70     		strb	r2, [r3]
 134:.\Generated_Source\PSoC5/Code_Bar.c ****                         Code_Bar_NUMBER_OF_START_BIT) * Code_Bar_OVER_SAMPLE_COUNT;
 135:.\Generated_Source\PSoC5/Code_Bar.c ****         #else
 136:.\Generated_Source\PSoC5/Code_Bar.c ****             Code_Bar_TXBITCTR_PERIOD_REG = ((Code_Bar_NUMBER_OF_DATA_BITS +
 137:.\Generated_Source\PSoC5/Code_Bar.c ****                         Code_Bar_NUMBER_OF_START_BIT) * Code_Bar_OVER_SAMPLE_8) - 1u;
 138:.\Generated_Source\PSoC5/Code_Bar.c ****         #endif /* End Code_Bar_TXCLKGEN_DP */
 139:.\Generated_Source\PSoC5/Code_Bar.c **** 
 140:.\Generated_Source\PSoC5/Code_Bar.c ****         /* Configure the Initial TX interrupt mask */
 141:.\Generated_Source\PSoC5/Code_Bar.c ****         #if(Code_Bar_TX_INTERRUPT_ENABLED && (Code_Bar_TXBUFFERSIZE > Code_Bar_FIFO_LENGTH))
 142:.\Generated_Source\PSoC5/Code_Bar.c ****             Code_Bar_TXSTATUS_MASK_REG = Code_Bar_TX_STS_FIFO_EMPTY;
 143:.\Generated_Source\PSoC5/Code_Bar.c ****         #else
 144:.\Generated_Source\PSoC5/Code_Bar.c ****             Code_Bar_TXSTATUS_MASK_REG = Code_Bar_INIT_TX_INTERRUPTS_MASK;
 131              		.loc 1 144 0
 132 002c 064B     		ldr	r3, .L6+20
 133 002e 0022     		movs	r2, #0
 134 0030 1A70     		strb	r2, [r3]
 145:.\Generated_Source\PSoC5/Code_Bar.c ****         #endif /*End Code_Bar_TX_INTERRUPT_ENABLED*/
 146:.\Generated_Source\PSoC5/Code_Bar.c **** 
 147:.\Generated_Source\PSoC5/Code_Bar.c ****     #endif /* End Code_Bar_TX_ENABLED */
 148:.\Generated_Source\PSoC5/Code_Bar.c **** 
 149:.\Generated_Source\PSoC5/Code_Bar.c ****     #if(Code_Bar_PARITY_TYPE_SW)  /* Write Parity to Control Register */
 150:.\Generated_Source\PSoC5/Code_Bar.c ****         Code_Bar_WriteControlRegister( \
 151:.\Generated_Source\PSoC5/Code_Bar.c ****             (Code_Bar_ReadControlRegister() & (uint8)~Code_Bar_CTRL_PARITY_TYPE_MASK) | \
ARM GAS  C:\Users\Lenovo\AppData\Local\Temp\ccp7JJIV.s 			page 6


 152:.\Generated_Source\PSoC5/Code_Bar.c ****             (uint8)(Code_Bar_PARITY_TYPE << Code_Bar_CTRL_PARITY_TYPE0_SHIFT) );
 153:.\Generated_Source\PSoC5/Code_Bar.c ****     #endif /* End Code_Bar_PARITY_TYPE_SW */
 154:.\Generated_Source\PSoC5/Code_Bar.c **** }
 135              		.loc 1 154 0
 136 0032 80BD     		pop	{r7, pc}
 137              	.L7:
 138              		.align	2
 139              	.L6:
 140 0034 00000000 		.word	Code_Bar_RXISR
 141 0038 80640040 		.word	1073767552
 142 003c 86640040 		.word	1073767558
 143 0040 29650040 		.word	1073767721
 144 0044 39650040 		.word	1073767737
 145 0048 8A640040 		.word	1073767562
 146              		.cfi_endproc
 147              	.LFE1:
 148              		.size	Code_Bar_Init, .-Code_Bar_Init
 149              		.section	.text.Code_Bar_Enable,"ax",%progbits
 150              		.align	2
 151              		.global	Code_Bar_Enable
 152              		.thumb
 153              		.thumb_func
 154              		.type	Code_Bar_Enable, %function
 155              	Code_Bar_Enable:
 156              	.LFB2:
 155:.\Generated_Source\PSoC5/Code_Bar.c **** 
 156:.\Generated_Source\PSoC5/Code_Bar.c **** 
 157:.\Generated_Source\PSoC5/Code_Bar.c **** /*******************************************************************************
 158:.\Generated_Source\PSoC5/Code_Bar.c **** * Function Name: Code_Bar_Enable
 159:.\Generated_Source\PSoC5/Code_Bar.c **** ********************************************************************************
 160:.\Generated_Source\PSoC5/Code_Bar.c **** *
 161:.\Generated_Source\PSoC5/Code_Bar.c **** * Summary:
 162:.\Generated_Source\PSoC5/Code_Bar.c **** *  Enables the UART block operation
 163:.\Generated_Source\PSoC5/Code_Bar.c **** *
 164:.\Generated_Source\PSoC5/Code_Bar.c **** * Parameters:
 165:.\Generated_Source\PSoC5/Code_Bar.c **** *  None.
 166:.\Generated_Source\PSoC5/Code_Bar.c **** *
 167:.\Generated_Source\PSoC5/Code_Bar.c **** * Return:
 168:.\Generated_Source\PSoC5/Code_Bar.c **** *  None.
 169:.\Generated_Source\PSoC5/Code_Bar.c **** *
 170:.\Generated_Source\PSoC5/Code_Bar.c **** * Global Variables:
 171:.\Generated_Source\PSoC5/Code_Bar.c **** *  Code_Bar_rxAddressDetected - set to initial state (0).
 172:.\Generated_Source\PSoC5/Code_Bar.c **** *
 173:.\Generated_Source\PSoC5/Code_Bar.c **** *******************************************************************************/
 174:.\Generated_Source\PSoC5/Code_Bar.c **** void Code_Bar_Enable(void) 
 175:.\Generated_Source\PSoC5/Code_Bar.c **** {
 157              		.loc 1 175 0
 158              		.cfi_startproc
 159              		@ args = 0, pretend = 0, frame = 8
 160              		@ frame_needed = 1, uses_anonymous_args = 0
 161 0000 80B5     		push	{r7, lr}
 162              		.cfi_def_cfa_offset 8
 163              		.cfi_offset 7, -8
 164              		.cfi_offset 14, -4
 165 0002 82B0     		sub	sp, sp, #8
 166              		.cfi_def_cfa_offset 16
 167 0004 00AF     		add	r7, sp, #0
ARM GAS  C:\Users\Lenovo\AppData\Local\Temp\ccp7JJIV.s 			page 7


 168              		.cfi_def_cfa_register 7
 176:.\Generated_Source\PSoC5/Code_Bar.c ****     uint8 enableInterrupts;
 177:.\Generated_Source\PSoC5/Code_Bar.c ****     enableInterrupts = CyEnterCriticalSection();
 169              		.loc 1 177 0
 170 0006 FFF7FEFF 		bl	CyEnterCriticalSection
 171 000a 0346     		mov	r3, r0
 172 000c FB71     		strb	r3, [r7, #7]
 178:.\Generated_Source\PSoC5/Code_Bar.c **** 
 179:.\Generated_Source\PSoC5/Code_Bar.c ****     #if(Code_Bar_RX_ENABLED || Code_Bar_HD_ENABLED)
 180:.\Generated_Source\PSoC5/Code_Bar.c ****         /*RX Counter (Count7) Enable */
 181:.\Generated_Source\PSoC5/Code_Bar.c ****         Code_Bar_RXBITCTR_CONTROL_REG |= Code_Bar_CNTR_ENABLE;
 173              		.loc 1 181 0
 174 000e 124A     		ldr	r2, .L9
 175 0010 114B     		ldr	r3, .L9
 176 0012 1B78     		ldrb	r3, [r3]
 177 0014 DBB2     		uxtb	r3, r3
 178 0016 43F02003 		orr	r3, r3, #32
 179 001a DBB2     		uxtb	r3, r3
 180 001c 1370     		strb	r3, [r2]
 182:.\Generated_Source\PSoC5/Code_Bar.c ****         /* Enable the RX Interrupt. */
 183:.\Generated_Source\PSoC5/Code_Bar.c ****         Code_Bar_RXSTATUS_ACTL_REG  |= Code_Bar_INT_ENABLE;
 181              		.loc 1 183 0
 182 001e 0F4A     		ldr	r2, .L9+4
 183 0020 0E4B     		ldr	r3, .L9+4
 184 0022 1B78     		ldrb	r3, [r3]
 185 0024 DBB2     		uxtb	r3, r3
 186 0026 43F01003 		orr	r3, r3, #16
 187 002a DBB2     		uxtb	r3, r3
 188 002c 1370     		strb	r3, [r2]
 184:.\Generated_Source\PSoC5/Code_Bar.c ****         #if(Code_Bar_RX_INTERRUPT_ENABLED && (Code_Bar_RXBUFFERSIZE > Code_Bar_FIFO_LENGTH))
 185:.\Generated_Source\PSoC5/Code_Bar.c ****             CyIntEnable(Code_Bar_RX_VECT_NUM);
 189              		.loc 1 185 0
 190 002e 0C4B     		ldr	r3, .L9+8
 191 0030 0222     		movs	r2, #2
 192 0032 1A60     		str	r2, [r3]
 186:.\Generated_Source\PSoC5/Code_Bar.c ****             #if (Code_Bar_RXHW_ADDRESS_ENABLED)
 187:.\Generated_Source\PSoC5/Code_Bar.c ****                 Code_Bar_rxAddressDetected = 0u;
 188:.\Generated_Source\PSoC5/Code_Bar.c ****             #endif /* End Code_Bar_RXHW_ADDRESS_ENABLED */
 189:.\Generated_Source\PSoC5/Code_Bar.c ****         #endif /* End Code_Bar_RX_INTERRUPT_ENABLED */
 190:.\Generated_Source\PSoC5/Code_Bar.c ****     #endif /* End Code_Bar_RX_ENABLED || Code_Bar_HD_ENABLED*/
 191:.\Generated_Source\PSoC5/Code_Bar.c **** 
 192:.\Generated_Source\PSoC5/Code_Bar.c ****     #if(Code_Bar_TX_ENABLED)
 193:.\Generated_Source\PSoC5/Code_Bar.c ****         /*TX Counter (DP/Count7) Enable */
 194:.\Generated_Source\PSoC5/Code_Bar.c ****         #if(!Code_Bar_TXCLKGEN_DP)
 195:.\Generated_Source\PSoC5/Code_Bar.c ****             Code_Bar_TXBITCTR_CONTROL_REG |= Code_Bar_CNTR_ENABLE;
 196:.\Generated_Source\PSoC5/Code_Bar.c ****         #endif /* End Code_Bar_TXCLKGEN_DP */
 197:.\Generated_Source\PSoC5/Code_Bar.c ****         /* Enable the TX Interrupt. */
 198:.\Generated_Source\PSoC5/Code_Bar.c ****         Code_Bar_TXSTATUS_ACTL_REG |= Code_Bar_INT_ENABLE;
 193              		.loc 1 198 0
 194 0034 0B4A     		ldr	r2, .L9+12
 195 0036 0B4B     		ldr	r3, .L9+12
 196 0038 1B78     		ldrb	r3, [r3]
 197 003a DBB2     		uxtb	r3, r3
 198 003c 43F01003 		orr	r3, r3, #16
 199 0040 DBB2     		uxtb	r3, r3
 200 0042 1370     		strb	r3, [r2]
 199:.\Generated_Source\PSoC5/Code_Bar.c ****         #if(Code_Bar_TX_INTERRUPT_ENABLED && (Code_Bar_TXBUFFERSIZE > Code_Bar_FIFO_LENGTH))
ARM GAS  C:\Users\Lenovo\AppData\Local\Temp\ccp7JJIV.s 			page 8


 200:.\Generated_Source\PSoC5/Code_Bar.c ****             CyIntEnable(Code_Bar_TX_VECT_NUM);
 201:.\Generated_Source\PSoC5/Code_Bar.c ****         #endif /* End Code_Bar_TX_INTERRUPT_ENABLED*/
 202:.\Generated_Source\PSoC5/Code_Bar.c ****      #endif /* End Code_Bar_TX_ENABLED */
 203:.\Generated_Source\PSoC5/Code_Bar.c **** 
 204:.\Generated_Source\PSoC5/Code_Bar.c ****     #if(Code_Bar_INTERNAL_CLOCK_USED)
 205:.\Generated_Source\PSoC5/Code_Bar.c ****         /* Enable the clock. */
 206:.\Generated_Source\PSoC5/Code_Bar.c ****         Code_Bar_IntClock_Start();
 201              		.loc 1 206 0
 202 0044 FFF7FEFF 		bl	Code_Bar_IntClock_Start
 207:.\Generated_Source\PSoC5/Code_Bar.c ****     #endif /* End Code_Bar_INTERNAL_CLOCK_USED */
 208:.\Generated_Source\PSoC5/Code_Bar.c **** 
 209:.\Generated_Source\PSoC5/Code_Bar.c ****     CyExitCriticalSection(enableInterrupts);
 203              		.loc 1 209 0
 204 0048 FB79     		ldrb	r3, [r7, #7]	@ zero_extendqisi2
 205 004a 1846     		mov	r0, r3
 206 004c FFF7FEFF 		bl	CyExitCriticalSection
 210:.\Generated_Source\PSoC5/Code_Bar.c **** }
 207              		.loc 1 210 0
 208 0050 0837     		adds	r7, r7, #8
 209              		.cfi_def_cfa_offset 8
 210 0052 BD46     		mov	sp, r7
 211              		.cfi_def_cfa_register 13
 212              		@ sp needed
 213 0054 80BD     		pop	{r7, pc}
 214              	.L10:
 215 0056 00BF     		.align	2
 216              	.L9:
 217 0058 90640040 		.word	1073767568
 218 005c 96640040 		.word	1073767574
 219 0060 00E100E0 		.word	-536813312
 220 0064 9A640040 		.word	1073767578
 221              		.cfi_endproc
 222              	.LFE2:
 223              		.size	Code_Bar_Enable, .-Code_Bar_Enable
 224              		.section	.text.Code_Bar_Stop,"ax",%progbits
 225              		.align	2
 226              		.global	Code_Bar_Stop
 227              		.thumb
 228              		.thumb_func
 229              		.type	Code_Bar_Stop, %function
 230              	Code_Bar_Stop:
 231              	.LFB3:
 211:.\Generated_Source\PSoC5/Code_Bar.c **** 
 212:.\Generated_Source\PSoC5/Code_Bar.c **** 
 213:.\Generated_Source\PSoC5/Code_Bar.c **** /*******************************************************************************
 214:.\Generated_Source\PSoC5/Code_Bar.c **** * Function Name: Code_Bar_Stop
 215:.\Generated_Source\PSoC5/Code_Bar.c **** ********************************************************************************
 216:.\Generated_Source\PSoC5/Code_Bar.c **** *
 217:.\Generated_Source\PSoC5/Code_Bar.c **** * Summary:
 218:.\Generated_Source\PSoC5/Code_Bar.c **** *  Disable the UART component
 219:.\Generated_Source\PSoC5/Code_Bar.c **** *
 220:.\Generated_Source\PSoC5/Code_Bar.c **** * Parameters:
 221:.\Generated_Source\PSoC5/Code_Bar.c **** *  None.
 222:.\Generated_Source\PSoC5/Code_Bar.c **** *
 223:.\Generated_Source\PSoC5/Code_Bar.c **** * Return:
 224:.\Generated_Source\PSoC5/Code_Bar.c **** *  None.
 225:.\Generated_Source\PSoC5/Code_Bar.c **** *
ARM GAS  C:\Users\Lenovo\AppData\Local\Temp\ccp7JJIV.s 			page 9


 226:.\Generated_Source\PSoC5/Code_Bar.c **** *******************************************************************************/
 227:.\Generated_Source\PSoC5/Code_Bar.c **** void Code_Bar_Stop(void) 
 228:.\Generated_Source\PSoC5/Code_Bar.c **** {
 232              		.loc 1 228 0
 233              		.cfi_startproc
 234              		@ args = 0, pretend = 0, frame = 8
 235              		@ frame_needed = 1, uses_anonymous_args = 0
 236 0000 80B5     		push	{r7, lr}
 237              		.cfi_def_cfa_offset 8
 238              		.cfi_offset 7, -8
 239              		.cfi_offset 14, -4
 240 0002 82B0     		sub	sp, sp, #8
 241              		.cfi_def_cfa_offset 16
 242 0004 00AF     		add	r7, sp, #0
 243              		.cfi_def_cfa_register 7
 229:.\Generated_Source\PSoC5/Code_Bar.c ****     uint8 enableInterrupts;
 230:.\Generated_Source\PSoC5/Code_Bar.c ****     enableInterrupts = CyEnterCriticalSection();
 244              		.loc 1 230 0
 245 0006 FFF7FEFF 		bl	CyEnterCriticalSection
 246 000a 0346     		mov	r3, r0
 247 000c FB71     		strb	r3, [r7, #7]
 231:.\Generated_Source\PSoC5/Code_Bar.c **** 
 232:.\Generated_Source\PSoC5/Code_Bar.c ****     /* Write Bit Counter Disable */
 233:.\Generated_Source\PSoC5/Code_Bar.c ****     #if(Code_Bar_RX_ENABLED || Code_Bar_HD_ENABLED)
 234:.\Generated_Source\PSoC5/Code_Bar.c ****         Code_Bar_RXBITCTR_CONTROL_REG &= (uint8)~Code_Bar_CNTR_ENABLE;
 248              		.loc 1 234 0
 249 000e 114A     		ldr	r2, .L12
 250 0010 104B     		ldr	r3, .L12
 251 0012 1B78     		ldrb	r3, [r3]
 252 0014 DBB2     		uxtb	r3, r3
 253 0016 23F02003 		bic	r3, r3, #32
 254 001a DBB2     		uxtb	r3, r3
 255 001c 1370     		strb	r3, [r2]
 235:.\Generated_Source\PSoC5/Code_Bar.c ****     #endif /* End Code_Bar_RX_ENABLED */
 236:.\Generated_Source\PSoC5/Code_Bar.c **** 
 237:.\Generated_Source\PSoC5/Code_Bar.c ****     #if(Code_Bar_TX_ENABLED)
 238:.\Generated_Source\PSoC5/Code_Bar.c ****         #if(!Code_Bar_TXCLKGEN_DP)
 239:.\Generated_Source\PSoC5/Code_Bar.c ****             Code_Bar_TXBITCTR_CONTROL_REG &= (uint8)~Code_Bar_CNTR_ENABLE;
 240:.\Generated_Source\PSoC5/Code_Bar.c ****         #endif /* End Code_Bar_TXCLKGEN_DP */
 241:.\Generated_Source\PSoC5/Code_Bar.c ****     #endif /* Code_Bar_TX_ENABLED */
 242:.\Generated_Source\PSoC5/Code_Bar.c **** 
 243:.\Generated_Source\PSoC5/Code_Bar.c ****     #if(Code_Bar_INTERNAL_CLOCK_USED)
 244:.\Generated_Source\PSoC5/Code_Bar.c ****         /* Disable the clock. */
 245:.\Generated_Source\PSoC5/Code_Bar.c ****         Code_Bar_IntClock_Stop();
 256              		.loc 1 245 0
 257 001e FFF7FEFF 		bl	Code_Bar_IntClock_Stop
 246:.\Generated_Source\PSoC5/Code_Bar.c ****     #endif /* End Code_Bar_INTERNAL_CLOCK_USED */
 247:.\Generated_Source\PSoC5/Code_Bar.c **** 
 248:.\Generated_Source\PSoC5/Code_Bar.c ****     /* Disable internal interrupt component */
 249:.\Generated_Source\PSoC5/Code_Bar.c ****     #if(Code_Bar_RX_ENABLED || Code_Bar_HD_ENABLED)
 250:.\Generated_Source\PSoC5/Code_Bar.c ****         Code_Bar_RXSTATUS_ACTL_REG  &= (uint8)~Code_Bar_INT_ENABLE;
 258              		.loc 1 250 0
 259 0022 0D4A     		ldr	r2, .L12+4
 260 0024 0C4B     		ldr	r3, .L12+4
 261 0026 1B78     		ldrb	r3, [r3]
 262 0028 DBB2     		uxtb	r3, r3
 263 002a 23F01003 		bic	r3, r3, #16
ARM GAS  C:\Users\Lenovo\AppData\Local\Temp\ccp7JJIV.s 			page 10


 264 002e DBB2     		uxtb	r3, r3
 265 0030 1370     		strb	r3, [r2]
 251:.\Generated_Source\PSoC5/Code_Bar.c ****         #if(Code_Bar_RX_INTERRUPT_ENABLED && (Code_Bar_RXBUFFERSIZE > Code_Bar_FIFO_LENGTH))
 252:.\Generated_Source\PSoC5/Code_Bar.c ****             Code_Bar_DisableRxInt();
 266              		.loc 1 252 0
 267 0032 FFF7FEFF 		bl	Code_Bar_DisableRxInt
 253:.\Generated_Source\PSoC5/Code_Bar.c ****         #endif /* End Code_Bar_RX_INTERRUPT_ENABLED */
 254:.\Generated_Source\PSoC5/Code_Bar.c ****     #endif /* End Code_Bar_RX_ENABLED */
 255:.\Generated_Source\PSoC5/Code_Bar.c **** 
 256:.\Generated_Source\PSoC5/Code_Bar.c ****     #if(Code_Bar_TX_ENABLED)
 257:.\Generated_Source\PSoC5/Code_Bar.c ****         Code_Bar_TXSTATUS_ACTL_REG &= (uint8)~Code_Bar_INT_ENABLE;
 268              		.loc 1 257 0
 269 0036 094A     		ldr	r2, .L12+8
 270 0038 084B     		ldr	r3, .L12+8
 271 003a 1B78     		ldrb	r3, [r3]
 272 003c DBB2     		uxtb	r3, r3
 273 003e 23F01003 		bic	r3, r3, #16
 274 0042 DBB2     		uxtb	r3, r3
 275 0044 1370     		strb	r3, [r2]
 258:.\Generated_Source\PSoC5/Code_Bar.c ****         #if(Code_Bar_TX_INTERRUPT_ENABLED && (Code_Bar_TXBUFFERSIZE > Code_Bar_FIFO_LENGTH))
 259:.\Generated_Source\PSoC5/Code_Bar.c ****             Code_Bar_DisableTxInt();
 260:.\Generated_Source\PSoC5/Code_Bar.c ****         #endif /* End Code_Bar_TX_INTERRUPT_ENABLED */
 261:.\Generated_Source\PSoC5/Code_Bar.c ****     #endif /* End Code_Bar_TX_ENABLED */
 262:.\Generated_Source\PSoC5/Code_Bar.c **** 
 263:.\Generated_Source\PSoC5/Code_Bar.c ****     CyExitCriticalSection(enableInterrupts);
 276              		.loc 1 263 0
 277 0046 FB79     		ldrb	r3, [r7, #7]	@ zero_extendqisi2
 278 0048 1846     		mov	r0, r3
 279 004a FFF7FEFF 		bl	CyExitCriticalSection
 264:.\Generated_Source\PSoC5/Code_Bar.c **** }
 280              		.loc 1 264 0
 281 004e 0837     		adds	r7, r7, #8
 282              		.cfi_def_cfa_offset 8
 283 0050 BD46     		mov	sp, r7
 284              		.cfi_def_cfa_register 13
 285              		@ sp needed
 286 0052 80BD     		pop	{r7, pc}
 287              	.L13:
 288              		.align	2
 289              	.L12:
 290 0054 90640040 		.word	1073767568
 291 0058 96640040 		.word	1073767574
 292 005c 9A640040 		.word	1073767578
 293              		.cfi_endproc
 294              	.LFE3:
 295              		.size	Code_Bar_Stop, .-Code_Bar_Stop
 296              		.section	.text.Code_Bar_ReadControlRegister,"ax",%progbits
 297              		.align	2
 298              		.global	Code_Bar_ReadControlRegister
 299              		.thumb
 300              		.thumb_func
 301              		.type	Code_Bar_ReadControlRegister, %function
 302              	Code_Bar_ReadControlRegister:
 303              	.LFB4:
 265:.\Generated_Source\PSoC5/Code_Bar.c **** 
 266:.\Generated_Source\PSoC5/Code_Bar.c **** 
 267:.\Generated_Source\PSoC5/Code_Bar.c **** /*******************************************************************************
ARM GAS  C:\Users\Lenovo\AppData\Local\Temp\ccp7JJIV.s 			page 11


 268:.\Generated_Source\PSoC5/Code_Bar.c **** * Function Name: Code_Bar_ReadControlRegister
 269:.\Generated_Source\PSoC5/Code_Bar.c **** ********************************************************************************
 270:.\Generated_Source\PSoC5/Code_Bar.c **** *
 271:.\Generated_Source\PSoC5/Code_Bar.c **** * Summary:
 272:.\Generated_Source\PSoC5/Code_Bar.c **** *  Read the current state of the control register
 273:.\Generated_Source\PSoC5/Code_Bar.c **** *
 274:.\Generated_Source\PSoC5/Code_Bar.c **** * Parameters:
 275:.\Generated_Source\PSoC5/Code_Bar.c **** *  None.
 276:.\Generated_Source\PSoC5/Code_Bar.c **** *
 277:.\Generated_Source\PSoC5/Code_Bar.c **** * Return:
 278:.\Generated_Source\PSoC5/Code_Bar.c **** *  Current state of the control register.
 279:.\Generated_Source\PSoC5/Code_Bar.c **** *
 280:.\Generated_Source\PSoC5/Code_Bar.c **** *******************************************************************************/
 281:.\Generated_Source\PSoC5/Code_Bar.c **** uint8 Code_Bar_ReadControlRegister(void) 
 282:.\Generated_Source\PSoC5/Code_Bar.c **** {
 304              		.loc 1 282 0
 305              		.cfi_startproc
 306              		@ args = 0, pretend = 0, frame = 0
 307              		@ frame_needed = 1, uses_anonymous_args = 0
 308              		@ link register save eliminated.
 309 0000 80B4     		push	{r7}
 310              		.cfi_def_cfa_offset 4
 311              		.cfi_offset 7, -4
 312 0002 00AF     		add	r7, sp, #0
 313              		.cfi_def_cfa_register 7
 283:.\Generated_Source\PSoC5/Code_Bar.c ****     #if( Code_Bar_CONTROL_REG_REMOVED )
 284:.\Generated_Source\PSoC5/Code_Bar.c ****         return(0u);
 314              		.loc 1 284 0
 315 0004 0023     		movs	r3, #0
 285:.\Generated_Source\PSoC5/Code_Bar.c ****     #else
 286:.\Generated_Source\PSoC5/Code_Bar.c ****         return(Code_Bar_CONTROL_REG);
 287:.\Generated_Source\PSoC5/Code_Bar.c ****     #endif /* End Code_Bar_CONTROL_REG_REMOVED */
 288:.\Generated_Source\PSoC5/Code_Bar.c **** }
 316              		.loc 1 288 0
 317 0006 1846     		mov	r0, r3
 318 0008 BD46     		mov	sp, r7
 319              		.cfi_def_cfa_register 13
 320              		@ sp needed
 321 000a 5DF8047B 		ldr	r7, [sp], #4
 322              		.cfi_restore 7
 323              		.cfi_def_cfa_offset 0
 324 000e 7047     		bx	lr
 325              		.cfi_endproc
 326              	.LFE4:
 327              		.size	Code_Bar_ReadControlRegister, .-Code_Bar_ReadControlRegister
 328              		.section	.text.Code_Bar_WriteControlRegister,"ax",%progbits
 329              		.align	2
 330              		.global	Code_Bar_WriteControlRegister
 331              		.thumb
 332              		.thumb_func
 333              		.type	Code_Bar_WriteControlRegister, %function
 334              	Code_Bar_WriteControlRegister:
 335              	.LFB5:
 289:.\Generated_Source\PSoC5/Code_Bar.c **** 
 290:.\Generated_Source\PSoC5/Code_Bar.c **** 
 291:.\Generated_Source\PSoC5/Code_Bar.c **** /*******************************************************************************
 292:.\Generated_Source\PSoC5/Code_Bar.c **** * Function Name: Code_Bar_WriteControlRegister
ARM GAS  C:\Users\Lenovo\AppData\Local\Temp\ccp7JJIV.s 			page 12


 293:.\Generated_Source\PSoC5/Code_Bar.c **** ********************************************************************************
 294:.\Generated_Source\PSoC5/Code_Bar.c **** *
 295:.\Generated_Source\PSoC5/Code_Bar.c **** * Summary:
 296:.\Generated_Source\PSoC5/Code_Bar.c **** *  Writes an 8-bit value into the control register
 297:.\Generated_Source\PSoC5/Code_Bar.c **** *
 298:.\Generated_Source\PSoC5/Code_Bar.c **** * Parameters:
 299:.\Generated_Source\PSoC5/Code_Bar.c **** *  control:  control register value
 300:.\Generated_Source\PSoC5/Code_Bar.c **** *
 301:.\Generated_Source\PSoC5/Code_Bar.c **** * Return:
 302:.\Generated_Source\PSoC5/Code_Bar.c **** *  None.
 303:.\Generated_Source\PSoC5/Code_Bar.c **** *
 304:.\Generated_Source\PSoC5/Code_Bar.c **** *******************************************************************************/
 305:.\Generated_Source\PSoC5/Code_Bar.c **** void  Code_Bar_WriteControlRegister(uint8 control) 
 306:.\Generated_Source\PSoC5/Code_Bar.c **** {
 336              		.loc 1 306 0
 337              		.cfi_startproc
 338              		@ args = 0, pretend = 0, frame = 8
 339              		@ frame_needed = 1, uses_anonymous_args = 0
 340              		@ link register save eliminated.
 341 0000 80B4     		push	{r7}
 342              		.cfi_def_cfa_offset 4
 343              		.cfi_offset 7, -4
 344 0002 83B0     		sub	sp, sp, #12
 345              		.cfi_def_cfa_offset 16
 346 0004 00AF     		add	r7, sp, #0
 347              		.cfi_def_cfa_register 7
 348 0006 0346     		mov	r3, r0
 349 0008 FB71     		strb	r3, [r7, #7]
 307:.\Generated_Source\PSoC5/Code_Bar.c ****     #if( Code_Bar_CONTROL_REG_REMOVED )
 308:.\Generated_Source\PSoC5/Code_Bar.c ****         if(control != 0u) { }      /* release compiler warning */
 309:.\Generated_Source\PSoC5/Code_Bar.c ****     #else
 310:.\Generated_Source\PSoC5/Code_Bar.c ****        Code_Bar_CONTROL_REG = control;
 311:.\Generated_Source\PSoC5/Code_Bar.c ****     #endif /* End Code_Bar_CONTROL_REG_REMOVED */
 312:.\Generated_Source\PSoC5/Code_Bar.c **** }
 350              		.loc 1 312 0
 351 000a 0C37     		adds	r7, r7, #12
 352              		.cfi_def_cfa_offset 4
 353 000c BD46     		mov	sp, r7
 354              		.cfi_def_cfa_register 13
 355              		@ sp needed
 356 000e 5DF8047B 		ldr	r7, [sp], #4
 357              		.cfi_restore 7
 358              		.cfi_def_cfa_offset 0
 359 0012 7047     		bx	lr
 360              		.cfi_endproc
 361              	.LFE5:
 362              		.size	Code_Bar_WriteControlRegister, .-Code_Bar_WriteControlRegister
 363              		.section	.text.Code_Bar_EnableRxInt,"ax",%progbits
 364              		.align	2
 365              		.global	Code_Bar_EnableRxInt
 366              		.thumb
 367              		.thumb_func
 368              		.type	Code_Bar_EnableRxInt, %function
 369              	Code_Bar_EnableRxInt:
 370              	.LFB6:
 313:.\Generated_Source\PSoC5/Code_Bar.c **** 
 314:.\Generated_Source\PSoC5/Code_Bar.c **** 
ARM GAS  C:\Users\Lenovo\AppData\Local\Temp\ccp7JJIV.s 			page 13


 315:.\Generated_Source\PSoC5/Code_Bar.c **** #if(Code_Bar_RX_ENABLED || Code_Bar_HD_ENABLED)
 316:.\Generated_Source\PSoC5/Code_Bar.c **** 
 317:.\Generated_Source\PSoC5/Code_Bar.c ****     #if(Code_Bar_RX_INTERRUPT_ENABLED)
 318:.\Generated_Source\PSoC5/Code_Bar.c **** 
 319:.\Generated_Source\PSoC5/Code_Bar.c ****         /*******************************************************************************
 320:.\Generated_Source\PSoC5/Code_Bar.c ****         * Function Name: Code_Bar_EnableRxInt
 321:.\Generated_Source\PSoC5/Code_Bar.c ****         ********************************************************************************
 322:.\Generated_Source\PSoC5/Code_Bar.c ****         *
 323:.\Generated_Source\PSoC5/Code_Bar.c ****         * Summary:
 324:.\Generated_Source\PSoC5/Code_Bar.c ****         *  Enable RX interrupt generation
 325:.\Generated_Source\PSoC5/Code_Bar.c ****         *
 326:.\Generated_Source\PSoC5/Code_Bar.c ****         * Parameters:
 327:.\Generated_Source\PSoC5/Code_Bar.c ****         *  None.
 328:.\Generated_Source\PSoC5/Code_Bar.c ****         *
 329:.\Generated_Source\PSoC5/Code_Bar.c ****         * Return:
 330:.\Generated_Source\PSoC5/Code_Bar.c ****         *  None.
 331:.\Generated_Source\PSoC5/Code_Bar.c ****         *
 332:.\Generated_Source\PSoC5/Code_Bar.c ****         * Theory:
 333:.\Generated_Source\PSoC5/Code_Bar.c ****         *  Enable the interrupt output -or- the interrupt component itself
 334:.\Generated_Source\PSoC5/Code_Bar.c ****         *
 335:.\Generated_Source\PSoC5/Code_Bar.c ****         *******************************************************************************/
 336:.\Generated_Source\PSoC5/Code_Bar.c ****         void Code_Bar_EnableRxInt(void) 
 337:.\Generated_Source\PSoC5/Code_Bar.c ****         {
 371              		.loc 1 337 0
 372              		.cfi_startproc
 373              		@ args = 0, pretend = 0, frame = 0
 374              		@ frame_needed = 1, uses_anonymous_args = 0
 375              		@ link register save eliminated.
 376 0000 80B4     		push	{r7}
 377              		.cfi_def_cfa_offset 4
 378              		.cfi_offset 7, -4
 379 0002 00AF     		add	r7, sp, #0
 380              		.cfi_def_cfa_register 7
 338:.\Generated_Source\PSoC5/Code_Bar.c ****             CyIntEnable(Code_Bar_RX_VECT_NUM);
 381              		.loc 1 338 0
 382 0004 034B     		ldr	r3, .L18
 383 0006 0222     		movs	r2, #2
 384 0008 1A60     		str	r2, [r3]
 339:.\Generated_Source\PSoC5/Code_Bar.c ****         }
 385              		.loc 1 339 0
 386 000a BD46     		mov	sp, r7
 387              		.cfi_def_cfa_register 13
 388              		@ sp needed
 389 000c 5DF8047B 		ldr	r7, [sp], #4
 390              		.cfi_restore 7
 391              		.cfi_def_cfa_offset 0
 392 0010 7047     		bx	lr
 393              	.L19:
 394 0012 00BF     		.align	2
 395              	.L18:
 396 0014 00E100E0 		.word	-536813312
 397              		.cfi_endproc
 398              	.LFE6:
 399              		.size	Code_Bar_EnableRxInt, .-Code_Bar_EnableRxInt
 400              		.section	.text.Code_Bar_DisableRxInt,"ax",%progbits
 401              		.align	2
 402              		.global	Code_Bar_DisableRxInt
ARM GAS  C:\Users\Lenovo\AppData\Local\Temp\ccp7JJIV.s 			page 14


 403              		.thumb
 404              		.thumb_func
 405              		.type	Code_Bar_DisableRxInt, %function
 406              	Code_Bar_DisableRxInt:
 407              	.LFB7:
 340:.\Generated_Source\PSoC5/Code_Bar.c **** 
 341:.\Generated_Source\PSoC5/Code_Bar.c **** 
 342:.\Generated_Source\PSoC5/Code_Bar.c ****         /*******************************************************************************
 343:.\Generated_Source\PSoC5/Code_Bar.c ****         * Function Name: Code_Bar_DisableRxInt
 344:.\Generated_Source\PSoC5/Code_Bar.c ****         ********************************************************************************
 345:.\Generated_Source\PSoC5/Code_Bar.c ****         *
 346:.\Generated_Source\PSoC5/Code_Bar.c ****         * Summary:
 347:.\Generated_Source\PSoC5/Code_Bar.c ****         *  Disable RX interrupt generation
 348:.\Generated_Source\PSoC5/Code_Bar.c ****         *
 349:.\Generated_Source\PSoC5/Code_Bar.c ****         * Parameters:
 350:.\Generated_Source\PSoC5/Code_Bar.c ****         *  None.
 351:.\Generated_Source\PSoC5/Code_Bar.c ****         *
 352:.\Generated_Source\PSoC5/Code_Bar.c ****         * Return:
 353:.\Generated_Source\PSoC5/Code_Bar.c ****         *  None.
 354:.\Generated_Source\PSoC5/Code_Bar.c ****         *
 355:.\Generated_Source\PSoC5/Code_Bar.c ****         * Theory:
 356:.\Generated_Source\PSoC5/Code_Bar.c ****         *  Disable the interrupt output -or- the interrupt component itself
 357:.\Generated_Source\PSoC5/Code_Bar.c ****         *
 358:.\Generated_Source\PSoC5/Code_Bar.c ****         *******************************************************************************/
 359:.\Generated_Source\PSoC5/Code_Bar.c ****         void Code_Bar_DisableRxInt(void) 
 360:.\Generated_Source\PSoC5/Code_Bar.c ****         {
 408              		.loc 1 360 0
 409              		.cfi_startproc
 410              		@ args = 0, pretend = 0, frame = 0
 411              		@ frame_needed = 1, uses_anonymous_args = 0
 412              		@ link register save eliminated.
 413 0000 80B4     		push	{r7}
 414              		.cfi_def_cfa_offset 4
 415              		.cfi_offset 7, -4
 416 0002 00AF     		add	r7, sp, #0
 417              		.cfi_def_cfa_register 7
 361:.\Generated_Source\PSoC5/Code_Bar.c ****             CyIntDisable(Code_Bar_RX_VECT_NUM);
 418              		.loc 1 361 0
 419 0004 034B     		ldr	r3, .L21
 420 0006 0222     		movs	r2, #2
 421 0008 1A60     		str	r2, [r3]
 362:.\Generated_Source\PSoC5/Code_Bar.c ****         }
 422              		.loc 1 362 0
 423 000a BD46     		mov	sp, r7
 424              		.cfi_def_cfa_register 13
 425              		@ sp needed
 426 000c 5DF8047B 		ldr	r7, [sp], #4
 427              		.cfi_restore 7
 428              		.cfi_def_cfa_offset 0
 429 0010 7047     		bx	lr
 430              	.L22:
 431 0012 00BF     		.align	2
 432              	.L21:
 433 0014 80E100E0 		.word	-536813184
 434              		.cfi_endproc
 435              	.LFE7:
 436              		.size	Code_Bar_DisableRxInt, .-Code_Bar_DisableRxInt
ARM GAS  C:\Users\Lenovo\AppData\Local\Temp\ccp7JJIV.s 			page 15


 437              		.section	.text.Code_Bar_SetRxInterruptMode,"ax",%progbits
 438              		.align	2
 439              		.global	Code_Bar_SetRxInterruptMode
 440              		.thumb
 441              		.thumb_func
 442              		.type	Code_Bar_SetRxInterruptMode, %function
 443              	Code_Bar_SetRxInterruptMode:
 444              	.LFB8:
 363:.\Generated_Source\PSoC5/Code_Bar.c **** 
 364:.\Generated_Source\PSoC5/Code_Bar.c ****     #endif /* Code_Bar_RX_INTERRUPT_ENABLED */
 365:.\Generated_Source\PSoC5/Code_Bar.c **** 
 366:.\Generated_Source\PSoC5/Code_Bar.c **** 
 367:.\Generated_Source\PSoC5/Code_Bar.c ****     /*******************************************************************************
 368:.\Generated_Source\PSoC5/Code_Bar.c ****     * Function Name: Code_Bar_SetRxInterruptMode
 369:.\Generated_Source\PSoC5/Code_Bar.c ****     ********************************************************************************
 370:.\Generated_Source\PSoC5/Code_Bar.c ****     *
 371:.\Generated_Source\PSoC5/Code_Bar.c ****     * Summary:
 372:.\Generated_Source\PSoC5/Code_Bar.c ****     *  Configure which status bits trigger an interrupt event
 373:.\Generated_Source\PSoC5/Code_Bar.c ****     *
 374:.\Generated_Source\PSoC5/Code_Bar.c ****     * Parameters:
 375:.\Generated_Source\PSoC5/Code_Bar.c ****     *  IntSrc:  An or'd combination of the desired status bit masks (defined in
 376:.\Generated_Source\PSoC5/Code_Bar.c ****     *           the header file)
 377:.\Generated_Source\PSoC5/Code_Bar.c ****     *
 378:.\Generated_Source\PSoC5/Code_Bar.c ****     * Return:
 379:.\Generated_Source\PSoC5/Code_Bar.c ****     *  None.
 380:.\Generated_Source\PSoC5/Code_Bar.c ****     *
 381:.\Generated_Source\PSoC5/Code_Bar.c ****     * Theory:
 382:.\Generated_Source\PSoC5/Code_Bar.c ****     *  Enables the output of specific status bits to the interrupt controller
 383:.\Generated_Source\PSoC5/Code_Bar.c ****     *
 384:.\Generated_Source\PSoC5/Code_Bar.c ****     *******************************************************************************/
 385:.\Generated_Source\PSoC5/Code_Bar.c ****     void Code_Bar_SetRxInterruptMode(uint8 intSrc) 
 386:.\Generated_Source\PSoC5/Code_Bar.c ****     {
 445              		.loc 1 386 0
 446              		.cfi_startproc
 447              		@ args = 0, pretend = 0, frame = 8
 448              		@ frame_needed = 1, uses_anonymous_args = 0
 449              		@ link register save eliminated.
 450 0000 80B4     		push	{r7}
 451              		.cfi_def_cfa_offset 4
 452              		.cfi_offset 7, -4
 453 0002 83B0     		sub	sp, sp, #12
 454              		.cfi_def_cfa_offset 16
 455 0004 00AF     		add	r7, sp, #0
 456              		.cfi_def_cfa_register 7
 457 0006 0346     		mov	r3, r0
 458 0008 FB71     		strb	r3, [r7, #7]
 387:.\Generated_Source\PSoC5/Code_Bar.c ****         Code_Bar_RXSTATUS_MASK_REG  = intSrc;
 459              		.loc 1 387 0
 460 000a 044A     		ldr	r2, .L24
 461 000c FB79     		ldrb	r3, [r7, #7]
 462 000e 1370     		strb	r3, [r2]
 388:.\Generated_Source\PSoC5/Code_Bar.c ****     }
 463              		.loc 1 388 0
 464 0010 0C37     		adds	r7, r7, #12
 465              		.cfi_def_cfa_offset 4
 466 0012 BD46     		mov	sp, r7
 467              		.cfi_def_cfa_register 13
ARM GAS  C:\Users\Lenovo\AppData\Local\Temp\ccp7JJIV.s 			page 16


 468              		@ sp needed
 469 0014 5DF8047B 		ldr	r7, [sp], #4
 470              		.cfi_restore 7
 471              		.cfi_def_cfa_offset 0
 472 0018 7047     		bx	lr
 473              	.L25:
 474 001a 00BF     		.align	2
 475              	.L24:
 476 001c 86640040 		.word	1073767558
 477              		.cfi_endproc
 478              	.LFE8:
 479              		.size	Code_Bar_SetRxInterruptMode, .-Code_Bar_SetRxInterruptMode
 480              		.section	.text.Code_Bar_ReadRxData,"ax",%progbits
 481              		.align	2
 482              		.global	Code_Bar_ReadRxData
 483              		.thumb
 484              		.thumb_func
 485              		.type	Code_Bar_ReadRxData, %function
 486              	Code_Bar_ReadRxData:
 487              	.LFB9:
 389:.\Generated_Source\PSoC5/Code_Bar.c **** 
 390:.\Generated_Source\PSoC5/Code_Bar.c **** 
 391:.\Generated_Source\PSoC5/Code_Bar.c ****     /*******************************************************************************
 392:.\Generated_Source\PSoC5/Code_Bar.c ****     * Function Name: Code_Bar_ReadRxData
 393:.\Generated_Source\PSoC5/Code_Bar.c ****     ********************************************************************************
 394:.\Generated_Source\PSoC5/Code_Bar.c ****     *
 395:.\Generated_Source\PSoC5/Code_Bar.c ****     * Summary:
 396:.\Generated_Source\PSoC5/Code_Bar.c ****     *  Returns data in RX Data register without checking status register to
 397:.\Generated_Source\PSoC5/Code_Bar.c ****     *  determine if data is valid
 398:.\Generated_Source\PSoC5/Code_Bar.c ****     *
 399:.\Generated_Source\PSoC5/Code_Bar.c ****     * Parameters:
 400:.\Generated_Source\PSoC5/Code_Bar.c ****     *  None.
 401:.\Generated_Source\PSoC5/Code_Bar.c ****     *
 402:.\Generated_Source\PSoC5/Code_Bar.c ****     * Return:
 403:.\Generated_Source\PSoC5/Code_Bar.c ****     *  Received data from RX register
 404:.\Generated_Source\PSoC5/Code_Bar.c ****     *
 405:.\Generated_Source\PSoC5/Code_Bar.c ****     * Global Variables:
 406:.\Generated_Source\PSoC5/Code_Bar.c ****     *  Code_Bar_rxBuffer - RAM buffer pointer for save received data.
 407:.\Generated_Source\PSoC5/Code_Bar.c ****     *  Code_Bar_rxBufferWrite - cyclic index for write to rxBuffer,
 408:.\Generated_Source\PSoC5/Code_Bar.c ****     *     checked to identify new data.
 409:.\Generated_Source\PSoC5/Code_Bar.c ****     *  Code_Bar_rxBufferRead - cyclic index for read from rxBuffer,
 410:.\Generated_Source\PSoC5/Code_Bar.c ****     *     incremented after each byte has been read from buffer.
 411:.\Generated_Source\PSoC5/Code_Bar.c ****     *  Code_Bar_rxBufferLoopDetect - creared if loop condition was detected
 412:.\Generated_Source\PSoC5/Code_Bar.c ****     *     in RX ISR.
 413:.\Generated_Source\PSoC5/Code_Bar.c ****     *
 414:.\Generated_Source\PSoC5/Code_Bar.c ****     * Reentrant:
 415:.\Generated_Source\PSoC5/Code_Bar.c ****     *  No.
 416:.\Generated_Source\PSoC5/Code_Bar.c ****     *
 417:.\Generated_Source\PSoC5/Code_Bar.c ****     *******************************************************************************/
 418:.\Generated_Source\PSoC5/Code_Bar.c ****     uint8 Code_Bar_ReadRxData(void) 
 419:.\Generated_Source\PSoC5/Code_Bar.c ****     {
 488              		.loc 1 419 0
 489              		.cfi_startproc
 490              		@ args = 0, pretend = 0, frame = 8
 491              		@ frame_needed = 1, uses_anonymous_args = 0
 492 0000 80B5     		push	{r7, lr}
 493              		.cfi_def_cfa_offset 8
ARM GAS  C:\Users\Lenovo\AppData\Local\Temp\ccp7JJIV.s 			page 17


 494              		.cfi_offset 7, -8
 495              		.cfi_offset 14, -4
 496 0002 82B0     		sub	sp, sp, #8
 497              		.cfi_def_cfa_offset 16
 498 0004 00AF     		add	r7, sp, #0
 499              		.cfi_def_cfa_register 7
 420:.\Generated_Source\PSoC5/Code_Bar.c ****         uint8 rxData;
 421:.\Generated_Source\PSoC5/Code_Bar.c **** 
 422:.\Generated_Source\PSoC5/Code_Bar.c ****         #if(Code_Bar_RXBUFFERSIZE > Code_Bar_FIFO_LENGTH)
 423:.\Generated_Source\PSoC5/Code_Bar.c ****             uint16 loc_rxBufferRead;
 424:.\Generated_Source\PSoC5/Code_Bar.c ****             uint16 loc_rxBufferWrite;
 425:.\Generated_Source\PSoC5/Code_Bar.c ****             /* Protect variables that could change on interrupt. */
 426:.\Generated_Source\PSoC5/Code_Bar.c ****             /* Disable Rx interrupt. */
 427:.\Generated_Source\PSoC5/Code_Bar.c ****             #if(Code_Bar_RX_INTERRUPT_ENABLED)
 428:.\Generated_Source\PSoC5/Code_Bar.c ****                 Code_Bar_DisableRxInt();
 500              		.loc 1 428 0
 501 0006 FFF7FEFF 		bl	Code_Bar_DisableRxInt
 429:.\Generated_Source\PSoC5/Code_Bar.c ****             #endif /* Code_Bar_RX_INTERRUPT_ENABLED */
 430:.\Generated_Source\PSoC5/Code_Bar.c ****             loc_rxBufferRead = Code_Bar_rxBufferRead;
 502              		.loc 1 430 0
 503 000a 194B     		ldr	r3, .L33
 504 000c 1B88     		ldrh	r3, [r3]	@ movhi
 505 000e BB80     		strh	r3, [r7, #4]	@ movhi
 431:.\Generated_Source\PSoC5/Code_Bar.c ****             loc_rxBufferWrite = Code_Bar_rxBufferWrite;
 506              		.loc 1 431 0
 507 0010 184B     		ldr	r3, .L33+4
 508 0012 1B88     		ldrh	r3, [r3]	@ movhi
 509 0014 7B80     		strh	r3, [r7, #2]	@ movhi
 432:.\Generated_Source\PSoC5/Code_Bar.c **** 
 433:.\Generated_Source\PSoC5/Code_Bar.c ****             if( (Code_Bar_rxBufferLoopDetect != 0u) || (loc_rxBufferRead != loc_rxBufferWrite) )
 510              		.loc 1 433 0
 511 0016 184B     		ldr	r3, .L33+8
 512 0018 1B78     		ldrb	r3, [r3]
 513 001a DBB2     		uxtb	r3, r3
 514 001c 002B     		cmp	r3, #0
 515 001e 03D1     		bne	.L27
 516              		.loc 1 433 0 is_stmt 0 discriminator 1
 517 0020 BA88     		ldrh	r2, [r7, #4]
 518 0022 7B88     		ldrh	r3, [r7, #2]
 519 0024 9A42     		cmp	r2, r3
 520 0026 18D0     		beq	.L28
 521              	.L27:
 434:.\Generated_Source\PSoC5/Code_Bar.c ****             {
 435:.\Generated_Source\PSoC5/Code_Bar.c ****                 rxData = Code_Bar_rxBuffer[loc_rxBufferRead];
 522              		.loc 1 435 0 is_stmt 1
 523 0028 BB88     		ldrh	r3, [r7, #4]
 524 002a 144A     		ldr	r2, .L33+12
 525 002c D35C     		ldrb	r3, [r2, r3]
 526 002e FB71     		strb	r3, [r7, #7]
 436:.\Generated_Source\PSoC5/Code_Bar.c ****                 loc_rxBufferRead++;
 527              		.loc 1 436 0
 528 0030 BB88     		ldrh	r3, [r7, #4]
 529 0032 0133     		adds	r3, r3, #1
 530 0034 BB80     		strh	r3, [r7, #4]	@ movhi
 437:.\Generated_Source\PSoC5/Code_Bar.c **** 
 438:.\Generated_Source\PSoC5/Code_Bar.c ****                 if(loc_rxBufferRead >= Code_Bar_RXBUFFERSIZE)
 531              		.loc 1 438 0
ARM GAS  C:\Users\Lenovo\AppData\Local\Temp\ccp7JJIV.s 			page 18


 532 0036 BB88     		ldrh	r3, [r7, #4]
 533 0038 FF2B     		cmp	r3, #255
 534 003a 01D9     		bls	.L29
 439:.\Generated_Source\PSoC5/Code_Bar.c ****                 {
 440:.\Generated_Source\PSoC5/Code_Bar.c ****                     loc_rxBufferRead = 0u;
 535              		.loc 1 440 0
 536 003c 0023     		movs	r3, #0
 537 003e BB80     		strh	r3, [r7, #4]	@ movhi
 538              	.L29:
 441:.\Generated_Source\PSoC5/Code_Bar.c ****                 }
 442:.\Generated_Source\PSoC5/Code_Bar.c ****                 /* Update the real pointer */
 443:.\Generated_Source\PSoC5/Code_Bar.c ****                 Code_Bar_rxBufferRead = loc_rxBufferRead;
 539              		.loc 1 443 0
 540 0040 0B4A     		ldr	r2, .L33
 541 0042 BB88     		ldrh	r3, [r7, #4]	@ movhi
 542 0044 1380     		strh	r3, [r2]	@ movhi
 444:.\Generated_Source\PSoC5/Code_Bar.c **** 
 445:.\Generated_Source\PSoC5/Code_Bar.c ****                 if(Code_Bar_rxBufferLoopDetect != 0u )
 543              		.loc 1 445 0
 544 0046 0C4B     		ldr	r3, .L33+8
 545 0048 1B78     		ldrb	r3, [r3]
 546 004a DBB2     		uxtb	r3, r3
 547 004c 002B     		cmp	r3, #0
 548 004e 03D0     		beq	.L30
 446:.\Generated_Source\PSoC5/Code_Bar.c ****                 {
 447:.\Generated_Source\PSoC5/Code_Bar.c ****                     Code_Bar_rxBufferLoopDetect = 0u;
 549              		.loc 1 447 0
 550 0050 094B     		ldr	r3, .L33+8
 551 0052 0022     		movs	r2, #0
 552 0054 1A70     		strb	r2, [r3]
 445:.\Generated_Source\PSoC5/Code_Bar.c ****                 {
 553              		.loc 1 445 0
 554 0056 03E0     		b	.L31
 555              	.L30:
 556 0058 02E0     		b	.L31
 557              	.L28:
 448:.\Generated_Source\PSoC5/Code_Bar.c ****                     #if( (Code_Bar_RX_INTERRUPT_ENABLED) && (Code_Bar_FLOW_CONTROL != 0u) && \
 449:.\Generated_Source\PSoC5/Code_Bar.c ****                          (Code_Bar_RXBUFFERSIZE > Code_Bar_FIFO_LENGTH) )
 450:.\Generated_Source\PSoC5/Code_Bar.c ****                         /* When Hardware Flow Control selected - return RX mask */
 451:.\Generated_Source\PSoC5/Code_Bar.c ****                         #if( Code_Bar_HD_ENABLED )
 452:.\Generated_Source\PSoC5/Code_Bar.c ****                             if((Code_Bar_CONTROL_REG & Code_Bar_CTRL_HD_SEND) == 0u)
 453:.\Generated_Source\PSoC5/Code_Bar.c ****                             {   /* In Half duplex mode return RX mask only in RX
 454:.\Generated_Source\PSoC5/Code_Bar.c ****                                 *  configuration set, otherwise
 455:.\Generated_Source\PSoC5/Code_Bar.c ****                                 *  mask will be returned in LoadRxConfig() API.
 456:.\Generated_Source\PSoC5/Code_Bar.c ****                                 */
 457:.\Generated_Source\PSoC5/Code_Bar.c ****                                 Code_Bar_RXSTATUS_MASK_REG  |= Code_Bar_RX_STS_FIFO_NOTEMPTY;
 458:.\Generated_Source\PSoC5/Code_Bar.c ****                             }
 459:.\Generated_Source\PSoC5/Code_Bar.c ****                         #else
 460:.\Generated_Source\PSoC5/Code_Bar.c ****                             Code_Bar_RXSTATUS_MASK_REG  |= Code_Bar_RX_STS_FIFO_NOTEMPTY;
 461:.\Generated_Source\PSoC5/Code_Bar.c ****                         #endif /* end Code_Bar_HD_ENABLED */
 462:.\Generated_Source\PSoC5/Code_Bar.c ****                     #endif /* Code_Bar_RX_INTERRUPT_ENABLED and Hardware flow control*/
 463:.\Generated_Source\PSoC5/Code_Bar.c ****                 }
 464:.\Generated_Source\PSoC5/Code_Bar.c ****             }
 465:.\Generated_Source\PSoC5/Code_Bar.c ****             else
 466:.\Generated_Source\PSoC5/Code_Bar.c ****             {   /* Needs to check status for RX_STS_FIFO_NOTEMPTY bit*/
 467:.\Generated_Source\PSoC5/Code_Bar.c ****                 rxData = Code_Bar_RXDATA_REG;
 558              		.loc 1 467 0
ARM GAS  C:\Users\Lenovo\AppData\Local\Temp\ccp7JJIV.s 			page 19


 559 005a 094B     		ldr	r3, .L33+16
 560 005c 1B78     		ldrb	r3, [r3]
 561 005e FB71     		strb	r3, [r7, #7]
 562              	.L31:
 468:.\Generated_Source\PSoC5/Code_Bar.c ****             }
 469:.\Generated_Source\PSoC5/Code_Bar.c **** 
 470:.\Generated_Source\PSoC5/Code_Bar.c ****             /* Enable Rx interrupt. */
 471:.\Generated_Source\PSoC5/Code_Bar.c ****             #if(Code_Bar_RX_INTERRUPT_ENABLED)
 472:.\Generated_Source\PSoC5/Code_Bar.c ****                 Code_Bar_EnableRxInt();
 563              		.loc 1 472 0
 564 0060 FFF7FEFF 		bl	Code_Bar_EnableRxInt
 473:.\Generated_Source\PSoC5/Code_Bar.c ****             #endif /* End Code_Bar_RX_INTERRUPT_ENABLED */
 474:.\Generated_Source\PSoC5/Code_Bar.c **** 
 475:.\Generated_Source\PSoC5/Code_Bar.c ****         #else /* Code_Bar_RXBUFFERSIZE > Code_Bar_FIFO_LENGTH */
 476:.\Generated_Source\PSoC5/Code_Bar.c **** 
 477:.\Generated_Source\PSoC5/Code_Bar.c ****             /* Needs to check status for RX_STS_FIFO_NOTEMPTY bit*/
 478:.\Generated_Source\PSoC5/Code_Bar.c ****             rxData = Code_Bar_RXDATA_REG;
 479:.\Generated_Source\PSoC5/Code_Bar.c **** 
 480:.\Generated_Source\PSoC5/Code_Bar.c ****         #endif /* Code_Bar_RXBUFFERSIZE > Code_Bar_FIFO_LENGTH */
 481:.\Generated_Source\PSoC5/Code_Bar.c **** 
 482:.\Generated_Source\PSoC5/Code_Bar.c ****         return(rxData);
 565              		.loc 1 482 0
 566 0064 FB79     		ldrb	r3, [r7, #7]	@ zero_extendqisi2
 483:.\Generated_Source\PSoC5/Code_Bar.c ****     }
 567              		.loc 1 483 0
 568 0066 1846     		mov	r0, r3
 569 0068 0837     		adds	r7, r7, #8
 570              		.cfi_def_cfa_offset 8
 571 006a BD46     		mov	sp, r7
 572              		.cfi_def_cfa_register 13
 573              		@ sp needed
 574 006c 80BD     		pop	{r7, pc}
 575              	.L34:
 576 006e 00BF     		.align	2
 577              	.L33:
 578 0070 00000000 		.word	Code_Bar_rxBufferRead
 579 0074 00000000 		.word	Code_Bar_rxBufferWrite
 580 0078 00000000 		.word	Code_Bar_rxBufferLoopDetect
 581 007c 00000000 		.word	Code_Bar_rxBuffer
 582 0080 47640040 		.word	1073767495
 583              		.cfi_endproc
 584              	.LFE9:
 585              		.size	Code_Bar_ReadRxData, .-Code_Bar_ReadRxData
 586              		.section	.text.Code_Bar_ReadRxStatus,"ax",%progbits
 587              		.align	2
 588              		.global	Code_Bar_ReadRxStatus
 589              		.thumb
 590              		.thumb_func
 591              		.type	Code_Bar_ReadRxStatus, %function
 592              	Code_Bar_ReadRxStatus:
 593              	.LFB10:
 484:.\Generated_Source\PSoC5/Code_Bar.c **** 
 485:.\Generated_Source\PSoC5/Code_Bar.c **** 
 486:.\Generated_Source\PSoC5/Code_Bar.c ****     /*******************************************************************************
 487:.\Generated_Source\PSoC5/Code_Bar.c ****     * Function Name: Code_Bar_ReadRxStatus
 488:.\Generated_Source\PSoC5/Code_Bar.c ****     ********************************************************************************
 489:.\Generated_Source\PSoC5/Code_Bar.c ****     *
ARM GAS  C:\Users\Lenovo\AppData\Local\Temp\ccp7JJIV.s 			page 20


 490:.\Generated_Source\PSoC5/Code_Bar.c ****     * Summary:
 491:.\Generated_Source\PSoC5/Code_Bar.c ****     *  Read the current state of the status register
 492:.\Generated_Source\PSoC5/Code_Bar.c ****     *  And detect software buffer overflow.
 493:.\Generated_Source\PSoC5/Code_Bar.c ****     *
 494:.\Generated_Source\PSoC5/Code_Bar.c ****     * Parameters:
 495:.\Generated_Source\PSoC5/Code_Bar.c ****     *  None.
 496:.\Generated_Source\PSoC5/Code_Bar.c ****     *
 497:.\Generated_Source\PSoC5/Code_Bar.c ****     * Return:
 498:.\Generated_Source\PSoC5/Code_Bar.c ****     *  Current state of the status register.
 499:.\Generated_Source\PSoC5/Code_Bar.c ****     *
 500:.\Generated_Source\PSoC5/Code_Bar.c ****     * Global Variables:
 501:.\Generated_Source\PSoC5/Code_Bar.c ****     *  Code_Bar_rxBufferOverflow - used to indicate overload condition.
 502:.\Generated_Source\PSoC5/Code_Bar.c ****     *   It set to one in RX interrupt when there isn?t free space in
 503:.\Generated_Source\PSoC5/Code_Bar.c ****     *   Code_Bar_rxBufferRead to write new data. This condition returned
 504:.\Generated_Source\PSoC5/Code_Bar.c ****     *   and cleared to zero by this API as an
 505:.\Generated_Source\PSoC5/Code_Bar.c ****     *   Code_Bar_RX_STS_SOFT_BUFF_OVER bit along with RX Status register
 506:.\Generated_Source\PSoC5/Code_Bar.c ****     *   bits.
 507:.\Generated_Source\PSoC5/Code_Bar.c ****     *
 508:.\Generated_Source\PSoC5/Code_Bar.c ****     *******************************************************************************/
 509:.\Generated_Source\PSoC5/Code_Bar.c ****     uint8 Code_Bar_ReadRxStatus(void) 
 510:.\Generated_Source\PSoC5/Code_Bar.c ****     {
 594              		.loc 1 510 0
 595              		.cfi_startproc
 596              		@ args = 0, pretend = 0, frame = 8
 597              		@ frame_needed = 1, uses_anonymous_args = 0
 598              		@ link register save eliminated.
 599 0000 80B4     		push	{r7}
 600              		.cfi_def_cfa_offset 4
 601              		.cfi_offset 7, -4
 602 0002 83B0     		sub	sp, sp, #12
 603              		.cfi_def_cfa_offset 16
 604 0004 00AF     		add	r7, sp, #0
 605              		.cfi_def_cfa_register 7
 511:.\Generated_Source\PSoC5/Code_Bar.c ****         uint8 status;
 512:.\Generated_Source\PSoC5/Code_Bar.c **** 
 513:.\Generated_Source\PSoC5/Code_Bar.c ****         status = Code_Bar_RXSTATUS_REG & Code_Bar_RX_HW_MASK;
 606              		.loc 1 513 0
 607 0006 0C4B     		ldr	r3, .L38
 608 0008 1B78     		ldrb	r3, [r3]
 609 000a DBB2     		uxtb	r3, r3
 610 000c 03F07F03 		and	r3, r3, #127
 611 0010 FB71     		strb	r3, [r7, #7]
 514:.\Generated_Source\PSoC5/Code_Bar.c **** 
 515:.\Generated_Source\PSoC5/Code_Bar.c ****         #if(Code_Bar_RXBUFFERSIZE > Code_Bar_FIFO_LENGTH)
 516:.\Generated_Source\PSoC5/Code_Bar.c ****             if( Code_Bar_rxBufferOverflow != 0u )
 612              		.loc 1 516 0
 613 0012 0A4B     		ldr	r3, .L38+4
 614 0014 1B78     		ldrb	r3, [r3]
 615 0016 DBB2     		uxtb	r3, r3
 616 0018 002B     		cmp	r3, #0
 617 001a 06D0     		beq	.L36
 517:.\Generated_Source\PSoC5/Code_Bar.c ****             {
 518:.\Generated_Source\PSoC5/Code_Bar.c ****                 status |= Code_Bar_RX_STS_SOFT_BUFF_OVER;
 618              		.loc 1 518 0
 619 001c FB79     		ldrb	r3, [r7, #7]
 620 001e 63F07F03 		orn	r3, r3, #127
 621 0022 FB71     		strb	r3, [r7, #7]
ARM GAS  C:\Users\Lenovo\AppData\Local\Temp\ccp7JJIV.s 			page 21


 519:.\Generated_Source\PSoC5/Code_Bar.c ****                 Code_Bar_rxBufferOverflow = 0u;
 622              		.loc 1 519 0
 623 0024 054B     		ldr	r3, .L38+4
 624 0026 0022     		movs	r2, #0
 625 0028 1A70     		strb	r2, [r3]
 626              	.L36:
 520:.\Generated_Source\PSoC5/Code_Bar.c ****             }
 521:.\Generated_Source\PSoC5/Code_Bar.c ****         #endif /* Code_Bar_RXBUFFERSIZE */
 522:.\Generated_Source\PSoC5/Code_Bar.c **** 
 523:.\Generated_Source\PSoC5/Code_Bar.c ****         return(status);
 627              		.loc 1 523 0
 628 002a FB79     		ldrb	r3, [r7, #7]	@ zero_extendqisi2
 524:.\Generated_Source\PSoC5/Code_Bar.c ****     }
 629              		.loc 1 524 0
 630 002c 1846     		mov	r0, r3
 631 002e 0C37     		adds	r7, r7, #12
 632              		.cfi_def_cfa_offset 4
 633 0030 BD46     		mov	sp, r7
 634              		.cfi_def_cfa_register 13
 635              		@ sp needed
 636 0032 5DF8047B 		ldr	r7, [sp], #4
 637              		.cfi_restore 7
 638              		.cfi_def_cfa_offset 0
 639 0036 7047     		bx	lr
 640              	.L39:
 641              		.align	2
 642              	.L38:
 643 0038 66640040 		.word	1073767526
 644 003c 00000000 		.word	Code_Bar_rxBufferOverflow
 645              		.cfi_endproc
 646              	.LFE10:
 647              		.size	Code_Bar_ReadRxStatus, .-Code_Bar_ReadRxStatus
 648              		.section	.text.Code_Bar_GetChar,"ax",%progbits
 649              		.align	2
 650              		.global	Code_Bar_GetChar
 651              		.thumb
 652              		.thumb_func
 653              		.type	Code_Bar_GetChar, %function
 654              	Code_Bar_GetChar:
 655              	.LFB11:
 525:.\Generated_Source\PSoC5/Code_Bar.c **** 
 526:.\Generated_Source\PSoC5/Code_Bar.c **** 
 527:.\Generated_Source\PSoC5/Code_Bar.c ****     /*******************************************************************************
 528:.\Generated_Source\PSoC5/Code_Bar.c ****     * Function Name: Code_Bar_GetChar
 529:.\Generated_Source\PSoC5/Code_Bar.c ****     ********************************************************************************
 530:.\Generated_Source\PSoC5/Code_Bar.c ****     *
 531:.\Generated_Source\PSoC5/Code_Bar.c ****     * Summary:
 532:.\Generated_Source\PSoC5/Code_Bar.c ****     *  Reads UART RX buffer immediately, if data is not available or an error
 533:.\Generated_Source\PSoC5/Code_Bar.c ****     *  condition exists, zero is returned; otherwise, character is read and
 534:.\Generated_Source\PSoC5/Code_Bar.c ****     *  returned.
 535:.\Generated_Source\PSoC5/Code_Bar.c ****     *
 536:.\Generated_Source\PSoC5/Code_Bar.c ****     * Parameters:
 537:.\Generated_Source\PSoC5/Code_Bar.c ****     *  None.
 538:.\Generated_Source\PSoC5/Code_Bar.c ****     *
 539:.\Generated_Source\PSoC5/Code_Bar.c ****     * Return:
 540:.\Generated_Source\PSoC5/Code_Bar.c ****     *  Character read from UART RX buffer. ASCII characters from 1 to 255 are valid.
 541:.\Generated_Source\PSoC5/Code_Bar.c ****     *  A returned zero signifies an error condition or no data available.
ARM GAS  C:\Users\Lenovo\AppData\Local\Temp\ccp7JJIV.s 			page 22


 542:.\Generated_Source\PSoC5/Code_Bar.c ****     *
 543:.\Generated_Source\PSoC5/Code_Bar.c ****     * Global Variables:
 544:.\Generated_Source\PSoC5/Code_Bar.c ****     *  Code_Bar_rxBuffer - RAM buffer pointer for save received data.
 545:.\Generated_Source\PSoC5/Code_Bar.c ****     *  Code_Bar_rxBufferWrite - cyclic index for write to rxBuffer,
 546:.\Generated_Source\PSoC5/Code_Bar.c ****     *     checked to identify new data.
 547:.\Generated_Source\PSoC5/Code_Bar.c ****     *  Code_Bar_rxBufferRead - cyclic index for read from rxBuffer,
 548:.\Generated_Source\PSoC5/Code_Bar.c ****     *     incremented after each byte has been read from buffer.
 549:.\Generated_Source\PSoC5/Code_Bar.c ****     *  Code_Bar_rxBufferLoopDetect - creared if loop condition was detected
 550:.\Generated_Source\PSoC5/Code_Bar.c ****     *     in RX ISR.
 551:.\Generated_Source\PSoC5/Code_Bar.c ****     *
 552:.\Generated_Source\PSoC5/Code_Bar.c ****     * Reentrant:
 553:.\Generated_Source\PSoC5/Code_Bar.c ****     *  No.
 554:.\Generated_Source\PSoC5/Code_Bar.c ****     *
 555:.\Generated_Source\PSoC5/Code_Bar.c ****     *******************************************************************************/
 556:.\Generated_Source\PSoC5/Code_Bar.c ****     uint8 Code_Bar_GetChar(void) 
 557:.\Generated_Source\PSoC5/Code_Bar.c ****     {
 656              		.loc 1 557 0
 657              		.cfi_startproc
 658              		@ args = 0, pretend = 0, frame = 8
 659              		@ frame_needed = 1, uses_anonymous_args = 0
 660 0000 80B5     		push	{r7, lr}
 661              		.cfi_def_cfa_offset 8
 662              		.cfi_offset 7, -8
 663              		.cfi_offset 14, -4
 664 0002 82B0     		sub	sp, sp, #8
 665              		.cfi_def_cfa_offset 16
 666 0004 00AF     		add	r7, sp, #0
 667              		.cfi_def_cfa_register 7
 558:.\Generated_Source\PSoC5/Code_Bar.c ****         uint8 rxData = 0u;
 668              		.loc 1 558 0
 669 0006 0023     		movs	r3, #0
 670 0008 FB71     		strb	r3, [r7, #7]
 559:.\Generated_Source\PSoC5/Code_Bar.c ****         uint8 rxStatus;
 560:.\Generated_Source\PSoC5/Code_Bar.c **** 
 561:.\Generated_Source\PSoC5/Code_Bar.c ****         #if(Code_Bar_RXBUFFERSIZE > Code_Bar_FIFO_LENGTH)
 562:.\Generated_Source\PSoC5/Code_Bar.c ****             uint16 loc_rxBufferRead;
 563:.\Generated_Source\PSoC5/Code_Bar.c ****             uint16 loc_rxBufferWrite;
 564:.\Generated_Source\PSoC5/Code_Bar.c ****             /* Protect variables that could change on interrupt. */
 565:.\Generated_Source\PSoC5/Code_Bar.c ****             /* Disable Rx interrupt. */
 566:.\Generated_Source\PSoC5/Code_Bar.c ****             #if(Code_Bar_RX_INTERRUPT_ENABLED)
 567:.\Generated_Source\PSoC5/Code_Bar.c ****                 Code_Bar_DisableRxInt();
 671              		.loc 1 567 0
 672 000a FFF7FEFF 		bl	Code_Bar_DisableRxInt
 568:.\Generated_Source\PSoC5/Code_Bar.c ****             #endif /* Code_Bar_RX_INTERRUPT_ENABLED */
 569:.\Generated_Source\PSoC5/Code_Bar.c ****             loc_rxBufferRead = Code_Bar_rxBufferRead;
 673              		.loc 1 569 0
 674 000e 204B     		ldr	r3, .L47
 675 0010 1B88     		ldrh	r3, [r3]	@ movhi
 676 0012 BB80     		strh	r3, [r7, #4]	@ movhi
 570:.\Generated_Source\PSoC5/Code_Bar.c ****             loc_rxBufferWrite = Code_Bar_rxBufferWrite;
 677              		.loc 1 570 0
 678 0014 1F4B     		ldr	r3, .L47+4
 679 0016 1B88     		ldrh	r3, [r3]	@ movhi
 680 0018 7B80     		strh	r3, [r7, #2]	@ movhi
 571:.\Generated_Source\PSoC5/Code_Bar.c **** 
 572:.\Generated_Source\PSoC5/Code_Bar.c ****             if( (Code_Bar_rxBufferLoopDetect != 0u) || (loc_rxBufferRead != loc_rxBufferWrite) )
 681              		.loc 1 572 0
ARM GAS  C:\Users\Lenovo\AppData\Local\Temp\ccp7JJIV.s 			page 23


 682 001a 1F4B     		ldr	r3, .L47+8
 683 001c 1B78     		ldrb	r3, [r3]
 684 001e DBB2     		uxtb	r3, r3
 685 0020 002B     		cmp	r3, #0
 686 0022 03D1     		bne	.L41
 687              		.loc 1 572 0 is_stmt 0 discriminator 1
 688 0024 BA88     		ldrh	r2, [r7, #4]
 689 0026 7B88     		ldrh	r3, [r7, #2]
 690 0028 9A42     		cmp	r2, r3
 691 002a 18D0     		beq	.L42
 692              	.L41:
 573:.\Generated_Source\PSoC5/Code_Bar.c ****             {
 574:.\Generated_Source\PSoC5/Code_Bar.c ****                 rxData = Code_Bar_rxBuffer[loc_rxBufferRead];
 693              		.loc 1 574 0 is_stmt 1
 694 002c BB88     		ldrh	r3, [r7, #4]
 695 002e 1B4A     		ldr	r2, .L47+12
 696 0030 D35C     		ldrb	r3, [r2, r3]
 697 0032 FB71     		strb	r3, [r7, #7]
 575:.\Generated_Source\PSoC5/Code_Bar.c ****                 loc_rxBufferRead++;
 698              		.loc 1 575 0
 699 0034 BB88     		ldrh	r3, [r7, #4]
 700 0036 0133     		adds	r3, r3, #1
 701 0038 BB80     		strh	r3, [r7, #4]	@ movhi
 576:.\Generated_Source\PSoC5/Code_Bar.c ****                 if(loc_rxBufferRead >= Code_Bar_RXBUFFERSIZE)
 702              		.loc 1 576 0
 703 003a BB88     		ldrh	r3, [r7, #4]
 704 003c FF2B     		cmp	r3, #255
 705 003e 01D9     		bls	.L43
 577:.\Generated_Source\PSoC5/Code_Bar.c ****                 {
 578:.\Generated_Source\PSoC5/Code_Bar.c ****                     loc_rxBufferRead = 0u;
 706              		.loc 1 578 0
 707 0040 0023     		movs	r3, #0
 708 0042 BB80     		strh	r3, [r7, #4]	@ movhi
 709              	.L43:
 579:.\Generated_Source\PSoC5/Code_Bar.c ****                 }
 580:.\Generated_Source\PSoC5/Code_Bar.c ****                 /* Update the real pointer */
 581:.\Generated_Source\PSoC5/Code_Bar.c ****                 Code_Bar_rxBufferRead = loc_rxBufferRead;
 710              		.loc 1 581 0
 711 0044 124A     		ldr	r2, .L47
 712 0046 BB88     		ldrh	r3, [r7, #4]	@ movhi
 713 0048 1380     		strh	r3, [r2]	@ movhi
 582:.\Generated_Source\PSoC5/Code_Bar.c **** 
 583:.\Generated_Source\PSoC5/Code_Bar.c ****                 if(Code_Bar_rxBufferLoopDetect > 0u )
 714              		.loc 1 583 0
 715 004a 134B     		ldr	r3, .L47+8
 716 004c 1B78     		ldrb	r3, [r3]
 717 004e DBB2     		uxtb	r3, r3
 718 0050 002B     		cmp	r3, #0
 719 0052 03D0     		beq	.L44
 584:.\Generated_Source\PSoC5/Code_Bar.c ****                 {
 585:.\Generated_Source\PSoC5/Code_Bar.c ****                     Code_Bar_rxBufferLoopDetect = 0u;
 720              		.loc 1 585 0
 721 0054 104B     		ldr	r3, .L47+8
 722 0056 0022     		movs	r2, #0
 723 0058 1A70     		strb	r2, [r3]
 583:.\Generated_Source\PSoC5/Code_Bar.c ****                 {
 724              		.loc 1 583 0
ARM GAS  C:\Users\Lenovo\AppData\Local\Temp\ccp7JJIV.s 			page 24


 725 005a 12E0     		b	.L45
 726              	.L44:
 727 005c 11E0     		b	.L45
 728              	.L42:
 586:.\Generated_Source\PSoC5/Code_Bar.c ****                     #if( (Code_Bar_RX_INTERRUPT_ENABLED) && (Code_Bar_FLOW_CONTROL != 0u) )
 587:.\Generated_Source\PSoC5/Code_Bar.c ****                         /* When Hardware Flow Control selected - return RX mask */
 588:.\Generated_Source\PSoC5/Code_Bar.c ****                         #if( Code_Bar_HD_ENABLED )
 589:.\Generated_Source\PSoC5/Code_Bar.c ****                             if((Code_Bar_CONTROL_REG & Code_Bar_CTRL_HD_SEND) == 0u)
 590:.\Generated_Source\PSoC5/Code_Bar.c ****                             {   /* In Half duplex mode return RX mask only if
 591:.\Generated_Source\PSoC5/Code_Bar.c ****                                 *  RX configuration set, otherwise
 592:.\Generated_Source\PSoC5/Code_Bar.c ****                                 *  mask will be returned in LoadRxConfig() API.
 593:.\Generated_Source\PSoC5/Code_Bar.c ****                                 */
 594:.\Generated_Source\PSoC5/Code_Bar.c ****                                 Code_Bar_RXSTATUS_MASK_REG  |= Code_Bar_RX_STS_FIFO_NOTEMPTY;
 595:.\Generated_Source\PSoC5/Code_Bar.c ****                             }
 596:.\Generated_Source\PSoC5/Code_Bar.c ****                         #else
 597:.\Generated_Source\PSoC5/Code_Bar.c ****                             Code_Bar_RXSTATUS_MASK_REG  |= Code_Bar_RX_STS_FIFO_NOTEMPTY;
 598:.\Generated_Source\PSoC5/Code_Bar.c ****                         #endif /* end Code_Bar_HD_ENABLED */
 599:.\Generated_Source\PSoC5/Code_Bar.c ****                     #endif /* Code_Bar_RX_INTERRUPT_ENABLED and Hardware flow control*/
 600:.\Generated_Source\PSoC5/Code_Bar.c ****                 }
 601:.\Generated_Source\PSoC5/Code_Bar.c **** 
 602:.\Generated_Source\PSoC5/Code_Bar.c ****             }
 603:.\Generated_Source\PSoC5/Code_Bar.c ****             else
 604:.\Generated_Source\PSoC5/Code_Bar.c ****             {   rxStatus = Code_Bar_RXSTATUS_REG;
 729              		.loc 1 604 0
 730 005e 104B     		ldr	r3, .L47+16
 731 0060 1B78     		ldrb	r3, [r3]
 732 0062 7B70     		strb	r3, [r7, #1]
 605:.\Generated_Source\PSoC5/Code_Bar.c ****                 if((rxStatus & Code_Bar_RX_STS_FIFO_NOTEMPTY) != 0u)
 733              		.loc 1 605 0
 734 0064 7B78     		ldrb	r3, [r7, #1]	@ zero_extendqisi2
 735 0066 03F02003 		and	r3, r3, #32
 736 006a 002B     		cmp	r3, #0
 737 006c 09D0     		beq	.L45
 606:.\Generated_Source\PSoC5/Code_Bar.c ****                 {   /* Read received data from FIFO*/
 607:.\Generated_Source\PSoC5/Code_Bar.c ****                     rxData = Code_Bar_RXDATA_REG;
 738              		.loc 1 607 0
 739 006e 0D4B     		ldr	r3, .L47+20
 740 0070 1B78     		ldrb	r3, [r3]
 741 0072 FB71     		strb	r3, [r7, #7]
 608:.\Generated_Source\PSoC5/Code_Bar.c ****                     /*Check status on error*/
 609:.\Generated_Source\PSoC5/Code_Bar.c ****                     if((rxStatus & (Code_Bar_RX_STS_BREAK | Code_Bar_RX_STS_PAR_ERROR |
 610:.\Generated_Source\PSoC5/Code_Bar.c ****                                    Code_Bar_RX_STS_STOP_ERROR | Code_Bar_RX_STS_OVERRUN)) != 0u)
 742              		.loc 1 610 0
 743 0074 7B78     		ldrb	r3, [r7, #1]	@ zero_extendqisi2
 744 0076 03F01E03 		and	r3, r3, #30
 609:.\Generated_Source\PSoC5/Code_Bar.c ****                                    Code_Bar_RX_STS_STOP_ERROR | Code_Bar_RX_STS_OVERRUN)) != 0u)
 745              		.loc 1 609 0
 746 007a 002B     		cmp	r3, #0
 747 007c 01D0     		beq	.L45
 611:.\Generated_Source\PSoC5/Code_Bar.c ****                     {
 612:.\Generated_Source\PSoC5/Code_Bar.c ****                         rxData = 0u;
 748              		.loc 1 612 0
 749 007e 0023     		movs	r3, #0
 750 0080 FB71     		strb	r3, [r7, #7]
 751              	.L45:
 613:.\Generated_Source\PSoC5/Code_Bar.c ****                     }
 614:.\Generated_Source\PSoC5/Code_Bar.c ****                 }
ARM GAS  C:\Users\Lenovo\AppData\Local\Temp\ccp7JJIV.s 			page 25


 615:.\Generated_Source\PSoC5/Code_Bar.c ****             }
 616:.\Generated_Source\PSoC5/Code_Bar.c **** 
 617:.\Generated_Source\PSoC5/Code_Bar.c ****             /* Enable Rx interrupt. */
 618:.\Generated_Source\PSoC5/Code_Bar.c ****             #if(Code_Bar_RX_INTERRUPT_ENABLED)
 619:.\Generated_Source\PSoC5/Code_Bar.c ****                 Code_Bar_EnableRxInt();
 752              		.loc 1 619 0
 753 0082 FFF7FEFF 		bl	Code_Bar_EnableRxInt
 620:.\Generated_Source\PSoC5/Code_Bar.c ****             #endif /* Code_Bar_RX_INTERRUPT_ENABLED */
 621:.\Generated_Source\PSoC5/Code_Bar.c **** 
 622:.\Generated_Source\PSoC5/Code_Bar.c ****         #else /* Code_Bar_RXBUFFERSIZE > Code_Bar_FIFO_LENGTH */
 623:.\Generated_Source\PSoC5/Code_Bar.c **** 
 624:.\Generated_Source\PSoC5/Code_Bar.c ****             rxStatus =Code_Bar_RXSTATUS_REG;
 625:.\Generated_Source\PSoC5/Code_Bar.c ****             if((rxStatus & Code_Bar_RX_STS_FIFO_NOTEMPTY) != 0u)
 626:.\Generated_Source\PSoC5/Code_Bar.c ****             {   /* Read received data from FIFO*/
 627:.\Generated_Source\PSoC5/Code_Bar.c ****                 rxData = Code_Bar_RXDATA_REG;
 628:.\Generated_Source\PSoC5/Code_Bar.c ****                 /*Check status on error*/
 629:.\Generated_Source\PSoC5/Code_Bar.c ****                 if((rxStatus & (Code_Bar_RX_STS_BREAK | Code_Bar_RX_STS_PAR_ERROR |
 630:.\Generated_Source\PSoC5/Code_Bar.c ****                                Code_Bar_RX_STS_STOP_ERROR | Code_Bar_RX_STS_OVERRUN)) != 0u)
 631:.\Generated_Source\PSoC5/Code_Bar.c ****                 {
 632:.\Generated_Source\PSoC5/Code_Bar.c ****                     rxData = 0u;
 633:.\Generated_Source\PSoC5/Code_Bar.c ****                 }
 634:.\Generated_Source\PSoC5/Code_Bar.c ****             }
 635:.\Generated_Source\PSoC5/Code_Bar.c ****         #endif /* Code_Bar_RXBUFFERSIZE > Code_Bar_FIFO_LENGTH */
 636:.\Generated_Source\PSoC5/Code_Bar.c **** 
 637:.\Generated_Source\PSoC5/Code_Bar.c ****         return(rxData);
 754              		.loc 1 637 0
 755 0086 FB79     		ldrb	r3, [r7, #7]	@ zero_extendqisi2
 638:.\Generated_Source\PSoC5/Code_Bar.c ****     }
 756              		.loc 1 638 0
 757 0088 1846     		mov	r0, r3
 758 008a 0837     		adds	r7, r7, #8
 759              		.cfi_def_cfa_offset 8
 760 008c BD46     		mov	sp, r7
 761              		.cfi_def_cfa_register 13
 762              		@ sp needed
 763 008e 80BD     		pop	{r7, pc}
 764              	.L48:
 765              		.align	2
 766              	.L47:
 767 0090 00000000 		.word	Code_Bar_rxBufferRead
 768 0094 00000000 		.word	Code_Bar_rxBufferWrite
 769 0098 00000000 		.word	Code_Bar_rxBufferLoopDetect
 770 009c 00000000 		.word	Code_Bar_rxBuffer
 771 00a0 66640040 		.word	1073767526
 772 00a4 47640040 		.word	1073767495
 773              		.cfi_endproc
 774              	.LFE11:
 775              		.size	Code_Bar_GetChar, .-Code_Bar_GetChar
 776              		.section	.text.Code_Bar_GetByte,"ax",%progbits
 777              		.align	2
 778              		.global	Code_Bar_GetByte
 779              		.thumb
 780              		.thumb_func
 781              		.type	Code_Bar_GetByte, %function
 782              	Code_Bar_GetByte:
 783              	.LFB12:
 639:.\Generated_Source\PSoC5/Code_Bar.c **** 
ARM GAS  C:\Users\Lenovo\AppData\Local\Temp\ccp7JJIV.s 			page 26


 640:.\Generated_Source\PSoC5/Code_Bar.c **** 
 641:.\Generated_Source\PSoC5/Code_Bar.c ****     /*******************************************************************************
 642:.\Generated_Source\PSoC5/Code_Bar.c ****     * Function Name: Code_Bar_GetByte
 643:.\Generated_Source\PSoC5/Code_Bar.c ****     ********************************************************************************
 644:.\Generated_Source\PSoC5/Code_Bar.c ****     *
 645:.\Generated_Source\PSoC5/Code_Bar.c ****     * Summary:
 646:.\Generated_Source\PSoC5/Code_Bar.c ****     *  Grab the next available byte of data from the recieve FIFO
 647:.\Generated_Source\PSoC5/Code_Bar.c ****     *
 648:.\Generated_Source\PSoC5/Code_Bar.c ****     * Parameters:
 649:.\Generated_Source\PSoC5/Code_Bar.c ****     *  None.
 650:.\Generated_Source\PSoC5/Code_Bar.c ****     *
 651:.\Generated_Source\PSoC5/Code_Bar.c ****     * Return:
 652:.\Generated_Source\PSoC5/Code_Bar.c ****     *  MSB contains Status Register and LSB contains UART RX data
 653:.\Generated_Source\PSoC5/Code_Bar.c ****     *
 654:.\Generated_Source\PSoC5/Code_Bar.c ****     * Reentrant:
 655:.\Generated_Source\PSoC5/Code_Bar.c ****     *  No.
 656:.\Generated_Source\PSoC5/Code_Bar.c ****     *
 657:.\Generated_Source\PSoC5/Code_Bar.c ****     *******************************************************************************/
 658:.\Generated_Source\PSoC5/Code_Bar.c ****     uint16 Code_Bar_GetByte(void) 
 659:.\Generated_Source\PSoC5/Code_Bar.c ****     {
 784              		.loc 1 659 0
 785              		.cfi_startproc
 786              		@ args = 0, pretend = 0, frame = 0
 787              		@ frame_needed = 1, uses_anonymous_args = 0
 788 0000 98B5     		push	{r3, r4, r7, lr}
 789              		.cfi_def_cfa_offset 16
 790              		.cfi_offset 3, -16
 791              		.cfi_offset 4, -12
 792              		.cfi_offset 7, -8
 793              		.cfi_offset 14, -4
 794 0002 00AF     		add	r7, sp, #0
 795              		.cfi_def_cfa_register 7
 660:.\Generated_Source\PSoC5/Code_Bar.c ****         return ( ((uint16)Code_Bar_ReadRxStatus() << 8u) | Code_Bar_ReadRxData() );
 796              		.loc 1 660 0
 797 0004 FFF7FEFF 		bl	Code_Bar_ReadRxStatus
 798 0008 0346     		mov	r3, r0
 799 000a 1B02     		lsls	r3, r3, #8
 800 000c 9CB2     		uxth	r4, r3
 801 000e FFF7FEFF 		bl	Code_Bar_ReadRxData
 802 0012 0346     		mov	r3, r0
 803 0014 9BB2     		uxth	r3, r3
 804 0016 2246     		mov	r2, r4	@ movhi
 805 0018 1343     		orrs	r3, r3, r2
 806 001a 9BB2     		uxth	r3, r3
 807 001c 9BB2     		uxth	r3, r3
 661:.\Generated_Source\PSoC5/Code_Bar.c ****     }
 808              		.loc 1 661 0
 809 001e 1846     		mov	r0, r3
 810 0020 98BD     		pop	{r3, r4, r7, pc}
 811              		.cfi_endproc
 812              	.LFE12:
 813              		.size	Code_Bar_GetByte, .-Code_Bar_GetByte
 814 0022 00BF     		.section	.text.Code_Bar_GetRxBufferSize,"ax",%progbits
 815              		.align	2
 816              		.global	Code_Bar_GetRxBufferSize
 817              		.thumb
 818              		.thumb_func
ARM GAS  C:\Users\Lenovo\AppData\Local\Temp\ccp7JJIV.s 			page 27


 819              		.type	Code_Bar_GetRxBufferSize, %function
 820              	Code_Bar_GetRxBufferSize:
 821              	.LFB13:
 662:.\Generated_Source\PSoC5/Code_Bar.c **** 
 663:.\Generated_Source\PSoC5/Code_Bar.c **** 
 664:.\Generated_Source\PSoC5/Code_Bar.c ****     /*******************************************************************************
 665:.\Generated_Source\PSoC5/Code_Bar.c ****     * Function Name: Code_Bar_GetRxBufferSize
 666:.\Generated_Source\PSoC5/Code_Bar.c ****     ********************************************************************************
 667:.\Generated_Source\PSoC5/Code_Bar.c ****     *
 668:.\Generated_Source\PSoC5/Code_Bar.c ****     * Summary:
 669:.\Generated_Source\PSoC5/Code_Bar.c ****     *  Determine the amount of bytes left in the RX buffer and return the count in
 670:.\Generated_Source\PSoC5/Code_Bar.c ****     *  bytes
 671:.\Generated_Source\PSoC5/Code_Bar.c ****     *
 672:.\Generated_Source\PSoC5/Code_Bar.c ****     * Parameters:
 673:.\Generated_Source\PSoC5/Code_Bar.c ****     *  None.
 674:.\Generated_Source\PSoC5/Code_Bar.c ****     *
 675:.\Generated_Source\PSoC5/Code_Bar.c ****     * Return:
 676:.\Generated_Source\PSoC5/Code_Bar.c ****     *  uint16: Integer count of the number of bytes left
 677:.\Generated_Source\PSoC5/Code_Bar.c ****     *  in the RX buffer
 678:.\Generated_Source\PSoC5/Code_Bar.c ****     *
 679:.\Generated_Source\PSoC5/Code_Bar.c ****     * Global Variables:
 680:.\Generated_Source\PSoC5/Code_Bar.c ****     *  Code_Bar_rxBufferWrite - used to calculate left bytes.
 681:.\Generated_Source\PSoC5/Code_Bar.c ****     *  Code_Bar_rxBufferRead - used to calculate left bytes.
 682:.\Generated_Source\PSoC5/Code_Bar.c ****     *  Code_Bar_rxBufferLoopDetect - checked to decide left bytes amount.
 683:.\Generated_Source\PSoC5/Code_Bar.c ****     *
 684:.\Generated_Source\PSoC5/Code_Bar.c ****     * Reentrant:
 685:.\Generated_Source\PSoC5/Code_Bar.c ****     *  No.
 686:.\Generated_Source\PSoC5/Code_Bar.c ****     *
 687:.\Generated_Source\PSoC5/Code_Bar.c ****     * Theory:
 688:.\Generated_Source\PSoC5/Code_Bar.c ****     *  Allows the user to find out how full the RX Buffer is.
 689:.\Generated_Source\PSoC5/Code_Bar.c ****     *
 690:.\Generated_Source\PSoC5/Code_Bar.c ****     *******************************************************************************/
 691:.\Generated_Source\PSoC5/Code_Bar.c ****     uint16 Code_Bar_GetRxBufferSize(void)
 692:.\Generated_Source\PSoC5/Code_Bar.c ****                                                             
 693:.\Generated_Source\PSoC5/Code_Bar.c ****     {
 822              		.loc 1 693 0
 823              		.cfi_startproc
 824              		@ args = 0, pretend = 0, frame = 8
 825              		@ frame_needed = 1, uses_anonymous_args = 0
 826 0000 80B5     		push	{r7, lr}
 827              		.cfi_def_cfa_offset 8
 828              		.cfi_offset 7, -8
 829              		.cfi_offset 14, -4
 830 0002 82B0     		sub	sp, sp, #8
 831              		.cfi_def_cfa_offset 16
 832 0004 00AF     		add	r7, sp, #0
 833              		.cfi_def_cfa_register 7
 694:.\Generated_Source\PSoC5/Code_Bar.c ****         uint16 size;
 695:.\Generated_Source\PSoC5/Code_Bar.c **** 
 696:.\Generated_Source\PSoC5/Code_Bar.c ****         #if(Code_Bar_RXBUFFERSIZE > Code_Bar_FIFO_LENGTH)
 697:.\Generated_Source\PSoC5/Code_Bar.c **** 
 698:.\Generated_Source\PSoC5/Code_Bar.c ****             /* Disable Rx interrupt. */
 699:.\Generated_Source\PSoC5/Code_Bar.c ****             /* Protect variables that could change on interrupt. */
 700:.\Generated_Source\PSoC5/Code_Bar.c ****             #if(Code_Bar_RX_INTERRUPT_ENABLED)
 701:.\Generated_Source\PSoC5/Code_Bar.c ****                 Code_Bar_DisableRxInt();
 834              		.loc 1 701 0
 835 0006 FFF7FEFF 		bl	Code_Bar_DisableRxInt
ARM GAS  C:\Users\Lenovo\AppData\Local\Temp\ccp7JJIV.s 			page 28


 702:.\Generated_Source\PSoC5/Code_Bar.c ****             #endif /* Code_Bar_RX_INTERRUPT_ENABLED */
 703:.\Generated_Source\PSoC5/Code_Bar.c **** 
 704:.\Generated_Source\PSoC5/Code_Bar.c ****             if(Code_Bar_rxBufferRead == Code_Bar_rxBufferWrite)
 836              		.loc 1 704 0
 837 000a 1B4B     		ldr	r3, .L58
 838 000c 1B88     		ldrh	r3, [r3]	@ movhi
 839 000e 9AB2     		uxth	r2, r3
 840 0010 1A4B     		ldr	r3, .L58+4
 841 0012 1B88     		ldrh	r3, [r3]	@ movhi
 842 0014 9BB2     		uxth	r3, r3
 843 0016 9A42     		cmp	r2, r3
 844 0018 0BD1     		bne	.L52
 705:.\Generated_Source\PSoC5/Code_Bar.c ****             {
 706:.\Generated_Source\PSoC5/Code_Bar.c ****                 if(Code_Bar_rxBufferLoopDetect > 0u)
 845              		.loc 1 706 0
 846 001a 194B     		ldr	r3, .L58+8
 847 001c 1B78     		ldrb	r3, [r3]
 848 001e DBB2     		uxtb	r3, r3
 849 0020 002B     		cmp	r3, #0
 850 0022 03D0     		beq	.L53
 707:.\Generated_Source\PSoC5/Code_Bar.c ****                 {
 708:.\Generated_Source\PSoC5/Code_Bar.c ****                     size = Code_Bar_RXBUFFERSIZE;
 851              		.loc 1 708 0
 852 0024 4FF48073 		mov	r3, #256
 853 0028 FB80     		strh	r3, [r7, #6]	@ movhi
 854 002a 1EE0     		b	.L55
 855              	.L53:
 709:.\Generated_Source\PSoC5/Code_Bar.c ****                 }
 710:.\Generated_Source\PSoC5/Code_Bar.c ****                 else
 711:.\Generated_Source\PSoC5/Code_Bar.c ****                 {
 712:.\Generated_Source\PSoC5/Code_Bar.c ****                     size = 0u;
 856              		.loc 1 712 0
 857 002c 0023     		movs	r3, #0
 858 002e FB80     		strh	r3, [r7, #6]	@ movhi
 859 0030 1BE0     		b	.L55
 860              	.L52:
 713:.\Generated_Source\PSoC5/Code_Bar.c ****                 }
 714:.\Generated_Source\PSoC5/Code_Bar.c ****             }
 715:.\Generated_Source\PSoC5/Code_Bar.c ****             else if(Code_Bar_rxBufferRead < Code_Bar_rxBufferWrite)
 861              		.loc 1 715 0
 862 0032 114B     		ldr	r3, .L58
 863 0034 1B88     		ldrh	r3, [r3]	@ movhi
 864 0036 9AB2     		uxth	r2, r3
 865 0038 104B     		ldr	r3, .L58+4
 866 003a 1B88     		ldrh	r3, [r3]	@ movhi
 867 003c 9BB2     		uxth	r3, r3
 868 003e 9A42     		cmp	r2, r3
 869 0040 08D2     		bcs	.L56
 716:.\Generated_Source\PSoC5/Code_Bar.c ****             {
 717:.\Generated_Source\PSoC5/Code_Bar.c ****                 size = (Code_Bar_rxBufferWrite - Code_Bar_rxBufferRead);
 870              		.loc 1 717 0
 871 0042 0E4B     		ldr	r3, .L58+4
 872 0044 1B88     		ldrh	r3, [r3]	@ movhi
 873 0046 9AB2     		uxth	r2, r3
 874 0048 0B4B     		ldr	r3, .L58
 875 004a 1B88     		ldrh	r3, [r3]	@ movhi
 876 004c 9BB2     		uxth	r3, r3
ARM GAS  C:\Users\Lenovo\AppData\Local\Temp\ccp7JJIV.s 			page 29


 877 004e D31A     		subs	r3, r2, r3
 878 0050 FB80     		strh	r3, [r7, #6]	@ movhi
 879 0052 0AE0     		b	.L55
 880              	.L56:
 718:.\Generated_Source\PSoC5/Code_Bar.c ****             }
 719:.\Generated_Source\PSoC5/Code_Bar.c ****             else
 720:.\Generated_Source\PSoC5/Code_Bar.c ****             {
 721:.\Generated_Source\PSoC5/Code_Bar.c ****                 size = (Code_Bar_RXBUFFERSIZE - Code_Bar_rxBufferRead) + Code_Bar_rxBufferWrite;
 881              		.loc 1 721 0
 882 0054 094B     		ldr	r3, .L58+4
 883 0056 1B88     		ldrh	r3, [r3]	@ movhi
 884 0058 9AB2     		uxth	r2, r3
 885 005a 074B     		ldr	r3, .L58
 886 005c 1B88     		ldrh	r3, [r3]	@ movhi
 887 005e 9BB2     		uxth	r3, r3
 888 0060 D31A     		subs	r3, r2, r3
 889 0062 9BB2     		uxth	r3, r3
 890 0064 03F58073 		add	r3, r3, #256
 891 0068 FB80     		strh	r3, [r7, #6]	@ movhi
 892              	.L55:
 722:.\Generated_Source\PSoC5/Code_Bar.c ****             }
 723:.\Generated_Source\PSoC5/Code_Bar.c **** 
 724:.\Generated_Source\PSoC5/Code_Bar.c ****             /* Enable Rx interrupt. */
 725:.\Generated_Source\PSoC5/Code_Bar.c ****             #if(Code_Bar_RX_INTERRUPT_ENABLED)
 726:.\Generated_Source\PSoC5/Code_Bar.c ****                 Code_Bar_EnableRxInt();
 893              		.loc 1 726 0
 894 006a FFF7FEFF 		bl	Code_Bar_EnableRxInt
 727:.\Generated_Source\PSoC5/Code_Bar.c ****             #endif /* End Code_Bar_RX_INTERRUPT_ENABLED */
 728:.\Generated_Source\PSoC5/Code_Bar.c **** 
 729:.\Generated_Source\PSoC5/Code_Bar.c ****         #else /* Code_Bar_RXBUFFERSIZE > Code_Bar_FIFO_LENGTH */
 730:.\Generated_Source\PSoC5/Code_Bar.c **** 
 731:.\Generated_Source\PSoC5/Code_Bar.c ****             /* We can only know if there is data in the fifo. */
 732:.\Generated_Source\PSoC5/Code_Bar.c ****             size = ((Code_Bar_RXSTATUS_REG & Code_Bar_RX_STS_FIFO_NOTEMPTY) != 0u) ? 1u : 0u;
 733:.\Generated_Source\PSoC5/Code_Bar.c **** 
 734:.\Generated_Source\PSoC5/Code_Bar.c ****         #endif /* End Code_Bar_RXBUFFERSIZE > Code_Bar_FIFO_LENGTH */
 735:.\Generated_Source\PSoC5/Code_Bar.c **** 
 736:.\Generated_Source\PSoC5/Code_Bar.c ****         return(size);
 895              		.loc 1 736 0
 896 006e FB88     		ldrh	r3, [r7, #6]
 737:.\Generated_Source\PSoC5/Code_Bar.c ****     }
 897              		.loc 1 737 0
 898 0070 1846     		mov	r0, r3
 899 0072 0837     		adds	r7, r7, #8
 900              		.cfi_def_cfa_offset 8
 901 0074 BD46     		mov	sp, r7
 902              		.cfi_def_cfa_register 13
 903              		@ sp needed
 904 0076 80BD     		pop	{r7, pc}
 905              	.L59:
 906              		.align	2
 907              	.L58:
 908 0078 00000000 		.word	Code_Bar_rxBufferRead
 909 007c 00000000 		.word	Code_Bar_rxBufferWrite
 910 0080 00000000 		.word	Code_Bar_rxBufferLoopDetect
 911              		.cfi_endproc
 912              	.LFE13:
 913              		.size	Code_Bar_GetRxBufferSize, .-Code_Bar_GetRxBufferSize
ARM GAS  C:\Users\Lenovo\AppData\Local\Temp\ccp7JJIV.s 			page 30


 914              		.section	.text.Code_Bar_ClearRxBuffer,"ax",%progbits
 915              		.align	2
 916              		.global	Code_Bar_ClearRxBuffer
 917              		.thumb
 918              		.thumb_func
 919              		.type	Code_Bar_ClearRxBuffer, %function
 920              	Code_Bar_ClearRxBuffer:
 921              	.LFB14:
 738:.\Generated_Source\PSoC5/Code_Bar.c **** 
 739:.\Generated_Source\PSoC5/Code_Bar.c **** 
 740:.\Generated_Source\PSoC5/Code_Bar.c ****     /*******************************************************************************
 741:.\Generated_Source\PSoC5/Code_Bar.c ****     * Function Name: Code_Bar_ClearRxBuffer
 742:.\Generated_Source\PSoC5/Code_Bar.c ****     ********************************************************************************
 743:.\Generated_Source\PSoC5/Code_Bar.c ****     *
 744:.\Generated_Source\PSoC5/Code_Bar.c ****     * Summary:
 745:.\Generated_Source\PSoC5/Code_Bar.c ****     *  Clears the RX RAM buffer by setting the read and write pointers both to zero.
 746:.\Generated_Source\PSoC5/Code_Bar.c ****     *  Clears hardware RX FIFO.
 747:.\Generated_Source\PSoC5/Code_Bar.c ****     *
 748:.\Generated_Source\PSoC5/Code_Bar.c ****     * Parameters:
 749:.\Generated_Source\PSoC5/Code_Bar.c ****     *  None.
 750:.\Generated_Source\PSoC5/Code_Bar.c ****     *
 751:.\Generated_Source\PSoC5/Code_Bar.c ****     * Return:
 752:.\Generated_Source\PSoC5/Code_Bar.c ****     *  None.
 753:.\Generated_Source\PSoC5/Code_Bar.c ****     *
 754:.\Generated_Source\PSoC5/Code_Bar.c ****     * Global Variables:
 755:.\Generated_Source\PSoC5/Code_Bar.c ****     *  Code_Bar_rxBufferWrite - cleared to zero.
 756:.\Generated_Source\PSoC5/Code_Bar.c ****     *  Code_Bar_rxBufferRead - cleared to zero.
 757:.\Generated_Source\PSoC5/Code_Bar.c ****     *  Code_Bar_rxBufferLoopDetect - cleared to zero.
 758:.\Generated_Source\PSoC5/Code_Bar.c ****     *  Code_Bar_rxBufferOverflow - cleared to zero.
 759:.\Generated_Source\PSoC5/Code_Bar.c ****     *
 760:.\Generated_Source\PSoC5/Code_Bar.c ****     * Reentrant:
 761:.\Generated_Source\PSoC5/Code_Bar.c ****     *  No.
 762:.\Generated_Source\PSoC5/Code_Bar.c ****     *
 763:.\Generated_Source\PSoC5/Code_Bar.c ****     * Theory:
 764:.\Generated_Source\PSoC5/Code_Bar.c ****     *  Setting the pointers to zero makes the system believe there is no data to
 765:.\Generated_Source\PSoC5/Code_Bar.c ****     *  read and writing will resume at address 0 overwriting any data that may
 766:.\Generated_Source\PSoC5/Code_Bar.c ****     *  have remained in the RAM.
 767:.\Generated_Source\PSoC5/Code_Bar.c ****     *
 768:.\Generated_Source\PSoC5/Code_Bar.c ****     * Side Effects:
 769:.\Generated_Source\PSoC5/Code_Bar.c ****     *  Any received data not read from the RAM or FIFO buffer will be lost.
 770:.\Generated_Source\PSoC5/Code_Bar.c ****     *******************************************************************************/
 771:.\Generated_Source\PSoC5/Code_Bar.c ****     void Code_Bar_ClearRxBuffer(void) 
 772:.\Generated_Source\PSoC5/Code_Bar.c ****     {
 922              		.loc 1 772 0
 923              		.cfi_startproc
 924              		@ args = 0, pretend = 0, frame = 8
 925              		@ frame_needed = 1, uses_anonymous_args = 0
 926 0000 80B5     		push	{r7, lr}
 927              		.cfi_def_cfa_offset 8
 928              		.cfi_offset 7, -8
 929              		.cfi_offset 14, -4
 930 0002 82B0     		sub	sp, sp, #8
 931              		.cfi_def_cfa_offset 16
 932 0004 00AF     		add	r7, sp, #0
 933              		.cfi_def_cfa_register 7
 773:.\Generated_Source\PSoC5/Code_Bar.c ****         uint8 enableInterrupts;
 774:.\Generated_Source\PSoC5/Code_Bar.c **** 
ARM GAS  C:\Users\Lenovo\AppData\Local\Temp\ccp7JJIV.s 			page 31


 775:.\Generated_Source\PSoC5/Code_Bar.c ****         /* clear the HW FIFO */
 776:.\Generated_Source\PSoC5/Code_Bar.c ****         /* Enter critical section */
 777:.\Generated_Source\PSoC5/Code_Bar.c ****         enableInterrupts = CyEnterCriticalSection();
 934              		.loc 1 777 0
 935 0006 FFF7FEFF 		bl	CyEnterCriticalSection
 936 000a 0346     		mov	r3, r0
 937 000c FB71     		strb	r3, [r7, #7]
 778:.\Generated_Source\PSoC5/Code_Bar.c ****         Code_Bar_RXDATA_AUX_CTL_REG |=  Code_Bar_RX_FIFO_CLR;
 938              		.loc 1 778 0
 939 000e 134A     		ldr	r2, .L61
 940 0010 124B     		ldr	r3, .L61
 941 0012 1B78     		ldrb	r3, [r3]
 942 0014 DBB2     		uxtb	r3, r3
 943 0016 43F00103 		orr	r3, r3, #1
 944 001a DBB2     		uxtb	r3, r3
 945 001c 1370     		strb	r3, [r2]
 779:.\Generated_Source\PSoC5/Code_Bar.c ****         Code_Bar_RXDATA_AUX_CTL_REG &= (uint8)~Code_Bar_RX_FIFO_CLR;
 946              		.loc 1 779 0
 947 001e 0F4A     		ldr	r2, .L61
 948 0020 0E4B     		ldr	r3, .L61
 949 0022 1B78     		ldrb	r3, [r3]
 950 0024 DBB2     		uxtb	r3, r3
 951 0026 23F00103 		bic	r3, r3, #1
 952 002a DBB2     		uxtb	r3, r3
 953 002c 1370     		strb	r3, [r2]
 780:.\Generated_Source\PSoC5/Code_Bar.c ****         /* Exit critical section */
 781:.\Generated_Source\PSoC5/Code_Bar.c ****         CyExitCriticalSection(enableInterrupts);
 954              		.loc 1 781 0
 955 002e FB79     		ldrb	r3, [r7, #7]	@ zero_extendqisi2
 956 0030 1846     		mov	r0, r3
 957 0032 FFF7FEFF 		bl	CyExitCriticalSection
 782:.\Generated_Source\PSoC5/Code_Bar.c **** 
 783:.\Generated_Source\PSoC5/Code_Bar.c ****         #if(Code_Bar_RXBUFFERSIZE > Code_Bar_FIFO_LENGTH)
 784:.\Generated_Source\PSoC5/Code_Bar.c ****             /* Disable Rx interrupt. */
 785:.\Generated_Source\PSoC5/Code_Bar.c ****             /* Protect variables that could change on interrupt. */
 786:.\Generated_Source\PSoC5/Code_Bar.c ****             #if(Code_Bar_RX_INTERRUPT_ENABLED)
 787:.\Generated_Source\PSoC5/Code_Bar.c ****                 Code_Bar_DisableRxInt();
 958              		.loc 1 787 0
 959 0036 FFF7FEFF 		bl	Code_Bar_DisableRxInt
 788:.\Generated_Source\PSoC5/Code_Bar.c ****             #endif /* End Code_Bar_RX_INTERRUPT_ENABLED */
 789:.\Generated_Source\PSoC5/Code_Bar.c **** 
 790:.\Generated_Source\PSoC5/Code_Bar.c ****             Code_Bar_rxBufferRead = 0u;
 960              		.loc 1 790 0
 961 003a 094B     		ldr	r3, .L61+4
 962 003c 0022     		movs	r2, #0
 963 003e 1A80     		strh	r2, [r3]	@ movhi
 791:.\Generated_Source\PSoC5/Code_Bar.c ****             Code_Bar_rxBufferWrite = 0u;
 964              		.loc 1 791 0
 965 0040 084B     		ldr	r3, .L61+8
 966 0042 0022     		movs	r2, #0
 967 0044 1A80     		strh	r2, [r3]	@ movhi
 792:.\Generated_Source\PSoC5/Code_Bar.c ****             Code_Bar_rxBufferLoopDetect = 0u;
 968              		.loc 1 792 0
 969 0046 084B     		ldr	r3, .L61+12
 970 0048 0022     		movs	r2, #0
 971 004a 1A70     		strb	r2, [r3]
 793:.\Generated_Source\PSoC5/Code_Bar.c ****             Code_Bar_rxBufferOverflow = 0u;
ARM GAS  C:\Users\Lenovo\AppData\Local\Temp\ccp7JJIV.s 			page 32


 972              		.loc 1 793 0
 973 004c 074B     		ldr	r3, .L61+16
 974 004e 0022     		movs	r2, #0
 975 0050 1A70     		strb	r2, [r3]
 794:.\Generated_Source\PSoC5/Code_Bar.c **** 
 795:.\Generated_Source\PSoC5/Code_Bar.c ****             /* Enable Rx interrupt. */
 796:.\Generated_Source\PSoC5/Code_Bar.c ****             #if(Code_Bar_RX_INTERRUPT_ENABLED)
 797:.\Generated_Source\PSoC5/Code_Bar.c ****                 Code_Bar_EnableRxInt();
 976              		.loc 1 797 0
 977 0052 FFF7FEFF 		bl	Code_Bar_EnableRxInt
 798:.\Generated_Source\PSoC5/Code_Bar.c ****             #endif /* End Code_Bar_RX_INTERRUPT_ENABLED */
 799:.\Generated_Source\PSoC5/Code_Bar.c ****         #endif /* End Code_Bar_RXBUFFERSIZE > Code_Bar_FIFO_LENGTH */
 800:.\Generated_Source\PSoC5/Code_Bar.c **** 
 801:.\Generated_Source\PSoC5/Code_Bar.c ****     }
 978              		.loc 1 801 0
 979 0056 0837     		adds	r7, r7, #8
 980              		.cfi_def_cfa_offset 8
 981 0058 BD46     		mov	sp, r7
 982              		.cfi_def_cfa_register 13
 983              		@ sp needed
 984 005a 80BD     		pop	{r7, pc}
 985              	.L62:
 986              		.align	2
 987              	.L61:
 988 005c 97640040 		.word	1073767575
 989 0060 00000000 		.word	Code_Bar_rxBufferRead
 990 0064 00000000 		.word	Code_Bar_rxBufferWrite
 991 0068 00000000 		.word	Code_Bar_rxBufferLoopDetect
 992 006c 00000000 		.word	Code_Bar_rxBufferOverflow
 993              		.cfi_endproc
 994              	.LFE14:
 995              		.size	Code_Bar_ClearRxBuffer, .-Code_Bar_ClearRxBuffer
 996              		.section	.text.Code_Bar_SetRxAddressMode,"ax",%progbits
 997              		.align	2
 998              		.global	Code_Bar_SetRxAddressMode
 999              		.thumb
 1000              		.thumb_func
 1001              		.type	Code_Bar_SetRxAddressMode, %function
 1002              	Code_Bar_SetRxAddressMode:
 1003              	.LFB15:
 802:.\Generated_Source\PSoC5/Code_Bar.c **** 
 803:.\Generated_Source\PSoC5/Code_Bar.c **** 
 804:.\Generated_Source\PSoC5/Code_Bar.c ****     /*******************************************************************************
 805:.\Generated_Source\PSoC5/Code_Bar.c ****     * Function Name: Code_Bar_SetRxAddressMode
 806:.\Generated_Source\PSoC5/Code_Bar.c ****     ********************************************************************************
 807:.\Generated_Source\PSoC5/Code_Bar.c ****     *
 808:.\Generated_Source\PSoC5/Code_Bar.c ****     * Summary:
 809:.\Generated_Source\PSoC5/Code_Bar.c ****     *  Set the receive addressing mode
 810:.\Generated_Source\PSoC5/Code_Bar.c ****     *
 811:.\Generated_Source\PSoC5/Code_Bar.c ****     * Parameters:
 812:.\Generated_Source\PSoC5/Code_Bar.c ****     *  addressMode: Enumerated value indicating the mode of RX addressing
 813:.\Generated_Source\PSoC5/Code_Bar.c ****     *  Code_Bar__B_UART__AM_SW_BYTE_BYTE -  Software Byte-by-Byte address
 814:.\Generated_Source\PSoC5/Code_Bar.c ****     *                                               detection
 815:.\Generated_Source\PSoC5/Code_Bar.c ****     *  Code_Bar__B_UART__AM_SW_DETECT_TO_BUFFER - Software Detect to Buffer
 816:.\Generated_Source\PSoC5/Code_Bar.c ****     *                                               address detection
 817:.\Generated_Source\PSoC5/Code_Bar.c ****     *  Code_Bar__B_UART__AM_HW_BYTE_BY_BYTE - Hardware Byte-by-Byte address
 818:.\Generated_Source\PSoC5/Code_Bar.c ****     *                                               detection
ARM GAS  C:\Users\Lenovo\AppData\Local\Temp\ccp7JJIV.s 			page 33


 819:.\Generated_Source\PSoC5/Code_Bar.c ****     *  Code_Bar__B_UART__AM_HW_DETECT_TO_BUFFER - Hardware Detect to Buffer
 820:.\Generated_Source\PSoC5/Code_Bar.c ****     *                                               address detection
 821:.\Generated_Source\PSoC5/Code_Bar.c ****     *  Code_Bar__B_UART__AM_NONE - No address detection
 822:.\Generated_Source\PSoC5/Code_Bar.c ****     *
 823:.\Generated_Source\PSoC5/Code_Bar.c ****     * Return:
 824:.\Generated_Source\PSoC5/Code_Bar.c ****     *  None.
 825:.\Generated_Source\PSoC5/Code_Bar.c ****     *
 826:.\Generated_Source\PSoC5/Code_Bar.c ****     * Global Variables:
 827:.\Generated_Source\PSoC5/Code_Bar.c ****     *  Code_Bar_rxAddressMode - the parameter stored in this variable for
 828:.\Generated_Source\PSoC5/Code_Bar.c ****     *   the farther usage in RX ISR.
 829:.\Generated_Source\PSoC5/Code_Bar.c ****     *  Code_Bar_rxAddressDetected - set to initial state (0).
 830:.\Generated_Source\PSoC5/Code_Bar.c ****     *
 831:.\Generated_Source\PSoC5/Code_Bar.c ****     *******************************************************************************/
 832:.\Generated_Source\PSoC5/Code_Bar.c ****     void Code_Bar_SetRxAddressMode(uint8 addressMode)
 833:.\Generated_Source\PSoC5/Code_Bar.c ****                                                         
 834:.\Generated_Source\PSoC5/Code_Bar.c ****     {
 1004              		.loc 1 834 0
 1005              		.cfi_startproc
 1006              		@ args = 0, pretend = 0, frame = 8
 1007              		@ frame_needed = 1, uses_anonymous_args = 0
 1008              		@ link register save eliminated.
 1009 0000 80B4     		push	{r7}
 1010              		.cfi_def_cfa_offset 4
 1011              		.cfi_offset 7, -4
 1012 0002 83B0     		sub	sp, sp, #12
 1013              		.cfi_def_cfa_offset 16
 1014 0004 00AF     		add	r7, sp, #0
 1015              		.cfi_def_cfa_register 7
 1016 0006 0346     		mov	r3, r0
 1017 0008 FB71     		strb	r3, [r7, #7]
 835:.\Generated_Source\PSoC5/Code_Bar.c ****         #if(Code_Bar_RXHW_ADDRESS_ENABLED)
 836:.\Generated_Source\PSoC5/Code_Bar.c ****             #if(Code_Bar_CONTROL_REG_REMOVED)
 837:.\Generated_Source\PSoC5/Code_Bar.c ****                 if(addressMode != 0u) { }     /* release compiler warning */
 838:.\Generated_Source\PSoC5/Code_Bar.c ****             #else /* Code_Bar_CONTROL_REG_REMOVED */
 839:.\Generated_Source\PSoC5/Code_Bar.c ****                 uint8 tmpCtrl;
 840:.\Generated_Source\PSoC5/Code_Bar.c ****                 tmpCtrl = Code_Bar_CONTROL_REG & (uint8)~Code_Bar_CTRL_RXADDR_MODE_MASK;
 841:.\Generated_Source\PSoC5/Code_Bar.c ****                 tmpCtrl |= (uint8)(addressMode << Code_Bar_CTRL_RXADDR_MODE0_SHIFT);
 842:.\Generated_Source\PSoC5/Code_Bar.c ****                 Code_Bar_CONTROL_REG = tmpCtrl;
 843:.\Generated_Source\PSoC5/Code_Bar.c ****                 #if(Code_Bar_RX_INTERRUPT_ENABLED && \
 844:.\Generated_Source\PSoC5/Code_Bar.c ****                    (Code_Bar_RXBUFFERSIZE > Code_Bar_FIFO_LENGTH) )
 845:.\Generated_Source\PSoC5/Code_Bar.c ****                     Code_Bar_rxAddressMode = addressMode;
 846:.\Generated_Source\PSoC5/Code_Bar.c ****                     Code_Bar_rxAddressDetected = 0u;
 847:.\Generated_Source\PSoC5/Code_Bar.c ****                 #endif /* End Code_Bar_RXBUFFERSIZE > Code_Bar_FIFO_LENGTH*/
 848:.\Generated_Source\PSoC5/Code_Bar.c ****             #endif /* End Code_Bar_CONTROL_REG_REMOVED */
 849:.\Generated_Source\PSoC5/Code_Bar.c ****         #else /* Code_Bar_RXHW_ADDRESS_ENABLED */
 850:.\Generated_Source\PSoC5/Code_Bar.c ****             if(addressMode != 0u) { }     /* release compiler warning */
 851:.\Generated_Source\PSoC5/Code_Bar.c ****         #endif /* End Code_Bar_RXHW_ADDRESS_ENABLED */
 852:.\Generated_Source\PSoC5/Code_Bar.c ****     }
 1018              		.loc 1 852 0
 1019 000a 0C37     		adds	r7, r7, #12
 1020              		.cfi_def_cfa_offset 4
 1021 000c BD46     		mov	sp, r7
 1022              		.cfi_def_cfa_register 13
 1023              		@ sp needed
 1024 000e 5DF8047B 		ldr	r7, [sp], #4
 1025              		.cfi_restore 7
 1026              		.cfi_def_cfa_offset 0
ARM GAS  C:\Users\Lenovo\AppData\Local\Temp\ccp7JJIV.s 			page 34


 1027 0012 7047     		bx	lr
 1028              		.cfi_endproc
 1029              	.LFE15:
 1030              		.size	Code_Bar_SetRxAddressMode, .-Code_Bar_SetRxAddressMode
 1031              		.section	.text.Code_Bar_SetRxAddress1,"ax",%progbits
 1032              		.align	2
 1033              		.global	Code_Bar_SetRxAddress1
 1034              		.thumb
 1035              		.thumb_func
 1036              		.type	Code_Bar_SetRxAddress1, %function
 1037              	Code_Bar_SetRxAddress1:
 1038              	.LFB16:
 853:.\Generated_Source\PSoC5/Code_Bar.c **** 
 854:.\Generated_Source\PSoC5/Code_Bar.c **** 
 855:.\Generated_Source\PSoC5/Code_Bar.c ****     /*******************************************************************************
 856:.\Generated_Source\PSoC5/Code_Bar.c ****     * Function Name: Code_Bar_SetRxAddress1
 857:.\Generated_Source\PSoC5/Code_Bar.c ****     ********************************************************************************
 858:.\Generated_Source\PSoC5/Code_Bar.c ****     *
 859:.\Generated_Source\PSoC5/Code_Bar.c ****     * Summary:
 860:.\Generated_Source\PSoC5/Code_Bar.c ****     *  Set the first hardware address compare value
 861:.\Generated_Source\PSoC5/Code_Bar.c ****     *
 862:.\Generated_Source\PSoC5/Code_Bar.c ****     * Parameters:
 863:.\Generated_Source\PSoC5/Code_Bar.c ****     *  address
 864:.\Generated_Source\PSoC5/Code_Bar.c ****     *
 865:.\Generated_Source\PSoC5/Code_Bar.c ****     * Return:
 866:.\Generated_Source\PSoC5/Code_Bar.c ****     *  None.
 867:.\Generated_Source\PSoC5/Code_Bar.c ****     *
 868:.\Generated_Source\PSoC5/Code_Bar.c ****     *******************************************************************************/
 869:.\Generated_Source\PSoC5/Code_Bar.c ****     void Code_Bar_SetRxAddress1(uint8 address) 
 870:.\Generated_Source\PSoC5/Code_Bar.c **** 
 871:.\Generated_Source\PSoC5/Code_Bar.c ****     {
 1039              		.loc 1 871 0
 1040              		.cfi_startproc
 1041              		@ args = 0, pretend = 0, frame = 8
 1042              		@ frame_needed = 1, uses_anonymous_args = 0
 1043              		@ link register save eliminated.
 1044 0000 80B4     		push	{r7}
 1045              		.cfi_def_cfa_offset 4
 1046              		.cfi_offset 7, -4
 1047 0002 83B0     		sub	sp, sp, #12
 1048              		.cfi_def_cfa_offset 16
 1049 0004 00AF     		add	r7, sp, #0
 1050              		.cfi_def_cfa_register 7
 1051 0006 0346     		mov	r3, r0
 1052 0008 FB71     		strb	r3, [r7, #7]
 872:.\Generated_Source\PSoC5/Code_Bar.c ****         Code_Bar_RXADDRESS1_REG = address;
 1053              		.loc 1 872 0
 1054 000a 044A     		ldr	r2, .L65
 1055 000c FB79     		ldrb	r3, [r7, #7]
 1056 000e 1370     		strb	r3, [r2]
 873:.\Generated_Source\PSoC5/Code_Bar.c ****     }
 1057              		.loc 1 873 0
 1058 0010 0C37     		adds	r7, r7, #12
 1059              		.cfi_def_cfa_offset 4
 1060 0012 BD46     		mov	sp, r7
 1061              		.cfi_def_cfa_register 13
 1062              		@ sp needed
ARM GAS  C:\Users\Lenovo\AppData\Local\Temp\ccp7JJIV.s 			page 35


 1063 0014 5DF8047B 		ldr	r7, [sp], #4
 1064              		.cfi_restore 7
 1065              		.cfi_def_cfa_offset 0
 1066 0018 7047     		bx	lr
 1067              	.L66:
 1068 001a 00BF     		.align	2
 1069              	.L65:
 1070 001c 27640040 		.word	1073767463
 1071              		.cfi_endproc
 1072              	.LFE16:
 1073              		.size	Code_Bar_SetRxAddress1, .-Code_Bar_SetRxAddress1
 1074              		.section	.text.Code_Bar_SetRxAddress2,"ax",%progbits
 1075              		.align	2
 1076              		.global	Code_Bar_SetRxAddress2
 1077              		.thumb
 1078              		.thumb_func
 1079              		.type	Code_Bar_SetRxAddress2, %function
 1080              	Code_Bar_SetRxAddress2:
 1081              	.LFB17:
 874:.\Generated_Source\PSoC5/Code_Bar.c **** 
 875:.\Generated_Source\PSoC5/Code_Bar.c **** 
 876:.\Generated_Source\PSoC5/Code_Bar.c ****     /*******************************************************************************
 877:.\Generated_Source\PSoC5/Code_Bar.c ****     * Function Name: Code_Bar_SetRxAddress2
 878:.\Generated_Source\PSoC5/Code_Bar.c ****     ********************************************************************************
 879:.\Generated_Source\PSoC5/Code_Bar.c ****     *
 880:.\Generated_Source\PSoC5/Code_Bar.c ****     * Summary:
 881:.\Generated_Source\PSoC5/Code_Bar.c ****     *  Set the second hardware address compare value
 882:.\Generated_Source\PSoC5/Code_Bar.c ****     *
 883:.\Generated_Source\PSoC5/Code_Bar.c ****     * Parameters:
 884:.\Generated_Source\PSoC5/Code_Bar.c ****     *  address
 885:.\Generated_Source\PSoC5/Code_Bar.c ****     *
 886:.\Generated_Source\PSoC5/Code_Bar.c ****     * Return:
 887:.\Generated_Source\PSoC5/Code_Bar.c ****     *  None.
 888:.\Generated_Source\PSoC5/Code_Bar.c ****     *
 889:.\Generated_Source\PSoC5/Code_Bar.c ****     *******************************************************************************/
 890:.\Generated_Source\PSoC5/Code_Bar.c ****     void Code_Bar_SetRxAddress2(uint8 address) 
 891:.\Generated_Source\PSoC5/Code_Bar.c ****     {
 1082              		.loc 1 891 0
 1083              		.cfi_startproc
 1084              		@ args = 0, pretend = 0, frame = 8
 1085              		@ frame_needed = 1, uses_anonymous_args = 0
 1086              		@ link register save eliminated.
 1087 0000 80B4     		push	{r7}
 1088              		.cfi_def_cfa_offset 4
 1089              		.cfi_offset 7, -4
 1090 0002 83B0     		sub	sp, sp, #12
 1091              		.cfi_def_cfa_offset 16
 1092 0004 00AF     		add	r7, sp, #0
 1093              		.cfi_def_cfa_register 7
 1094 0006 0346     		mov	r3, r0
 1095 0008 FB71     		strb	r3, [r7, #7]
 892:.\Generated_Source\PSoC5/Code_Bar.c ****         Code_Bar_RXADDRESS2_REG = address;
 1096              		.loc 1 892 0
 1097 000a 044A     		ldr	r2, .L68
 1098 000c FB79     		ldrb	r3, [r7, #7]
 1099 000e 1370     		strb	r3, [r2]
 893:.\Generated_Source\PSoC5/Code_Bar.c ****     }
ARM GAS  C:\Users\Lenovo\AppData\Local\Temp\ccp7JJIV.s 			page 36


 1100              		.loc 1 893 0
 1101 0010 0C37     		adds	r7, r7, #12
 1102              		.cfi_def_cfa_offset 4
 1103 0012 BD46     		mov	sp, r7
 1104              		.cfi_def_cfa_register 13
 1105              		@ sp needed
 1106 0014 5DF8047B 		ldr	r7, [sp], #4
 1107              		.cfi_restore 7
 1108              		.cfi_def_cfa_offset 0
 1109 0018 7047     		bx	lr
 1110              	.L69:
 1111 001a 00BF     		.align	2
 1112              	.L68:
 1113 001c 37640040 		.word	1073767479
 1114              		.cfi_endproc
 1115              	.LFE17:
 1116              		.size	Code_Bar_SetRxAddress2, .-Code_Bar_SetRxAddress2
 1117              		.section	.text.Code_Bar_SetTxInterruptMode,"ax",%progbits
 1118              		.align	2
 1119              		.global	Code_Bar_SetTxInterruptMode
 1120              		.thumb
 1121              		.thumb_func
 1122              		.type	Code_Bar_SetTxInterruptMode, %function
 1123              	Code_Bar_SetTxInterruptMode:
 1124              	.LFB18:
 894:.\Generated_Source\PSoC5/Code_Bar.c **** 
 895:.\Generated_Source\PSoC5/Code_Bar.c **** #endif  /* Code_Bar_RX_ENABLED || Code_Bar_HD_ENABLED*/
 896:.\Generated_Source\PSoC5/Code_Bar.c **** 
 897:.\Generated_Source\PSoC5/Code_Bar.c **** 
 898:.\Generated_Source\PSoC5/Code_Bar.c **** #if( (Code_Bar_TX_ENABLED) || (Code_Bar_HD_ENABLED) )
 899:.\Generated_Source\PSoC5/Code_Bar.c **** 
 900:.\Generated_Source\PSoC5/Code_Bar.c ****     #if(Code_Bar_TX_INTERRUPT_ENABLED)
 901:.\Generated_Source\PSoC5/Code_Bar.c **** 
 902:.\Generated_Source\PSoC5/Code_Bar.c ****         /*******************************************************************************
 903:.\Generated_Source\PSoC5/Code_Bar.c ****         * Function Name: Code_Bar_EnableTxInt
 904:.\Generated_Source\PSoC5/Code_Bar.c ****         ********************************************************************************
 905:.\Generated_Source\PSoC5/Code_Bar.c ****         *
 906:.\Generated_Source\PSoC5/Code_Bar.c ****         * Summary:
 907:.\Generated_Source\PSoC5/Code_Bar.c ****         *  Enable TX interrupt generation
 908:.\Generated_Source\PSoC5/Code_Bar.c ****         *
 909:.\Generated_Source\PSoC5/Code_Bar.c ****         * Parameters:
 910:.\Generated_Source\PSoC5/Code_Bar.c ****         *  None.
 911:.\Generated_Source\PSoC5/Code_Bar.c ****         *
 912:.\Generated_Source\PSoC5/Code_Bar.c ****         * Return:
 913:.\Generated_Source\PSoC5/Code_Bar.c ****         *  None.
 914:.\Generated_Source\PSoC5/Code_Bar.c ****         *
 915:.\Generated_Source\PSoC5/Code_Bar.c ****         * Theory:
 916:.\Generated_Source\PSoC5/Code_Bar.c ****         *  Enable the interrupt output -or- the interrupt component itself
 917:.\Generated_Source\PSoC5/Code_Bar.c ****         *
 918:.\Generated_Source\PSoC5/Code_Bar.c ****         *******************************************************************************/
 919:.\Generated_Source\PSoC5/Code_Bar.c ****         void Code_Bar_EnableTxInt(void) 
 920:.\Generated_Source\PSoC5/Code_Bar.c ****         {
 921:.\Generated_Source\PSoC5/Code_Bar.c ****             CyIntEnable(Code_Bar_TX_VECT_NUM);
 922:.\Generated_Source\PSoC5/Code_Bar.c ****         }
 923:.\Generated_Source\PSoC5/Code_Bar.c **** 
 924:.\Generated_Source\PSoC5/Code_Bar.c **** 
 925:.\Generated_Source\PSoC5/Code_Bar.c ****         /*******************************************************************************
ARM GAS  C:\Users\Lenovo\AppData\Local\Temp\ccp7JJIV.s 			page 37


 926:.\Generated_Source\PSoC5/Code_Bar.c ****         * Function Name: Code_Bar_DisableTxInt
 927:.\Generated_Source\PSoC5/Code_Bar.c ****         ********************************************************************************
 928:.\Generated_Source\PSoC5/Code_Bar.c ****         *
 929:.\Generated_Source\PSoC5/Code_Bar.c ****         * Summary:
 930:.\Generated_Source\PSoC5/Code_Bar.c ****         *  Disable TX interrupt generation
 931:.\Generated_Source\PSoC5/Code_Bar.c ****         *
 932:.\Generated_Source\PSoC5/Code_Bar.c ****         * Parameters:
 933:.\Generated_Source\PSoC5/Code_Bar.c ****         *  None.
 934:.\Generated_Source\PSoC5/Code_Bar.c ****         *
 935:.\Generated_Source\PSoC5/Code_Bar.c ****         * Return:
 936:.\Generated_Source\PSoC5/Code_Bar.c ****         *  None.
 937:.\Generated_Source\PSoC5/Code_Bar.c ****         *
 938:.\Generated_Source\PSoC5/Code_Bar.c ****         * Theory:
 939:.\Generated_Source\PSoC5/Code_Bar.c ****         *  Disable the interrupt output -or- the interrupt component itself
 940:.\Generated_Source\PSoC5/Code_Bar.c ****         *
 941:.\Generated_Source\PSoC5/Code_Bar.c ****         *******************************************************************************/
 942:.\Generated_Source\PSoC5/Code_Bar.c ****         void Code_Bar_DisableTxInt(void) 
 943:.\Generated_Source\PSoC5/Code_Bar.c ****         {
 944:.\Generated_Source\PSoC5/Code_Bar.c ****             CyIntDisable(Code_Bar_TX_VECT_NUM);
 945:.\Generated_Source\PSoC5/Code_Bar.c ****         }
 946:.\Generated_Source\PSoC5/Code_Bar.c **** 
 947:.\Generated_Source\PSoC5/Code_Bar.c ****     #endif /* Code_Bar_TX_INTERRUPT_ENABLED */
 948:.\Generated_Source\PSoC5/Code_Bar.c **** 
 949:.\Generated_Source\PSoC5/Code_Bar.c **** 
 950:.\Generated_Source\PSoC5/Code_Bar.c ****     /*******************************************************************************
 951:.\Generated_Source\PSoC5/Code_Bar.c ****     * Function Name: Code_Bar_SetTxInterruptMode
 952:.\Generated_Source\PSoC5/Code_Bar.c ****     ********************************************************************************
 953:.\Generated_Source\PSoC5/Code_Bar.c ****     *
 954:.\Generated_Source\PSoC5/Code_Bar.c ****     * Summary:
 955:.\Generated_Source\PSoC5/Code_Bar.c ****     *  Configure which status bits trigger an interrupt event
 956:.\Generated_Source\PSoC5/Code_Bar.c ****     *
 957:.\Generated_Source\PSoC5/Code_Bar.c ****     * Parameters:
 958:.\Generated_Source\PSoC5/Code_Bar.c ****     *  intSrc: An or'd combination of the desired status bit masks (defined in
 959:.\Generated_Source\PSoC5/Code_Bar.c ****     *          the header file)
 960:.\Generated_Source\PSoC5/Code_Bar.c ****     *
 961:.\Generated_Source\PSoC5/Code_Bar.c ****     * Return:
 962:.\Generated_Source\PSoC5/Code_Bar.c ****     *  None.
 963:.\Generated_Source\PSoC5/Code_Bar.c ****     *
 964:.\Generated_Source\PSoC5/Code_Bar.c ****     * Theory:
 965:.\Generated_Source\PSoC5/Code_Bar.c ****     *  Enables the output of specific status bits to the interrupt controller
 966:.\Generated_Source\PSoC5/Code_Bar.c ****     *
 967:.\Generated_Source\PSoC5/Code_Bar.c ****     *******************************************************************************/
 968:.\Generated_Source\PSoC5/Code_Bar.c ****     void Code_Bar_SetTxInterruptMode(uint8 intSrc) 
 969:.\Generated_Source\PSoC5/Code_Bar.c ****     {
 1125              		.loc 1 969 0
 1126              		.cfi_startproc
 1127              		@ args = 0, pretend = 0, frame = 8
 1128              		@ frame_needed = 1, uses_anonymous_args = 0
 1129              		@ link register save eliminated.
 1130 0000 80B4     		push	{r7}
 1131              		.cfi_def_cfa_offset 4
 1132              		.cfi_offset 7, -4
 1133 0002 83B0     		sub	sp, sp, #12
 1134              		.cfi_def_cfa_offset 16
 1135 0004 00AF     		add	r7, sp, #0
 1136              		.cfi_def_cfa_register 7
 1137 0006 0346     		mov	r3, r0
ARM GAS  C:\Users\Lenovo\AppData\Local\Temp\ccp7JJIV.s 			page 38


 1138 0008 FB71     		strb	r3, [r7, #7]
 970:.\Generated_Source\PSoC5/Code_Bar.c ****         Code_Bar_TXSTATUS_MASK_REG = intSrc;
 1139              		.loc 1 970 0
 1140 000a 044A     		ldr	r2, .L71
 1141 000c FB79     		ldrb	r3, [r7, #7]
 1142 000e 1370     		strb	r3, [r2]
 971:.\Generated_Source\PSoC5/Code_Bar.c ****     }
 1143              		.loc 1 971 0
 1144 0010 0C37     		adds	r7, r7, #12
 1145              		.cfi_def_cfa_offset 4
 1146 0012 BD46     		mov	sp, r7
 1147              		.cfi_def_cfa_register 13
 1148              		@ sp needed
 1149 0014 5DF8047B 		ldr	r7, [sp], #4
 1150              		.cfi_restore 7
 1151              		.cfi_def_cfa_offset 0
 1152 0018 7047     		bx	lr
 1153              	.L72:
 1154 001a 00BF     		.align	2
 1155              	.L71:
 1156 001c 8A640040 		.word	1073767562
 1157              		.cfi_endproc
 1158              	.LFE18:
 1159              		.size	Code_Bar_SetTxInterruptMode, .-Code_Bar_SetTxInterruptMode
 1160              		.section	.text.Code_Bar_WriteTxData,"ax",%progbits
 1161              		.align	2
 1162              		.global	Code_Bar_WriteTxData
 1163              		.thumb
 1164              		.thumb_func
 1165              		.type	Code_Bar_WriteTxData, %function
 1166              	Code_Bar_WriteTxData:
 1167              	.LFB19:
 972:.\Generated_Source\PSoC5/Code_Bar.c **** 
 973:.\Generated_Source\PSoC5/Code_Bar.c **** 
 974:.\Generated_Source\PSoC5/Code_Bar.c ****     /*******************************************************************************
 975:.\Generated_Source\PSoC5/Code_Bar.c ****     * Function Name: Code_Bar_WriteTxData
 976:.\Generated_Source\PSoC5/Code_Bar.c ****     ********************************************************************************
 977:.\Generated_Source\PSoC5/Code_Bar.c ****     *
 978:.\Generated_Source\PSoC5/Code_Bar.c ****     * Summary:
 979:.\Generated_Source\PSoC5/Code_Bar.c ****     *  Write a byte of data to the Transmit FIFO or TX buffer to be sent when the
 980:.\Generated_Source\PSoC5/Code_Bar.c ****     *  bus is available. WriteTxData sends a byte without checking for buffer room
 981:.\Generated_Source\PSoC5/Code_Bar.c ****     *  or status. It is up to the user to separately check status.
 982:.\Generated_Source\PSoC5/Code_Bar.c ****     *
 983:.\Generated_Source\PSoC5/Code_Bar.c ****     * Parameters:
 984:.\Generated_Source\PSoC5/Code_Bar.c ****     *  TXDataByte: byte of data to place in the transmit FIFO
 985:.\Generated_Source\PSoC5/Code_Bar.c ****     *
 986:.\Generated_Source\PSoC5/Code_Bar.c ****     * Return:
 987:.\Generated_Source\PSoC5/Code_Bar.c ****     * void
 988:.\Generated_Source\PSoC5/Code_Bar.c ****     *
 989:.\Generated_Source\PSoC5/Code_Bar.c ****     * Global Variables:
 990:.\Generated_Source\PSoC5/Code_Bar.c ****     *  Code_Bar_txBuffer - RAM buffer pointer for save data for transmission
 991:.\Generated_Source\PSoC5/Code_Bar.c ****     *  Code_Bar_txBufferWrite - cyclic index for write to txBuffer,
 992:.\Generated_Source\PSoC5/Code_Bar.c ****     *    incremented after each byte saved to buffer.
 993:.\Generated_Source\PSoC5/Code_Bar.c ****     *  Code_Bar_txBufferRead - cyclic index for read from txBuffer,
 994:.\Generated_Source\PSoC5/Code_Bar.c ****     *    checked to identify the condition to write to FIFO directly or to TX buffer
 995:.\Generated_Source\PSoC5/Code_Bar.c ****     *  Code_Bar_initVar - checked to identify that the component has been
 996:.\Generated_Source\PSoC5/Code_Bar.c ****     *    initialized.
ARM GAS  C:\Users\Lenovo\AppData\Local\Temp\ccp7JJIV.s 			page 39


 997:.\Generated_Source\PSoC5/Code_Bar.c ****     *
 998:.\Generated_Source\PSoC5/Code_Bar.c ****     * Reentrant:
 999:.\Generated_Source\PSoC5/Code_Bar.c ****     *  No.
1000:.\Generated_Source\PSoC5/Code_Bar.c ****     *
1001:.\Generated_Source\PSoC5/Code_Bar.c ****     *******************************************************************************/
1002:.\Generated_Source\PSoC5/Code_Bar.c ****     void Code_Bar_WriteTxData(uint8 txDataByte) 
1003:.\Generated_Source\PSoC5/Code_Bar.c ****     {
 1168              		.loc 1 1003 0
 1169              		.cfi_startproc
 1170              		@ args = 0, pretend = 0, frame = 8
 1171              		@ frame_needed = 1, uses_anonymous_args = 0
 1172              		@ link register save eliminated.
 1173 0000 80B4     		push	{r7}
 1174              		.cfi_def_cfa_offset 4
 1175              		.cfi_offset 7, -4
 1176 0002 83B0     		sub	sp, sp, #12
 1177              		.cfi_def_cfa_offset 16
 1178 0004 00AF     		add	r7, sp, #0
 1179              		.cfi_def_cfa_register 7
 1180 0006 0346     		mov	r3, r0
 1181 0008 FB71     		strb	r3, [r7, #7]
1004:.\Generated_Source\PSoC5/Code_Bar.c ****         /* If not Initialized then skip this function*/
1005:.\Generated_Source\PSoC5/Code_Bar.c ****         if(Code_Bar_initVar != 0u)
 1182              		.loc 1 1005 0
 1183 000a 064B     		ldr	r3, .L75
 1184 000c 1B78     		ldrb	r3, [r3]	@ zero_extendqisi2
 1185 000e 002B     		cmp	r3, #0
 1186 0010 02D0     		beq	.L73
1006:.\Generated_Source\PSoC5/Code_Bar.c ****         {
1007:.\Generated_Source\PSoC5/Code_Bar.c ****             #if(Code_Bar_TXBUFFERSIZE > Code_Bar_FIFO_LENGTH)
1008:.\Generated_Source\PSoC5/Code_Bar.c **** 
1009:.\Generated_Source\PSoC5/Code_Bar.c ****                 /* Disable Tx interrupt. */
1010:.\Generated_Source\PSoC5/Code_Bar.c ****                 /* Protect variables that could change on interrupt. */
1011:.\Generated_Source\PSoC5/Code_Bar.c ****                 #if(Code_Bar_TX_INTERRUPT_ENABLED)
1012:.\Generated_Source\PSoC5/Code_Bar.c ****                     Code_Bar_DisableTxInt();
1013:.\Generated_Source\PSoC5/Code_Bar.c ****                 #endif /* End Code_Bar_TX_INTERRUPT_ENABLED */
1014:.\Generated_Source\PSoC5/Code_Bar.c **** 
1015:.\Generated_Source\PSoC5/Code_Bar.c ****                 if( (Code_Bar_txBufferRead == Code_Bar_txBufferWrite) &&
1016:.\Generated_Source\PSoC5/Code_Bar.c ****                     ((Code_Bar_TXSTATUS_REG & Code_Bar_TX_STS_FIFO_FULL) == 0u) )
1017:.\Generated_Source\PSoC5/Code_Bar.c ****                 {
1018:.\Generated_Source\PSoC5/Code_Bar.c ****                     /* Add directly to the FIFO. */
1019:.\Generated_Source\PSoC5/Code_Bar.c ****                     Code_Bar_TXDATA_REG = txDataByte;
1020:.\Generated_Source\PSoC5/Code_Bar.c ****                 }
1021:.\Generated_Source\PSoC5/Code_Bar.c ****                 else
1022:.\Generated_Source\PSoC5/Code_Bar.c ****                 {
1023:.\Generated_Source\PSoC5/Code_Bar.c ****                     if(Code_Bar_txBufferWrite >= Code_Bar_TXBUFFERSIZE)
1024:.\Generated_Source\PSoC5/Code_Bar.c ****                     {
1025:.\Generated_Source\PSoC5/Code_Bar.c ****                         Code_Bar_txBufferWrite = 0u;
1026:.\Generated_Source\PSoC5/Code_Bar.c ****                     }
1027:.\Generated_Source\PSoC5/Code_Bar.c **** 
1028:.\Generated_Source\PSoC5/Code_Bar.c ****                     Code_Bar_txBuffer[Code_Bar_txBufferWrite] = txDataByte;
1029:.\Generated_Source\PSoC5/Code_Bar.c **** 
1030:.\Generated_Source\PSoC5/Code_Bar.c ****                     /* Add to the software buffer. */
1031:.\Generated_Source\PSoC5/Code_Bar.c ****                     Code_Bar_txBufferWrite++;
1032:.\Generated_Source\PSoC5/Code_Bar.c **** 
1033:.\Generated_Source\PSoC5/Code_Bar.c ****                 }
1034:.\Generated_Source\PSoC5/Code_Bar.c **** 
ARM GAS  C:\Users\Lenovo\AppData\Local\Temp\ccp7JJIV.s 			page 40


1035:.\Generated_Source\PSoC5/Code_Bar.c ****                 /* Enable Tx interrupt. */
1036:.\Generated_Source\PSoC5/Code_Bar.c ****                 #if(Code_Bar_TX_INTERRUPT_ENABLED)
1037:.\Generated_Source\PSoC5/Code_Bar.c ****                     Code_Bar_EnableTxInt();
1038:.\Generated_Source\PSoC5/Code_Bar.c ****                 #endif /* End Code_Bar_TX_INTERRUPT_ENABLED */
1039:.\Generated_Source\PSoC5/Code_Bar.c **** 
1040:.\Generated_Source\PSoC5/Code_Bar.c ****             #else /* Code_Bar_TXBUFFERSIZE > Code_Bar_FIFO_LENGTH */
1041:.\Generated_Source\PSoC5/Code_Bar.c **** 
1042:.\Generated_Source\PSoC5/Code_Bar.c ****                 /* Add directly to the FIFO. */
1043:.\Generated_Source\PSoC5/Code_Bar.c ****                 Code_Bar_TXDATA_REG = txDataByte;
 1187              		.loc 1 1043 0
 1188 0012 054A     		ldr	r2, .L75+4
 1189 0014 FB79     		ldrb	r3, [r7, #7]
 1190 0016 1370     		strb	r3, [r2]
 1191              	.L73:
1044:.\Generated_Source\PSoC5/Code_Bar.c **** 
1045:.\Generated_Source\PSoC5/Code_Bar.c ****             #endif /* End Code_Bar_TXBUFFERSIZE > Code_Bar_FIFO_LENGTH */
1046:.\Generated_Source\PSoC5/Code_Bar.c ****         }
1047:.\Generated_Source\PSoC5/Code_Bar.c ****     }
 1192              		.loc 1 1047 0
 1193 0018 0C37     		adds	r7, r7, #12
 1194              		.cfi_def_cfa_offset 4
 1195 001a BD46     		mov	sp, r7
 1196              		.cfi_def_cfa_register 13
 1197              		@ sp needed
 1198 001c 5DF8047B 		ldr	r7, [sp], #4
 1199              		.cfi_restore 7
 1200              		.cfi_def_cfa_offset 0
 1201 0020 7047     		bx	lr
 1202              	.L76:
 1203 0022 00BF     		.align	2
 1204              	.L75:
 1205 0024 00000000 		.word	Code_Bar_initVar
 1206 0028 49640040 		.word	1073767497
 1207              		.cfi_endproc
 1208              	.LFE19:
 1209              		.size	Code_Bar_WriteTxData, .-Code_Bar_WriteTxData
 1210              		.section	.text.Code_Bar_ReadTxStatus,"ax",%progbits
 1211              		.align	2
 1212              		.global	Code_Bar_ReadTxStatus
 1213              		.thumb
 1214              		.thumb_func
 1215              		.type	Code_Bar_ReadTxStatus, %function
 1216              	Code_Bar_ReadTxStatus:
 1217              	.LFB20:
1048:.\Generated_Source\PSoC5/Code_Bar.c **** 
1049:.\Generated_Source\PSoC5/Code_Bar.c **** 
1050:.\Generated_Source\PSoC5/Code_Bar.c ****     /*******************************************************************************
1051:.\Generated_Source\PSoC5/Code_Bar.c ****     * Function Name: Code_Bar_ReadTxStatus
1052:.\Generated_Source\PSoC5/Code_Bar.c ****     ********************************************************************************
1053:.\Generated_Source\PSoC5/Code_Bar.c ****     *
1054:.\Generated_Source\PSoC5/Code_Bar.c ****     * Summary:
1055:.\Generated_Source\PSoC5/Code_Bar.c ****     *  Read the status register for the component
1056:.\Generated_Source\PSoC5/Code_Bar.c ****     *
1057:.\Generated_Source\PSoC5/Code_Bar.c ****     * Parameters:
1058:.\Generated_Source\PSoC5/Code_Bar.c ****     *  None.
1059:.\Generated_Source\PSoC5/Code_Bar.c ****     *
1060:.\Generated_Source\PSoC5/Code_Bar.c ****     * Return:
ARM GAS  C:\Users\Lenovo\AppData\Local\Temp\ccp7JJIV.s 			page 41


1061:.\Generated_Source\PSoC5/Code_Bar.c ****     *  Contents of the status register
1062:.\Generated_Source\PSoC5/Code_Bar.c ****     *
1063:.\Generated_Source\PSoC5/Code_Bar.c ****     * Theory:
1064:.\Generated_Source\PSoC5/Code_Bar.c ****     *  This function reads the status register which is clear on read. It is up to
1065:.\Generated_Source\PSoC5/Code_Bar.c ****     *  the user to handle all bits in this return value accordingly, even if the bit
1066:.\Generated_Source\PSoC5/Code_Bar.c ****     *  was not enabled as an interrupt source the event happened and must be handled
1067:.\Generated_Source\PSoC5/Code_Bar.c ****     *  accordingly.
1068:.\Generated_Source\PSoC5/Code_Bar.c ****     *
1069:.\Generated_Source\PSoC5/Code_Bar.c ****     *******************************************************************************/
1070:.\Generated_Source\PSoC5/Code_Bar.c ****     uint8 Code_Bar_ReadTxStatus(void) 
1071:.\Generated_Source\PSoC5/Code_Bar.c ****     {
 1218              		.loc 1 1071 0
 1219              		.cfi_startproc
 1220              		@ args = 0, pretend = 0, frame = 0
 1221              		@ frame_needed = 1, uses_anonymous_args = 0
 1222              		@ link register save eliminated.
 1223 0000 80B4     		push	{r7}
 1224              		.cfi_def_cfa_offset 4
 1225              		.cfi_offset 7, -4
 1226 0002 00AF     		add	r7, sp, #0
 1227              		.cfi_def_cfa_register 7
1072:.\Generated_Source\PSoC5/Code_Bar.c ****         return(Code_Bar_TXSTATUS_REG);
 1228              		.loc 1 1072 0
 1229 0004 034B     		ldr	r3, .L79
 1230 0006 1B78     		ldrb	r3, [r3]
 1231 0008 DBB2     		uxtb	r3, r3
1073:.\Generated_Source\PSoC5/Code_Bar.c ****     }
 1232              		.loc 1 1073 0
 1233 000a 1846     		mov	r0, r3
 1234 000c BD46     		mov	sp, r7
 1235              		.cfi_def_cfa_register 13
 1236              		@ sp needed
 1237 000e 5DF8047B 		ldr	r7, [sp], #4
 1238              		.cfi_restore 7
 1239              		.cfi_def_cfa_offset 0
 1240 0012 7047     		bx	lr
 1241              	.L80:
 1242              		.align	2
 1243              	.L79:
 1244 0014 6A640040 		.word	1073767530
 1245              		.cfi_endproc
 1246              	.LFE20:
 1247              		.size	Code_Bar_ReadTxStatus, .-Code_Bar_ReadTxStatus
 1248              		.section	.text.Code_Bar_PutChar,"ax",%progbits
 1249              		.align	2
 1250              		.global	Code_Bar_PutChar
 1251              		.thumb
 1252              		.thumb_func
 1253              		.type	Code_Bar_PutChar, %function
 1254              	Code_Bar_PutChar:
 1255              	.LFB21:
1074:.\Generated_Source\PSoC5/Code_Bar.c **** 
1075:.\Generated_Source\PSoC5/Code_Bar.c **** 
1076:.\Generated_Source\PSoC5/Code_Bar.c ****     /*******************************************************************************
1077:.\Generated_Source\PSoC5/Code_Bar.c ****     * Function Name: Code_Bar_PutChar
1078:.\Generated_Source\PSoC5/Code_Bar.c ****     ********************************************************************************
1079:.\Generated_Source\PSoC5/Code_Bar.c ****     *
ARM GAS  C:\Users\Lenovo\AppData\Local\Temp\ccp7JJIV.s 			page 42


1080:.\Generated_Source\PSoC5/Code_Bar.c ****     * Summary:
1081:.\Generated_Source\PSoC5/Code_Bar.c ****     *  Wait to send byte until TX register or buffer has room.
1082:.\Generated_Source\PSoC5/Code_Bar.c ****     *
1083:.\Generated_Source\PSoC5/Code_Bar.c ****     * Parameters:
1084:.\Generated_Source\PSoC5/Code_Bar.c ****     *  txDataByte: The 8-bit data value to send across the UART.
1085:.\Generated_Source\PSoC5/Code_Bar.c ****     *
1086:.\Generated_Source\PSoC5/Code_Bar.c ****     * Return:
1087:.\Generated_Source\PSoC5/Code_Bar.c ****     *  None.
1088:.\Generated_Source\PSoC5/Code_Bar.c ****     *
1089:.\Generated_Source\PSoC5/Code_Bar.c ****     * Global Variables:
1090:.\Generated_Source\PSoC5/Code_Bar.c ****     *  Code_Bar_txBuffer - RAM buffer pointer for save data for transmission
1091:.\Generated_Source\PSoC5/Code_Bar.c ****     *  Code_Bar_txBufferWrite - cyclic index for write to txBuffer,
1092:.\Generated_Source\PSoC5/Code_Bar.c ****     *     checked to identify free space in txBuffer and incremented after each byte
1093:.\Generated_Source\PSoC5/Code_Bar.c ****     *     saved to buffer.
1094:.\Generated_Source\PSoC5/Code_Bar.c ****     *  Code_Bar_txBufferRead - cyclic index for read from txBuffer,
1095:.\Generated_Source\PSoC5/Code_Bar.c ****     *     checked to identify free space in txBuffer.
1096:.\Generated_Source\PSoC5/Code_Bar.c ****     *  Code_Bar_initVar - checked to identify that the component has been
1097:.\Generated_Source\PSoC5/Code_Bar.c ****     *     initialized.
1098:.\Generated_Source\PSoC5/Code_Bar.c ****     *
1099:.\Generated_Source\PSoC5/Code_Bar.c ****     * Reentrant:
1100:.\Generated_Source\PSoC5/Code_Bar.c ****     *  No.
1101:.\Generated_Source\PSoC5/Code_Bar.c ****     *
1102:.\Generated_Source\PSoC5/Code_Bar.c ****     * Theory:
1103:.\Generated_Source\PSoC5/Code_Bar.c ****     *  Allows the user to transmit any byte of data in a single transfer
1104:.\Generated_Source\PSoC5/Code_Bar.c ****     *
1105:.\Generated_Source\PSoC5/Code_Bar.c ****     *******************************************************************************/
1106:.\Generated_Source\PSoC5/Code_Bar.c ****     void Code_Bar_PutChar(uint8 txDataByte) 
1107:.\Generated_Source\PSoC5/Code_Bar.c ****     {
 1256              		.loc 1 1107 0
 1257              		.cfi_startproc
 1258              		@ args = 0, pretend = 0, frame = 8
 1259              		@ frame_needed = 1, uses_anonymous_args = 0
 1260              		@ link register save eliminated.
 1261 0000 80B4     		push	{r7}
 1262              		.cfi_def_cfa_offset 4
 1263              		.cfi_offset 7, -4
 1264 0002 83B0     		sub	sp, sp, #12
 1265              		.cfi_def_cfa_offset 16
 1266 0004 00AF     		add	r7, sp, #0
 1267              		.cfi_def_cfa_register 7
 1268 0006 0346     		mov	r3, r0
 1269 0008 FB71     		strb	r3, [r7, #7]
1108:.\Generated_Source\PSoC5/Code_Bar.c ****             #if(Code_Bar_TXBUFFERSIZE > Code_Bar_FIFO_LENGTH)
1109:.\Generated_Source\PSoC5/Code_Bar.c ****                 /* The temporary output pointer is used since it takes two instructions
1110:.\Generated_Source\PSoC5/Code_Bar.c ****                 *  to increment with a wrap, and we can't risk doing that with the real
1111:.\Generated_Source\PSoC5/Code_Bar.c ****                 *  pointer and getting an interrupt in between instructions.
1112:.\Generated_Source\PSoC5/Code_Bar.c ****                 */
1113:.\Generated_Source\PSoC5/Code_Bar.c ****                 uint8 loc_txBufferWrite;
1114:.\Generated_Source\PSoC5/Code_Bar.c ****                 uint8 loc_txBufferRead;
1115:.\Generated_Source\PSoC5/Code_Bar.c **** 
1116:.\Generated_Source\PSoC5/Code_Bar.c ****                 do{
1117:.\Generated_Source\PSoC5/Code_Bar.c ****                     /* Block if software buffer is full, so we don't overwrite. */
1118:.\Generated_Source\PSoC5/Code_Bar.c ****                     #if ((Code_Bar_TXBUFFERSIZE > Code_Bar_MAX_BYTE_VALUE) && (CY_PSOC3))
1119:.\Generated_Source\PSoC5/Code_Bar.c ****                         /* Disable TX interrupt to protect variables that could change on interrupt
1120:.\Generated_Source\PSoC5/Code_Bar.c ****                         CyIntDisable(Code_Bar_TX_VECT_NUM);
1121:.\Generated_Source\PSoC5/Code_Bar.c ****                     #endif /* End TXBUFFERSIZE > 255 */
1122:.\Generated_Source\PSoC5/Code_Bar.c ****                     loc_txBufferWrite = Code_Bar_txBufferWrite;
ARM GAS  C:\Users\Lenovo\AppData\Local\Temp\ccp7JJIV.s 			page 43


1123:.\Generated_Source\PSoC5/Code_Bar.c ****                     loc_txBufferRead = Code_Bar_txBufferRead;
1124:.\Generated_Source\PSoC5/Code_Bar.c ****                     #if ((Code_Bar_TXBUFFERSIZE > Code_Bar_MAX_BYTE_VALUE) && (CY_PSOC3))
1125:.\Generated_Source\PSoC5/Code_Bar.c ****                         /* Enable interrupt to continue transmission */
1126:.\Generated_Source\PSoC5/Code_Bar.c ****                         CyIntEnable(Code_Bar_TX_VECT_NUM);
1127:.\Generated_Source\PSoC5/Code_Bar.c ****                     #endif /* End TXBUFFERSIZE > 255 */
1128:.\Generated_Source\PSoC5/Code_Bar.c ****                 }while( (loc_txBufferWrite < loc_txBufferRead) ? (loc_txBufferWrite == (loc_txBuffe
1129:.\Generated_Source\PSoC5/Code_Bar.c ****                                         ((loc_txBufferWrite - loc_txBufferRead) ==
1130:.\Generated_Source\PSoC5/Code_Bar.c ****                                         (uint8)(Code_Bar_TXBUFFERSIZE - 1u)) );
1131:.\Generated_Source\PSoC5/Code_Bar.c **** 
1132:.\Generated_Source\PSoC5/Code_Bar.c ****                 if( (loc_txBufferRead == loc_txBufferWrite) &&
1133:.\Generated_Source\PSoC5/Code_Bar.c ****                     ((Code_Bar_TXSTATUS_REG & Code_Bar_TX_STS_FIFO_FULL) == 0u) )
1134:.\Generated_Source\PSoC5/Code_Bar.c ****                 {
1135:.\Generated_Source\PSoC5/Code_Bar.c ****                     /* Add directly to the FIFO. */
1136:.\Generated_Source\PSoC5/Code_Bar.c ****                     Code_Bar_TXDATA_REG = txDataByte;
1137:.\Generated_Source\PSoC5/Code_Bar.c ****                 }
1138:.\Generated_Source\PSoC5/Code_Bar.c ****                 else
1139:.\Generated_Source\PSoC5/Code_Bar.c ****                 {
1140:.\Generated_Source\PSoC5/Code_Bar.c ****                     if(loc_txBufferWrite >= Code_Bar_TXBUFFERSIZE)
1141:.\Generated_Source\PSoC5/Code_Bar.c ****                     {
1142:.\Generated_Source\PSoC5/Code_Bar.c ****                         loc_txBufferWrite = 0u;
1143:.\Generated_Source\PSoC5/Code_Bar.c ****                     }
1144:.\Generated_Source\PSoC5/Code_Bar.c ****                     /* Add to the software buffer. */
1145:.\Generated_Source\PSoC5/Code_Bar.c ****                     Code_Bar_txBuffer[loc_txBufferWrite] = txDataByte;
1146:.\Generated_Source\PSoC5/Code_Bar.c ****                     loc_txBufferWrite++;
1147:.\Generated_Source\PSoC5/Code_Bar.c **** 
1148:.\Generated_Source\PSoC5/Code_Bar.c ****                     /* Finally, update the real output pointer */
1149:.\Generated_Source\PSoC5/Code_Bar.c ****                     #if ((Code_Bar_TXBUFFERSIZE > Code_Bar_MAX_BYTE_VALUE) && (CY_PSOC3))
1150:.\Generated_Source\PSoC5/Code_Bar.c ****                         CyIntDisable(Code_Bar_TX_VECT_NUM);
1151:.\Generated_Source\PSoC5/Code_Bar.c ****                     #endif /* End TXBUFFERSIZE > 255 */
1152:.\Generated_Source\PSoC5/Code_Bar.c ****                     Code_Bar_txBufferWrite = loc_txBufferWrite;
1153:.\Generated_Source\PSoC5/Code_Bar.c ****                     #if ((Code_Bar_TXBUFFERSIZE > Code_Bar_MAX_BYTE_VALUE) && (CY_PSOC3))
1154:.\Generated_Source\PSoC5/Code_Bar.c ****                         CyIntEnable(Code_Bar_TX_VECT_NUM);
1155:.\Generated_Source\PSoC5/Code_Bar.c ****                     #endif /* End TXBUFFERSIZE > 255 */
1156:.\Generated_Source\PSoC5/Code_Bar.c ****                 }
1157:.\Generated_Source\PSoC5/Code_Bar.c **** 
1158:.\Generated_Source\PSoC5/Code_Bar.c ****             #else /* Code_Bar_TXBUFFERSIZE > Code_Bar_FIFO_LENGTH */
1159:.\Generated_Source\PSoC5/Code_Bar.c **** 
1160:.\Generated_Source\PSoC5/Code_Bar.c ****                 while((Code_Bar_TXSTATUS_REG & Code_Bar_TX_STS_FIFO_FULL) != 0u)
 1270              		.loc 1 1160 0
 1271 000a 00BF     		nop
 1272              	.L82:
 1273              		.loc 1 1160 0 is_stmt 0 discriminator 1
 1274 000c 074B     		ldr	r3, .L83
 1275 000e 1B78     		ldrb	r3, [r3]
 1276 0010 DBB2     		uxtb	r3, r3
 1277 0012 03F00403 		and	r3, r3, #4
 1278 0016 002B     		cmp	r3, #0
 1279 0018 F8D1     		bne	.L82
1161:.\Generated_Source\PSoC5/Code_Bar.c ****                 {
1162:.\Generated_Source\PSoC5/Code_Bar.c ****                     ; /* Wait for room in the FIFO. */
1163:.\Generated_Source\PSoC5/Code_Bar.c ****                 }
1164:.\Generated_Source\PSoC5/Code_Bar.c **** 
1165:.\Generated_Source\PSoC5/Code_Bar.c ****                 /* Add directly to the FIFO. */
1166:.\Generated_Source\PSoC5/Code_Bar.c ****                 Code_Bar_TXDATA_REG = txDataByte;
 1280              		.loc 1 1166 0 is_stmt 1
 1281 001a 054A     		ldr	r2, .L83+4
 1282 001c FB79     		ldrb	r3, [r7, #7]
ARM GAS  C:\Users\Lenovo\AppData\Local\Temp\ccp7JJIV.s 			page 44


 1283 001e 1370     		strb	r3, [r2]
1167:.\Generated_Source\PSoC5/Code_Bar.c **** 
1168:.\Generated_Source\PSoC5/Code_Bar.c ****             #endif /* End Code_Bar_TXBUFFERSIZE > Code_Bar_FIFO_LENGTH */
1169:.\Generated_Source\PSoC5/Code_Bar.c ****     }
 1284              		.loc 1 1169 0
 1285 0020 0C37     		adds	r7, r7, #12
 1286              		.cfi_def_cfa_offset 4
 1287 0022 BD46     		mov	sp, r7
 1288              		.cfi_def_cfa_register 13
 1289              		@ sp needed
 1290 0024 5DF8047B 		ldr	r7, [sp], #4
 1291              		.cfi_restore 7
 1292              		.cfi_def_cfa_offset 0
 1293 0028 7047     		bx	lr
 1294              	.L84:
 1295 002a 00BF     		.align	2
 1296              	.L83:
 1297 002c 6A640040 		.word	1073767530
 1298 0030 49640040 		.word	1073767497
 1299              		.cfi_endproc
 1300              	.LFE21:
 1301              		.size	Code_Bar_PutChar, .-Code_Bar_PutChar
 1302              		.section	.text.Code_Bar_PutString,"ax",%progbits
 1303              		.align	2
 1304              		.global	Code_Bar_PutString
 1305              		.thumb
 1306              		.thumb_func
 1307              		.type	Code_Bar_PutString, %function
 1308              	Code_Bar_PutString:
 1309              	.LFB22:
1170:.\Generated_Source\PSoC5/Code_Bar.c **** 
1171:.\Generated_Source\PSoC5/Code_Bar.c **** 
1172:.\Generated_Source\PSoC5/Code_Bar.c ****     /*******************************************************************************
1173:.\Generated_Source\PSoC5/Code_Bar.c ****     * Function Name: Code_Bar_PutString
1174:.\Generated_Source\PSoC5/Code_Bar.c ****     ********************************************************************************
1175:.\Generated_Source\PSoC5/Code_Bar.c ****     *
1176:.\Generated_Source\PSoC5/Code_Bar.c ****     * Summary:
1177:.\Generated_Source\PSoC5/Code_Bar.c ****     *  Write a Sequence of bytes on the Transmit line. Data comes from RAM or ROM.
1178:.\Generated_Source\PSoC5/Code_Bar.c ****     *
1179:.\Generated_Source\PSoC5/Code_Bar.c ****     * Parameters:
1180:.\Generated_Source\PSoC5/Code_Bar.c ****     *  string: char pointer to character string of Data to Send.
1181:.\Generated_Source\PSoC5/Code_Bar.c ****     *
1182:.\Generated_Source\PSoC5/Code_Bar.c ****     * Return:
1183:.\Generated_Source\PSoC5/Code_Bar.c ****     *  None.
1184:.\Generated_Source\PSoC5/Code_Bar.c ****     *
1185:.\Generated_Source\PSoC5/Code_Bar.c ****     * Global Variables:
1186:.\Generated_Source\PSoC5/Code_Bar.c ****     *  Code_Bar_initVar - checked to identify that the component has been
1187:.\Generated_Source\PSoC5/Code_Bar.c ****     *     initialized.
1188:.\Generated_Source\PSoC5/Code_Bar.c ****     *
1189:.\Generated_Source\PSoC5/Code_Bar.c ****     * Reentrant:
1190:.\Generated_Source\PSoC5/Code_Bar.c ****     *  No.
1191:.\Generated_Source\PSoC5/Code_Bar.c ****     *
1192:.\Generated_Source\PSoC5/Code_Bar.c ****     * Theory:
1193:.\Generated_Source\PSoC5/Code_Bar.c ****     *  This function will block if there is not enough memory to place the whole
1194:.\Generated_Source\PSoC5/Code_Bar.c ****     *  string, it will block until the entire string has been written to the
1195:.\Generated_Source\PSoC5/Code_Bar.c ****     *  transmit buffer.
1196:.\Generated_Source\PSoC5/Code_Bar.c ****     *
ARM GAS  C:\Users\Lenovo\AppData\Local\Temp\ccp7JJIV.s 			page 45


1197:.\Generated_Source\PSoC5/Code_Bar.c ****     *******************************************************************************/
1198:.\Generated_Source\PSoC5/Code_Bar.c ****     void Code_Bar_PutString(const char8 string[]) 
1199:.\Generated_Source\PSoC5/Code_Bar.c ****     {
 1310              		.loc 1 1199 0
 1311              		.cfi_startproc
 1312              		@ args = 0, pretend = 0, frame = 16
 1313              		@ frame_needed = 1, uses_anonymous_args = 0
 1314 0000 80B5     		push	{r7, lr}
 1315              		.cfi_def_cfa_offset 8
 1316              		.cfi_offset 7, -8
 1317              		.cfi_offset 14, -4
 1318 0002 84B0     		sub	sp, sp, #16
 1319              		.cfi_def_cfa_offset 24
 1320 0004 00AF     		add	r7, sp, #0
 1321              		.cfi_def_cfa_register 7
 1322 0006 7860     		str	r0, [r7, #4]
1200:.\Generated_Source\PSoC5/Code_Bar.c ****         uint16 buf_index = 0u;
 1323              		.loc 1 1200 0
 1324 0008 0023     		movs	r3, #0
 1325 000a FB81     		strh	r3, [r7, #14]	@ movhi
1201:.\Generated_Source\PSoC5/Code_Bar.c ****         /* If not Initialized then skip this function*/
1202:.\Generated_Source\PSoC5/Code_Bar.c ****         if(Code_Bar_initVar != 0u)
 1326              		.loc 1 1202 0
 1327 000c 0B4B     		ldr	r3, .L89
 1328 000e 1B78     		ldrb	r3, [r3]	@ zero_extendqisi2
 1329 0010 002B     		cmp	r3, #0
 1330 0012 10D0     		beq	.L85
1203:.\Generated_Source\PSoC5/Code_Bar.c ****         {
1204:.\Generated_Source\PSoC5/Code_Bar.c ****             /* This is a blocking function, it will not exit until all data is sent*/
1205:.\Generated_Source\PSoC5/Code_Bar.c ****             while(string[buf_index] != (char8)0)
 1331              		.loc 1 1205 0
 1332 0014 09E0     		b	.L87
 1333              	.L88:
1206:.\Generated_Source\PSoC5/Code_Bar.c ****             {
1207:.\Generated_Source\PSoC5/Code_Bar.c ****                 Code_Bar_PutChar((uint8)string[buf_index]);
 1334              		.loc 1 1207 0
 1335 0016 FB89     		ldrh	r3, [r7, #14]
 1336 0018 7A68     		ldr	r2, [r7, #4]
 1337 001a 1344     		add	r3, r3, r2
 1338 001c 1B78     		ldrb	r3, [r3]	@ zero_extendqisi2
 1339 001e 1846     		mov	r0, r3
 1340 0020 FFF7FEFF 		bl	Code_Bar_PutChar
1208:.\Generated_Source\PSoC5/Code_Bar.c ****                 buf_index++;
 1341              		.loc 1 1208 0
 1342 0024 FB89     		ldrh	r3, [r7, #14]
 1343 0026 0133     		adds	r3, r3, #1
 1344 0028 FB81     		strh	r3, [r7, #14]	@ movhi
 1345              	.L87:
1205:.\Generated_Source\PSoC5/Code_Bar.c ****             {
 1346              		.loc 1 1205 0
 1347 002a FB89     		ldrh	r3, [r7, #14]
 1348 002c 7A68     		ldr	r2, [r7, #4]
 1349 002e 1344     		add	r3, r3, r2
 1350 0030 1B78     		ldrb	r3, [r3]	@ zero_extendqisi2
 1351 0032 002B     		cmp	r3, #0
 1352 0034 EFD1     		bne	.L88
 1353              	.L85:
ARM GAS  C:\Users\Lenovo\AppData\Local\Temp\ccp7JJIV.s 			page 46


1209:.\Generated_Source\PSoC5/Code_Bar.c ****             }
1210:.\Generated_Source\PSoC5/Code_Bar.c ****         }
1211:.\Generated_Source\PSoC5/Code_Bar.c ****     }
 1354              		.loc 1 1211 0
 1355 0036 1037     		adds	r7, r7, #16
 1356              		.cfi_def_cfa_offset 8
 1357 0038 BD46     		mov	sp, r7
 1358              		.cfi_def_cfa_register 13
 1359              		@ sp needed
 1360 003a 80BD     		pop	{r7, pc}
 1361              	.L90:
 1362              		.align	2
 1363              	.L89:
 1364 003c 00000000 		.word	Code_Bar_initVar
 1365              		.cfi_endproc
 1366              	.LFE22:
 1367              		.size	Code_Bar_PutString, .-Code_Bar_PutString
 1368              		.section	.text.Code_Bar_PutArray,"ax",%progbits
 1369              		.align	2
 1370              		.global	Code_Bar_PutArray
 1371              		.thumb
 1372              		.thumb_func
 1373              		.type	Code_Bar_PutArray, %function
 1374              	Code_Bar_PutArray:
 1375              	.LFB23:
1212:.\Generated_Source\PSoC5/Code_Bar.c **** 
1213:.\Generated_Source\PSoC5/Code_Bar.c **** 
1214:.\Generated_Source\PSoC5/Code_Bar.c ****     /*******************************************************************************
1215:.\Generated_Source\PSoC5/Code_Bar.c ****     * Function Name: Code_Bar_PutArray
1216:.\Generated_Source\PSoC5/Code_Bar.c ****     ********************************************************************************
1217:.\Generated_Source\PSoC5/Code_Bar.c ****     *
1218:.\Generated_Source\PSoC5/Code_Bar.c ****     * Summary:
1219:.\Generated_Source\PSoC5/Code_Bar.c ****     *  Write a Sequence of bytes on the Transmit line. Data comes from RAM or ROM.
1220:.\Generated_Source\PSoC5/Code_Bar.c ****     *
1221:.\Generated_Source\PSoC5/Code_Bar.c ****     * Parameters:
1222:.\Generated_Source\PSoC5/Code_Bar.c ****     *  string: Address of the memory array residing in RAM or ROM.
1223:.\Generated_Source\PSoC5/Code_Bar.c ****     *  byteCount: Number of Bytes to be transmitted.
1224:.\Generated_Source\PSoC5/Code_Bar.c ****     *
1225:.\Generated_Source\PSoC5/Code_Bar.c ****     * Return:
1226:.\Generated_Source\PSoC5/Code_Bar.c ****     *  None.
1227:.\Generated_Source\PSoC5/Code_Bar.c ****     *
1228:.\Generated_Source\PSoC5/Code_Bar.c ****     * Global Variables:
1229:.\Generated_Source\PSoC5/Code_Bar.c ****     *  Code_Bar_initVar - checked to identify that the component has been
1230:.\Generated_Source\PSoC5/Code_Bar.c ****     *     initialized.
1231:.\Generated_Source\PSoC5/Code_Bar.c ****     *
1232:.\Generated_Source\PSoC5/Code_Bar.c ****     * Reentrant:
1233:.\Generated_Source\PSoC5/Code_Bar.c ****     *  No.
1234:.\Generated_Source\PSoC5/Code_Bar.c ****     *
1235:.\Generated_Source\PSoC5/Code_Bar.c ****     *******************************************************************************/
1236:.\Generated_Source\PSoC5/Code_Bar.c ****     void Code_Bar_PutArray(const uint8 string[], uint8 byteCount)
1237:.\Generated_Source\PSoC5/Code_Bar.c ****                                                                     
1238:.\Generated_Source\PSoC5/Code_Bar.c ****     {
 1376              		.loc 1 1238 0
 1377              		.cfi_startproc
 1378              		@ args = 0, pretend = 0, frame = 16
 1379              		@ frame_needed = 1, uses_anonymous_args = 0
 1380 0000 80B5     		push	{r7, lr}
ARM GAS  C:\Users\Lenovo\AppData\Local\Temp\ccp7JJIV.s 			page 47


 1381              		.cfi_def_cfa_offset 8
 1382              		.cfi_offset 7, -8
 1383              		.cfi_offset 14, -4
 1384 0002 84B0     		sub	sp, sp, #16
 1385              		.cfi_def_cfa_offset 24
 1386 0004 00AF     		add	r7, sp, #0
 1387              		.cfi_def_cfa_register 7
 1388 0006 7860     		str	r0, [r7, #4]
 1389 0008 0B46     		mov	r3, r1
 1390 000a FB70     		strb	r3, [r7, #3]
1239:.\Generated_Source\PSoC5/Code_Bar.c ****         uint8 buf_index = 0u;
 1391              		.loc 1 1239 0
 1392 000c 0023     		movs	r3, #0
 1393 000e FB73     		strb	r3, [r7, #15]
1240:.\Generated_Source\PSoC5/Code_Bar.c ****         /* If not Initialized then skip this function*/
1241:.\Generated_Source\PSoC5/Code_Bar.c ****         if(Code_Bar_initVar != 0u)
 1394              		.loc 1 1241 0
 1395 0010 0A4B     		ldr	r3, .L94
 1396 0012 1B78     		ldrb	r3, [r3]	@ zero_extendqisi2
 1397 0014 002B     		cmp	r3, #0
 1398 0016 0DD0     		beq	.L91
 1399              	.L93:
1242:.\Generated_Source\PSoC5/Code_Bar.c ****         {
1243:.\Generated_Source\PSoC5/Code_Bar.c ****             do
1244:.\Generated_Source\PSoC5/Code_Bar.c ****             {
1245:.\Generated_Source\PSoC5/Code_Bar.c ****                 Code_Bar_PutChar(string[buf_index]);
 1400              		.loc 1 1245 0 discriminator 1
 1401 0018 FB7B     		ldrb	r3, [r7, #15]	@ zero_extendqisi2
 1402 001a 7A68     		ldr	r2, [r7, #4]
 1403 001c 1344     		add	r3, r3, r2
 1404 001e 1B78     		ldrb	r3, [r3]	@ zero_extendqisi2
 1405 0020 1846     		mov	r0, r3
 1406 0022 FFF7FEFF 		bl	Code_Bar_PutChar
1246:.\Generated_Source\PSoC5/Code_Bar.c ****                 buf_index++;
 1407              		.loc 1 1246 0 discriminator 1
 1408 0026 FB7B     		ldrb	r3, [r7, #15]	@ zero_extendqisi2
 1409 0028 0133     		adds	r3, r3, #1
 1410 002a FB73     		strb	r3, [r7, #15]
1247:.\Generated_Source\PSoC5/Code_Bar.c ****             }while(buf_index < byteCount);
 1411              		.loc 1 1247 0 discriminator 1
 1412 002c FA7B     		ldrb	r2, [r7, #15]	@ zero_extendqisi2
 1413 002e FB78     		ldrb	r3, [r7, #3]	@ zero_extendqisi2
 1414 0030 9A42     		cmp	r2, r3
 1415 0032 F1D3     		bcc	.L93
 1416              	.L91:
1248:.\Generated_Source\PSoC5/Code_Bar.c ****         }
1249:.\Generated_Source\PSoC5/Code_Bar.c ****     }
 1417              		.loc 1 1249 0
 1418 0034 1037     		adds	r7, r7, #16
 1419              		.cfi_def_cfa_offset 8
 1420 0036 BD46     		mov	sp, r7
 1421              		.cfi_def_cfa_register 13
 1422              		@ sp needed
 1423 0038 80BD     		pop	{r7, pc}
 1424              	.L95:
 1425 003a 00BF     		.align	2
 1426              	.L94:
ARM GAS  C:\Users\Lenovo\AppData\Local\Temp\ccp7JJIV.s 			page 48


 1427 003c 00000000 		.word	Code_Bar_initVar
 1428              		.cfi_endproc
 1429              	.LFE23:
 1430              		.size	Code_Bar_PutArray, .-Code_Bar_PutArray
 1431              		.section	.text.Code_Bar_PutCRLF,"ax",%progbits
 1432              		.align	2
 1433              		.global	Code_Bar_PutCRLF
 1434              		.thumb
 1435              		.thumb_func
 1436              		.type	Code_Bar_PutCRLF, %function
 1437              	Code_Bar_PutCRLF:
 1438              	.LFB24:
1250:.\Generated_Source\PSoC5/Code_Bar.c **** 
1251:.\Generated_Source\PSoC5/Code_Bar.c **** 
1252:.\Generated_Source\PSoC5/Code_Bar.c ****     /*******************************************************************************
1253:.\Generated_Source\PSoC5/Code_Bar.c ****     * Function Name: Code_Bar_PutCRLF
1254:.\Generated_Source\PSoC5/Code_Bar.c ****     ********************************************************************************
1255:.\Generated_Source\PSoC5/Code_Bar.c ****     *
1256:.\Generated_Source\PSoC5/Code_Bar.c ****     * Summary:
1257:.\Generated_Source\PSoC5/Code_Bar.c ****     *  Write a character and then carriage return and line feed.
1258:.\Generated_Source\PSoC5/Code_Bar.c ****     *
1259:.\Generated_Source\PSoC5/Code_Bar.c ****     * Parameters:
1260:.\Generated_Source\PSoC5/Code_Bar.c ****     *  txDataByte: uint8 Character to send.
1261:.\Generated_Source\PSoC5/Code_Bar.c ****     *
1262:.\Generated_Source\PSoC5/Code_Bar.c ****     * Return:
1263:.\Generated_Source\PSoC5/Code_Bar.c ****     *  None.
1264:.\Generated_Source\PSoC5/Code_Bar.c ****     *
1265:.\Generated_Source\PSoC5/Code_Bar.c ****     * Global Variables:
1266:.\Generated_Source\PSoC5/Code_Bar.c ****     *  Code_Bar_initVar - checked to identify that the component has been
1267:.\Generated_Source\PSoC5/Code_Bar.c ****     *     initialized.
1268:.\Generated_Source\PSoC5/Code_Bar.c ****     *
1269:.\Generated_Source\PSoC5/Code_Bar.c ****     * Reentrant:
1270:.\Generated_Source\PSoC5/Code_Bar.c ****     *  No.
1271:.\Generated_Source\PSoC5/Code_Bar.c ****     *
1272:.\Generated_Source\PSoC5/Code_Bar.c ****     *******************************************************************************/
1273:.\Generated_Source\PSoC5/Code_Bar.c ****     void Code_Bar_PutCRLF(uint8 txDataByte) 
1274:.\Generated_Source\PSoC5/Code_Bar.c ****     {
 1439              		.loc 1 1274 0
 1440              		.cfi_startproc
 1441              		@ args = 0, pretend = 0, frame = 8
 1442              		@ frame_needed = 1, uses_anonymous_args = 0
 1443 0000 80B5     		push	{r7, lr}
 1444              		.cfi_def_cfa_offset 8
 1445              		.cfi_offset 7, -8
 1446              		.cfi_offset 14, -4
 1447 0002 82B0     		sub	sp, sp, #8
 1448              		.cfi_def_cfa_offset 16
 1449 0004 00AF     		add	r7, sp, #0
 1450              		.cfi_def_cfa_register 7
 1451 0006 0346     		mov	r3, r0
 1452 0008 FB71     		strb	r3, [r7, #7]
1275:.\Generated_Source\PSoC5/Code_Bar.c ****         /* If not Initialized then skip this function*/
1276:.\Generated_Source\PSoC5/Code_Bar.c ****         if(Code_Bar_initVar != 0u)
 1453              		.loc 1 1276 0
 1454 000a 084B     		ldr	r3, .L98
 1455 000c 1B78     		ldrb	r3, [r3]	@ zero_extendqisi2
 1456 000e 002B     		cmp	r3, #0
ARM GAS  C:\Users\Lenovo\AppData\Local\Temp\ccp7JJIV.s 			page 49


 1457 0010 09D0     		beq	.L96
1277:.\Generated_Source\PSoC5/Code_Bar.c ****         {
1278:.\Generated_Source\PSoC5/Code_Bar.c ****             Code_Bar_PutChar(txDataByte);
 1458              		.loc 1 1278 0
 1459 0012 FB79     		ldrb	r3, [r7, #7]	@ zero_extendqisi2
 1460 0014 1846     		mov	r0, r3
 1461 0016 FFF7FEFF 		bl	Code_Bar_PutChar
1279:.\Generated_Source\PSoC5/Code_Bar.c ****             Code_Bar_PutChar(0x0Du);
 1462              		.loc 1 1279 0
 1463 001a 0D20     		movs	r0, #13
 1464 001c FFF7FEFF 		bl	Code_Bar_PutChar
1280:.\Generated_Source\PSoC5/Code_Bar.c ****             Code_Bar_PutChar(0x0Au);
 1465              		.loc 1 1280 0
 1466 0020 0A20     		movs	r0, #10
 1467 0022 FFF7FEFF 		bl	Code_Bar_PutChar
 1468              	.L96:
1281:.\Generated_Source\PSoC5/Code_Bar.c ****         }
1282:.\Generated_Source\PSoC5/Code_Bar.c ****     }
 1469              		.loc 1 1282 0
 1470 0026 0837     		adds	r7, r7, #8
 1471              		.cfi_def_cfa_offset 8
 1472 0028 BD46     		mov	sp, r7
 1473              		.cfi_def_cfa_register 13
 1474              		@ sp needed
 1475 002a 80BD     		pop	{r7, pc}
 1476              	.L99:
 1477              		.align	2
 1478              	.L98:
 1479 002c 00000000 		.word	Code_Bar_initVar
 1480              		.cfi_endproc
 1481              	.LFE24:
 1482              		.size	Code_Bar_PutCRLF, .-Code_Bar_PutCRLF
 1483              		.section	.text.Code_Bar_GetTxBufferSize,"ax",%progbits
 1484              		.align	2
 1485              		.global	Code_Bar_GetTxBufferSize
 1486              		.thumb
 1487              		.thumb_func
 1488              		.type	Code_Bar_GetTxBufferSize, %function
 1489              	Code_Bar_GetTxBufferSize:
 1490              	.LFB25:
1283:.\Generated_Source\PSoC5/Code_Bar.c **** 
1284:.\Generated_Source\PSoC5/Code_Bar.c **** 
1285:.\Generated_Source\PSoC5/Code_Bar.c ****     /*******************************************************************************
1286:.\Generated_Source\PSoC5/Code_Bar.c ****     * Function Name: Code_Bar_GetTxBufferSize
1287:.\Generated_Source\PSoC5/Code_Bar.c ****     ********************************************************************************
1288:.\Generated_Source\PSoC5/Code_Bar.c ****     *
1289:.\Generated_Source\PSoC5/Code_Bar.c ****     * Summary:
1290:.\Generated_Source\PSoC5/Code_Bar.c ****     *  Determine the amount of space left in the TX buffer and return the count in
1291:.\Generated_Source\PSoC5/Code_Bar.c ****     *  bytes
1292:.\Generated_Source\PSoC5/Code_Bar.c ****     *
1293:.\Generated_Source\PSoC5/Code_Bar.c ****     * Parameters:
1294:.\Generated_Source\PSoC5/Code_Bar.c ****     *  None.
1295:.\Generated_Source\PSoC5/Code_Bar.c ****     *
1296:.\Generated_Source\PSoC5/Code_Bar.c ****     * Return:
1297:.\Generated_Source\PSoC5/Code_Bar.c ****     *  Integer count of the number of bytes left in the TX buffer
1298:.\Generated_Source\PSoC5/Code_Bar.c ****     *
1299:.\Generated_Source\PSoC5/Code_Bar.c ****     * Global Variables:
ARM GAS  C:\Users\Lenovo\AppData\Local\Temp\ccp7JJIV.s 			page 50


1300:.\Generated_Source\PSoC5/Code_Bar.c ****     *  Code_Bar_txBufferWrite - used to calculate left space.
1301:.\Generated_Source\PSoC5/Code_Bar.c ****     *  Code_Bar_txBufferRead - used to calculate left space.
1302:.\Generated_Source\PSoC5/Code_Bar.c ****     *
1303:.\Generated_Source\PSoC5/Code_Bar.c ****     * Reentrant:
1304:.\Generated_Source\PSoC5/Code_Bar.c ****     *  No.
1305:.\Generated_Source\PSoC5/Code_Bar.c ****     *
1306:.\Generated_Source\PSoC5/Code_Bar.c ****     * Theory:
1307:.\Generated_Source\PSoC5/Code_Bar.c ****     *  Allows the user to find out how full the TX Buffer is.
1308:.\Generated_Source\PSoC5/Code_Bar.c ****     *
1309:.\Generated_Source\PSoC5/Code_Bar.c ****     *******************************************************************************/
1310:.\Generated_Source\PSoC5/Code_Bar.c ****     uint8 Code_Bar_GetTxBufferSize(void)
1311:.\Generated_Source\PSoC5/Code_Bar.c ****                                                             
1312:.\Generated_Source\PSoC5/Code_Bar.c ****     {
 1491              		.loc 1 1312 0
 1492              		.cfi_startproc
 1493              		@ args = 0, pretend = 0, frame = 8
 1494              		@ frame_needed = 1, uses_anonymous_args = 0
 1495              		@ link register save eliminated.
 1496 0000 80B4     		push	{r7}
 1497              		.cfi_def_cfa_offset 4
 1498              		.cfi_offset 7, -4
 1499 0002 83B0     		sub	sp, sp, #12
 1500              		.cfi_def_cfa_offset 16
 1501 0004 00AF     		add	r7, sp, #0
 1502              		.cfi_def_cfa_register 7
1313:.\Generated_Source\PSoC5/Code_Bar.c ****         uint8 size;
1314:.\Generated_Source\PSoC5/Code_Bar.c **** 
1315:.\Generated_Source\PSoC5/Code_Bar.c ****         #if(Code_Bar_TXBUFFERSIZE > Code_Bar_FIFO_LENGTH)
1316:.\Generated_Source\PSoC5/Code_Bar.c **** 
1317:.\Generated_Source\PSoC5/Code_Bar.c ****             /* Disable Tx interrupt. */
1318:.\Generated_Source\PSoC5/Code_Bar.c ****             /* Protect variables that could change on interrupt. */
1319:.\Generated_Source\PSoC5/Code_Bar.c ****             #if(Code_Bar_TX_INTERRUPT_ENABLED)
1320:.\Generated_Source\PSoC5/Code_Bar.c ****                 Code_Bar_DisableTxInt();
1321:.\Generated_Source\PSoC5/Code_Bar.c ****             #endif /* End Code_Bar_TX_INTERRUPT_ENABLED */
1322:.\Generated_Source\PSoC5/Code_Bar.c **** 
1323:.\Generated_Source\PSoC5/Code_Bar.c ****             if(Code_Bar_txBufferRead == Code_Bar_txBufferWrite)
1324:.\Generated_Source\PSoC5/Code_Bar.c ****             {
1325:.\Generated_Source\PSoC5/Code_Bar.c ****                 size = 0u;
1326:.\Generated_Source\PSoC5/Code_Bar.c ****             }
1327:.\Generated_Source\PSoC5/Code_Bar.c ****             else if(Code_Bar_txBufferRead < Code_Bar_txBufferWrite)
1328:.\Generated_Source\PSoC5/Code_Bar.c ****             {
1329:.\Generated_Source\PSoC5/Code_Bar.c ****                 size = (Code_Bar_txBufferWrite - Code_Bar_txBufferRead);
1330:.\Generated_Source\PSoC5/Code_Bar.c ****             }
1331:.\Generated_Source\PSoC5/Code_Bar.c ****             else
1332:.\Generated_Source\PSoC5/Code_Bar.c ****             {
1333:.\Generated_Source\PSoC5/Code_Bar.c ****                 size = (Code_Bar_TXBUFFERSIZE - Code_Bar_txBufferRead) + Code_Bar_txBufferWrite;
1334:.\Generated_Source\PSoC5/Code_Bar.c ****             }
1335:.\Generated_Source\PSoC5/Code_Bar.c **** 
1336:.\Generated_Source\PSoC5/Code_Bar.c ****             /* Enable Tx interrupt. */
1337:.\Generated_Source\PSoC5/Code_Bar.c ****             #if(Code_Bar_TX_INTERRUPT_ENABLED)
1338:.\Generated_Source\PSoC5/Code_Bar.c ****                 Code_Bar_EnableTxInt();
1339:.\Generated_Source\PSoC5/Code_Bar.c ****             #endif /* End Code_Bar_TX_INTERRUPT_ENABLED */
1340:.\Generated_Source\PSoC5/Code_Bar.c **** 
1341:.\Generated_Source\PSoC5/Code_Bar.c ****         #else /* Code_Bar_TXBUFFERSIZE > Code_Bar_FIFO_LENGTH */
1342:.\Generated_Source\PSoC5/Code_Bar.c **** 
1343:.\Generated_Source\PSoC5/Code_Bar.c ****             size = Code_Bar_TXSTATUS_REG;
 1503              		.loc 1 1343 0
ARM GAS  C:\Users\Lenovo\AppData\Local\Temp\ccp7JJIV.s 			page 51


 1504 0006 0E4B     		ldr	r3, .L105
 1505 0008 1B78     		ldrb	r3, [r3]
 1506 000a FB71     		strb	r3, [r7, #7]
1344:.\Generated_Source\PSoC5/Code_Bar.c **** 
1345:.\Generated_Source\PSoC5/Code_Bar.c ****             /* Is the fifo is full. */
1346:.\Generated_Source\PSoC5/Code_Bar.c ****             if((size & Code_Bar_TX_STS_FIFO_FULL) != 0u)
 1507              		.loc 1 1346 0
 1508 000c FB79     		ldrb	r3, [r7, #7]	@ zero_extendqisi2
 1509 000e 03F00403 		and	r3, r3, #4
 1510 0012 002B     		cmp	r3, #0
 1511 0014 02D0     		beq	.L101
1347:.\Generated_Source\PSoC5/Code_Bar.c ****             {
1348:.\Generated_Source\PSoC5/Code_Bar.c ****                 size = Code_Bar_FIFO_LENGTH;
 1512              		.loc 1 1348 0
 1513 0016 0423     		movs	r3, #4
 1514 0018 FB71     		strb	r3, [r7, #7]
 1515 001a 09E0     		b	.L102
 1516              	.L101:
1349:.\Generated_Source\PSoC5/Code_Bar.c ****             }
1350:.\Generated_Source\PSoC5/Code_Bar.c ****             else if((size & Code_Bar_TX_STS_FIFO_EMPTY) != 0u)
 1517              		.loc 1 1350 0
 1518 001c FB79     		ldrb	r3, [r7, #7]	@ zero_extendqisi2
 1519 001e 03F00203 		and	r3, r3, #2
 1520 0022 002B     		cmp	r3, #0
 1521 0024 02D0     		beq	.L103
1351:.\Generated_Source\PSoC5/Code_Bar.c ****             {
1352:.\Generated_Source\PSoC5/Code_Bar.c ****                 size = 0u;
 1522              		.loc 1 1352 0
 1523 0026 0023     		movs	r3, #0
 1524 0028 FB71     		strb	r3, [r7, #7]
 1525 002a 01E0     		b	.L102
 1526              	.L103:
1353:.\Generated_Source\PSoC5/Code_Bar.c ****             }
1354:.\Generated_Source\PSoC5/Code_Bar.c ****             else
1355:.\Generated_Source\PSoC5/Code_Bar.c ****             {
1356:.\Generated_Source\PSoC5/Code_Bar.c ****                 /* We only know there is data in the fifo. */
1357:.\Generated_Source\PSoC5/Code_Bar.c ****                 size = 1u;
 1527              		.loc 1 1357 0
 1528 002c 0123     		movs	r3, #1
 1529 002e FB71     		strb	r3, [r7, #7]
 1530              	.L102:
1358:.\Generated_Source\PSoC5/Code_Bar.c ****             }
1359:.\Generated_Source\PSoC5/Code_Bar.c **** 
1360:.\Generated_Source\PSoC5/Code_Bar.c ****         #endif /* End Code_Bar_TXBUFFERSIZE > Code_Bar_FIFO_LENGTH */
1361:.\Generated_Source\PSoC5/Code_Bar.c **** 
1362:.\Generated_Source\PSoC5/Code_Bar.c ****         return(size);
 1531              		.loc 1 1362 0
 1532 0030 FB79     		ldrb	r3, [r7, #7]	@ zero_extendqisi2
1363:.\Generated_Source\PSoC5/Code_Bar.c ****     }
 1533              		.loc 1 1363 0
 1534 0032 1846     		mov	r0, r3
 1535 0034 0C37     		adds	r7, r7, #12
 1536              		.cfi_def_cfa_offset 4
 1537 0036 BD46     		mov	sp, r7
 1538              		.cfi_def_cfa_register 13
 1539              		@ sp needed
 1540 0038 5DF8047B 		ldr	r7, [sp], #4
ARM GAS  C:\Users\Lenovo\AppData\Local\Temp\ccp7JJIV.s 			page 52


 1541              		.cfi_restore 7
 1542              		.cfi_def_cfa_offset 0
 1543 003c 7047     		bx	lr
 1544              	.L106:
 1545 003e 00BF     		.align	2
 1546              	.L105:
 1547 0040 6A640040 		.word	1073767530
 1548              		.cfi_endproc
 1549              	.LFE25:
 1550              		.size	Code_Bar_GetTxBufferSize, .-Code_Bar_GetTxBufferSize
 1551              		.section	.text.Code_Bar_ClearTxBuffer,"ax",%progbits
 1552              		.align	2
 1553              		.global	Code_Bar_ClearTxBuffer
 1554              		.thumb
 1555              		.thumb_func
 1556              		.type	Code_Bar_ClearTxBuffer, %function
 1557              	Code_Bar_ClearTxBuffer:
 1558              	.LFB26:
1364:.\Generated_Source\PSoC5/Code_Bar.c **** 
1365:.\Generated_Source\PSoC5/Code_Bar.c **** 
1366:.\Generated_Source\PSoC5/Code_Bar.c ****     /*******************************************************************************
1367:.\Generated_Source\PSoC5/Code_Bar.c ****     * Function Name: Code_Bar_ClearTxBuffer
1368:.\Generated_Source\PSoC5/Code_Bar.c ****     ********************************************************************************
1369:.\Generated_Source\PSoC5/Code_Bar.c ****     *
1370:.\Generated_Source\PSoC5/Code_Bar.c ****     * Summary:
1371:.\Generated_Source\PSoC5/Code_Bar.c ****     *  Clears the TX RAM buffer by setting the read and write pointers both to zero.
1372:.\Generated_Source\PSoC5/Code_Bar.c ****     *  Clears the hardware TX FIFO.  Any data present in the FIFO will not be sent.
1373:.\Generated_Source\PSoC5/Code_Bar.c ****     *
1374:.\Generated_Source\PSoC5/Code_Bar.c ****     * Parameters:
1375:.\Generated_Source\PSoC5/Code_Bar.c ****     *  None.
1376:.\Generated_Source\PSoC5/Code_Bar.c ****     *
1377:.\Generated_Source\PSoC5/Code_Bar.c ****     * Return:
1378:.\Generated_Source\PSoC5/Code_Bar.c ****     *  None.
1379:.\Generated_Source\PSoC5/Code_Bar.c ****     *
1380:.\Generated_Source\PSoC5/Code_Bar.c ****     * Global Variables:
1381:.\Generated_Source\PSoC5/Code_Bar.c ****     *  Code_Bar_txBufferWrite - cleared to zero.
1382:.\Generated_Source\PSoC5/Code_Bar.c ****     *  Code_Bar_txBufferRead - cleared to zero.
1383:.\Generated_Source\PSoC5/Code_Bar.c ****     *
1384:.\Generated_Source\PSoC5/Code_Bar.c ****     * Reentrant:
1385:.\Generated_Source\PSoC5/Code_Bar.c ****     *  No.
1386:.\Generated_Source\PSoC5/Code_Bar.c ****     *
1387:.\Generated_Source\PSoC5/Code_Bar.c ****     * Theory:
1388:.\Generated_Source\PSoC5/Code_Bar.c ****     *  Setting the pointers to zero makes the system believe there is no data to
1389:.\Generated_Source\PSoC5/Code_Bar.c ****     *  read and writing will resume at address 0 overwriting any data that may have
1390:.\Generated_Source\PSoC5/Code_Bar.c ****     *  remained in the RAM.
1391:.\Generated_Source\PSoC5/Code_Bar.c ****     *
1392:.\Generated_Source\PSoC5/Code_Bar.c ****     * Side Effects:
1393:.\Generated_Source\PSoC5/Code_Bar.c ****     *  Any received data not read from the RAM buffer will be lost when overwritten.
1394:.\Generated_Source\PSoC5/Code_Bar.c ****     *
1395:.\Generated_Source\PSoC5/Code_Bar.c ****     *******************************************************************************/
1396:.\Generated_Source\PSoC5/Code_Bar.c ****     void Code_Bar_ClearTxBuffer(void) 
1397:.\Generated_Source\PSoC5/Code_Bar.c ****     {
 1559              		.loc 1 1397 0
 1560              		.cfi_startproc
 1561              		@ args = 0, pretend = 0, frame = 8
 1562              		@ frame_needed = 1, uses_anonymous_args = 0
 1563 0000 80B5     		push	{r7, lr}
ARM GAS  C:\Users\Lenovo\AppData\Local\Temp\ccp7JJIV.s 			page 53


 1564              		.cfi_def_cfa_offset 8
 1565              		.cfi_offset 7, -8
 1566              		.cfi_offset 14, -4
 1567 0002 82B0     		sub	sp, sp, #8
 1568              		.cfi_def_cfa_offset 16
 1569 0004 00AF     		add	r7, sp, #0
 1570              		.cfi_def_cfa_register 7
1398:.\Generated_Source\PSoC5/Code_Bar.c ****         uint8 enableInterrupts;
1399:.\Generated_Source\PSoC5/Code_Bar.c **** 
1400:.\Generated_Source\PSoC5/Code_Bar.c ****         /* Enter critical section */
1401:.\Generated_Source\PSoC5/Code_Bar.c ****         enableInterrupts = CyEnterCriticalSection();
 1571              		.loc 1 1401 0
 1572 0006 FFF7FEFF 		bl	CyEnterCriticalSection
 1573 000a 0346     		mov	r3, r0
 1574 000c FB71     		strb	r3, [r7, #7]
1402:.\Generated_Source\PSoC5/Code_Bar.c ****         /* clear the HW FIFO */
1403:.\Generated_Source\PSoC5/Code_Bar.c ****         Code_Bar_TXDATA_AUX_CTL_REG |=  Code_Bar_TX_FIFO_CLR;
 1575              		.loc 1 1403 0
 1576 000e 0B4A     		ldr	r2, .L108
 1577 0010 0A4B     		ldr	r3, .L108
 1578 0012 1B78     		ldrb	r3, [r3]
 1579 0014 DBB2     		uxtb	r3, r3
 1580 0016 43F00103 		orr	r3, r3, #1
 1581 001a DBB2     		uxtb	r3, r3
 1582 001c 1370     		strb	r3, [r2]
1404:.\Generated_Source\PSoC5/Code_Bar.c ****         Code_Bar_TXDATA_AUX_CTL_REG &= (uint8)~Code_Bar_TX_FIFO_CLR;
 1583              		.loc 1 1404 0
 1584 001e 074A     		ldr	r2, .L108
 1585 0020 064B     		ldr	r3, .L108
 1586 0022 1B78     		ldrb	r3, [r3]
 1587 0024 DBB2     		uxtb	r3, r3
 1588 0026 23F00103 		bic	r3, r3, #1
 1589 002a DBB2     		uxtb	r3, r3
 1590 002c 1370     		strb	r3, [r2]
1405:.\Generated_Source\PSoC5/Code_Bar.c ****         /* Exit critical section */
1406:.\Generated_Source\PSoC5/Code_Bar.c ****         CyExitCriticalSection(enableInterrupts);
 1591              		.loc 1 1406 0
 1592 002e FB79     		ldrb	r3, [r7, #7]	@ zero_extendqisi2
 1593 0030 1846     		mov	r0, r3
 1594 0032 FFF7FEFF 		bl	CyExitCriticalSection
1407:.\Generated_Source\PSoC5/Code_Bar.c **** 
1408:.\Generated_Source\PSoC5/Code_Bar.c ****         #if(Code_Bar_TXBUFFERSIZE > Code_Bar_FIFO_LENGTH)
1409:.\Generated_Source\PSoC5/Code_Bar.c **** 
1410:.\Generated_Source\PSoC5/Code_Bar.c ****             /* Disable Tx interrupt. */
1411:.\Generated_Source\PSoC5/Code_Bar.c ****             /* Protect variables that could change on interrupt. */
1412:.\Generated_Source\PSoC5/Code_Bar.c ****             #if(Code_Bar_TX_INTERRUPT_ENABLED)
1413:.\Generated_Source\PSoC5/Code_Bar.c ****                 Code_Bar_DisableTxInt();
1414:.\Generated_Source\PSoC5/Code_Bar.c ****             #endif /* End Code_Bar_TX_INTERRUPT_ENABLED */
1415:.\Generated_Source\PSoC5/Code_Bar.c **** 
1416:.\Generated_Source\PSoC5/Code_Bar.c ****             Code_Bar_txBufferRead = 0u;
1417:.\Generated_Source\PSoC5/Code_Bar.c ****             Code_Bar_txBufferWrite = 0u;
1418:.\Generated_Source\PSoC5/Code_Bar.c **** 
1419:.\Generated_Source\PSoC5/Code_Bar.c ****             /* Enable Tx interrupt. */
1420:.\Generated_Source\PSoC5/Code_Bar.c ****             #if(Code_Bar_TX_INTERRUPT_ENABLED)
1421:.\Generated_Source\PSoC5/Code_Bar.c ****                 Code_Bar_EnableTxInt();
1422:.\Generated_Source\PSoC5/Code_Bar.c ****             #endif /* End Code_Bar_TX_INTERRUPT_ENABLED */
1423:.\Generated_Source\PSoC5/Code_Bar.c **** 
ARM GAS  C:\Users\Lenovo\AppData\Local\Temp\ccp7JJIV.s 			page 54


1424:.\Generated_Source\PSoC5/Code_Bar.c ****         #endif /* End Code_Bar_TXBUFFERSIZE > Code_Bar_FIFO_LENGTH */
1425:.\Generated_Source\PSoC5/Code_Bar.c ****     }
 1595              		.loc 1 1425 0
 1596 0036 0837     		adds	r7, r7, #8
 1597              		.cfi_def_cfa_offset 8
 1598 0038 BD46     		mov	sp, r7
 1599              		.cfi_def_cfa_register 13
 1600              		@ sp needed
 1601 003a 80BD     		pop	{r7, pc}
 1602              	.L109:
 1603              		.align	2
 1604              	.L108:
 1605 003c 99640040 		.word	1073767577
 1606              		.cfi_endproc
 1607              	.LFE26:
 1608              		.size	Code_Bar_ClearTxBuffer, .-Code_Bar_ClearTxBuffer
 1609              		.section	.text.Code_Bar_SendBreak,"ax",%progbits
 1610              		.align	2
 1611              		.global	Code_Bar_SendBreak
 1612              		.thumb
 1613              		.thumb_func
 1614              		.type	Code_Bar_SendBreak, %function
 1615              	Code_Bar_SendBreak:
 1616              	.LFB27:
1426:.\Generated_Source\PSoC5/Code_Bar.c **** 
1427:.\Generated_Source\PSoC5/Code_Bar.c **** 
1428:.\Generated_Source\PSoC5/Code_Bar.c ****     /*******************************************************************************
1429:.\Generated_Source\PSoC5/Code_Bar.c ****     * Function Name: Code_Bar_SendBreak
1430:.\Generated_Source\PSoC5/Code_Bar.c ****     ********************************************************************************
1431:.\Generated_Source\PSoC5/Code_Bar.c ****     *
1432:.\Generated_Source\PSoC5/Code_Bar.c ****     * Summary:
1433:.\Generated_Source\PSoC5/Code_Bar.c ****     *  Write a Break command to the UART
1434:.\Generated_Source\PSoC5/Code_Bar.c ****     *
1435:.\Generated_Source\PSoC5/Code_Bar.c ****     * Parameters:
1436:.\Generated_Source\PSoC5/Code_Bar.c ****     *  uint8 retMode:  Wait mode,
1437:.\Generated_Source\PSoC5/Code_Bar.c ****     *   0 - Initialize registers for Break, sends the Break signal and return
1438:.\Generated_Source\PSoC5/Code_Bar.c ****     *       imediately.
1439:.\Generated_Source\PSoC5/Code_Bar.c ****     *   1 - Wait until Break sending is complete, reinitialize registers to normal
1440:.\Generated_Source\PSoC5/Code_Bar.c ****     *       transmission mode then return.
1441:.\Generated_Source\PSoC5/Code_Bar.c ****     *   2 - Reinitialize registers to normal transmission mode then return.
1442:.\Generated_Source\PSoC5/Code_Bar.c ****     *   3 - both steps: 0 and 1
1443:.\Generated_Source\PSoC5/Code_Bar.c ****     *       init registers for Break, send Break signal
1444:.\Generated_Source\PSoC5/Code_Bar.c ****     *       wait until Break sending is complete, reinit registers to normal
1445:.\Generated_Source\PSoC5/Code_Bar.c ****     *       transmission mode then return.
1446:.\Generated_Source\PSoC5/Code_Bar.c ****     *
1447:.\Generated_Source\PSoC5/Code_Bar.c ****     * Return:
1448:.\Generated_Source\PSoC5/Code_Bar.c ****     *  None.
1449:.\Generated_Source\PSoC5/Code_Bar.c ****     *
1450:.\Generated_Source\PSoC5/Code_Bar.c ****     * Global Variables:
1451:.\Generated_Source\PSoC5/Code_Bar.c ****     *  Code_Bar_initVar - checked to identify that the component has been
1452:.\Generated_Source\PSoC5/Code_Bar.c ****     *     initialized.
1453:.\Generated_Source\PSoC5/Code_Bar.c ****     *  tx_period - static variable, used for keeping TX period configuration.
1454:.\Generated_Source\PSoC5/Code_Bar.c ****     *
1455:.\Generated_Source\PSoC5/Code_Bar.c ****     * Reentrant:
1456:.\Generated_Source\PSoC5/Code_Bar.c ****     *  No.
1457:.\Generated_Source\PSoC5/Code_Bar.c ****     *
1458:.\Generated_Source\PSoC5/Code_Bar.c ****     * Theory:
ARM GAS  C:\Users\Lenovo\AppData\Local\Temp\ccp7JJIV.s 			page 55


1459:.\Generated_Source\PSoC5/Code_Bar.c ****     *  SendBreak function initializes registers to send 13-bit break signal. It is
1460:.\Generated_Source\PSoC5/Code_Bar.c ****     *  important to return the registers configuration to normal for continue 8-bit
1461:.\Generated_Source\PSoC5/Code_Bar.c ****     *  operation.
1462:.\Generated_Source\PSoC5/Code_Bar.c ****     *  Trere are 3 variants for this API usage:
1463:.\Generated_Source\PSoC5/Code_Bar.c ****     *  1) SendBreak(3) - function will send the Break signal and take care on the
1464:.\Generated_Source\PSoC5/Code_Bar.c ****     *     configuration returning. Funcition will block CPU untill transmition
1465:.\Generated_Source\PSoC5/Code_Bar.c ****     *     complete.
1466:.\Generated_Source\PSoC5/Code_Bar.c ****     *  2) User may want to use bloking time if UART configured to the low speed
1467:.\Generated_Source\PSoC5/Code_Bar.c ****     *     operation
1468:.\Generated_Source\PSoC5/Code_Bar.c ****     *     Emample for this case:
1469:.\Generated_Source\PSoC5/Code_Bar.c ****     *     SendBreak(0);     - init Break signal transmition
1470:.\Generated_Source\PSoC5/Code_Bar.c ****     *         Add your code here to use CPU time
1471:.\Generated_Source\PSoC5/Code_Bar.c ****     *     SendBreak(1);     - complete Break operation
1472:.\Generated_Source\PSoC5/Code_Bar.c ****     *  3) Same to 2) but user may want to init and use the interrupt for complete
1473:.\Generated_Source\PSoC5/Code_Bar.c ****     *     break operation.
1474:.\Generated_Source\PSoC5/Code_Bar.c ****     *     Example for this case:
1475:.\Generated_Source\PSoC5/Code_Bar.c ****     *     Init TX interrupt whith "TX - On TX Complete" parameter
1476:.\Generated_Source\PSoC5/Code_Bar.c ****     *     SendBreak(0);     - init Break signal transmition
1477:.\Generated_Source\PSoC5/Code_Bar.c ****     *         Add your code here to use CPU time
1478:.\Generated_Source\PSoC5/Code_Bar.c ****     *     When interrupt appear with UART_TX_STS_COMPLETE status:
1479:.\Generated_Source\PSoC5/Code_Bar.c ****     *     SendBreak(2);     - complete Break operation
1480:.\Generated_Source\PSoC5/Code_Bar.c ****     *
1481:.\Generated_Source\PSoC5/Code_Bar.c ****     * Side Effects:
1482:.\Generated_Source\PSoC5/Code_Bar.c ****     *   Uses static variable to keep registers configuration.
1483:.\Generated_Source\PSoC5/Code_Bar.c ****     *
1484:.\Generated_Source\PSoC5/Code_Bar.c ****     *******************************************************************************/
1485:.\Generated_Source\PSoC5/Code_Bar.c ****     void Code_Bar_SendBreak(uint8 retMode) 
1486:.\Generated_Source\PSoC5/Code_Bar.c ****     {
 1617              		.loc 1 1486 0
 1618              		.cfi_startproc
 1619              		@ args = 0, pretend = 0, frame = 16
 1620              		@ frame_needed = 1, uses_anonymous_args = 0
 1621              		@ link register save eliminated.
 1622 0000 80B4     		push	{r7}
 1623              		.cfi_def_cfa_offset 4
 1624              		.cfi_offset 7, -4
 1625 0002 85B0     		sub	sp, sp, #20
 1626              		.cfi_def_cfa_offset 24
 1627 0004 00AF     		add	r7, sp, #0
 1628              		.cfi_def_cfa_register 7
 1629 0006 0346     		mov	r3, r0
 1630 0008 FB71     		strb	r3, [r7, #7]
1487:.\Generated_Source\PSoC5/Code_Bar.c **** 
1488:.\Generated_Source\PSoC5/Code_Bar.c ****         /* If not Initialized then skip this function*/
1489:.\Generated_Source\PSoC5/Code_Bar.c ****         if(Code_Bar_initVar != 0u)
 1631              		.loc 1 1489 0
 1632 000a 1F4B     		ldr	r3, .L118
 1633 000c 1B78     		ldrb	r3, [r3]	@ zero_extendqisi2
 1634 000e 002B     		cmp	r3, #0
 1635 0010 35D0     		beq	.L110
 1636              	.LBB2:
1490:.\Generated_Source\PSoC5/Code_Bar.c ****         {
1491:.\Generated_Source\PSoC5/Code_Bar.c ****             /*Set the Counter to 13-bits and transmit a 00 byte*/
1492:.\Generated_Source\PSoC5/Code_Bar.c ****             /*When that is done then reset the counter value back*/
1493:.\Generated_Source\PSoC5/Code_Bar.c ****             uint8 tmpStat;
1494:.\Generated_Source\PSoC5/Code_Bar.c **** 
1495:.\Generated_Source\PSoC5/Code_Bar.c ****             #if(Code_Bar_HD_ENABLED) /* Half Duplex mode*/
ARM GAS  C:\Users\Lenovo\AppData\Local\Temp\ccp7JJIV.s 			page 56


1496:.\Generated_Source\PSoC5/Code_Bar.c **** 
1497:.\Generated_Source\PSoC5/Code_Bar.c ****                 if( (retMode == Code_Bar_SEND_BREAK) ||
1498:.\Generated_Source\PSoC5/Code_Bar.c ****                     (retMode == Code_Bar_SEND_WAIT_REINIT ) )
1499:.\Generated_Source\PSoC5/Code_Bar.c ****                 {
1500:.\Generated_Source\PSoC5/Code_Bar.c ****                     /* CTRL_HD_SEND_BREAK - sends break bits in HD mode*/
1501:.\Generated_Source\PSoC5/Code_Bar.c ****                     Code_Bar_WriteControlRegister(Code_Bar_ReadControlRegister() |
1502:.\Generated_Source\PSoC5/Code_Bar.c ****                                                           Code_Bar_CTRL_HD_SEND_BREAK);
1503:.\Generated_Source\PSoC5/Code_Bar.c ****                     /* Send zeros*/
1504:.\Generated_Source\PSoC5/Code_Bar.c ****                     Code_Bar_TXDATA_REG = 0u;
1505:.\Generated_Source\PSoC5/Code_Bar.c **** 
1506:.\Generated_Source\PSoC5/Code_Bar.c ****                     do /*wait until transmit starts*/
1507:.\Generated_Source\PSoC5/Code_Bar.c ****                     {
1508:.\Generated_Source\PSoC5/Code_Bar.c ****                         tmpStat = Code_Bar_TXSTATUS_REG;
1509:.\Generated_Source\PSoC5/Code_Bar.c ****                     }while((tmpStat & Code_Bar_TX_STS_FIFO_EMPTY) != 0u);
1510:.\Generated_Source\PSoC5/Code_Bar.c ****                 }
1511:.\Generated_Source\PSoC5/Code_Bar.c **** 
1512:.\Generated_Source\PSoC5/Code_Bar.c ****                 if( (retMode == Code_Bar_WAIT_FOR_COMPLETE_REINIT) ||
1513:.\Generated_Source\PSoC5/Code_Bar.c ****                     (retMode == Code_Bar_SEND_WAIT_REINIT) )
1514:.\Generated_Source\PSoC5/Code_Bar.c ****                 {
1515:.\Generated_Source\PSoC5/Code_Bar.c ****                     do /*wait until transmit complete*/
1516:.\Generated_Source\PSoC5/Code_Bar.c ****                     {
1517:.\Generated_Source\PSoC5/Code_Bar.c ****                         tmpStat = Code_Bar_TXSTATUS_REG;
1518:.\Generated_Source\PSoC5/Code_Bar.c ****                     }while(((uint8)~tmpStat & Code_Bar_TX_STS_COMPLETE) != 0u);
1519:.\Generated_Source\PSoC5/Code_Bar.c ****                 }
1520:.\Generated_Source\PSoC5/Code_Bar.c **** 
1521:.\Generated_Source\PSoC5/Code_Bar.c ****                 if( (retMode == Code_Bar_WAIT_FOR_COMPLETE_REINIT) ||
1522:.\Generated_Source\PSoC5/Code_Bar.c ****                     (retMode == Code_Bar_REINIT) ||
1523:.\Generated_Source\PSoC5/Code_Bar.c ****                     (retMode == Code_Bar_SEND_WAIT_REINIT) )
1524:.\Generated_Source\PSoC5/Code_Bar.c ****                 {
1525:.\Generated_Source\PSoC5/Code_Bar.c ****                     Code_Bar_WriteControlRegister(Code_Bar_ReadControlRegister() &
1526:.\Generated_Source\PSoC5/Code_Bar.c ****                                                   (uint8)~Code_Bar_CTRL_HD_SEND_BREAK);
1527:.\Generated_Source\PSoC5/Code_Bar.c ****                 }
1528:.\Generated_Source\PSoC5/Code_Bar.c **** 
1529:.\Generated_Source\PSoC5/Code_Bar.c ****             #else /* Code_Bar_HD_ENABLED Full Duplex mode */
1530:.\Generated_Source\PSoC5/Code_Bar.c **** 
1531:.\Generated_Source\PSoC5/Code_Bar.c ****                 static uint8 tx_period;
1532:.\Generated_Source\PSoC5/Code_Bar.c **** 
1533:.\Generated_Source\PSoC5/Code_Bar.c ****                 if( (retMode == Code_Bar_SEND_BREAK) ||
 1637              		.loc 1 1533 0
 1638 0012 FB79     		ldrb	r3, [r7, #7]	@ zero_extendqisi2
 1639 0014 002B     		cmp	r3, #0
 1640 0016 02D0     		beq	.L112
 1641              		.loc 1 1533 0 is_stmt 0 discriminator 1
 1642 0018 FB79     		ldrb	r3, [r7, #7]	@ zero_extendqisi2
 1643 001a 032B     		cmp	r3, #3
 1644 001c 12D1     		bne	.L113
 1645              	.L112:
1534:.\Generated_Source\PSoC5/Code_Bar.c ****                     (retMode == Code_Bar_SEND_WAIT_REINIT) )
1535:.\Generated_Source\PSoC5/Code_Bar.c ****                 {
1536:.\Generated_Source\PSoC5/Code_Bar.c ****                     /* CTRL_HD_SEND_BREAK - skip to send parity bit at Break signal in Full Duplex 
1537:.\Generated_Source\PSoC5/Code_Bar.c ****                     #if( (Code_Bar_PARITY_TYPE != Code_Bar__B_UART__NONE_REVB) || \
1538:.\Generated_Source\PSoC5/Code_Bar.c ****                                         (Code_Bar_PARITY_TYPE_SW != 0u) )
1539:.\Generated_Source\PSoC5/Code_Bar.c ****                         Code_Bar_WriteControlRegister(Code_Bar_ReadControlRegister() |
1540:.\Generated_Source\PSoC5/Code_Bar.c ****                                                               Code_Bar_CTRL_HD_SEND_BREAK);
1541:.\Generated_Source\PSoC5/Code_Bar.c ****                     #endif /* End Code_Bar_PARITY_TYPE != Code_Bar__B_UART__NONE_REVB  */
1542:.\Generated_Source\PSoC5/Code_Bar.c **** 
1543:.\Generated_Source\PSoC5/Code_Bar.c ****                     #if(Code_Bar_TXCLKGEN_DP)
ARM GAS  C:\Users\Lenovo\AppData\Local\Temp\ccp7JJIV.s 			page 57


1544:.\Generated_Source\PSoC5/Code_Bar.c ****                         tx_period = Code_Bar_TXBITCLKTX_COMPLETE_REG;
 1646              		.loc 1 1544 0 is_stmt 1
 1647 001e 1B4B     		ldr	r3, .L118+4
 1648 0020 1B78     		ldrb	r3, [r3]
 1649 0022 DAB2     		uxtb	r2, r3
 1650 0024 1A4B     		ldr	r3, .L118+8
 1651 0026 1A70     		strb	r2, [r3]
1545:.\Generated_Source\PSoC5/Code_Bar.c ****                         Code_Bar_TXBITCLKTX_COMPLETE_REG = Code_Bar_TXBITCTR_BREAKBITS;
 1652              		.loc 1 1545 0
 1653 0028 184B     		ldr	r3, .L118+4
 1654 002a 6722     		movs	r2, #103
 1655 002c 1A70     		strb	r2, [r3]
1546:.\Generated_Source\PSoC5/Code_Bar.c ****                     #else
1547:.\Generated_Source\PSoC5/Code_Bar.c ****                         tx_period = Code_Bar_TXBITCTR_PERIOD_REG;
1548:.\Generated_Source\PSoC5/Code_Bar.c ****                         Code_Bar_TXBITCTR_PERIOD_REG = Code_Bar_TXBITCTR_BREAKBITS8X;
1549:.\Generated_Source\PSoC5/Code_Bar.c ****                     #endif /* End Code_Bar_TXCLKGEN_DP */
1550:.\Generated_Source\PSoC5/Code_Bar.c **** 
1551:.\Generated_Source\PSoC5/Code_Bar.c ****                     /* Send zeros*/
1552:.\Generated_Source\PSoC5/Code_Bar.c ****                     Code_Bar_TXDATA_REG = 0u;
 1656              		.loc 1 1552 0
 1657 002e 194B     		ldr	r3, .L118+12
 1658 0030 0022     		movs	r2, #0
 1659 0032 1A70     		strb	r2, [r3]
 1660              	.L114:
1553:.\Generated_Source\PSoC5/Code_Bar.c **** 
1554:.\Generated_Source\PSoC5/Code_Bar.c ****                     do /* wait until transmit starts */
1555:.\Generated_Source\PSoC5/Code_Bar.c ****                     {
1556:.\Generated_Source\PSoC5/Code_Bar.c ****                         tmpStat = Code_Bar_TXSTATUS_REG;
 1661              		.loc 1 1556 0 discriminator 1
 1662 0034 184B     		ldr	r3, .L118+16
 1663 0036 1B78     		ldrb	r3, [r3]
 1664 0038 FB73     		strb	r3, [r7, #15]
1557:.\Generated_Source\PSoC5/Code_Bar.c ****                     }while((tmpStat & Code_Bar_TX_STS_FIFO_EMPTY) != 0u);
 1665              		.loc 1 1557 0 discriminator 1
 1666 003a FB7B     		ldrb	r3, [r7, #15]	@ zero_extendqisi2
 1667 003c 03F00203 		and	r3, r3, #2
 1668 0040 002B     		cmp	r3, #0
 1669 0042 F7D1     		bne	.L114
 1670              	.L113:
1558:.\Generated_Source\PSoC5/Code_Bar.c ****                 }
1559:.\Generated_Source\PSoC5/Code_Bar.c **** 
1560:.\Generated_Source\PSoC5/Code_Bar.c ****                 if( (retMode == Code_Bar_WAIT_FOR_COMPLETE_REINIT) ||
 1671              		.loc 1 1560 0
 1672 0044 FB79     		ldrb	r3, [r7, #7]	@ zero_extendqisi2
 1673 0046 012B     		cmp	r3, #1
 1674 0048 02D0     		beq	.L115
 1675              		.loc 1 1560 0 is_stmt 0 discriminator 1
 1676 004a FB79     		ldrb	r3, [r7, #7]	@ zero_extendqisi2
 1677 004c 032B     		cmp	r3, #3
 1678 004e 09D1     		bne	.L116
 1679              	.L115:
1561:.\Generated_Source\PSoC5/Code_Bar.c ****                     (retMode == Code_Bar_SEND_WAIT_REINIT) )
1562:.\Generated_Source\PSoC5/Code_Bar.c ****                 {
1563:.\Generated_Source\PSoC5/Code_Bar.c ****                     do /*wait until transmit complete*/
1564:.\Generated_Source\PSoC5/Code_Bar.c ****                     {
1565:.\Generated_Source\PSoC5/Code_Bar.c ****                         tmpStat = Code_Bar_TXSTATUS_REG;
 1680              		.loc 1 1565 0 is_stmt 1 discriminator 1
ARM GAS  C:\Users\Lenovo\AppData\Local\Temp\ccp7JJIV.s 			page 58


 1681 0050 114B     		ldr	r3, .L118+16
 1682 0052 1B78     		ldrb	r3, [r3]
 1683 0054 FB73     		strb	r3, [r7, #15]
1566:.\Generated_Source\PSoC5/Code_Bar.c ****                     }while(((uint8)~tmpStat & Code_Bar_TX_STS_COMPLETE) != 0u);
 1684              		.loc 1 1566 0 discriminator 1
 1685 0056 FB7B     		ldrb	r3, [r7, #15]
 1686 0058 DB43     		mvns	r3, r3
 1687 005a DBB2     		uxtb	r3, r3
 1688 005c 03F00103 		and	r3, r3, #1
 1689 0060 002B     		cmp	r3, #0
 1690 0062 F5D1     		bne	.L115
 1691              	.L116:
1567:.\Generated_Source\PSoC5/Code_Bar.c ****                 }
1568:.\Generated_Source\PSoC5/Code_Bar.c **** 
1569:.\Generated_Source\PSoC5/Code_Bar.c ****                 if( (retMode == Code_Bar_WAIT_FOR_COMPLETE_REINIT) ||
 1692              		.loc 1 1569 0
 1693 0064 FB79     		ldrb	r3, [r7, #7]	@ zero_extendqisi2
 1694 0066 012B     		cmp	r3, #1
 1695 0068 05D0     		beq	.L117
 1696              		.loc 1 1569 0 is_stmt 0 discriminator 1
 1697 006a FB79     		ldrb	r3, [r7, #7]	@ zero_extendqisi2
 1698 006c 022B     		cmp	r3, #2
 1699 006e 02D0     		beq	.L117
1570:.\Generated_Source\PSoC5/Code_Bar.c ****                     (retMode == Code_Bar_REINIT) ||
 1700              		.loc 1 1570 0 is_stmt 1
 1701 0070 FB79     		ldrb	r3, [r7, #7]	@ zero_extendqisi2
 1702 0072 032B     		cmp	r3, #3
 1703 0074 03D1     		bne	.L110
 1704              	.L117:
1571:.\Generated_Source\PSoC5/Code_Bar.c ****                     (retMode == Code_Bar_SEND_WAIT_REINIT) )
1572:.\Generated_Source\PSoC5/Code_Bar.c ****                 {
1573:.\Generated_Source\PSoC5/Code_Bar.c **** 
1574:.\Generated_Source\PSoC5/Code_Bar.c ****                     #if(Code_Bar_TXCLKGEN_DP)
1575:.\Generated_Source\PSoC5/Code_Bar.c ****                         Code_Bar_TXBITCLKTX_COMPLETE_REG = tx_period;
 1705              		.loc 1 1575 0
 1706 0076 054B     		ldr	r3, .L118+4
 1707 0078 054A     		ldr	r2, .L118+8
 1708 007a 1278     		ldrb	r2, [r2]	@ zero_extendqisi2
 1709 007c 1A70     		strb	r2, [r3]
 1710              	.L110:
 1711              	.LBE2:
1576:.\Generated_Source\PSoC5/Code_Bar.c ****                     #else
1577:.\Generated_Source\PSoC5/Code_Bar.c ****                         Code_Bar_TXBITCTR_PERIOD_REG = tx_period;
1578:.\Generated_Source\PSoC5/Code_Bar.c ****                     #endif /* End Code_Bar_TXCLKGEN_DP */
1579:.\Generated_Source\PSoC5/Code_Bar.c **** 
1580:.\Generated_Source\PSoC5/Code_Bar.c ****                     #if( (Code_Bar_PARITY_TYPE != Code_Bar__B_UART__NONE_REVB) || \
1581:.\Generated_Source\PSoC5/Code_Bar.c ****                          (Code_Bar_PARITY_TYPE_SW != 0u) )
1582:.\Generated_Source\PSoC5/Code_Bar.c ****                         Code_Bar_WriteControlRegister(Code_Bar_ReadControlRegister() &
1583:.\Generated_Source\PSoC5/Code_Bar.c ****                                                       (uint8)~Code_Bar_CTRL_HD_SEND_BREAK);
1584:.\Generated_Source\PSoC5/Code_Bar.c ****                     #endif /* End Code_Bar_PARITY_TYPE != NONE */
1585:.\Generated_Source\PSoC5/Code_Bar.c ****                 }
1586:.\Generated_Source\PSoC5/Code_Bar.c ****             #endif    /* End Code_Bar_HD_ENABLED */
1587:.\Generated_Source\PSoC5/Code_Bar.c ****         }
1588:.\Generated_Source\PSoC5/Code_Bar.c ****     }
 1712              		.loc 1 1588 0
 1713 007e 1437     		adds	r7, r7, #20
 1714              		.cfi_def_cfa_offset 4
ARM GAS  C:\Users\Lenovo\AppData\Local\Temp\ccp7JJIV.s 			page 59


 1715 0080 BD46     		mov	sp, r7
 1716              		.cfi_def_cfa_register 13
 1717              		@ sp needed
 1718 0082 5DF8047B 		ldr	r7, [sp], #4
 1719              		.cfi_restore 7
 1720              		.cfi_def_cfa_offset 0
 1721 0086 7047     		bx	lr
 1722              	.L119:
 1723              		.align	2
 1724              	.L118:
 1725 0088 00000000 		.word	Code_Bar_initVar
 1726 008c 39650040 		.word	1073767737
 1727 0090 08000000 		.word	tx_period.5012
 1728 0094 49640040 		.word	1073767497
 1729 0098 6A640040 		.word	1073767530
 1730              		.cfi_endproc
 1731              	.LFE27:
 1732              		.size	Code_Bar_SendBreak, .-Code_Bar_SendBreak
 1733              		.section	.text.Code_Bar_SetTxAddressMode,"ax",%progbits
 1734              		.align	2
 1735              		.global	Code_Bar_SetTxAddressMode
 1736              		.thumb
 1737              		.thumb_func
 1738              		.type	Code_Bar_SetTxAddressMode, %function
 1739              	Code_Bar_SetTxAddressMode:
 1740              	.LFB28:
1589:.\Generated_Source\PSoC5/Code_Bar.c **** 
1590:.\Generated_Source\PSoC5/Code_Bar.c **** 
1591:.\Generated_Source\PSoC5/Code_Bar.c ****     /*******************************************************************************
1592:.\Generated_Source\PSoC5/Code_Bar.c ****     * Function Name: Code_Bar_SetTxAddressMode
1593:.\Generated_Source\PSoC5/Code_Bar.c ****     ********************************************************************************
1594:.\Generated_Source\PSoC5/Code_Bar.c ****     *
1595:.\Generated_Source\PSoC5/Code_Bar.c ****     * Summary:
1596:.\Generated_Source\PSoC5/Code_Bar.c ****     *  Set the transmit addressing mode
1597:.\Generated_Source\PSoC5/Code_Bar.c ****     *
1598:.\Generated_Source\PSoC5/Code_Bar.c ****     * Parameters:
1599:.\Generated_Source\PSoC5/Code_Bar.c ****     *  addressMode: 0 -> Space
1600:.\Generated_Source\PSoC5/Code_Bar.c ****     *               1 -> Mark
1601:.\Generated_Source\PSoC5/Code_Bar.c ****     *
1602:.\Generated_Source\PSoC5/Code_Bar.c ****     * Return:
1603:.\Generated_Source\PSoC5/Code_Bar.c ****     *  None.
1604:.\Generated_Source\PSoC5/Code_Bar.c ****     *
1605:.\Generated_Source\PSoC5/Code_Bar.c ****     *******************************************************************************/
1606:.\Generated_Source\PSoC5/Code_Bar.c ****     void Code_Bar_SetTxAddressMode(uint8 addressMode) 
1607:.\Generated_Source\PSoC5/Code_Bar.c ****     {
 1741              		.loc 1 1607 0
 1742              		.cfi_startproc
 1743              		@ args = 0, pretend = 0, frame = 8
 1744              		@ frame_needed = 1, uses_anonymous_args = 0
 1745              		@ link register save eliminated.
 1746 0000 80B4     		push	{r7}
 1747              		.cfi_def_cfa_offset 4
 1748              		.cfi_offset 7, -4
 1749 0002 83B0     		sub	sp, sp, #12
 1750              		.cfi_def_cfa_offset 16
 1751 0004 00AF     		add	r7, sp, #0
 1752              		.cfi_def_cfa_register 7
ARM GAS  C:\Users\Lenovo\AppData\Local\Temp\ccp7JJIV.s 			page 60


 1753 0006 0346     		mov	r3, r0
 1754 0008 FB71     		strb	r3, [r7, #7]
1608:.\Generated_Source\PSoC5/Code_Bar.c ****         /* Mark/Space sending enable*/
1609:.\Generated_Source\PSoC5/Code_Bar.c ****         if(addressMode != 0u)
1610:.\Generated_Source\PSoC5/Code_Bar.c ****         {
1611:.\Generated_Source\PSoC5/Code_Bar.c ****             #if( Code_Bar_CONTROL_REG_REMOVED == 0u )
1612:.\Generated_Source\PSoC5/Code_Bar.c ****                 Code_Bar_WriteControlRegister(Code_Bar_ReadControlRegister() |
1613:.\Generated_Source\PSoC5/Code_Bar.c ****                                                       Code_Bar_CTRL_MARK);
1614:.\Generated_Source\PSoC5/Code_Bar.c ****             #endif /* End Code_Bar_CONTROL_REG_REMOVED == 0u */
1615:.\Generated_Source\PSoC5/Code_Bar.c ****         }
1616:.\Generated_Source\PSoC5/Code_Bar.c ****         else
1617:.\Generated_Source\PSoC5/Code_Bar.c ****         {
1618:.\Generated_Source\PSoC5/Code_Bar.c ****             #if( Code_Bar_CONTROL_REG_REMOVED == 0u )
1619:.\Generated_Source\PSoC5/Code_Bar.c ****                 Code_Bar_WriteControlRegister(Code_Bar_ReadControlRegister() &
1620:.\Generated_Source\PSoC5/Code_Bar.c ****                                                     (uint8)~Code_Bar_CTRL_MARK);
1621:.\Generated_Source\PSoC5/Code_Bar.c ****             #endif /* End Code_Bar_CONTROL_REG_REMOVED == 0u */
1622:.\Generated_Source\PSoC5/Code_Bar.c ****         }
1623:.\Generated_Source\PSoC5/Code_Bar.c ****     }
 1755              		.loc 1 1623 0
 1756 000a 0C37     		adds	r7, r7, #12
 1757              		.cfi_def_cfa_offset 4
 1758 000c BD46     		mov	sp, r7
 1759              		.cfi_def_cfa_register 13
 1760              		@ sp needed
 1761 000e 5DF8047B 		ldr	r7, [sp], #4
 1762              		.cfi_restore 7
 1763              		.cfi_def_cfa_offset 0
 1764 0012 7047     		bx	lr
 1765              		.cfi_endproc
 1766              	.LFE28:
 1767              		.size	Code_Bar_SetTxAddressMode, .-Code_Bar_SetTxAddressMode
 1768              		.bss
 1769              	tx_period.5012:
 1770 0008 00       		.space	1
 1771 0009 00       		.text
 1772              	.Letext0:
 1773              		.file 2 ".\\Generated_Source\\PSoC5\\cytypes.h"
 1774              		.section	.debug_info,"",%progbits
 1775              	.Ldebug_info0:
 1776 0000 E7050000 		.4byte	0x5e7
 1777 0004 0400     		.2byte	0x4
 1778 0006 00000000 		.4byte	.Ldebug_abbrev0
 1779 000a 04       		.byte	0x4
 1780 000b 01       		.uleb128 0x1
 1781 000c 67030000 		.4byte	.LASF72
 1782 0010 01       		.byte	0x1
 1783 0011 D8010000 		.4byte	.LASF73
 1784 0015 52020000 		.4byte	.LASF74
 1785 0019 00000000 		.4byte	.Ldebug_ranges0+0
 1786 001d 00000000 		.4byte	0
 1787 0021 00000000 		.4byte	.Ldebug_line0
 1788 0025 02       		.uleb128 0x2
 1789 0026 01       		.byte	0x1
 1790 0027 06       		.byte	0x6
 1791 0028 09010000 		.4byte	.LASF0
 1792 002c 02       		.uleb128 0x2
 1793 002d 01       		.byte	0x1
ARM GAS  C:\Users\Lenovo\AppData\Local\Temp\ccp7JJIV.s 			page 61


 1794 002e 08       		.byte	0x8
 1795 002f 1B040000 		.4byte	.LASF1
 1796 0033 02       		.uleb128 0x2
 1797 0034 02       		.byte	0x2
 1798 0035 05       		.byte	0x5
 1799 0036 46040000 		.4byte	.LASF2
 1800 003a 02       		.uleb128 0x2
 1801 003b 02       		.byte	0x2
 1802 003c 07       		.byte	0x7
 1803 003d A9020000 		.4byte	.LASF3
 1804 0041 02       		.uleb128 0x2
 1805 0042 04       		.byte	0x4
 1806 0043 05       		.byte	0x5
 1807 0044 6C010000 		.4byte	.LASF4
 1808 0048 02       		.uleb128 0x2
 1809 0049 04       		.byte	0x4
 1810 004a 07       		.byte	0x7
 1811 004b 22020000 		.4byte	.LASF5
 1812 004f 02       		.uleb128 0x2
 1813 0050 08       		.byte	0x8
 1814 0051 05       		.byte	0x5
 1815 0052 FB000000 		.4byte	.LASF6
 1816 0056 02       		.uleb128 0x2
 1817 0057 08       		.byte	0x8
 1818 0058 07       		.byte	0x7
 1819 0059 88000000 		.4byte	.LASF7
 1820 005d 03       		.uleb128 0x3
 1821 005e 04       		.byte	0x4
 1822 005f 05       		.byte	0x5
 1823 0060 696E7400 		.ascii	"int\000"
 1824 0064 02       		.uleb128 0x2
 1825 0065 04       		.byte	0x4
 1826 0066 07       		.byte	0x7
 1827 0067 15020000 		.4byte	.LASF8
 1828 006b 04       		.uleb128 0x4
 1829 006c 9A010000 		.4byte	.LASF9
 1830 0070 02       		.byte	0x2
 1831 0071 A1       		.byte	0xa1
 1832 0072 2C000000 		.4byte	0x2c
 1833 0076 04       		.uleb128 0x4
 1834 0077 00000000 		.4byte	.LASF10
 1835 007b 02       		.byte	0x2
 1836 007c A2       		.byte	0xa2
 1837 007d 3A000000 		.4byte	0x3a
 1838 0081 04       		.uleb128 0x4
 1839 0082 B3010000 		.4byte	.LASF11
 1840 0086 02       		.byte	0x2
 1841 0087 A3       		.byte	0xa3
 1842 0088 48000000 		.4byte	0x48
 1843 008c 02       		.uleb128 0x2
 1844 008d 04       		.byte	0x4
 1845 008e 04       		.byte	0x4
 1846 008f 10040000 		.4byte	.LASF12
 1847 0093 02       		.uleb128 0x2
 1848 0094 08       		.byte	0x8
 1849 0095 04       		.byte	0x4
 1850 0096 A0010000 		.4byte	.LASF13
ARM GAS  C:\Users\Lenovo\AppData\Local\Temp\ccp7JJIV.s 			page 62


 1851 009a 04       		.uleb128 0x4
 1852 009b 8B040000 		.4byte	.LASF14
 1853 009f 02       		.byte	0x2
 1854 00a0 B2       		.byte	0xb2
 1855 00a1 A5000000 		.4byte	0xa5
 1856 00a5 02       		.uleb128 0x2
 1857 00a6 01       		.byte	0x1
 1858 00a7 08       		.byte	0x8
 1859 00a8 86040000 		.4byte	.LASF15
 1860 00ac 05       		.uleb128 0x5
 1861 00ad 16040000 		.4byte	.LASF16
 1862 00b1 02       		.byte	0x2
 1863 00b2 4B01     		.2byte	0x14b
 1864 00b4 B8000000 		.4byte	0xb8
 1865 00b8 06       		.uleb128 0x6
 1866 00b9 6B000000 		.4byte	0x6b
 1867 00bd 06       		.uleb128 0x6
 1868 00be 76000000 		.4byte	0x76
 1869 00c2 05       		.uleb128 0x5
 1870 00c3 00030000 		.4byte	.LASF17
 1871 00c7 02       		.byte	0x2
 1872 00c8 4D01     		.2byte	0x14d
 1873 00ca CE000000 		.4byte	0xce
 1874 00ce 06       		.uleb128 0x6
 1875 00cf 81000000 		.4byte	0x81
 1876 00d3 02       		.uleb128 0x2
 1877 00d4 04       		.byte	0x4
 1878 00d5 07       		.byte	0x7
 1879 00d6 0E030000 		.4byte	.LASF18
 1880 00da 07       		.uleb128 0x7
 1881 00db 75010000 		.4byte	.LASF19
 1882 00df 01       		.byte	0x1
 1883 00e0 49       		.byte	0x49
 1884 00e1 00000000 		.4byte	.LFB0
 1885 00e5 20000000 		.4byte	.LFE0-.LFB0
 1886 00e9 01       		.uleb128 0x1
 1887 00ea 9C       		.byte	0x9c
 1888 00eb 07       		.uleb128 0x7
 1889 00ec 24000000 		.4byte	.LASF20
 1890 00f0 01       		.byte	0x1
 1891 00f1 65       		.byte	0x65
 1892 00f2 00000000 		.4byte	.LFB1
 1893 00f6 4C000000 		.4byte	.LFE1-.LFB1
 1894 00fa 01       		.uleb128 0x1
 1895 00fb 9C       		.byte	0x9c
 1896 00fc 08       		.uleb128 0x8
 1897 00fd 50040000 		.4byte	.LASF21
 1898 0101 01       		.byte	0x1
 1899 0102 AE       		.byte	0xae
 1900 0103 00000000 		.4byte	.LFB2
 1901 0107 68000000 		.4byte	.LFE2-.LFB2
 1902 010b 01       		.uleb128 0x1
 1903 010c 9C       		.byte	0x9c
 1904 010d 20010000 		.4byte	0x120
 1905 0111 09       		.uleb128 0x9
 1906 0112 F9040000 		.4byte	.LASF23
 1907 0116 01       		.byte	0x1
ARM GAS  C:\Users\Lenovo\AppData\Local\Temp\ccp7JJIV.s 			page 63


 1908 0117 B0       		.byte	0xb0
 1909 0118 6B000000 		.4byte	0x6b
 1910 011c 02       		.uleb128 0x2
 1911 011d 91       		.byte	0x91
 1912 011e 77       		.sleb128 -9
 1913 011f 00       		.byte	0
 1914 0120 08       		.uleb128 0x8
 1915 0121 78040000 		.4byte	.LASF22
 1916 0125 01       		.byte	0x1
 1917 0126 E3       		.byte	0xe3
 1918 0127 00000000 		.4byte	.LFB3
 1919 012b 60000000 		.4byte	.LFE3-.LFB3
 1920 012f 01       		.uleb128 0x1
 1921 0130 9C       		.byte	0x9c
 1922 0131 44010000 		.4byte	0x144
 1923 0135 09       		.uleb128 0x9
 1924 0136 F9040000 		.4byte	.LASF23
 1925 013a 01       		.byte	0x1
 1926 013b E5       		.byte	0xe5
 1927 013c 6B000000 		.4byte	0x6b
 1928 0140 02       		.uleb128 0x2
 1929 0141 91       		.byte	0x91
 1930 0142 77       		.sleb128 -9
 1931 0143 00       		.byte	0
 1932 0144 0A       		.uleb128 0xa
 1933 0145 29040000 		.4byte	.LASF38
 1934 0149 01       		.byte	0x1
 1935 014a 1901     		.2byte	0x119
 1936 014c 6B000000 		.4byte	0x6b
 1937 0150 00000000 		.4byte	.LFB4
 1938 0154 10000000 		.4byte	.LFE4-.LFB4
 1939 0158 01       		.uleb128 0x1
 1940 0159 9C       		.byte	0x9c
 1941 015a 0B       		.uleb128 0xb
 1942 015b 34020000 		.4byte	.LASF24
 1943 015f 01       		.byte	0x1
 1944 0160 3101     		.2byte	0x131
 1945 0162 00000000 		.4byte	.LFB5
 1946 0166 14000000 		.4byte	.LFE5-.LFB5
 1947 016a 01       		.uleb128 0x1
 1948 016b 9C       		.byte	0x9c
 1949 016c 80010000 		.4byte	0x180
 1950 0170 0C       		.uleb128 0xc
 1951 0171 BA010000 		.4byte	.LASF28
 1952 0175 01       		.byte	0x1
 1953 0176 3101     		.2byte	0x131
 1954 0178 6B000000 		.4byte	0x6b
 1955 017c 02       		.uleb128 0x2
 1956 017d 91       		.byte	0x91
 1957 017e 77       		.sleb128 -9
 1958 017f 00       		.byte	0
 1959 0180 0D       		.uleb128 0xd
 1960 0181 44010000 		.4byte	.LASF25
 1961 0185 01       		.byte	0x1
 1962 0186 5001     		.2byte	0x150
 1963 0188 00000000 		.4byte	.LFB6
 1964 018c 18000000 		.4byte	.LFE6-.LFB6
ARM GAS  C:\Users\Lenovo\AppData\Local\Temp\ccp7JJIV.s 			page 64


 1965 0190 01       		.uleb128 0x1
 1966 0191 9C       		.byte	0x9c
 1967 0192 0D       		.uleb128 0xd
 1968 0193 C2010000 		.4byte	.LASF26
 1969 0197 01       		.byte	0x1
 1970 0198 6701     		.2byte	0x167
 1971 019a 00000000 		.4byte	.LFB7
 1972 019e 18000000 		.4byte	.LFE7-.LFB7
 1973 01a2 01       		.uleb128 0x1
 1974 01a3 9C       		.byte	0x9c
 1975 01a4 0B       		.uleb128 0xb
 1976 01a5 DD040000 		.4byte	.LASF27
 1977 01a9 01       		.byte	0x1
 1978 01aa 8101     		.2byte	0x181
 1979 01ac 00000000 		.4byte	.LFB8
 1980 01b0 20000000 		.4byte	.LFE8-.LFB8
 1981 01b4 01       		.uleb128 0x1
 1982 01b5 9C       		.byte	0x9c
 1983 01b6 CA010000 		.4byte	0x1ca
 1984 01ba 0C       		.uleb128 0xc
 1985 01bb D7020000 		.4byte	.LASF29
 1986 01bf 01       		.byte	0x1
 1987 01c0 8101     		.2byte	0x181
 1988 01c2 6B000000 		.4byte	0x6b
 1989 01c6 02       		.uleb128 0x2
 1990 01c7 91       		.byte	0x91
 1991 01c8 77       		.sleb128 -9
 1992 01c9 00       		.byte	0
 1993 01ca 0E       		.uleb128 0xe
 1994 01cb 61000000 		.4byte	.LASF33
 1995 01cf 01       		.byte	0x1
 1996 01d0 A201     		.2byte	0x1a2
 1997 01d2 6B000000 		.4byte	0x6b
 1998 01d6 00000000 		.4byte	.LFB9
 1999 01da 84000000 		.4byte	.LFE9-.LFB9
 2000 01de 01       		.uleb128 0x1
 2001 01df 9C       		.byte	0x9c
 2002 01e0 12020000 		.4byte	0x212
 2003 01e4 0F       		.uleb128 0xf
 2004 01e5 6A040000 		.4byte	.LASF30
 2005 01e9 01       		.byte	0x1
 2006 01ea A401     		.2byte	0x1a4
 2007 01ec 6B000000 		.4byte	0x6b
 2008 01f0 02       		.uleb128 0x2
 2009 01f1 91       		.byte	0x91
 2010 01f2 77       		.sleb128 -9
 2011 01f3 0F       		.uleb128 0xf
 2012 01f4 BC020000 		.4byte	.LASF31
 2013 01f8 01       		.byte	0x1
 2014 01f9 A701     		.2byte	0x1a7
 2015 01fb 76000000 		.4byte	0x76
 2016 01ff 02       		.uleb128 0x2
 2017 0200 91       		.byte	0x91
 2018 0201 74       		.sleb128 -12
 2019 0202 0F       		.uleb128 0xf
 2020 0203 07000000 		.4byte	.LASF32
 2021 0207 01       		.byte	0x1
ARM GAS  C:\Users\Lenovo\AppData\Local\Temp\ccp7JJIV.s 			page 65


 2022 0208 A801     		.2byte	0x1a8
 2023 020a 76000000 		.4byte	0x76
 2024 020e 02       		.uleb128 0x2
 2025 020f 91       		.byte	0x91
 2026 0210 72       		.sleb128 -14
 2027 0211 00       		.byte	0
 2028 0212 10       		.uleb128 0x10
 2029 0213 2E010000 		.4byte	.LASF34
 2030 0217 01       		.byte	0x1
 2031 0218 FD01     		.2byte	0x1fd
 2032 021a 6B000000 		.4byte	0x6b
 2033 021e 00000000 		.4byte	.LFB10
 2034 0222 40000000 		.4byte	.LFE10-.LFB10
 2035 0226 01       		.uleb128 0x1
 2036 0227 9C       		.byte	0x9c
 2037 0228 3C020000 		.4byte	0x23c
 2038 022c 0F       		.uleb128 0xf
 2039 022d 0A050000 		.4byte	.LASF35
 2040 0231 01       		.byte	0x1
 2041 0232 FF01     		.2byte	0x1ff
 2042 0234 6B000000 		.4byte	0x6b
 2043 0238 02       		.uleb128 0x2
 2044 0239 91       		.byte	0x91
 2045 023a 77       		.sleb128 -9
 2046 023b 00       		.byte	0
 2047 023c 0E       		.uleb128 0xe
 2048 023d 2A050000 		.4byte	.LASF36
 2049 0241 01       		.byte	0x1
 2050 0242 2C02     		.2byte	0x22c
 2051 0244 6B000000 		.4byte	0x6b
 2052 0248 00000000 		.4byte	.LFB11
 2053 024c A8000000 		.4byte	.LFE11-.LFB11
 2054 0250 01       		.uleb128 0x1
 2055 0251 9C       		.byte	0x9c
 2056 0252 93020000 		.4byte	0x293
 2057 0256 0F       		.uleb128 0xf
 2058 0257 6A040000 		.4byte	.LASF30
 2059 025b 01       		.byte	0x1
 2060 025c 2E02     		.2byte	0x22e
 2061 025e 6B000000 		.4byte	0x6b
 2062 0262 02       		.uleb128 0x2
 2063 0263 91       		.byte	0x91
 2064 0264 77       		.sleb128 -9
 2065 0265 0F       		.uleb128 0xf
 2066 0266 F5030000 		.4byte	.LASF37
 2067 026a 01       		.byte	0x1
 2068 026b 2F02     		.2byte	0x22f
 2069 026d 6B000000 		.4byte	0x6b
 2070 0271 02       		.uleb128 0x2
 2071 0272 91       		.byte	0x91
 2072 0273 71       		.sleb128 -15
 2073 0274 0F       		.uleb128 0xf
 2074 0275 BC020000 		.4byte	.LASF31
 2075 0279 01       		.byte	0x1
 2076 027a 3202     		.2byte	0x232
 2077 027c 76000000 		.4byte	0x76
 2078 0280 02       		.uleb128 0x2
ARM GAS  C:\Users\Lenovo\AppData\Local\Temp\ccp7JJIV.s 			page 66


 2079 0281 91       		.byte	0x91
 2080 0282 74       		.sleb128 -12
 2081 0283 0F       		.uleb128 0xf
 2082 0284 07000000 		.4byte	.LASF32
 2083 0288 01       		.byte	0x1
 2084 0289 3302     		.2byte	0x233
 2085 028b 76000000 		.4byte	0x76
 2086 028f 02       		.uleb128 0x2
 2087 0290 91       		.byte	0x91
 2088 0291 72       		.sleb128 -14
 2089 0292 00       		.byte	0
 2090 0293 11       		.uleb128 0x11
 2091 0294 DE020000 		.4byte	.LASF39
 2092 0298 01       		.byte	0x1
 2093 0299 9202     		.2byte	0x292
 2094 029b 76000000 		.4byte	0x76
 2095 029f 00000000 		.4byte	.LFB12
 2096 02a3 22000000 		.4byte	.LFE12-.LFB12
 2097 02a7 01       		.uleb128 0x1
 2098 02a8 9C       		.byte	0x9c
 2099 02a9 0E       		.uleb128 0xe
 2100 02aa 15010000 		.4byte	.LASF40
 2101 02ae 01       		.byte	0x1
 2102 02af B302     		.2byte	0x2b3
 2103 02b1 76000000 		.4byte	0x76
 2104 02b5 00000000 		.4byte	.LFB13
 2105 02b9 84000000 		.4byte	.LFE13-.LFB13
 2106 02bd 01       		.uleb128 0x1
 2107 02be 9C       		.byte	0x9c
 2108 02bf D3020000 		.4byte	0x2d3
 2109 02c3 0F       		.uleb128 0xf
 2110 02c4 A4020000 		.4byte	.LASF41
 2111 02c8 01       		.byte	0x1
 2112 02c9 B602     		.2byte	0x2b6
 2113 02cb 76000000 		.4byte	0x76
 2114 02cf 02       		.uleb128 0x2
 2115 02d0 91       		.byte	0x91
 2116 02d1 76       		.sleb128 -10
 2117 02d2 00       		.byte	0
 2118 02d3 12       		.uleb128 0x12
 2119 02d4 1F030000 		.4byte	.LASF42
 2120 02d8 01       		.byte	0x1
 2121 02d9 0303     		.2byte	0x303
 2122 02db 00000000 		.4byte	.LFB14
 2123 02df 70000000 		.4byte	.LFE14-.LFB14
 2124 02e3 01       		.uleb128 0x1
 2125 02e4 9C       		.byte	0x9c
 2126 02e5 F9020000 		.4byte	0x2f9
 2127 02e9 0F       		.uleb128 0xf
 2128 02ea F9040000 		.4byte	.LASF23
 2129 02ee 01       		.byte	0x1
 2130 02ef 0503     		.2byte	0x305
 2131 02f1 6B000000 		.4byte	0x6b
 2132 02f5 02       		.uleb128 0x2
 2133 02f6 91       		.byte	0x91
 2134 02f7 77       		.sleb128 -9
 2135 02f8 00       		.byte	0
ARM GAS  C:\Users\Lenovo\AppData\Local\Temp\ccp7JJIV.s 			page 67


 2136 02f9 0B       		.uleb128 0xb
 2137 02fa 47000000 		.4byte	.LASF43
 2138 02fe 01       		.byte	0x1
 2139 02ff 4003     		.2byte	0x340
 2140 0301 00000000 		.4byte	.LFB15
 2141 0305 14000000 		.4byte	.LFE15-.LFB15
 2142 0309 01       		.uleb128 0x1
 2143 030a 9C       		.byte	0x9c
 2144 030b 1F030000 		.4byte	0x31f
 2145 030f 0C       		.uleb128 0xc
 2146 0310 A7010000 		.4byte	.LASF44
 2147 0314 01       		.byte	0x1
 2148 0315 4003     		.2byte	0x340
 2149 0317 6B000000 		.4byte	0x6b
 2150 031b 02       		.uleb128 0x2
 2151 031c 91       		.byte	0x91
 2152 031d 77       		.sleb128 -9
 2153 031e 00       		.byte	0
 2154 031f 0B       		.uleb128 0xb
 2155 0320 CD000000 		.4byte	.LASF45
 2156 0324 01       		.byte	0x1
 2157 0325 6503     		.2byte	0x365
 2158 0327 00000000 		.4byte	.LFB16
 2159 032b 20000000 		.4byte	.LFE16-.LFB16
 2160 032f 01       		.uleb128 0x1
 2161 0330 9C       		.byte	0x9c
 2162 0331 45030000 		.4byte	0x345
 2163 0335 0C       		.uleb128 0xc
 2164 0336 17030000 		.4byte	.LASF46
 2165 033a 01       		.byte	0x1
 2166 033b 6503     		.2byte	0x365
 2167 033d 6B000000 		.4byte	0x6b
 2168 0341 02       		.uleb128 0x2
 2169 0342 91       		.byte	0x91
 2170 0343 77       		.sleb128 -9
 2171 0344 00       		.byte	0
 2172 0345 0B       		.uleb128 0xb
 2173 0346 E4000000 		.4byte	.LASF47
 2174 034a 01       		.byte	0x1
 2175 034b 7A03     		.2byte	0x37a
 2176 034d 00000000 		.4byte	.LFB17
 2177 0351 20000000 		.4byte	.LFE17-.LFB17
 2178 0355 01       		.uleb128 0x1
 2179 0356 9C       		.byte	0x9c
 2180 0357 6B030000 		.4byte	0x36b
 2181 035b 0C       		.uleb128 0xc
 2182 035c 17030000 		.4byte	.LASF46
 2183 0360 01       		.byte	0x1
 2184 0361 7A03     		.2byte	0x37a
 2185 0363 6B000000 		.4byte	0x6b
 2186 0367 02       		.uleb128 0x2
 2187 0368 91       		.byte	0x91
 2188 0369 77       		.sleb128 -9
 2189 036a 00       		.byte	0
 2190 036b 0B       		.uleb128 0xb
 2191 036c C1040000 		.4byte	.LASF48
 2192 0370 01       		.byte	0x1
ARM GAS  C:\Users\Lenovo\AppData\Local\Temp\ccp7JJIV.s 			page 68


 2193 0371 C803     		.2byte	0x3c8
 2194 0373 00000000 		.4byte	.LFB18
 2195 0377 20000000 		.4byte	.LFE18-.LFB18
 2196 037b 01       		.uleb128 0x1
 2197 037c 9C       		.byte	0x9c
 2198 037d 91030000 		.4byte	0x391
 2199 0381 0C       		.uleb128 0xc
 2200 0382 D7020000 		.4byte	.LASF29
 2201 0386 01       		.byte	0x1
 2202 0387 C803     		.2byte	0x3c8
 2203 0389 6B000000 		.4byte	0x6b
 2204 038d 02       		.uleb128 0x2
 2205 038e 91       		.byte	0x91
 2206 038f 77       		.sleb128 -9
 2207 0390 00       		.byte	0
 2208 0391 0B       		.uleb128 0xb
 2209 0392 32000000 		.4byte	.LASF49
 2210 0396 01       		.byte	0x1
 2211 0397 EA03     		.2byte	0x3ea
 2212 0399 00000000 		.4byte	.LFB19
 2213 039d 2C000000 		.4byte	.LFE19-.LFB19
 2214 03a1 01       		.uleb128 0x1
 2215 03a2 9C       		.byte	0x9c
 2216 03a3 B7030000 		.4byte	0x3b7
 2217 03a7 0C       		.uleb128 0xc
 2218 03a8 19000000 		.4byte	.LASF50
 2219 03ac 01       		.byte	0x1
 2220 03ad EA03     		.2byte	0x3ea
 2221 03af 6B000000 		.4byte	0x6b
 2222 03b3 02       		.uleb128 0x2
 2223 03b4 91       		.byte	0x91
 2224 03b5 77       		.sleb128 -9
 2225 03b6 00       		.byte	0
 2226 03b7 0A       		.uleb128 0xa
 2227 03b8 84010000 		.4byte	.LASF51
 2228 03bc 01       		.byte	0x1
 2229 03bd 2E04     		.2byte	0x42e
 2230 03bf 6B000000 		.4byte	0x6b
 2231 03c3 00000000 		.4byte	.LFB20
 2232 03c7 18000000 		.4byte	.LFE20-.LFB20
 2233 03cb 01       		.uleb128 0x1
 2234 03cc 9C       		.byte	0x9c
 2235 03cd 0B       		.uleb128 0xb
 2236 03ce 04020000 		.4byte	.LASF52
 2237 03d2 01       		.byte	0x1
 2238 03d3 5204     		.2byte	0x452
 2239 03d5 00000000 		.4byte	.LFB21
 2240 03d9 34000000 		.4byte	.LFE21-.LFB21
 2241 03dd 01       		.uleb128 0x1
 2242 03de 9C       		.byte	0x9c
 2243 03df F3030000 		.4byte	0x3f3
 2244 03e3 0C       		.uleb128 0xc
 2245 03e4 19000000 		.4byte	.LASF50
 2246 03e8 01       		.byte	0x1
 2247 03e9 5204     		.2byte	0x452
 2248 03eb 6B000000 		.4byte	0x6b
 2249 03ef 02       		.uleb128 0x2
ARM GAS  C:\Users\Lenovo\AppData\Local\Temp\ccp7JJIV.s 			page 69


 2250 03f0 91       		.byte	0x91
 2251 03f1 77       		.sleb128 -9
 2252 03f2 00       		.byte	0
 2253 03f3 12       		.uleb128 0x12
 2254 03f4 75000000 		.4byte	.LASF53
 2255 03f8 01       		.byte	0x1
 2256 03f9 AE04     		.2byte	0x4ae
 2257 03fb 00000000 		.4byte	.LFB22
 2258 03ff 40000000 		.4byte	.LFE22-.LFB22
 2259 0403 01       		.uleb128 0x1
 2260 0404 9C       		.byte	0x9c
 2261 0405 28040000 		.4byte	0x428
 2262 0409 0C       		.uleb128 0xc
 2263 040a 71040000 		.4byte	.LASF54
 2264 040e 01       		.byte	0x1
 2265 040f AE04     		.2byte	0x4ae
 2266 0411 28040000 		.4byte	0x428
 2267 0415 02       		.uleb128 0x2
 2268 0416 91       		.byte	0x91
 2269 0417 6C       		.sleb128 -20
 2270 0418 0F       		.uleb128 0xf
 2271 0419 52050000 		.4byte	.LASF55
 2272 041d 01       		.byte	0x1
 2273 041e B004     		.2byte	0x4b0
 2274 0420 76000000 		.4byte	0x76
 2275 0424 02       		.uleb128 0x2
 2276 0425 91       		.byte	0x91
 2277 0426 76       		.sleb128 -10
 2278 0427 00       		.byte	0
 2279 0428 13       		.uleb128 0x13
 2280 0429 04       		.byte	0x4
 2281 042a 2E040000 		.4byte	0x42e
 2282 042e 14       		.uleb128 0x14
 2283 042f 9A000000 		.4byte	0x9a
 2284 0433 12       		.uleb128 0x12
 2285 0434 FE030000 		.4byte	.LASF56
 2286 0438 01       		.byte	0x1
 2287 0439 D404     		.2byte	0x4d4
 2288 043b 00000000 		.4byte	.LFB23
 2289 043f 40000000 		.4byte	.LFE23-.LFB23
 2290 0443 01       		.uleb128 0x1
 2291 0444 9C       		.byte	0x9c
 2292 0445 77040000 		.4byte	0x477
 2293 0449 0C       		.uleb128 0xc
 2294 044a 71040000 		.4byte	.LASF54
 2295 044e 01       		.byte	0x1
 2296 044f D404     		.2byte	0x4d4
 2297 0451 77040000 		.4byte	0x477
 2298 0455 02       		.uleb128 0x2
 2299 0456 91       		.byte	0x91
 2300 0457 6C       		.sleb128 -20
 2301 0458 0C       		.uleb128 0xc
 2302 0459 60040000 		.4byte	.LASF57
 2303 045d 01       		.byte	0x1
 2304 045e D404     		.2byte	0x4d4
 2305 0460 6B000000 		.4byte	0x6b
 2306 0464 02       		.uleb128 0x2
ARM GAS  C:\Users\Lenovo\AppData\Local\Temp\ccp7JJIV.s 			page 70


 2307 0465 91       		.byte	0x91
 2308 0466 6B       		.sleb128 -21
 2309 0467 0F       		.uleb128 0xf
 2310 0468 52050000 		.4byte	.LASF55
 2311 046c 01       		.byte	0x1
 2312 046d D704     		.2byte	0x4d7
 2313 046f 6B000000 		.4byte	0x6b
 2314 0473 02       		.uleb128 0x2
 2315 0474 91       		.byte	0x91
 2316 0475 77       		.sleb128 -9
 2317 0476 00       		.byte	0
 2318 0477 13       		.uleb128 0x13
 2319 0478 04       		.byte	0x4
 2320 0479 7D040000 		.4byte	0x47d
 2321 047d 14       		.uleb128 0x14
 2322 047e 6B000000 		.4byte	0x6b
 2323 0482 12       		.uleb128 0x12
 2324 0483 EF020000 		.4byte	.LASF58
 2325 0487 01       		.byte	0x1
 2326 0488 F904     		.2byte	0x4f9
 2327 048a 00000000 		.4byte	.LFB24
 2328 048e 30000000 		.4byte	.LFE24-.LFB24
 2329 0492 01       		.uleb128 0x1
 2330 0493 9C       		.byte	0x9c
 2331 0494 A8040000 		.4byte	0x4a8
 2332 0498 0C       		.uleb128 0xc
 2333 0499 19000000 		.4byte	.LASF50
 2334 049d 01       		.byte	0x1
 2335 049e F904     		.2byte	0x4f9
 2336 04a0 6B000000 		.4byte	0x6b
 2337 04a4 02       		.uleb128 0x2
 2338 04a5 91       		.byte	0x91
 2339 04a6 77       		.sleb128 -9
 2340 04a7 00       		.byte	0
 2341 04a8 10       		.uleb128 0x10
 2342 04a9 11050000 		.4byte	.LASF59
 2343 04ad 01       		.byte	0x1
 2344 04ae 1E05     		.2byte	0x51e
 2345 04b0 6B000000 		.4byte	0x6b
 2346 04b4 00000000 		.4byte	.LFB25
 2347 04b8 44000000 		.4byte	.LFE25-.LFB25
 2348 04bc 01       		.uleb128 0x1
 2349 04bd 9C       		.byte	0x9c
 2350 04be D2040000 		.4byte	0x4d2
 2351 04c2 0F       		.uleb128 0xf
 2352 04c3 A4020000 		.4byte	.LASF41
 2353 04c7 01       		.byte	0x1
 2354 04c8 2105     		.2byte	0x521
 2355 04ca 6B000000 		.4byte	0x6b
 2356 04ce 02       		.uleb128 0x2
 2357 04cf 91       		.byte	0x91
 2358 04d0 77       		.sleb128 -9
 2359 04d1 00       		.byte	0
 2360 04d2 12       		.uleb128 0x12
 2361 04d3 3B050000 		.4byte	.LASF60
 2362 04d7 01       		.byte	0x1
 2363 04d8 7405     		.2byte	0x574
ARM GAS  C:\Users\Lenovo\AppData\Local\Temp\ccp7JJIV.s 			page 71


 2364 04da 00000000 		.4byte	.LFB26
 2365 04de 40000000 		.4byte	.LFE26-.LFB26
 2366 04e2 01       		.uleb128 0x1
 2367 04e3 9C       		.byte	0x9c
 2368 04e4 F8040000 		.4byte	0x4f8
 2369 04e8 0F       		.uleb128 0xf
 2370 04e9 F9040000 		.4byte	.LASF23
 2371 04ed 01       		.byte	0x1
 2372 04ee 7605     		.2byte	0x576
 2373 04f0 6B000000 		.4byte	0x6b
 2374 04f4 02       		.uleb128 0x2
 2375 04f5 91       		.byte	0x91
 2376 04f6 77       		.sleb128 -9
 2377 04f7 00       		.byte	0
 2378 04f8 0B       		.uleb128 0xb
 2379 04f9 59010000 		.4byte	.LASF61
 2380 04fd 01       		.byte	0x1
 2381 04fe CD05     		.2byte	0x5cd
 2382 0500 00000000 		.4byte	.LFB27
 2383 0504 9C000000 		.4byte	.LFE27-.LFB27
 2384 0508 01       		.uleb128 0x1
 2385 0509 9C       		.byte	0x9c
 2386 050a 49050000 		.4byte	0x549
 2387 050e 0C       		.uleb128 0xc
 2388 050f FC010000 		.4byte	.LASF62
 2389 0513 01       		.byte	0x1
 2390 0514 CD05     		.2byte	0x5cd
 2391 0516 6B000000 		.4byte	0x6b
 2392 051a 02       		.uleb128 0x2
 2393 051b 91       		.byte	0x91
 2394 051c 6F       		.sleb128 -17
 2395 051d 15       		.uleb128 0x15
 2396 051e 12000000 		.4byte	.LBB2
 2397 0522 6C000000 		.4byte	.LBE2-.LBB2
 2398 0526 0F       		.uleb128 0xf
 2399 0527 06030000 		.4byte	.LASF63
 2400 052b 01       		.byte	0x1
 2401 052c D505     		.2byte	0x5d5
 2402 052e 6B000000 		.4byte	0x6b
 2403 0532 02       		.uleb128 0x2
 2404 0533 91       		.byte	0x91
 2405 0534 77       		.sleb128 -9
 2406 0535 0F       		.uleb128 0xf
 2407 0536 CD020000 		.4byte	.LASF64
 2408 053a 01       		.byte	0x1
 2409 053b FB05     		.2byte	0x5fb
 2410 053d 6B000000 		.4byte	0x6b
 2411 0541 05       		.uleb128 0x5
 2412 0542 03       		.byte	0x3
 2413 0543 08000000 		.4byte	tx_period.5012
 2414 0547 00       		.byte	0
 2415 0548 00       		.byte	0
 2416 0549 0B       		.uleb128 0xb
 2417 054a A7040000 		.4byte	.LASF65
 2418 054e 01       		.byte	0x1
 2419 054f 4606     		.2byte	0x646
 2420 0551 00000000 		.4byte	.LFB28
ARM GAS  C:\Users\Lenovo\AppData\Local\Temp\ccp7JJIV.s 			page 72


 2421 0555 14000000 		.4byte	.LFE28-.LFB28
 2422 0559 01       		.uleb128 0x1
 2423 055a 9C       		.byte	0x9c
 2424 055b 6F050000 		.4byte	0x56f
 2425 055f 0C       		.uleb128 0xc
 2426 0560 A7010000 		.4byte	.LASF44
 2427 0564 01       		.byte	0x1
 2428 0565 4606     		.2byte	0x646
 2429 0567 6B000000 		.4byte	0x6b
 2430 056b 02       		.uleb128 0x2
 2431 056c 91       		.byte	0x91
 2432 056d 77       		.sleb128 -9
 2433 056e 00       		.byte	0
 2434 056f 16       		.uleb128 0x16
 2435 0570 5C050000 		.4byte	.LASF66
 2436 0574 01       		.byte	0x1
 2437 0575 1C       		.byte	0x1c
 2438 0576 6B000000 		.4byte	0x6b
 2439 057a 05       		.uleb128 0x5
 2440 057b 03       		.byte	0x3
 2441 057c 00000000 		.4byte	Code_Bar_initVar
 2442 0580 17       		.uleb128 0x17
 2443 0581 6B000000 		.4byte	0x6b
 2444 0585 90050000 		.4byte	0x590
 2445 0589 18       		.uleb128 0x18
 2446 058a D3000000 		.4byte	0xd3
 2447 058e FF       		.byte	0xff
 2448 058f 00       		.byte	0
 2449 0590 16       		.uleb128 0x16
 2450 0591 9F000000 		.4byte	.LASF67
 2451 0595 01       		.byte	0x1
 2452 0596 24       		.byte	0x24
 2453 0597 A1050000 		.4byte	0x5a1
 2454 059b 05       		.uleb128 0x5
 2455 059c 03       		.byte	0x3
 2456 059d 00000000 		.4byte	Code_Bar_rxBuffer
 2457 05a1 06       		.uleb128 0x6
 2458 05a2 80050000 		.4byte	0x580
 2459 05a6 16       		.uleb128 0x16
 2460 05a7 91040000 		.4byte	.LASF68
 2461 05ab 01       		.byte	0x1
 2462 05ac 25       		.byte	0x25
 2463 05ad BD000000 		.4byte	0xbd
 2464 05b1 05       		.uleb128 0x5
 2465 05b2 03       		.byte	0x3
 2466 05b3 00000000 		.4byte	Code_Bar_rxBufferRead
 2467 05b7 16       		.uleb128 0x16
 2468 05b8 50030000 		.4byte	.LASF69
 2469 05bc 01       		.byte	0x1
 2470 05bd 26       		.byte	0x26
 2471 05be BD000000 		.4byte	0xbd
 2472 05c2 05       		.uleb128 0x5
 2473 05c3 03       		.byte	0x3
 2474 05c4 00000000 		.4byte	Code_Bar_rxBufferWrite
 2475 05c8 16       		.uleb128 0x16
 2476 05c9 B1000000 		.4byte	.LASF70
 2477 05cd 01       		.byte	0x1
ARM GAS  C:\Users\Lenovo\AppData\Local\Temp\ccp7JJIV.s 			page 73


 2478 05ce 27       		.byte	0x27
 2479 05cf B8000000 		.4byte	0xb8
 2480 05d3 05       		.uleb128 0x5
 2481 05d4 03       		.byte	0x3
 2482 05d5 00000000 		.4byte	Code_Bar_rxBufferLoopDetect
 2483 05d9 16       		.uleb128 0x16
 2484 05da 36030000 		.4byte	.LASF71
 2485 05de 01       		.byte	0x1
 2486 05df 28       		.byte	0x28
 2487 05e0 B8000000 		.4byte	0xb8
 2488 05e4 05       		.uleb128 0x5
 2489 05e5 03       		.byte	0x3
 2490 05e6 00000000 		.4byte	Code_Bar_rxBufferOverflow
 2491 05ea 00       		.byte	0
 2492              		.section	.debug_abbrev,"",%progbits
 2493              	.Ldebug_abbrev0:
 2494 0000 01       		.uleb128 0x1
 2495 0001 11       		.uleb128 0x11
 2496 0002 01       		.byte	0x1
 2497 0003 25       		.uleb128 0x25
 2498 0004 0E       		.uleb128 0xe
 2499 0005 13       		.uleb128 0x13
 2500 0006 0B       		.uleb128 0xb
 2501 0007 03       		.uleb128 0x3
 2502 0008 0E       		.uleb128 0xe
 2503 0009 1B       		.uleb128 0x1b
 2504 000a 0E       		.uleb128 0xe
 2505 000b 55       		.uleb128 0x55
 2506 000c 17       		.uleb128 0x17
 2507 000d 11       		.uleb128 0x11
 2508 000e 01       		.uleb128 0x1
 2509 000f 10       		.uleb128 0x10
 2510 0010 17       		.uleb128 0x17
 2511 0011 00       		.byte	0
 2512 0012 00       		.byte	0
 2513 0013 02       		.uleb128 0x2
 2514 0014 24       		.uleb128 0x24
 2515 0015 00       		.byte	0
 2516 0016 0B       		.uleb128 0xb
 2517 0017 0B       		.uleb128 0xb
 2518 0018 3E       		.uleb128 0x3e
 2519 0019 0B       		.uleb128 0xb
 2520 001a 03       		.uleb128 0x3
 2521 001b 0E       		.uleb128 0xe
 2522 001c 00       		.byte	0
 2523 001d 00       		.byte	0
 2524 001e 03       		.uleb128 0x3
 2525 001f 24       		.uleb128 0x24
 2526 0020 00       		.byte	0
 2527 0021 0B       		.uleb128 0xb
 2528 0022 0B       		.uleb128 0xb
 2529 0023 3E       		.uleb128 0x3e
 2530 0024 0B       		.uleb128 0xb
 2531 0025 03       		.uleb128 0x3
 2532 0026 08       		.uleb128 0x8
 2533 0027 00       		.byte	0
 2534 0028 00       		.byte	0
ARM GAS  C:\Users\Lenovo\AppData\Local\Temp\ccp7JJIV.s 			page 74


 2535 0029 04       		.uleb128 0x4
 2536 002a 16       		.uleb128 0x16
 2537 002b 00       		.byte	0
 2538 002c 03       		.uleb128 0x3
 2539 002d 0E       		.uleb128 0xe
 2540 002e 3A       		.uleb128 0x3a
 2541 002f 0B       		.uleb128 0xb
 2542 0030 3B       		.uleb128 0x3b
 2543 0031 0B       		.uleb128 0xb
 2544 0032 49       		.uleb128 0x49
 2545 0033 13       		.uleb128 0x13
 2546 0034 00       		.byte	0
 2547 0035 00       		.byte	0
 2548 0036 05       		.uleb128 0x5
 2549 0037 16       		.uleb128 0x16
 2550 0038 00       		.byte	0
 2551 0039 03       		.uleb128 0x3
 2552 003a 0E       		.uleb128 0xe
 2553 003b 3A       		.uleb128 0x3a
 2554 003c 0B       		.uleb128 0xb
 2555 003d 3B       		.uleb128 0x3b
 2556 003e 05       		.uleb128 0x5
 2557 003f 49       		.uleb128 0x49
 2558 0040 13       		.uleb128 0x13
 2559 0041 00       		.byte	0
 2560 0042 00       		.byte	0
 2561 0043 06       		.uleb128 0x6
 2562 0044 35       		.uleb128 0x35
 2563 0045 00       		.byte	0
 2564 0046 49       		.uleb128 0x49
 2565 0047 13       		.uleb128 0x13
 2566 0048 00       		.byte	0
 2567 0049 00       		.byte	0
 2568 004a 07       		.uleb128 0x7
 2569 004b 2E       		.uleb128 0x2e
 2570 004c 00       		.byte	0
 2571 004d 3F       		.uleb128 0x3f
 2572 004e 19       		.uleb128 0x19
 2573 004f 03       		.uleb128 0x3
 2574 0050 0E       		.uleb128 0xe
 2575 0051 3A       		.uleb128 0x3a
 2576 0052 0B       		.uleb128 0xb
 2577 0053 3B       		.uleb128 0x3b
 2578 0054 0B       		.uleb128 0xb
 2579 0055 27       		.uleb128 0x27
 2580 0056 19       		.uleb128 0x19
 2581 0057 11       		.uleb128 0x11
 2582 0058 01       		.uleb128 0x1
 2583 0059 12       		.uleb128 0x12
 2584 005a 06       		.uleb128 0x6
 2585 005b 40       		.uleb128 0x40
 2586 005c 18       		.uleb128 0x18
 2587 005d 9642     		.uleb128 0x2116
 2588 005f 19       		.uleb128 0x19
 2589 0060 00       		.byte	0
 2590 0061 00       		.byte	0
 2591 0062 08       		.uleb128 0x8
ARM GAS  C:\Users\Lenovo\AppData\Local\Temp\ccp7JJIV.s 			page 75


 2592 0063 2E       		.uleb128 0x2e
 2593 0064 01       		.byte	0x1
 2594 0065 3F       		.uleb128 0x3f
 2595 0066 19       		.uleb128 0x19
 2596 0067 03       		.uleb128 0x3
 2597 0068 0E       		.uleb128 0xe
 2598 0069 3A       		.uleb128 0x3a
 2599 006a 0B       		.uleb128 0xb
 2600 006b 3B       		.uleb128 0x3b
 2601 006c 0B       		.uleb128 0xb
 2602 006d 27       		.uleb128 0x27
 2603 006e 19       		.uleb128 0x19
 2604 006f 11       		.uleb128 0x11
 2605 0070 01       		.uleb128 0x1
 2606 0071 12       		.uleb128 0x12
 2607 0072 06       		.uleb128 0x6
 2608 0073 40       		.uleb128 0x40
 2609 0074 18       		.uleb128 0x18
 2610 0075 9642     		.uleb128 0x2116
 2611 0077 19       		.uleb128 0x19
 2612 0078 01       		.uleb128 0x1
 2613 0079 13       		.uleb128 0x13
 2614 007a 00       		.byte	0
 2615 007b 00       		.byte	0
 2616 007c 09       		.uleb128 0x9
 2617 007d 34       		.uleb128 0x34
 2618 007e 00       		.byte	0
 2619 007f 03       		.uleb128 0x3
 2620 0080 0E       		.uleb128 0xe
 2621 0081 3A       		.uleb128 0x3a
 2622 0082 0B       		.uleb128 0xb
 2623 0083 3B       		.uleb128 0x3b
 2624 0084 0B       		.uleb128 0xb
 2625 0085 49       		.uleb128 0x49
 2626 0086 13       		.uleb128 0x13
 2627 0087 02       		.uleb128 0x2
 2628 0088 18       		.uleb128 0x18
 2629 0089 00       		.byte	0
 2630 008a 00       		.byte	0
 2631 008b 0A       		.uleb128 0xa
 2632 008c 2E       		.uleb128 0x2e
 2633 008d 00       		.byte	0
 2634 008e 3F       		.uleb128 0x3f
 2635 008f 19       		.uleb128 0x19
 2636 0090 03       		.uleb128 0x3
 2637 0091 0E       		.uleb128 0xe
 2638 0092 3A       		.uleb128 0x3a
 2639 0093 0B       		.uleb128 0xb
 2640 0094 3B       		.uleb128 0x3b
 2641 0095 05       		.uleb128 0x5
 2642 0096 27       		.uleb128 0x27
 2643 0097 19       		.uleb128 0x19
 2644 0098 49       		.uleb128 0x49
 2645 0099 13       		.uleb128 0x13
 2646 009a 11       		.uleb128 0x11
 2647 009b 01       		.uleb128 0x1
 2648 009c 12       		.uleb128 0x12
ARM GAS  C:\Users\Lenovo\AppData\Local\Temp\ccp7JJIV.s 			page 76


 2649 009d 06       		.uleb128 0x6
 2650 009e 40       		.uleb128 0x40
 2651 009f 18       		.uleb128 0x18
 2652 00a0 9742     		.uleb128 0x2117
 2653 00a2 19       		.uleb128 0x19
 2654 00a3 00       		.byte	0
 2655 00a4 00       		.byte	0
 2656 00a5 0B       		.uleb128 0xb
 2657 00a6 2E       		.uleb128 0x2e
 2658 00a7 01       		.byte	0x1
 2659 00a8 3F       		.uleb128 0x3f
 2660 00a9 19       		.uleb128 0x19
 2661 00aa 03       		.uleb128 0x3
 2662 00ab 0E       		.uleb128 0xe
 2663 00ac 3A       		.uleb128 0x3a
 2664 00ad 0B       		.uleb128 0xb
 2665 00ae 3B       		.uleb128 0x3b
 2666 00af 05       		.uleb128 0x5
 2667 00b0 27       		.uleb128 0x27
 2668 00b1 19       		.uleb128 0x19
 2669 00b2 11       		.uleb128 0x11
 2670 00b3 01       		.uleb128 0x1
 2671 00b4 12       		.uleb128 0x12
 2672 00b5 06       		.uleb128 0x6
 2673 00b6 40       		.uleb128 0x40
 2674 00b7 18       		.uleb128 0x18
 2675 00b8 9742     		.uleb128 0x2117
 2676 00ba 19       		.uleb128 0x19
 2677 00bb 01       		.uleb128 0x1
 2678 00bc 13       		.uleb128 0x13
 2679 00bd 00       		.byte	0
 2680 00be 00       		.byte	0
 2681 00bf 0C       		.uleb128 0xc
 2682 00c0 05       		.uleb128 0x5
 2683 00c1 00       		.byte	0
 2684 00c2 03       		.uleb128 0x3
 2685 00c3 0E       		.uleb128 0xe
 2686 00c4 3A       		.uleb128 0x3a
 2687 00c5 0B       		.uleb128 0xb
 2688 00c6 3B       		.uleb128 0x3b
 2689 00c7 05       		.uleb128 0x5
 2690 00c8 49       		.uleb128 0x49
 2691 00c9 13       		.uleb128 0x13
 2692 00ca 02       		.uleb128 0x2
 2693 00cb 18       		.uleb128 0x18
 2694 00cc 00       		.byte	0
 2695 00cd 00       		.byte	0
 2696 00ce 0D       		.uleb128 0xd
 2697 00cf 2E       		.uleb128 0x2e
 2698 00d0 00       		.byte	0
 2699 00d1 3F       		.uleb128 0x3f
 2700 00d2 19       		.uleb128 0x19
 2701 00d3 03       		.uleb128 0x3
 2702 00d4 0E       		.uleb128 0xe
 2703 00d5 3A       		.uleb128 0x3a
 2704 00d6 0B       		.uleb128 0xb
 2705 00d7 3B       		.uleb128 0x3b
ARM GAS  C:\Users\Lenovo\AppData\Local\Temp\ccp7JJIV.s 			page 77


 2706 00d8 05       		.uleb128 0x5
 2707 00d9 27       		.uleb128 0x27
 2708 00da 19       		.uleb128 0x19
 2709 00db 11       		.uleb128 0x11
 2710 00dc 01       		.uleb128 0x1
 2711 00dd 12       		.uleb128 0x12
 2712 00de 06       		.uleb128 0x6
 2713 00df 40       		.uleb128 0x40
 2714 00e0 18       		.uleb128 0x18
 2715 00e1 9742     		.uleb128 0x2117
 2716 00e3 19       		.uleb128 0x19
 2717 00e4 00       		.byte	0
 2718 00e5 00       		.byte	0
 2719 00e6 0E       		.uleb128 0xe
 2720 00e7 2E       		.uleb128 0x2e
 2721 00e8 01       		.byte	0x1
 2722 00e9 3F       		.uleb128 0x3f
 2723 00ea 19       		.uleb128 0x19
 2724 00eb 03       		.uleb128 0x3
 2725 00ec 0E       		.uleb128 0xe
 2726 00ed 3A       		.uleb128 0x3a
 2727 00ee 0B       		.uleb128 0xb
 2728 00ef 3B       		.uleb128 0x3b
 2729 00f0 05       		.uleb128 0x5
 2730 00f1 27       		.uleb128 0x27
 2731 00f2 19       		.uleb128 0x19
 2732 00f3 49       		.uleb128 0x49
 2733 00f4 13       		.uleb128 0x13
 2734 00f5 11       		.uleb128 0x11
 2735 00f6 01       		.uleb128 0x1
 2736 00f7 12       		.uleb128 0x12
 2737 00f8 06       		.uleb128 0x6
 2738 00f9 40       		.uleb128 0x40
 2739 00fa 18       		.uleb128 0x18
 2740 00fb 9642     		.uleb128 0x2116
 2741 00fd 19       		.uleb128 0x19
 2742 00fe 01       		.uleb128 0x1
 2743 00ff 13       		.uleb128 0x13
 2744 0100 00       		.byte	0
 2745 0101 00       		.byte	0
 2746 0102 0F       		.uleb128 0xf
 2747 0103 34       		.uleb128 0x34
 2748 0104 00       		.byte	0
 2749 0105 03       		.uleb128 0x3
 2750 0106 0E       		.uleb128 0xe
 2751 0107 3A       		.uleb128 0x3a
 2752 0108 0B       		.uleb128 0xb
 2753 0109 3B       		.uleb128 0x3b
 2754 010a 05       		.uleb128 0x5
 2755 010b 49       		.uleb128 0x49
 2756 010c 13       		.uleb128 0x13
 2757 010d 02       		.uleb128 0x2
 2758 010e 18       		.uleb128 0x18
 2759 010f 00       		.byte	0
 2760 0110 00       		.byte	0
 2761 0111 10       		.uleb128 0x10
 2762 0112 2E       		.uleb128 0x2e
ARM GAS  C:\Users\Lenovo\AppData\Local\Temp\ccp7JJIV.s 			page 78


 2763 0113 01       		.byte	0x1
 2764 0114 3F       		.uleb128 0x3f
 2765 0115 19       		.uleb128 0x19
 2766 0116 03       		.uleb128 0x3
 2767 0117 0E       		.uleb128 0xe
 2768 0118 3A       		.uleb128 0x3a
 2769 0119 0B       		.uleb128 0xb
 2770 011a 3B       		.uleb128 0x3b
 2771 011b 05       		.uleb128 0x5
 2772 011c 27       		.uleb128 0x27
 2773 011d 19       		.uleb128 0x19
 2774 011e 49       		.uleb128 0x49
 2775 011f 13       		.uleb128 0x13
 2776 0120 11       		.uleb128 0x11
 2777 0121 01       		.uleb128 0x1
 2778 0122 12       		.uleb128 0x12
 2779 0123 06       		.uleb128 0x6
 2780 0124 40       		.uleb128 0x40
 2781 0125 18       		.uleb128 0x18
 2782 0126 9742     		.uleb128 0x2117
 2783 0128 19       		.uleb128 0x19
 2784 0129 01       		.uleb128 0x1
 2785 012a 13       		.uleb128 0x13
 2786 012b 00       		.byte	0
 2787 012c 00       		.byte	0
 2788 012d 11       		.uleb128 0x11
 2789 012e 2E       		.uleb128 0x2e
 2790 012f 00       		.byte	0
 2791 0130 3F       		.uleb128 0x3f
 2792 0131 19       		.uleb128 0x19
 2793 0132 03       		.uleb128 0x3
 2794 0133 0E       		.uleb128 0xe
 2795 0134 3A       		.uleb128 0x3a
 2796 0135 0B       		.uleb128 0xb
 2797 0136 3B       		.uleb128 0x3b
 2798 0137 05       		.uleb128 0x5
 2799 0138 27       		.uleb128 0x27
 2800 0139 19       		.uleb128 0x19
 2801 013a 49       		.uleb128 0x49
 2802 013b 13       		.uleb128 0x13
 2803 013c 11       		.uleb128 0x11
 2804 013d 01       		.uleb128 0x1
 2805 013e 12       		.uleb128 0x12
 2806 013f 06       		.uleb128 0x6
 2807 0140 40       		.uleb128 0x40
 2808 0141 18       		.uleb128 0x18
 2809 0142 9642     		.uleb128 0x2116
 2810 0144 19       		.uleb128 0x19
 2811 0145 00       		.byte	0
 2812 0146 00       		.byte	0
 2813 0147 12       		.uleb128 0x12
 2814 0148 2E       		.uleb128 0x2e
 2815 0149 01       		.byte	0x1
 2816 014a 3F       		.uleb128 0x3f
 2817 014b 19       		.uleb128 0x19
 2818 014c 03       		.uleb128 0x3
 2819 014d 0E       		.uleb128 0xe
ARM GAS  C:\Users\Lenovo\AppData\Local\Temp\ccp7JJIV.s 			page 79


 2820 014e 3A       		.uleb128 0x3a
 2821 014f 0B       		.uleb128 0xb
 2822 0150 3B       		.uleb128 0x3b
 2823 0151 05       		.uleb128 0x5
 2824 0152 27       		.uleb128 0x27
 2825 0153 19       		.uleb128 0x19
 2826 0154 11       		.uleb128 0x11
 2827 0155 01       		.uleb128 0x1
 2828 0156 12       		.uleb128 0x12
 2829 0157 06       		.uleb128 0x6
 2830 0158 40       		.uleb128 0x40
 2831 0159 18       		.uleb128 0x18
 2832 015a 9642     		.uleb128 0x2116
 2833 015c 19       		.uleb128 0x19
 2834 015d 01       		.uleb128 0x1
 2835 015e 13       		.uleb128 0x13
 2836 015f 00       		.byte	0
 2837 0160 00       		.byte	0
 2838 0161 13       		.uleb128 0x13
 2839 0162 0F       		.uleb128 0xf
 2840 0163 00       		.byte	0
 2841 0164 0B       		.uleb128 0xb
 2842 0165 0B       		.uleb128 0xb
 2843 0166 49       		.uleb128 0x49
 2844 0167 13       		.uleb128 0x13
 2845 0168 00       		.byte	0
 2846 0169 00       		.byte	0
 2847 016a 14       		.uleb128 0x14
 2848 016b 26       		.uleb128 0x26
 2849 016c 00       		.byte	0
 2850 016d 49       		.uleb128 0x49
 2851 016e 13       		.uleb128 0x13
 2852 016f 00       		.byte	0
 2853 0170 00       		.byte	0
 2854 0171 15       		.uleb128 0x15
 2855 0172 0B       		.uleb128 0xb
 2856 0173 01       		.byte	0x1
 2857 0174 11       		.uleb128 0x11
 2858 0175 01       		.uleb128 0x1
 2859 0176 12       		.uleb128 0x12
 2860 0177 06       		.uleb128 0x6
 2861 0178 00       		.byte	0
 2862 0179 00       		.byte	0
 2863 017a 16       		.uleb128 0x16
 2864 017b 34       		.uleb128 0x34
 2865 017c 00       		.byte	0
 2866 017d 03       		.uleb128 0x3
 2867 017e 0E       		.uleb128 0xe
 2868 017f 3A       		.uleb128 0x3a
 2869 0180 0B       		.uleb128 0xb
 2870 0181 3B       		.uleb128 0x3b
 2871 0182 0B       		.uleb128 0xb
 2872 0183 49       		.uleb128 0x49
 2873 0184 13       		.uleb128 0x13
 2874 0185 3F       		.uleb128 0x3f
 2875 0186 19       		.uleb128 0x19
 2876 0187 02       		.uleb128 0x2
ARM GAS  C:\Users\Lenovo\AppData\Local\Temp\ccp7JJIV.s 			page 80


 2877 0188 18       		.uleb128 0x18
 2878 0189 00       		.byte	0
 2879 018a 00       		.byte	0
 2880 018b 17       		.uleb128 0x17
 2881 018c 01       		.uleb128 0x1
 2882 018d 01       		.byte	0x1
 2883 018e 49       		.uleb128 0x49
 2884 018f 13       		.uleb128 0x13
 2885 0190 01       		.uleb128 0x1
 2886 0191 13       		.uleb128 0x13
 2887 0192 00       		.byte	0
 2888 0193 00       		.byte	0
 2889 0194 18       		.uleb128 0x18
 2890 0195 21       		.uleb128 0x21
 2891 0196 00       		.byte	0
 2892 0197 49       		.uleb128 0x49
 2893 0198 13       		.uleb128 0x13
 2894 0199 2F       		.uleb128 0x2f
 2895 019a 0B       		.uleb128 0xb
 2896 019b 00       		.byte	0
 2897 019c 00       		.byte	0
 2898 019d 00       		.byte	0
 2899              		.section	.debug_aranges,"",%progbits
 2900 0000 FC000000 		.4byte	0xfc
 2901 0004 0200     		.2byte	0x2
 2902 0006 00000000 		.4byte	.Ldebug_info0
 2903 000a 04       		.byte	0x4
 2904 000b 00       		.byte	0
 2905 000c 0000     		.2byte	0
 2906 000e 0000     		.2byte	0
 2907 0010 00000000 		.4byte	.LFB0
 2908 0014 20000000 		.4byte	.LFE0-.LFB0
 2909 0018 00000000 		.4byte	.LFB1
 2910 001c 4C000000 		.4byte	.LFE1-.LFB1
 2911 0020 00000000 		.4byte	.LFB2
 2912 0024 68000000 		.4byte	.LFE2-.LFB2
 2913 0028 00000000 		.4byte	.LFB3
 2914 002c 60000000 		.4byte	.LFE3-.LFB3
 2915 0030 00000000 		.4byte	.LFB4
 2916 0034 10000000 		.4byte	.LFE4-.LFB4
 2917 0038 00000000 		.4byte	.LFB5
 2918 003c 14000000 		.4byte	.LFE5-.LFB5
 2919 0040 00000000 		.4byte	.LFB6
 2920 0044 18000000 		.4byte	.LFE6-.LFB6
 2921 0048 00000000 		.4byte	.LFB7
 2922 004c 18000000 		.4byte	.LFE7-.LFB7
 2923 0050 00000000 		.4byte	.LFB8
 2924 0054 20000000 		.4byte	.LFE8-.LFB8
 2925 0058 00000000 		.4byte	.LFB9
 2926 005c 84000000 		.4byte	.LFE9-.LFB9
 2927 0060 00000000 		.4byte	.LFB10
 2928 0064 40000000 		.4byte	.LFE10-.LFB10
 2929 0068 00000000 		.4byte	.LFB11
 2930 006c A8000000 		.4byte	.LFE11-.LFB11
 2931 0070 00000000 		.4byte	.LFB12
 2932 0074 22000000 		.4byte	.LFE12-.LFB12
 2933 0078 00000000 		.4byte	.LFB13
ARM GAS  C:\Users\Lenovo\AppData\Local\Temp\ccp7JJIV.s 			page 81


 2934 007c 84000000 		.4byte	.LFE13-.LFB13
 2935 0080 00000000 		.4byte	.LFB14
 2936 0084 70000000 		.4byte	.LFE14-.LFB14
 2937 0088 00000000 		.4byte	.LFB15
 2938 008c 14000000 		.4byte	.LFE15-.LFB15
 2939 0090 00000000 		.4byte	.LFB16
 2940 0094 20000000 		.4byte	.LFE16-.LFB16
 2941 0098 00000000 		.4byte	.LFB17
 2942 009c 20000000 		.4byte	.LFE17-.LFB17
 2943 00a0 00000000 		.4byte	.LFB18
 2944 00a4 20000000 		.4byte	.LFE18-.LFB18
 2945 00a8 00000000 		.4byte	.LFB19
 2946 00ac 2C000000 		.4byte	.LFE19-.LFB19
 2947 00b0 00000000 		.4byte	.LFB20
 2948 00b4 18000000 		.4byte	.LFE20-.LFB20
 2949 00b8 00000000 		.4byte	.LFB21
 2950 00bc 34000000 		.4byte	.LFE21-.LFB21
 2951 00c0 00000000 		.4byte	.LFB22
 2952 00c4 40000000 		.4byte	.LFE22-.LFB22
 2953 00c8 00000000 		.4byte	.LFB23
 2954 00cc 40000000 		.4byte	.LFE23-.LFB23
 2955 00d0 00000000 		.4byte	.LFB24
 2956 00d4 30000000 		.4byte	.LFE24-.LFB24
 2957 00d8 00000000 		.4byte	.LFB25
 2958 00dc 44000000 		.4byte	.LFE25-.LFB25
 2959 00e0 00000000 		.4byte	.LFB26
 2960 00e4 40000000 		.4byte	.LFE26-.LFB26
 2961 00e8 00000000 		.4byte	.LFB27
 2962 00ec 9C000000 		.4byte	.LFE27-.LFB27
 2963 00f0 00000000 		.4byte	.LFB28
 2964 00f4 14000000 		.4byte	.LFE28-.LFB28
 2965 00f8 00000000 		.4byte	0
 2966 00fc 00000000 		.4byte	0
 2967              		.section	.debug_ranges,"",%progbits
 2968              	.Ldebug_ranges0:
 2969 0000 00000000 		.4byte	.LFB0
 2970 0004 20000000 		.4byte	.LFE0
 2971 0008 00000000 		.4byte	.LFB1
 2972 000c 4C000000 		.4byte	.LFE1
 2973 0010 00000000 		.4byte	.LFB2
 2974 0014 68000000 		.4byte	.LFE2
 2975 0018 00000000 		.4byte	.LFB3
 2976 001c 60000000 		.4byte	.LFE3
 2977 0020 00000000 		.4byte	.LFB4
 2978 0024 10000000 		.4byte	.LFE4
 2979 0028 00000000 		.4byte	.LFB5
 2980 002c 14000000 		.4byte	.LFE5
 2981 0030 00000000 		.4byte	.LFB6
 2982 0034 18000000 		.4byte	.LFE6
 2983 0038 00000000 		.4byte	.LFB7
 2984 003c 18000000 		.4byte	.LFE7
 2985 0040 00000000 		.4byte	.LFB8
 2986 0044 20000000 		.4byte	.LFE8
 2987 0048 00000000 		.4byte	.LFB9
 2988 004c 84000000 		.4byte	.LFE9
 2989 0050 00000000 		.4byte	.LFB10
 2990 0054 40000000 		.4byte	.LFE10
ARM GAS  C:\Users\Lenovo\AppData\Local\Temp\ccp7JJIV.s 			page 82


 2991 0058 00000000 		.4byte	.LFB11
 2992 005c A8000000 		.4byte	.LFE11
 2993 0060 00000000 		.4byte	.LFB12
 2994 0064 22000000 		.4byte	.LFE12
 2995 0068 00000000 		.4byte	.LFB13
 2996 006c 84000000 		.4byte	.LFE13
 2997 0070 00000000 		.4byte	.LFB14
 2998 0074 70000000 		.4byte	.LFE14
 2999 0078 00000000 		.4byte	.LFB15
 3000 007c 14000000 		.4byte	.LFE15
 3001 0080 00000000 		.4byte	.LFB16
 3002 0084 20000000 		.4byte	.LFE16
 3003 0088 00000000 		.4byte	.LFB17
 3004 008c 20000000 		.4byte	.LFE17
 3005 0090 00000000 		.4byte	.LFB18
 3006 0094 20000000 		.4byte	.LFE18
 3007 0098 00000000 		.4byte	.LFB19
 3008 009c 2C000000 		.4byte	.LFE19
 3009 00a0 00000000 		.4byte	.LFB20
 3010 00a4 18000000 		.4byte	.LFE20
 3011 00a8 00000000 		.4byte	.LFB21
 3012 00ac 34000000 		.4byte	.LFE21
 3013 00b0 00000000 		.4byte	.LFB22
 3014 00b4 40000000 		.4byte	.LFE22
 3015 00b8 00000000 		.4byte	.LFB23
 3016 00bc 40000000 		.4byte	.LFE23
 3017 00c0 00000000 		.4byte	.LFB24
 3018 00c4 30000000 		.4byte	.LFE24
 3019 00c8 00000000 		.4byte	.LFB25
 3020 00cc 44000000 		.4byte	.LFE25
 3021 00d0 00000000 		.4byte	.LFB26
 3022 00d4 40000000 		.4byte	.LFE26
 3023 00d8 00000000 		.4byte	.LFB27
 3024 00dc 9C000000 		.4byte	.LFE27
 3025 00e0 00000000 		.4byte	.LFB28
 3026 00e4 14000000 		.4byte	.LFE28
 3027 00e8 00000000 		.4byte	0
 3028 00ec 00000000 		.4byte	0
 3029              		.section	.debug_line,"",%progbits
 3030              	.Ldebug_line0:
 3031 0000 36030000 		.section	.debug_str,"MS",%progbits,1
 3031      02004700 
 3031      00000201 
 3031      FB0E0D00 
 3031      01010101 
 3032              	.LASF10:
 3033 0000 75696E74 		.ascii	"uint16\000"
 3033      313600
 3034              	.LASF32:
 3035 0007 6C6F635F 		.ascii	"loc_rxBufferWrite\000"
 3035      72784275 
 3035      66666572 
 3035      57726974 
 3035      6500
 3036              	.LASF50:
 3037 0019 74784461 		.ascii	"txDataByte\000"
 3037      74614279 
ARM GAS  C:\Users\Lenovo\AppData\Local\Temp\ccp7JJIV.s 			page 83


 3037      746500
 3038              	.LASF20:
 3039 0024 436F6465 		.ascii	"Code_Bar_Init\000"
 3039      5F426172 
 3039      5F496E69 
 3039      7400
 3040              	.LASF49:
 3041 0032 436F6465 		.ascii	"Code_Bar_WriteTxData\000"
 3041      5F426172 
 3041      5F577269 
 3041      74655478 
 3041      44617461 
 3042              	.LASF43:
 3043 0047 436F6465 		.ascii	"Code_Bar_SetRxAddressMode\000"
 3043      5F426172 
 3043      5F536574 
 3043      52784164 
 3043      64726573 
 3044              	.LASF33:
 3045 0061 436F6465 		.ascii	"Code_Bar_ReadRxData\000"
 3045      5F426172 
 3045      5F526561 
 3045      64527844 
 3045      61746100 
 3046              	.LASF53:
 3047 0075 436F6465 		.ascii	"Code_Bar_PutString\000"
 3047      5F426172 
 3047      5F507574 
 3047      53747269 
 3047      6E6700
 3048              	.LASF7:
 3049 0088 6C6F6E67 		.ascii	"long long unsigned int\000"
 3049      206C6F6E 
 3049      6720756E 
 3049      7369676E 
 3049      65642069 
 3050              	.LASF67:
 3051 009f 436F6465 		.ascii	"Code_Bar_rxBuffer\000"
 3051      5F426172 
 3051      5F727842 
 3051      75666665 
 3051      7200
 3052              	.LASF70:
 3053 00b1 436F6465 		.ascii	"Code_Bar_rxBufferLoopDetect\000"
 3053      5F426172 
 3053      5F727842 
 3053      75666665 
 3053      724C6F6F 
 3054              	.LASF45:
 3055 00cd 436F6465 		.ascii	"Code_Bar_SetRxAddress1\000"
 3055      5F426172 
 3055      5F536574 
 3055      52784164 
 3055      64726573 
 3056              	.LASF47:
 3057 00e4 436F6465 		.ascii	"Code_Bar_SetRxAddress2\000"
 3057      5F426172 
ARM GAS  C:\Users\Lenovo\AppData\Local\Temp\ccp7JJIV.s 			page 84


 3057      5F536574 
 3057      52784164 
 3057      64726573 
 3058              	.LASF6:
 3059 00fb 6C6F6E67 		.ascii	"long long int\000"
 3059      206C6F6E 
 3059      6720696E 
 3059      7400
 3060              	.LASF0:
 3061 0109 7369676E 		.ascii	"signed char\000"
 3061      65642063 
 3061      68617200 
 3062              	.LASF40:
 3063 0115 436F6465 		.ascii	"Code_Bar_GetRxBufferSize\000"
 3063      5F426172 
 3063      5F476574 
 3063      52784275 
 3063      66666572 
 3064              	.LASF34:
 3065 012e 436F6465 		.ascii	"Code_Bar_ReadRxStatus\000"
 3065      5F426172 
 3065      5F526561 
 3065      64527853 
 3065      74617475 
 3066              	.LASF25:
 3067 0144 436F6465 		.ascii	"Code_Bar_EnableRxInt\000"
 3067      5F426172 
 3067      5F456E61 
 3067      626C6552 
 3067      78496E74 
 3068              	.LASF61:
 3069 0159 436F6465 		.ascii	"Code_Bar_SendBreak\000"
 3069      5F426172 
 3069      5F53656E 
 3069      64427265 
 3069      616B00
 3070              	.LASF4:
 3071 016c 6C6F6E67 		.ascii	"long int\000"
 3071      20696E74 
 3071      00
 3072              	.LASF19:
 3073 0175 436F6465 		.ascii	"Code_Bar_Start\000"
 3073      5F426172 
 3073      5F537461 
 3073      727400
 3074              	.LASF51:
 3075 0184 436F6465 		.ascii	"Code_Bar_ReadTxStatus\000"
 3075      5F426172 
 3075      5F526561 
 3075      64547853 
 3075      74617475 
 3076              	.LASF9:
 3077 019a 75696E74 		.ascii	"uint8\000"
 3077      3800
 3078              	.LASF13:
 3079 01a0 646F7562 		.ascii	"double\000"
 3079      6C6500
ARM GAS  C:\Users\Lenovo\AppData\Local\Temp\ccp7JJIV.s 			page 85


 3080              	.LASF44:
 3081 01a7 61646472 		.ascii	"addressMode\000"
 3081      6573734D 
 3081      6F646500 
 3082              	.LASF11:
 3083 01b3 75696E74 		.ascii	"uint32\000"
 3083      333200
 3084              	.LASF28:
 3085 01ba 636F6E74 		.ascii	"control\000"
 3085      726F6C00 
 3086              	.LASF26:
 3087 01c2 436F6465 		.ascii	"Code_Bar_DisableRxInt\000"
 3087      5F426172 
 3087      5F446973 
 3087      61626C65 
 3087      5278496E 
 3088              	.LASF73:
 3089 01d8 2E5C4765 		.ascii	".\\Generated_Source\\PSoC5\\Code_Bar.c\000"
 3089      6E657261 
 3089      7465645F 
 3089      536F7572 
 3089      63655C50 
 3090              	.LASF62:
 3091 01fc 7265744D 		.ascii	"retMode\000"
 3091      6F646500 
 3092              	.LASF52:
 3093 0204 436F6465 		.ascii	"Code_Bar_PutChar\000"
 3093      5F426172 
 3093      5F507574 
 3093      43686172 
 3093      00
 3094              	.LASF8:
 3095 0215 756E7369 		.ascii	"unsigned int\000"
 3095      676E6564 
 3095      20696E74 
 3095      00
 3096              	.LASF5:
 3097 0222 6C6F6E67 		.ascii	"long unsigned int\000"
 3097      20756E73 
 3097      69676E65 
 3097      6420696E 
 3097      7400
 3098              	.LASF24:
 3099 0234 436F6465 		.ascii	"Code_Bar_WriteControlRegister\000"
 3099      5F426172 
 3099      5F577269 
 3099      7465436F 
 3099      6E74726F 
 3100              	.LASF74:
 3101 0252 433A5C55 		.ascii	"C:\\Users\\Lenovo\\Desktop\\Hardware\\Software Mux\\"
 3101      73657273 
 3101      5C4C656E 
 3101      6F766F5C 
 3101      4465736B 
 3102 0280 4D757820 		.ascii	"Mux Advance Encore\\MuxAdvance.cydsn\000"
 3102      41647661 
 3102      6E636520 
ARM GAS  C:\Users\Lenovo\AppData\Local\Temp\ccp7JJIV.s 			page 86


 3102      456E636F 
 3102      72655C4D 
 3103              	.LASF41:
 3104 02a4 73697A65 		.ascii	"size\000"
 3104      00
 3105              	.LASF3:
 3106 02a9 73686F72 		.ascii	"short unsigned int\000"
 3106      7420756E 
 3106      7369676E 
 3106      65642069 
 3106      6E7400
 3107              	.LASF31:
 3108 02bc 6C6F635F 		.ascii	"loc_rxBufferRead\000"
 3108      72784275 
 3108      66666572 
 3108      52656164 
 3108      00
 3109              	.LASF64:
 3110 02cd 74785F70 		.ascii	"tx_period\000"
 3110      6572696F 
 3110      6400
 3111              	.LASF29:
 3112 02d7 696E7453 		.ascii	"intSrc\000"
 3112      726300
 3113              	.LASF39:
 3114 02de 436F6465 		.ascii	"Code_Bar_GetByte\000"
 3114      5F426172 
 3114      5F476574 
 3114      42797465 
 3114      00
 3115              	.LASF58:
 3116 02ef 436F6465 		.ascii	"Code_Bar_PutCRLF\000"
 3116      5F426172 
 3116      5F507574 
 3116      43524C46 
 3116      00
 3117              	.LASF17:
 3118 0300 72656733 		.ascii	"reg32\000"
 3118      3200
 3119              	.LASF63:
 3120 0306 746D7053 		.ascii	"tmpStat\000"
 3120      74617400 
 3121              	.LASF18:
 3122 030e 73697A65 		.ascii	"sizetype\000"
 3122      74797065 
 3122      00
 3123              	.LASF46:
 3124 0317 61646472 		.ascii	"address\000"
 3124      65737300 
 3125              	.LASF42:
 3126 031f 436F6465 		.ascii	"Code_Bar_ClearRxBuffer\000"
 3126      5F426172 
 3126      5F436C65 
 3126      61725278 
 3126      42756666 
 3127              	.LASF71:
 3128 0336 436F6465 		.ascii	"Code_Bar_rxBufferOverflow\000"
ARM GAS  C:\Users\Lenovo\AppData\Local\Temp\ccp7JJIV.s 			page 87


 3128      5F426172 
 3128      5F727842 
 3128      75666665 
 3128      724F7665 
 3129              	.LASF69:
 3130 0350 436F6465 		.ascii	"Code_Bar_rxBufferWrite\000"
 3130      5F426172 
 3130      5F727842 
 3130      75666665 
 3130      72577269 
 3131              	.LASF72:
 3132 0367 474E5520 		.ascii	"GNU C 4.9.3 20150303 (release) [ARM/embedded-4_9-br"
 3132      4320342E 
 3132      392E3320 
 3132      32303135 
 3132      30333033 
 3133 039a 616E6368 		.ascii	"anch revision 221220] -mcpu=cortex-m3 -mthumb -g -O"
 3133      20726576 
 3133      6973696F 
 3133      6E203232 
 3133      31323230 
 3134 03cd 30202D66 		.ascii	"0 -ffunction-sections -ffat-lto-objects\000"
 3134      66756E63 
 3134      74696F6E 
 3134      2D736563 
 3134      74696F6E 
 3135              	.LASF37:
 3136 03f5 72785374 		.ascii	"rxStatus\000"
 3136      61747573 
 3136      00
 3137              	.LASF56:
 3138 03fe 436F6465 		.ascii	"Code_Bar_PutArray\000"
 3138      5F426172 
 3138      5F507574 
 3138      41727261 
 3138      7900
 3139              	.LASF12:
 3140 0410 666C6F61 		.ascii	"float\000"
 3140      7400
 3141              	.LASF16:
 3142 0416 72656738 		.ascii	"reg8\000"
 3142      00
 3143              	.LASF1:
 3144 041b 756E7369 		.ascii	"unsigned char\000"
 3144      676E6564 
 3144      20636861 
 3144      7200
 3145              	.LASF38:
 3146 0429 436F6465 		.ascii	"Code_Bar_ReadControlRegister\000"
 3146      5F426172 
 3146      5F526561 
 3146      64436F6E 
 3146      74726F6C 
 3147              	.LASF2:
 3148 0446 73686F72 		.ascii	"short int\000"
 3148      7420696E 
 3148      7400
ARM GAS  C:\Users\Lenovo\AppData\Local\Temp\ccp7JJIV.s 			page 88


 3149              	.LASF21:
 3150 0450 436F6465 		.ascii	"Code_Bar_Enable\000"
 3150      5F426172 
 3150      5F456E61 
 3150      626C6500 
 3151              	.LASF57:
 3152 0460 62797465 		.ascii	"byteCount\000"
 3152      436F756E 
 3152      7400
 3153              	.LASF30:
 3154 046a 72784461 		.ascii	"rxData\000"
 3154      746100
 3155              	.LASF54:
 3156 0471 73747269 		.ascii	"string\000"
 3156      6E6700
 3157              	.LASF22:
 3158 0478 436F6465 		.ascii	"Code_Bar_Stop\000"
 3158      5F426172 
 3158      5F53746F 
 3158      7000
 3159              	.LASF15:
 3160 0486 63686172 		.ascii	"char\000"
 3160      00
 3161              	.LASF14:
 3162 048b 63686172 		.ascii	"char8\000"
 3162      3800
 3163              	.LASF68:
 3164 0491 436F6465 		.ascii	"Code_Bar_rxBufferRead\000"
 3164      5F426172 
 3164      5F727842 
 3164      75666665 
 3164      72526561 
 3165              	.LASF65:
 3166 04a7 436F6465 		.ascii	"Code_Bar_SetTxAddressMode\000"
 3166      5F426172 
 3166      5F536574 
 3166      54784164 
 3166      64726573 
 3167              	.LASF48:
 3168 04c1 436F6465 		.ascii	"Code_Bar_SetTxInterruptMode\000"
 3168      5F426172 
 3168      5F536574 
 3168      5478496E 
 3168      74657272 
 3169              	.LASF27:
 3170 04dd 436F6465 		.ascii	"Code_Bar_SetRxInterruptMode\000"
 3170      5F426172 
 3170      5F536574 
 3170      5278496E 
 3170      74657272 
 3171              	.LASF23:
 3172 04f9 656E6162 		.ascii	"enableInterrupts\000"
 3172      6C65496E 
 3172      74657272 
 3172      75707473 
 3172      00
 3173              	.LASF35:
ARM GAS  C:\Users\Lenovo\AppData\Local\Temp\ccp7JJIV.s 			page 89


 3174 050a 73746174 		.ascii	"status\000"
 3174      757300
 3175              	.LASF59:
 3176 0511 436F6465 		.ascii	"Code_Bar_GetTxBufferSize\000"
 3176      5F426172 
 3176      5F476574 
 3176      54784275 
 3176      66666572 
 3177              	.LASF36:
 3178 052a 436F6465 		.ascii	"Code_Bar_GetChar\000"
 3178      5F426172 
 3178      5F476574 
 3178      43686172 
 3178      00
 3179              	.LASF60:
 3180 053b 436F6465 		.ascii	"Code_Bar_ClearTxBuffer\000"
 3180      5F426172 
 3180      5F436C65 
 3180      61725478 
 3180      42756666 
 3181              	.LASF55:
 3182 0552 6275665F 		.ascii	"buf_index\000"
 3182      696E6465 
 3182      7800
 3183              	.LASF66:
 3184 055c 436F6465 		.ascii	"Code_Bar_initVar\000"
 3184      5F426172 
 3184      5F696E69 
 3184      74566172 
 3184      00
 3185              		.ident	"GCC: (GNU Tools for ARM Embedded Processors) 4.9.3 20150303 (release) [ARM/embedded-4_9-br
