ARM GAS  C:\Users\PROYEC~1\AppData\Local\Temp\ccjmJYen.s 			page 1


   1              		.syntax unified
   2              		.cpu cortex-m3
   3              		.fpu softvfp
   4              		.eabi_attribute 20, 1
   5              		.eabi_attribute 21, 1
   6              		.eabi_attribute 23, 3
   7              		.eabi_attribute 24, 1
   8              		.eabi_attribute 25, 1
   9              		.eabi_attribute 26, 1
  10              		.eabi_attribute 30, 6
  11              		.eabi_attribute 34, 1
  12              		.eabi_attribute 18, 4
  13              		.thumb
  14              		.file	"codebar.c"
  15              		.text
  16              	.Ltext0:
  17              		.cfi_sections	.debug_frame
  18              		.comm	countAnimation1,8,8
  19              		.comm	countAnimation2,8,8
  20              		.comm	countBeagleTX,8,8
  21              		.comm	flowLCD1,4,4
  22              		.comm	flowLCD2,4,4
  23              		.comm	digits,1,1
  24              		.comm	ipAdress,12,4
  25              		.comm	numberKeys1,1,1
  26              		.comm	numberKeys2,1,1
  27              		.comm	flagPoint1,1,1
  28              		.comm	flagPoint2,1,1
  29              		.comm	button,960,4
  30              		.comm	productNumber,1,1
  31              		.comm	presetFast,30,4
  32              		.comm	delayPicture1,4,4
  33              		.comm	delayPicture2,4,4
  34              		.comm	ppux10,1,1
  35              		.comm	decimalMoney,1,1
  36              		.comm	decimalVolume,1,1
  37              		.comm	symbols,2,4
  38              		.comm	time,3,4
  39              		.comm	date,3,4
  40              		.comm	screen,2,4
  41              		.comm	residue,14,4
  42              		.comm	temporal,30,4
  43              		.comm	turn,1,1
  44              		.comm	idSeller,25,4
  45              		.comm	typeIdSeller,1,1
  46              		.comm	passwordSeller,8,4
  47              		.comm	flagResetMux,1,1
  48              		.comm	bufferLCD1,635,4
  49              		.comm	bufferLCD2,635,4
  50              		.comm	side,512,4
  51              		.section	.text.serial_codebar,"ax",%progbits
  52              		.align	2
  53              		.global	serial_codebar
  54              		.thumb
  55              		.thumb_func
  56              		.type	serial_codebar, %function
  57              	serial_codebar:
ARM GAS  C:\Users\PROYEC~1\AppData\Local\Temp\ccjmJYen.s 			page 2


  58              	.LFB56:
  59              		.file 1 ".\\codebar.c"
   1:.\codebar.c   **** /*
   2:.\codebar.c   **** ***************************************************************************************************
   3:.\codebar.c   **** *                                         MUX ADVANCE CODE
   4:.\codebar.c   **** *
   5:.\codebar.c   **** *                             (c) Copyright 2016; Sistemas Insepet LTDA
   6:.\codebar.c   **** *
   7:.\codebar.c   **** *               All rights reserved.  Protected by international copyright laws.
   8:.\codebar.c   **** *               Knowledge of the source code may NOT be used to develop a similar product.
   9:.\codebar.c   **** *               Please help us continue to provide the Embedded community with the finest
  10:.\codebar.c   **** *               software available.  Your honesty is greatly appreciated.
  11:.\codebar.c   **** ***************************************************************************************************
  12:.\codebar.c   **** */
  13:.\codebar.c   **** 
  14:.\codebar.c   **** /*
  15:.\codebar.c   **** ***************************************************************************************************
  16:.\codebar.c   **** *
  17:.\codebar.c   **** *                                            MUX ADVANCE CODE
  18:.\codebar.c   **** *
  19:.\codebar.c   **** *                                             CYPRESS PSoC5LP
  20:.\codebar.c   **** *                                                with the
  21:.\codebar.c   **** *                                            CY8C5969AXI-LP035
  22:.\codebar.c   **** *
  23:.\codebar.c   **** * Filename      : codebar.c
  24:.\codebar.c   **** * Version       : V1.00
  25:.\codebar.c   **** * Programmer(s) : 
  26:.\codebar.c   ****                   
  27:.\codebar.c   **** ***************************************************************************************************
  28:.\codebar.c   **** */
  29:.\codebar.c   **** 
  30:.\codebar.c   **** /*
  31:.\codebar.c   **** ***************************************************************************************************
  32:.\codebar.c   **** *                                             INCLUDE FILES
  33:.\codebar.c   **** ***************************************************************************************************
  34:.\codebar.c   **** */
  35:.\codebar.c   **** 
  36:.\codebar.c   **** #include <device.h>
  37:.\codebar.c   **** #include "variables.h"
  38:.\codebar.c   **** 
  39:.\codebar.c   **** /*
  40:.\codebar.c   **** ***************************************************************************************************
  41:.\codebar.c   **** *                                        uint8 serial_codebar()
  42:.\codebar.c   **** *
  43:.\codebar.c   **** * Description : 
  44:.\codebar.c   **** *               
  45:.\codebar.c   **** *
  46:.\codebar.c   **** * Argument(s) : none
  47:.\codebar.c   **** *
  48:.\codebar.c   **** * Return(s)   : none
  49:.\codebar.c   **** *
  50:.\codebar.c   **** * Caller(s)   :  
  51:.\codebar.c   **** *
  52:.\codebar.c   **** * Note(s)     : none.
  53:.\codebar.c   **** ***************************************************************************************************
  54:.\codebar.c   **** */
  55:.\codebar.c   **** 
ARM GAS  C:\Users\PROYEC~1\AppData\Local\Temp\ccjmJYen.s 			page 3


  56:.\codebar.c   **** uint8 serial_codebar(){
  60              		.loc 1 56 0
  61              		.cfi_startproc
  62              		@ args = 0, pretend = 0, frame = 8
  63              		@ frame_needed = 1, uses_anonymous_args = 0
  64 0000 80B5     		push	{r7, lr}
  65              		.cfi_def_cfa_offset 8
  66              		.cfi_offset 7, -8
  67              		.cfi_offset 14, -4
  68 0002 82B0     		sub	sp, sp, #8
  69              		.cfi_def_cfa_offset 16
  70 0004 00AF     		add	r7, sp, #0
  71              		.cfi_def_cfa_register 7
  57:.\codebar.c   ****     uint32 size;
  58:.\codebar.c   **** 	if(Code_Bar_GetRxBufferSize() >= 1){
  72              		.loc 1 58 0
  73 0006 FFF7FEFF 		bl	Code_Bar_GetRxBufferSize
  74 000a 0346     		mov	r3, r0
  75 000c 002B     		cmp	r3, #0
  76 000e 23D0     		beq	.L2
  59:.\codebar.c   ****         CyDelay(100);
  77              		.loc 1 59 0
  78 0010 6420     		movs	r0, #100
  79 0012 FFF7FEFF 		bl	CyDelay
  60:.\codebar.c   **** 		size=1;
  80              		.loc 1 60 0
  81 0016 0123     		movs	r3, #1
  82 0018 7B60     		str	r3, [r7, #4]
  61:.\codebar.c   **** 		while(Code_Bar_GetRxBufferSize()>0){
  83              		.loc 1 61 0
  84 001a 0BE0     		b	.L3
  85              	.L4:
  62:.\codebar.c   ****     		temporal[size]=Code_Bar_ReadRxData();
  86              		.loc 1 62 0
  87 001c FFF7FEFF 		bl	Code_Bar_ReadRxData
  88 0020 0346     		mov	r3, r0
  89 0022 1946     		mov	r1, r3
  90 0024 0F4A     		ldr	r2, .L6
  91 0026 7B68     		ldr	r3, [r7, #4]
  92 0028 1344     		add	r3, r3, r2
  93 002a 0A46     		mov	r2, r1
  94 002c 1A70     		strb	r2, [r3]
  63:.\codebar.c   ****     		size++;
  95              		.loc 1 63 0
  96 002e 7B68     		ldr	r3, [r7, #4]
  97 0030 0133     		adds	r3, r3, #1
  98 0032 7B60     		str	r3, [r7, #4]
  99              	.L3:
  61:.\codebar.c   **** 		while(Code_Bar_GetRxBufferSize()>0){
 100              		.loc 1 61 0
 101 0034 FFF7FEFF 		bl	Code_Bar_GetRxBufferSize
 102 0038 0346     		mov	r3, r0
 103 003a 002B     		cmp	r3, #0
 104 003c EED1     		bne	.L4
  64:.\codebar.c   ****     	}
  65:.\codebar.c   **** 		temporal[0]=size-1;
 105              		.loc 1 65 0
ARM GAS  C:\Users\PROYEC~1\AppData\Local\Temp\ccjmJYen.s 			page 4


 106 003e 7B68     		ldr	r3, [r7, #4]
 107 0040 DBB2     		uxtb	r3, r3
 108 0042 013B     		subs	r3, r3, #1
 109 0044 DAB2     		uxtb	r2, r3
 110 0046 074B     		ldr	r3, .L6
 111 0048 1A70     		strb	r2, [r3]
  66:.\codebar.c   **** 		Code_Bar_ClearRxBuffer();
 112              		.loc 1 66 0
 113 004a FFF7FEFF 		bl	Code_Bar_ClearRxBuffer
  67:.\codebar.c   **** 		CyDelay(5);
 114              		.loc 1 67 0
 115 004e 0520     		movs	r0, #5
 116 0050 FFF7FEFF 		bl	CyDelay
  68:.\codebar.c   **** 		return 1;
 117              		.loc 1 68 0
 118 0054 0123     		movs	r3, #1
 119 0056 00E0     		b	.L5
 120              	.L2:
  69:.\codebar.c   **** 	}
  70:.\codebar.c   ****     return 0;
 121              		.loc 1 70 0
 122 0058 0023     		movs	r3, #0
 123              	.L5:
  71:.\codebar.c   **** }...
 124              		.loc 1 71 0
 125 005a 1846     		mov	r0, r3
 126 005c 0837     		adds	r7, r7, #8
 127              		.cfi_def_cfa_offset 8
 128 005e BD46     		mov	sp, r7
 129              		.cfi_def_cfa_register 13
 130              		@ sp needed
 131 0060 80BD     		pop	{r7, pc}
 132              	.L7:
 133 0062 00BF     		.align	2
 134              	.L6:
 135 0064 00000000 		.word	temporal
 136              		.cfi_endproc
 137              	.LFE56:
 138              		.size	serial_codebar, .-serial_codebar
 139              		.text
 140              	.Letext0:
 141              		.file 2 "c:\\program files (x86)\\cypress\\psoc creator\\3.3\\psoc creator\\import\\gnu\\arm\\4.9.
 142              		.file 3 "c:\\program files (x86)\\cypress\\psoc creator\\3.3\\psoc creator\\import\\gnu\\arm\\4.9.
 143              		.file 4 "Generated_Source\\PSoC5/cytypes.h"
 144              		.file 5 ".\\variables.h"
 145              		.file 6 "Generated_Source\\PSoC5/core_cm3.h"