ARM GAS  C:\Users\Lenovo\AppData\Local\Temp\cc3LptWd.s 			page 1


   1              		.syntax unified
   2              		.cpu cortex-m3
   3              		.fpu softvfp
   4              		.eabi_attribute 20, 1
   5              		.eabi_attribute 21, 1
   6              		.eabi_attribute 23, 3
   7              		.eabi_attribute 24, 1
   8              		.eabi_attribute 25, 1
   9              		.eabi_attribute 26, 1
  10              		.eabi_attribute 30, 6
  11              		.eabi_attribute 34, 1
  12              		.eabi_attribute 18, 4
  13              		.thumb
  14              		.file	"codetag.c"
  15              		.text
  16              	.Ltext0:
  17              		.cfi_sections	.debug_frame
  18              		.comm	countAnimation1,8,8
  19              		.comm	countAnimation2,8,8
  20              		.comm	countBeagleTX,8,8
  21              		.comm	countPump,8,8
  22              		.comm	flowLCD1,4,4
  23              		.comm	flowLCD2,4,4
  24              		.comm	digits,1,1
  25              		.comm	ipAdress,12,4
  26              		.comm	numberKeys1,1,1
  27              		.comm	numberKeys2,1,1
  28              		.comm	flagPoint1,1,1
  29              		.comm	flagPoint2,1,1
  30              		.comm	button,960,4
  31              		.comm	productNumber,1,1
  32              		.comm	presetFast,30,4
  33              		.comm	delayPicture1,4,4
  34              		.comm	delayPicture2,4,4
  35              		.comm	ppux10,1,1
  36              		.comm	decimalMoney,1,1
  37              		.comm	decimalVolume,1,1
  38              		.comm	symbols,2,4
  39              		.comm	time,3,4
  40              		.comm	date,3,4
  41              		.comm	screen,2,4
  42              		.comm	residue,14,4
  43              		.comm	temporal,30,4
  44              		.comm	temporalCom,30,4
  45              		.comm	turn,1,1
  46              		.comm	lockTurn,1,1
  47              		.comm	idSeller,25,4
  48              		.comm	typeIdSeller,1,1
  49              		.comm	passwordSeller,8,4
  50              		.comm	flagResetMux,1,1
  51              		.comm	stateBeagleSoft,1,1
  52              		.comm	bufferLCD1,661,4
  53              		.comm	bufferLCD2,661,4
  54              		.comm	side,512,4
  55              		.section	.text.serial_codetag,"ax",%progbits
  56              		.align	2
  57              		.global	serial_codetag
ARM GAS  C:\Users\Lenovo\AppData\Local\Temp\cc3LptWd.s 			page 2


  58              		.thumb
  59              		.thumb_func
  60              		.type	serial_codetag, %function
  61              	serial_codetag:
  62              	.LFB56:
  63              		.file 1 ".\\codetag.c"
   1:.\codetag.c   **** /*
   2:.\codetag.c   **** ***************************************************************************************************
   3:.\codetag.c   **** *                                         MUX ADVANCE CODE
   4:.\codetag.c   **** *
   5:.\codetag.c   **** *                             (c) Copyright 2016; Sistemas Insepet LTDA
   6:.\codetag.c   **** *
   7:.\codetag.c   **** *               All rights reserved.  Protected by international copyright laws.
   8:.\codetag.c   **** *               Knowledge of the source code may NOT be used to develop a similar product.
   9:.\codetag.c   **** *               Please help us continue to provide the Embedded community with the finest
  10:.\codetag.c   **** *               software available.  Your honesty is greatly appreciated.
  11:.\codetag.c   **** ***************************************************************************************************
  12:.\codetag.c   **** */
  13:.\codetag.c   **** 
  14:.\codetag.c   **** /*
  15:.\codetag.c   **** ***************************************************************************************************
  16:.\codetag.c   **** *
  17:.\codetag.c   **** *                                            MUX ADVANCE CODE
  18:.\codetag.c   **** *
  19:.\codetag.c   **** *                                             CYPRESS PSoC5LP
  20:.\codetag.c   **** *                                                with the
  21:.\codetag.c   **** *                                            CY8C5969AXI-LP035
  22:.\codetag.c   **** *
  23:.\codetag.c   **** * Filename      : codetag.c
  24:.\codetag.c   **** * Version       : V1.00
  25:.\codetag.c   **** * Programmer(s) : 
  26:.\codetag.c   ****                   
  27:.\codetag.c   **** ***************************************************************************************************
  28:.\codetag.c   **** */
  29:.\codetag.c   **** 
  30:.\codetag.c   **** /*
  31:.\codetag.c   **** ***************************************************************************************************
  32:.\codetag.c   **** *                                             INCLUDE FILES
  33:.\codetag.c   **** ***************************************************************************************************
  34:.\codetag.c   **** */
  35:.\codetag.c   **** 
  36:.\codetag.c   **** #include <device.h>
  37:.\codetag.c   **** #include "variables.h"
  38:.\codetag.c   **** 
  39:.\codetag.c   **** /*
  40:.\codetag.c   **** ***************************************************************************************************
  41:.\codetag.c   **** *                                        uint8 serial_codetag(uint8 side)
  42:.\codetag.c   **** *
  43:.\codetag.c   **** * Description : 
  44:.\codetag.c   **** *               
  45:.\codetag.c   **** *
  46:.\codetag.c   **** * Argument(s) : none
  47:.\codetag.c   **** *
  48:.\codetag.c   **** * Return(s)   : none
  49:.\codetag.c   **** *
  50:.\codetag.c   **** * Caller(s)   :  
  51:.\codetag.c   **** *
ARM GAS  C:\Users\Lenovo\AppData\Local\Temp\cc3LptWd.s 			page 3


  52:.\codetag.c   **** * Note(s)     : none.
  53:.\codetag.c   **** ***************************************************************************************************
  54:.\codetag.c   **** */
  55:.\codetag.c   **** 
  56:.\codetag.c   **** uint8 serial_codetag(uint8 side){
  64              		.loc 1 56 0
  65              		.cfi_startproc
  66              		@ args = 0, pretend = 0, frame = 32
  67              		@ frame_needed = 1, uses_anonymous_args = 0
  68 0000 90B5     		push	{r4, r7, lr}
  69              		.cfi_def_cfa_offset 12
  70              		.cfi_offset 4, -12
  71              		.cfi_offset 7, -8
  72              		.cfi_offset 14, -4
  73 0002 89B0     		sub	sp, sp, #36
  74              		.cfi_def_cfa_offset 48
  75 0004 00AF     		add	r7, sp, #0
  76              		.cfi_def_cfa_register 7
  77 0006 0346     		mov	r3, r0
  78 0008 FB71     		strb	r3, [r7, #7]
  57:.\codetag.c   ****     uint8 buffer[20],x,check;       
  58:.\codetag.c   ****     Tag_ClearRxBuffer();
  79              		.loc 1 58 0
  80 000a FFF7FEFF 		bl	Tag_ClearRxBuffer
  59:.\codetag.c   ****     Tag_ClearTxBuffer();
  81              		.loc 1 59 0
  82 000e FFF7FEFF 		bl	Tag_ClearTxBuffer
  60:.\codetag.c   ****     Tag_PutChar('M');
  83              		.loc 1 60 0
  84 0012 4D20     		movs	r0, #77
  85 0014 FFF7FEFF 		bl	Tag_PutChar
  61:.\codetag.c   ****     Tag_PutChar('R');
  86              		.loc 1 61 0
  87 0018 5220     		movs	r0, #82
  88 001a FFF7FEFF 		bl	Tag_PutChar
  62:.\codetag.c   ****     Tag_PutChar(side);
  89              		.loc 1 62 0
  90 001e FB79     		ldrb	r3, [r7, #7]	@ zero_extendqisi2
  91 0020 1846     		mov	r0, r3
  92 0022 FFF7FEFF 		bl	Tag_PutChar
  63:.\codetag.c   ****     CyDelay(100);
  93              		.loc 1 63 0
  94 0026 6420     		movs	r0, #100
  95 0028 FFF7FEFF 		bl	CyDelay
  64:.\codetag.c   ****     if(Tag_GetRxBufferSize()>=9){
  96              		.loc 1 64 0
  97 002c FFF7FEFF 		bl	Tag_GetRxBufferSize
  98 0030 0346     		mov	r3, r0
  99 0032 082B     		cmp	r3, #8
 100 0034 5DD9     		bls	.L2
  65:.\codetag.c   ****         x=0;
 101              		.loc 1 65 0
 102 0036 0023     		movs	r3, #0
 103 0038 FB77     		strb	r3, [r7, #31]
  66:.\codetag.c   ****         while(Tag_GetRxBufferSize()>0){
 104              		.loc 1 66 0
 105 003a 0CE0     		b	.L3
ARM GAS  C:\Users\Lenovo\AppData\Local\Temp\cc3LptWd.s 			page 4


 106              	.L4:
  67:.\codetag.c   ****            buffer[x]=Tag_ReadRxData();
 107              		.loc 1 67 0
 108 003c FC7F     		ldrb	r4, [r7, #31]	@ zero_extendqisi2
 109 003e FFF7FEFF 		bl	Tag_ReadRxData
 110 0042 0346     		mov	r3, r0
 111 0044 1A46     		mov	r2, r3
 112 0046 07F12003 		add	r3, r7, #32
 113 004a 2344     		add	r3, r3, r4
 114 004c 03F8182C 		strb	r2, [r3, #-24]
  68:.\codetag.c   ****            x++;
 115              		.loc 1 68 0
 116 0050 FB7F     		ldrb	r3, [r7, #31]	@ zero_extendqisi2
 117 0052 0133     		adds	r3, r3, #1
 118 0054 FB77     		strb	r3, [r7, #31]
 119              	.L3:
  66:.\codetag.c   ****         while(Tag_GetRxBufferSize()>0){
 120              		.loc 1 66 0
 121 0056 FFF7FEFF 		bl	Tag_GetRxBufferSize
 122 005a 0346     		mov	r3, r0
 123 005c 002B     		cmp	r3, #0
 124 005e EDD1     		bne	.L4
  69:.\codetag.c   ****         }
  70:.\codetag.c   ****         Tag_ClearRxBuffer();
 125              		.loc 1 70 0
 126 0060 FFF7FEFF 		bl	Tag_ClearRxBuffer
  71:.\codetag.c   ****         check=0;
 127              		.loc 1 71 0
 128 0064 0023     		movs	r3, #0
 129 0066 BB77     		strb	r3, [r7, #30]
  72:.\codetag.c   ****         for(x=1;x<=8;x++){
 130              		.loc 1 72 0
 131 0068 0123     		movs	r3, #1
 132 006a FB77     		strb	r3, [r7, #31]
 133 006c 0BE0     		b	.L5
 134              	.L6:
  73:.\codetag.c   ****             check^=buffer[x];
 135              		.loc 1 73 0 discriminator 3
 136 006e FB7F     		ldrb	r3, [r7, #31]	@ zero_extendqisi2
 137 0070 07F12002 		add	r2, r7, #32
 138 0074 1344     		add	r3, r3, r2
 139 0076 13F8182C 		ldrb	r2, [r3, #-24]	@ zero_extendqisi2
 140 007a BB7F     		ldrb	r3, [r7, #30]
 141 007c 5340     		eors	r3, r3, r2
 142 007e BB77     		strb	r3, [r7, #30]
  72:.\codetag.c   ****         for(x=1;x<=8;x++){
 143              		.loc 1 72 0 discriminator 3
 144 0080 FB7F     		ldrb	r3, [r7, #31]	@ zero_extendqisi2
 145 0082 0133     		adds	r3, r3, #1
 146 0084 FB77     		strb	r3, [r7, #31]
 147              	.L5:
  72:.\codetag.c   ****         for(x=1;x<=8;x++){
 148              		.loc 1 72 0 is_stmt 0 discriminator 1
 149 0086 FB7F     		ldrb	r3, [r7, #31]	@ zero_extendqisi2
 150 0088 082B     		cmp	r3, #8
 151 008a F0D9     		bls	.L6
  74:.\codetag.c   ****         }
ARM GAS  C:\Users\Lenovo\AppData\Local\Temp\cc3LptWd.s 			page 5


  75:.\codetag.c   ****         if(buffer[9]==check && buffer[0]=='H' && (buffer[10]&0x03)==side){
 152              		.loc 1 75 0 is_stmt 1
 153 008c 7B7C     		ldrb	r3, [r7, #17]	@ zero_extendqisi2
 154 008e BA7F     		ldrb	r2, [r7, #30]	@ zero_extendqisi2
 155 0090 9A42     		cmp	r2, r3
 156 0092 2CD1     		bne	.L7
 157              		.loc 1 75 0 is_stmt 0 discriminator 1
 158 0094 3B7A     		ldrb	r3, [r7, #8]	@ zero_extendqisi2
 159 0096 482B     		cmp	r3, #72
 160 0098 29D1     		bne	.L7
 161              		.loc 1 75 0 discriminator 2
 162 009a BB7C     		ldrb	r3, [r7, #18]	@ zero_extendqisi2
 163 009c 03F00302 		and	r2, r3, #3
 164 00a0 FB79     		ldrb	r3, [r7, #7]	@ zero_extendqisi2
 165 00a2 9A42     		cmp	r2, r3
 166 00a4 23D1     		bne	.L7
  76:.\codetag.c   ****             for(x=1;x<=8;x++){
 167              		.loc 1 76 0 is_stmt 1
 168 00a6 0123     		movs	r3, #1
 169 00a8 FB77     		strb	r3, [r7, #31]
 170 00aa 0BE0     		b	.L8
 171              	.L9:
  77:.\codetag.c   ****                 temporal[x]=buffer[x];
 172              		.loc 1 77 0 discriminator 3
 173 00ac FB7F     		ldrb	r3, [r7, #31]	@ zero_extendqisi2
 174 00ae FA7F     		ldrb	r2, [r7, #31]	@ zero_extendqisi2
 175 00b0 07F12001 		add	r1, r7, #32
 176 00b4 0A44     		add	r2, r2, r1
 177 00b6 12F8181C 		ldrb	r1, [r2, #-24]	@ zero_extendqisi2
 178 00ba 104A     		ldr	r2, .L12
 179 00bc D154     		strb	r1, [r2, r3]
  76:.\codetag.c   ****             for(x=1;x<=8;x++){
 180              		.loc 1 76 0 discriminator 3
 181 00be FB7F     		ldrb	r3, [r7, #31]	@ zero_extendqisi2
 182 00c0 0133     		adds	r3, r3, #1
 183 00c2 FB77     		strb	r3, [r7, #31]
 184              	.L8:
  76:.\codetag.c   ****             for(x=1;x<=8;x++){
 185              		.loc 1 76 0 is_stmt 0 discriminator 1
 186 00c4 FB7F     		ldrb	r3, [r7, #31]	@ zero_extendqisi2
 187 00c6 082B     		cmp	r3, #8
 188 00c8 F0D9     		bls	.L9
  78:.\codetag.c   ****             }
  79:.\codetag.c   ****             temporal[0]=8;
 189              		.loc 1 79 0 is_stmt 1
 190 00ca 0C4B     		ldr	r3, .L12
 191 00cc 0822     		movs	r2, #8
 192 00ce 1A70     		strb	r2, [r3]
  80:.\codetag.c   ****             CyDelay(50);
 193              		.loc 1 80 0
 194 00d0 3220     		movs	r0, #50
 195 00d2 FFF7FEFF 		bl	CyDelay
  81:.\codetag.c   ****             Tag_PutChar('O');
 196              		.loc 1 81 0
 197 00d6 4F20     		movs	r0, #79
 198 00d8 FFF7FEFF 		bl	Tag_PutChar
  82:.\codetag.c   ****             Tag_PutChar('K');
ARM GAS  C:\Users\Lenovo\AppData\Local\Temp\cc3LptWd.s 			page 6


 199              		.loc 1 82 0
 200 00dc 4B20     		movs	r0, #75
 201 00de FFF7FEFF 		bl	Tag_PutChar
  83:.\codetag.c   ****             Tag_PutChar(side);
 202              		.loc 1 83 0
 203 00e2 FB79     		ldrb	r3, [r7, #7]	@ zero_extendqisi2
 204 00e4 1846     		mov	r0, r3
 205 00e6 FFF7FEFF 		bl	Tag_PutChar
  84:.\codetag.c   ****             return 1;
 206              		.loc 1 84 0
 207 00ea 0123     		movs	r3, #1
 208 00ec 02E0     		b	.L11
 209              	.L7:
  85:.\codetag.c   ****         }else{
  86:.\codetag.c   ****             return 0;
 210              		.loc 1 86 0
 211 00ee 0023     		movs	r3, #0
 212 00f0 00E0     		b	.L11
 213              	.L2:
  87:.\codetag.c   ****         }
  88:.\codetag.c   ****     }
  89:.\codetag.c   ****     
  90:.\codetag.c   ****     return 0;
 214              		.loc 1 90 0
 215 00f2 0023     		movs	r3, #0
 216              	.L11:
  91:.\codetag.c   **** }...
 217              		.loc 1 91 0 discriminator 1
 218 00f4 1846     		mov	r0, r3
 219 00f6 2437     		adds	r7, r7, #36
 220              		.cfi_def_cfa_offset 12
 221 00f8 BD46     		mov	sp, r7
 222              		.cfi_def_cfa_register 13
 223              		@ sp needed
 224 00fa 90BD     		pop	{r4, r7, pc}
 225              	.L13:
 226              		.align	2
 227              	.L12:
 228 00fc 00000000 		.word	temporal
 229              		.cfi_endproc
 230              	.LFE56:
 231              		.size	serial_codetag, .-serial_codetag
 232              		.text
 233              	.Letext0:
 234              		.file 2 "c:\\program files (x86)\\cypress\\psoc creator\\3.3\\psoc creator\\import\\gnu\\arm\\4.9.
 235              		.file 3 "c:\\program files (x86)\\cypress\\psoc creator\\3.3\\psoc creator\\import\\gnu\\arm\\4.9.
 236              		.file 4 "Generated_Source\\PSoC5/cytypes.h"
 237              		.file 5 ".\\variables.h"
 238              		.file 6 "Generated_Source\\PSoC5/core_cm3.h"