ARM GAS  C:\Users\Lenovo\AppData\Local\Temp\cc3LptWd.s 			page 1


   1              		.syntax unified
   2              		.cpu cortex-m3
   3              		.fpu softvfp
   4              		.eabi_attribute 20, 1
   5              		.eabi_attribute 21, 1
   6              		.eabi_attribute 23, 3
   7              		.eabi_attribute 24, 1
   8              		.eabi_attribute 25, 1
   9              		.eabi_attribute 26, 1
  10              		.eabi_attribute 30, 6
  11              		.eabi_attribute 34, 1
  12              		.eabi_attribute 18, 4
  13              		.thumb
  14              		.file	"codetag.c"
  15              		.text
  16              	.Ltext0:
  17              		.cfi_sections	.debug_frame
  18              		.comm	countAnimation1,8,8
  19              		.comm	countAnimation2,8,8
  20              		.comm	countBeagleTX,8,8
  21              		.comm	countPump,8,8
  22              		.comm	flowLCD1,4,4
  23              		.comm	flowLCD2,4,4
  24              		.comm	digits,1,1
  25              		.comm	ipAdress,12,4
  26              		.comm	numberKeys1,1,1
  27              		.comm	numberKeys2,1,1
  28              		.comm	flagPoint1,1,1
  29              		.comm	flagPoint2,1,1
  30              		.comm	button,960,4
  31              		.comm	productNumber,1,1
  32              		.comm	presetFast,30,4
  33              		.comm	delayPicture1,4,4
  34              		.comm	delayPicture2,4,4
  35              		.comm	ppux10,1,1
  36              		.comm	decimalMoney,1,1
  37              		.comm	decimalVolume,1,1
  38              		.comm	symbols,2,4
  39              		.comm	time,3,4
  40              		.comm	date,3,4
  41              		.comm	screen,2,4
  42              		.comm	residue,14,4
  43              		.comm	temporal,30,4
  44              		.comm	temporalCom,30,4
  45              		.comm	turn,1,1
  46              		.comm	lockTurn,1,1
  47              		.comm	idSeller,25,4
  48              		.comm	typeIdSeller,1,1
  49              		.comm	passwordSeller,8,4
  50              		.comm	flagResetMux,1,1
  51              		.comm	stateBeagleSoft,1,1
  52              		.comm	bufferLCD1,661,4
  53              		.comm	bufferLCD2,661,4
  54              		.comm	side,512,4
  55              		.section	.text.serial_codetag,"ax",%progbits
  56              		.align	2
  57              		.global	serial_codetag
ARM GAS  C:\Users\Lenovo\AppData\Local\Temp\cc3LptWd.s 			page 2


  58              		.thumb
  59              		.thumb_func
  60              		.type	serial_codetag, %function
  61              	serial_codetag:
  62              	.LFB56:
  63              		.file 1 ".\\codetag.c"
   1:.\codetag.c   **** /*
   2:.\codetag.c   **** ***************************************************************************************************
   3:.\codetag.c   **** *                                         MUX ADVANCE CODE
   4:.\codetag.c   **** *
   5:.\codetag.c   **** *                             (c) Copyright 2016; Sistemas Insepet LTDA
   6:.\codetag.c   **** *
   7:.\codetag.c   **** *               All rights reserved.  Protected by international copyright laws.
   8:.\codetag.c   **** *               Knowledge of the source code may NOT be used to develop a similar product.
   9:.\codetag.c   **** *               Please help us continue to provide the Embedded community with the finest
  10:.\codetag.c   **** *               software available.  Your honesty is greatly appreciated.
  11:.\codetag.c   **** ***************************************************************************************************
  12:.\codetag.c   **** */
  13:.\codetag.c   **** 
  14:.\codetag.c   **** /*
  15:.\codetag.c   **** ***************************************************************************************************
  16:.\codetag.c   **** *
  17:.\codetag.c   **** *                                            MUX ADVANCE CODE
  18:.\codetag.c   **** *
  19:.\codetag.c   **** *                                             CYPRESS PSoC5LP
  20:.\codetag.c   **** *                                                with the
  21:.\codetag.c   **** *                                            CY8C5969AXI-LP035
  22:.\codetag.c   **** *
  23:.\codetag.c   **** * Filename      : codetag.c
  24:.\codetag.c   **** * Version       : V1.00
  25:.\codetag.c   **** * Programmer(s) : 
  26:.\codetag.c   ****                   
  27:.\codetag.c   **** ***************************************************************************************************
  28:.\codetag.c   **** */
  29:.\codetag.c   **** 
  30:.\codetag.c   **** /*
  31:.\codetag.c   **** ***************************************************************************************************
  32:.\codetag.c   **** *                                             INCLUDE FILES
  33:.\codetag.c   **** ***************************************************************************************************
  34:.\codetag.c   **** */
  35:.\codetag.c   **** 
  36:.\codetag.c   **** #include <device.h>
  37:.\codetag.c   **** #include "variables.h"
  38:.\codetag.c   **** 
  39:.\codetag.c   **** /*
  40:.\codetag.c   **** ***************************************************************************************************
  41:.\codetag.c   **** *                                        uint8 serial_codetag(uint8 side)
  42:.\codetag.c   **** *
  43:.\codetag.c   **** * Description : 
  44:.\codetag.c   **** *               
  45:.\codetag.c   **** *
  46:.\codetag.c   **** * Argument(s) : none
  47:.\codetag.c   **** *
  48:.\codetag.c   **** * Return(s)   : none
  49:.\codetag.c   **** *
  50:.\codetag.c   **** * Caller(s)   :  
  51:.\codetag.c   **** *
ARM GAS  C:\Users\Lenovo\AppData\Local\Temp\cc3LptWd.s 			page 3


  52:.\codetag.c   **** * Note(s)     : none.
  53:.\codetag.c   **** ***************************************************************************************************
  54:.\codetag.c   **** */
  55:.\codetag.c   **** 
  56:.\codetag.c   **** uint8 serial_codetag(uint8 side){
  64              		.loc 1 56 0
  65              		.cfi_startproc
  66              		@ args = 0, pretend = 0, frame = 32
  67              		@ frame_needed = 1, uses_anonymous_args = 0
  68 0000 90B5     		push	{r4, r7, lr}
  69              		.cfi_def_cfa_offset 12
  70              		.cfi_offset 4, -12
  71              		.cfi_offset 7, -8
  72              		.cfi_offset 14, -4
  73 0002 89B0     		sub	sp, sp, #36
  74              		.cfi_def_cfa_offset 48
  75 0004 00AF     		add	r7, sp, #0
  76              		.cfi_def_cfa_register 7
  77 0006 0346     		mov	r3, r0
  78 0008 FB71     		strb	r3, [r7, #7]
  57:.\codetag.c   ****     uint8 buffer[20],x,check;       
  58:.\codetag.c   ****     Tag_ClearRxBuffer();
  79              		.loc 1 58 0
  80 000a FFF7FEFF 		bl	Tag_ClearRxBuffer
  59:.\codetag.c   ****     Tag_ClearTxBuffer();
  81              		.loc 1 59 0
  82 000e FFF7FEFF 		bl	Tag_ClearTxBuffer
  60:.\codetag.c   ****     Tag_PutChar('M');
  83              		.loc 1 60 0
  84 0012 4D20     		movs	r0, #77
  85 0014 FFF7FEFF 		bl	Tag_PutChar
  61:.\codetag.c   ****     Tag_PutChar('R');
  86              		.loc 1 61 0
  87 0018 5220     		movs	r0, #82
  88 001a FFF7FEFF 		bl	Tag_PutChar
  62:.\codetag.c   ****     Tag_PutChar(side);
  89              		.loc 1 62 0
  90 001e FB79     		ldrb	r3, [r7, #7]	@ zero_extendqisi2
  91 0020 1846     		mov	r0, r3
  92 0022 FFF7FEFF 		bl	Tag_PutChar
  63:.\codetag.c   ****     CyDelay(100);
  93              		.loc 1 63 0
  94 0026 6420     		movs	r0, #100
  95 0028 FFF7FEFF 		bl	CyDelay
  64:.\codetag.c   ****     if(Tag_GetRxBufferSize()>=9){
  96              		.loc 1 64 0
  97 002c FFF7FEFF 		bl	Tag_GetRxBufferSize
  98 0030 0346     		mov	r3, r0
  99 0032 082B     		cmp	r3, #8
 100 0034 5DD9     		bls	.L2
  65:.\codetag.c   ****         x=0;
 101              		.loc 1 65 0
 102 0036 0023     		movs	r3, #0
 103 0038 FB77     		strb	r3, [r7, #31]
  66:.\codetag.c   ****         while(Tag_GetRxBufferSize()>0){
 104              		.loc 1 66 0
 105 003a 0CE0     		b	.L3
ARM GAS  C:\Users\Lenovo\AppData\Local\Temp\cc3LptWd.s 			page 4


 106              	.L4:
  67:.\codetag.c   ****            buffer[x]=Tag_ReadRxData();
 107              		.loc 1 67 0
 108 003c FC7F     		ldrb	r4, [r7, #31]	@ zero_extendqisi2
 109 003e FFF7FEFF 		bl	Tag_ReadRxData
 110 0042 0346     		mov	r3, r0
 111 0044 1A46     		mov	r2, r3
 112 0046 07F12003 		add	r3, r7, #32
 113 004a 2344     		add	r3, r3, r4
 114 004c 03F8182C 		strb	r2, [r3, #-24]
  68:.\codetag.c   ****            x++;
 115              		.loc 1 68 0
 116 0050 FB7F     		ldrb	r3, [r7, #31]	@ zero_extendqisi2
 117 0052 0133     		adds	r3, r3, #1
 118 0054 FB77     		strb	r3, [r7, #31]
 119              	.L3:
  66:.\codetag.c   ****         while(Tag_GetRxBufferSize()>0){
 120              		.loc 1 66 0
 121 0056 FFF7FEFF 		bl	Tag_GetRxBufferSize
 122 005a 0346     		mov	r3, r0
 123 005c 002B     		cmp	r3, #0
 124 005e EDD1     		bne	.L4
  69:.\codetag.c   ****         }
  70:.\codetag.c   ****         Tag_ClearRxBuffer();
 125              		.loc 1 70 0
 126 0060 FFF7FEFF 		bl	Tag_ClearRxBuffer
  71:.\codetag.c   ****         check=0;
 127              		.loc 1 71 0
 128 0064 0023     		movs	r3, #0
 129 0066 BB77     		strb	r3, [r7, #30]
  72:.\codetag.c   ****         for(x=1;x<=8;x++){
 130              		.loc 1 72 0
 131 0068 0123     		movs	r3, #1
 132 006a FB77     		strb	r3, [r7, #31]
 133 006c 0BE0     		b	.L5
 134              	.L6:
  73:.\codetag.c   ****             check^=buffer[x];
 135              		.loc 1 73 0 discriminator 3
 136 006e FB7F     		ldrb	r3, [r7, #31]	@ zero_extendqisi2
 137 0070 07F12002 		add	r2, r7, #32
 138 0074 1344     		add	r3, r3, r2
 139 0076 13F8182C 		ldrb	r2, [r3, #-24]	@ zero_extendqisi2
 140 007a BB7F     		ldrb	r3, [r7, #30]
 141 007c 5340     		eors	r3, r3, r2
 142 007e BB77     		strb	r3, [r7, #30]
  72:.\codetag.c   ****         for(x=1;x<=8;x++){
 143              		.loc 1 72 0 discriminator 3
 144 0080 FB7F     		ldrb	r3, [r7, #31]	@ zero_extendqisi2
 145 0082 0133     		adds	r3, r3, #1
 146 0084 FB77     		strb	r3, [r7, #31]
 147              	.L5:
  72:.\codetag.c   ****         for(x=1;x<=8;x++){
 148              		.loc 1 72 0 is_stmt 0 discriminator 1
 149 0086 FB7F     		ldrb	r3, [r7, #31]	@ zero_extendqisi2
 150 0088 082B     		cmp	r3, #8
 151 008a F0D9     		bls	.L6
  74:.\codetag.c   ****         }
ARM GAS  C:\Users\Lenovo\AppData\Local\Temp\cc3LptWd.s 			page 5


  75:.\codetag.c   ****         if(buffer[9]==check && buffer[0]=='H' && (buffer[10]&0x03)==side){
 152              		.loc 1 75 0 is_stmt 1
 153 008c 7B7C     		ldrb	r3, [r7, #17]	@ zero_extendqisi2
 154 008e BA7F     		ldrb	r2, [r7, #30]	@ zero_extendqisi2
 155 0090 9A42     		cmp	r2, r3
 156 0092 2CD1     		bne	.L7
 157              		.loc 1 75 0 is_stmt 0 discriminator 1
 158 0094 3B7A     		ldrb	r3, [r7, #8]	@ zero_extendqisi2
 159 0096 482B     		cmp	r3, #72
 160 0098 29D1     		bne	.L7
 161              		.loc 1 75 0 discriminator 2
 162 009a BB7C     		ldrb	r3, [r7, #18]	@ zero_extendqisi2
 163 009c 03F00302 		and	r2, r3, #3
 164 00a0 FB79     		ldrb	r3, [r7, #7]	@ zero_extendqisi2
 165 00a2 9A42     		cmp	r2, r3
 166 00a4 23D1     		bne	.L7
  76:.\codetag.c   ****             for(x=1;x<=8;x++){
 167              		.loc 1 76 0 is_stmt 1
 168 00a6 0123     		movs	r3, #1
 169 00a8 FB77     		strb	r3, [r7, #31]
 170 00aa 0BE0     		b	.L8
 171              	.L9:
  77:.\codetag.c   ****                 temporal[x]=buffer[x];
 172              		.loc 1 77 0 discriminator 3
 173 00ac FB7F     		ldrb	r3, [r7, #31]	@ zero_extendqisi2
 174 00ae FA7F     		ldrb	r2, [r7, #31]	@ zero_extendqisi2
 175 00b0 07F12001 		add	r1, r7, #32
 176 00b4 0A44     		add	r2, r2, r1
 177 00b6 12F8181C 		ldrb	r1, [r2, #-24]	@ zero_extendqisi2
 178 00ba 104A     		ldr	r2, .L12
 179 00bc D154     		strb	r1, [r2, r3]
  76:.\codetag.c   ****             for(x=1;x<=8;x++){
 180              		.loc 1 76 0 discriminator 3
 181 00be FB7F     		ldrb	r3, [r7, #31]	@ zero_extendqisi2
 182 00c0 0133     		adds	r3, r3, #1
 183 00c2 FB77     		strb	r3, [r7, #31]
 184              	.L8:
  76:.\codetag.c   ****             for(x=1;x<=8;x++){
 185              		.loc 1 76 0 is_stmt 0 discriminator 1
 186 00c4 FB7F     		ldrb	r3, [r7, #31]	@ zero_extendqisi2
 187 00c6 082B     		cmp	r3, #8
 188 00c8 F0D9     		bls	.L9
  78:.\codetag.c   ****             }
  79:.\codetag.c   ****             temporal[0]=8;
 189              		.loc 1 79 0 is_stmt 1
 190 00ca 0C4B     		ldr	r3, .L12
 191 00cc 0822     		movs	r2, #8
 192 00ce 1A70     		strb	r2, [r3]
  80:.\codetag.c   ****             CyDelay(50);
 193              		.loc 1 80 0
 194 00d0 3220     		movs	r0, #50
 195 00d2 FFF7FEFF 		bl	CyDelay
  81:.\codetag.c   ****             Tag_PutChar('O');
 196              		.loc 1 81 0
 197 00d6 4F20     		movs	r0, #79
 198 00d8 FFF7FEFF 		bl	Tag_PutChar
  82:.\codetag.c   ****             Tag_PutChar('K');
ARM GAS  C:\Users\Lenovo\AppData\Local\Temp\cc3LptWd.s 			page 6


 199              		.loc 1 82 0
 200 00dc 4B20     		movs	r0, #75
 201 00de FFF7FEFF 		bl	Tag_PutChar
  83:.\codetag.c   ****             Tag_PutChar(side);
 202              		.loc 1 83 0
 203 00e2 FB79     		ldrb	r3, [r7, #7]	@ zero_extendqisi2
 204 00e4 1846     		mov	r0, r3
 205 00e6 FFF7FEFF 		bl	Tag_PutChar
  84:.\codetag.c   ****             return 1;
 206              		.loc 1 84 0
 207 00ea 0123     		movs	r3, #1
 208 00ec 02E0     		b	.L11
 209              	.L7:
  85:.\codetag.c   ****         }else{
  86:.\codetag.c   ****             return 0;
 210              		.loc 1 86 0
 211 00ee 0023     		movs	r3, #0
 212 00f0 00E0     		b	.L11
 213              	.L2:
  87:.\codetag.c   ****         }
  88:.\codetag.c   ****     }
  89:.\codetag.c   ****     
  90:.\codetag.c   ****     return 0;
 214              		.loc 1 90 0
 215 00f2 0023     		movs	r3, #0
 216              	.L11:
  91:.\codetag.c   **** }...
 217              		.loc 1 91 0 discriminator 1
 218 00f4 1846     		mov	r0, r3
 219 00f6 2437     		adds	r7, r7, #36
 220              		.cfi_def_cfa_offset 12
 221 00f8 BD46     		mov	sp, r7
 222              		.cfi_def_cfa_register 13
 223              		@ sp needed
 224 00fa 90BD     		pop	{r4, r7, pc}
 225              	.L13:
 226              		.align	2
 227              	.L12:
 228 00fc 00000000 		.word	temporal
 229              		.cfi_endproc
 230              	.LFE56:
 231              		.size	serial_codetag, .-serial_codetag
 232              		.text
 233              	.Letext0:
 234              		.file 2 "c:\\program files (x86)\\cypress\\psoc creator\\3.3\\psoc creator\\import\\gnu\\arm\\4.9.
 235              		.file 3 "c:\\program files (x86)\\cypress\\psoc creator\\3.3\\psoc creator\\import\\gnu\\arm\\4.9.
 236              		.file 4 "Generated_Source\\PSoC5/cytypes.h"
 237              		.file 5 ".\\variables.h"
 238              		.file 6 "Generated_Source\\PSoC5/core_cm3.h"
 239              		.section	.debug_info,"",%progbits
 240              	.Ldebug_info0:
 241 0000 5E080000 		.4byte	0x85e
 242 0004 0400     		.2byte	0x4
 243 0006 00000000 		.4byte	.Ldebug_abbrev0
 244 000a 04       		.byte	0x4
 245 000b 01       		.uleb128 0x1
 246 000c E3010000 		.4byte	.LASF116
ARM GAS  C:\Users\Lenovo\AppData\Local\Temp\cc3LptWd.s 			page 7


 247 0010 01       		.byte	0x1
 248 0011 4C060000 		.4byte	.LASF117
 249 0015 5A000000 		.4byte	.LASF118
 250 0019 00000000 		.4byte	.Ldebug_ranges0+0
 251 001d 00000000 		.4byte	0
 252 0021 00000000 		.4byte	.Ldebug_line0
 253 0025 02       		.uleb128 0x2
 254 0026 01       		.byte	0x1
 255 0027 06       		.byte	0x6
 256 0028 79010000 		.4byte	.LASF0
 257 002c 02       		.uleb128 0x2
 258 002d 01       		.byte	0x1
 259 002e 08       		.byte	0x8
 260 002f F9020000 		.4byte	.LASF1
 261 0033 02       		.uleb128 0x2
 262 0034 02       		.byte	0x2
 263 0035 05       		.byte	0x5
 264 0036 50000000 		.4byte	.LASF2
 265 003a 02       		.uleb128 0x2
 266 003b 02       		.byte	0x2
 267 003c 07       		.byte	0x7
 268 003d E5040000 		.4byte	.LASF3
 269 0041 03       		.uleb128 0x3
 270 0042 86050000 		.4byte	.LASF9
 271 0046 02       		.byte	0x2
 272 0047 3F       		.byte	0x3f
 273 0048 4C000000 		.4byte	0x4c
 274 004c 02       		.uleb128 0x2
 275 004d 04       		.byte	0x4
 276 004e 05       		.byte	0x5
 277 004f 83040000 		.4byte	.LASF4
 278 0053 02       		.uleb128 0x2
 279 0054 04       		.byte	0x4
 280 0055 07       		.byte	0x7
 281 0056 17000000 		.4byte	.LASF5
 282 005a 02       		.uleb128 0x2
 283 005b 08       		.byte	0x8
 284 005c 05       		.byte	0x5
 285 005d C4010000 		.4byte	.LASF6
 286 0061 02       		.uleb128 0x2
 287 0062 08       		.byte	0x8
 288 0063 07       		.byte	0x7
 289 0064 A4030000 		.4byte	.LASF7
 290 0068 04       		.uleb128 0x4
 291 0069 04       		.byte	0x4
 292 006a 05       		.byte	0x5
 293 006b 696E7400 		.ascii	"int\000"
 294 006f 02       		.uleb128 0x2
 295 0070 04       		.byte	0x4
 296 0071 07       		.byte	0x7
 297 0072 D5030000 		.4byte	.LASF8
 298 0076 03       		.uleb128 0x3
 299 0077 8C040000 		.4byte	.LASF10
 300 007b 03       		.byte	0x3
 301 007c 2C       		.byte	0x2c
 302 007d 41000000 		.4byte	0x41
 303 0081 03       		.uleb128 0x3
ARM GAS  C:\Users\Lenovo\AppData\Local\Temp\cc3LptWd.s 			page 8


 304 0082 6A010000 		.4byte	.LASF11
 305 0086 04       		.byte	0x4
 306 0087 A1       		.byte	0xa1
 307 0088 2C000000 		.4byte	0x2c
 308 008c 03       		.uleb128 0x3
 309 008d F8040000 		.4byte	.LASF12
 310 0091 04       		.byte	0x4
 311 0092 A3       		.byte	0xa3
 312 0093 53000000 		.4byte	0x53
 313 0097 02       		.uleb128 0x2
 314 0098 04       		.byte	0x4
 315 0099 04       		.byte	0x4
 316 009a 9B010000 		.4byte	.LASF13
 317 009e 02       		.uleb128 0x2
 318 009f 08       		.byte	0x8
 319 00a0 04       		.byte	0x4
 320 00a1 F3050000 		.4byte	.LASF14
 321 00a5 03       		.uleb128 0x3
 322 00a6 71020000 		.4byte	.LASF15
 323 00aa 04       		.byte	0x4
 324 00ab AD       		.byte	0xad
 325 00ac 61000000 		.4byte	0x61
 326 00b0 02       		.uleb128 0x2
 327 00b1 01       		.byte	0x1
 328 00b2 08       		.byte	0x8
 329 00b3 76040000 		.4byte	.LASF16
 330 00b7 05       		.uleb128 0x5
 331 00b8 81000000 		.4byte	0x81
 332 00bc 05       		.uleb128 0x5
 333 00bd 8C000000 		.4byte	0x8c
 334 00c1 02       		.uleb128 0x2
 335 00c2 04       		.byte	0x4
 336 00c3 07       		.byte	0x7
 337 00c4 B8000000 		.4byte	.LASF17
 338 00c8 06       		.uleb128 0x6
 339 00c9 DE040000 		.4byte	.LASF68
 340 00cd 9502     		.2byte	0x295
 341 00cf 05       		.byte	0x5
 342 00d0 56       		.byte	0x56
 343 00d1 44030000 		.4byte	0x344
 344 00d5 07       		.uleb128 0x7
 345 00d6 63010000 		.4byte	.LASF18
 346 00da 05       		.byte	0x5
 347 00db 57       		.byte	0x57
 348 00dc 81000000 		.4byte	0x81
 349 00e0 00       		.byte	0
 350 00e1 07       		.uleb128 0x7
 351 00e2 47000000 		.4byte	.LASF19
 352 00e6 05       		.byte	0x5
 353 00e7 58       		.byte	0x58
 354 00e8 44030000 		.4byte	0x344
 355 00ec 01       		.byte	0x1
 356 00ed 07       		.uleb128 0x7
 357 00ee 5F050000 		.4byte	.LASF20
 358 00f2 05       		.byte	0x5
 359 00f3 59       		.byte	0x59
 360 00f4 44030000 		.4byte	0x344
ARM GAS  C:\Users\Lenovo\AppData\Local\Temp\cc3LptWd.s 			page 9


 361 00f8 1A       		.byte	0x1a
 362 00f9 07       		.uleb128 0x7
 363 00fa 42010000 		.4byte	.LASF21
 364 00fe 05       		.byte	0x5
 365 00ff 5A       		.byte	0x5a
 366 0100 81000000 		.4byte	0x81
 367 0104 33       		.byte	0x33
 368 0105 07       		.uleb128 0x7
 369 0106 64040000 		.4byte	.LASF22
 370 010a 05       		.byte	0x5
 371 010b 5B       		.byte	0x5b
 372 010c 81000000 		.4byte	0x81
 373 0110 34       		.byte	0x34
 374 0111 07       		.uleb128 0x7
 375 0112 79050000 		.4byte	.LASF23
 376 0116 05       		.byte	0x5
 377 0117 5C       		.byte	0x5c
 378 0118 54030000 		.4byte	0x354
 379 011c 35       		.byte	0x35
 380 011d 07       		.uleb128 0x7
 381 011e 51030000 		.4byte	.LASF24
 382 0122 05       		.byte	0x5
 383 0123 5D       		.byte	0x5d
 384 0124 54030000 		.4byte	0x354
 385 0128 3F       		.byte	0x3f
 386 0129 07       		.uleb128 0x7
 387 012a E6000000 		.4byte	.LASF25
 388 012e 05       		.byte	0x5
 389 012f 5E       		.byte	0x5e
 390 0130 44030000 		.4byte	0x344
 391 0134 49       		.byte	0x49
 392 0135 07       		.uleb128 0x7
 393 0136 D2010000 		.4byte	.LASF26
 394 013a 05       		.byte	0x5
 395 013b 5F       		.byte	0x5f
 396 013c 81000000 		.4byte	0x81
 397 0140 62       		.byte	0x62
 398 0141 07       		.uleb128 0x7
 399 0142 90050000 		.4byte	.LASF27
 400 0146 05       		.byte	0x5
 401 0147 60       		.byte	0x60
 402 0148 81000000 		.4byte	0x81
 403 014c 63       		.byte	0x63
 404 014d 07       		.uleb128 0x7
 405 014e BE020000 		.4byte	.LASF28
 406 0152 05       		.byte	0x5
 407 0153 61       		.byte	0x61
 408 0154 64030000 		.4byte	0x364
 409 0158 64       		.byte	0x64
 410 0159 07       		.uleb128 0x7
 411 015a FF040000 		.4byte	.LASF29
 412 015e 05       		.byte	0x5
 413 015f 62       		.byte	0x62
 414 0160 81000000 		.4byte	0x81
 415 0164 79       		.byte	0x79
 416 0165 07       		.uleb128 0x7
 417 0166 D4000000 		.4byte	.LASF30
ARM GAS  C:\Users\Lenovo\AppData\Local\Temp\cc3LptWd.s 			page 10


 418 016a 05       		.byte	0x5
 419 016b 63       		.byte	0x63
 420 016c 81000000 		.4byte	0x81
 421 0170 7A       		.byte	0x7a
 422 0171 07       		.uleb128 0x7
 423 0172 4B010000 		.4byte	.LASF31
 424 0176 05       		.byte	0x5
 425 0177 64       		.byte	0x64
 426 0178 81000000 		.4byte	0x81
 427 017c 7B       		.byte	0x7b
 428 017d 07       		.uleb128 0x7
 429 017e 1F030000 		.4byte	.LASF32
 430 0182 05       		.byte	0x5
 431 0183 65       		.byte	0x65
 432 0184 74030000 		.4byte	0x374
 433 0188 7C       		.byte	0x7c
 434 0189 07       		.uleb128 0x7
 435 018a 36010000 		.4byte	.LASF33
 436 018e 05       		.byte	0x5
 437 018f 66       		.byte	0x66
 438 0190 84030000 		.4byte	0x384
 439 0194 7E       		.byte	0x7e
 440 0195 07       		.uleb128 0x7
 441 0196 0B000000 		.4byte	.LASF34
 442 019a 05       		.byte	0x5
 443 019b 67       		.byte	0x67
 444 019c 81000000 		.4byte	0x81
 445 01a0 92       		.byte	0x92
 446 01a1 07       		.uleb128 0x7
 447 01a2 CB000000 		.4byte	.LASF35
 448 01a6 05       		.byte	0x5
 449 01a7 68       		.byte	0x68
 450 01a8 9A030000 		.4byte	0x39a
 451 01ac 93       		.byte	0x93
 452 01ad 07       		.uleb128 0x7
 453 01ae 38000000 		.4byte	.LASF36
 454 01b2 05       		.byte	0x5
 455 01b3 69       		.byte	0x69
 456 01b4 AA030000 		.4byte	0x3aa
 457 01b8 98       		.byte	0x98
 458 01b9 07       		.uleb128 0x7
 459 01ba BA040000 		.4byte	.LASF37
 460 01be 05       		.byte	0x5
 461 01bf 6A       		.byte	0x6a
 462 01c0 AA030000 		.4byte	0x3aa
 463 01c4 9E       		.byte	0x9e
 464 01c5 07       		.uleb128 0x7
 465 01c6 94040000 		.4byte	.LASF38
 466 01ca 05       		.byte	0x5
 467 01cb 6B       		.byte	0x6b
 468 01cc AA030000 		.4byte	0x3aa
 469 01d0 A4       		.byte	0xa4
 470 01d1 07       		.uleb128 0x7
 471 01d2 13050000 		.4byte	.LASF39
 472 01d6 05       		.byte	0x5
 473 01d7 6C       		.byte	0x6c
 474 01d8 AA030000 		.4byte	0x3aa
ARM GAS  C:\Users\Lenovo\AppData\Local\Temp\cc3LptWd.s 			page 11


 475 01dc AA       		.byte	0xaa
 476 01dd 07       		.uleb128 0x7
 477 01de C2030000 		.4byte	.LASF40
 478 01e2 05       		.byte	0x5
 479 01e3 6D       		.byte	0x6d
 480 01e4 BA030000 		.4byte	0x3ba
 481 01e8 B0       		.byte	0xb0
 482 01e9 07       		.uleb128 0x7
 483 01ea AA020000 		.4byte	.LASF41
 484 01ee 05       		.byte	0x5
 485 01ef 6E       		.byte	0x6e
 486 01f0 BA030000 		.4byte	0x3ba
 487 01f4 BE       		.byte	0xbe
 488 01f5 07       		.uleb128 0x7
 489 01f6 E2050000 		.4byte	.LASF42
 490 01fa 05       		.byte	0x5
 491 01fb 6F       		.byte	0x6f
 492 01fc BA030000 		.4byte	0x3ba
 493 0200 CC       		.byte	0xcc
 494 0201 07       		.uleb128 0x7
 495 0202 E9020000 		.4byte	.LASF43
 496 0206 05       		.byte	0x5
 497 0207 70       		.byte	0x70
 498 0208 BA030000 		.4byte	0x3ba
 499 020c DA       		.byte	0xda
 500 020d 07       		.uleb128 0x7
 501 020e 0A040000 		.4byte	.LASF44
 502 0212 05       		.byte	0x5
 503 0213 71       		.byte	0x71
 504 0214 BA030000 		.4byte	0x3ba
 505 0218 E8       		.byte	0xe8
 506 0219 07       		.uleb128 0x7
 507 021a A3040000 		.4byte	.LASF45
 508 021e 05       		.byte	0x5
 509 021f 72       		.byte	0x72
 510 0220 BA030000 		.4byte	0x3ba
 511 0224 F6       		.byte	0xf6
 512 0225 08       		.uleb128 0x8
 513 0226 25010000 		.4byte	.LASF46
 514 022a 05       		.byte	0x5
 515 022b 73       		.byte	0x73
 516 022c CA030000 		.4byte	0x3ca
 517 0230 0401     		.2byte	0x104
 518 0232 08       		.uleb128 0x8
 519 0233 57010000 		.4byte	.LASF47
 520 0237 05       		.byte	0x5
 521 0238 74       		.byte	0x74
 522 0239 CA030000 		.4byte	0x3ca
 523 023d 0F01     		.2byte	0x10f
 524 023f 08       		.uleb128 0x8
 525 0240 EA030000 		.4byte	.LASF48
 526 0244 05       		.byte	0x5
 527 0245 75       		.byte	0x75
 528 0246 CA030000 		.4byte	0x3ca
 529 024a 1A01     		.2byte	0x11a
 530 024c 08       		.uleb128 0x8
 531 024d 2A030000 		.4byte	.LASF49
ARM GAS  C:\Users\Lenovo\AppData\Local\Temp\cc3LptWd.s 			page 12


 532 0251 05       		.byte	0x5
 533 0252 76       		.byte	0x76
 534 0253 81000000 		.4byte	0x81
 535 0257 2501     		.2byte	0x125
 536 0259 08       		.uleb128 0x8
 537 025a 4E040000 		.4byte	.LASF50
 538 025e 05       		.byte	0x5
 539 025f 77       		.byte	0x77
 540 0260 81000000 		.4byte	0x81
 541 0264 2601     		.2byte	0x126
 542 0266 08       		.uleb128 0x8
 543 0267 9B020000 		.4byte	.LASF51
 544 026b 05       		.byte	0x5
 545 026c 78       		.byte	0x78
 546 026d 81000000 		.4byte	0x81
 547 0271 2701     		.2byte	0x127
 548 0273 08       		.uleb128 0x8
 549 0274 CF020000 		.4byte	.LASF52
 550 0278 05       		.byte	0x5
 551 0279 79       		.byte	0x79
 552 027a 81000000 		.4byte	0x81
 553 027e 2801     		.2byte	0x128
 554 0280 08       		.uleb128 0x8
 555 0281 0B050000 		.4byte	.LASF53
 556 0285 05       		.byte	0x5
 557 0286 7A       		.byte	0x7a
 558 0287 DA030000 		.4byte	0x3da
 559 028b 2901     		.2byte	0x129
 560 028d 08       		.uleb128 0x8
 561 028e 00000000 		.4byte	.LASF54
 562 0292 05       		.byte	0x5
 563 0293 7B       		.byte	0x7b
 564 0294 54030000 		.4byte	0x354
 565 0298 6A01     		.2byte	0x16a
 566 029a 08       		.uleb128 0x8
 567 029b 42040000 		.4byte	.LASF55
 568 029f 05       		.byte	0x5
 569 02a0 7C       		.byte	0x7c
 570 02a1 54030000 		.4byte	0x354
 571 02a5 7401     		.2byte	0x174
 572 02a7 08       		.uleb128 0x8
 573 02a8 1C010000 		.4byte	.LASF56
 574 02ac 05       		.byte	0x5
 575 02ad 7D       		.byte	0x7d
 576 02ae 54030000 		.4byte	0x354
 577 02b2 7E01     		.2byte	0x17e
 578 02b4 08       		.uleb128 0x8
 579 02b5 97030000 		.4byte	.LASF57
 580 02b9 05       		.byte	0x5
 581 02ba 7E       		.byte	0x7e
 582 02bb EA030000 		.4byte	0x3ea
 583 02bf 8801     		.2byte	0x188
 584 02c1 08       		.uleb128 0x8
 585 02c2 29040000 		.4byte	.LASF58
 586 02c6 05       		.byte	0x5
 587 02c7 7F       		.byte	0x7f
 588 02c8 EA030000 		.4byte	0x3ea
ARM GAS  C:\Users\Lenovo\AppData\Local\Temp\cc3LptWd.s 			page 13


 589 02cc D301     		.2byte	0x1d3
 590 02ce 08       		.uleb128 0x8
 591 02cf 42030000 		.4byte	.LASF59
 592 02d3 05       		.byte	0x5
 593 02d4 80       		.byte	0x80
 594 02d5 00040000 		.4byte	0x400
 595 02d9 1E02     		.2byte	0x21e
 596 02db 08       		.uleb128 0x8
 597 02dc 76030000 		.4byte	.LASF60
 598 02e0 05       		.byte	0x5
 599 02e1 81       		.byte	0x81
 600 02e2 00040000 		.4byte	0x400
 601 02e6 2D02     		.2byte	0x22d
 602 02e8 08       		.uleb128 0x8
 603 02e9 2F060000 		.4byte	.LASF61
 604 02ed 05       		.byte	0x5
 605 02ee 82       		.byte	0x82
 606 02ef 16040000 		.4byte	0x416
 607 02f3 3C02     		.2byte	0x23c
 608 02f5 08       		.uleb128 0x8
 609 02f6 F5030000 		.4byte	.LASF62
 610 02fa 05       		.byte	0x5
 611 02fb 83       		.byte	0x83
 612 02fc 16040000 		.4byte	0x416
 613 0300 5A02     		.2byte	0x25a
 614 0302 08       		.uleb128 0x8
 615 0303 40060000 		.4byte	.LASF63
 616 0307 05       		.byte	0x5
 617 0308 84       		.byte	0x84
 618 0309 54030000 		.4byte	0x354
 619 030d 7802     		.2byte	0x278
 620 030f 08       		.uleb128 0x8
 621 0310 40050000 		.4byte	.LASF64
 622 0314 05       		.byte	0x5
 623 0315 85       		.byte	0x85
 624 0316 81000000 		.4byte	0x81
 625 031a 8202     		.2byte	0x282
 626 031c 08       		.uleb128 0x8
 627 031d 52050000 		.4byte	.LASF65
 628 0321 05       		.byte	0x5
 629 0322 86       		.byte	0x86
 630 0323 2C040000 		.4byte	0x42c
 631 0327 8302     		.2byte	0x283
 632 0329 08       		.uleb128 0x8
 633 032a DD000000 		.4byte	.LASF66
 634 032e 05       		.byte	0x5
 635 032f 87       		.byte	0x87
 636 0330 74030000 		.4byte	0x374
 637 0334 9202     		.2byte	0x292
 638 0336 08       		.uleb128 0x8
 639 0337 6B050000 		.4byte	.LASF67
 640 033b 05       		.byte	0x5
 641 033c 88       		.byte	0x88
 642 033d 81000000 		.4byte	0x81
 643 0341 9402     		.2byte	0x294
 644 0343 00       		.byte	0
 645 0344 09       		.uleb128 0x9
ARM GAS  C:\Users\Lenovo\AppData\Local\Temp\cc3LptWd.s 			page 14


 646 0345 81000000 		.4byte	0x81
 647 0349 54030000 		.4byte	0x354
 648 034d 0A       		.uleb128 0xa
 649 034e C1000000 		.4byte	0xc1
 650 0352 18       		.byte	0x18
 651 0353 00       		.byte	0
 652 0354 09       		.uleb128 0x9
 653 0355 81000000 		.4byte	0x81
 654 0359 64030000 		.4byte	0x364
 655 035d 0A       		.uleb128 0xa
 656 035e C1000000 		.4byte	0xc1
 657 0362 09       		.byte	0x9
 658 0363 00       		.byte	0
 659 0364 09       		.uleb128 0x9
 660 0365 81000000 		.4byte	0x81
 661 0369 74030000 		.4byte	0x374
 662 036d 0A       		.uleb128 0xa
 663 036e C1000000 		.4byte	0xc1
 664 0372 14       		.byte	0x14
 665 0373 00       		.byte	0
 666 0374 09       		.uleb128 0x9
 667 0375 81000000 		.4byte	0x81
 668 0379 84030000 		.4byte	0x384
 669 037d 0A       		.uleb128 0xa
 670 037e C1000000 		.4byte	0xc1
 671 0382 01       		.byte	0x1
 672 0383 00       		.byte	0
 673 0384 09       		.uleb128 0x9
 674 0385 81000000 		.4byte	0x81
 675 0389 9A030000 		.4byte	0x39a
 676 038d 0A       		.uleb128 0xa
 677 038e C1000000 		.4byte	0xc1
 678 0392 01       		.byte	0x1
 679 0393 0A       		.uleb128 0xa
 680 0394 C1000000 		.4byte	0xc1
 681 0398 09       		.byte	0x9
 682 0399 00       		.byte	0
 683 039a 09       		.uleb128 0x9
 684 039b 81000000 		.4byte	0x81
 685 039f AA030000 		.4byte	0x3aa
 686 03a3 0A       		.uleb128 0xa
 687 03a4 C1000000 		.4byte	0xc1
 688 03a8 04       		.byte	0x4
 689 03a9 00       		.byte	0
 690 03aa 09       		.uleb128 0x9
 691 03ab 81000000 		.4byte	0x81
 692 03af BA030000 		.4byte	0x3ba
 693 03b3 0A       		.uleb128 0xa
 694 03b4 C1000000 		.4byte	0xc1
 695 03b8 05       		.byte	0x5
 696 03b9 00       		.byte	0
 697 03ba 09       		.uleb128 0x9
 698 03bb 81000000 		.4byte	0x81
 699 03bf CA030000 		.4byte	0x3ca
 700 03c3 0A       		.uleb128 0xa
 701 03c4 C1000000 		.4byte	0xc1
 702 03c8 0D       		.byte	0xd
ARM GAS  C:\Users\Lenovo\AppData\Local\Temp\cc3LptWd.s 			page 15


 703 03c9 00       		.byte	0
 704 03ca 09       		.uleb128 0x9
 705 03cb 81000000 		.4byte	0x81
 706 03cf DA030000 		.4byte	0x3da
 707 03d3 0A       		.uleb128 0xa
 708 03d4 C1000000 		.4byte	0xc1
 709 03d8 0A       		.byte	0xa
 710 03d9 00       		.byte	0
 711 03da 09       		.uleb128 0x9
 712 03db 81000000 		.4byte	0x81
 713 03df EA030000 		.4byte	0x3ea
 714 03e3 0A       		.uleb128 0xa
 715 03e4 C1000000 		.4byte	0xc1
 716 03e8 40       		.byte	0x40
 717 03e9 00       		.byte	0
 718 03ea 09       		.uleb128 0x9
 719 03eb 81000000 		.4byte	0x81
 720 03ef 00040000 		.4byte	0x400
 721 03f3 0A       		.uleb128 0xa
 722 03f4 C1000000 		.4byte	0xc1
 723 03f8 02       		.byte	0x2
 724 03f9 0A       		.uleb128 0xa
 725 03fa C1000000 		.4byte	0xc1
 726 03fe 18       		.byte	0x18
 727 03ff 00       		.byte	0
 728 0400 09       		.uleb128 0x9
 729 0401 81000000 		.4byte	0x81
 730 0405 16040000 		.4byte	0x416
 731 0409 0A       		.uleb128 0xa
 732 040a C1000000 		.4byte	0xc1
 733 040e 02       		.byte	0x2
 734 040f 0A       		.uleb128 0xa
 735 0410 C1000000 		.4byte	0xc1
 736 0414 04       		.byte	0x4
 737 0415 00       		.byte	0
 738 0416 09       		.uleb128 0x9
 739 0417 81000000 		.4byte	0x81
 740 041b 2C040000 		.4byte	0x42c
 741 041f 0A       		.uleb128 0xa
 742 0420 C1000000 		.4byte	0xc1
 743 0424 02       		.byte	0x2
 744 0425 0A       		.uleb128 0xa
 745 0426 C1000000 		.4byte	0xc1
 746 042a 09       		.byte	0x9
 747 042b 00       		.byte	0
 748 042c 09       		.uleb128 0x9
 749 042d 81000000 		.4byte	0x81
 750 0431 3C040000 		.4byte	0x43c
 751 0435 0A       		.uleb128 0xa
 752 0436 C1000000 		.4byte	0xc1
 753 043a 0E       		.byte	0xe
 754 043b 00       		.byte	0
 755 043c 06       		.uleb128 0x6
 756 043d 85010000 		.4byte	.LASF69
 757 0441 0001     		.2byte	0x100
 758 0443 05       		.byte	0x5
 759 0444 96       		.byte	0x96
ARM GAS  C:\Users\Lenovo\AppData\Local\Temp\cc3LptWd.s 			page 16


 760 0445 9E040000 		.4byte	0x49e
 761 0449 0B       		.uleb128 0xb
 762 044a 64697200 		.ascii	"dir\000"
 763 044e 05       		.byte	0x5
 764 044f 97       		.byte	0x97
 765 0450 81000000 		.4byte	0x81
 766 0454 00       		.byte	0
 767 0455 07       		.uleb128 0x7
 768 0456 8E010000 		.4byte	.LASF70
 769 045a 05       		.byte	0x5
 770 045b 98       		.byte	0x98
 771 045c 9E040000 		.4byte	0x49e
 772 0460 01       		.byte	0x1
 773 0461 07       		.uleb128 0x7
 774 0462 DB020000 		.4byte	.LASF71
 775 0466 05       		.byte	0x5
 776 0467 99       		.byte	0x99
 777 0468 BA040000 		.4byte	0x4ba
 778 046c B5       		.byte	0xb5
 779 046d 07       		.uleb128 0x7
 780 046e 5A040000 		.4byte	.LASF72
 781 0472 05       		.byte	0x5
 782 0473 9A       		.byte	0x9a
 783 0474 BA030000 		.4byte	0x3ba
 784 0478 D5       		.byte	0xd5
 785 0479 07       		.uleb128 0x7
 786 047a 37040000 		.4byte	.LASF73
 787 047e 05       		.byte	0x5
 788 047f 9B       		.byte	0x9b
 789 0480 BA030000 		.4byte	0x3ba
 790 0484 E3       		.byte	0xe3
 791 0485 07       		.uleb128 0x7
 792 0486 E2030000 		.4byte	.LASF74
 793 048a 05       		.byte	0x5
 794 048b 9C       		.byte	0x9c
 795 048c BA030000 		.4byte	0x3ba
 796 0490 F1       		.byte	0xf1
 797 0491 07       		.uleb128 0x7
 798 0492 D6050000 		.4byte	.LASF75
 799 0496 05       		.byte	0x5
 800 0497 9D       		.byte	0x9d
 801 0498 81000000 		.4byte	0x81
 802 049c FF       		.byte	0xff
 803 049d 00       		.byte	0
 804 049e 09       		.uleb128 0x9
 805 049f 81000000 		.4byte	0x81
 806 04a3 BA040000 		.4byte	0x4ba
 807 04a7 0A       		.uleb128 0xa
 808 04a8 C1000000 		.4byte	0xc1
 809 04ac 03       		.byte	0x3
 810 04ad 0A       		.uleb128 0xa
 811 04ae C1000000 		.4byte	0xc1
 812 04b2 02       		.byte	0x2
 813 04b3 0A       		.uleb128 0xa
 814 04b4 C1000000 		.4byte	0xc1
 815 04b8 0E       		.byte	0xe
 816 04b9 00       		.byte	0
ARM GAS  C:\Users\Lenovo\AppData\Local\Temp\cc3LptWd.s 			page 17


 817 04ba 09       		.uleb128 0x9
 818 04bb 81000000 		.4byte	0x81
 819 04bf D0040000 		.4byte	0x4d0
 820 04c3 0A       		.uleb128 0xa
 821 04c4 C1000000 		.4byte	0xc1
 822 04c8 03       		.byte	0x3
 823 04c9 0A       		.uleb128 0xa
 824 04ca C1000000 		.4byte	0xc1
 825 04ce 07       		.byte	0x7
 826 04cf 00       		.byte	0
 827 04d0 06       		.uleb128 0x6
 828 04d1 C9040000 		.4byte	.LASF76
 829 04d5 0002     		.2byte	0x200
 830 04d7 05       		.byte	0x5
 831 04d8 A0       		.byte	0xa0
 832 04d9 F3040000 		.4byte	0x4f3
 833 04dd 0B       		.uleb128 0xb
 834 04de 6100     		.ascii	"a\000"
 835 04e0 05       		.byte	0x5
 836 04e1 A1       		.byte	0xa1
 837 04e2 3C040000 		.4byte	0x43c
 838 04e6 00       		.byte	0
 839 04e7 0C       		.uleb128 0xc
 840 04e8 6200     		.ascii	"b\000"
 841 04ea 05       		.byte	0x5
 842 04eb A2       		.byte	0xa2
 843 04ec 3C040000 		.4byte	0x43c
 844 04f0 0001     		.2byte	0x100
 845 04f2 00       		.byte	0
 846 04f3 0D       		.uleb128 0xd
 847 04f4 29000000 		.4byte	.LASF119
 848 04f8 01       		.byte	0x1
 849 04f9 38       		.byte	0x38
 850 04fa 81000000 		.4byte	0x81
 851 04fe 00000000 		.4byte	.LFB56
 852 0502 00010000 		.4byte	.LFE56-.LFB56
 853 0506 01       		.uleb128 0x1
 854 0507 9C       		.byte	0x9c
 855 0508 43050000 		.4byte	0x543
 856 050c 0E       		.uleb128 0xe
 857 050d FA050000 		.4byte	.LASF115
 858 0511 01       		.byte	0x1
 859 0512 38       		.byte	0x38
 860 0513 81000000 		.4byte	0x81
 861 0517 02       		.uleb128 0x2
 862 0518 91       		.byte	0x91
 863 0519 57       		.sleb128 -41
 864 051a 0F       		.uleb128 0xf
 865 051b DE040000 		.4byte	.LASF68
 866 051f 01       		.byte	0x1
 867 0520 39       		.byte	0x39
 868 0521 43050000 		.4byte	0x543
 869 0525 02       		.uleb128 0x2
 870 0526 91       		.byte	0x91
 871 0527 58       		.sleb128 -40
 872 0528 10       		.uleb128 0x10
 873 0529 7800     		.ascii	"x\000"
ARM GAS  C:\Users\Lenovo\AppData\Local\Temp\cc3LptWd.s 			page 18


 874 052b 01       		.byte	0x1
 875 052c 39       		.byte	0x39
 876 052d 81000000 		.4byte	0x81
 877 0531 02       		.uleb128 0x2
 878 0532 91       		.byte	0x91
 879 0533 6F       		.sleb128 -17
 880 0534 0F       		.uleb128 0xf
 881 0535 D0050000 		.4byte	.LASF77
 882 0539 01       		.byte	0x1
 883 053a 39       		.byte	0x39
 884 053b 81000000 		.4byte	0x81
 885 053f 02       		.uleb128 0x2
 886 0540 91       		.byte	0x91
 887 0541 6E       		.sleb128 -18
 888 0542 00       		.byte	0
 889 0543 09       		.uleb128 0x9
 890 0544 81000000 		.4byte	0x81
 891 0548 53050000 		.4byte	0x553
 892 054c 0A       		.uleb128 0xa
 893 054d C1000000 		.4byte	0xc1
 894 0551 13       		.byte	0x13
 895 0552 00       		.byte	0
 896 0553 11       		.uleb128 0x11
 897 0554 FF050000 		.4byte	.LASF78
 898 0558 06       		.byte	0x6
 899 0559 1606     		.2byte	0x616
 900 055b 5F050000 		.4byte	0x55f
 901 055f 05       		.uleb128 0x5
 902 0560 76000000 		.4byte	0x76
 903 0564 12       		.uleb128 0x12
 904 0565 B0050000 		.4byte	.LASF79
 905 0569 05       		.byte	0x5
 906 056a 2C       		.byte	0x2c
 907 056b 75050000 		.4byte	0x575
 908 056f 05       		.uleb128 0x5
 909 0570 03       		.byte	0x3
 910 0571 00000000 		.4byte	countAnimation1
 911 0575 05       		.uleb128 0x5
 912 0576 A5000000 		.4byte	0xa5
 913 057a 12       		.uleb128 0x12
 914 057b C0050000 		.4byte	.LASF80
 915 057f 05       		.byte	0x5
 916 0580 2D       		.byte	0x2d
 917 0581 75050000 		.4byte	0x575
 918 0585 05       		.uleb128 0x5
 919 0586 03       		.byte	0x3
 920 0587 00000000 		.4byte	countAnimation2
 921 058b 12       		.uleb128 0x12
 922 058c 02010000 		.4byte	.LASF81
 923 0590 05       		.byte	0x5
 924 0591 2E       		.byte	0x2e
 925 0592 75050000 		.4byte	0x575
 926 0596 05       		.uleb128 0x5
 927 0597 03       		.byte	0x3
 928 0598 00000000 		.4byte	countBeagleTX
 929 059c 12       		.uleb128 0x12
 930 059d C1000000 		.4byte	.LASF82
ARM GAS  C:\Users\Lenovo\AppData\Local\Temp\cc3LptWd.s 			page 19


 931 05a1 05       		.byte	0x5
 932 05a2 2F       		.byte	0x2f
 933 05a3 75050000 		.4byte	0x575
 934 05a7 05       		.uleb128 0x5
 935 05a8 03       		.byte	0x3
 936 05a9 00000000 		.4byte	countPump
 937 05ad 12       		.uleb128 0x12
 938 05ae 1B040000 		.4byte	.LASF83
 939 05b2 05       		.byte	0x5
 940 05b3 30       		.byte	0x30
 941 05b4 BC000000 		.4byte	0xbc
 942 05b8 05       		.uleb128 0x5
 943 05b9 03       		.byte	0x3
 944 05ba 00000000 		.4byte	flowLCD1
 945 05be 12       		.uleb128 0x12
 946 05bf B1040000 		.4byte	.LASF84
 947 05c3 05       		.byte	0x5
 948 05c4 31       		.byte	0x31
 949 05c5 BC000000 		.4byte	0xbc
 950 05c9 05       		.uleb128 0x5
 951 05ca 03       		.byte	0x3
 952 05cb 00000000 		.4byte	flowLCD2
 953 05cf 12       		.uleb128 0x12
 954 05d0 C8020000 		.4byte	.LASF85
 955 05d4 05       		.byte	0x5
 956 05d5 32       		.byte	0x32
 957 05d6 B7000000 		.4byte	0xb7
 958 05da 05       		.uleb128 0x5
 959 05db 03       		.byte	0x3
 960 05dc 00000000 		.4byte	digits
 961 05e0 09       		.uleb128 0x9
 962 05e1 81000000 		.4byte	0x81
 963 05e5 F0050000 		.4byte	0x5f0
 964 05e9 0A       		.uleb128 0xa
 965 05ea C1000000 		.4byte	0xc1
 966 05ee 0B       		.byte	0xb
 967 05ef 00       		.byte	0
 968 05f0 12       		.uleb128 0x12
 969 05f1 F9000000 		.4byte	.LASF86
 970 05f5 05       		.byte	0x5
 971 05f6 33       		.byte	0x33
 972 05f7 01060000 		.4byte	0x601
 973 05fb 05       		.uleb128 0x5
 974 05fc 03       		.byte	0x3
 975 05fd 00000000 		.4byte	ipAdress
 976 0601 05       		.uleb128 0x5
 977 0602 E0050000 		.4byte	0x5e0
 978 0606 12       		.uleb128 0x12
 979 0607 63030000 		.4byte	.LASF87
 980 060b 05       		.byte	0x5
 981 060c 34       		.byte	0x34
 982 060d B7000000 		.4byte	0xb7
 983 0611 05       		.uleb128 0x5
 984 0612 03       		.byte	0x3
 985 0613 00000000 		.4byte	numberKeys1
 986 0617 12       		.uleb128 0x12
 987 0618 AC000000 		.4byte	.LASF88
ARM GAS  C:\Users\Lenovo\AppData\Local\Temp\cc3LptWd.s 			page 20


 988 061c 05       		.byte	0x5
 989 061d 35       		.byte	0x35
 990 061e B7000000 		.4byte	0xb7
 991 0622 05       		.uleb128 0x5
 992 0623 03       		.byte	0x3
 993 0624 00000000 		.4byte	numberKeys2
 994 0628 12       		.uleb128 0x12
 995 0629 AE010000 		.4byte	.LASF89
 996 062d 05       		.byte	0x5
 997 062e 36       		.byte	0x36
 998 062f B7000000 		.4byte	0xb7
 999 0633 05       		.uleb128 0x5
 1000 0634 03       		.byte	0x3
 1001 0635 00000000 		.4byte	flagPoint1
 1002 0639 12       		.uleb128 0x12
 1003 063a B9010000 		.4byte	.LASF90
 1004 063e 05       		.byte	0x5
 1005 063f 37       		.byte	0x37
 1006 0640 B7000000 		.4byte	0xb7
 1007 0644 05       		.uleb128 0x5
 1008 0645 03       		.byte	0x3
 1009 0646 00000000 		.4byte	flagPoint2
 1010 064a 09       		.uleb128 0x9
 1011 064b 81000000 		.4byte	0x81
 1012 064f 60060000 		.4byte	0x660
 1013 0653 0A       		.uleb128 0xa
 1014 0654 C1000000 		.4byte	0xc1
 1015 0658 77       		.byte	0x77
 1016 0659 0A       		.uleb128 0xa
 1017 065a C1000000 		.4byte	0xc1
 1018 065e 07       		.byte	0x7
 1019 065f 00       		.byte	0
 1020 0660 12       		.uleb128 0x12
 1021 0661 78020000 		.4byte	.LASF91
 1022 0665 05       		.byte	0x5
 1023 0666 38       		.byte	0x38
 1024 0667 71060000 		.4byte	0x671
 1025 066b 05       		.uleb128 0x5
 1026 066c 03       		.byte	0x3
 1027 066d 00000000 		.4byte	button
 1028 0671 05       		.uleb128 0x5
 1029 0672 4A060000 		.4byte	0x64a
 1030 0676 12       		.uleb128 0x12
 1031 0677 A2050000 		.4byte	.LASF92
 1032 067b 05       		.byte	0x5
 1033 067c 39       		.byte	0x39
 1034 067d B7000000 		.4byte	0xb7
 1035 0681 05       		.uleb128 0x5
 1036 0682 03       		.byte	0x3
 1037 0683 00000000 		.4byte	productNumber
 1038 0687 12       		.uleb128 0x12
 1039 0688 37030000 		.4byte	.LASF93
 1040 068c 05       		.byte	0x5
 1041 068d 3A       		.byte	0x3a
 1042 068e 16040000 		.4byte	0x416
 1043 0692 05       		.uleb128 0x5
 1044 0693 03       		.byte	0x3
ARM GAS  C:\Users\Lenovo\AppData\Local\Temp\cc3LptWd.s 			page 21


 1045 0694 00000000 		.4byte	presetFast
 1046 0698 12       		.uleb128 0x12
 1047 0699 7F020000 		.4byte	.LASF94
 1048 069d 05       		.byte	0x5
 1049 069e 3B       		.byte	0x3b
 1050 069f BC000000 		.4byte	0xbc
 1051 06a3 05       		.uleb128 0x5
 1052 06a4 03       		.byte	0x3
 1053 06a5 00000000 		.4byte	delayPicture1
 1054 06a9 12       		.uleb128 0x12
 1055 06aa 8D020000 		.4byte	.LASF95
 1056 06ae 05       		.byte	0x5
 1057 06af 3C       		.byte	0x3c
 1058 06b0 BC000000 		.4byte	0xbc
 1059 06b4 05       		.uleb128 0x5
 1060 06b5 03       		.byte	0x3
 1061 06b6 00000000 		.4byte	delayPicture2
 1062 06ba 12       		.uleb128 0x12
 1063 06bb BB030000 		.4byte	.LASF96
 1064 06bf 05       		.byte	0x5
 1065 06c0 3D       		.byte	0x3d
 1066 06c1 B7000000 		.4byte	0xb7
 1067 06c5 05       		.uleb128 0x5
 1068 06c6 03       		.byte	0x3
 1069 06c7 00000000 		.4byte	ppux10
 1070 06cb 12       		.uleb128 0x12
 1071 06cc A1010000 		.4byte	.LASF97
 1072 06d0 05       		.byte	0x5
 1073 06d1 3E       		.byte	0x3e
 1074 06d2 B7000000 		.4byte	0xb7
 1075 06d6 05       		.uleb128 0x5
 1076 06d7 03       		.byte	0x3
 1077 06d8 00000000 		.4byte	decimalMoney
 1078 06dc 12       		.uleb128 0x12
 1079 06dd 89030000 		.4byte	.LASF98
 1080 06e1 05       		.byte	0x5
 1081 06e2 3F       		.byte	0x3f
 1082 06e3 B7000000 		.4byte	0xb7
 1083 06e7 05       		.uleb128 0x5
 1084 06e8 03       		.byte	0x3
 1085 06e9 00000000 		.4byte	decimalVolume
 1086 06ed 12       		.uleb128 0x12
 1087 06ee 7B040000 		.4byte	.LASF99
 1088 06f2 05       		.byte	0x5
 1089 06f3 40       		.byte	0x40
 1090 06f4 FE060000 		.4byte	0x6fe
 1091 06f8 05       		.uleb128 0x5
 1092 06f9 03       		.byte	0x3
 1093 06fa 00000000 		.4byte	symbols
 1094 06fe 05       		.uleb128 0x5
 1095 06ff 74030000 		.4byte	0x374
 1096 0703 09       		.uleb128 0x9
 1097 0704 81000000 		.4byte	0x81
 1098 0708 13070000 		.4byte	0x713
 1099 070c 0A       		.uleb128 0xa
 1100 070d C1000000 		.4byte	0xc1
 1101 0711 02       		.byte	0x2
ARM GAS  C:\Users\Lenovo\AppData\Local\Temp\cc3LptWd.s 			page 22


 1102 0712 00       		.byte	0
 1103 0713 12       		.uleb128 0x12
 1104 0714 24040000 		.4byte	.LASF100
 1105 0718 05       		.byte	0x5
 1106 0719 41       		.byte	0x41
 1107 071a 24070000 		.4byte	0x724
 1108 071e 05       		.uleb128 0x5
 1109 071f 03       		.byte	0x3
 1110 0720 00000000 		.4byte	time
 1111 0724 05       		.uleb128 0x5
 1112 0725 03070000 		.4byte	0x703
 1113 0729 12       		.uleb128 0x12
 1114 072a 31010000 		.4byte	.LASF101
 1115 072e 05       		.byte	0x5
 1116 072f 42       		.byte	0x42
 1117 0730 3A070000 		.4byte	0x73a
 1118 0734 05       		.uleb128 0x5
 1119 0735 03       		.byte	0x3
 1120 0736 00000000 		.4byte	date
 1121 073a 05       		.uleb128 0x5
 1122 073b 03070000 		.4byte	0x703
 1123 073f 12       		.uleb128 0x12
 1124 0740 6F030000 		.4byte	.LASF102
 1125 0744 05       		.byte	0x5
 1126 0745 43       		.byte	0x43
 1127 0746 50070000 		.4byte	0x750
 1128 074a 05       		.uleb128 0x5
 1129 074b 03       		.byte	0x3
 1130 074c 00000000 		.4byte	screen
 1131 0750 05       		.uleb128 0x5
 1132 0751 74030000 		.4byte	0x374
 1133 0755 12       		.uleb128 0x12
 1134 0756 38050000 		.4byte	.LASF103
 1135 075a 05       		.byte	0x5
 1136 075b 44       		.byte	0x44
 1137 075c 66070000 		.4byte	0x766
 1138 0760 05       		.uleb128 0x5
 1139 0761 03       		.byte	0x3
 1140 0762 00000000 		.4byte	residue
 1141 0766 05       		.uleb128 0x5
 1142 0767 BA030000 		.4byte	0x3ba
 1143 076b 09       		.uleb128 0x9
 1144 076c 81000000 		.4byte	0x81
 1145 0770 7B070000 		.4byte	0x77b
 1146 0774 0A       		.uleb128 0xa
 1147 0775 C1000000 		.4byte	0xc1
 1148 0779 1D       		.byte	0x1d
 1149 077a 00       		.byte	0
 1150 077b 12       		.uleb128 0x12
 1151 077c 19060000 		.4byte	.LASF104
 1152 0780 05       		.byte	0x5
 1153 0781 45       		.byte	0x45
 1154 0782 6B070000 		.4byte	0x76b
 1155 0786 05       		.uleb128 0x5
 1156 0787 03       		.byte	0x3
 1157 0788 00000000 		.4byte	temporal
 1158 078c 12       		.uleb128 0x12
ARM GAS  C:\Users\Lenovo\AppData\Local\Temp\cc3LptWd.s 			page 23


 1159 078d 10010000 		.4byte	.LASF105
 1160 0791 05       		.byte	0x5
 1161 0792 46       		.byte	0x46
 1162 0793 6B070000 		.4byte	0x76b
 1163 0797 05       		.uleb128 0x5
 1164 0798 03       		.byte	0x3
 1165 0799 00000000 		.4byte	temporalCom
 1166 079d 12       		.uleb128 0x12
 1167 079e 05040000 		.4byte	.LASF106
 1168 07a2 05       		.byte	0x5
 1169 07a3 47       		.byte	0x47
 1170 07a4 B7000000 		.4byte	0xb7
 1171 07a8 05       		.uleb128 0x5
 1172 07a9 03       		.byte	0x3
 1173 07aa 00000000 		.4byte	turn
 1174 07ae 12       		.uleb128 0x12
 1175 07af 07030000 		.4byte	.LASF107
 1176 07b3 05       		.byte	0x5
 1177 07b4 48       		.byte	0x48
 1178 07b5 B7000000 		.4byte	0xb7
 1179 07b9 05       		.uleb128 0x5
 1180 07ba 03       		.byte	0x3
 1181 07bb 00000000 		.4byte	lockTurn
 1182 07bf 12       		.uleb128 0x12
 1183 07c0 70010000 		.4byte	.LASF108
 1184 07c4 05       		.byte	0x5
 1185 07c5 49       		.byte	0x49
 1186 07c6 D0070000 		.4byte	0x7d0
 1187 07ca 05       		.uleb128 0x5
 1188 07cb 03       		.byte	0x3
 1189 07cc 00000000 		.4byte	idSeller
 1190 07d0 05       		.uleb128 0x5
 1191 07d1 44030000 		.4byte	0x344
 1192 07d5 12       		.uleb128 0x12
 1193 07d6 0C060000 		.4byte	.LASF109
 1194 07da 05       		.byte	0x5
 1195 07db 4A       		.byte	0x4a
 1196 07dc B7000000 		.4byte	0xb7
 1197 07e0 05       		.uleb128 0x5
 1198 07e1 03       		.byte	0x3
 1199 07e2 00000000 		.4byte	typeIdSeller
 1200 07e6 09       		.uleb128 0x9
 1201 07e7 81000000 		.4byte	0x81
 1202 07eb F6070000 		.4byte	0x7f6
 1203 07ef 0A       		.uleb128 0xa
 1204 07f0 C1000000 		.4byte	0xc1
 1205 07f4 07       		.byte	0x7
 1206 07f5 00       		.byte	0
 1207 07f6 12       		.uleb128 0x12
 1208 07f7 10030000 		.4byte	.LASF110
 1209 07fb 05       		.byte	0x5
 1210 07fc 4B       		.byte	0x4b
 1211 07fd 07080000 		.4byte	0x807
 1212 0801 05       		.uleb128 0x5
 1213 0802 03       		.byte	0x3
 1214 0803 00000000 		.4byte	passwordSeller
 1215 0807 05       		.uleb128 0x5
ARM GAS  C:\Users\Lenovo\AppData\Local\Temp\cc3LptWd.s 			page 24


 1216 0808 E6070000 		.4byte	0x7e6
 1217 080c 12       		.uleb128 0x12
 1218 080d 22060000 		.4byte	.LASF111
 1219 0811 05       		.byte	0x5
 1220 0812 4C       		.byte	0x4c
 1221 0813 B7000000 		.4byte	0xb7
 1222 0817 05       		.uleb128 0x5
 1223 0818 03       		.byte	0x3
 1224 0819 00000000 		.4byte	flagResetMux
 1225 081d 12       		.uleb128 0x12
 1226 081e CE040000 		.4byte	.LASF112
 1227 0822 05       		.byte	0x5
 1228 0823 4D       		.byte	0x4d
 1229 0824 B7000000 		.4byte	0xb7
 1230 0828 05       		.uleb128 0x5
 1231 0829 03       		.byte	0x3
 1232 082a 00000000 		.4byte	stateBeagleSoft
 1233 082e 12       		.uleb128 0x12
 1234 082f 22050000 		.4byte	.LASF113
 1235 0833 05       		.byte	0x5
 1236 0834 8B       		.byte	0x8b
 1237 0835 C8000000 		.4byte	0xc8
 1238 0839 05       		.uleb128 0x5
 1239 083a 03       		.byte	0x3
 1240 083b 00000000 		.4byte	bufferLCD1
 1241 083f 12       		.uleb128 0x12
 1242 0840 2D050000 		.4byte	.LASF114
 1243 0844 05       		.byte	0x5
 1244 0845 8C       		.byte	0x8c
 1245 0846 C8000000 		.4byte	0xc8
 1246 084a 05       		.uleb128 0x5
 1247 084b 03       		.byte	0x3
 1248 084c 00000000 		.4byte	bufferLCD2
 1249 0850 12       		.uleb128 0x12
 1250 0851 FA050000 		.4byte	.LASF115
 1251 0855 05       		.byte	0x5
 1252 0856 A5       		.byte	0xa5
 1253 0857 D0040000 		.4byte	0x4d0
 1254 085b 05       		.uleb128 0x5
 1255 085c 03       		.byte	0x3
 1256 085d 00000000 		.4byte	side
 1257 0861 00       		.byte	0
 1258              		.section	.debug_abbrev,"",%progbits
 1259              	.Ldebug_abbrev0:
 1260 0000 01       		.uleb128 0x1
 1261 0001 11       		.uleb128 0x11
 1262 0002 01       		.byte	0x1
 1263 0003 25       		.uleb128 0x25
 1264 0004 0E       		.uleb128 0xe
 1265 0005 13       		.uleb128 0x13
 1266 0006 0B       		.uleb128 0xb
 1267 0007 03       		.uleb128 0x3
 1268 0008 0E       		.uleb128 0xe
 1269 0009 1B       		.uleb128 0x1b
 1270 000a 0E       		.uleb128 0xe
 1271 000b 55       		.uleb128 0x55
 1272 000c 17       		.uleb128 0x17
ARM GAS  C:\Users\Lenovo\AppData\Local\Temp\cc3LptWd.s 			page 25


 1273 000d 11       		.uleb128 0x11
 1274 000e 01       		.uleb128 0x1
 1275 000f 10       		.uleb128 0x10
 1276 0010 17       		.uleb128 0x17
 1277 0011 00       		.byte	0
 1278 0012 00       		.byte	0
 1279 0013 02       		.uleb128 0x2
 1280 0014 24       		.uleb128 0x24
 1281 0015 00       		.byte	0
 1282 0016 0B       		.uleb128 0xb
 1283 0017 0B       		.uleb128 0xb
 1284 0018 3E       		.uleb128 0x3e
 1285 0019 0B       		.uleb128 0xb
 1286 001a 03       		.uleb128 0x3
 1287 001b 0E       		.uleb128 0xe
 1288 001c 00       		.byte	0
 1289 001d 00       		.byte	0
 1290 001e 03       		.uleb128 0x3
 1291 001f 16       		.uleb128 0x16
 1292 0020 00       		.byte	0
 1293 0021 03       		.uleb128 0x3
 1294 0022 0E       		.uleb128 0xe
 1295 0023 3A       		.uleb128 0x3a
 1296 0024 0B       		.uleb128 0xb
 1297 0025 3B       		.uleb128 0x3b
 1298 0026 0B       		.uleb128 0xb
 1299 0027 49       		.uleb128 0x49
 1300 0028 13       		.uleb128 0x13
 1301 0029 00       		.byte	0
 1302 002a 00       		.byte	0
 1303 002b 04       		.uleb128 0x4
 1304 002c 24       		.uleb128 0x24
 1305 002d 00       		.byte	0
 1306 002e 0B       		.uleb128 0xb
 1307 002f 0B       		.uleb128 0xb
 1308 0030 3E       		.uleb128 0x3e
 1309 0031 0B       		.uleb128 0xb
 1310 0032 03       		.uleb128 0x3
 1311 0033 08       		.uleb128 0x8
 1312 0034 00       		.byte	0
 1313 0035 00       		.byte	0
 1314 0036 05       		.uleb128 0x5
 1315 0037 35       		.uleb128 0x35
 1316 0038 00       		.byte	0
 1317 0039 49       		.uleb128 0x49
 1318 003a 13       		.uleb128 0x13
 1319 003b 00       		.byte	0
 1320 003c 00       		.byte	0
 1321 003d 06       		.uleb128 0x6
 1322 003e 13       		.uleb128 0x13
 1323 003f 01       		.byte	0x1
 1324 0040 03       		.uleb128 0x3
 1325 0041 0E       		.uleb128 0xe
 1326 0042 0B       		.uleb128 0xb
 1327 0043 05       		.uleb128 0x5
 1328 0044 3A       		.uleb128 0x3a
 1329 0045 0B       		.uleb128 0xb
ARM GAS  C:\Users\Lenovo\AppData\Local\Temp\cc3LptWd.s 			page 26


 1330 0046 3B       		.uleb128 0x3b
 1331 0047 0B       		.uleb128 0xb
 1332 0048 01       		.uleb128 0x1
 1333 0049 13       		.uleb128 0x13
 1334 004a 00       		.byte	0
 1335 004b 00       		.byte	0
 1336 004c 07       		.uleb128 0x7
 1337 004d 0D       		.uleb128 0xd
 1338 004e 00       		.byte	0
 1339 004f 03       		.uleb128 0x3
 1340 0050 0E       		.uleb128 0xe
 1341 0051 3A       		.uleb128 0x3a
 1342 0052 0B       		.uleb128 0xb
 1343 0053 3B       		.uleb128 0x3b
 1344 0054 0B       		.uleb128 0xb
 1345 0055 49       		.uleb128 0x49
 1346 0056 13       		.uleb128 0x13
 1347 0057 38       		.uleb128 0x38
 1348 0058 0B       		.uleb128 0xb
 1349 0059 00       		.byte	0
 1350 005a 00       		.byte	0
 1351 005b 08       		.uleb128 0x8
 1352 005c 0D       		.uleb128 0xd
 1353 005d 00       		.byte	0
 1354 005e 03       		.uleb128 0x3
 1355 005f 0E       		.uleb128 0xe
 1356 0060 3A       		.uleb128 0x3a
 1357 0061 0B       		.uleb128 0xb
 1358 0062 3B       		.uleb128 0x3b
 1359 0063 0B       		.uleb128 0xb
 1360 0064 49       		.uleb128 0x49
 1361 0065 13       		.uleb128 0x13
 1362 0066 38       		.uleb128 0x38
 1363 0067 05       		.uleb128 0x5
 1364 0068 00       		.byte	0
 1365 0069 00       		.byte	0
 1366 006a 09       		.uleb128 0x9
 1367 006b 01       		.uleb128 0x1
 1368 006c 01       		.byte	0x1
 1369 006d 49       		.uleb128 0x49
 1370 006e 13       		.uleb128 0x13
 1371 006f 01       		.uleb128 0x1
 1372 0070 13       		.uleb128 0x13
 1373 0071 00       		.byte	0
 1374 0072 00       		.byte	0
 1375 0073 0A       		.uleb128 0xa
 1376 0074 21       		.uleb128 0x21
 1377 0075 00       		.byte	0
 1378 0076 49       		.uleb128 0x49
 1379 0077 13       		.uleb128 0x13
 1380 0078 2F       		.uleb128 0x2f
 1381 0079 0B       		.uleb128 0xb
 1382 007a 00       		.byte	0
 1383 007b 00       		.byte	0
 1384 007c 0B       		.uleb128 0xb
 1385 007d 0D       		.uleb128 0xd
 1386 007e 00       		.byte	0
ARM GAS  C:\Users\Lenovo\AppData\Local\Temp\cc3LptWd.s 			page 27


 1387 007f 03       		.uleb128 0x3
 1388 0080 08       		.uleb128 0x8
 1389 0081 3A       		.uleb128 0x3a
 1390 0082 0B       		.uleb128 0xb
 1391 0083 3B       		.uleb128 0x3b
 1392 0084 0B       		.uleb128 0xb
 1393 0085 49       		.uleb128 0x49
 1394 0086 13       		.uleb128 0x13
 1395 0087 38       		.uleb128 0x38
 1396 0088 0B       		.uleb128 0xb
 1397 0089 00       		.byte	0
 1398 008a 00       		.byte	0
 1399 008b 0C       		.uleb128 0xc
 1400 008c 0D       		.uleb128 0xd
 1401 008d 00       		.byte	0
 1402 008e 03       		.uleb128 0x3
 1403 008f 08       		.uleb128 0x8
 1404 0090 3A       		.uleb128 0x3a
 1405 0091 0B       		.uleb128 0xb
 1406 0092 3B       		.uleb128 0x3b
 1407 0093 0B       		.uleb128 0xb
 1408 0094 49       		.uleb128 0x49
 1409 0095 13       		.uleb128 0x13
 1410 0096 38       		.uleb128 0x38
 1411 0097 05       		.uleb128 0x5
 1412 0098 00       		.byte	0
 1413 0099 00       		.byte	0
 1414 009a 0D       		.uleb128 0xd
 1415 009b 2E       		.uleb128 0x2e
 1416 009c 01       		.byte	0x1
 1417 009d 3F       		.uleb128 0x3f
 1418 009e 19       		.uleb128 0x19
 1419 009f 03       		.uleb128 0x3
 1420 00a0 0E       		.uleb128 0xe
 1421 00a1 3A       		.uleb128 0x3a
 1422 00a2 0B       		.uleb128 0xb
 1423 00a3 3B       		.uleb128 0x3b
 1424 00a4 0B       		.uleb128 0xb
 1425 00a5 27       		.uleb128 0x27
 1426 00a6 19       		.uleb128 0x19
 1427 00a7 49       		.uleb128 0x49
 1428 00a8 13       		.uleb128 0x13
 1429 00a9 11       		.uleb128 0x11
 1430 00aa 01       		.uleb128 0x1
 1431 00ab 12       		.uleb128 0x12
 1432 00ac 06       		.uleb128 0x6
 1433 00ad 40       		.uleb128 0x40
 1434 00ae 18       		.uleb128 0x18
 1435 00af 9642     		.uleb128 0x2116
 1436 00b1 19       		.uleb128 0x19
 1437 00b2 01       		.uleb128 0x1
 1438 00b3 13       		.uleb128 0x13
 1439 00b4 00       		.byte	0
 1440 00b5 00       		.byte	0
 1441 00b6 0E       		.uleb128 0xe
 1442 00b7 05       		.uleb128 0x5
 1443 00b8 00       		.byte	0
ARM GAS  C:\Users\Lenovo\AppData\Local\Temp\cc3LptWd.s 			page 28


 1444 00b9 03       		.uleb128 0x3
 1445 00ba 0E       		.uleb128 0xe
 1446 00bb 3A       		.uleb128 0x3a
 1447 00bc 0B       		.uleb128 0xb
 1448 00bd 3B       		.uleb128 0x3b
 1449 00be 0B       		.uleb128 0xb
 1450 00bf 49       		.uleb128 0x49
 1451 00c0 13       		.uleb128 0x13
 1452 00c1 02       		.uleb128 0x2
 1453 00c2 18       		.uleb128 0x18
 1454 00c3 00       		.byte	0
 1455 00c4 00       		.byte	0
 1456 00c5 0F       		.uleb128 0xf
 1457 00c6 34       		.uleb128 0x34
 1458 00c7 00       		.byte	0
 1459 00c8 03       		.uleb128 0x3
 1460 00c9 0E       		.uleb128 0xe
 1461 00ca 3A       		.uleb128 0x3a
 1462 00cb 0B       		.uleb128 0xb
 1463 00cc 3B       		.uleb128 0x3b
 1464 00cd 0B       		.uleb128 0xb
 1465 00ce 49       		.uleb128 0x49
 1466 00cf 13       		.uleb128 0x13
 1467 00d0 02       		.uleb128 0x2
 1468 00d1 18       		.uleb128 0x18
 1469 00d2 00       		.byte	0
 1470 00d3 00       		.byte	0
 1471 00d4 10       		.uleb128 0x10
 1472 00d5 34       		.uleb128 0x34
 1473 00d6 00       		.byte	0
 1474 00d7 03       		.uleb128 0x3
 1475 00d8 08       		.uleb128 0x8
 1476 00d9 3A       		.uleb128 0x3a
 1477 00da 0B       		.uleb128 0xb
 1478 00db 3B       		.uleb128 0x3b
 1479 00dc 0B       		.uleb128 0xb
 1480 00dd 49       		.uleb128 0x49
 1481 00de 13       		.uleb128 0x13
 1482 00df 02       		.uleb128 0x2
 1483 00e0 18       		.uleb128 0x18
 1484 00e1 00       		.byte	0
 1485 00e2 00       		.byte	0
 1486 00e3 11       		.uleb128 0x11
 1487 00e4 34       		.uleb128 0x34
 1488 00e5 00       		.byte	0
 1489 00e6 03       		.uleb128 0x3
 1490 00e7 0E       		.uleb128 0xe
 1491 00e8 3A       		.uleb128 0x3a
 1492 00e9 0B       		.uleb128 0xb
 1493 00ea 3B       		.uleb128 0x3b
 1494 00eb 05       		.uleb128 0x5
 1495 00ec 49       		.uleb128 0x49
 1496 00ed 13       		.uleb128 0x13
 1497 00ee 3F       		.uleb128 0x3f
 1498 00ef 19       		.uleb128 0x19
 1499 00f0 3C       		.uleb128 0x3c
 1500 00f1 19       		.uleb128 0x19
ARM GAS  C:\Users\Lenovo\AppData\Local\Temp\cc3LptWd.s 			page 29


 1501 00f2 00       		.byte	0
 1502 00f3 00       		.byte	0
 1503 00f4 12       		.uleb128 0x12
 1504 00f5 34       		.uleb128 0x34
 1505 00f6 00       		.byte	0
 1506 00f7 03       		.uleb128 0x3
 1507 00f8 0E       		.uleb128 0xe
 1508 00f9 3A       		.uleb128 0x3a
 1509 00fa 0B       		.uleb128 0xb
 1510 00fb 3B       		.uleb128 0x3b
 1511 00fc 0B       		.uleb128 0xb
 1512 00fd 49       		.uleb128 0x49
 1513 00fe 13       		.uleb128 0x13
 1514 00ff 3F       		.uleb128 0x3f
 1515 0100 19       		.uleb128 0x19
 1516 0101 02       		.uleb128 0x2
 1517 0102 18       		.uleb128 0x18
 1518 0103 00       		.byte	0
 1519 0104 00       		.byte	0
 1520 0105 00       		.byte	0
 1521              		.section	.debug_aranges,"",%progbits
 1522 0000 1C000000 		.4byte	0x1c
 1523 0004 0200     		.2byte	0x2
 1524 0006 00000000 		.4byte	.Ldebug_info0
 1525 000a 04       		.byte	0x4
 1526 000b 00       		.byte	0
 1527 000c 0000     		.2byte	0
 1528 000e 0000     		.2byte	0
 1529 0010 00000000 		.4byte	.LFB56
 1530 0014 00010000 		.4byte	.LFE56-.LFB56
 1531 0018 00000000 		.4byte	0
 1532 001c 00000000 		.4byte	0
 1533              		.section	.debug_ranges,"",%progbits
 1534              	.Ldebug_ranges0:
 1535 0000 00000000 		.4byte	.LFB56
 1536 0004 00010000 		.4byte	.LFE56
 1537 0008 00000000 		.4byte	0
 1538 000c 00000000 		.4byte	0
 1539              		.section	.debug_line,"",%progbits
 1540              	.Ldebug_line0:
 1541 0000 BE010000 		.section	.debug_str,"MS",%progbits,1
 1541      02005D01 
 1541      00000201 
 1541      FB0E0D00 
 1541      01010101 
 1542              	.LASF54:
 1543 0000 6D6F6E65 		.ascii	"moneyQuota\000"
 1543      7951756F 
 1543      746100
 1544              	.LASF34:
 1545 000b 70726F64 		.ascii	"productType\000"
 1545      75637454 
 1545      79706500 
 1546              	.LASF5:
 1547 0017 6C6F6E67 		.ascii	"long unsigned int\000"
 1547      20756E73 
 1547      69676E65 
ARM GAS  C:\Users\Lenovo\AppData\Local\Temp\cc3LptWd.s 			page 30


 1547      6420696E 
 1547      7400
 1548              	.LASF119:
 1549 0029 73657269 		.ascii	"serial_codetag\000"
 1549      616C5F63 
 1549      6F646574 
 1549      616700
 1550              	.LASF36:
 1551 0038 64617465 		.ascii	"dateLiftHandle\000"
 1551      4C696674 
 1551      48616E64 
 1551      6C6500
 1552              	.LASF19:
 1553 0047 69645365 		.ascii	"idSerial\000"
 1553      7269616C 
 1553      00
 1554              	.LASF2:
 1555 0050 73686F72 		.ascii	"short int\000"
 1555      7420696E 
 1555      7400
 1556              	.LASF118:
 1557 005a 433A5C55 		.ascii	"C:\\Users\\Lenovo\\Desktop\\Hardware\\Software Mux\\"
 1557      73657273 
 1557      5C4C656E 
 1557      6F766F5C 
 1557      4465736B 
 1558 0088 4D757820 		.ascii	"Mux Advance Encore\\MuxAdvance.cydsn\000"
 1558      41647661 
 1558      6E636520 
 1558      456E636F 
 1558      72655C4D 
 1559              	.LASF88:
 1560 00ac 6E756D62 		.ascii	"numberKeys2\000"
 1560      65724B65 
 1560      79733200 
 1561              	.LASF17:
 1562 00b8 73697A65 		.ascii	"sizetype\000"
 1562      74797065 
 1562      00
 1563              	.LASF82:
 1564 00c1 636F756E 		.ascii	"countPump\000"
 1564      7450756D 
 1564      7000
 1565              	.LASF35:
 1566 00cb 73746174 		.ascii	"stateMux\000"
 1566      654D7578 
 1566      00
 1567              	.LASF30:
 1568 00d4 73616C65 		.ascii	"saleType\000"
 1568      54797065 
 1568      00
 1569              	.LASF66:
 1570 00dd 7072696E 		.ascii	"printers\000"
 1570      74657273 
 1570      00
 1571              	.LASF25:
 1572 00e6 73657269 		.ascii	"serialSelectedSale\000"
ARM GAS  C:\Users\Lenovo\AppData\Local\Temp\cc3LptWd.s 			page 31


 1572      616C5365 
 1572      6C656374 
 1572      65645361 
 1572      6C6500
 1573              	.LASF86:
 1574 00f9 69704164 		.ascii	"ipAdress\000"
 1574      72657373 
 1574      00
 1575              	.LASF81:
 1576 0102 636F756E 		.ascii	"countBeagleTX\000"
 1576      74426561 
 1576      676C6554 
 1576      5800
 1577              	.LASF105:
 1578 0110 74656D70 		.ascii	"temporalCom\000"
 1578      6F72616C 
 1578      436F6D00 
 1579              	.LASF56:
 1580 011c 70707551 		.ascii	"ppuQuota\000"
 1580      756F7461 
 1580      00
 1581              	.LASF46:
 1582 0125 6C696365 		.ascii	"licenceSale\000"
 1582      6E636553 
 1582      616C6500 
 1583              	.LASF101:
 1584 0131 64617465 		.ascii	"date\000"
 1584      00
 1585              	.LASF33:
 1586 0136 70726573 		.ascii	"presetValue\000"
 1586      65745661 
 1586      6C756500 
 1587              	.LASF21:
 1588 0142 77617954 		.ascii	"wayToPay\000"
 1588      6F506179 
 1588      00
 1589              	.LASF31:
 1590 014b 73616C65 		.ascii	"salePerform\000"
 1590      50657266 
 1590      6F726D00 
 1591              	.LASF47:
 1592 0157 6D696C65 		.ascii	"mileageSale\000"
 1592      61676553 
 1592      616C6500 
 1593              	.LASF18:
 1594 0163 69645479 		.ascii	"idType\000"
 1594      706500
 1595              	.LASF11:
 1596 016a 75696E74 		.ascii	"uint8\000"
 1596      3800
 1597              	.LASF108:
 1598 0170 69645365 		.ascii	"idSeller\000"
 1598      6C6C6572 
 1598      00
 1599              	.LASF0:
 1600 0179 7369676E 		.ascii	"signed char\000"
 1600      65642063 
ARM GAS  C:\Users\Lenovo\AppData\Local\Temp\cc3LptWd.s 			page 32


 1600      68617200 
 1601              	.LASF69:
 1602 0185 706F7369 		.ascii	"position\000"
 1602      74696F6E 
 1602      00
 1603              	.LASF70:
 1604 018e 746F7461 		.ascii	"totalsHandle\000"
 1604      6C734861 
 1604      6E646C65 
 1604      00
 1605              	.LASF13:
 1606 019b 666C6F61 		.ascii	"float\000"
 1606      7400
 1607              	.LASF97:
 1608 01a1 64656369 		.ascii	"decimalMoney\000"
 1608      6D616C4D 
 1608      6F6E6579 
 1608      00
 1609              	.LASF89:
 1610 01ae 666C6167 		.ascii	"flagPoint1\000"
 1610      506F696E 
 1610      743100
 1611              	.LASF90:
 1612 01b9 666C6167 		.ascii	"flagPoint2\000"
 1612      506F696E 
 1612      743200
 1613              	.LASF6:
 1614 01c4 6C6F6E67 		.ascii	"long long int\000"
 1614      206C6F6E 
 1614      6720696E 
 1614      7400
 1615              	.LASF26:
 1616 01d2 6B657962 		.ascii	"keyboardWayToPay\000"
 1616      6F617264 
 1616      57617954 
 1616      6F506179 
 1616      00
 1617              	.LASF116:
 1618 01e3 474E5520 		.ascii	"GNU C 4.9.3 20150303 (release) [ARM/embedded-4_9-br"
 1618      4320342E 
 1618      392E3320 
 1618      32303135 
 1618      30333033 
 1619 0216 616E6368 		.ascii	"anch revision 221220] -mcpu=cortex-m3 -mthumb -g -O"
 1619      20726576 
 1619      6973696F 
 1619      6E203232 
 1619      31323230 
 1620 0249 30202D66 		.ascii	"0 -ffunction-sections -ffat-lto-objects\000"
 1620      66756E63 
 1620      74696F6E 
 1620      2D736563 
 1620      74696F6E 
 1621              	.LASF15:
 1622 0271 75696E74 		.ascii	"uint64\000"
 1622      363400
 1623              	.LASF91:
ARM GAS  C:\Users\Lenovo\AppData\Local\Temp\cc3LptWd.s 			page 33


 1624 0278 62757474 		.ascii	"button\000"
 1624      6F6E00
 1625              	.LASF94:
 1626 027f 64656C61 		.ascii	"delayPicture1\000"
 1626      79506963 
 1626      74757265 
 1626      3100
 1627              	.LASF95:
 1628 028d 64656C61 		.ascii	"delayPicture2\000"
 1628      79506963 
 1628      74757265 
 1628      3200
 1629              	.LASF51:
 1630 029b 666C6167 		.ascii	"flagLiftHandle\000"
 1630      4C696674 
 1630      48616E64 
 1630      6C6500
 1631              	.LASF41:
 1632 02aa 746F7461 		.ascii	"totalVolumePrevious\000"
 1632      6C566F6C 
 1632      756D6550 
 1632      72657669 
 1632      6F757300 
 1633              	.LASF28:
 1634 02be 76616C75 		.ascii	"valueKeys\000"
 1634      654B6579 
 1634      7300
 1635              	.LASF85:
 1636 02c8 64696769 		.ascii	"digits\000"
 1636      747300
 1637              	.LASF52:
 1638 02cf 666C6167 		.ascii	"flagEndSale\000"
 1638      456E6453 
 1638      616C6500 
 1639              	.LASF71:
 1640 02db 70707541 		.ascii	"ppuAuthorized\000"
 1640      7574686F 
 1640      72697A65 
 1640      6400
 1641              	.LASF43:
 1642 02e9 746F7461 		.ascii	"totalMoneyAfter\000"
 1642      6C4D6F6E 
 1642      65794166 
 1642      74657200 
 1643              	.LASF1:
 1644 02f9 756E7369 		.ascii	"unsigned char\000"
 1644      676E6564 
 1644      20636861 
 1644      7200
 1645              	.LASF107:
 1646 0307 6C6F636B 		.ascii	"lockTurn\000"
 1646      5475726E 
 1646      00
 1647              	.LASF110:
 1648 0310 70617373 		.ascii	"passwordSeller\000"
 1648      776F7264 
 1648      53656C6C 
ARM GAS  C:\Users\Lenovo\AppData\Local\Temp\cc3LptWd.s 			page 34


 1648      657200
 1649              	.LASF32:
 1650 031f 70726573 		.ascii	"presetType\000"
 1650      65745479 
 1650      706500
 1651              	.LASF49:
 1652 032a 666C6167 		.ascii	"flagKeyboard\000"
 1652      4B657962 
 1652      6F617264 
 1652      00
 1653              	.LASF93:
 1654 0337 70726573 		.ascii	"presetFast\000"
 1654      65744661 
 1654      737400
 1655              	.LASF59:
 1656 0342 7175616E 		.ascii	"quantityMarket\000"
 1656      74697479 
 1656      4D61726B 
 1656      657400
 1657              	.LASF24:
 1658 0351 6D6F6E65 		.ascii	"moneySelectedSale\000"
 1658      7953656C 
 1658      65637465 
 1658      6453616C 
 1658      6500
 1659              	.LASF87:
 1660 0363 6E756D62 		.ascii	"numberKeys1\000"
 1660      65724B65 
 1660      79733100 
 1661              	.LASF102:
 1662 036f 73637265 		.ascii	"screen\000"
 1662      656E00
 1663              	.LASF60:
 1664 0376 7175616E 		.ascii	"quantAvailableMark\000"
 1664      74417661 
 1664      696C6162 
 1664      6C654D61 
 1664      726B00
 1665              	.LASF98:
 1666 0389 64656369 		.ascii	"decimalVolume\000"
 1666      6D616C56 
 1666      6F6C756D 
 1666      6500
 1667              	.LASF57:
 1668 0397 73657269 		.ascii	"serialMarket\000"
 1668      616C4D61 
 1668      726B6574 
 1668      00
 1669              	.LASF7:
 1670 03a4 6C6F6E67 		.ascii	"long long unsigned int\000"
 1670      206C6F6E 
 1670      6720756E 
 1670      7369676E 
 1670      65642069 
 1671              	.LASF96:
 1672 03bb 70707578 		.ascii	"ppux10\000"
 1672      313000
ARM GAS  C:\Users\Lenovo\AppData\Local\Temp\cc3LptWd.s 			page 35


 1673              	.LASF40:
 1674 03c2 746F7461 		.ascii	"totalMoneyPrevious\000"
 1674      6C4D6F6E 
 1674      65795072 
 1674      6576696F 
 1674      757300
 1675              	.LASF8:
 1676 03d5 756E7369 		.ascii	"unsigned int\000"
 1676      676E6564 
 1676      20696E74 
 1676      00
 1677              	.LASF74:
 1678 03e2 70707553 		.ascii	"ppuSale\000"
 1678      616C6500 
 1679              	.LASF48:
 1680 03ea 6964656E 		.ascii	"identySale\000"
 1680      74795361 
 1680      6C6500
 1681              	.LASF62:
 1682 03f5 70726963 		.ascii	"priceUnitMarket\000"
 1682      65556E69 
 1682      744D6172 
 1682      6B657400 
 1683              	.LASF106:
 1684 0405 7475726E 		.ascii	"turn\000"
 1684      00
 1685              	.LASF44:
 1686 040a 746F7461 		.ascii	"totalVolumeAfter\000"
 1686      6C566F6C 
 1686      756D6541 
 1686      66746572 
 1686      00
 1687              	.LASF83:
 1688 041b 666C6F77 		.ascii	"flowLCD1\000"
 1688      4C434431 
 1688      00
 1689              	.LASF100:
 1690 0424 74696D65 		.ascii	"time\000"
 1690      00
 1691              	.LASF58:
 1692 0429 70726F64 		.ascii	"productMarket\000"
 1692      7563744D 
 1692      61726B65 
 1692      7400
 1693              	.LASF73:
 1694 0437 766F6C75 		.ascii	"volumeSale\000"
 1694      6D655361 
 1694      6C6500
 1695              	.LASF55:
 1696 0442 766F6C75 		.ascii	"volumeQuota\000"
 1696      6D655175 
 1696      6F746100 
 1697              	.LASF50:
 1698 044e 666C6167 		.ascii	"flagPayment\000"
 1698      5061796D 
 1698      656E7400 
 1699              	.LASF72:
ARM GAS  C:\Users\Lenovo\AppData\Local\Temp\cc3LptWd.s 			page 36


 1700 045a 6D6F6E65 		.ascii	"moneySale\000"
 1700      7953616C 
 1700      6500
 1701              	.LASF22:
 1702 0464 666C6167 		.ascii	"flagWayToPayMixed\000"
 1702      57617954 
 1702      6F506179 
 1702      4D697865 
 1702      6400
 1703              	.LASF16:
 1704 0476 63686172 		.ascii	"char\000"
 1704      00
 1705              	.LASF99:
 1706 047b 73796D62 		.ascii	"symbols\000"
 1706      6F6C7300 
 1707              	.LASF4:
 1708 0483 6C6F6E67 		.ascii	"long int\000"
 1708      20696E74 
 1708      00
 1709              	.LASF10:
 1710 048c 696E7433 		.ascii	"int32_t\000"
 1710      325F7400 
 1711              	.LASF38:
 1712 0494 74696D65 		.ascii	"timeLiftHandle\000"
 1712      4C696674 
 1712      48616E64 
 1712      6C6500
 1713              	.LASF45:
 1714 04a3 746F7461 		.ascii	"totalPPUAfter\000"
 1714      6C505055 
 1714      41667465 
 1714      7200
 1715              	.LASF84:
 1716 04b1 666C6F77 		.ascii	"flowLCD2\000"
 1716      4C434432 
 1716      00
 1717              	.LASF37:
 1718 04ba 64617465 		.ascii	"dateDownHandle\000"
 1718      446F776E 
 1718      48616E64 
 1718      6C6500
 1719              	.LASF76:
 1720 04c9 70756D70 		.ascii	"pump\000"
 1720      00
 1721              	.LASF112:
 1722 04ce 73746174 		.ascii	"stateBeagleSoft\000"
 1722      65426561 
 1722      676C6553 
 1722      6F667400 
 1723              	.LASF68:
 1724 04de 62756666 		.ascii	"buffer\000"
 1724      657200
 1725              	.LASF3:
 1726 04e5 73686F72 		.ascii	"short unsigned int\000"
 1726      7420756E 
 1726      7369676E 
 1726      65642069 
ARM GAS  C:\Users\Lenovo\AppData\Local\Temp\cc3LptWd.s 			page 37


 1726      6E7400
 1727              	.LASF12:
 1728 04f8 75696E74 		.ascii	"uint32\000"
 1728      333200
 1729              	.LASF29:
 1730 04ff 76656869 		.ascii	"vehicleType\000"
 1730      636C6554 
 1730      79706500 
 1731              	.LASF53:
 1732 050b 6D657373 		.ascii	"message\000"
 1732      61676500 
 1733              	.LASF39:
 1734 0513 74696D65 		.ascii	"timeDownHandle\000"
 1734      446F776E 
 1734      48616E64 
 1734      6C6500
 1735              	.LASF113:
 1736 0522 62756666 		.ascii	"bufferLCD1\000"
 1736      65724C43 
 1736      443100
 1737              	.LASF114:
 1738 052d 62756666 		.ascii	"bufferLCD2\000"
 1738      65724C43 
 1738      443200
 1739              	.LASF103:
 1740 0538 72657369 		.ascii	"residue\000"
 1740      64756500 
 1741              	.LASF64:
 1742 0540 666C6167 		.ascii	"flagProductmarket\000"
 1742      50726F64 
 1742      7563746D 
 1742      61726B65 
 1742      7400
 1743              	.LASF65:
 1744 0552 70726963 		.ascii	"priceConsign\000"
 1744      65436F6E 
 1744      7369676E 
 1744      00
 1745              	.LASF20:
 1746 055f 69645365 		.ascii	"idSerialCom\000"
 1746      7269616C 
 1746      436F6D00 
 1747              	.LASF67:
 1748 056b 666C6167 		.ascii	"flagChangePPU\000"
 1748      4368616E 
 1748      67655050 
 1748      5500
 1749              	.LASF23:
 1750 0579 73656C65 		.ascii	"selectedSale\000"
 1750      63746564 
 1750      53616C65 
 1750      00
 1751              	.LASF9:
 1752 0586 5F5F696E 		.ascii	"__int32_t\000"
 1752      7433325F 
 1752      7400
 1753              	.LASF27:
ARM GAS  C:\Users\Lenovo\AppData\Local\Temp\cc3LptWd.s 			page 38


 1754 0590 61757468 		.ascii	"authorizationFlag\000"
 1754      6F72697A 
 1754      6174696F 
 1754      6E466C61 
 1754      6700
 1755              	.LASF92:
 1756 05a2 70726F64 		.ascii	"productNumber\000"
 1756      7563744E 
 1756      756D6265 
 1756      7200
 1757              	.LASF79:
 1758 05b0 636F756E 		.ascii	"countAnimation1\000"
 1758      74416E69 
 1758      6D617469 
 1758      6F6E3100 
 1759              	.LASF80:
 1760 05c0 636F756E 		.ascii	"countAnimation2\000"
 1760      74416E69 
 1760      6D617469 
 1760      6F6E3200 
 1761              	.LASF77:
 1762 05d0 63686563 		.ascii	"check\000"
 1762      6B00
 1763              	.LASF75:
 1764 05d6 70726F64 		.ascii	"productSale\000"
 1764      75637453 
 1764      616C6500 
 1765              	.LASF42:
 1766 05e2 746F7461 		.ascii	"totalPPUPrevious\000"
 1766      6C505055 
 1766      50726576 
 1766      696F7573 
 1766      00
 1767              	.LASF14:
 1768 05f3 646F7562 		.ascii	"double\000"
 1768      6C6500
 1769              	.LASF115:
 1770 05fa 73696465 		.ascii	"side\000"
 1770      00
 1771              	.LASF78:
 1772 05ff 49544D5F 		.ascii	"ITM_RxBuffer\000"
 1772      52784275 
 1772      66666572 
 1772      00
 1773              	.LASF109:
 1774 060c 74797065 		.ascii	"typeIdSeller\000"
 1774      49645365 
 1774      6C6C6572 
 1774      00
 1775              	.LASF104:
 1776 0619 74656D70 		.ascii	"temporal\000"
 1776      6F72616C 
 1776      00
 1777              	.LASF111:
 1778 0622 666C6167 		.ascii	"flagResetMux\000"
 1778      52657365 
 1778      744D7578 
ARM GAS  C:\Users\Lenovo\AppData\Local\Temp\cc3LptWd.s 			page 39


 1778      00
 1779              	.LASF61:
 1780 062f 70726963 		.ascii	"priceTotalMarket\000"
 1780      65546F74 
 1780      616C4D61 
 1780      726B6574 
 1780      00
 1781              	.LASF63:
 1782 0640 746F7461 		.ascii	"totalMarket\000"
 1782      6C4D6172 
 1782      6B657400 
 1783              	.LASF117:
 1784 064c 2E5C636F 		.ascii	".\\codetag.c\000"
 1784      64657461 
 1784      672E6300 
 1785              		.ident	"GCC: (GNU Tools for ARM Embedded Processors) 4.9.3 20150303 (release) [ARM/embedded-4_9-br
