ARM GAS  C:\Users\Lenovo\AppData\Local\Temp\ccMI0EZx.s 			page 1


   1              		.syntax unified
   2              		.cpu cortex-m3
   3              		.fpu softvfp
   4              		.eabi_attribute 20, 1
   5              		.eabi_attribute 21, 1
   6              		.eabi_attribute 23, 3
   7              		.eabi_attribute 24, 1
   8              		.eabi_attribute 25, 1
   9              		.eabi_attribute 26, 1
  10              		.eabi_attribute 30, 6
  11              		.eabi_attribute 34, 1
  12              		.eabi_attribute 18, 4
  13              		.thumb
  14              		.file	"codebar.c"
  15              		.text
  16              	.Ltext0:
  17              		.cfi_sections	.debug_frame
  18              		.comm	countAnimation1,8,8
  19              		.comm	countAnimation2,8,8
  20              		.comm	countBeagleTX,8,8
  21              		.comm	countPump,8,8
  22              		.comm	flowLCD1,4,4
  23              		.comm	flowLCD2,4,4
  24              		.comm	digits,1,1
  25              		.comm	ipAdress,12,4
  26              		.comm	numberKeys1,1,1
  27              		.comm	numberKeys2,1,1
  28              		.comm	flagPoint1,1,1
  29              		.comm	flagPoint2,1,1
  30              		.comm	button,960,4
  31              		.comm	productNumber,1,1
  32              		.comm	presetFast,30,4
  33              		.comm	delayPicture1,4,4
  34              		.comm	delayPicture2,4,4
  35              		.comm	ppux10,1,1
  36              		.comm	decimalMoney,1,1
  37              		.comm	decimalVolume,1,1
  38              		.comm	symbols,2,4
  39              		.comm	time,3,4
  40              		.comm	date,3,4
  41              		.comm	screen,2,4
  42              		.comm	residue,14,4
  43              		.comm	temporal,30,4
  44              		.comm	temporalCom,30,4
  45              		.comm	turn,1,1
  46              		.comm	lockTurn,1,1
  47              		.comm	idSeller,25,4
  48              		.comm	typeIdSeller,1,1
  49              		.comm	passwordSeller,8,4
  50              		.comm	flagResetMux,1,1
  51              		.comm	stateBeagleSoft,1,1
  52              		.comm	bufferLCD1,661,4
  53              		.comm	bufferLCD2,661,4
  54              		.comm	side,512,4
  55              		.section	.text.serial_codebar,"ax",%progbits
  56              		.align	2
  57              		.global	serial_codebar
ARM GAS  C:\Users\Lenovo\AppData\Local\Temp\ccMI0EZx.s 			page 2


  58              		.thumb
  59              		.thumb_func
  60              		.type	serial_codebar, %function
  61              	serial_codebar:
  62              	.LFB56:
  63              		.file 1 ".\\codebar.c"
   1:.\codebar.c   **** /*
   2:.\codebar.c   **** ***************************************************************************************************
   3:.\codebar.c   **** *                                         MUX ADVANCE CODE
   4:.\codebar.c   **** *
   5:.\codebar.c   **** *                             (c) Copyright 2016; Sistemas Insepet LTDA
   6:.\codebar.c   **** *
   7:.\codebar.c   **** *               All rights reserved.  Protected by international copyright laws.
   8:.\codebar.c   **** *               Knowledge of the source code may NOT be used to develop a similar product.
   9:.\codebar.c   **** *               Please help us continue to provide the Embedded community with the finest
  10:.\codebar.c   **** *               software available.  Your honesty is greatly appreciated.
  11:.\codebar.c   **** ***************************************************************************************************
  12:.\codebar.c   **** */
  13:.\codebar.c   **** 
  14:.\codebar.c   **** /*
  15:.\codebar.c   **** ***************************************************************************************************
  16:.\codebar.c   **** *
  17:.\codebar.c   **** *                                            MUX ADVANCE CODE
  18:.\codebar.c   **** *
  19:.\codebar.c   **** *                                             CYPRESS PSoC5LP
  20:.\codebar.c   **** *                                                with the
  21:.\codebar.c   **** *                                            CY8C5969AXI-LP035
  22:.\codebar.c   **** *
  23:.\codebar.c   **** * Filename      : codebar.c
  24:.\codebar.c   **** * Version       : V1.00
  25:.\codebar.c   **** * Programmer(s) : 
  26:.\codebar.c   ****                   
  27:.\codebar.c   **** ***************************************************************************************************
  28:.\codebar.c   **** */
  29:.\codebar.c   **** 
  30:.\codebar.c   **** /*
  31:.\codebar.c   **** ***************************************************************************************************
  32:.\codebar.c   **** *                                             INCLUDE FILES
  33:.\codebar.c   **** ***************************************************************************************************
  34:.\codebar.c   **** */
  35:.\codebar.c   **** 
  36:.\codebar.c   **** #include <device.h>
  37:.\codebar.c   **** #include "variables.h"
  38:.\codebar.c   **** 
  39:.\codebar.c   **** /*
  40:.\codebar.c   **** ***************************************************************************************************
  41:.\codebar.c   **** *                                        uint8 serial_codebar()
  42:.\codebar.c   **** *
  43:.\codebar.c   **** * Description : 
  44:.\codebar.c   **** *               
  45:.\codebar.c   **** *
  46:.\codebar.c   **** * Argument(s) : none
  47:.\codebar.c   **** *
  48:.\codebar.c   **** * Return(s)   : none
  49:.\codebar.c   **** *
  50:.\codebar.c   **** * Caller(s)   :  
  51:.\codebar.c   **** *
ARM GAS  C:\Users\Lenovo\AppData\Local\Temp\ccMI0EZx.s 			page 3


  52:.\codebar.c   **** * Note(s)     : none.
  53:.\codebar.c   **** ***************************************************************************************************
  54:.\codebar.c   **** */
  55:.\codebar.c   **** 
  56:.\codebar.c   **** uint8 serial_codebar(){
  64              		.loc 1 56 0
  65              		.cfi_startproc
  66              		@ args = 0, pretend = 0, frame = 8
  67              		@ frame_needed = 1, uses_anonymous_args = 0
  68 0000 80B5     		push	{r7, lr}
  69              		.cfi_def_cfa_offset 8
  70              		.cfi_offset 7, -8
  71              		.cfi_offset 14, -4
  72 0002 82B0     		sub	sp, sp, #8
  73              		.cfi_def_cfa_offset 16
  74 0004 00AF     		add	r7, sp, #0
  75              		.cfi_def_cfa_register 7
  57:.\codebar.c   ****     uint32 size;
  58:.\codebar.c   **** 	if(Code_Bar_GetRxBufferSize() >= 1){
  76              		.loc 1 58 0
  77 0006 FFF7FEFF 		bl	Code_Bar_GetRxBufferSize
  78 000a 0346     		mov	r3, r0
  79 000c 002B     		cmp	r3, #0
  80 000e 23D0     		beq	.L2
  59:.\codebar.c   ****         CyDelay(100);
  81              		.loc 1 59 0
  82 0010 6420     		movs	r0, #100
  83 0012 FFF7FEFF 		bl	CyDelay
  60:.\codebar.c   **** 		size=1;
  84              		.loc 1 60 0
  85 0016 0123     		movs	r3, #1
  86 0018 7B60     		str	r3, [r7, #4]
  61:.\codebar.c   **** 		while(Code_Bar_GetRxBufferSize()>0){
  87              		.loc 1 61 0
  88 001a 0BE0     		b	.L3
  89              	.L4:
  62:.\codebar.c   ****     		temporal[size]=Code_Bar_ReadRxData();
  90              		.loc 1 62 0
  91 001c FFF7FEFF 		bl	Code_Bar_ReadRxData
  92 0020 0346     		mov	r3, r0
  93 0022 1946     		mov	r1, r3
  94 0024 0F4A     		ldr	r2, .L6
  95 0026 7B68     		ldr	r3, [r7, #4]
  96 0028 1344     		add	r3, r3, r2
  97 002a 0A46     		mov	r2, r1
  98 002c 1A70     		strb	r2, [r3]
  63:.\codebar.c   ****     		size++;
  99              		.loc 1 63 0
 100 002e 7B68     		ldr	r3, [r7, #4]
 101 0030 0133     		adds	r3, r3, #1
 102 0032 7B60     		str	r3, [r7, #4]
 103              	.L3:
  61:.\codebar.c   **** 		while(Code_Bar_GetRxBufferSize()>0){
 104              		.loc 1 61 0
 105 0034 FFF7FEFF 		bl	Code_Bar_GetRxBufferSize
 106 0038 0346     		mov	r3, r0
 107 003a 002B     		cmp	r3, #0
ARM GAS  C:\Users\Lenovo\AppData\Local\Temp\ccMI0EZx.s 			page 4


 108 003c EED1     		bne	.L4
  64:.\codebar.c   ****     	}
  65:.\codebar.c   **** 		temporal[0]=size-1;
 109              		.loc 1 65 0
 110 003e 7B68     		ldr	r3, [r7, #4]
 111 0040 DBB2     		uxtb	r3, r3
 112 0042 013B     		subs	r3, r3, #1
 113 0044 DAB2     		uxtb	r2, r3
 114 0046 074B     		ldr	r3, .L6
 115 0048 1A70     		strb	r2, [r3]
  66:.\codebar.c   **** 		Code_Bar_ClearRxBuffer();
 116              		.loc 1 66 0
 117 004a FFF7FEFF 		bl	Code_Bar_ClearRxBuffer
  67:.\codebar.c   **** 		CyDelay(5);
 118              		.loc 1 67 0
 119 004e 0520     		movs	r0, #5
 120 0050 FFF7FEFF 		bl	CyDelay
  68:.\codebar.c   **** 		return 1;
 121              		.loc 1 68 0
 122 0054 0123     		movs	r3, #1
 123 0056 00E0     		b	.L5
 124              	.L2:
  69:.\codebar.c   **** 	}
  70:.\codebar.c   ****     return 0;
 125              		.loc 1 70 0
 126 0058 0023     		movs	r3, #0
 127              	.L5:
  71:.\codebar.c   **** }...
 128              		.loc 1 71 0
 129 005a 1846     		mov	r0, r3
 130 005c 0837     		adds	r7, r7, #8
 131              		.cfi_def_cfa_offset 8
 132 005e BD46     		mov	sp, r7
 133              		.cfi_def_cfa_register 13
 134              		@ sp needed
 135 0060 80BD     		pop	{r7, pc}
 136              	.L7:
 137 0062 00BF     		.align	2
 138              	.L6:
 139 0064 00000000 		.word	temporal
 140              		.cfi_endproc
 141              	.LFE56:
 142              		.size	serial_codebar, .-serial_codebar
 143              		.text
 144              	.Letext0:
 145              		.file 2 "c:\\program files (x86)\\cypress\\psoc creator\\3.3\\psoc creator\\import\\gnu\\arm\\4.9.
 146              		.file 3 "c:\\program files (x86)\\cypress\\psoc creator\\3.3\\psoc creator\\import\\gnu\\arm\\4.9.
 147              		.file 4 "Generated_Source\\PSoC5/cytypes.h"
 148              		.file 5 ".\\variables.h"
 149              		.file 6 "Generated_Source\\PSoC5/core_cm3.h"
 150              		.section	.debug_info,"",%progbits
 151              	.Ldebug_info0:
 152 0000 26080000 		.4byte	0x826
 153 0004 0400     		.2byte	0x4
 154 0006 00000000 		.4byte	.Ldebug_abbrev0
 155 000a 04       		.byte	0x4
 156 000b 01       		.uleb128 0x1
ARM GAS  C:\Users\Lenovo\AppData\Local\Temp\ccMI0EZx.s 			page 5


 157 000c D4010000 		.4byte	.LASF115
 158 0010 01       		.byte	0x1
 159 0011 B9020000 		.4byte	.LASF116
 160 0015 4B000000 		.4byte	.LASF117
 161 0019 00000000 		.4byte	.Ldebug_ranges0+0
 162 001d 00000000 		.4byte	0
 163 0021 00000000 		.4byte	.Ldebug_line0
 164 0025 02       		.uleb128 0x2
 165 0026 01       		.byte	0x1
 166 0027 06       		.byte	0x6
 167 0028 6A010000 		.4byte	.LASF0
 168 002c 02       		.uleb128 0x2
 169 002d 01       		.byte	0x1
 170 002e 08       		.byte	0x8
 171 002f F6020000 		.4byte	.LASF1
 172 0033 02       		.uleb128 0x2
 173 0034 02       		.byte	0x2
 174 0035 05       		.byte	0x5
 175 0036 41000000 		.4byte	.LASF2
 176 003a 02       		.uleb128 0x2
 177 003b 02       		.byte	0x2
 178 003c 07       		.byte	0x7
 179 003d FE040000 		.4byte	.LASF3
 180 0041 03       		.uleb128 0x3
 181 0042 97050000 		.4byte	.LASF9
 182 0046 02       		.byte	0x2
 183 0047 3F       		.byte	0x3f
 184 0048 4C000000 		.4byte	0x4c
 185 004c 02       		.uleb128 0x2
 186 004d 04       		.byte	0x4
 187 004e 05       		.byte	0x5
 188 004f 80040000 		.4byte	.LASF4
 189 0053 02       		.uleb128 0x2
 190 0054 04       		.byte	0x4
 191 0055 07       		.byte	0x7
 192 0056 17000000 		.4byte	.LASF5
 193 005a 02       		.uleb128 0x2
 194 005b 08       		.byte	0x8
 195 005c 05       		.byte	0x5
 196 005d B5010000 		.4byte	.LASF6
 197 0061 02       		.uleb128 0x2
 198 0062 08       		.byte	0x8
 199 0063 07       		.byte	0x7
 200 0064 A1030000 		.4byte	.LASF7
 201 0068 04       		.uleb128 0x4
 202 0069 04       		.byte	0x4
 203 006a 05       		.byte	0x5
 204 006b 696E7400 		.ascii	"int\000"
 205 006f 02       		.uleb128 0x2
 206 0070 04       		.byte	0x4
 207 0071 07       		.byte	0x7
 208 0072 D2030000 		.4byte	.LASF8
 209 0076 03       		.uleb128 0x3
 210 0077 89040000 		.4byte	.LASF10
 211 007b 03       		.byte	0x3
 212 007c 2C       		.byte	0x2c
 213 007d 41000000 		.4byte	0x41
ARM GAS  C:\Users\Lenovo\AppData\Local\Temp\ccMI0EZx.s 			page 6


 214 0081 03       		.uleb128 0x3
 215 0082 5B010000 		.4byte	.LASF11
 216 0086 04       		.byte	0x4
 217 0087 A1       		.byte	0xa1
 218 0088 2C000000 		.4byte	0x2c
 219 008c 03       		.uleb128 0x3
 220 008d 11050000 		.4byte	.LASF12
 221 0091 04       		.byte	0x4
 222 0092 A3       		.byte	0xa3
 223 0093 53000000 		.4byte	0x53
 224 0097 02       		.uleb128 0x2
 225 0098 04       		.byte	0x4
 226 0099 04       		.byte	0x4
 227 009a 8C010000 		.4byte	.LASF13
 228 009e 02       		.uleb128 0x2
 229 009f 08       		.byte	0x8
 230 00a0 04       		.byte	0x4
 231 00a1 FE050000 		.4byte	.LASF14
 232 00a5 03       		.uleb128 0x3
 233 00a6 62020000 		.4byte	.LASF15
 234 00aa 04       		.byte	0x4
 235 00ab AD       		.byte	0xad
 236 00ac 61000000 		.4byte	0x61
 237 00b0 02       		.uleb128 0x2
 238 00b1 01       		.byte	0x1
 239 00b2 08       		.byte	0x8
 240 00b3 73040000 		.4byte	.LASF16
 241 00b7 05       		.uleb128 0x5
 242 00b8 81000000 		.4byte	0x81
 243 00bc 05       		.uleb128 0x5
 244 00bd 8C000000 		.4byte	0x8c
 245 00c1 02       		.uleb128 0x2
 246 00c2 04       		.byte	0x4
 247 00c3 07       		.byte	0x7
 248 00c4 A9000000 		.4byte	.LASF17
 249 00c8 06       		.uleb128 0x6
 250 00c9 F7040000 		.4byte	.LASF68
 251 00cd 9502     		.2byte	0x295
 252 00cf 05       		.byte	0x5
 253 00d0 56       		.byte	0x56
 254 00d1 44030000 		.4byte	0x344
 255 00d5 07       		.uleb128 0x7
 256 00d6 54010000 		.4byte	.LASF18
 257 00da 05       		.byte	0x5
 258 00db 57       		.byte	0x57
 259 00dc 81000000 		.4byte	0x81
 260 00e0 00       		.byte	0
 261 00e1 07       		.uleb128 0x7
 262 00e2 38000000 		.4byte	.LASF19
 263 00e6 05       		.byte	0x5
 264 00e7 58       		.byte	0x58
 265 00e8 44030000 		.4byte	0x344
 266 00ec 01       		.byte	0x1
 267 00ed 07       		.uleb128 0x7
 268 00ee 70050000 		.4byte	.LASF20
 269 00f2 05       		.byte	0x5
 270 00f3 59       		.byte	0x59
ARM GAS  C:\Users\Lenovo\AppData\Local\Temp\ccMI0EZx.s 			page 7


 271 00f4 44030000 		.4byte	0x344
 272 00f8 1A       		.byte	0x1a
 273 00f9 07       		.uleb128 0x7
 274 00fa 33010000 		.4byte	.LASF21
 275 00fe 05       		.byte	0x5
 276 00ff 5A       		.byte	0x5a
 277 0100 81000000 		.4byte	0x81
 278 0104 33       		.byte	0x33
 279 0105 07       		.uleb128 0x7
 280 0106 61040000 		.4byte	.LASF22
 281 010a 05       		.byte	0x5
 282 010b 5B       		.byte	0x5b
 283 010c 81000000 		.4byte	0x81
 284 0110 34       		.byte	0x34
 285 0111 07       		.uleb128 0x7
 286 0112 8A050000 		.4byte	.LASF23
 287 0116 05       		.byte	0x5
 288 0117 5C       		.byte	0x5c
 289 0118 54030000 		.4byte	0x354
 290 011c 35       		.byte	0x35
 291 011d 07       		.uleb128 0x7
 292 011e 4E030000 		.4byte	.LASF24
 293 0122 05       		.byte	0x5
 294 0123 5D       		.byte	0x5d
 295 0124 54030000 		.4byte	0x354
 296 0128 3F       		.byte	0x3f
 297 0129 07       		.uleb128 0x7
 298 012a D7000000 		.4byte	.LASF25
 299 012e 05       		.byte	0x5
 300 012f 5E       		.byte	0x5e
 301 0130 44030000 		.4byte	0x344
 302 0134 49       		.byte	0x49
 303 0135 07       		.uleb128 0x7
 304 0136 C3010000 		.4byte	.LASF26
 305 013a 05       		.byte	0x5
 306 013b 5F       		.byte	0x5f
 307 013c 81000000 		.4byte	0x81
 308 0140 62       		.byte	0x62
 309 0141 07       		.uleb128 0x7
 310 0142 A1050000 		.4byte	.LASF27
 311 0146 05       		.byte	0x5
 312 0147 60       		.byte	0x60
 313 0148 81000000 		.4byte	0x81
 314 014c 63       		.byte	0x63
 315 014d 07       		.uleb128 0x7
 316 014e AF020000 		.4byte	.LASF28
 317 0152 05       		.byte	0x5
 318 0153 61       		.byte	0x61
 319 0154 64030000 		.4byte	0x364
 320 0158 64       		.byte	0x64
 321 0159 07       		.uleb128 0x7
 322 015a 18050000 		.4byte	.LASF29
 323 015e 05       		.byte	0x5
 324 015f 62       		.byte	0x62
 325 0160 81000000 		.4byte	0x81
 326 0164 79       		.byte	0x79
 327 0165 07       		.uleb128 0x7
ARM GAS  C:\Users\Lenovo\AppData\Local\Temp\ccMI0EZx.s 			page 8


 328 0166 C5000000 		.4byte	.LASF30
 329 016a 05       		.byte	0x5
 330 016b 63       		.byte	0x63
 331 016c 81000000 		.4byte	0x81
 332 0170 7A       		.byte	0x7a
 333 0171 07       		.uleb128 0x7
 334 0172 3C010000 		.4byte	.LASF31
 335 0176 05       		.byte	0x5
 336 0177 64       		.byte	0x64
 337 0178 81000000 		.4byte	0x81
 338 017c 7B       		.byte	0x7b
 339 017d 07       		.uleb128 0x7
 340 017e 1C030000 		.4byte	.LASF32
 341 0182 05       		.byte	0x5
 342 0183 65       		.byte	0x65
 343 0184 74030000 		.4byte	0x374
 344 0188 7C       		.byte	0x7c
 345 0189 07       		.uleb128 0x7
 346 018a 27010000 		.4byte	.LASF33
 347 018e 05       		.byte	0x5
 348 018f 66       		.byte	0x66
 349 0190 84030000 		.4byte	0x384
 350 0194 7E       		.byte	0x7e
 351 0195 07       		.uleb128 0x7
 352 0196 0B000000 		.4byte	.LASF34
 353 019a 05       		.byte	0x5
 354 019b 67       		.byte	0x67
 355 019c 81000000 		.4byte	0x81
 356 01a0 92       		.byte	0x92
 357 01a1 07       		.uleb128 0x7
 358 01a2 BC000000 		.4byte	.LASF35
 359 01a6 05       		.byte	0x5
 360 01a7 68       		.byte	0x68
 361 01a8 9A030000 		.4byte	0x39a
 362 01ac 93       		.byte	0x93
 363 01ad 07       		.uleb128 0x7
 364 01ae 29000000 		.4byte	.LASF36
 365 01b2 05       		.byte	0x5
 366 01b3 69       		.byte	0x69
 367 01b4 AA030000 		.4byte	0x3aa
 368 01b8 98       		.byte	0x98
 369 01b9 07       		.uleb128 0x7
 370 01ba C6040000 		.4byte	.LASF37
 371 01be 05       		.byte	0x5
 372 01bf 6A       		.byte	0x6a
 373 01c0 AA030000 		.4byte	0x3aa
 374 01c4 9E       		.byte	0x9e
 375 01c5 07       		.uleb128 0x7
 376 01c6 91040000 		.4byte	.LASF38
 377 01ca 05       		.byte	0x5
 378 01cb 6B       		.byte	0x6b
 379 01cc AA030000 		.4byte	0x3aa
 380 01d0 A4       		.byte	0xa4
 381 01d1 07       		.uleb128 0x7
 382 01d2 2C050000 		.4byte	.LASF39
 383 01d6 05       		.byte	0x5
 384 01d7 6C       		.byte	0x6c
ARM GAS  C:\Users\Lenovo\AppData\Local\Temp\ccMI0EZx.s 			page 9


 385 01d8 AA030000 		.4byte	0x3aa
 386 01dc AA       		.byte	0xaa
 387 01dd 07       		.uleb128 0x7
 388 01de BF030000 		.4byte	.LASF40
 389 01e2 05       		.byte	0x5
 390 01e3 6D       		.byte	0x6d
 391 01e4 BA030000 		.4byte	0x3ba
 392 01e8 B0       		.byte	0xb0
 393 01e9 07       		.uleb128 0x7
 394 01ea 9B020000 		.4byte	.LASF41
 395 01ee 05       		.byte	0x5
 396 01ef 6E       		.byte	0x6e
 397 01f0 BA030000 		.4byte	0x3ba
 398 01f4 BE       		.byte	0xbe
 399 01f5 07       		.uleb128 0x7
 400 01f6 ED050000 		.4byte	.LASF42
 401 01fa 05       		.byte	0x5
 402 01fb 6F       		.byte	0x6f
 403 01fc BA030000 		.4byte	0x3ba
 404 0200 CC       		.byte	0xcc
 405 0201 07       		.uleb128 0x7
 406 0202 E6020000 		.4byte	.LASF43
 407 0206 05       		.byte	0x5
 408 0207 70       		.byte	0x70
 409 0208 BA030000 		.4byte	0x3ba
 410 020c DA       		.byte	0xda
 411 020d 07       		.uleb128 0x7
 412 020e 07040000 		.4byte	.LASF44
 413 0212 05       		.byte	0x5
 414 0213 71       		.byte	0x71
 415 0214 BA030000 		.4byte	0x3ba
 416 0218 E8       		.byte	0xe8
 417 0219 07       		.uleb128 0x7
 418 021a A0040000 		.4byte	.LASF45
 419 021e 05       		.byte	0x5
 420 021f 72       		.byte	0x72
 421 0220 BA030000 		.4byte	0x3ba
 422 0224 F6       		.byte	0xf6
 423 0225 08       		.uleb128 0x8
 424 0226 16010000 		.4byte	.LASF46
 425 022a 05       		.byte	0x5
 426 022b 73       		.byte	0x73
 427 022c CA030000 		.4byte	0x3ca
 428 0230 0401     		.2byte	0x104
 429 0232 08       		.uleb128 0x8
 430 0233 48010000 		.4byte	.LASF47
 431 0237 05       		.byte	0x5
 432 0238 74       		.byte	0x74
 433 0239 CA030000 		.4byte	0x3ca
 434 023d 0F01     		.2byte	0x10f
 435 023f 08       		.uleb128 0x8
 436 0240 E7030000 		.4byte	.LASF48
 437 0244 05       		.byte	0x5
 438 0245 75       		.byte	0x75
 439 0246 CA030000 		.4byte	0x3ca
 440 024a 1A01     		.2byte	0x11a
 441 024c 08       		.uleb128 0x8
ARM GAS  C:\Users\Lenovo\AppData\Local\Temp\ccMI0EZx.s 			page 10


 442 024d 27030000 		.4byte	.LASF49
 443 0251 05       		.byte	0x5
 444 0252 76       		.byte	0x76
 445 0253 81000000 		.4byte	0x81
 446 0257 2501     		.2byte	0x125
 447 0259 08       		.uleb128 0x8
 448 025a 4B040000 		.4byte	.LASF50
 449 025e 05       		.byte	0x5
 450 025f 77       		.byte	0x77
 451 0260 81000000 		.4byte	0x81
 452 0264 2601     		.2byte	0x126
 453 0266 08       		.uleb128 0x8
 454 0267 8C020000 		.4byte	.LASF51
 455 026b 05       		.byte	0x5
 456 026c 78       		.byte	0x78
 457 026d 81000000 		.4byte	0x81
 458 0271 2701     		.2byte	0x127
 459 0273 08       		.uleb128 0x8
 460 0274 CC020000 		.4byte	.LASF52
 461 0278 05       		.byte	0x5
 462 0279 79       		.byte	0x79
 463 027a 81000000 		.4byte	0x81
 464 027e 2801     		.2byte	0x128
 465 0280 08       		.uleb128 0x8
 466 0281 24050000 		.4byte	.LASF53
 467 0285 05       		.byte	0x5
 468 0286 7A       		.byte	0x7a
 469 0287 DA030000 		.4byte	0x3da
 470 028b 2901     		.2byte	0x129
 471 028d 08       		.uleb128 0x8
 472 028e 00000000 		.4byte	.LASF54
 473 0292 05       		.byte	0x5
 474 0293 7B       		.byte	0x7b
 475 0294 54030000 		.4byte	0x354
 476 0298 6A01     		.2byte	0x16a
 477 029a 08       		.uleb128 0x8
 478 029b 3F040000 		.4byte	.LASF55
 479 029f 05       		.byte	0x5
 480 02a0 7C       		.byte	0x7c
 481 02a1 54030000 		.4byte	0x354
 482 02a5 7401     		.2byte	0x174
 483 02a7 08       		.uleb128 0x8
 484 02a8 0D010000 		.4byte	.LASF56
 485 02ac 05       		.byte	0x5
 486 02ad 7D       		.byte	0x7d
 487 02ae 54030000 		.4byte	0x354
 488 02b2 7E01     		.2byte	0x17e
 489 02b4 08       		.uleb128 0x8
 490 02b5 94030000 		.4byte	.LASF57
 491 02b9 05       		.byte	0x5
 492 02ba 7E       		.byte	0x7e
 493 02bb EA030000 		.4byte	0x3ea
 494 02bf 8801     		.2byte	0x188
 495 02c1 08       		.uleb128 0x8
 496 02c2 26040000 		.4byte	.LASF58
 497 02c6 05       		.byte	0x5
 498 02c7 7F       		.byte	0x7f
ARM GAS  C:\Users\Lenovo\AppData\Local\Temp\ccMI0EZx.s 			page 11


 499 02c8 EA030000 		.4byte	0x3ea
 500 02cc D301     		.2byte	0x1d3
 501 02ce 08       		.uleb128 0x8
 502 02cf 3F030000 		.4byte	.LASF59
 503 02d3 05       		.byte	0x5
 504 02d4 80       		.byte	0x80
 505 02d5 00040000 		.4byte	0x400
 506 02d9 1E02     		.2byte	0x21e
 507 02db 08       		.uleb128 0x8
 508 02dc 73030000 		.4byte	.LASF60
 509 02e0 05       		.byte	0x5
 510 02e1 81       		.byte	0x81
 511 02e2 00040000 		.4byte	0x400
 512 02e6 2D02     		.2byte	0x22d
 513 02e8 08       		.uleb128 0x8
 514 02e9 3A060000 		.4byte	.LASF61
 515 02ed 05       		.byte	0x5
 516 02ee 82       		.byte	0x82
 517 02ef 16040000 		.4byte	0x416
 518 02f3 3C02     		.2byte	0x23c
 519 02f5 08       		.uleb128 0x8
 520 02f6 F2030000 		.4byte	.LASF62
 521 02fa 05       		.byte	0x5
 522 02fb 83       		.byte	0x83
 523 02fc 16040000 		.4byte	0x416
 524 0300 5A02     		.2byte	0x25a
 525 0302 08       		.uleb128 0x8
 526 0303 4B060000 		.4byte	.LASF63
 527 0307 05       		.byte	0x5
 528 0308 84       		.byte	0x84
 529 0309 54030000 		.4byte	0x354
 530 030d 7802     		.2byte	0x278
 531 030f 08       		.uleb128 0x8
 532 0310 59050000 		.4byte	.LASF64
 533 0314 05       		.byte	0x5
 534 0315 85       		.byte	0x85
 535 0316 81000000 		.4byte	0x81
 536 031a 8202     		.2byte	0x282
 537 031c 08       		.uleb128 0x8
 538 031d EA040000 		.4byte	.LASF65
 539 0321 05       		.byte	0x5
 540 0322 86       		.byte	0x86
 541 0323 2C040000 		.4byte	0x42c
 542 0327 8302     		.2byte	0x283
 543 0329 08       		.uleb128 0x8
 544 032a CE000000 		.4byte	.LASF66
 545 032e 05       		.byte	0x5
 546 032f 87       		.byte	0x87
 547 0330 74030000 		.4byte	0x374
 548 0334 9202     		.2byte	0x292
 549 0336 08       		.uleb128 0x8
 550 0337 7C050000 		.4byte	.LASF67
 551 033b 05       		.byte	0x5
 552 033c 88       		.byte	0x88
 553 033d 81000000 		.4byte	0x81
 554 0341 9402     		.2byte	0x294
 555 0343 00       		.byte	0
ARM GAS  C:\Users\Lenovo\AppData\Local\Temp\ccMI0EZx.s 			page 12


 556 0344 09       		.uleb128 0x9
 557 0345 81000000 		.4byte	0x81
 558 0349 54030000 		.4byte	0x354
 559 034d 0A       		.uleb128 0xa
 560 034e C1000000 		.4byte	0xc1
 561 0352 18       		.byte	0x18
 562 0353 00       		.byte	0
 563 0354 09       		.uleb128 0x9
 564 0355 81000000 		.4byte	0x81
 565 0359 64030000 		.4byte	0x364
 566 035d 0A       		.uleb128 0xa
 567 035e C1000000 		.4byte	0xc1
 568 0362 09       		.byte	0x9
 569 0363 00       		.byte	0
 570 0364 09       		.uleb128 0x9
 571 0365 81000000 		.4byte	0x81
 572 0369 74030000 		.4byte	0x374
 573 036d 0A       		.uleb128 0xa
 574 036e C1000000 		.4byte	0xc1
 575 0372 14       		.byte	0x14
 576 0373 00       		.byte	0
 577 0374 09       		.uleb128 0x9
 578 0375 81000000 		.4byte	0x81
 579 0379 84030000 		.4byte	0x384
 580 037d 0A       		.uleb128 0xa
 581 037e C1000000 		.4byte	0xc1
 582 0382 01       		.byte	0x1
 583 0383 00       		.byte	0
 584 0384 09       		.uleb128 0x9
 585 0385 81000000 		.4byte	0x81
 586 0389 9A030000 		.4byte	0x39a
 587 038d 0A       		.uleb128 0xa
 588 038e C1000000 		.4byte	0xc1
 589 0392 01       		.byte	0x1
 590 0393 0A       		.uleb128 0xa
 591 0394 C1000000 		.4byte	0xc1
 592 0398 09       		.byte	0x9
 593 0399 00       		.byte	0
 594 039a 09       		.uleb128 0x9
 595 039b 81000000 		.4byte	0x81
 596 039f AA030000 		.4byte	0x3aa
 597 03a3 0A       		.uleb128 0xa
 598 03a4 C1000000 		.4byte	0xc1
 599 03a8 04       		.byte	0x4
 600 03a9 00       		.byte	0
 601 03aa 09       		.uleb128 0x9
 602 03ab 81000000 		.4byte	0x81
 603 03af BA030000 		.4byte	0x3ba
 604 03b3 0A       		.uleb128 0xa
 605 03b4 C1000000 		.4byte	0xc1
 606 03b8 05       		.byte	0x5
 607 03b9 00       		.byte	0
 608 03ba 09       		.uleb128 0x9
 609 03bb 81000000 		.4byte	0x81
 610 03bf CA030000 		.4byte	0x3ca
 611 03c3 0A       		.uleb128 0xa
 612 03c4 C1000000 		.4byte	0xc1
ARM GAS  C:\Users\Lenovo\AppData\Local\Temp\ccMI0EZx.s 			page 13


 613 03c8 0D       		.byte	0xd
 614 03c9 00       		.byte	0
 615 03ca 09       		.uleb128 0x9
 616 03cb 81000000 		.4byte	0x81
 617 03cf DA030000 		.4byte	0x3da
 618 03d3 0A       		.uleb128 0xa
 619 03d4 C1000000 		.4byte	0xc1
 620 03d8 0A       		.byte	0xa
 621 03d9 00       		.byte	0
 622 03da 09       		.uleb128 0x9
 623 03db 81000000 		.4byte	0x81
 624 03df EA030000 		.4byte	0x3ea
 625 03e3 0A       		.uleb128 0xa
 626 03e4 C1000000 		.4byte	0xc1
 627 03e8 40       		.byte	0x40
 628 03e9 00       		.byte	0
 629 03ea 09       		.uleb128 0x9
 630 03eb 81000000 		.4byte	0x81
 631 03ef 00040000 		.4byte	0x400
 632 03f3 0A       		.uleb128 0xa
 633 03f4 C1000000 		.4byte	0xc1
 634 03f8 02       		.byte	0x2
 635 03f9 0A       		.uleb128 0xa
 636 03fa C1000000 		.4byte	0xc1
 637 03fe 18       		.byte	0x18
 638 03ff 00       		.byte	0
 639 0400 09       		.uleb128 0x9
 640 0401 81000000 		.4byte	0x81
 641 0405 16040000 		.4byte	0x416
 642 0409 0A       		.uleb128 0xa
 643 040a C1000000 		.4byte	0xc1
 644 040e 02       		.byte	0x2
 645 040f 0A       		.uleb128 0xa
 646 0410 C1000000 		.4byte	0xc1
 647 0414 04       		.byte	0x4
 648 0415 00       		.byte	0
 649 0416 09       		.uleb128 0x9
 650 0417 81000000 		.4byte	0x81
 651 041b 2C040000 		.4byte	0x42c
 652 041f 0A       		.uleb128 0xa
 653 0420 C1000000 		.4byte	0xc1
 654 0424 02       		.byte	0x2
 655 0425 0A       		.uleb128 0xa
 656 0426 C1000000 		.4byte	0xc1
 657 042a 09       		.byte	0x9
 658 042b 00       		.byte	0
 659 042c 09       		.uleb128 0x9
 660 042d 81000000 		.4byte	0x81
 661 0431 3C040000 		.4byte	0x43c
 662 0435 0A       		.uleb128 0xa
 663 0436 C1000000 		.4byte	0xc1
 664 043a 0E       		.byte	0xe
 665 043b 00       		.byte	0
 666 043c 06       		.uleb128 0x6
 667 043d 76010000 		.4byte	.LASF69
 668 0441 0001     		.2byte	0x100
 669 0443 05       		.byte	0x5
ARM GAS  C:\Users\Lenovo\AppData\Local\Temp\ccMI0EZx.s 			page 14


 670 0444 96       		.byte	0x96
 671 0445 9E040000 		.4byte	0x49e
 672 0449 0B       		.uleb128 0xb
 673 044a 64697200 		.ascii	"dir\000"
 674 044e 05       		.byte	0x5
 675 044f 97       		.byte	0x97
 676 0450 81000000 		.4byte	0x81
 677 0454 00       		.byte	0
 678 0455 07       		.uleb128 0x7
 679 0456 7F010000 		.4byte	.LASF70
 680 045a 05       		.byte	0x5
 681 045b 98       		.byte	0x98
 682 045c 9E040000 		.4byte	0x49e
 683 0460 01       		.byte	0x1
 684 0461 07       		.uleb128 0x7
 685 0462 D8020000 		.4byte	.LASF71
 686 0466 05       		.byte	0x5
 687 0467 99       		.byte	0x99
 688 0468 BA040000 		.4byte	0x4ba
 689 046c B5       		.byte	0xb5
 690 046d 07       		.uleb128 0x7
 691 046e 57040000 		.4byte	.LASF72
 692 0472 05       		.byte	0x5
 693 0473 9A       		.byte	0x9a
 694 0474 BA030000 		.4byte	0x3ba
 695 0478 D5       		.byte	0xd5
 696 0479 07       		.uleb128 0x7
 697 047a 34040000 		.4byte	.LASF73
 698 047e 05       		.byte	0x5
 699 047f 9B       		.byte	0x9b
 700 0480 BA030000 		.4byte	0x3ba
 701 0484 E3       		.byte	0xe3
 702 0485 07       		.uleb128 0x7
 703 0486 DF030000 		.4byte	.LASF74
 704 048a 05       		.byte	0x5
 705 048b 9C       		.byte	0x9c
 706 048c BA030000 		.4byte	0x3ba
 707 0490 F1       		.byte	0xf1
 708 0491 07       		.uleb128 0x7
 709 0492 E1050000 		.4byte	.LASF75
 710 0496 05       		.byte	0x5
 711 0497 9D       		.byte	0x9d
 712 0498 81000000 		.4byte	0x81
 713 049c FF       		.byte	0xff
 714 049d 00       		.byte	0
 715 049e 09       		.uleb128 0x9
 716 049f 81000000 		.4byte	0x81
 717 04a3 BA040000 		.4byte	0x4ba
 718 04a7 0A       		.uleb128 0xa
 719 04a8 C1000000 		.4byte	0xc1
 720 04ac 03       		.byte	0x3
 721 04ad 0A       		.uleb128 0xa
 722 04ae C1000000 		.4byte	0xc1
 723 04b2 02       		.byte	0x2
 724 04b3 0A       		.uleb128 0xa
 725 04b4 C1000000 		.4byte	0xc1
 726 04b8 0E       		.byte	0xe
ARM GAS  C:\Users\Lenovo\AppData\Local\Temp\ccMI0EZx.s 			page 15


 727 04b9 00       		.byte	0
 728 04ba 09       		.uleb128 0x9
 729 04bb 81000000 		.4byte	0x81
 730 04bf D0040000 		.4byte	0x4d0
 731 04c3 0A       		.uleb128 0xa
 732 04c4 C1000000 		.4byte	0xc1
 733 04c8 03       		.byte	0x3
 734 04c9 0A       		.uleb128 0xa
 735 04ca C1000000 		.4byte	0xc1
 736 04ce 07       		.byte	0x7
 737 04cf 00       		.byte	0
 738 04d0 06       		.uleb128 0x6
 739 04d1 D5040000 		.4byte	.LASF76
 740 04d5 0002     		.2byte	0x200
 741 04d7 05       		.byte	0x5
 742 04d8 A0       		.byte	0xa0
 743 04d9 F3040000 		.4byte	0x4f3
 744 04dd 0B       		.uleb128 0xb
 745 04de 6100     		.ascii	"a\000"
 746 04e0 05       		.byte	0x5
 747 04e1 A1       		.byte	0xa1
 748 04e2 3C040000 		.4byte	0x43c
 749 04e6 00       		.byte	0
 750 04e7 0C       		.uleb128 0xc
 751 04e8 6200     		.ascii	"b\000"
 752 04ea 05       		.byte	0x5
 753 04eb A2       		.byte	0xa2
 754 04ec 3C040000 		.4byte	0x43c
 755 04f0 0001     		.2byte	0x100
 756 04f2 00       		.byte	0
 757 04f3 0D       		.uleb128 0xd
 758 04f4 B7040000 		.4byte	.LASF118
 759 04f8 01       		.byte	0x1
 760 04f9 38       		.byte	0x38
 761 04fa 81000000 		.4byte	0x81
 762 04fe 00000000 		.4byte	.LFB56
 763 0502 68000000 		.4byte	.LFE56-.LFB56
 764 0506 01       		.uleb128 0x1
 765 0507 9C       		.byte	0x9c
 766 0508 1B050000 		.4byte	0x51b
 767 050c 0E       		.uleb128 0xe
 768 050d 6B050000 		.4byte	.LASF119
 769 0511 01       		.byte	0x1
 770 0512 39       		.byte	0x39
 771 0513 8C000000 		.4byte	0x8c
 772 0517 02       		.uleb128 0x2
 773 0518 91       		.byte	0x91
 774 0519 74       		.sleb128 -12
 775 051a 00       		.byte	0
 776 051b 0F       		.uleb128 0xf
 777 051c 0A060000 		.4byte	.LASF77
 778 0520 06       		.byte	0x6
 779 0521 1606     		.2byte	0x616
 780 0523 27050000 		.4byte	0x527
 781 0527 05       		.uleb128 0x5
 782 0528 76000000 		.4byte	0x76
 783 052c 10       		.uleb128 0x10
ARM GAS  C:\Users\Lenovo\AppData\Local\Temp\ccMI0EZx.s 			page 16


 784 052d C1050000 		.4byte	.LASF78
 785 0531 05       		.byte	0x5
 786 0532 2C       		.byte	0x2c
 787 0533 3D050000 		.4byte	0x53d
 788 0537 05       		.uleb128 0x5
 789 0538 03       		.byte	0x3
 790 0539 00000000 		.4byte	countAnimation1
 791 053d 05       		.uleb128 0x5
 792 053e A5000000 		.4byte	0xa5
 793 0542 10       		.uleb128 0x10
 794 0543 D1050000 		.4byte	.LASF79
 795 0547 05       		.byte	0x5
 796 0548 2D       		.byte	0x2d
 797 0549 3D050000 		.4byte	0x53d
 798 054d 05       		.uleb128 0x5
 799 054e 03       		.byte	0x3
 800 054f 00000000 		.4byte	countAnimation2
 801 0553 10       		.uleb128 0x10
 802 0554 F3000000 		.4byte	.LASF80
 803 0558 05       		.byte	0x5
 804 0559 2E       		.byte	0x2e
 805 055a 3D050000 		.4byte	0x53d
 806 055e 05       		.uleb128 0x5
 807 055f 03       		.byte	0x3
 808 0560 00000000 		.4byte	countBeagleTX
 809 0564 10       		.uleb128 0x10
 810 0565 B2000000 		.4byte	.LASF81
 811 0569 05       		.byte	0x5
 812 056a 2F       		.byte	0x2f
 813 056b 3D050000 		.4byte	0x53d
 814 056f 05       		.uleb128 0x5
 815 0570 03       		.byte	0x3
 816 0571 00000000 		.4byte	countPump
 817 0575 10       		.uleb128 0x10
 818 0576 18040000 		.4byte	.LASF82
 819 057a 05       		.byte	0x5
 820 057b 30       		.byte	0x30
 821 057c BC000000 		.4byte	0xbc
 822 0580 05       		.uleb128 0x5
 823 0581 03       		.byte	0x3
 824 0582 00000000 		.4byte	flowLCD1
 825 0586 10       		.uleb128 0x10
 826 0587 AE040000 		.4byte	.LASF83
 827 058b 05       		.byte	0x5
 828 058c 31       		.byte	0x31
 829 058d BC000000 		.4byte	0xbc
 830 0591 05       		.uleb128 0x5
 831 0592 03       		.byte	0x3
 832 0593 00000000 		.4byte	flowLCD2
 833 0597 10       		.uleb128 0x10
 834 0598 C5020000 		.4byte	.LASF84
 835 059c 05       		.byte	0x5
 836 059d 32       		.byte	0x32
 837 059e B7000000 		.4byte	0xb7
 838 05a2 05       		.uleb128 0x5
 839 05a3 03       		.byte	0x3
 840 05a4 00000000 		.4byte	digits
ARM GAS  C:\Users\Lenovo\AppData\Local\Temp\ccMI0EZx.s 			page 17


 841 05a8 09       		.uleb128 0x9
 842 05a9 81000000 		.4byte	0x81
 843 05ad B8050000 		.4byte	0x5b8
 844 05b1 0A       		.uleb128 0xa
 845 05b2 C1000000 		.4byte	0xc1
 846 05b6 0B       		.byte	0xb
 847 05b7 00       		.byte	0
 848 05b8 10       		.uleb128 0x10
 849 05b9 EA000000 		.4byte	.LASF85
 850 05bd 05       		.byte	0x5
 851 05be 33       		.byte	0x33
 852 05bf C9050000 		.4byte	0x5c9
 853 05c3 05       		.uleb128 0x5
 854 05c4 03       		.byte	0x3
 855 05c5 00000000 		.4byte	ipAdress
 856 05c9 05       		.uleb128 0x5
 857 05ca A8050000 		.4byte	0x5a8
 858 05ce 10       		.uleb128 0x10
 859 05cf 60030000 		.4byte	.LASF86
 860 05d3 05       		.byte	0x5
 861 05d4 34       		.byte	0x34
 862 05d5 B7000000 		.4byte	0xb7
 863 05d9 05       		.uleb128 0x5
 864 05da 03       		.byte	0x3
 865 05db 00000000 		.4byte	numberKeys1
 866 05df 10       		.uleb128 0x10
 867 05e0 9D000000 		.4byte	.LASF87
 868 05e4 05       		.byte	0x5
 869 05e5 35       		.byte	0x35
 870 05e6 B7000000 		.4byte	0xb7
 871 05ea 05       		.uleb128 0x5
 872 05eb 03       		.byte	0x3
 873 05ec 00000000 		.4byte	numberKeys2
 874 05f0 10       		.uleb128 0x10
 875 05f1 9F010000 		.4byte	.LASF88
 876 05f5 05       		.byte	0x5
 877 05f6 36       		.byte	0x36
 878 05f7 B7000000 		.4byte	0xb7
 879 05fb 05       		.uleb128 0x5
 880 05fc 03       		.byte	0x3
 881 05fd 00000000 		.4byte	flagPoint1
 882 0601 10       		.uleb128 0x10
 883 0602 AA010000 		.4byte	.LASF89
 884 0606 05       		.byte	0x5
 885 0607 37       		.byte	0x37
 886 0608 B7000000 		.4byte	0xb7
 887 060c 05       		.uleb128 0x5
 888 060d 03       		.byte	0x3
 889 060e 00000000 		.4byte	flagPoint2
 890 0612 09       		.uleb128 0x9
 891 0613 81000000 		.4byte	0x81
 892 0617 28060000 		.4byte	0x628
 893 061b 0A       		.uleb128 0xa
 894 061c C1000000 		.4byte	0xc1
 895 0620 77       		.byte	0x77
 896 0621 0A       		.uleb128 0xa
 897 0622 C1000000 		.4byte	0xc1
ARM GAS  C:\Users\Lenovo\AppData\Local\Temp\ccMI0EZx.s 			page 18


 898 0626 07       		.byte	0x7
 899 0627 00       		.byte	0
 900 0628 10       		.uleb128 0x10
 901 0629 69020000 		.4byte	.LASF90
 902 062d 05       		.byte	0x5
 903 062e 38       		.byte	0x38
 904 062f 39060000 		.4byte	0x639
 905 0633 05       		.uleb128 0x5
 906 0634 03       		.byte	0x3
 907 0635 00000000 		.4byte	button
 908 0639 05       		.uleb128 0x5
 909 063a 12060000 		.4byte	0x612
 910 063e 10       		.uleb128 0x10
 911 063f B3050000 		.4byte	.LASF91
 912 0643 05       		.byte	0x5
 913 0644 39       		.byte	0x39
 914 0645 B7000000 		.4byte	0xb7
 915 0649 05       		.uleb128 0x5
 916 064a 03       		.byte	0x3
 917 064b 00000000 		.4byte	productNumber
 918 064f 10       		.uleb128 0x10
 919 0650 34030000 		.4byte	.LASF92
 920 0654 05       		.byte	0x5
 921 0655 3A       		.byte	0x3a
 922 0656 16040000 		.4byte	0x416
 923 065a 05       		.uleb128 0x5
 924 065b 03       		.byte	0x3
 925 065c 00000000 		.4byte	presetFast
 926 0660 10       		.uleb128 0x10
 927 0661 70020000 		.4byte	.LASF93
 928 0665 05       		.byte	0x5
 929 0666 3B       		.byte	0x3b
 930 0667 BC000000 		.4byte	0xbc
 931 066b 05       		.uleb128 0x5
 932 066c 03       		.byte	0x3
 933 066d 00000000 		.4byte	delayPicture1
 934 0671 10       		.uleb128 0x10
 935 0672 7E020000 		.4byte	.LASF94
 936 0676 05       		.byte	0x5
 937 0677 3C       		.byte	0x3c
 938 0678 BC000000 		.4byte	0xbc
 939 067c 05       		.uleb128 0x5
 940 067d 03       		.byte	0x3
 941 067e 00000000 		.4byte	delayPicture2
 942 0682 10       		.uleb128 0x10
 943 0683 B8030000 		.4byte	.LASF95
 944 0687 05       		.byte	0x5
 945 0688 3D       		.byte	0x3d
 946 0689 B7000000 		.4byte	0xb7
 947 068d 05       		.uleb128 0x5
 948 068e 03       		.byte	0x3
 949 068f 00000000 		.4byte	ppux10
 950 0693 10       		.uleb128 0x10
 951 0694 92010000 		.4byte	.LASF96
 952 0698 05       		.byte	0x5
 953 0699 3E       		.byte	0x3e
 954 069a B7000000 		.4byte	0xb7
ARM GAS  C:\Users\Lenovo\AppData\Local\Temp\ccMI0EZx.s 			page 19


 955 069e 05       		.uleb128 0x5
 956 069f 03       		.byte	0x3
 957 06a0 00000000 		.4byte	decimalMoney
 958 06a4 10       		.uleb128 0x10
 959 06a5 86030000 		.4byte	.LASF97
 960 06a9 05       		.byte	0x5
 961 06aa 3F       		.byte	0x3f
 962 06ab B7000000 		.4byte	0xb7
 963 06af 05       		.uleb128 0x5
 964 06b0 03       		.byte	0x3
 965 06b1 00000000 		.4byte	decimalVolume
 966 06b5 10       		.uleb128 0x10
 967 06b6 78040000 		.4byte	.LASF98
 968 06ba 05       		.byte	0x5
 969 06bb 40       		.byte	0x40
 970 06bc C6060000 		.4byte	0x6c6
 971 06c0 05       		.uleb128 0x5
 972 06c1 03       		.byte	0x3
 973 06c2 00000000 		.4byte	symbols
 974 06c6 05       		.uleb128 0x5
 975 06c7 74030000 		.4byte	0x374
 976 06cb 09       		.uleb128 0x9
 977 06cc 81000000 		.4byte	0x81
 978 06d0 DB060000 		.4byte	0x6db
 979 06d4 0A       		.uleb128 0xa
 980 06d5 C1000000 		.4byte	0xc1
 981 06d9 02       		.byte	0x2
 982 06da 00       		.byte	0
 983 06db 10       		.uleb128 0x10
 984 06dc 21040000 		.4byte	.LASF99
 985 06e0 05       		.byte	0x5
 986 06e1 41       		.byte	0x41
 987 06e2 EC060000 		.4byte	0x6ec
 988 06e6 05       		.uleb128 0x5
 989 06e7 03       		.byte	0x3
 990 06e8 00000000 		.4byte	time
 991 06ec 05       		.uleb128 0x5
 992 06ed CB060000 		.4byte	0x6cb
 993 06f1 10       		.uleb128 0x10
 994 06f2 22010000 		.4byte	.LASF100
 995 06f6 05       		.byte	0x5
 996 06f7 42       		.byte	0x42
 997 06f8 02070000 		.4byte	0x702
 998 06fc 05       		.uleb128 0x5
 999 06fd 03       		.byte	0x3
 1000 06fe 00000000 		.4byte	date
 1001 0702 05       		.uleb128 0x5
 1002 0703 CB060000 		.4byte	0x6cb
 1003 0707 10       		.uleb128 0x10
 1004 0708 6C030000 		.4byte	.LASF101
 1005 070c 05       		.byte	0x5
 1006 070d 43       		.byte	0x43
 1007 070e 18070000 		.4byte	0x718
 1008 0712 05       		.uleb128 0x5
 1009 0713 03       		.byte	0x3
 1010 0714 00000000 		.4byte	screen
 1011 0718 05       		.uleb128 0x5
ARM GAS  C:\Users\Lenovo\AppData\Local\Temp\ccMI0EZx.s 			page 20


 1012 0719 74030000 		.4byte	0x374
 1013 071d 10       		.uleb128 0x10
 1014 071e 51050000 		.4byte	.LASF102
 1015 0722 05       		.byte	0x5
 1016 0723 44       		.byte	0x44
 1017 0724 2E070000 		.4byte	0x72e
 1018 0728 05       		.uleb128 0x5
 1019 0729 03       		.byte	0x3
 1020 072a 00000000 		.4byte	residue
 1021 072e 05       		.uleb128 0x5
 1022 072f BA030000 		.4byte	0x3ba
 1023 0733 09       		.uleb128 0x9
 1024 0734 81000000 		.4byte	0x81
 1025 0738 43070000 		.4byte	0x743
 1026 073c 0A       		.uleb128 0xa
 1027 073d C1000000 		.4byte	0xc1
 1028 0741 1D       		.byte	0x1d
 1029 0742 00       		.byte	0
 1030 0743 10       		.uleb128 0x10
 1031 0744 24060000 		.4byte	.LASF103
 1032 0748 05       		.byte	0x5
 1033 0749 45       		.byte	0x45
 1034 074a 33070000 		.4byte	0x733
 1035 074e 05       		.uleb128 0x5
 1036 074f 03       		.byte	0x3
 1037 0750 00000000 		.4byte	temporal
 1038 0754 10       		.uleb128 0x10
 1039 0755 01010000 		.4byte	.LASF104
 1040 0759 05       		.byte	0x5
 1041 075a 46       		.byte	0x46
 1042 075b 33070000 		.4byte	0x733
 1043 075f 05       		.uleb128 0x5
 1044 0760 03       		.byte	0x3
 1045 0761 00000000 		.4byte	temporalCom
 1046 0765 10       		.uleb128 0x10
 1047 0766 02040000 		.4byte	.LASF105
 1048 076a 05       		.byte	0x5
 1049 076b 47       		.byte	0x47
 1050 076c B7000000 		.4byte	0xb7
 1051 0770 05       		.uleb128 0x5
 1052 0771 03       		.byte	0x3
 1053 0772 00000000 		.4byte	turn
 1054 0776 10       		.uleb128 0x10
 1055 0777 04030000 		.4byte	.LASF106
 1056 077b 05       		.byte	0x5
 1057 077c 48       		.byte	0x48
 1058 077d B7000000 		.4byte	0xb7
 1059 0781 05       		.uleb128 0x5
 1060 0782 03       		.byte	0x3
 1061 0783 00000000 		.4byte	lockTurn
 1062 0787 10       		.uleb128 0x10
 1063 0788 61010000 		.4byte	.LASF107
 1064 078c 05       		.byte	0x5
 1065 078d 49       		.byte	0x49
 1066 078e 98070000 		.4byte	0x798
 1067 0792 05       		.uleb128 0x5
 1068 0793 03       		.byte	0x3
ARM GAS  C:\Users\Lenovo\AppData\Local\Temp\ccMI0EZx.s 			page 21


 1069 0794 00000000 		.4byte	idSeller
 1070 0798 05       		.uleb128 0x5
 1071 0799 44030000 		.4byte	0x344
 1072 079d 10       		.uleb128 0x10
 1073 079e 17060000 		.4byte	.LASF108
 1074 07a2 05       		.byte	0x5
 1075 07a3 4A       		.byte	0x4a
 1076 07a4 B7000000 		.4byte	0xb7
 1077 07a8 05       		.uleb128 0x5
 1078 07a9 03       		.byte	0x3
 1079 07aa 00000000 		.4byte	typeIdSeller
 1080 07ae 09       		.uleb128 0x9
 1081 07af 81000000 		.4byte	0x81
 1082 07b3 BE070000 		.4byte	0x7be
 1083 07b7 0A       		.uleb128 0xa
 1084 07b8 C1000000 		.4byte	0xc1
 1085 07bc 07       		.byte	0x7
 1086 07bd 00       		.byte	0
 1087 07be 10       		.uleb128 0x10
 1088 07bf 0D030000 		.4byte	.LASF109
 1089 07c3 05       		.byte	0x5
 1090 07c4 4B       		.byte	0x4b
 1091 07c5 CF070000 		.4byte	0x7cf
 1092 07c9 05       		.uleb128 0x5
 1093 07ca 03       		.byte	0x3
 1094 07cb 00000000 		.4byte	passwordSeller
 1095 07cf 05       		.uleb128 0x5
 1096 07d0 AE070000 		.4byte	0x7ae
 1097 07d4 10       		.uleb128 0x10
 1098 07d5 2D060000 		.4byte	.LASF110
 1099 07d9 05       		.byte	0x5
 1100 07da 4C       		.byte	0x4c
 1101 07db B7000000 		.4byte	0xb7
 1102 07df 05       		.uleb128 0x5
 1103 07e0 03       		.byte	0x3
 1104 07e1 00000000 		.4byte	flagResetMux
 1105 07e5 10       		.uleb128 0x10
 1106 07e6 DA040000 		.4byte	.LASF111
 1107 07ea 05       		.byte	0x5
 1108 07eb 4D       		.byte	0x4d
 1109 07ec B7000000 		.4byte	0xb7
 1110 07f0 05       		.uleb128 0x5
 1111 07f1 03       		.byte	0x3
 1112 07f2 00000000 		.4byte	stateBeagleSoft
 1113 07f6 10       		.uleb128 0x10
 1114 07f7 3B050000 		.4byte	.LASF112
 1115 07fb 05       		.byte	0x5
 1116 07fc 8B       		.byte	0x8b
 1117 07fd C8000000 		.4byte	0xc8
 1118 0801 05       		.uleb128 0x5
 1119 0802 03       		.byte	0x3
 1120 0803 00000000 		.4byte	bufferLCD1
 1121 0807 10       		.uleb128 0x10
 1122 0808 46050000 		.4byte	.LASF113
 1123 080c 05       		.byte	0x5
 1124 080d 8C       		.byte	0x8c
 1125 080e C8000000 		.4byte	0xc8
ARM GAS  C:\Users\Lenovo\AppData\Local\Temp\ccMI0EZx.s 			page 22


 1126 0812 05       		.uleb128 0x5
 1127 0813 03       		.byte	0x3
 1128 0814 00000000 		.4byte	bufferLCD2
 1129 0818 10       		.uleb128 0x10
 1130 0819 05060000 		.4byte	.LASF114
 1131 081d 05       		.byte	0x5
 1132 081e A5       		.byte	0xa5
 1133 081f D0040000 		.4byte	0x4d0
 1134 0823 05       		.uleb128 0x5
 1135 0824 03       		.byte	0x3
 1136 0825 00000000 		.4byte	side
 1137 0829 00       		.byte	0
 1138              		.section	.debug_abbrev,"",%progbits
 1139              	.Ldebug_abbrev0:
 1140 0000 01       		.uleb128 0x1
 1141 0001 11       		.uleb128 0x11
 1142 0002 01       		.byte	0x1
 1143 0003 25       		.uleb128 0x25
 1144 0004 0E       		.uleb128 0xe
 1145 0005 13       		.uleb128 0x13
 1146 0006 0B       		.uleb128 0xb
 1147 0007 03       		.uleb128 0x3
 1148 0008 0E       		.uleb128 0xe
 1149 0009 1B       		.uleb128 0x1b
 1150 000a 0E       		.uleb128 0xe
 1151 000b 55       		.uleb128 0x55
 1152 000c 17       		.uleb128 0x17
 1153 000d 11       		.uleb128 0x11
 1154 000e 01       		.uleb128 0x1
 1155 000f 10       		.uleb128 0x10
 1156 0010 17       		.uleb128 0x17
 1157 0011 00       		.byte	0
 1158 0012 00       		.byte	0
 1159 0013 02       		.uleb128 0x2
 1160 0014 24       		.uleb128 0x24
 1161 0015 00       		.byte	0
 1162 0016 0B       		.uleb128 0xb
 1163 0017 0B       		.uleb128 0xb
 1164 0018 3E       		.uleb128 0x3e
 1165 0019 0B       		.uleb128 0xb
 1166 001a 03       		.uleb128 0x3
 1167 001b 0E       		.uleb128 0xe
 1168 001c 00       		.byte	0
 1169 001d 00       		.byte	0
 1170 001e 03       		.uleb128 0x3
 1171 001f 16       		.uleb128 0x16
 1172 0020 00       		.byte	0
 1173 0021 03       		.uleb128 0x3
 1174 0022 0E       		.uleb128 0xe
 1175 0023 3A       		.uleb128 0x3a
 1176 0024 0B       		.uleb128 0xb
 1177 0025 3B       		.uleb128 0x3b
 1178 0026 0B       		.uleb128 0xb
 1179 0027 49       		.uleb128 0x49
 1180 0028 13       		.uleb128 0x13
 1181 0029 00       		.byte	0
 1182 002a 00       		.byte	0
ARM GAS  C:\Users\Lenovo\AppData\Local\Temp\ccMI0EZx.s 			page 23


 1183 002b 04       		.uleb128 0x4
 1184 002c 24       		.uleb128 0x24
 1185 002d 00       		.byte	0
 1186 002e 0B       		.uleb128 0xb
 1187 002f 0B       		.uleb128 0xb
 1188 0030 3E       		.uleb128 0x3e
 1189 0031 0B       		.uleb128 0xb
 1190 0032 03       		.uleb128 0x3
 1191 0033 08       		.uleb128 0x8
 1192 0034 00       		.byte	0
 1193 0035 00       		.byte	0
 1194 0036 05       		.uleb128 0x5
 1195 0037 35       		.uleb128 0x35
 1196 0038 00       		.byte	0
 1197 0039 49       		.uleb128 0x49
 1198 003a 13       		.uleb128 0x13
 1199 003b 00       		.byte	0
 1200 003c 00       		.byte	0
 1201 003d 06       		.uleb128 0x6
 1202 003e 13       		.uleb128 0x13
 1203 003f 01       		.byte	0x1
 1204 0040 03       		.uleb128 0x3
 1205 0041 0E       		.uleb128 0xe
 1206 0042 0B       		.uleb128 0xb
 1207 0043 05       		.uleb128 0x5
 1208 0044 3A       		.uleb128 0x3a
 1209 0045 0B       		.uleb128 0xb
 1210 0046 3B       		.uleb128 0x3b
 1211 0047 0B       		.uleb128 0xb
 1212 0048 01       		.uleb128 0x1
 1213 0049 13       		.uleb128 0x13
 1214 004a 00       		.byte	0
 1215 004b 00       		.byte	0
 1216 004c 07       		.uleb128 0x7
 1217 004d 0D       		.uleb128 0xd
 1218 004e 00       		.byte	0
 1219 004f 03       		.uleb128 0x3
 1220 0050 0E       		.uleb128 0xe
 1221 0051 3A       		.uleb128 0x3a
 1222 0052 0B       		.uleb128 0xb
 1223 0053 3B       		.uleb128 0x3b
 1224 0054 0B       		.uleb128 0xb
 1225 0055 49       		.uleb128 0x49
 1226 0056 13       		.uleb128 0x13
 1227 0057 38       		.uleb128 0x38
 1228 0058 0B       		.uleb128 0xb
 1229 0059 00       		.byte	0
 1230 005a 00       		.byte	0
 1231 005b 08       		.uleb128 0x8
 1232 005c 0D       		.uleb128 0xd
 1233 005d 00       		.byte	0
 1234 005e 03       		.uleb128 0x3
 1235 005f 0E       		.uleb128 0xe
 1236 0060 3A       		.uleb128 0x3a
 1237 0061 0B       		.uleb128 0xb
 1238 0062 3B       		.uleb128 0x3b
 1239 0063 0B       		.uleb128 0xb
ARM GAS  C:\Users\Lenovo\AppData\Local\Temp\ccMI0EZx.s 			page 24


 1240 0064 49       		.uleb128 0x49
 1241 0065 13       		.uleb128 0x13
 1242 0066 38       		.uleb128 0x38
 1243 0067 05       		.uleb128 0x5
 1244 0068 00       		.byte	0
 1245 0069 00       		.byte	0
 1246 006a 09       		.uleb128 0x9
 1247 006b 01       		.uleb128 0x1
 1248 006c 01       		.byte	0x1
 1249 006d 49       		.uleb128 0x49
 1250 006e 13       		.uleb128 0x13
 1251 006f 01       		.uleb128 0x1
 1252 0070 13       		.uleb128 0x13
 1253 0071 00       		.byte	0
 1254 0072 00       		.byte	0
 1255 0073 0A       		.uleb128 0xa
 1256 0074 21       		.uleb128 0x21
 1257 0075 00       		.byte	0
 1258 0076 49       		.uleb128 0x49
 1259 0077 13       		.uleb128 0x13
 1260 0078 2F       		.uleb128 0x2f
 1261 0079 0B       		.uleb128 0xb
 1262 007a 00       		.byte	0
 1263 007b 00       		.byte	0
 1264 007c 0B       		.uleb128 0xb
 1265 007d 0D       		.uleb128 0xd
 1266 007e 00       		.byte	0
 1267 007f 03       		.uleb128 0x3
 1268 0080 08       		.uleb128 0x8
 1269 0081 3A       		.uleb128 0x3a
 1270 0082 0B       		.uleb128 0xb
 1271 0083 3B       		.uleb128 0x3b
 1272 0084 0B       		.uleb128 0xb
 1273 0085 49       		.uleb128 0x49
 1274 0086 13       		.uleb128 0x13
 1275 0087 38       		.uleb128 0x38
 1276 0088 0B       		.uleb128 0xb
 1277 0089 00       		.byte	0
 1278 008a 00       		.byte	0
 1279 008b 0C       		.uleb128 0xc
 1280 008c 0D       		.uleb128 0xd
 1281 008d 00       		.byte	0
 1282 008e 03       		.uleb128 0x3
 1283 008f 08       		.uleb128 0x8
 1284 0090 3A       		.uleb128 0x3a
 1285 0091 0B       		.uleb128 0xb
 1286 0092 3B       		.uleb128 0x3b
 1287 0093 0B       		.uleb128 0xb
 1288 0094 49       		.uleb128 0x49
 1289 0095 13       		.uleb128 0x13
 1290 0096 38       		.uleb128 0x38
 1291 0097 05       		.uleb128 0x5
 1292 0098 00       		.byte	0
 1293 0099 00       		.byte	0
 1294 009a 0D       		.uleb128 0xd
 1295 009b 2E       		.uleb128 0x2e
 1296 009c 01       		.byte	0x1
ARM GAS  C:\Users\Lenovo\AppData\Local\Temp\ccMI0EZx.s 			page 25


 1297 009d 3F       		.uleb128 0x3f
 1298 009e 19       		.uleb128 0x19
 1299 009f 03       		.uleb128 0x3
 1300 00a0 0E       		.uleb128 0xe
 1301 00a1 3A       		.uleb128 0x3a
 1302 00a2 0B       		.uleb128 0xb
 1303 00a3 3B       		.uleb128 0x3b
 1304 00a4 0B       		.uleb128 0xb
 1305 00a5 49       		.uleb128 0x49
 1306 00a6 13       		.uleb128 0x13
 1307 00a7 11       		.uleb128 0x11
 1308 00a8 01       		.uleb128 0x1
 1309 00a9 12       		.uleb128 0x12
 1310 00aa 06       		.uleb128 0x6
 1311 00ab 40       		.uleb128 0x40
 1312 00ac 18       		.uleb128 0x18
 1313 00ad 9642     		.uleb128 0x2116
 1314 00af 19       		.uleb128 0x19
 1315 00b0 01       		.uleb128 0x1
 1316 00b1 13       		.uleb128 0x13
 1317 00b2 00       		.byte	0
 1318 00b3 00       		.byte	0
 1319 00b4 0E       		.uleb128 0xe
 1320 00b5 34       		.uleb128 0x34
 1321 00b6 00       		.byte	0
 1322 00b7 03       		.uleb128 0x3
 1323 00b8 0E       		.uleb128 0xe
 1324 00b9 3A       		.uleb128 0x3a
 1325 00ba 0B       		.uleb128 0xb
 1326 00bb 3B       		.uleb128 0x3b
 1327 00bc 0B       		.uleb128 0xb
 1328 00bd 49       		.uleb128 0x49
 1329 00be 13       		.uleb128 0x13
 1330 00bf 02       		.uleb128 0x2
 1331 00c0 18       		.uleb128 0x18
 1332 00c1 00       		.byte	0
 1333 00c2 00       		.byte	0
 1334 00c3 0F       		.uleb128 0xf
 1335 00c4 34       		.uleb128 0x34
 1336 00c5 00       		.byte	0
 1337 00c6 03       		.uleb128 0x3
 1338 00c7 0E       		.uleb128 0xe
 1339 00c8 3A       		.uleb128 0x3a
 1340 00c9 0B       		.uleb128 0xb
 1341 00ca 3B       		.uleb128 0x3b
 1342 00cb 05       		.uleb128 0x5
 1343 00cc 49       		.uleb128 0x49
 1344 00cd 13       		.uleb128 0x13
 1345 00ce 3F       		.uleb128 0x3f
 1346 00cf 19       		.uleb128 0x19
 1347 00d0 3C       		.uleb128 0x3c
 1348 00d1 19       		.uleb128 0x19
 1349 00d2 00       		.byte	0
 1350 00d3 00       		.byte	0
 1351 00d4 10       		.uleb128 0x10
 1352 00d5 34       		.uleb128 0x34
 1353 00d6 00       		.byte	0
ARM GAS  C:\Users\Lenovo\AppData\Local\Temp\ccMI0EZx.s 			page 26


 1354 00d7 03       		.uleb128 0x3
 1355 00d8 0E       		.uleb128 0xe
 1356 00d9 3A       		.uleb128 0x3a
 1357 00da 0B       		.uleb128 0xb
 1358 00db 3B       		.uleb128 0x3b
 1359 00dc 0B       		.uleb128 0xb
 1360 00dd 49       		.uleb128 0x49
 1361 00de 13       		.uleb128 0x13
 1362 00df 3F       		.uleb128 0x3f
 1363 00e0 19       		.uleb128 0x19
 1364 00e1 02       		.uleb128 0x2
 1365 00e2 18       		.uleb128 0x18
 1366 00e3 00       		.byte	0
 1367 00e4 00       		.byte	0
 1368 00e5 00       		.byte	0
 1369              		.section	.debug_aranges,"",%progbits
 1370 0000 1C000000 		.4byte	0x1c
 1371 0004 0200     		.2byte	0x2
 1372 0006 00000000 		.4byte	.Ldebug_info0
 1373 000a 04       		.byte	0x4
 1374 000b 00       		.byte	0
 1375 000c 0000     		.2byte	0
 1376 000e 0000     		.2byte	0
 1377 0010 00000000 		.4byte	.LFB56
 1378 0014 68000000 		.4byte	.LFE56-.LFB56
 1379 0018 00000000 		.4byte	0
 1380 001c 00000000 		.4byte	0
 1381              		.section	.debug_ranges,"",%progbits
 1382              	.Ldebug_ranges0:
 1383 0000 00000000 		.4byte	.LFB56
 1384 0004 68000000 		.4byte	.LFE56
 1385 0008 00000000 		.4byte	0
 1386 000c 00000000 		.4byte	0
 1387              		.section	.debug_line,"",%progbits
 1388              	.Ldebug_line0:
 1389 0000 7F010000 		.section	.debug_str,"MS",%progbits,1
 1389      02005D01 
 1389      00000201 
 1389      FB0E0D00 
 1389      01010101 
 1390              	.LASF54:
 1391 0000 6D6F6E65 		.ascii	"moneyQuota\000"
 1391      7951756F 
 1391      746100
 1392              	.LASF34:
 1393 000b 70726F64 		.ascii	"productType\000"
 1393      75637454 
 1393      79706500 
 1394              	.LASF5:
 1395 0017 6C6F6E67 		.ascii	"long unsigned int\000"
 1395      20756E73 
 1395      69676E65 
 1395      6420696E 
 1395      7400
 1396              	.LASF36:
 1397 0029 64617465 		.ascii	"dateLiftHandle\000"
 1397      4C696674 
ARM GAS  C:\Users\Lenovo\AppData\Local\Temp\ccMI0EZx.s 			page 27


 1397      48616E64 
 1397      6C6500
 1398              	.LASF19:
 1399 0038 69645365 		.ascii	"idSerial\000"
 1399      7269616C 
 1399      00
 1400              	.LASF2:
 1401 0041 73686F72 		.ascii	"short int\000"
 1401      7420696E 
 1401      7400
 1402              	.LASF117:
 1403 004b 433A5C55 		.ascii	"C:\\Users\\Lenovo\\Desktop\\Hardware\\Software Mux\\"
 1403      73657273 
 1403      5C4C656E 
 1403      6F766F5C 
 1403      4465736B 
 1404 0079 4D757820 		.ascii	"Mux Advance Encore\\MuxAdvance.cydsn\000"
 1404      41647661 
 1404      6E636520 
 1404      456E636F 
 1404      72655C4D 
 1405              	.LASF87:
 1406 009d 6E756D62 		.ascii	"numberKeys2\000"
 1406      65724B65 
 1406      79733200 
 1407              	.LASF17:
 1408 00a9 73697A65 		.ascii	"sizetype\000"
 1408      74797065 
 1408      00
 1409              	.LASF81:
 1410 00b2 636F756E 		.ascii	"countPump\000"
 1410      7450756D 
 1410      7000
 1411              	.LASF35:
 1412 00bc 73746174 		.ascii	"stateMux\000"
 1412      654D7578 
 1412      00
 1413              	.LASF30:
 1414 00c5 73616C65 		.ascii	"saleType\000"
 1414      54797065 
 1414      00
 1415              	.LASF66:
 1416 00ce 7072696E 		.ascii	"printers\000"
 1416      74657273 
 1416      00
 1417              	.LASF25:
 1418 00d7 73657269 		.ascii	"serialSelectedSale\000"
 1418      616C5365 
 1418      6C656374 
 1418      65645361 
 1418      6C6500
 1419              	.LASF85:
 1420 00ea 69704164 		.ascii	"ipAdress\000"
 1420      72657373 
 1420      00
 1421              	.LASF80:
 1422 00f3 636F756E 		.ascii	"countBeagleTX\000"
ARM GAS  C:\Users\Lenovo\AppData\Local\Temp\ccMI0EZx.s 			page 28


 1422      74426561 
 1422      676C6554 
 1422      5800
 1423              	.LASF104:
 1424 0101 74656D70 		.ascii	"temporalCom\000"
 1424      6F72616C 
 1424      436F6D00 
 1425              	.LASF56:
 1426 010d 70707551 		.ascii	"ppuQuota\000"
 1426      756F7461 
 1426      00
 1427              	.LASF46:
 1428 0116 6C696365 		.ascii	"licenceSale\000"
 1428      6E636553 
 1428      616C6500 
 1429              	.LASF100:
 1430 0122 64617465 		.ascii	"date\000"
 1430      00
 1431              	.LASF33:
 1432 0127 70726573 		.ascii	"presetValue\000"
 1432      65745661 
 1432      6C756500 
 1433              	.LASF21:
 1434 0133 77617954 		.ascii	"wayToPay\000"
 1434      6F506179 
 1434      00
 1435              	.LASF31:
 1436 013c 73616C65 		.ascii	"salePerform\000"
 1436      50657266 
 1436      6F726D00 
 1437              	.LASF47:
 1438 0148 6D696C65 		.ascii	"mileageSale\000"
 1438      61676553 
 1438      616C6500 
 1439              	.LASF18:
 1440 0154 69645479 		.ascii	"idType\000"
 1440      706500
 1441              	.LASF11:
 1442 015b 75696E74 		.ascii	"uint8\000"
 1442      3800
 1443              	.LASF107:
 1444 0161 69645365 		.ascii	"idSeller\000"
 1444      6C6C6572 
 1444      00
 1445              	.LASF0:
 1446 016a 7369676E 		.ascii	"signed char\000"
 1446      65642063 
 1446      68617200 
 1447              	.LASF69:
 1448 0176 706F7369 		.ascii	"position\000"
 1448      74696F6E 
 1448      00
 1449              	.LASF70:
 1450 017f 746F7461 		.ascii	"totalsHandle\000"
 1450      6C734861 
 1450      6E646C65 
 1450      00
ARM GAS  C:\Users\Lenovo\AppData\Local\Temp\ccMI0EZx.s 			page 29


 1451              	.LASF13:
 1452 018c 666C6F61 		.ascii	"float\000"
 1452      7400
 1453              	.LASF96:
 1454 0192 64656369 		.ascii	"decimalMoney\000"
 1454      6D616C4D 
 1454      6F6E6579 
 1454      00
 1455              	.LASF88:
 1456 019f 666C6167 		.ascii	"flagPoint1\000"
 1456      506F696E 
 1456      743100
 1457              	.LASF89:
 1458 01aa 666C6167 		.ascii	"flagPoint2\000"
 1458      506F696E 
 1458      743200
 1459              	.LASF6:
 1460 01b5 6C6F6E67 		.ascii	"long long int\000"
 1460      206C6F6E 
 1460      6720696E 
 1460      7400
 1461              	.LASF26:
 1462 01c3 6B657962 		.ascii	"keyboardWayToPay\000"
 1462      6F617264 
 1462      57617954 
 1462      6F506179 
 1462      00
 1463              	.LASF115:
 1464 01d4 474E5520 		.ascii	"GNU C 4.9.3 20150303 (release) [ARM/embedded-4_9-br"
 1464      4320342E 
 1464      392E3320 
 1464      32303135 
 1464      30333033 
 1465 0207 616E6368 		.ascii	"anch revision 221220] -mcpu=cortex-m3 -mthumb -g -O"
 1465      20726576 
 1465      6973696F 
 1465      6E203232 
 1465      31323230 
 1466 023a 30202D66 		.ascii	"0 -ffunction-sections -ffat-lto-objects\000"
 1466      66756E63 
 1466      74696F6E 
 1466      2D736563 
 1466      74696F6E 
 1467              	.LASF15:
 1468 0262 75696E74 		.ascii	"uint64\000"
 1468      363400
 1469              	.LASF90:
 1470 0269 62757474 		.ascii	"button\000"
 1470      6F6E00
 1471              	.LASF93:
 1472 0270 64656C61 		.ascii	"delayPicture1\000"
 1472      79506963 
 1472      74757265 
 1472      3100
 1473              	.LASF94:
 1474 027e 64656C61 		.ascii	"delayPicture2\000"
 1474      79506963 
ARM GAS  C:\Users\Lenovo\AppData\Local\Temp\ccMI0EZx.s 			page 30


 1474      74757265 
 1474      3200
 1475              	.LASF51:
 1476 028c 666C6167 		.ascii	"flagLiftHandle\000"
 1476      4C696674 
 1476      48616E64 
 1476      6C6500
 1477              	.LASF41:
 1478 029b 746F7461 		.ascii	"totalVolumePrevious\000"
 1478      6C566F6C 
 1478      756D6550 
 1478      72657669 
 1478      6F757300 
 1479              	.LASF28:
 1480 02af 76616C75 		.ascii	"valueKeys\000"
 1480      654B6579 
 1480      7300
 1481              	.LASF116:
 1482 02b9 2E5C636F 		.ascii	".\\codebar.c\000"
 1482      64656261 
 1482      722E6300 
 1483              	.LASF84:
 1484 02c5 64696769 		.ascii	"digits\000"
 1484      747300
 1485              	.LASF52:
 1486 02cc 666C6167 		.ascii	"flagEndSale\000"
 1486      456E6453 
 1486      616C6500 
 1487              	.LASF71:
 1488 02d8 70707541 		.ascii	"ppuAuthorized\000"
 1488      7574686F 
 1488      72697A65 
 1488      6400
 1489              	.LASF43:
 1490 02e6 746F7461 		.ascii	"totalMoneyAfter\000"
 1490      6C4D6F6E 
 1490      65794166 
 1490      74657200 
 1491              	.LASF1:
 1492 02f6 756E7369 		.ascii	"unsigned char\000"
 1492      676E6564 
 1492      20636861 
 1492      7200
 1493              	.LASF106:
 1494 0304 6C6F636B 		.ascii	"lockTurn\000"
 1494      5475726E 
 1494      00
 1495              	.LASF109:
 1496 030d 70617373 		.ascii	"passwordSeller\000"
 1496      776F7264 
 1496      53656C6C 
 1496      657200
 1497              	.LASF32:
 1498 031c 70726573 		.ascii	"presetType\000"
 1498      65745479 
 1498      706500
 1499              	.LASF49:
ARM GAS  C:\Users\Lenovo\AppData\Local\Temp\ccMI0EZx.s 			page 31


 1500 0327 666C6167 		.ascii	"flagKeyboard\000"
 1500      4B657962 
 1500      6F617264 
 1500      00
 1501              	.LASF92:
 1502 0334 70726573 		.ascii	"presetFast\000"
 1502      65744661 
 1502      737400
 1503              	.LASF59:
 1504 033f 7175616E 		.ascii	"quantityMarket\000"
 1504      74697479 
 1504      4D61726B 
 1504      657400
 1505              	.LASF24:
 1506 034e 6D6F6E65 		.ascii	"moneySelectedSale\000"
 1506      7953656C 
 1506      65637465 
 1506      6453616C 
 1506      6500
 1507              	.LASF86:
 1508 0360 6E756D62 		.ascii	"numberKeys1\000"
 1508      65724B65 
 1508      79733100 
 1509              	.LASF101:
 1510 036c 73637265 		.ascii	"screen\000"
 1510      656E00
 1511              	.LASF60:
 1512 0373 7175616E 		.ascii	"quantAvailableMark\000"
 1512      74417661 
 1512      696C6162 
 1512      6C654D61 
 1512      726B00
 1513              	.LASF97:
 1514 0386 64656369 		.ascii	"decimalVolume\000"
 1514      6D616C56 
 1514      6F6C756D 
 1514      6500
 1515              	.LASF57:
 1516 0394 73657269 		.ascii	"serialMarket\000"
 1516      616C4D61 
 1516      726B6574 
 1516      00
 1517              	.LASF7:
 1518 03a1 6C6F6E67 		.ascii	"long long unsigned int\000"
 1518      206C6F6E 
 1518      6720756E 
 1518      7369676E 
 1518      65642069 
 1519              	.LASF95:
 1520 03b8 70707578 		.ascii	"ppux10\000"
 1520      313000
 1521              	.LASF40:
 1522 03bf 746F7461 		.ascii	"totalMoneyPrevious\000"
 1522      6C4D6F6E 
 1522      65795072 
 1522      6576696F 
 1522      757300
ARM GAS  C:\Users\Lenovo\AppData\Local\Temp\ccMI0EZx.s 			page 32


 1523              	.LASF8:
 1524 03d2 756E7369 		.ascii	"unsigned int\000"
 1524      676E6564 
 1524      20696E74 
 1524      00
 1525              	.LASF74:
 1526 03df 70707553 		.ascii	"ppuSale\000"
 1526      616C6500 
 1527              	.LASF48:
 1528 03e7 6964656E 		.ascii	"identySale\000"
 1528      74795361 
 1528      6C6500
 1529              	.LASF62:
 1530 03f2 70726963 		.ascii	"priceUnitMarket\000"
 1530      65556E69 
 1530      744D6172 
 1530      6B657400 
 1531              	.LASF105:
 1532 0402 7475726E 		.ascii	"turn\000"
 1532      00
 1533              	.LASF44:
 1534 0407 746F7461 		.ascii	"totalVolumeAfter\000"
 1534      6C566F6C 
 1534      756D6541 
 1534      66746572 
 1534      00
 1535              	.LASF82:
 1536 0418 666C6F77 		.ascii	"flowLCD1\000"
 1536      4C434431 
 1536      00
 1537              	.LASF99:
 1538 0421 74696D65 		.ascii	"time\000"
 1538      00
 1539              	.LASF58:
 1540 0426 70726F64 		.ascii	"productMarket\000"
 1540      7563744D 
 1540      61726B65 
 1540      7400
 1541              	.LASF73:
 1542 0434 766F6C75 		.ascii	"volumeSale\000"
 1542      6D655361 
 1542      6C6500
 1543              	.LASF55:
 1544 043f 766F6C75 		.ascii	"volumeQuota\000"
 1544      6D655175 
 1544      6F746100 
 1545              	.LASF50:
 1546 044b 666C6167 		.ascii	"flagPayment\000"
 1546      5061796D 
 1546      656E7400 
 1547              	.LASF72:
 1548 0457 6D6F6E65 		.ascii	"moneySale\000"
 1548      7953616C 
 1548      6500
 1549              	.LASF22:
 1550 0461 666C6167 		.ascii	"flagWayToPayMixed\000"
 1550      57617954 
ARM GAS  C:\Users\Lenovo\AppData\Local\Temp\ccMI0EZx.s 			page 33


 1550      6F506179 
 1550      4D697865 
 1550      6400
 1551              	.LASF16:
 1552 0473 63686172 		.ascii	"char\000"
 1552      00
 1553              	.LASF98:
 1554 0478 73796D62 		.ascii	"symbols\000"
 1554      6F6C7300 
 1555              	.LASF4:
 1556 0480 6C6F6E67 		.ascii	"long int\000"
 1556      20696E74 
 1556      00
 1557              	.LASF10:
 1558 0489 696E7433 		.ascii	"int32_t\000"
 1558      325F7400 
 1559              	.LASF38:
 1560 0491 74696D65 		.ascii	"timeLiftHandle\000"
 1560      4C696674 
 1560      48616E64 
 1560      6C6500
 1561              	.LASF45:
 1562 04a0 746F7461 		.ascii	"totalPPUAfter\000"
 1562      6C505055 
 1562      41667465 
 1562      7200
 1563              	.LASF83:
 1564 04ae 666C6F77 		.ascii	"flowLCD2\000"
 1564      4C434432 
 1564      00
 1565              	.LASF118:
 1566 04b7 73657269 		.ascii	"serial_codebar\000"
 1566      616C5F63 
 1566      6F646562 
 1566      617200
 1567              	.LASF37:
 1568 04c6 64617465 		.ascii	"dateDownHandle\000"
 1568      446F776E 
 1568      48616E64 
 1568      6C6500
 1569              	.LASF76:
 1570 04d5 70756D70 		.ascii	"pump\000"
 1570      00
 1571              	.LASF111:
 1572 04da 73746174 		.ascii	"stateBeagleSoft\000"
 1572      65426561 
 1572      676C6553 
 1572      6F667400 
 1573              	.LASF65:
 1574 04ea 70726963 		.ascii	"priceConsign\000"
 1574      65436F6E 
 1574      7369676E 
 1574      00
 1575              	.LASF68:
 1576 04f7 62756666 		.ascii	"buffer\000"
 1576      657200
 1577              	.LASF3:
ARM GAS  C:\Users\Lenovo\AppData\Local\Temp\ccMI0EZx.s 			page 34


 1578 04fe 73686F72 		.ascii	"short unsigned int\000"
 1578      7420756E 
 1578      7369676E 
 1578      65642069 
 1578      6E7400
 1579              	.LASF12:
 1580 0511 75696E74 		.ascii	"uint32\000"
 1580      333200
 1581              	.LASF29:
 1582 0518 76656869 		.ascii	"vehicleType\000"
 1582      636C6554 
 1582      79706500 
 1583              	.LASF53:
 1584 0524 6D657373 		.ascii	"message\000"
 1584      61676500 
 1585              	.LASF39:
 1586 052c 74696D65 		.ascii	"timeDownHandle\000"
 1586      446F776E 
 1586      48616E64 
 1586      6C6500
 1587              	.LASF112:
 1588 053b 62756666 		.ascii	"bufferLCD1\000"
 1588      65724C43 
 1588      443100
 1589              	.LASF113:
 1590 0546 62756666 		.ascii	"bufferLCD2\000"
 1590      65724C43 
 1590      443200
 1591              	.LASF102:
 1592 0551 72657369 		.ascii	"residue\000"
 1592      64756500 
 1593              	.LASF64:
 1594 0559 666C6167 		.ascii	"flagProductmarket\000"
 1594      50726F64 
 1594      7563746D 
 1594      61726B65 
 1594      7400
 1595              	.LASF119:
 1596 056b 73697A65 		.ascii	"size\000"
 1596      00
 1597              	.LASF20:
 1598 0570 69645365 		.ascii	"idSerialCom\000"
 1598      7269616C 
 1598      436F6D00 
 1599              	.LASF67:
 1600 057c 666C6167 		.ascii	"flagChangePPU\000"
 1600      4368616E 
 1600      67655050 
 1600      5500
 1601              	.LASF23:
 1602 058a 73656C65 		.ascii	"selectedSale\000"
 1602      63746564 
 1602      53616C65 
 1602      00
 1603              	.LASF9:
 1604 0597 5F5F696E 		.ascii	"__int32_t\000"
 1604      7433325F 
ARM GAS  C:\Users\Lenovo\AppData\Local\Temp\ccMI0EZx.s 			page 35


 1604      7400
 1605              	.LASF27:
 1606 05a1 61757468 		.ascii	"authorizationFlag\000"
 1606      6F72697A 
 1606      6174696F 
 1606      6E466C61 
 1606      6700
 1607              	.LASF91:
 1608 05b3 70726F64 		.ascii	"productNumber\000"
 1608      7563744E 
 1608      756D6265 
 1608      7200
 1609              	.LASF78:
 1610 05c1 636F756E 		.ascii	"countAnimation1\000"
 1610      74416E69 
 1610      6D617469 
 1610      6F6E3100 
 1611              	.LASF79:
 1612 05d1 636F756E 		.ascii	"countAnimation2\000"
 1612      74416E69 
 1612      6D617469 
 1612      6F6E3200 
 1613              	.LASF75:
 1614 05e1 70726F64 		.ascii	"productSale\000"
 1614      75637453 
 1614      616C6500 
 1615              	.LASF42:
 1616 05ed 746F7461 		.ascii	"totalPPUPrevious\000"
 1616      6C505055 
 1616      50726576 
 1616      696F7573 
 1616      00
 1617              	.LASF14:
 1618 05fe 646F7562 		.ascii	"double\000"
 1618      6C6500
 1619              	.LASF114:
 1620 0605 73696465 		.ascii	"side\000"
 1620      00
 1621              	.LASF77:
 1622 060a 49544D5F 		.ascii	"ITM_RxBuffer\000"
 1622      52784275 
 1622      66666572 
 1622      00
 1623              	.LASF108:
 1624 0617 74797065 		.ascii	"typeIdSeller\000"
 1624      49645365 
 1624      6C6C6572 
 1624      00
 1625              	.LASF103:
 1626 0624 74656D70 		.ascii	"temporal\000"
 1626      6F72616C 
 1626      00
 1627              	.LASF110:
 1628 062d 666C6167 		.ascii	"flagResetMux\000"
 1628      52657365 
 1628      744D7578 
 1628      00
ARM GAS  C:\Users\Lenovo\AppData\Local\Temp\ccMI0EZx.s 			page 36


 1629              	.LASF61:
 1630 063a 70726963 		.ascii	"priceTotalMarket\000"
 1630      65546F74 
 1630      616C4D61 
 1630      726B6574 
 1630      00
 1631              	.LASF63:
 1632 064b 746F7461 		.ascii	"totalMarket\000"
 1632      6C4D6172 
 1632      6B657400 
 1633              		.ident	"GCC: (GNU Tools for ARM Embedded Processors) 4.9.3 20150303 (release) [ARM/embedded-4_9-br
