ARM GAS  C:\Users\PROYEC~1\AppData\Local\Temp\ccfWqKHS.s 			page 1


   1              		.syntax unified
   2              		.cpu cortex-m3
   3              		.fpu softvfp
   4              		.eabi_attribute 20, 1
   5              		.eabi_attribute 21, 1
   6              		.eabi_attribute 23, 3
   7              		.eabi_attribute 24, 1
   8              		.eabi_attribute 25, 1
   9              		.eabi_attribute 26, 1
  10              		.eabi_attribute 30, 6
  11              		.eabi_attribute 34, 1
  12              		.eabi_attribute 18, 4
  13              		.thumb
  14              		.file	"I2C.c"
  15              		.text
  16              	.Ltext0:
  17              		.cfi_sections	.debug_frame
  18              		.comm	countAnimation1,8,8
  19              		.comm	countAnimation2,8,8
  20              		.comm	countBeagleTX,8,8
  21              		.comm	flowLCD1,4,4
  22              		.comm	flowLCD2,4,4
  23              		.comm	digits,1,1
  24              		.comm	ipAdress,12,4
  25              		.comm	numberKeys1,1,1
  26              		.comm	numberKeys2,1,1
  27              		.comm	flagPoint1,1,1
  28              		.comm	flagPoint2,1,1
  29              		.comm	button,960,4
  30              		.comm	productNumber,1,1
  31              		.comm	presetFast,30,4
  32              		.comm	delayPicture1,4,4
  33              		.comm	delayPicture2,4,4
  34              		.comm	ppux10,1,1
  35              		.comm	decimalMoney,1,1
  36              		.comm	decimalVolume,1,1
  37              		.comm	symbols,2,4
  38              		.comm	time,3,4
  39              		.comm	date,3,4
  40              		.comm	screen,2,4
  41              		.comm	residue,14,4
  42              		.comm	temporal,30,4
  43              		.comm	turn,1,1
  44              		.comm	idSeller,25,4
  45              		.comm	typeIdSeller,1,1
  46              		.comm	passwordSeller,8,4
  47              		.comm	flagResetMux,1,1
  48              		.comm	bufferLCD1,635,4
  49              		.comm	bufferLCD2,635,4
  50              		.comm	side,512,4
  51              		.section	.text.read_time,"ax",%progbits
  52              		.align	2
  53              		.global	read_time
  54              		.thumb
  55              		.thumb_func
  56              		.type	read_time, %function
  57              	read_time:
ARM GAS  C:\Users\PROYEC~1\AppData\Local\Temp\ccfWqKHS.s 			page 2


  58              	.LFB56:
  59              		.file 1 ".\\I2C.c"
   1:.\I2C.c       **** /*
   2:.\I2C.c       **** ***************************************************************************************************
   3:.\I2C.c       **** *                                         MUX ADVANCE CODE
   4:.\I2C.c       **** *
   5:.\I2C.c       **** *                             (c) Copyright 2015; Sistemas Insepet LTDA
   6:.\I2C.c       **** *
   7:.\I2C.c       **** *               All rights reserved.  Protected by international copyright laws.
   8:.\I2C.c       **** *               Knowledge of the source code may NOT be used to develop a similar product.
   9:.\I2C.c       **** *               Please help us continue to provide the Embedded community with the finest
  10:.\I2C.c       **** *               software available.  Your honesty is greatly appreciated.
  11:.\I2C.c       **** ***************************************************************************************************
  12:.\I2C.c       **** */
  13:.\I2C.c       **** 
  14:.\I2C.c       **** /*
  15:.\I2C.c       **** ***************************************************************************************************
  16:.\I2C.c       **** *
  17:.\I2C.c       **** *                                            MUX ADVANCE CODE
  18:.\I2C.c       **** *
  19:.\I2C.c       **** *                                             CYPRESS PSoC5LP
  20:.\I2C.c       **** *                                                with the
  21:.\I2C.c       **** *                                            CY8C5969AXI-LP035
  22:.\I2C.c       **** *
  23:.\I2C.c       **** * Filename      : I2C.c
  24:.\I2C.c       **** * Version       : V1.00
  25:.\I2C.c       **** * Programmer(s) : 
  26:.\I2C.c       ****                   
  27:.\I2C.c       **** ***************************************************************************************************
  28:.\I2C.c       **** */
  29:.\I2C.c       **** 
  30:.\I2C.c       **** 
  31:.\I2C.c       **** /*
  32:.\I2C.c       **** ***************************************************************************************************
  33:.\I2C.c       **** *                                             INCLUDE FILES
  34:.\I2C.c       **** ***************************************************************************************************
  35:.\I2C.c       **** */
  36:.\I2C.c       **** #include <device.h>
  37:.\I2C.c       **** #include "variables.h"
  38:.\I2C.c       **** 
  39:.\I2C.c       **** /*
  40:.\I2C.c       **** ***************************************************************************************************
  41:.\I2C.c       **** *                                         uint8 read_time( void )
  42:.\I2C.c       **** *
  43:.\I2C.c       **** * Description : 
  44:.\I2C.c       **** *               
  45:.\I2C.c       **** *
  46:.\I2C.c       **** * Argument(s) : none
  47:.\I2C.c       **** *
  48:.\I2C.c       **** * Return(s)   : none
  49:.\I2C.c       **** *
  50:.\I2C.c       **** * Caller(s)   : 
  51:.\I2C.c       **** *
  52:.\I2C.c       **** * Note(s)     : none.
  53:.\I2C.c       **** ***************************************************************************************************
  54:.\I2C.c       **** */
  55:.\I2C.c       **** uint8 read_time(){
ARM GAS  C:\Users\PROYEC~1\AppData\Local\Temp\ccfWqKHS.s 			page 3


  60              		.loc 1 55 0
  61              		.cfi_startproc
  62              		@ args = 0, pretend = 0, frame = 8
  63              		@ frame_needed = 1, uses_anonymous_args = 0
  64 0000 80B5     		push	{r7, lr}
  65              		.cfi_def_cfa_offset 8
  66              		.cfi_offset 7, -8
  67              		.cfi_offset 14, -4
  68 0002 82B0     		sub	sp, sp, #8
  69              		.cfi_def_cfa_offset 16
  70 0004 00AF     		add	r7, sp, #0
  71              		.cfi_def_cfa_register 7
  56:.\I2C.c       **** 	uint8 status;
  57:.\I2C.c       ****     uint32 i;
  58:.\I2C.c       **** 	for(i=0;i<=2;i++){
  72              		.loc 1 58 0
  73 0006 0023     		movs	r3, #0
  74 0008 7B60     		str	r3, [r7, #4]
  75 000a 38E0     		b	.L2
  76              	.L9:
  59:.\I2C.c       ****         I2C_1_MasterClearStatus();
  77              		.loc 1 59 0
  78 000c FFF7FEFF 		bl	I2C_1_MasterClearStatus
  60:.\I2C.c       ****         status = I2C_1_MasterSendStart(0x68, I2C_1_WRITE_XFER_MODE);
  79              		.loc 1 60 0
  80 0010 6820     		movs	r0, #104
  81 0012 0021     		movs	r1, #0
  82 0014 FFF7FEFF 		bl	I2C_1_MasterSendStart
  83 0018 0346     		mov	r3, r0
  84 001a FB70     		strb	r3, [r7, #3]
  61:.\I2C.c       ****         if(I2C_1_MSTR_NO_ERROR == status)								 		/* Check if transfer completed without errors *
  85              		.loc 1 61 0
  86 001c FB78     		ldrb	r3, [r7, #3]	@ zero_extendqisi2
  87 001e 002B     		cmp	r3, #0
  88 0020 28D1     		bne	.L3
  62:.\I2C.c       ****     	{
  63:.\I2C.c       ****             status = I2C_1_MasterWriteByte(i);
  89              		.loc 1 63 0
  90 0022 7B68     		ldr	r3, [r7, #4]
  91 0024 DBB2     		uxtb	r3, r3
  92 0026 1846     		mov	r0, r3
  93 0028 FFF7FEFF 		bl	I2C_1_MasterWriteByte
  94 002c 0346     		mov	r3, r0
  95 002e FB70     		strb	r3, [r7, #3]
  64:.\I2C.c       ****             if(status != I2C_1_MSTR_NO_ERROR)
  96              		.loc 1 64 0
  97 0030 FB78     		ldrb	r3, [r7, #3]	@ zero_extendqisi2
  98 0032 002B     		cmp	r3, #0
  99 0034 01D0     		beq	.L4
  65:.\I2C.c       ****             {
  66:.\I2C.c       ****                 return 0;
 100              		.loc 1 66 0
 101 0036 0023     		movs	r3, #0
 102 0038 25E0     		b	.L5
 103              	.L4:
  67:.\I2C.c       ****             }
  68:.\I2C.c       **** 			else{
ARM GAS  C:\Users\PROYEC~1\AppData\Local\Temp\ccfWqKHS.s 			page 4


  69:.\I2C.c       **** 		        I2C_1_MasterSendStop(); 										/* Send Stop */
 104              		.loc 1 69 0
 105 003a FFF7FEFF 		bl	I2C_1_MasterSendStop
  70:.\I2C.c       **** 		        CyDelay(10);
 106              		.loc 1 70 0
 107 003e 0A20     		movs	r0, #10
 108 0040 FFF7FEFF 		bl	CyDelay
  71:.\I2C.c       **** 		        status = I2C_1_MasterSendStart(0x68, I2C_1_READ_XFER_MODE);
 109              		.loc 1 71 0
 110 0044 6820     		movs	r0, #104
 111 0046 0121     		movs	r1, #1
 112 0048 FFF7FEFF 		bl	I2C_1_MasterSendStart
 113 004c 0346     		mov	r3, r0
 114 004e FB70     		strb	r3, [r7, #3]
  72:.\I2C.c       **** 		        if(I2C_1_MSTR_NO_ERROR == status){
 115              		.loc 1 72 0
 116 0050 FB78     		ldrb	r3, [r7, #3]	@ zero_extendqisi2
 117 0052 002B     		cmp	r3, #0
 118 0054 0CD1     		bne	.L6
  73:.\I2C.c       **** 		            time[i] = I2C_1_MasterReadByte(I2C_1_NAK_DATA);
 119              		.loc 1 73 0
 120 0056 0020     		movs	r0, #0
 121 0058 FFF7FEFF 		bl	I2C_1_MasterReadByte
 122 005c 0346     		mov	r3, r0
 123 005e 1946     		mov	r1, r3
 124 0060 0B4A     		ldr	r2, .L11
 125 0062 7B68     		ldr	r3, [r7, #4]
 126 0064 1344     		add	r3, r3, r2
 127 0066 0A46     		mov	r2, r1
 128 0068 1A70     		strb	r2, [r3]
  74:.\I2C.c       **** 		        }
  75:.\I2C.c       **** 				else{
  76:.\I2C.c       **** 					return 0;
  77:.\I2C.c       **** 				}
  78:.\I2C.c       **** 		        I2C_1_MasterSendStop();	
 129              		.loc 1 78 0
 130 006a FFF7FEFF 		bl	I2C_1_MasterSendStop
 131 006e 03E0     		b	.L10
 132              	.L6:
  76:.\I2C.c       **** 				}
 133              		.loc 1 76 0
 134 0070 0023     		movs	r3, #0
 135 0072 08E0     		b	.L5
 136              	.L3:
  79:.\I2C.c       **** 			}
  80:.\I2C.c       ****         }
  81:.\I2C.c       **** 		else{
  82:.\I2C.c       **** 			return 0;
 137              		.loc 1 82 0
 138 0074 0023     		movs	r3, #0
 139 0076 06E0     		b	.L5
 140              	.L10:
  58:.\I2C.c       ****         I2C_1_MasterClearStatus();
 141              		.loc 1 58 0 discriminator 2
 142 0078 7B68     		ldr	r3, [r7, #4]
 143 007a 0133     		adds	r3, r3, #1
 144 007c 7B60     		str	r3, [r7, #4]
ARM GAS  C:\Users\PROYEC~1\AppData\Local\Temp\ccfWqKHS.s 			page 5


 145              	.L2:
  58:.\I2C.c       ****         I2C_1_MasterClearStatus();
 146              		.loc 1 58 0 is_stmt 0 discriminator 1
 147 007e 7B68     		ldr	r3, [r7, #4]
 148 0080 022B     		cmp	r3, #2
 149 0082 C3D9     		bls	.L9
  83:.\I2C.c       **** 		}		
  84:.\I2C.c       **** 	}
  85:.\I2C.c       **** 	return 1;
 150              		.loc 1 85 0 is_stmt 1
 151 0084 0123     		movs	r3, #1
 152              	.L5:
  86:.\I2C.c       **** }
 153              		.loc 1 86 0
 154 0086 1846     		mov	r0, r3
 155 0088 0837     		adds	r7, r7, #8
 156              		.cfi_def_cfa_offset 8
 157 008a BD46     		mov	sp, r7
 158              		.cfi_def_cfa_register 13
 159              		@ sp needed
 160 008c 80BD     		pop	{r7, pc}
 161              	.L12:
 162 008e 00BF     		.align	2
 163              	.L11:
 164 0090 00000000 		.word	time
 165              		.cfi_endproc
 166              	.LFE56:
 167              		.size	read_time, .-read_time
 168              		.section	.text.read_date,"ax",%progbits
 169              		.align	2
 170              		.global	read_date
 171              		.thumb
 172              		.thumb_func
 173              		.type	read_date, %function
 174              	read_date:
 175              	.LFB57:
  87:.\I2C.c       **** 
  88:.\I2C.c       **** /*
  89:.\I2C.c       **** ***************************************************************************************************
  90:.\I2C.c       **** *                                         uint8 read_date( void )
  91:.\I2C.c       **** *
  92:.\I2C.c       **** * Description : 
  93:.\I2C.c       **** *               
  94:.\I2C.c       **** *
  95:.\I2C.c       **** * Argument(s) : none
  96:.\I2C.c       **** *
  97:.\I2C.c       **** * Return(s)   : none
  98:.\I2C.c       **** *
  99:.\I2C.c       **** * Caller(s)   : 
 100:.\I2C.c       **** *
 101:.\I2C.c       **** * Note(s)     : none.
 102:.\I2C.c       **** ***************************************************************************************************
 103:.\I2C.c       **** */
 104:.\I2C.c       **** uint8 read_date(){
 176              		.loc 1 104 0
 177              		.cfi_startproc
 178              		@ args = 0, pretend = 0, frame = 8
ARM GAS  C:\Users\PROYEC~1\AppData\Local\Temp\ccfWqKHS.s 			page 6


 179              		@ frame_needed = 1, uses_anonymous_args = 0
 180 0000 90B5     		push	{r4, r7, lr}
 181              		.cfi_def_cfa_offset 12
 182              		.cfi_offset 4, -12
 183              		.cfi_offset 7, -8
 184              		.cfi_offset 14, -4
 185 0002 83B0     		sub	sp, sp, #12
 186              		.cfi_def_cfa_offset 24
 187 0004 00AF     		add	r7, sp, #0
 188              		.cfi_def_cfa_register 7
 105:.\I2C.c       **** 	uint8 status;
 106:.\I2C.c       ****     uint32 i;
 107:.\I2C.c       **** 	for(i=4;i<=6;i++){
 189              		.loc 1 107 0
 190 0006 0423     		movs	r3, #4
 191 0008 7B60     		str	r3, [r7, #4]
 192 000a 37E0     		b	.L14
 193              	.L21:
 108:.\I2C.c       ****         I2C_1_MasterClearStatus();
 194              		.loc 1 108 0
 195 000c FFF7FEFF 		bl	I2C_1_MasterClearStatus
 109:.\I2C.c       ****         status = I2C_1_MasterSendStart(0x68, I2C_1_WRITE_XFER_MODE);
 196              		.loc 1 109 0
 197 0010 6820     		movs	r0, #104
 198 0012 0021     		movs	r1, #0
 199 0014 FFF7FEFF 		bl	I2C_1_MasterSendStart
 200 0018 0346     		mov	r3, r0
 201 001a FB70     		strb	r3, [r7, #3]
 110:.\I2C.c       ****         if(I2C_1_MSTR_NO_ERROR == status)								 		/* Check if transfer completed without errors *
 202              		.loc 1 110 0
 203 001c FB78     		ldrb	r3, [r7, #3]	@ zero_extendqisi2
 204 001e 002B     		cmp	r3, #0
 205 0020 27D1     		bne	.L15
 111:.\I2C.c       ****     	{
 112:.\I2C.c       ****             status = I2C_1_MasterWriteByte(i);
 206              		.loc 1 112 0
 207 0022 7B68     		ldr	r3, [r7, #4]
 208 0024 DBB2     		uxtb	r3, r3
 209 0026 1846     		mov	r0, r3
 210 0028 FFF7FEFF 		bl	I2C_1_MasterWriteByte
 211 002c 0346     		mov	r3, r0
 212 002e FB70     		strb	r3, [r7, #3]
 113:.\I2C.c       ****             if(status != I2C_1_MSTR_NO_ERROR)
 213              		.loc 1 113 0
 214 0030 FB78     		ldrb	r3, [r7, #3]	@ zero_extendqisi2
 215 0032 002B     		cmp	r3, #0
 216 0034 01D0     		beq	.L16
 114:.\I2C.c       ****             {
 115:.\I2C.c       ****                 return 0;
 217              		.loc 1 115 0
 218 0036 0023     		movs	r3, #0
 219 0038 24E0     		b	.L17
 220              	.L16:
 116:.\I2C.c       ****             }
 117:.\I2C.c       **** 			else{
 118:.\I2C.c       **** 		        I2C_1_MasterSendStop(); 										/* Send Stop */
 221              		.loc 1 118 0
ARM GAS  C:\Users\PROYEC~1\AppData\Local\Temp\ccfWqKHS.s 			page 7


 222 003a FFF7FEFF 		bl	I2C_1_MasterSendStop
 119:.\I2C.c       **** 		        CyDelay(10);
 223              		.loc 1 119 0
 224 003e 0A20     		movs	r0, #10
 225 0040 FFF7FEFF 		bl	CyDelay
 120:.\I2C.c       **** 		        status = I2C_1_MasterSendStart(0x68, I2C_1_READ_XFER_MODE);
 226              		.loc 1 120 0
 227 0044 6820     		movs	r0, #104
 228 0046 0121     		movs	r1, #1
 229 0048 FFF7FEFF 		bl	I2C_1_MasterSendStart
 230 004c 0346     		mov	r3, r0
 231 004e FB70     		strb	r3, [r7, #3]
 121:.\I2C.c       **** 		        if(I2C_1_MSTR_NO_ERROR == status){
 232              		.loc 1 121 0
 233 0050 FB78     		ldrb	r3, [r7, #3]	@ zero_extendqisi2
 234 0052 002B     		cmp	r3, #0
 235 0054 0BD1     		bne	.L18
 122:.\I2C.c       **** 		            date[i-4] = I2C_1_MasterReadByte(I2C_1_NAK_DATA);
 236              		.loc 1 122 0
 237 0056 7B68     		ldr	r3, [r7, #4]
 238 0058 1C1F     		subs	r4, r3, #4
 239 005a 0020     		movs	r0, #0
 240 005c FFF7FEFF 		bl	I2C_1_MasterReadByte
 241 0060 0346     		mov	r3, r0
 242 0062 1A46     		mov	r2, r3
 243 0064 094B     		ldr	r3, .L23
 244 0066 1A55     		strb	r2, [r3, r4]
 123:.\I2C.c       **** 		        }
 124:.\I2C.c       **** 				else{
 125:.\I2C.c       **** 					return 0;
 126:.\I2C.c       **** 				}
 127:.\I2C.c       **** 		        I2C_1_MasterSendStop();	
 245              		.loc 1 127 0
 246 0068 FFF7FEFF 		bl	I2C_1_MasterSendStop
 247 006c 03E0     		b	.L22
 248              	.L18:
 125:.\I2C.c       **** 				}
 249              		.loc 1 125 0
 250 006e 0023     		movs	r3, #0
 251 0070 08E0     		b	.L17
 252              	.L15:
 128:.\I2C.c       **** 			}
 129:.\I2C.c       ****         }
 130:.\I2C.c       **** 		else{
 131:.\I2C.c       **** 			return 0;
 253              		.loc 1 131 0
 254 0072 0023     		movs	r3, #0
 255 0074 06E0     		b	.L17
 256              	.L22:
 107:.\I2C.c       ****         I2C_1_MasterClearStatus();
 257              		.loc 1 107 0 discriminator 2
 258 0076 7B68     		ldr	r3, [r7, #4]
 259 0078 0133     		adds	r3, r3, #1
 260 007a 7B60     		str	r3, [r7, #4]
 261              	.L14:
 107:.\I2C.c       ****         I2C_1_MasterClearStatus();
 262              		.loc 1 107 0 is_stmt 0 discriminator 1
ARM GAS  C:\Users\PROYEC~1\AppData\Local\Temp\ccfWqKHS.s 			page 8


 263 007c 7B68     		ldr	r3, [r7, #4]
 264 007e 062B     		cmp	r3, #6
 265 0080 C4D9     		bls	.L21
 132:.\I2C.c       **** 		}		
 133:.\I2C.c       **** 	}
 134:.\I2C.c       **** 	return 1;
 266              		.loc 1 134 0 is_stmt 1
 267 0082 0123     		movs	r3, #1
 268              	.L17:
 135:.\I2C.c       **** }
 269              		.loc 1 135 0
 270 0084 1846     		mov	r0, r3
 271 0086 0C37     		adds	r7, r7, #12
 272              		.cfi_def_cfa_offset 12
 273 0088 BD46     		mov	sp, r7
 274              		.cfi_def_cfa_register 13
 275              		@ sp needed
 276 008a 90BD     		pop	{r4, r7, pc}
 277              	.L24:
 278              		.align	2
 279              	.L23:
 280 008c 00000000 		.word	date
 281              		.cfi_endproc
 282              	.LFE57:
 283              		.size	read_date, .-read_date
 284              		.section	.text.write_time,"ax",%progbits
 285              		.align	2
 286              		.global	write_time
 287              		.thumb
 288              		.thumb_func
 289              		.type	write_time, %function
 290              	write_time:
 291              	.LFB58:
 136:.\I2C.c       **** 
 137:.\I2C.c       **** /*
 138:.\I2C.c       **** ***************************************************************************************************
 139:.\I2C.c       **** *                                         uint8 write_time( void )
 140:.\I2C.c       **** *
 141:.\I2C.c       **** * Description : 
 142:.\I2C.c       **** *               
 143:.\I2C.c       **** *
 144:.\I2C.c       **** * Argument(s) : none
 145:.\I2C.c       **** *
 146:.\I2C.c       **** * Return(s)   : none
 147:.\I2C.c       **** *
 148:.\I2C.c       **** * Caller(s)   : 
 149:.\I2C.c       **** *
 150:.\I2C.c       **** * Note(s)     : none.
 151:.\I2C.c       **** ***************************************************************************************************
 152:.\I2C.c       **** */
 153:.\I2C.c       **** 
 154:.\I2C.c       **** uint8 write_time( void ){
 292              		.loc 1 154 0
 293              		.cfi_startproc
 294              		@ args = 0, pretend = 0, frame = 16
 295              		@ frame_needed = 1, uses_anonymous_args = 0
 296 0000 80B5     		push	{r7, lr}
ARM GAS  C:\Users\PROYEC~1\AppData\Local\Temp\ccfWqKHS.s 			page 9


 297              		.cfi_def_cfa_offset 8
 298              		.cfi_offset 7, -8
 299              		.cfi_offset 14, -4
 300 0002 84B0     		sub	sp, sp, #16
 301              		.cfi_def_cfa_offset 24
 302 0004 00AF     		add	r7, sp, #0
 303              		.cfi_def_cfa_register 7
 155:.\I2C.c       **** 	uint8 status, data[6];
 156:.\I2C.c       ****     uint32 i;
 157:.\I2C.c       **** 	data[0]=0;
 304              		.loc 1 157 0
 305 0006 0023     		movs	r3, #0
 306 0008 3B71     		strb	r3, [r7, #4]
 158:.\I2C.c       **** 	data[1]=time[0];
 307              		.loc 1 158 0
 308 000a 1C4B     		ldr	r3, .L34
 309 000c 1B78     		ldrb	r3, [r3]
 310 000e DBB2     		uxtb	r3, r3
 311 0010 7B71     		strb	r3, [r7, #5]
 159:.\I2C.c       **** 	data[2]=time[1];
 312              		.loc 1 159 0
 313 0012 1A4B     		ldr	r3, .L34
 314 0014 5B78     		ldrb	r3, [r3, #1]
 315 0016 DBB2     		uxtb	r3, r3
 316 0018 BB71     		strb	r3, [r7, #6]
 160:.\I2C.c       ****     data[3]=time[2];
 317              		.loc 1 160 0
 318 001a 184B     		ldr	r3, .L34
 319 001c 9B78     		ldrb	r3, [r3, #2]
 320 001e DBB2     		uxtb	r3, r3
 321 0020 FB71     		strb	r3, [r7, #7]
 161:.\I2C.c       **** 	I2C_1_MasterClearStatus();
 322              		.loc 1 161 0
 323 0022 FFF7FEFF 		bl	I2C_1_MasterClearStatus
 162:.\I2C.c       ****     status = I2C_1_MasterSendStart(0x68, I2C_1_WRITE_XFER_MODE);
 324              		.loc 1 162 0
 325 0026 6820     		movs	r0, #104
 326 0028 0021     		movs	r1, #0
 327 002a FFF7FEFF 		bl	I2C_1_MasterSendStart
 328 002e 0346     		mov	r3, r0
 329 0030 FB72     		strb	r3, [r7, #11]
 163:.\I2C.c       ****     if(I2C_1_MSTR_NO_ERROR == status) 
 330              		.loc 1 163 0
 331 0032 FB7A     		ldrb	r3, [r7, #11]	@ zero_extendqisi2
 332 0034 002B     		cmp	r3, #0
 333 0036 17D1     		bne	.L26
 164:.\I2C.c       ****     {
 165:.\I2C.c       ****         for(i=0; i<4; i++)
 334              		.loc 1 165 0
 335 0038 0023     		movs	r3, #0
 336 003a FB60     		str	r3, [r7, #12]
 337 003c 10E0     		b	.L27
 338              	.L30:
 166:.\I2C.c       ****         {
 167:.\I2C.c       ****             status = I2C_1_MasterWriteByte(data[i]);
 339              		.loc 1 167 0
 340 003e 3A1D     		adds	r2, r7, #4
ARM GAS  C:\Users\PROYEC~1\AppData\Local\Temp\ccfWqKHS.s 			page 10


 341 0040 FB68     		ldr	r3, [r7, #12]
 342 0042 1344     		add	r3, r3, r2
 343 0044 1B78     		ldrb	r3, [r3]	@ zero_extendqisi2
 344 0046 1846     		mov	r0, r3
 345 0048 FFF7FEFF 		bl	I2C_1_MasterWriteByte
 346 004c 0346     		mov	r3, r0
 347 004e FB72     		strb	r3, [r7, #11]
 168:.\I2C.c       ****             if(status != I2C_1_MSTR_NO_ERROR)
 348              		.loc 1 168 0
 349 0050 FB7A     		ldrb	r3, [r7, #11]	@ zero_extendqisi2
 350 0052 002B     		cmp	r3, #0
 351 0054 01D0     		beq	.L28
 169:.\I2C.c       ****             {
 170:.\I2C.c       ****                 return 0;
 352              		.loc 1 170 0
 353 0056 0023     		movs	r3, #0
 354 0058 0BE0     		b	.L32
 355              	.L28:
 165:.\I2C.c       ****         {
 356              		.loc 1 165 0 discriminator 2
 357 005a FB68     		ldr	r3, [r7, #12]
 358 005c 0133     		adds	r3, r3, #1
 359 005e FB60     		str	r3, [r7, #12]
 360              	.L27:
 165:.\I2C.c       ****         {
 361              		.loc 1 165 0 is_stmt 0 discriminator 1
 362 0060 FB68     		ldr	r3, [r7, #12]
 363 0062 032B     		cmp	r3, #3
 364 0064 EBD9     		bls	.L30
 365 0066 01E0     		b	.L33
 366              	.L26:
 171:.\I2C.c       ****             }
 172:.\I2C.c       ****         }
 173:.\I2C.c       ****     }
 174:.\I2C.c       ****     else{
 175:.\I2C.c       **** 		return 0;
 367              		.loc 1 175 0 is_stmt 1
 368 0068 0023     		movs	r3, #0
 369 006a 02E0     		b	.L32
 370              	.L33:
 176:.\I2C.c       ****     }
 177:.\I2C.c       ****     I2C_1_MasterSendStop();	
 371              		.loc 1 177 0
 372 006c FFF7FEFF 		bl	I2C_1_MasterSendStop
 178:.\I2C.c       **** 	return 1;
 373              		.loc 1 178 0
 374 0070 0123     		movs	r3, #1
 375              	.L32:
 179:.\I2C.c       **** }
 376              		.loc 1 179 0 discriminator 1
 377 0072 1846     		mov	r0, r3
 378 0074 1037     		adds	r7, r7, #16
 379              		.cfi_def_cfa_offset 8
 380 0076 BD46     		mov	sp, r7
 381              		.cfi_def_cfa_register 13
 382              		@ sp needed
 383 0078 80BD     		pop	{r7, pc}
ARM GAS  C:\Users\PROYEC~1\AppData\Local\Temp\ccfWqKHS.s 			page 11


 384              	.L35:
 385 007a 00BF     		.align	2
 386              	.L34:
 387 007c 00000000 		.word	time
 388              		.cfi_endproc
 389              	.LFE58:
 390              		.size	write_time, .-write_time
 391              		.section	.text.write_date,"ax",%progbits
 392              		.align	2
 393              		.global	write_date
 394              		.thumb
 395              		.thumb_func
 396              		.type	write_date, %function
 397              	write_date:
 398              	.LFB59:
 180:.\I2C.c       **** 
 181:.\I2C.c       **** /*
 182:.\I2C.c       **** ***************************************************************************************************
 183:.\I2C.c       **** *                                         uint8 write_date( void )
 184:.\I2C.c       **** *
 185:.\I2C.c       **** * Description : 
 186:.\I2C.c       **** *               
 187:.\I2C.c       **** *
 188:.\I2C.c       **** * Argument(s) : none
 189:.\I2C.c       **** *
 190:.\I2C.c       **** * Return(s)   : none
 191:.\I2C.c       **** *
 192:.\I2C.c       **** * Caller(s)   : 
 193:.\I2C.c       **** *
 194:.\I2C.c       **** * Note(s)     : none.
 195:.\I2C.c       **** ***************************************************************************************************
 196:.\I2C.c       **** */
 197:.\I2C.c       **** 
 198:.\I2C.c       **** uint8 write_date( void ){
 399              		.loc 1 198 0
 400              		.cfi_startproc
 401              		@ args = 0, pretend = 0, frame = 16
 402              		@ frame_needed = 1, uses_anonymous_args = 0
 403 0000 80B5     		push	{r7, lr}
 404              		.cfi_def_cfa_offset 8
 405              		.cfi_offset 7, -8
 406              		.cfi_offset 14, -4
 407 0002 84B0     		sub	sp, sp, #16
 408              		.cfi_def_cfa_offset 24
 409 0004 00AF     		add	r7, sp, #0
 410              		.cfi_def_cfa_register 7
 199:.\I2C.c       **** 	uint8 status, data[6];
 200:.\I2C.c       ****     uint32 i;
 201:.\I2C.c       **** 	data[0]=4;
 411              		.loc 1 201 0
 412 0006 0423     		movs	r3, #4
 413 0008 3B71     		strb	r3, [r7, #4]
 202:.\I2C.c       **** 	data[1]=date[0];
 414              		.loc 1 202 0
 415 000a 1C4B     		ldr	r3, .L45
 416 000c 1B78     		ldrb	r3, [r3]
 417 000e DBB2     		uxtb	r3, r3
ARM GAS  C:\Users\PROYEC~1\AppData\Local\Temp\ccfWqKHS.s 			page 12


 418 0010 7B71     		strb	r3, [r7, #5]
 203:.\I2C.c       **** 	data[2]=date[1];
 419              		.loc 1 203 0
 420 0012 1A4B     		ldr	r3, .L45
 421 0014 5B78     		ldrb	r3, [r3, #1]
 422 0016 DBB2     		uxtb	r3, r3
 423 0018 BB71     		strb	r3, [r7, #6]
 204:.\I2C.c       **** 	data[3]=date[2];
 424              		.loc 1 204 0
 425 001a 184B     		ldr	r3, .L45
 426 001c 9B78     		ldrb	r3, [r3, #2]
 427 001e DBB2     		uxtb	r3, r3
 428 0020 FB71     		strb	r3, [r7, #7]
 205:.\I2C.c       **** 	I2C_1_MasterClearStatus();
 429              		.loc 1 205 0
 430 0022 FFF7FEFF 		bl	I2C_1_MasterClearStatus
 206:.\I2C.c       ****     status = I2C_1_MasterSendStart(0x68, I2C_1_WRITE_XFER_MODE);
 431              		.loc 1 206 0
 432 0026 6820     		movs	r0, #104
 433 0028 0021     		movs	r1, #0
 434 002a FFF7FEFF 		bl	I2C_1_MasterSendStart
 435 002e 0346     		mov	r3, r0
 436 0030 FB72     		strb	r3, [r7, #11]
 207:.\I2C.c       ****     if(I2C_1_MSTR_NO_ERROR == status) 
 437              		.loc 1 207 0
 438 0032 FB7A     		ldrb	r3, [r7, #11]	@ zero_extendqisi2
 439 0034 002B     		cmp	r3, #0
 440 0036 17D1     		bne	.L37
 208:.\I2C.c       ****     {
 209:.\I2C.c       ****         for(i=0; i<4; i++)
 441              		.loc 1 209 0
 442 0038 0023     		movs	r3, #0
 443 003a FB60     		str	r3, [r7, #12]
 444 003c 10E0     		b	.L38
 445              	.L41:
 210:.\I2C.c       ****         {
 211:.\I2C.c       ****             status = I2C_1_MasterWriteByte(data[i]);
 446              		.loc 1 211 0
 447 003e 3A1D     		adds	r2, r7, #4
 448 0040 FB68     		ldr	r3, [r7, #12]
 449 0042 1344     		add	r3, r3, r2
 450 0044 1B78     		ldrb	r3, [r3]	@ zero_extendqisi2
 451 0046 1846     		mov	r0, r3
 452 0048 FFF7FEFF 		bl	I2C_1_MasterWriteByte
 453 004c 0346     		mov	r3, r0
 454 004e FB72     		strb	r3, [r7, #11]
 212:.\I2C.c       ****             if(status != I2C_1_MSTR_NO_ERROR)
 455              		.loc 1 212 0
 456 0050 FB7A     		ldrb	r3, [r7, #11]	@ zero_extendqisi2
 457 0052 002B     		cmp	r3, #0
 458 0054 01D0     		beq	.L39
 213:.\I2C.c       ****             {
 214:.\I2C.c       ****                 return 0;
 459              		.loc 1 214 0
 460 0056 0023     		movs	r3, #0
 461 0058 0BE0     		b	.L43
 462              	.L39:
ARM GAS  C:\Users\PROYEC~1\AppData\Local\Temp\ccfWqKHS.s 			page 13


 209:.\I2C.c       ****         {
 463              		.loc 1 209 0 discriminator 2
 464 005a FB68     		ldr	r3, [r7, #12]
 465 005c 0133     		adds	r3, r3, #1
 466 005e FB60     		str	r3, [r7, #12]
 467              	.L38:
 209:.\I2C.c       ****         {
 468              		.loc 1 209 0 is_stmt 0 discriminator 1
 469 0060 FB68     		ldr	r3, [r7, #12]
 470 0062 032B     		cmp	r3, #3
 471 0064 EBD9     		bls	.L41
 472 0066 01E0     		b	.L44
 473              	.L37:
 215:.\I2C.c       ****             }
 216:.\I2C.c       ****         }
 217:.\I2C.c       ****     }
 218:.\I2C.c       ****     else{
 219:.\I2C.c       **** 		return 0;
 474              		.loc 1 219 0 is_stmt 1
 475 0068 0023     		movs	r3, #0
 476 006a 02E0     		b	.L43
 477              	.L44:
 220:.\I2C.c       ****     }
 221:.\I2C.c       ****     I2C_1_MasterSendStop();	
 478              		.loc 1 221 0
 479 006c FFF7FEFF 		bl	I2C_1_MasterSendStop
 222:.\I2C.c       **** 	return 1;
 480              		.loc 1 222 0
 481 0070 0123     		movs	r3, #1
 482              	.L43:
 223:.\I2C.c       **** }
 483              		.loc 1 223 0 discriminator 1
 484 0072 1846     		mov	r0, r3
 485 0074 1037     		adds	r7, r7, #16
 486              		.cfi_def_cfa_offset 8
 487 0076 BD46     		mov	sp, r7
 488              		.cfi_def_cfa_register 13
 489              		@ sp needed
 490 0078 80BD     		pop	{r7, pc}
 491              	.L46:
 492 007a 00BF     		.align	2
 493              	.L45:
 494 007c 00000000 		.word	date
 495              		.cfi_endproc
 496              	.LFE59:
 497              		.size	write_date, .-write_date
 498              		.text
 499              	.Letext0:
 500              		.file 2 "c:\\program files (x86)\\cypress\\psoc creator\\3.3\\psoc creator\\import\\gnu\\arm\\4.9.
 501              		.file 3 "c:\\program files (x86)\\cypress\\psoc creator\\3.3\\psoc creator\\import\\gnu\\arm\\4.9.
 502              		.file 4 "Generated_Source\\PSoC5/cytypes.h"
 503              		.file 5 ".\\variables.h"
 504              		.file 6 "Generated_Source\\PSoC5/core_cm3.h"