ARM GAS  C:\Users\Lenovo\AppData\Local\Temp\cc7PLiU0.s 			page 1


   1              		.syntax unified
   2              		.cpu cortex-m3
   3              		.fpu softvfp
   4              		.eabi_attribute 20, 1
   5              		.eabi_attribute 21, 1
   6              		.eabi_attribute 23, 3
   7              		.eabi_attribute 24, 1
   8              		.eabi_attribute 25, 1
   9              		.eabi_attribute 26, 1
  10              		.eabi_attribute 30, 6
  11              		.eabi_attribute 34, 1
  12              		.eabi_attribute 18, 4
  13              		.thumb
  14              		.file	"I2C.c"
  15              		.text
  16              	.Ltext0:
  17              		.cfi_sections	.debug_frame
  18              		.comm	countAnimation1,8,8
  19              		.comm	countAnimation2,8,8
  20              		.comm	countBeagleTX,8,8
  21              		.comm	countPump,8,8
  22              		.comm	flowLCD1,4,4
  23              		.comm	flowLCD2,4,4
  24              		.comm	digits,1,1
  25              		.comm	ipAdress,12,4
  26              		.comm	numberKeys1,1,1
  27              		.comm	numberKeys2,1,1
  28              		.comm	flagPoint1,1,1
  29              		.comm	flagPoint2,1,1
  30              		.comm	button,960,4
  31              		.comm	productNumber,1,1
  32              		.comm	presetFast,30,4
  33              		.comm	delayPicture1,4,4
  34              		.comm	delayPicture2,4,4
  35              		.comm	ppux10,1,1
  36              		.comm	decimalMoney,1,1
  37              		.comm	decimalVolume,1,1
  38              		.comm	symbols,2,4
  39              		.comm	time,3,4
  40              		.comm	date,3,4
  41              		.comm	screen,2,4
  42              		.comm	residue,14,4
  43              		.comm	temporal,30,4
  44              		.comm	temporalCom,30,4
  45              		.comm	turn,1,1
  46              		.comm	lockTurn,1,1
  47              		.comm	idSeller,25,4
  48              		.comm	typeIdSeller,1,1
  49              		.comm	passwordSeller,8,4
  50              		.comm	flagResetMux,1,1
  51              		.comm	stateBeagleSoft,1,1
  52              		.comm	bufferLCD1,661,4
  53              		.comm	bufferLCD2,661,4
  54              		.comm	side,512,4
  55              		.section	.text.read_time,"ax",%progbits
  56              		.align	2
  57              		.global	read_time
ARM GAS  C:\Users\Lenovo\AppData\Local\Temp\cc7PLiU0.s 			page 2


  58              		.thumb
  59              		.thumb_func
  60              		.type	read_time, %function
  61              	read_time:
  62              	.LFB56:
  63              		.file 1 ".\\I2C.c"
   1:.\I2C.c       **** /*
   2:.\I2C.c       **** ***************************************************************************************************
   3:.\I2C.c       **** *                                         MUX ADVANCE CODE
   4:.\I2C.c       **** *
   5:.\I2C.c       **** *                             (c) Copyright 2015; Sistemas Insepet LTDA
   6:.\I2C.c       **** *
   7:.\I2C.c       **** *               All rights reserved.  Protected by international copyright laws.
   8:.\I2C.c       **** *               Knowledge of the source code may NOT be used to develop a similar product.
   9:.\I2C.c       **** *               Please help us continue to provide the Embedded community with the finest
  10:.\I2C.c       **** *               software available.  Your honesty is greatly appreciated.
  11:.\I2C.c       **** ***************************************************************************************************
  12:.\I2C.c       **** */
  13:.\I2C.c       **** 
  14:.\I2C.c       **** /*
  15:.\I2C.c       **** ***************************************************************************************************
  16:.\I2C.c       **** *
  17:.\I2C.c       **** *                                            MUX ADVANCE CODE
  18:.\I2C.c       **** *
  19:.\I2C.c       **** *                                             CYPRESS PSoC5LP
  20:.\I2C.c       **** *                                                with the
  21:.\I2C.c       **** *                                            CY8C5969AXI-LP035
  22:.\I2C.c       **** *
  23:.\I2C.c       **** * Filename      : I2C.c
  24:.\I2C.c       **** * Version       : V1.00
  25:.\I2C.c       **** * Programmer(s) : 
  26:.\I2C.c       ****                   
  27:.\I2C.c       **** ***************************************************************************************************
  28:.\I2C.c       **** */
  29:.\I2C.c       **** 
  30:.\I2C.c       **** 
  31:.\I2C.c       **** /*
  32:.\I2C.c       **** ***************************************************************************************************
  33:.\I2C.c       **** *                                             INCLUDE FILES
  34:.\I2C.c       **** ***************************************************************************************************
  35:.\I2C.c       **** */
  36:.\I2C.c       **** #include <device.h>
  37:.\I2C.c       **** #include "variables.h"
  38:.\I2C.c       **** 
  39:.\I2C.c       **** /*
  40:.\I2C.c       **** ***************************************************************************************************
  41:.\I2C.c       **** *                                         uint8 read_time( void )
  42:.\I2C.c       **** *
  43:.\I2C.c       **** * Description : 
  44:.\I2C.c       **** *               
  45:.\I2C.c       **** *
  46:.\I2C.c       **** * Argument(s) : none
  47:.\I2C.c       **** *
  48:.\I2C.c       **** * Return(s)   : none
  49:.\I2C.c       **** *
  50:.\I2C.c       **** * Caller(s)   : 
  51:.\I2C.c       **** *
ARM GAS  C:\Users\Lenovo\AppData\Local\Temp\cc7PLiU0.s 			page 3


  52:.\I2C.c       **** * Note(s)     : none.
  53:.\I2C.c       **** ***************************************************************************************************
  54:.\I2C.c       **** */
  55:.\I2C.c       **** uint8 read_time(){
  64              		.loc 1 55 0
  65              		.cfi_startproc
  66              		@ args = 0, pretend = 0, frame = 8
  67              		@ frame_needed = 1, uses_anonymous_args = 0
  68 0000 80B5     		push	{r7, lr}
  69              		.cfi_def_cfa_offset 8
  70              		.cfi_offset 7, -8
  71              		.cfi_offset 14, -4
  72 0002 82B0     		sub	sp, sp, #8
  73              		.cfi_def_cfa_offset 16
  74 0004 00AF     		add	r7, sp, #0
  75              		.cfi_def_cfa_register 7
  56:.\I2C.c       **** 	uint8 status;
  57:.\I2C.c       ****     uint32 i;
  58:.\I2C.c       **** 	for(i=0;i<=2;i++){
  76              		.loc 1 58 0
  77 0006 0023     		movs	r3, #0
  78 0008 7B60     		str	r3, [r7, #4]
  79 000a 38E0     		b	.L2
  80              	.L9:
  59:.\I2C.c       ****         I2C_1_MasterClearStatus();
  81              		.loc 1 59 0
  82 000c FFF7FEFF 		bl	I2C_1_MasterClearStatus
  60:.\I2C.c       ****         status = I2C_1_MasterSendStart(0x68, I2C_1_WRITE_XFER_MODE);
  83              		.loc 1 60 0
  84 0010 6820     		movs	r0, #104
  85 0012 0021     		movs	r1, #0
  86 0014 FFF7FEFF 		bl	I2C_1_MasterSendStart
  87 0018 0346     		mov	r3, r0
  88 001a FB70     		strb	r3, [r7, #3]
  61:.\I2C.c       ****         if(I2C_1_MSTR_NO_ERROR == status)								 		/* Check if transfer completed without errors *
  89              		.loc 1 61 0
  90 001c FB78     		ldrb	r3, [r7, #3]	@ zero_extendqisi2
  91 001e 002B     		cmp	r3, #0
  92 0020 28D1     		bne	.L3
  62:.\I2C.c       ****     	{
  63:.\I2C.c       ****             status = I2C_1_MasterWriteByte(i);
  93              		.loc 1 63 0
  94 0022 7B68     		ldr	r3, [r7, #4]
  95 0024 DBB2     		uxtb	r3, r3
  96 0026 1846     		mov	r0, r3
  97 0028 FFF7FEFF 		bl	I2C_1_MasterWriteByte
  98 002c 0346     		mov	r3, r0
  99 002e FB70     		strb	r3, [r7, #3]
  64:.\I2C.c       ****             if(status != I2C_1_MSTR_NO_ERROR)
 100              		.loc 1 64 0
 101 0030 FB78     		ldrb	r3, [r7, #3]	@ zero_extendqisi2
 102 0032 002B     		cmp	r3, #0
 103 0034 01D0     		beq	.L4
  65:.\I2C.c       ****             {
  66:.\I2C.c       ****                 return 0;
 104              		.loc 1 66 0
 105 0036 0023     		movs	r3, #0
ARM GAS  C:\Users\Lenovo\AppData\Local\Temp\cc7PLiU0.s 			page 4


 106 0038 25E0     		b	.L5
 107              	.L4:
  67:.\I2C.c       ****             }
  68:.\I2C.c       **** 			else{
  69:.\I2C.c       **** 		        I2C_1_MasterSendStop(); 										/* Send Stop */
 108              		.loc 1 69 0
 109 003a FFF7FEFF 		bl	I2C_1_MasterSendStop
  70:.\I2C.c       **** 		        CyDelay(10);
 110              		.loc 1 70 0
 111 003e 0A20     		movs	r0, #10
 112 0040 FFF7FEFF 		bl	CyDelay
  71:.\I2C.c       **** 		        status = I2C_1_MasterSendStart(0x68, I2C_1_READ_XFER_MODE);
 113              		.loc 1 71 0
 114 0044 6820     		movs	r0, #104
 115 0046 0121     		movs	r1, #1
 116 0048 FFF7FEFF 		bl	I2C_1_MasterSendStart
 117 004c 0346     		mov	r3, r0
 118 004e FB70     		strb	r3, [r7, #3]
  72:.\I2C.c       **** 		        if(I2C_1_MSTR_NO_ERROR == status){
 119              		.loc 1 72 0
 120 0050 FB78     		ldrb	r3, [r7, #3]	@ zero_extendqisi2
 121 0052 002B     		cmp	r3, #0
 122 0054 0CD1     		bne	.L6
  73:.\I2C.c       **** 		            time[i] = I2C_1_MasterReadByte(I2C_1_NAK_DATA);
 123              		.loc 1 73 0
 124 0056 0020     		movs	r0, #0
 125 0058 FFF7FEFF 		bl	I2C_1_MasterReadByte
 126 005c 0346     		mov	r3, r0
 127 005e 1946     		mov	r1, r3
 128 0060 0B4A     		ldr	r2, .L11
 129 0062 7B68     		ldr	r3, [r7, #4]
 130 0064 1344     		add	r3, r3, r2
 131 0066 0A46     		mov	r2, r1
 132 0068 1A70     		strb	r2, [r3]
  74:.\I2C.c       **** 		        }
  75:.\I2C.c       **** 				else{
  76:.\I2C.c       **** 					return 0;
  77:.\I2C.c       **** 				}
  78:.\I2C.c       **** 		        I2C_1_MasterSendStop();	
 133              		.loc 1 78 0
 134 006a FFF7FEFF 		bl	I2C_1_MasterSendStop
 135 006e 03E0     		b	.L10
 136              	.L6:
  76:.\I2C.c       **** 				}
 137              		.loc 1 76 0
 138 0070 0023     		movs	r3, #0
 139 0072 08E0     		b	.L5
 140              	.L3:
  79:.\I2C.c       **** 			}
  80:.\I2C.c       ****         }
  81:.\I2C.c       **** 		else{
  82:.\I2C.c       **** 			return 0;
 141              		.loc 1 82 0
 142 0074 0023     		movs	r3, #0
 143 0076 06E0     		b	.L5
 144              	.L10:
  58:.\I2C.c       ****         I2C_1_MasterClearStatus();
ARM GAS  C:\Users\Lenovo\AppData\Local\Temp\cc7PLiU0.s 			page 5


 145              		.loc 1 58 0 discriminator 2
 146 0078 7B68     		ldr	r3, [r7, #4]
 147 007a 0133     		adds	r3, r3, #1
 148 007c 7B60     		str	r3, [r7, #4]
 149              	.L2:
  58:.\I2C.c       ****         I2C_1_MasterClearStatus();
 150              		.loc 1 58 0 is_stmt 0 discriminator 1
 151 007e 7B68     		ldr	r3, [r7, #4]
 152 0080 022B     		cmp	r3, #2
 153 0082 C3D9     		bls	.L9
  83:.\I2C.c       **** 		}		
  84:.\I2C.c       **** 	}
  85:.\I2C.c       **** 	return 1;
 154              		.loc 1 85 0 is_stmt 1
 155 0084 0123     		movs	r3, #1
 156              	.L5:
  86:.\I2C.c       **** }
 157              		.loc 1 86 0
 158 0086 1846     		mov	r0, r3
 159 0088 0837     		adds	r7, r7, #8
 160              		.cfi_def_cfa_offset 8
 161 008a BD46     		mov	sp, r7
 162              		.cfi_def_cfa_register 13
 163              		@ sp needed
 164 008c 80BD     		pop	{r7, pc}
 165              	.L12:
 166 008e 00BF     		.align	2
 167              	.L11:
 168 0090 00000000 		.word	time
 169              		.cfi_endproc
 170              	.LFE56:
 171              		.size	read_time, .-read_time
 172              		.section	.text.read_date,"ax",%progbits
 173              		.align	2
 174              		.global	read_date
 175              		.thumb
 176              		.thumb_func
 177              		.type	read_date, %function
 178              	read_date:
 179              	.LFB57:
  87:.\I2C.c       **** 
  88:.\I2C.c       **** /*
  89:.\I2C.c       **** ***************************************************************************************************
  90:.\I2C.c       **** *                                         uint8 read_date( void )
  91:.\I2C.c       **** *
  92:.\I2C.c       **** * Description : 
  93:.\I2C.c       **** *               
  94:.\I2C.c       **** *
  95:.\I2C.c       **** * Argument(s) : none
  96:.\I2C.c       **** *
  97:.\I2C.c       **** * Return(s)   : none
  98:.\I2C.c       **** *
  99:.\I2C.c       **** * Caller(s)   : 
 100:.\I2C.c       **** *
 101:.\I2C.c       **** * Note(s)     : none.
 102:.\I2C.c       **** ***************************************************************************************************
 103:.\I2C.c       **** */
ARM GAS  C:\Users\Lenovo\AppData\Local\Temp\cc7PLiU0.s 			page 6


 104:.\I2C.c       **** uint8 read_date(){
 180              		.loc 1 104 0
 181              		.cfi_startproc
 182              		@ args = 0, pretend = 0, frame = 8
 183              		@ frame_needed = 1, uses_anonymous_args = 0
 184 0000 90B5     		push	{r4, r7, lr}
 185              		.cfi_def_cfa_offset 12
 186              		.cfi_offset 4, -12
 187              		.cfi_offset 7, -8
 188              		.cfi_offset 14, -4
 189 0002 83B0     		sub	sp, sp, #12
 190              		.cfi_def_cfa_offset 24
 191 0004 00AF     		add	r7, sp, #0
 192              		.cfi_def_cfa_register 7
 105:.\I2C.c       **** 	uint8 status;
 106:.\I2C.c       ****     uint32 i;
 107:.\I2C.c       **** 	for(i=4;i<=6;i++){
 193              		.loc 1 107 0
 194 0006 0423     		movs	r3, #4
 195 0008 7B60     		str	r3, [r7, #4]
 196 000a 37E0     		b	.L14
 197              	.L21:
 108:.\I2C.c       ****         I2C_1_MasterClearStatus();
 198              		.loc 1 108 0
 199 000c FFF7FEFF 		bl	I2C_1_MasterClearStatus
 109:.\I2C.c       ****         status = I2C_1_MasterSendStart(0x68, I2C_1_WRITE_XFER_MODE);
 200              		.loc 1 109 0
 201 0010 6820     		movs	r0, #104
 202 0012 0021     		movs	r1, #0
 203 0014 FFF7FEFF 		bl	I2C_1_MasterSendStart
 204 0018 0346     		mov	r3, r0
 205 001a FB70     		strb	r3, [r7, #3]
 110:.\I2C.c       ****         if(I2C_1_MSTR_NO_ERROR == status)								 		/* Check if transfer completed without errors *
 206              		.loc 1 110 0
 207 001c FB78     		ldrb	r3, [r7, #3]	@ zero_extendqisi2
 208 001e 002B     		cmp	r3, #0
 209 0020 27D1     		bne	.L15
 111:.\I2C.c       ****     	{
 112:.\I2C.c       ****             status = I2C_1_MasterWriteByte(i);
 210              		.loc 1 112 0
 211 0022 7B68     		ldr	r3, [r7, #4]
 212 0024 DBB2     		uxtb	r3, r3
 213 0026 1846     		mov	r0, r3
 214 0028 FFF7FEFF 		bl	I2C_1_MasterWriteByte
 215 002c 0346     		mov	r3, r0
 216 002e FB70     		strb	r3, [r7, #3]
 113:.\I2C.c       ****             if(status != I2C_1_MSTR_NO_ERROR)
 217              		.loc 1 113 0
 218 0030 FB78     		ldrb	r3, [r7, #3]	@ zero_extendqisi2
 219 0032 002B     		cmp	r3, #0
 220 0034 01D0     		beq	.L16
 114:.\I2C.c       ****             {
 115:.\I2C.c       ****                 return 0;
 221              		.loc 1 115 0
 222 0036 0023     		movs	r3, #0
 223 0038 24E0     		b	.L17
 224              	.L16:
ARM GAS  C:\Users\Lenovo\AppData\Local\Temp\cc7PLiU0.s 			page 7


 116:.\I2C.c       ****             }
 117:.\I2C.c       **** 			else{
 118:.\I2C.c       **** 		        I2C_1_MasterSendStop(); 										/* Send Stop */
 225              		.loc 1 118 0
 226 003a FFF7FEFF 		bl	I2C_1_MasterSendStop
 119:.\I2C.c       **** 		        CyDelay(10);
 227              		.loc 1 119 0
 228 003e 0A20     		movs	r0, #10
 229 0040 FFF7FEFF 		bl	CyDelay
 120:.\I2C.c       **** 		        status = I2C_1_MasterSendStart(0x68, I2C_1_READ_XFER_MODE);
 230              		.loc 1 120 0
 231 0044 6820     		movs	r0, #104
 232 0046 0121     		movs	r1, #1
 233 0048 FFF7FEFF 		bl	I2C_1_MasterSendStart
 234 004c 0346     		mov	r3, r0
 235 004e FB70     		strb	r3, [r7, #3]
 121:.\I2C.c       **** 		        if(I2C_1_MSTR_NO_ERROR == status){
 236              		.loc 1 121 0
 237 0050 FB78     		ldrb	r3, [r7, #3]	@ zero_extendqisi2
 238 0052 002B     		cmp	r3, #0
 239 0054 0BD1     		bne	.L18
 122:.\I2C.c       **** 		            date[i-4] = I2C_1_MasterReadByte(I2C_1_NAK_DATA);
 240              		.loc 1 122 0
 241 0056 7B68     		ldr	r3, [r7, #4]
 242 0058 1C1F     		subs	r4, r3, #4
 243 005a 0020     		movs	r0, #0
 244 005c FFF7FEFF 		bl	I2C_1_MasterReadByte
 245 0060 0346     		mov	r3, r0
 246 0062 1A46     		mov	r2, r3
 247 0064 094B     		ldr	r3, .L23
 248 0066 1A55     		strb	r2, [r3, r4]
 123:.\I2C.c       **** 		        }
 124:.\I2C.c       **** 				else{
 125:.\I2C.c       **** 					return 0;
 126:.\I2C.c       **** 				}
 127:.\I2C.c       **** 		        I2C_1_MasterSendStop();	
 249              		.loc 1 127 0
 250 0068 FFF7FEFF 		bl	I2C_1_MasterSendStop
 251 006c 03E0     		b	.L22
 252              	.L18:
 125:.\I2C.c       **** 				}
 253              		.loc 1 125 0
 254 006e 0023     		movs	r3, #0
 255 0070 08E0     		b	.L17
 256              	.L15:
 128:.\I2C.c       **** 			}
 129:.\I2C.c       ****         }
 130:.\I2C.c       **** 		else{
 131:.\I2C.c       **** 			return 0;
 257              		.loc 1 131 0
 258 0072 0023     		movs	r3, #0
 259 0074 06E0     		b	.L17
 260              	.L22:
 107:.\I2C.c       ****         I2C_1_MasterClearStatus();
 261              		.loc 1 107 0 discriminator 2
 262 0076 7B68     		ldr	r3, [r7, #4]
 263 0078 0133     		adds	r3, r3, #1
ARM GAS  C:\Users\Lenovo\AppData\Local\Temp\cc7PLiU0.s 			page 8


 264 007a 7B60     		str	r3, [r7, #4]
 265              	.L14:
 107:.\I2C.c       ****         I2C_1_MasterClearStatus();
 266              		.loc 1 107 0 is_stmt 0 discriminator 1
 267 007c 7B68     		ldr	r3, [r7, #4]
 268 007e 062B     		cmp	r3, #6
 269 0080 C4D9     		bls	.L21
 132:.\I2C.c       **** 		}		
 133:.\I2C.c       **** 	}
 134:.\I2C.c       **** 	return 1;
 270              		.loc 1 134 0 is_stmt 1
 271 0082 0123     		movs	r3, #1
 272              	.L17:
 135:.\I2C.c       **** }
 273              		.loc 1 135 0
 274 0084 1846     		mov	r0, r3
 275 0086 0C37     		adds	r7, r7, #12
 276              		.cfi_def_cfa_offset 12
 277 0088 BD46     		mov	sp, r7
 278              		.cfi_def_cfa_register 13
 279              		@ sp needed
 280 008a 90BD     		pop	{r4, r7, pc}
 281              	.L24:
 282              		.align	2
 283              	.L23:
 284 008c 00000000 		.word	date
 285              		.cfi_endproc
 286              	.LFE57:
 287              		.size	read_date, .-read_date
 288              		.section	.text.write_time,"ax",%progbits
 289              		.align	2
 290              		.global	write_time
 291              		.thumb
 292              		.thumb_func
 293              		.type	write_time, %function
 294              	write_time:
 295              	.LFB58:
 136:.\I2C.c       **** 
 137:.\I2C.c       **** /*
 138:.\I2C.c       **** ***************************************************************************************************
 139:.\I2C.c       **** *                                         uint8 write_time( void )
 140:.\I2C.c       **** *
 141:.\I2C.c       **** * Description : 
 142:.\I2C.c       **** *               
 143:.\I2C.c       **** *
 144:.\I2C.c       **** * Argument(s) : none
 145:.\I2C.c       **** *
 146:.\I2C.c       **** * Return(s)   : none
 147:.\I2C.c       **** *
 148:.\I2C.c       **** * Caller(s)   : 
 149:.\I2C.c       **** *
 150:.\I2C.c       **** * Note(s)     : none.
 151:.\I2C.c       **** ***************************************************************************************************
 152:.\I2C.c       **** */
 153:.\I2C.c       **** 
 154:.\I2C.c       **** uint8 write_time( void ){
 296              		.loc 1 154 0
ARM GAS  C:\Users\Lenovo\AppData\Local\Temp\cc7PLiU0.s 			page 9


 297              		.cfi_startproc
 298              		@ args = 0, pretend = 0, frame = 16
 299              		@ frame_needed = 1, uses_anonymous_args = 0
 300 0000 80B5     		push	{r7, lr}
 301              		.cfi_def_cfa_offset 8
 302              		.cfi_offset 7, -8
 303              		.cfi_offset 14, -4
 304 0002 84B0     		sub	sp, sp, #16
 305              		.cfi_def_cfa_offset 24
 306 0004 00AF     		add	r7, sp, #0
 307              		.cfi_def_cfa_register 7
 155:.\I2C.c       **** 	uint8 status, data[6];
 156:.\I2C.c       ****     uint32 i;
 157:.\I2C.c       **** 	data[0]=0;
 308              		.loc 1 157 0
 309 0006 0023     		movs	r3, #0
 310 0008 3B71     		strb	r3, [r7, #4]
 158:.\I2C.c       **** 	data[1]=time[0];
 311              		.loc 1 158 0
 312 000a 1C4B     		ldr	r3, .L34
 313 000c 1B78     		ldrb	r3, [r3]
 314 000e DBB2     		uxtb	r3, r3
 315 0010 7B71     		strb	r3, [r7, #5]
 159:.\I2C.c       **** 	data[2]=time[1];
 316              		.loc 1 159 0
 317 0012 1A4B     		ldr	r3, .L34
 318 0014 5B78     		ldrb	r3, [r3, #1]
 319 0016 DBB2     		uxtb	r3, r3
 320 0018 BB71     		strb	r3, [r7, #6]
 160:.\I2C.c       ****     data[3]=time[2];
 321              		.loc 1 160 0
 322 001a 184B     		ldr	r3, .L34
 323 001c 9B78     		ldrb	r3, [r3, #2]
 324 001e DBB2     		uxtb	r3, r3
 325 0020 FB71     		strb	r3, [r7, #7]
 161:.\I2C.c       **** 	I2C_1_MasterClearStatus();
 326              		.loc 1 161 0
 327 0022 FFF7FEFF 		bl	I2C_1_MasterClearStatus
 162:.\I2C.c       ****     status = I2C_1_MasterSendStart(0x68, I2C_1_WRITE_XFER_MODE);
 328              		.loc 1 162 0
 329 0026 6820     		movs	r0, #104
 330 0028 0021     		movs	r1, #0
 331 002a FFF7FEFF 		bl	I2C_1_MasterSendStart
 332 002e 0346     		mov	r3, r0
 333 0030 FB72     		strb	r3, [r7, #11]
 163:.\I2C.c       ****     if(I2C_1_MSTR_NO_ERROR == status) 
 334              		.loc 1 163 0
 335 0032 FB7A     		ldrb	r3, [r7, #11]	@ zero_extendqisi2
 336 0034 002B     		cmp	r3, #0
 337 0036 17D1     		bne	.L26
 164:.\I2C.c       ****     {
 165:.\I2C.c       ****         for(i=0; i<4; i++)
 338              		.loc 1 165 0
 339 0038 0023     		movs	r3, #0
 340 003a FB60     		str	r3, [r7, #12]
 341 003c 10E0     		b	.L27
 342              	.L30:
ARM GAS  C:\Users\Lenovo\AppData\Local\Temp\cc7PLiU0.s 			page 10


 166:.\I2C.c       ****         {
 167:.\I2C.c       ****             status = I2C_1_MasterWriteByte(data[i]);
 343              		.loc 1 167 0
 344 003e 3A1D     		adds	r2, r7, #4
 345 0040 FB68     		ldr	r3, [r7, #12]
 346 0042 1344     		add	r3, r3, r2
 347 0044 1B78     		ldrb	r3, [r3]	@ zero_extendqisi2
 348 0046 1846     		mov	r0, r3
 349 0048 FFF7FEFF 		bl	I2C_1_MasterWriteByte
 350 004c 0346     		mov	r3, r0
 351 004e FB72     		strb	r3, [r7, #11]
 168:.\I2C.c       ****             if(status != I2C_1_MSTR_NO_ERROR)
 352              		.loc 1 168 0
 353 0050 FB7A     		ldrb	r3, [r7, #11]	@ zero_extendqisi2
 354 0052 002B     		cmp	r3, #0
 355 0054 01D0     		beq	.L28
 169:.\I2C.c       ****             {
 170:.\I2C.c       ****                 return 0;
 356              		.loc 1 170 0
 357 0056 0023     		movs	r3, #0
 358 0058 0BE0     		b	.L32
 359              	.L28:
 165:.\I2C.c       ****         {
 360              		.loc 1 165 0 discriminator 2
 361 005a FB68     		ldr	r3, [r7, #12]
 362 005c 0133     		adds	r3, r3, #1
 363 005e FB60     		str	r3, [r7, #12]
 364              	.L27:
 165:.\I2C.c       ****         {
 365              		.loc 1 165 0 is_stmt 0 discriminator 1
 366 0060 FB68     		ldr	r3, [r7, #12]
 367 0062 032B     		cmp	r3, #3
 368 0064 EBD9     		bls	.L30
 369 0066 01E0     		b	.L33
 370              	.L26:
 171:.\I2C.c       ****             }
 172:.\I2C.c       ****         }
 173:.\I2C.c       ****     }
 174:.\I2C.c       ****     else{
 175:.\I2C.c       **** 		return 0;
 371              		.loc 1 175 0 is_stmt 1
 372 0068 0023     		movs	r3, #0
 373 006a 02E0     		b	.L32
 374              	.L33:
 176:.\I2C.c       ****     }
 177:.\I2C.c       ****     I2C_1_MasterSendStop();	
 375              		.loc 1 177 0
 376 006c FFF7FEFF 		bl	I2C_1_MasterSendStop
 178:.\I2C.c       **** 	return 1;
 377              		.loc 1 178 0
 378 0070 0123     		movs	r3, #1
 379              	.L32:
 179:.\I2C.c       **** }
 380              		.loc 1 179 0 discriminator 1
 381 0072 1846     		mov	r0, r3
 382 0074 1037     		adds	r7, r7, #16
 383              		.cfi_def_cfa_offset 8
ARM GAS  C:\Users\Lenovo\AppData\Local\Temp\cc7PLiU0.s 			page 11


 384 0076 BD46     		mov	sp, r7
 385              		.cfi_def_cfa_register 13
 386              		@ sp needed
 387 0078 80BD     		pop	{r7, pc}
 388              	.L35:
 389 007a 00BF     		.align	2
 390              	.L34:
 391 007c 00000000 		.word	time
 392              		.cfi_endproc
 393              	.LFE58:
 394              		.size	write_time, .-write_time
 395              		.section	.text.write_date,"ax",%progbits
 396              		.align	2
 397              		.global	write_date
 398              		.thumb
 399              		.thumb_func
 400              		.type	write_date, %function
 401              	write_date:
 402              	.LFB59:
 180:.\I2C.c       **** 
 181:.\I2C.c       **** /*
 182:.\I2C.c       **** ***************************************************************************************************
 183:.\I2C.c       **** *                                         uint8 write_date( void )
 184:.\I2C.c       **** *
 185:.\I2C.c       **** * Description : 
 186:.\I2C.c       **** *               
 187:.\I2C.c       **** *
 188:.\I2C.c       **** * Argument(s) : none
 189:.\I2C.c       **** *
 190:.\I2C.c       **** * Return(s)   : none
 191:.\I2C.c       **** *
 192:.\I2C.c       **** * Caller(s)   : 
 193:.\I2C.c       **** *
 194:.\I2C.c       **** * Note(s)     : none.
 195:.\I2C.c       **** ***************************************************************************************************
 196:.\I2C.c       **** */
 197:.\I2C.c       **** 
 198:.\I2C.c       **** uint8 write_date( void ){
 403              		.loc 1 198 0
 404              		.cfi_startproc
 405              		@ args = 0, pretend = 0, frame = 16
 406              		@ frame_needed = 1, uses_anonymous_args = 0
 407 0000 80B5     		push	{r7, lr}
 408              		.cfi_def_cfa_offset 8
 409              		.cfi_offset 7, -8
 410              		.cfi_offset 14, -4
 411 0002 84B0     		sub	sp, sp, #16
 412              		.cfi_def_cfa_offset 24
 413 0004 00AF     		add	r7, sp, #0
 414              		.cfi_def_cfa_register 7
 199:.\I2C.c       **** 	uint8 status, data[6];
 200:.\I2C.c       ****     uint32 i;
 201:.\I2C.c       **** 	data[0]=4;
 415              		.loc 1 201 0
 416 0006 0423     		movs	r3, #4
 417 0008 3B71     		strb	r3, [r7, #4]
 202:.\I2C.c       **** 	data[1]=date[0];
ARM GAS  C:\Users\Lenovo\AppData\Local\Temp\cc7PLiU0.s 			page 12


 418              		.loc 1 202 0
 419 000a 1C4B     		ldr	r3, .L45
 420 000c 1B78     		ldrb	r3, [r3]
 421 000e DBB2     		uxtb	r3, r3
 422 0010 7B71     		strb	r3, [r7, #5]
 203:.\I2C.c       **** 	data[2]=date[1];
 423              		.loc 1 203 0
 424 0012 1A4B     		ldr	r3, .L45
 425 0014 5B78     		ldrb	r3, [r3, #1]
 426 0016 DBB2     		uxtb	r3, r3
 427 0018 BB71     		strb	r3, [r7, #6]
 204:.\I2C.c       **** 	data[3]=date[2];
 428              		.loc 1 204 0
 429 001a 184B     		ldr	r3, .L45
 430 001c 9B78     		ldrb	r3, [r3, #2]
 431 001e DBB2     		uxtb	r3, r3
 432 0020 FB71     		strb	r3, [r7, #7]
 205:.\I2C.c       **** 	I2C_1_MasterClearStatus();
 433              		.loc 1 205 0
 434 0022 FFF7FEFF 		bl	I2C_1_MasterClearStatus
 206:.\I2C.c       ****     status = I2C_1_MasterSendStart(0x68, I2C_1_WRITE_XFER_MODE);
 435              		.loc 1 206 0
 436 0026 6820     		movs	r0, #104
 437 0028 0021     		movs	r1, #0
 438 002a FFF7FEFF 		bl	I2C_1_MasterSendStart
 439 002e 0346     		mov	r3, r0
 440 0030 FB72     		strb	r3, [r7, #11]
 207:.\I2C.c       ****     if(I2C_1_MSTR_NO_ERROR == status) 
 441              		.loc 1 207 0
 442 0032 FB7A     		ldrb	r3, [r7, #11]	@ zero_extendqisi2
 443 0034 002B     		cmp	r3, #0
 444 0036 17D1     		bne	.L37
 208:.\I2C.c       ****     {
 209:.\I2C.c       ****         for(i=0; i<4; i++)
 445              		.loc 1 209 0
 446 0038 0023     		movs	r3, #0
 447 003a FB60     		str	r3, [r7, #12]
 448 003c 10E0     		b	.L38
 449              	.L41:
 210:.\I2C.c       ****         {
 211:.\I2C.c       ****             status = I2C_1_MasterWriteByte(data[i]);
 450              		.loc 1 211 0
 451 003e 3A1D     		adds	r2, r7, #4
 452 0040 FB68     		ldr	r3, [r7, #12]
 453 0042 1344     		add	r3, r3, r2
 454 0044 1B78     		ldrb	r3, [r3]	@ zero_extendqisi2
 455 0046 1846     		mov	r0, r3
 456 0048 FFF7FEFF 		bl	I2C_1_MasterWriteByte
 457 004c 0346     		mov	r3, r0
 458 004e FB72     		strb	r3, [r7, #11]
 212:.\I2C.c       ****             if(status != I2C_1_MSTR_NO_ERROR)
 459              		.loc 1 212 0
 460 0050 FB7A     		ldrb	r3, [r7, #11]	@ zero_extendqisi2
 461 0052 002B     		cmp	r3, #0
 462 0054 01D0     		beq	.L39
 213:.\I2C.c       ****             {
 214:.\I2C.c       ****                 return 0;
ARM GAS  C:\Users\Lenovo\AppData\Local\Temp\cc7PLiU0.s 			page 13


 463              		.loc 1 214 0
 464 0056 0023     		movs	r3, #0
 465 0058 0BE0     		b	.L43
 466              	.L39:
 209:.\I2C.c       ****         {
 467              		.loc 1 209 0 discriminator 2
 468 005a FB68     		ldr	r3, [r7, #12]
 469 005c 0133     		adds	r3, r3, #1
 470 005e FB60     		str	r3, [r7, #12]
 471              	.L38:
 209:.\I2C.c       ****         {
 472              		.loc 1 209 0 is_stmt 0 discriminator 1
 473 0060 FB68     		ldr	r3, [r7, #12]
 474 0062 032B     		cmp	r3, #3
 475 0064 EBD9     		bls	.L41
 476 0066 01E0     		b	.L44
 477              	.L37:
 215:.\I2C.c       ****             }
 216:.\I2C.c       ****         }
 217:.\I2C.c       ****     }
 218:.\I2C.c       ****     else{
 219:.\I2C.c       **** 		return 0;
 478              		.loc 1 219 0 is_stmt 1
 479 0068 0023     		movs	r3, #0
 480 006a 02E0     		b	.L43
 481              	.L44:
 220:.\I2C.c       ****     }
 221:.\I2C.c       ****     I2C_1_MasterSendStop();	
 482              		.loc 1 221 0
 483 006c FFF7FEFF 		bl	I2C_1_MasterSendStop
 222:.\I2C.c       **** 	return 1;
 484              		.loc 1 222 0
 485 0070 0123     		movs	r3, #1
 486              	.L43:
 223:.\I2C.c       **** }
 487              		.loc 1 223 0 discriminator 1
 488 0072 1846     		mov	r0, r3
 489 0074 1037     		adds	r7, r7, #16
 490              		.cfi_def_cfa_offset 8
 491 0076 BD46     		mov	sp, r7
 492              		.cfi_def_cfa_register 13
 493              		@ sp needed
 494 0078 80BD     		pop	{r7, pc}
 495              	.L46:
 496 007a 00BF     		.align	2
 497              	.L45:
 498 007c 00000000 		.word	date
 499              		.cfi_endproc
 500              	.LFE59:
 501              		.size	write_date, .-write_date
 502              		.text
 503              	.Letext0:
 504              		.file 2 "c:\\program files (x86)\\cypress\\psoc creator\\3.3\\psoc creator\\import\\gnu\\arm\\4.9.
 505              		.file 3 "c:\\program files (x86)\\cypress\\psoc creator\\3.3\\psoc creator\\import\\gnu\\arm\\4.9.
 506              		.file 4 "Generated_Source\\PSoC5/cytypes.h"
 507              		.file 5 ".\\variables.h"
 508              		.file 6 "Generated_Source\\PSoC5/core_cm3.h"
ARM GAS  C:\Users\Lenovo\AppData\Local\Temp\cc7PLiU0.s 			page 14


 509              		.section	.debug_info,"",%progbits
 510              	.Ldebug_info0:
 511 0000 EA080000 		.4byte	0x8ea
 512 0004 0400     		.2byte	0x4
 513 0006 00000000 		.4byte	.Ldebug_abbrev0
 514 000a 04       		.byte	0x4
 515 000b 01       		.uleb128 0x1
 516 000c 19030000 		.4byte	.LASF121
 517 0010 01       		.byte	0x1
 518 0011 DE050000 		.4byte	.LASF122
 519 0015 D3000000 		.4byte	.LASF123
 520 0019 00000000 		.4byte	.Ldebug_ranges0+0
 521 001d 00000000 		.4byte	0
 522 0021 00000000 		.4byte	.Ldebug_line0
 523 0025 02       		.uleb128 0x2
 524 0026 01       		.byte	0x1
 525 0027 06       		.byte	0x6
 526 0028 E6050000 		.4byte	.LASF0
 527 002c 02       		.uleb128 0x2
 528 002d 01       		.byte	0x1
 529 002e 08       		.byte	0x8
 530 002f 65050000 		.4byte	.LASF1
 531 0033 02       		.uleb128 0x2
 532 0034 02       		.byte	0x2
 533 0035 05       		.byte	0x5
 534 0036 5A040000 		.4byte	.LASF2
 535 003a 02       		.uleb128 0x2
 536 003b 02       		.byte	0x2
 537 003c 07       		.byte	0x7
 538 003d F2050000 		.4byte	.LASF3
 539 0041 03       		.uleb128 0x3
 540 0042 66000000 		.4byte	.LASF9
 541 0046 02       		.byte	0x2
 542 0047 3F       		.byte	0x3f
 543 0048 4C000000 		.4byte	0x4c
 544 004c 02       		.uleb128 0x2
 545 004d 04       		.byte	0x4
 546 004e 05       		.byte	0x5
 547 004f 64040000 		.4byte	.LASF4
 548 0053 02       		.uleb128 0x2
 549 0054 04       		.byte	0x4
 550 0055 07       		.byte	0x7
 551 0056 FD040000 		.4byte	.LASF5
 552 005a 02       		.uleb128 0x2
 553 005b 08       		.byte	0x8
 554 005c 05       		.byte	0x5
 555 005d B6020000 		.4byte	.LASF6
 556 0061 02       		.uleb128 0x2
 557 0062 08       		.byte	0x8
 558 0063 07       		.byte	0x7
 559 0064 25010000 		.4byte	.LASF7
 560 0068 04       		.uleb128 0x4
 561 0069 04       		.byte	0x4
 562 006a 05       		.byte	0x5
 563 006b 696E7400 		.ascii	"int\000"
 564 006f 02       		.uleb128 0x2
 565 0070 04       		.byte	0x4
ARM GAS  C:\Users\Lenovo\AppData\Local\Temp\cc7PLiU0.s 			page 15


 566 0071 07       		.byte	0x7
 567 0072 4B000000 		.4byte	.LASF8
 568 0076 03       		.uleb128 0x3
 569 0077 2E050000 		.4byte	.LASF10
 570 007b 03       		.byte	0x3
 571 007c 2C       		.byte	0x2c
 572 007d 41000000 		.4byte	0x41
 573 0081 03       		.uleb128 0x3
 574 0082 26060000 		.4byte	.LASF11
 575 0086 04       		.byte	0x4
 576 0087 A1       		.byte	0xa1
 577 0088 2C000000 		.4byte	0x2c
 578 008c 03       		.uleb128 0x3
 579 008d CF030000 		.4byte	.LASF12
 580 0091 04       		.byte	0x4
 581 0092 A3       		.byte	0xa3
 582 0093 53000000 		.4byte	0x53
 583 0097 02       		.uleb128 0x2
 584 0098 04       		.byte	0x4
 585 0099 04       		.byte	0x4
 586 009a CD000000 		.4byte	.LASF13
 587 009e 02       		.uleb128 0x2
 588 009f 08       		.byte	0x8
 589 00a0 04       		.byte	0x4
 590 00a1 2C060000 		.4byte	.LASF14
 591 00a5 03       		.uleb128 0x3
 592 00a6 C8040000 		.4byte	.LASF15
 593 00aa 04       		.byte	0x4
 594 00ab AD       		.byte	0xad
 595 00ac 61000000 		.4byte	0x61
 596 00b0 02       		.uleb128 0x2
 597 00b1 01       		.byte	0x1
 598 00b2 08       		.byte	0x8
 599 00b3 20020000 		.4byte	.LASF16
 600 00b7 05       		.uleb128 0x5
 601 00b8 81000000 		.4byte	0x81
 602 00bc 05       		.uleb128 0x5
 603 00bd 8C000000 		.4byte	0x8c
 604 00c1 02       		.uleb128 0x2
 605 00c2 04       		.byte	0x4
 606 00c3 07       		.byte	0x7
 607 00c4 F4040000 		.4byte	.LASF17
 608 00c8 06       		.uleb128 0x6
 609 00c9 22000000 		.4byte	.LASF68
 610 00cd 9502     		.2byte	0x295
 611 00cf 05       		.byte	0x5
 612 00d0 56       		.byte	0x56
 613 00d1 44030000 		.4byte	0x344
 614 00d5 07       		.uleb128 0x7
 615 00d6 87000000 		.4byte	.LASF18
 616 00da 05       		.byte	0x5
 617 00db 57       		.byte	0x57
 618 00dc 81000000 		.4byte	0x81
 619 00e0 00       		.byte	0
 620 00e1 07       		.uleb128 0x7
 621 00e2 85010000 		.4byte	.LASF19
 622 00e6 05       		.byte	0x5
ARM GAS  C:\Users\Lenovo\AppData\Local\Temp\cc7PLiU0.s 			page 16


 623 00e7 58       		.byte	0x58
 624 00e8 44030000 		.4byte	0x344
 625 00ec 01       		.byte	0x1
 626 00ed 07       		.uleb128 0x7
 627 00ee 68020000 		.4byte	.LASF20
 628 00f2 05       		.byte	0x5
 629 00f3 59       		.byte	0x59
 630 00f4 44030000 		.4byte	0x344
 631 00f8 1A       		.byte	0x1a
 632 00f9 07       		.uleb128 0x7
 633 00fa 33060000 		.4byte	.LASF21
 634 00fe 05       		.byte	0x5
 635 00ff 5A       		.byte	0x5a
 636 0100 81000000 		.4byte	0x81
 637 0104 33       		.byte	0x33
 638 0105 07       		.uleb128 0x7
 639 0106 53050000 		.4byte	.LASF22
 640 010a 05       		.byte	0x5
 641 010b 5B       		.byte	0x5b
 642 010c 81000000 		.4byte	0x81
 643 0110 34       		.byte	0x34
 644 0111 07       		.uleb128 0x7
 645 0112 93000000 		.4byte	.LASF23
 646 0116 05       		.byte	0x5
 647 0117 5C       		.byte	0x5c
 648 0118 54030000 		.4byte	0x354
 649 011c 35       		.byte	0x35
 650 011d 07       		.uleb128 0x7
 651 011e 27040000 		.4byte	.LASF24
 652 0122 05       		.byte	0x5
 653 0123 5D       		.byte	0x5d
 654 0124 54030000 		.4byte	0x354
 655 0128 3F       		.byte	0x3f
 656 0129 07       		.uleb128 0x7
 657 012a 59060000 		.4byte	.LASF25
 658 012e 05       		.byte	0x5
 659 012f 5E       		.byte	0x5e
 660 0130 44030000 		.4byte	0x344
 661 0134 49       		.byte	0x49
 662 0135 07       		.uleb128 0x7
 663 0136 F1030000 		.4byte	.LASF26
 664 013a 05       		.byte	0x5
 665 013b 5F       		.byte	0x5f
 666 013c 81000000 		.4byte	0x81
 667 0140 62       		.byte	0x62
 668 0141 07       		.uleb128 0x7
 669 0142 73050000 		.4byte	.LASF27
 670 0146 05       		.byte	0x5
 671 0147 60       		.byte	0x60
 672 0148 81000000 		.4byte	0x81
 673 014c 63       		.byte	0x63
 674 014d 07       		.uleb128 0x7
 675 014e 16020000 		.4byte	.LASF28
 676 0152 05       		.byte	0x5
 677 0153 61       		.byte	0x61
 678 0154 64030000 		.4byte	0x364
 679 0158 64       		.byte	0x64
ARM GAS  C:\Users\Lenovo\AppData\Local\Temp\cc7PLiU0.s 			page 17


 680 0159 07       		.uleb128 0x7
 681 015a B6030000 		.4byte	.LASF29
 682 015e 05       		.byte	0x5
 683 015f 62       		.byte	0x62
 684 0160 81000000 		.4byte	0x81
 685 0164 79       		.byte	0x79
 686 0165 07       		.uleb128 0x7
 687 0166 0D020000 		.4byte	.LASF30
 688 016a 05       		.byte	0x5
 689 016b 63       		.byte	0x63
 690 016c 81000000 		.4byte	0x81
 691 0170 7A       		.byte	0x7a
 692 0171 07       		.uleb128 0x7
 693 0172 3F000000 		.4byte	.LASF31
 694 0176 05       		.byte	0x5
 695 0177 64       		.byte	0x64
 696 0178 81000000 		.4byte	0x81
 697 017c 7B       		.byte	0x7b
 698 017d 07       		.uleb128 0x7
 699 017e AD050000 		.4byte	.LASF32
 700 0182 05       		.byte	0x5
 701 0183 65       		.byte	0x65
 702 0184 74030000 		.4byte	0x374
 703 0188 7C       		.byte	0x7c
 704 0189 07       		.uleb128 0x7
 705 018a DF010000 		.4byte	.LASF33
 706 018e 05       		.byte	0x5
 707 018f 66       		.byte	0x66
 708 0190 84030000 		.4byte	0x384
 709 0194 7E       		.byte	0x7e
 710 0195 07       		.uleb128 0x7
 711 0196 5C010000 		.4byte	.LASF34
 712 019a 05       		.byte	0x5
 713 019b 67       		.byte	0x67
 714 019c 81000000 		.4byte	0x81
 715 01a0 92       		.byte	0x92
 716 01a1 07       		.uleb128 0x7
 717 01a2 EB040000 		.4byte	.LASF35
 718 01a6 05       		.byte	0x5
 719 01a7 68       		.byte	0x68
 720 01a8 9A030000 		.4byte	0x39a
 721 01ac 93       		.byte	0x93
 722 01ad 07       		.uleb128 0x7
 723 01ae 8F040000 		.4byte	.LASF36
 724 01b2 05       		.byte	0x5
 725 01b3 69       		.byte	0x69
 726 01b4 AA030000 		.4byte	0x3aa
 727 01b8 98       		.byte	0x98
 728 01b9 07       		.uleb128 0x7
 729 01ba 76010000 		.4byte	.LASF37
 730 01be 05       		.byte	0x5
 731 01bf 6A       		.byte	0x6a
 732 01c0 AA030000 		.4byte	0x3aa
 733 01c4 9E       		.byte	0x9e
 734 01c5 07       		.uleb128 0x7
 735 01c6 3C060000 		.4byte	.LASF38
 736 01ca 05       		.byte	0x5
ARM GAS  C:\Users\Lenovo\AppData\Local\Temp\cc7PLiU0.s 			page 18


 737 01cb 6B       		.byte	0x6b
 738 01cc AA030000 		.4byte	0x3aa
 739 01d0 A4       		.byte	0xa4
 740 01d1 07       		.uleb128 0x7
 741 01d2 A7030000 		.4byte	.LASF39
 742 01d6 05       		.byte	0x5
 743 01d7 6C       		.byte	0x6c
 744 01d8 AA030000 		.4byte	0x3aa
 745 01dc AA       		.byte	0xaa
 746 01dd 07       		.uleb128 0x7
 747 01de 09040000 		.4byte	.LASF40
 748 01e2 05       		.byte	0x5
 749 01e3 6D       		.byte	0x6d
 750 01e4 BA030000 		.4byte	0x3ba
 751 01e8 B0       		.byte	0xb0
 752 01e9 07       		.uleb128 0x7
 753 01ea 3C010000 		.4byte	.LASF41
 754 01ee 05       		.byte	0x5
 755 01ef 6E       		.byte	0x6e
 756 01f0 BA030000 		.4byte	0x3ba
 757 01f4 BE       		.byte	0xbe
 758 01f5 07       		.uleb128 0x7
 759 01f6 EC020000 		.4byte	.LASF42
 760 01fa 05       		.byte	0x5
 761 01fb 6F       		.byte	0x6f
 762 01fc BA030000 		.4byte	0x3ba
 763 0200 CC       		.byte	0xcc
 764 0201 07       		.uleb128 0x7
 765 0202 7D020000 		.4byte	.LASF43
 766 0206 05       		.byte	0x5
 767 0207 70       		.byte	0x70
 768 0208 BA030000 		.4byte	0x3ba
 769 020c DA       		.byte	0xda
 770 020d 07       		.uleb128 0x7
 771 020e AD040000 		.4byte	.LASF44
 772 0212 05       		.byte	0x5
 773 0213 71       		.byte	0x71
 774 0214 BA030000 		.4byte	0x3ba
 775 0218 E8       		.byte	0xe8
 776 0219 07       		.uleb128 0x7
 777 021a E3030000 		.4byte	.LASF45
 778 021e 05       		.byte	0x5
 779 021f 72       		.byte	0x72
 780 0220 BA030000 		.4byte	0x3ba
 781 0224 F6       		.byte	0xf6
 782 0225 08       		.uleb128 0x8
 783 0226 41040000 		.4byte	.LASF46
 784 022a 05       		.byte	0x5
 785 022b 73       		.byte	0x73
 786 022c CA030000 		.4byte	0x3ca
 787 0230 0401     		.2byte	0x104
 788 0232 08       		.uleb128 0x8
 789 0233 A4010000 		.4byte	.LASF47
 790 0237 05       		.byte	0x5
 791 0238 74       		.byte	0x74
 792 0239 CA030000 		.4byte	0x3ca
 793 023d 0F01     		.2byte	0x10f
ARM GAS  C:\Users\Lenovo\AppData\Local\Temp\cc7PLiU0.s 			page 19


 794 023f 08       		.uleb128 0x8
 795 0240 F0010000 		.4byte	.LASF48
 796 0244 05       		.byte	0x5
 797 0245 75       		.byte	0x75
 798 0246 CA030000 		.4byte	0x3ca
 799 024a 1A01     		.2byte	0x11a
 800 024c 08       		.uleb128 0x8
 801 024d C2030000 		.4byte	.LASF49
 802 0251 05       		.byte	0x5
 803 0252 76       		.byte	0x76
 804 0253 81000000 		.4byte	0x81
 805 0257 2501     		.2byte	0x125
 806 0259 08       		.uleb128 0x8
 807 025a 5C020000 		.4byte	.LASF50
 808 025e 05       		.byte	0x5
 809 025f 77       		.byte	0x77
 810 0260 81000000 		.4byte	0x81
 811 0264 2601     		.2byte	0x126
 812 0266 08       		.uleb128 0x8
 813 0267 70000000 		.4byte	.LASF51
 814 026b 05       		.byte	0x5
 815 026c 78       		.byte	0x78
 816 026d 81000000 		.4byte	0x81
 817 0271 2701     		.2byte	0x127
 818 0273 08       		.uleb128 0x8
 819 0274 83040000 		.4byte	.LASF52
 820 0278 05       		.byte	0x5
 821 0279 79       		.byte	0x79
 822 027a 81000000 		.4byte	0x81
 823 027e 2801     		.2byte	0x128
 824 0280 08       		.uleb128 0x8
 825 0281 1A000000 		.4byte	.LASF53
 826 0285 05       		.byte	0x5
 827 0286 7A       		.byte	0x7a
 828 0287 DA030000 		.4byte	0x3da
 829 028b 2901     		.2byte	0x129
 830 028d 08       		.uleb128 0x8
 831 028e 8D020000 		.4byte	.LASF54
 832 0292 05       		.byte	0x5
 833 0293 7B       		.byte	0x7b
 834 0294 54030000 		.4byte	0x354
 835 0298 6A01     		.2byte	0x16a
 836 029a 08       		.uleb128 0x8
 837 029b C1000000 		.4byte	.LASF55
 838 029f 05       		.byte	0x5
 839 02a0 7C       		.byte	0x7c
 840 02a1 54030000 		.4byte	0x354
 841 02a5 7401     		.2byte	0x174
 842 02a7 08       		.uleb128 0x8
 843 02a8 74020000 		.4byte	.LASF56
 844 02ac 05       		.byte	0x5
 845 02ad 7D       		.byte	0x7d
 846 02ae 54030000 		.4byte	0x354
 847 02b2 7E01     		.2byte	0x17e
 848 02b4 08       		.uleb128 0x8
 849 02b5 C5010000 		.4byte	.LASF57
 850 02b9 05       		.byte	0x5
ARM GAS  C:\Users\Lenovo\AppData\Local\Temp\cc7PLiU0.s 			page 20


 851 02ba 7E       		.byte	0x7e
 852 02bb EA030000 		.4byte	0x3ea
 853 02bf 8801     		.2byte	0x188
 854 02c1 08       		.uleb128 0x8
 855 02c2 58000000 		.4byte	.LASF58
 856 02c6 05       		.byte	0x5
 857 02c7 7F       		.byte	0x7f
 858 02c8 EA030000 		.4byte	0x3ea
 859 02cc D301     		.2byte	0x1d3
 860 02ce 08       		.uleb128 0x8
 861 02cf A0000000 		.4byte	.LASF59
 862 02d3 05       		.byte	0x5
 863 02d4 80       		.byte	0x80
 864 02d5 00040000 		.4byte	0x400
 865 02d9 1E02     		.2byte	0x21e
 866 02db 08       		.uleb128 0x8
 867 02dc 40050000 		.4byte	.LASF60
 868 02e0 05       		.byte	0x5
 869 02e1 81       		.byte	0x81
 870 02e2 00040000 		.4byte	0x400
 871 02e6 2D02     		.2byte	0x22d
 872 02e8 08       		.uleb128 0x8
 873 02e9 85050000 		.4byte	.LASF61
 874 02ed 05       		.byte	0x5
 875 02ee 82       		.byte	0x82
 876 02ef 16040000 		.4byte	0x416
 877 02f3 3C02     		.2byte	0x23c
 878 02f5 08       		.uleb128 0x8
 879 02f6 C3050000 		.4byte	.LASF62
 880 02fa 05       		.byte	0x5
 881 02fb 83       		.byte	0x83
 882 02fc 16040000 		.4byte	0x416
 883 0300 5A02     		.2byte	0x25a
 884 0302 08       		.uleb128 0x8
 885 0303 0D030000 		.4byte	.LASF63
 886 0307 05       		.byte	0x5
 887 0308 84       		.byte	0x84
 888 0309 54030000 		.4byte	0x354
 889 030d 7802     		.2byte	0x278
 890 030f 08       		.uleb128 0x8
 891 0310 1C050000 		.4byte	.LASF64
 892 0314 05       		.byte	0x5
 893 0315 85       		.byte	0x85
 894 0316 81000000 		.4byte	0x81
 895 031a 8202     		.2byte	0x282
 896 031c 08       		.uleb128 0x8
 897 031d 4D040000 		.4byte	.LASF65
 898 0321 05       		.byte	0x5
 899 0322 86       		.byte	0x86
 900 0323 2C040000 		.4byte	0x42c
 901 0327 8302     		.2byte	0x283
 902 0329 08       		.uleb128 0x8
 903 032a 98020000 		.4byte	.LASF66
 904 032e 05       		.byte	0x5
 905 032f 87       		.byte	0x87
 906 0330 74030000 		.4byte	0x374
 907 0334 9202     		.2byte	0x292
ARM GAS  C:\Users\Lenovo\AppData\Local\Temp\cc7PLiU0.s 			page 21


 908 0336 08       		.uleb128 0x8
 909 0337 B0010000 		.4byte	.LASF67
 910 033b 05       		.byte	0x5
 911 033c 88       		.byte	0x88
 912 033d 81000000 		.4byte	0x81
 913 0341 9402     		.2byte	0x294
 914 0343 00       		.byte	0
 915 0344 09       		.uleb128 0x9
 916 0345 81000000 		.4byte	0x81
 917 0349 54030000 		.4byte	0x354
 918 034d 0A       		.uleb128 0xa
 919 034e C1000000 		.4byte	0xc1
 920 0352 18       		.byte	0x18
 921 0353 00       		.byte	0
 922 0354 09       		.uleb128 0x9
 923 0355 81000000 		.4byte	0x81
 924 0359 64030000 		.4byte	0x364
 925 035d 0A       		.uleb128 0xa
 926 035e C1000000 		.4byte	0xc1
 927 0362 09       		.byte	0x9
 928 0363 00       		.byte	0
 929 0364 09       		.uleb128 0x9
 930 0365 81000000 		.4byte	0x81
 931 0369 74030000 		.4byte	0x374
 932 036d 0A       		.uleb128 0xa
 933 036e C1000000 		.4byte	0xc1
 934 0372 14       		.byte	0x14
 935 0373 00       		.byte	0
 936 0374 09       		.uleb128 0x9
 937 0375 81000000 		.4byte	0x81
 938 0379 84030000 		.4byte	0x384
 939 037d 0A       		.uleb128 0xa
 940 037e C1000000 		.4byte	0xc1
 941 0382 01       		.byte	0x1
 942 0383 00       		.byte	0
 943 0384 09       		.uleb128 0x9
 944 0385 81000000 		.4byte	0x81
 945 0389 9A030000 		.4byte	0x39a
 946 038d 0A       		.uleb128 0xa
 947 038e C1000000 		.4byte	0xc1
 948 0392 01       		.byte	0x1
 949 0393 0A       		.uleb128 0xa
 950 0394 C1000000 		.4byte	0xc1
 951 0398 09       		.byte	0x9
 952 0399 00       		.byte	0
 953 039a 09       		.uleb128 0x9
 954 039b 81000000 		.4byte	0x81
 955 039f AA030000 		.4byte	0x3aa
 956 03a3 0A       		.uleb128 0xa
 957 03a4 C1000000 		.4byte	0xc1
 958 03a8 04       		.byte	0x4
 959 03a9 00       		.byte	0
 960 03aa 09       		.uleb128 0x9
 961 03ab 81000000 		.4byte	0x81
 962 03af BA030000 		.4byte	0x3ba
 963 03b3 0A       		.uleb128 0xa
 964 03b4 C1000000 		.4byte	0xc1
ARM GAS  C:\Users\Lenovo\AppData\Local\Temp\cc7PLiU0.s 			page 22


 965 03b8 05       		.byte	0x5
 966 03b9 00       		.byte	0
 967 03ba 09       		.uleb128 0x9
 968 03bb 81000000 		.4byte	0x81
 969 03bf CA030000 		.4byte	0x3ca
 970 03c3 0A       		.uleb128 0xa
 971 03c4 C1000000 		.4byte	0xc1
 972 03c8 0D       		.byte	0xd
 973 03c9 00       		.byte	0
 974 03ca 09       		.uleb128 0x9
 975 03cb 81000000 		.4byte	0x81
 976 03cf DA030000 		.4byte	0x3da
 977 03d3 0A       		.uleb128 0xa
 978 03d4 C1000000 		.4byte	0xc1
 979 03d8 0A       		.byte	0xa
 980 03d9 00       		.byte	0
 981 03da 09       		.uleb128 0x9
 982 03db 81000000 		.4byte	0x81
 983 03df EA030000 		.4byte	0x3ea
 984 03e3 0A       		.uleb128 0xa
 985 03e4 C1000000 		.4byte	0xc1
 986 03e8 40       		.byte	0x40
 987 03e9 00       		.byte	0
 988 03ea 09       		.uleb128 0x9
 989 03eb 81000000 		.4byte	0x81
 990 03ef 00040000 		.4byte	0x400
 991 03f3 0A       		.uleb128 0xa
 992 03f4 C1000000 		.4byte	0xc1
 993 03f8 02       		.byte	0x2
 994 03f9 0A       		.uleb128 0xa
 995 03fa C1000000 		.4byte	0xc1
 996 03fe 18       		.byte	0x18
 997 03ff 00       		.byte	0
 998 0400 09       		.uleb128 0x9
 999 0401 81000000 		.4byte	0x81
 1000 0405 16040000 		.4byte	0x416
 1001 0409 0A       		.uleb128 0xa
 1002 040a C1000000 		.4byte	0xc1
 1003 040e 02       		.byte	0x2
 1004 040f 0A       		.uleb128 0xa
 1005 0410 C1000000 		.4byte	0xc1
 1006 0414 04       		.byte	0x4
 1007 0415 00       		.byte	0
 1008 0416 09       		.uleb128 0x9
 1009 0417 81000000 		.4byte	0x81
 1010 041b 2C040000 		.4byte	0x42c
 1011 041f 0A       		.uleb128 0xa
 1012 0420 C1000000 		.4byte	0xc1
 1013 0424 02       		.byte	0x2
 1014 0425 0A       		.uleb128 0xa
 1015 0426 C1000000 		.4byte	0xc1
 1016 042a 09       		.byte	0x9
 1017 042b 00       		.byte	0
 1018 042c 09       		.uleb128 0x9
 1019 042d 81000000 		.4byte	0x81
 1020 0431 3C040000 		.4byte	0x43c
 1021 0435 0A       		.uleb128 0xa
ARM GAS  C:\Users\Lenovo\AppData\Local\Temp\cc7PLiU0.s 			page 23


 1022 0436 C1000000 		.4byte	0xc1
 1023 043a 0E       		.byte	0xe
 1024 043b 00       		.byte	0
 1025 043c 06       		.uleb128 0x6
 1026 043d 6C060000 		.4byte	.LASF69
 1027 0441 0001     		.2byte	0x100
 1028 0443 05       		.byte	0x5
 1029 0444 96       		.byte	0x96
 1030 0445 9E040000 		.4byte	0x49e
 1031 0449 0B       		.uleb128 0xb
 1032 044a 64697200 		.ascii	"dir\000"
 1033 044e 05       		.byte	0x5
 1034 044f 97       		.byte	0x97
 1035 0450 81000000 		.4byte	0x81
 1036 0454 00       		.byte	0
 1037 0455 07       		.uleb128 0x7
 1038 0456 D2010000 		.4byte	.LASF70
 1039 045a 05       		.byte	0x5
 1040 045b 98       		.byte	0x98
 1041 045c 9E040000 		.4byte	0x49e
 1042 0460 01       		.byte	0x1
 1043 0461 07       		.uleb128 0x7
 1044 0462 4B060000 		.4byte	.LASF71
 1045 0466 05       		.byte	0x5
 1046 0467 99       		.byte	0x99
 1047 0468 BA040000 		.4byte	0x4ba
 1048 046c B5       		.byte	0xb5
 1049 046d 07       		.uleb128 0x7
 1050 046e AC020000 		.4byte	.LASF72
 1051 0472 05       		.byte	0x5
 1052 0473 9A       		.byte	0x9a
 1053 0474 BA030000 		.4byte	0x3ba
 1054 0478 D5       		.byte	0xd5
 1055 0479 07       		.uleb128 0x7
 1056 047a D3050000 		.4byte	.LASF73
 1057 047e 05       		.byte	0x5
 1058 047f 9B       		.byte	0x9b
 1059 0480 BA030000 		.4byte	0x3ba
 1060 0484 E3       		.byte	0xe3
 1061 0485 07       		.uleb128 0x7
 1062 0486 C4020000 		.4byte	.LASF74
 1063 048a 05       		.byte	0x5
 1064 048b 9C       		.byte	0x9c
 1065 048c BA030000 		.4byte	0x3ba
 1066 0490 F1       		.byte	0xf1
 1067 0491 07       		.uleb128 0x7
 1068 0492 1A060000 		.4byte	.LASF75
 1069 0496 05       		.byte	0x5
 1070 0497 9D       		.byte	0x9d
 1071 0498 81000000 		.4byte	0x81
 1072 049c FF       		.byte	0xff
 1073 049d 00       		.byte	0
 1074 049e 09       		.uleb128 0x9
 1075 049f 81000000 		.4byte	0x81
 1076 04a3 BA040000 		.4byte	0x4ba
 1077 04a7 0A       		.uleb128 0xa
 1078 04a8 C1000000 		.4byte	0xc1
ARM GAS  C:\Users\Lenovo\AppData\Local\Temp\cc7PLiU0.s 			page 24


 1079 04ac 03       		.byte	0x3
 1080 04ad 0A       		.uleb128 0xa
 1081 04ae C1000000 		.4byte	0xc1
 1082 04b2 02       		.byte	0x2
 1083 04b3 0A       		.uleb128 0xa
 1084 04b4 C1000000 		.4byte	0xc1
 1085 04b8 0E       		.byte	0xe
 1086 04b9 00       		.byte	0
 1087 04ba 09       		.uleb128 0x9
 1088 04bb 81000000 		.4byte	0x81
 1089 04bf D0040000 		.4byte	0x4d0
 1090 04c3 0A       		.uleb128 0xa
 1091 04c4 C1000000 		.4byte	0xc1
 1092 04c8 03       		.byte	0x3
 1093 04c9 0A       		.uleb128 0xa
 1094 04ca C1000000 		.4byte	0xc1
 1095 04ce 07       		.byte	0x7
 1096 04cf 00       		.byte	0
 1097 04d0 06       		.uleb128 0x6
 1098 04d1 9F050000 		.4byte	.LASF76
 1099 04d5 0002     		.2byte	0x200
 1100 04d7 05       		.byte	0x5
 1101 04d8 A0       		.byte	0xa0
 1102 04d9 F3040000 		.4byte	0x4f3
 1103 04dd 0B       		.uleb128 0xb
 1104 04de 6100     		.ascii	"a\000"
 1105 04e0 05       		.byte	0x5
 1106 04e1 A1       		.byte	0xa1
 1107 04e2 3C040000 		.4byte	0x43c
 1108 04e6 00       		.byte	0
 1109 04e7 0C       		.uleb128 0xc
 1110 04e8 6200     		.ascii	"b\000"
 1111 04ea 05       		.byte	0x5
 1112 04eb A2       		.byte	0xa2
 1113 04ec 3C040000 		.4byte	0x43c
 1114 04f0 0001     		.2byte	0x100
 1115 04f2 00       		.byte	0
 1116 04f3 0D       		.uleb128 0xd
 1117 04f4 BE040000 		.4byte	.LASF78
 1118 04f8 01       		.byte	0x1
 1119 04f9 37       		.byte	0x37
 1120 04fa 81000000 		.4byte	0x81
 1121 04fe 00000000 		.4byte	.LFB56
 1122 0502 94000000 		.4byte	.LFE56-.LFB56
 1123 0506 01       		.uleb128 0x1
 1124 0507 9C       		.byte	0x9c
 1125 0508 27050000 		.4byte	0x527
 1126 050c 0E       		.uleb128 0xe
 1127 050d 55020000 		.4byte	.LASF77
 1128 0511 01       		.byte	0x1
 1129 0512 38       		.byte	0x38
 1130 0513 81000000 		.4byte	0x81
 1131 0517 02       		.uleb128 0x2
 1132 0518 91       		.byte	0x91
 1133 0519 73       		.sleb128 -13
 1134 051a 0F       		.uleb128 0xf
 1135 051b 6900     		.ascii	"i\000"
ARM GAS  C:\Users\Lenovo\AppData\Local\Temp\cc7PLiU0.s 			page 25


 1136 051d 01       		.byte	0x1
 1137 051e 39       		.byte	0x39
 1138 051f 8C000000 		.4byte	0x8c
 1139 0523 02       		.uleb128 0x2
 1140 0524 91       		.byte	0x91
 1141 0525 74       		.sleb128 -12
 1142 0526 00       		.byte	0
 1143 0527 0D       		.uleb128 0xd
 1144 0528 36050000 		.4byte	.LASF79
 1145 052c 01       		.byte	0x1
 1146 052d 68       		.byte	0x68
 1147 052e 81000000 		.4byte	0x81
 1148 0532 00000000 		.4byte	.LFB57
 1149 0536 90000000 		.4byte	.LFE57-.LFB57
 1150 053a 01       		.uleb128 0x1
 1151 053b 9C       		.byte	0x9c
 1152 053c 5B050000 		.4byte	0x55b
 1153 0540 0E       		.uleb128 0xe
 1154 0541 55020000 		.4byte	.LASF77
 1155 0545 01       		.byte	0x1
 1156 0546 69       		.byte	0x69
 1157 0547 81000000 		.4byte	0x81
 1158 054b 02       		.uleb128 0x2
 1159 054c 91       		.byte	0x91
 1160 054d 6B       		.sleb128 -21
 1161 054e 0F       		.uleb128 0xf
 1162 054f 6900     		.ascii	"i\000"
 1163 0551 01       		.byte	0x1
 1164 0552 6A       		.byte	0x6a
 1165 0553 8C000000 		.4byte	0x8c
 1166 0557 02       		.uleb128 0x2
 1167 0558 91       		.byte	0x91
 1168 0559 6C       		.sleb128 -20
 1169 055a 00       		.byte	0
 1170 055b 10       		.uleb128 0x10
 1171 055c B8050000 		.4byte	.LASF81
 1172 0560 01       		.byte	0x1
 1173 0561 9A       		.byte	0x9a
 1174 0562 81000000 		.4byte	0x81
 1175 0566 00000000 		.4byte	.LFB58
 1176 056a 80000000 		.4byte	.LFE58-.LFB58
 1177 056e 01       		.uleb128 0x1
 1178 056f 9C       		.byte	0x9c
 1179 0570 9D050000 		.4byte	0x59d
 1180 0574 0E       		.uleb128 0xe
 1181 0575 55020000 		.4byte	.LASF77
 1182 0579 01       		.byte	0x1
 1183 057a 9B       		.byte	0x9b
 1184 057b 81000000 		.4byte	0x81
 1185 057f 02       		.uleb128 0x2
 1186 0580 91       		.byte	0x91
 1187 0581 73       		.sleb128 -13
 1188 0582 0E       		.uleb128 0xe
 1189 0583 4B020000 		.4byte	.LASF80
 1190 0587 01       		.byte	0x1
 1191 0588 9B       		.byte	0x9b
 1192 0589 AA030000 		.4byte	0x3aa
ARM GAS  C:\Users\Lenovo\AppData\Local\Temp\cc7PLiU0.s 			page 26


 1193 058d 02       		.uleb128 0x2
 1194 058e 91       		.byte	0x91
 1195 058f 6C       		.sleb128 -20
 1196 0590 0F       		.uleb128 0xf
 1197 0591 6900     		.ascii	"i\000"
 1198 0593 01       		.byte	0x1
 1199 0594 9C       		.byte	0x9c
 1200 0595 8C000000 		.4byte	0x8c
 1201 0599 02       		.uleb128 0x2
 1202 059a 91       		.byte	0x91
 1203 059b 74       		.sleb128 -12
 1204 059c 00       		.byte	0
 1205 059d 10       		.uleb128 0x10
 1206 059e 0F060000 		.4byte	.LASF82
 1207 05a2 01       		.byte	0x1
 1208 05a3 C6       		.byte	0xc6
 1209 05a4 81000000 		.4byte	0x81
 1210 05a8 00000000 		.4byte	.LFB59
 1211 05ac 80000000 		.4byte	.LFE59-.LFB59
 1212 05b0 01       		.uleb128 0x1
 1213 05b1 9C       		.byte	0x9c
 1214 05b2 DF050000 		.4byte	0x5df
 1215 05b6 0E       		.uleb128 0xe
 1216 05b7 55020000 		.4byte	.LASF77
 1217 05bb 01       		.byte	0x1
 1218 05bc C7       		.byte	0xc7
 1219 05bd 81000000 		.4byte	0x81
 1220 05c1 02       		.uleb128 0x2
 1221 05c2 91       		.byte	0x91
 1222 05c3 73       		.sleb128 -13
 1223 05c4 0E       		.uleb128 0xe
 1224 05c5 4B020000 		.4byte	.LASF80
 1225 05c9 01       		.byte	0x1
 1226 05ca C7       		.byte	0xc7
 1227 05cb AA030000 		.4byte	0x3aa
 1228 05cf 02       		.uleb128 0x2
 1229 05d0 91       		.byte	0x91
 1230 05d1 6C       		.sleb128 -20
 1231 05d2 0F       		.uleb128 0xf
 1232 05d3 6900     		.ascii	"i\000"
 1233 05d5 01       		.byte	0x1
 1234 05d6 C8       		.byte	0xc8
 1235 05d7 8C000000 		.4byte	0x8c
 1236 05db 02       		.uleb128 0x2
 1237 05dc 91       		.byte	0x91
 1238 05dd 74       		.sleb128 -12
 1239 05de 00       		.byte	0
 1240 05df 11       		.uleb128 0x11
 1241 05e0 6D040000 		.4byte	.LASF83
 1242 05e4 06       		.byte	0x6
 1243 05e5 1606     		.2byte	0x616
 1244 05e7 EB050000 		.4byte	0x5eb
 1245 05eb 05       		.uleb128 0x5
 1246 05ec 76000000 		.4byte	0x76
 1247 05f0 12       		.uleb128 0x12
 1248 05f1 CC020000 		.4byte	.LASF84
 1249 05f5 05       		.byte	0x5
ARM GAS  C:\Users\Lenovo\AppData\Local\Temp\cc7PLiU0.s 			page 27


 1250 05f6 2C       		.byte	0x2c
 1251 05f7 01060000 		.4byte	0x601
 1252 05fb 05       		.uleb128 0x5
 1253 05fc 03       		.byte	0x3
 1254 05fd 00000000 		.4byte	countAnimation1
 1255 0601 05       		.uleb128 0x5
 1256 0602 A5000000 		.4byte	0xa5
 1257 0606 12       		.uleb128 0x12
 1258 0607 FD020000 		.4byte	.LASF85
 1259 060b 05       		.byte	0x5
 1260 060c 2D       		.byte	0x2d
 1261 060d 01060000 		.4byte	0x601
 1262 0611 05       		.uleb128 0x5
 1263 0612 03       		.byte	0x3
 1264 0613 00000000 		.4byte	countAnimation2
 1265 0617 12       		.uleb128 0x12
 1266 0618 3D020000 		.4byte	.LASF86
 1267 061c 05       		.byte	0x5
 1268 061d 2E       		.byte	0x2e
 1269 061e 01060000 		.4byte	0x601
 1270 0622 05       		.uleb128 0x5
 1271 0623 03       		.byte	0x3
 1272 0624 00000000 		.4byte	countBeagleTX
 1273 0628 12       		.uleb128 0x12
 1274 0629 05060000 		.4byte	.LASF87
 1275 062d 05       		.byte	0x5
 1276 062e 2F       		.byte	0x2f
 1277 062f 01060000 		.4byte	0x601
 1278 0633 05       		.uleb128 0x5
 1279 0634 03       		.byte	0x3
 1280 0635 00000000 		.4byte	countPump
 1281 0639 12       		.uleb128 0x12
 1282 063a FB010000 		.4byte	.LASF88
 1283 063e 05       		.byte	0x5
 1284 063f 30       		.byte	0x30
 1285 0640 BC000000 		.4byte	0xbc
 1286 0644 05       		.uleb128 0x5
 1287 0645 03       		.byte	0x3
 1288 0646 00000000 		.4byte	flowLCD1
 1289 064a 12       		.uleb128 0x12
 1290 064b 04020000 		.4byte	.LASF89
 1291 064f 05       		.byte	0x5
 1292 0650 31       		.byte	0x31
 1293 0651 BC000000 		.4byte	0xbc
 1294 0655 05       		.uleb128 0x5
 1295 0656 03       		.byte	0x3
 1296 0657 00000000 		.4byte	flowLCD2
 1297 065b 12       		.uleb128 0x12
 1298 065c 50010000 		.4byte	.LASF90
 1299 0660 05       		.byte	0x5
 1300 0661 32       		.byte	0x32
 1301 0662 B7000000 		.4byte	0xb7
 1302 0666 05       		.uleb128 0x5
 1303 0667 03       		.byte	0x3
 1304 0668 00000000 		.4byte	digits
 1305 066c 09       		.uleb128 0x9
 1306 066d 81000000 		.4byte	0x81
ARM GAS  C:\Users\Lenovo\AppData\Local\Temp\cc7PLiU0.s 			page 28


 1307 0671 7C060000 		.4byte	0x67c
 1308 0675 0A       		.uleb128 0xa
 1309 0676 C1000000 		.4byte	0xc1
 1310 067a 0B       		.byte	0xb
 1311 067b 00       		.byte	0
 1312 067c 12       		.uleb128 0x12
 1313 067d 29000000 		.4byte	.LASF91
 1314 0681 05       		.byte	0x5
 1315 0682 33       		.byte	0x33
 1316 0683 8D060000 		.4byte	0x68d
 1317 0687 05       		.uleb128 0x5
 1318 0688 03       		.byte	0x3
 1319 0689 00000000 		.4byte	ipAdress
 1320 068d 05       		.uleb128 0x5
 1321 068e 6C060000 		.4byte	0x66c
 1322 0692 12       		.uleb128 0x12
 1323 0693 25020000 		.4byte	.LASF92
 1324 0697 05       		.byte	0x5
 1325 0698 34       		.byte	0x34
 1326 0699 B7000000 		.4byte	0xb7
 1327 069d 05       		.uleb128 0x5
 1328 069e 03       		.byte	0x3
 1329 069f 00000000 		.4byte	numberKeys1
 1330 06a3 12       		.uleb128 0x12
 1331 06a4 31020000 		.4byte	.LASF93
 1332 06a8 05       		.byte	0x5
 1333 06a9 35       		.byte	0x35
 1334 06aa B7000000 		.4byte	0xb7
 1335 06ae 05       		.uleb128 0x5
 1336 06af 03       		.byte	0x3
 1337 06b0 00000000 		.4byte	numberKeys2
 1338 06b4 12       		.uleb128 0x12
 1339 06b5 1C040000 		.4byte	.LASF94
 1340 06b9 05       		.byte	0x5
 1341 06ba 36       		.byte	0x36
 1342 06bb B7000000 		.4byte	0xb7
 1343 06bf 05       		.uleb128 0x5
 1344 06c0 03       		.byte	0x3
 1345 06c1 00000000 		.4byte	flagPoint1
 1346 06c5 12       		.uleb128 0x12
 1347 06c6 AF000000 		.4byte	.LASF95
 1348 06ca 05       		.byte	0x5
 1349 06cb 37       		.byte	0x37
 1350 06cc B7000000 		.4byte	0xb7
 1351 06d0 05       		.uleb128 0x5
 1352 06d1 03       		.byte	0x3
 1353 06d2 00000000 		.4byte	flagPoint2
 1354 06d6 09       		.uleb128 0x9
 1355 06d7 81000000 		.4byte	0x81
 1356 06db EC060000 		.4byte	0x6ec
 1357 06df 0A       		.uleb128 0xa
 1358 06e0 C1000000 		.4byte	0xc1
 1359 06e4 77       		.byte	0x77
 1360 06e5 0A       		.uleb128 0xa
 1361 06e6 C1000000 		.4byte	0xc1
 1362 06ea 07       		.byte	0x7
 1363 06eb 00       		.byte	0
ARM GAS  C:\Users\Lenovo\AppData\Local\Temp\cc7PLiU0.s 			page 29


 1364 06ec 12       		.uleb128 0x12
 1365 06ed BE010000 		.4byte	.LASF96
 1366 06f1 05       		.byte	0x5
 1367 06f2 38       		.byte	0x38
 1368 06f3 FD060000 		.4byte	0x6fd
 1369 06f7 05       		.uleb128 0x5
 1370 06f8 03       		.byte	0x3
 1371 06f9 00000000 		.4byte	button
 1372 06fd 05       		.uleb128 0x5
 1373 06fe D6060000 		.4byte	0x6d6
 1374 0702 12       		.uleb128 0x12
 1375 0703 68010000 		.4byte	.LASF97
 1376 0707 05       		.byte	0x5
 1377 0708 39       		.byte	0x39
 1378 0709 B7000000 		.4byte	0xb7
 1379 070d 05       		.uleb128 0x5
 1380 070e 03       		.byte	0x3
 1381 070f 00000000 		.4byte	productNumber
 1382 0713 12       		.uleb128 0x12
 1383 0714 A1020000 		.4byte	.LASF98
 1384 0718 05       		.byte	0x5
 1385 0719 3A       		.byte	0x3a
 1386 071a 16040000 		.4byte	0x416
 1387 071e 05       		.uleb128 0x5
 1388 071f 03       		.byte	0x3
 1389 0720 00000000 		.4byte	presetFast
 1390 0724 12       		.uleb128 0x12
 1391 0725 CF040000 		.4byte	.LASF99
 1392 0729 05       		.byte	0x5
 1393 072a 3B       		.byte	0x3b
 1394 072b BC000000 		.4byte	0xbc
 1395 072f 05       		.uleb128 0x5
 1396 0730 03       		.byte	0x3
 1397 0731 00000000 		.4byte	delayPicture1
 1398 0735 12       		.uleb128 0x12
 1399 0736 DD040000 		.4byte	.LASF100
 1400 073a 05       		.byte	0x5
 1401 073b 3C       		.byte	0x3c
 1402 073c BC000000 		.4byte	0xbc
 1403 0740 05       		.uleb128 0x5
 1404 0741 03       		.byte	0x3
 1405 0742 00000000 		.4byte	delayPicture2
 1406 0746 12       		.uleb128 0x12
 1407 0747 02040000 		.4byte	.LASF101
 1408 074b 05       		.byte	0x5
 1409 074c 3D       		.byte	0x3d
 1410 074d B7000000 		.4byte	0xb7
 1411 0751 05       		.uleb128 0x5
 1412 0752 03       		.byte	0x3
 1413 0753 00000000 		.4byte	ppux10
 1414 0757 12       		.uleb128 0x12
 1415 0758 32000000 		.4byte	.LASF102
 1416 075c 05       		.byte	0x5
 1417 075d 3E       		.byte	0x3e
 1418 075e B7000000 		.4byte	0xb7
 1419 0762 05       		.uleb128 0x5
 1420 0763 03       		.byte	0x3
ARM GAS  C:\Users\Lenovo\AppData\Local\Temp\cc7PLiU0.s 			page 30


 1421 0764 00000000 		.4byte	decimalMoney
 1422 0768 12       		.uleb128 0x12
 1423 0769 00000000 		.4byte	.LASF103
 1424 076d 05       		.byte	0x5
 1425 076e 3F       		.byte	0x3f
 1426 076f B7000000 		.4byte	0xb7
 1427 0773 05       		.uleb128 0x5
 1428 0774 03       		.byte	0x3
 1429 0775 00000000 		.4byte	decimalVolume
 1430 0779 12       		.uleb128 0x12
 1431 077a 39040000 		.4byte	.LASF104
 1432 077e 05       		.byte	0x5
 1433 077f 40       		.byte	0x40
 1434 0780 8A070000 		.4byte	0x78a
 1435 0784 05       		.uleb128 0x5
 1436 0785 03       		.byte	0x3
 1437 0786 00000000 		.4byte	symbols
 1438 078a 05       		.uleb128 0x5
 1439 078b 74030000 		.4byte	0x374
 1440 078f 09       		.uleb128 0x9
 1441 0790 81000000 		.4byte	0x81
 1442 0794 9F070000 		.4byte	0x79f
 1443 0798 0A       		.uleb128 0xa
 1444 0799 C1000000 		.4byte	0xc1
 1445 079d 02       		.byte	0x2
 1446 079e 00       		.byte	0
 1447 079f 12       		.uleb128 0x12
 1448 07a0 57010000 		.4byte	.LASF105
 1449 07a4 05       		.byte	0x5
 1450 07a5 41       		.byte	0x41
 1451 07a6 B0070000 		.4byte	0x7b0
 1452 07aa 05       		.uleb128 0x5
 1453 07ab 03       		.byte	0x3
 1454 07ac 00000000 		.4byte	time
 1455 07b0 05       		.uleb128 0x5
 1456 07b1 8F070000 		.4byte	0x78f
 1457 07b5 12       		.uleb128 0x12
 1458 07b6 50020000 		.4byte	.LASF106
 1459 07ba 05       		.byte	0x5
 1460 07bb 42       		.byte	0x42
 1461 07bc C6070000 		.4byte	0x7c6
 1462 07c0 05       		.uleb128 0x5
 1463 07c1 03       		.byte	0x3
 1464 07c2 00000000 		.4byte	date
 1465 07c6 05       		.uleb128 0x5
 1466 07c7 8F070000 		.4byte	0x78f
 1467 07cb 12       		.uleb128 0x12
 1468 07cc BA000000 		.4byte	.LASF107
 1469 07d0 05       		.byte	0x5
 1470 07d1 43       		.byte	0x43
 1471 07d2 DC070000 		.4byte	0x7dc
 1472 07d6 05       		.uleb128 0x5
 1473 07d7 03       		.byte	0x3
 1474 07d8 00000000 		.4byte	screen
 1475 07dc 05       		.uleb128 0x5
 1476 07dd 74030000 		.4byte	0x374
 1477 07e1 12       		.uleb128 0x12
ARM GAS  C:\Users\Lenovo\AppData\Local\Temp\cc7PLiU0.s 			page 31


 1478 07e2 7F000000 		.4byte	.LASF108
 1479 07e6 05       		.byte	0x5
 1480 07e7 44       		.byte	0x44
 1481 07e8 F2070000 		.4byte	0x7f2
 1482 07ec 05       		.uleb128 0x5
 1483 07ed 03       		.byte	0x3
 1484 07ee 00000000 		.4byte	residue
 1485 07f2 05       		.uleb128 0x5
 1486 07f3 BA030000 		.4byte	0x3ba
 1487 07f7 09       		.uleb128 0x9
 1488 07f8 81000000 		.4byte	0x81
 1489 07fc 07080000 		.4byte	0x807
 1490 0800 0A       		.uleb128 0xa
 1491 0801 C1000000 		.4byte	0xc1
 1492 0805 1D       		.byte	0x1d
 1493 0806 00       		.byte	0
 1494 0807 12       		.uleb128 0x12
 1495 0808 A4050000 		.4byte	.LASF109
 1496 080c 05       		.byte	0x5
 1497 080d 45       		.byte	0x45
 1498 080e F7070000 		.4byte	0x7f7
 1499 0812 05       		.uleb128 0x5
 1500 0813 03       		.byte	0x3
 1501 0814 00000000 		.4byte	temporal
 1502 0818 12       		.uleb128 0x12
 1503 0819 0E000000 		.4byte	.LASF110
 1504 081d 05       		.byte	0x5
 1505 081e 46       		.byte	0x46
 1506 081f F7070000 		.4byte	0x7f7
 1507 0823 05       		.uleb128 0x5
 1508 0824 03       		.byte	0x3
 1509 0825 00000000 		.4byte	temporalCom
 1510 0829 12       		.uleb128 0x12
 1511 082a EB010000 		.4byte	.LASF111
 1512 082e 05       		.byte	0x5
 1513 082f 47       		.byte	0x47
 1514 0830 B7000000 		.4byte	0xb7
 1515 0834 05       		.uleb128 0x5
 1516 0835 03       		.byte	0x3
 1517 0836 00000000 		.4byte	turn
 1518 083a 12       		.uleb128 0x12
 1519 083b 7A040000 		.4byte	.LASF112
 1520 083f 05       		.byte	0x5
 1521 0840 48       		.byte	0x48
 1522 0841 B7000000 		.4byte	0xb7
 1523 0845 05       		.uleb128 0x5
 1524 0846 03       		.byte	0x3
 1525 0847 00000000 		.4byte	lockTurn
 1526 084b 12       		.uleb128 0x12
 1527 084c 96050000 		.4byte	.LASF113
 1528 0850 05       		.byte	0x5
 1529 0851 49       		.byte	0x49
 1530 0852 5C080000 		.4byte	0x85c
 1531 0856 05       		.uleb128 0x5
 1532 0857 03       		.byte	0x3
 1533 0858 00000000 		.4byte	idSeller
 1534 085c 05       		.uleb128 0x5
ARM GAS  C:\Users\Lenovo\AppData\Local\Temp\cc7PLiU0.s 			page 32


 1535 085d 44030000 		.4byte	0x344
 1536 0861 12       		.uleb128 0x12
 1537 0862 0F050000 		.4byte	.LASF114
 1538 0866 05       		.byte	0x5
 1539 0867 4A       		.byte	0x4a
 1540 0868 B7000000 		.4byte	0xb7
 1541 086c 05       		.uleb128 0x5
 1542 086d 03       		.byte	0x3
 1543 086e 00000000 		.4byte	typeIdSeller
 1544 0872 09       		.uleb128 0x9
 1545 0873 81000000 		.4byte	0x81
 1546 0877 82080000 		.4byte	0x882
 1547 087b 0A       		.uleb128 0xa
 1548 087c C1000000 		.4byte	0xc1
 1549 0880 07       		.byte	0x7
 1550 0881 00       		.byte	0
 1551 0882 12       		.uleb128 0x12
 1552 0883 9E040000 		.4byte	.LASF115
 1553 0887 05       		.byte	0x5
 1554 0888 4B       		.byte	0x4b
 1555 0889 93080000 		.4byte	0x893
 1556 088d 05       		.uleb128 0x5
 1557 088e 03       		.byte	0x3
 1558 088f 00000000 		.4byte	passwordSeller
 1559 0893 05       		.uleb128 0x5
 1560 0894 72080000 		.4byte	0x872
 1561 0898 12       		.uleb128 0x12
 1562 0899 D6030000 		.4byte	.LASF116
 1563 089d 05       		.byte	0x5
 1564 089e 4C       		.byte	0x4c
 1565 089f B7000000 		.4byte	0xb7
 1566 08a3 05       		.uleb128 0x5
 1567 08a4 03       		.byte	0x3
 1568 08a5 00000000 		.4byte	flagResetMux
 1569 08a9 12       		.uleb128 0x12
 1570 08aa DC020000 		.4byte	.LASF117
 1571 08ae 05       		.byte	0x5
 1572 08af 4D       		.byte	0x4d
 1573 08b0 B7000000 		.4byte	0xb7
 1574 08b4 05       		.uleb128 0x5
 1575 08b5 03       		.byte	0x3
 1576 08b6 00000000 		.4byte	stateBeagleSoft
 1577 08ba 12       		.uleb128 0x12
 1578 08bb 8E010000 		.4byte	.LASF118
 1579 08bf 05       		.byte	0x5
 1580 08c0 8B       		.byte	0x8b
 1581 08c1 C8000000 		.4byte	0xc8
 1582 08c5 05       		.uleb128 0x5
 1583 08c6 03       		.byte	0x3
 1584 08c7 00000000 		.4byte	bufferLCD1
 1585 08cb 12       		.uleb128 0x12
 1586 08cc 99010000 		.4byte	.LASF119
 1587 08d0 05       		.byte	0x5
 1588 08d1 8C       		.byte	0x8c
 1589 08d2 C8000000 		.4byte	0xc8
 1590 08d6 05       		.uleb128 0x5
 1591 08d7 03       		.byte	0x3
ARM GAS  C:\Users\Lenovo\AppData\Local\Temp\cc7PLiU0.s 			page 33


 1592 08d8 00000000 		.4byte	bufferLCD2
 1593 08dc 12       		.uleb128 0x12
 1594 08dd 8E000000 		.4byte	.LASF120
 1595 08e1 05       		.byte	0x5
 1596 08e2 A5       		.byte	0xa5
 1597 08e3 D0040000 		.4byte	0x4d0
 1598 08e7 05       		.uleb128 0x5
 1599 08e8 03       		.byte	0x3
 1600 08e9 00000000 		.4byte	side
 1601 08ed 00       		.byte	0
 1602              		.section	.debug_abbrev,"",%progbits
 1603              	.Ldebug_abbrev0:
 1604 0000 01       		.uleb128 0x1
 1605 0001 11       		.uleb128 0x11
 1606 0002 01       		.byte	0x1
 1607 0003 25       		.uleb128 0x25
 1608 0004 0E       		.uleb128 0xe
 1609 0005 13       		.uleb128 0x13
 1610 0006 0B       		.uleb128 0xb
 1611 0007 03       		.uleb128 0x3
 1612 0008 0E       		.uleb128 0xe
 1613 0009 1B       		.uleb128 0x1b
 1614 000a 0E       		.uleb128 0xe
 1615 000b 55       		.uleb128 0x55
 1616 000c 17       		.uleb128 0x17
 1617 000d 11       		.uleb128 0x11
 1618 000e 01       		.uleb128 0x1
 1619 000f 10       		.uleb128 0x10
 1620 0010 17       		.uleb128 0x17
 1621 0011 00       		.byte	0
 1622 0012 00       		.byte	0
 1623 0013 02       		.uleb128 0x2
 1624 0014 24       		.uleb128 0x24
 1625 0015 00       		.byte	0
 1626 0016 0B       		.uleb128 0xb
 1627 0017 0B       		.uleb128 0xb
 1628 0018 3E       		.uleb128 0x3e
 1629 0019 0B       		.uleb128 0xb
 1630 001a 03       		.uleb128 0x3
 1631 001b 0E       		.uleb128 0xe
 1632 001c 00       		.byte	0
 1633 001d 00       		.byte	0
 1634 001e 03       		.uleb128 0x3
 1635 001f 16       		.uleb128 0x16
 1636 0020 00       		.byte	0
 1637 0021 03       		.uleb128 0x3
 1638 0022 0E       		.uleb128 0xe
 1639 0023 3A       		.uleb128 0x3a
 1640 0024 0B       		.uleb128 0xb
 1641 0025 3B       		.uleb128 0x3b
 1642 0026 0B       		.uleb128 0xb
 1643 0027 49       		.uleb128 0x49
 1644 0028 13       		.uleb128 0x13
 1645 0029 00       		.byte	0
 1646 002a 00       		.byte	0
 1647 002b 04       		.uleb128 0x4
 1648 002c 24       		.uleb128 0x24
ARM GAS  C:\Users\Lenovo\AppData\Local\Temp\cc7PLiU0.s 			page 34


 1649 002d 00       		.byte	0
 1650 002e 0B       		.uleb128 0xb
 1651 002f 0B       		.uleb128 0xb
 1652 0030 3E       		.uleb128 0x3e
 1653 0031 0B       		.uleb128 0xb
 1654 0032 03       		.uleb128 0x3
 1655 0033 08       		.uleb128 0x8
 1656 0034 00       		.byte	0
 1657 0035 00       		.byte	0
 1658 0036 05       		.uleb128 0x5
 1659 0037 35       		.uleb128 0x35
 1660 0038 00       		.byte	0
 1661 0039 49       		.uleb128 0x49
 1662 003a 13       		.uleb128 0x13
 1663 003b 00       		.byte	0
 1664 003c 00       		.byte	0
 1665 003d 06       		.uleb128 0x6
 1666 003e 13       		.uleb128 0x13
 1667 003f 01       		.byte	0x1
 1668 0040 03       		.uleb128 0x3
 1669 0041 0E       		.uleb128 0xe
 1670 0042 0B       		.uleb128 0xb
 1671 0043 05       		.uleb128 0x5
 1672 0044 3A       		.uleb128 0x3a
 1673 0045 0B       		.uleb128 0xb
 1674 0046 3B       		.uleb128 0x3b
 1675 0047 0B       		.uleb128 0xb
 1676 0048 01       		.uleb128 0x1
 1677 0049 13       		.uleb128 0x13
 1678 004a 00       		.byte	0
 1679 004b 00       		.byte	0
 1680 004c 07       		.uleb128 0x7
 1681 004d 0D       		.uleb128 0xd
 1682 004e 00       		.byte	0
 1683 004f 03       		.uleb128 0x3
 1684 0050 0E       		.uleb128 0xe
 1685 0051 3A       		.uleb128 0x3a
 1686 0052 0B       		.uleb128 0xb
 1687 0053 3B       		.uleb128 0x3b
 1688 0054 0B       		.uleb128 0xb
 1689 0055 49       		.uleb128 0x49
 1690 0056 13       		.uleb128 0x13
 1691 0057 38       		.uleb128 0x38
 1692 0058 0B       		.uleb128 0xb
 1693 0059 00       		.byte	0
 1694 005a 00       		.byte	0
 1695 005b 08       		.uleb128 0x8
 1696 005c 0D       		.uleb128 0xd
 1697 005d 00       		.byte	0
 1698 005e 03       		.uleb128 0x3
 1699 005f 0E       		.uleb128 0xe
 1700 0060 3A       		.uleb128 0x3a
 1701 0061 0B       		.uleb128 0xb
 1702 0062 3B       		.uleb128 0x3b
 1703 0063 0B       		.uleb128 0xb
 1704 0064 49       		.uleb128 0x49
 1705 0065 13       		.uleb128 0x13
ARM GAS  C:\Users\Lenovo\AppData\Local\Temp\cc7PLiU0.s 			page 35


 1706 0066 38       		.uleb128 0x38
 1707 0067 05       		.uleb128 0x5
 1708 0068 00       		.byte	0
 1709 0069 00       		.byte	0
 1710 006a 09       		.uleb128 0x9
 1711 006b 01       		.uleb128 0x1
 1712 006c 01       		.byte	0x1
 1713 006d 49       		.uleb128 0x49
 1714 006e 13       		.uleb128 0x13
 1715 006f 01       		.uleb128 0x1
 1716 0070 13       		.uleb128 0x13
 1717 0071 00       		.byte	0
 1718 0072 00       		.byte	0
 1719 0073 0A       		.uleb128 0xa
 1720 0074 21       		.uleb128 0x21
 1721 0075 00       		.byte	0
 1722 0076 49       		.uleb128 0x49
 1723 0077 13       		.uleb128 0x13
 1724 0078 2F       		.uleb128 0x2f
 1725 0079 0B       		.uleb128 0xb
 1726 007a 00       		.byte	0
 1727 007b 00       		.byte	0
 1728 007c 0B       		.uleb128 0xb
 1729 007d 0D       		.uleb128 0xd
 1730 007e 00       		.byte	0
 1731 007f 03       		.uleb128 0x3
 1732 0080 08       		.uleb128 0x8
 1733 0081 3A       		.uleb128 0x3a
 1734 0082 0B       		.uleb128 0xb
 1735 0083 3B       		.uleb128 0x3b
 1736 0084 0B       		.uleb128 0xb
 1737 0085 49       		.uleb128 0x49
 1738 0086 13       		.uleb128 0x13
 1739 0087 38       		.uleb128 0x38
 1740 0088 0B       		.uleb128 0xb
 1741 0089 00       		.byte	0
 1742 008a 00       		.byte	0
 1743 008b 0C       		.uleb128 0xc
 1744 008c 0D       		.uleb128 0xd
 1745 008d 00       		.byte	0
 1746 008e 03       		.uleb128 0x3
 1747 008f 08       		.uleb128 0x8
 1748 0090 3A       		.uleb128 0x3a
 1749 0091 0B       		.uleb128 0xb
 1750 0092 3B       		.uleb128 0x3b
 1751 0093 0B       		.uleb128 0xb
 1752 0094 49       		.uleb128 0x49
 1753 0095 13       		.uleb128 0x13
 1754 0096 38       		.uleb128 0x38
 1755 0097 05       		.uleb128 0x5
 1756 0098 00       		.byte	0
 1757 0099 00       		.byte	0
 1758 009a 0D       		.uleb128 0xd
 1759 009b 2E       		.uleb128 0x2e
 1760 009c 01       		.byte	0x1
 1761 009d 3F       		.uleb128 0x3f
 1762 009e 19       		.uleb128 0x19
ARM GAS  C:\Users\Lenovo\AppData\Local\Temp\cc7PLiU0.s 			page 36


 1763 009f 03       		.uleb128 0x3
 1764 00a0 0E       		.uleb128 0xe
 1765 00a1 3A       		.uleb128 0x3a
 1766 00a2 0B       		.uleb128 0xb
 1767 00a3 3B       		.uleb128 0x3b
 1768 00a4 0B       		.uleb128 0xb
 1769 00a5 49       		.uleb128 0x49
 1770 00a6 13       		.uleb128 0x13
 1771 00a7 11       		.uleb128 0x11
 1772 00a8 01       		.uleb128 0x1
 1773 00a9 12       		.uleb128 0x12
 1774 00aa 06       		.uleb128 0x6
 1775 00ab 40       		.uleb128 0x40
 1776 00ac 18       		.uleb128 0x18
 1777 00ad 9642     		.uleb128 0x2116
 1778 00af 19       		.uleb128 0x19
 1779 00b0 01       		.uleb128 0x1
 1780 00b1 13       		.uleb128 0x13
 1781 00b2 00       		.byte	0
 1782 00b3 00       		.byte	0
 1783 00b4 0E       		.uleb128 0xe
 1784 00b5 34       		.uleb128 0x34
 1785 00b6 00       		.byte	0
 1786 00b7 03       		.uleb128 0x3
 1787 00b8 0E       		.uleb128 0xe
 1788 00b9 3A       		.uleb128 0x3a
 1789 00ba 0B       		.uleb128 0xb
 1790 00bb 3B       		.uleb128 0x3b
 1791 00bc 0B       		.uleb128 0xb
 1792 00bd 49       		.uleb128 0x49
 1793 00be 13       		.uleb128 0x13
 1794 00bf 02       		.uleb128 0x2
 1795 00c0 18       		.uleb128 0x18
 1796 00c1 00       		.byte	0
 1797 00c2 00       		.byte	0
 1798 00c3 0F       		.uleb128 0xf
 1799 00c4 34       		.uleb128 0x34
 1800 00c5 00       		.byte	0
 1801 00c6 03       		.uleb128 0x3
 1802 00c7 08       		.uleb128 0x8
 1803 00c8 3A       		.uleb128 0x3a
 1804 00c9 0B       		.uleb128 0xb
 1805 00ca 3B       		.uleb128 0x3b
 1806 00cb 0B       		.uleb128 0xb
 1807 00cc 49       		.uleb128 0x49
 1808 00cd 13       		.uleb128 0x13
 1809 00ce 02       		.uleb128 0x2
 1810 00cf 18       		.uleb128 0x18
 1811 00d0 00       		.byte	0
 1812 00d1 00       		.byte	0
 1813 00d2 10       		.uleb128 0x10
 1814 00d3 2E       		.uleb128 0x2e
 1815 00d4 01       		.byte	0x1
 1816 00d5 3F       		.uleb128 0x3f
 1817 00d6 19       		.uleb128 0x19
 1818 00d7 03       		.uleb128 0x3
 1819 00d8 0E       		.uleb128 0xe
ARM GAS  C:\Users\Lenovo\AppData\Local\Temp\cc7PLiU0.s 			page 37


 1820 00d9 3A       		.uleb128 0x3a
 1821 00da 0B       		.uleb128 0xb
 1822 00db 3B       		.uleb128 0x3b
 1823 00dc 0B       		.uleb128 0xb
 1824 00dd 27       		.uleb128 0x27
 1825 00de 19       		.uleb128 0x19
 1826 00df 49       		.uleb128 0x49
 1827 00e0 13       		.uleb128 0x13
 1828 00e1 11       		.uleb128 0x11
 1829 00e2 01       		.uleb128 0x1
 1830 00e3 12       		.uleb128 0x12
 1831 00e4 06       		.uleb128 0x6
 1832 00e5 40       		.uleb128 0x40
 1833 00e6 18       		.uleb128 0x18
 1834 00e7 9642     		.uleb128 0x2116
 1835 00e9 19       		.uleb128 0x19
 1836 00ea 01       		.uleb128 0x1
 1837 00eb 13       		.uleb128 0x13
 1838 00ec 00       		.byte	0
 1839 00ed 00       		.byte	0
 1840 00ee 11       		.uleb128 0x11
 1841 00ef 34       		.uleb128 0x34
 1842 00f0 00       		.byte	0
 1843 00f1 03       		.uleb128 0x3
 1844 00f2 0E       		.uleb128 0xe
 1845 00f3 3A       		.uleb128 0x3a
 1846 00f4 0B       		.uleb128 0xb
 1847 00f5 3B       		.uleb128 0x3b
 1848 00f6 05       		.uleb128 0x5
 1849 00f7 49       		.uleb128 0x49
 1850 00f8 13       		.uleb128 0x13
 1851 00f9 3F       		.uleb128 0x3f
 1852 00fa 19       		.uleb128 0x19
 1853 00fb 3C       		.uleb128 0x3c
 1854 00fc 19       		.uleb128 0x19
 1855 00fd 00       		.byte	0
 1856 00fe 00       		.byte	0
 1857 00ff 12       		.uleb128 0x12
 1858 0100 34       		.uleb128 0x34
 1859 0101 00       		.byte	0
 1860 0102 03       		.uleb128 0x3
 1861 0103 0E       		.uleb128 0xe
 1862 0104 3A       		.uleb128 0x3a
 1863 0105 0B       		.uleb128 0xb
 1864 0106 3B       		.uleb128 0x3b
 1865 0107 0B       		.uleb128 0xb
 1866 0108 49       		.uleb128 0x49
 1867 0109 13       		.uleb128 0x13
 1868 010a 3F       		.uleb128 0x3f
 1869 010b 19       		.uleb128 0x19
 1870 010c 02       		.uleb128 0x2
 1871 010d 18       		.uleb128 0x18
 1872 010e 00       		.byte	0
 1873 010f 00       		.byte	0
 1874 0110 00       		.byte	0
 1875              		.section	.debug_aranges,"",%progbits
 1876 0000 34000000 		.4byte	0x34
ARM GAS  C:\Users\Lenovo\AppData\Local\Temp\cc7PLiU0.s 			page 38


 1877 0004 0200     		.2byte	0x2
 1878 0006 00000000 		.4byte	.Ldebug_info0
 1879 000a 04       		.byte	0x4
 1880 000b 00       		.byte	0
 1881 000c 0000     		.2byte	0
 1882 000e 0000     		.2byte	0
 1883 0010 00000000 		.4byte	.LFB56
 1884 0014 94000000 		.4byte	.LFE56-.LFB56
 1885 0018 00000000 		.4byte	.LFB57
 1886 001c 90000000 		.4byte	.LFE57-.LFB57
 1887 0020 00000000 		.4byte	.LFB58
 1888 0024 80000000 		.4byte	.LFE58-.LFB58
 1889 0028 00000000 		.4byte	.LFB59
 1890 002c 80000000 		.4byte	.LFE59-.LFB59
 1891 0030 00000000 		.4byte	0
 1892 0034 00000000 		.4byte	0
 1893              		.section	.debug_ranges,"",%progbits
 1894              	.Ldebug_ranges0:
 1895 0000 00000000 		.4byte	.LFB56
 1896 0004 94000000 		.4byte	.LFE56
 1897 0008 00000000 		.4byte	.LFB57
 1898 000c 90000000 		.4byte	.LFE57
 1899 0010 00000000 		.4byte	.LFB58
 1900 0014 80000000 		.4byte	.LFE58
 1901 0018 00000000 		.4byte	.LFB59
 1902 001c 80000000 		.4byte	.LFE59
 1903 0020 00000000 		.4byte	0
 1904 0024 00000000 		.4byte	0
 1905              		.section	.debug_line,"",%progbits
 1906              	.Ldebug_line0:
 1907 0000 22020000 		.section	.debug_str,"MS",%progbits,1
 1907      02005901 
 1907      00000201 
 1907      FB0E0D00 
 1907      01010101 
 1908              	.LASF103:
 1909 0000 64656369 		.ascii	"decimalVolume\000"
 1909      6D616C56 
 1909      6F6C756D 
 1909      6500
 1910              	.LASF110:
 1911 000e 74656D70 		.ascii	"temporalCom\000"
 1911      6F72616C 
 1911      436F6D00 
 1912              	.LASF53:
 1913 001a 6D657373 		.ascii	"message\000"
 1913      61676500 
 1914              	.LASF68:
 1915 0022 62756666 		.ascii	"buffer\000"
 1915      657200
 1916              	.LASF91:
 1917 0029 69704164 		.ascii	"ipAdress\000"
 1917      72657373 
 1917      00
 1918              	.LASF102:
 1919 0032 64656369 		.ascii	"decimalMoney\000"
 1919      6D616C4D 
ARM GAS  C:\Users\Lenovo\AppData\Local\Temp\cc7PLiU0.s 			page 39


 1919      6F6E6579 
 1919      00
 1920              	.LASF31:
 1921 003f 73616C65 		.ascii	"salePerform\000"
 1921      50657266 
 1921      6F726D00 
 1922              	.LASF8:
 1923 004b 756E7369 		.ascii	"unsigned int\000"
 1923      676E6564 
 1923      20696E74 
 1923      00
 1924              	.LASF58:
 1925 0058 70726F64 		.ascii	"productMarket\000"
 1925      7563744D 
 1925      61726B65 
 1925      7400
 1926              	.LASF9:
 1927 0066 5F5F696E 		.ascii	"__int32_t\000"
 1927      7433325F 
 1927      7400
 1928              	.LASF51:
 1929 0070 666C6167 		.ascii	"flagLiftHandle\000"
 1929      4C696674 
 1929      48616E64 
 1929      6C6500
 1930              	.LASF108:
 1931 007f 72657369 		.ascii	"residue\000"
 1931      64756500 
 1932              	.LASF18:
 1933 0087 69645479 		.ascii	"idType\000"
 1933      706500
 1934              	.LASF120:
 1935 008e 73696465 		.ascii	"side\000"
 1935      00
 1936              	.LASF23:
 1937 0093 73656C65 		.ascii	"selectedSale\000"
 1937      63746564 
 1937      53616C65 
 1937      00
 1938              	.LASF59:
 1939 00a0 7175616E 		.ascii	"quantityMarket\000"
 1939      74697479 
 1939      4D61726B 
 1939      657400
 1940              	.LASF95:
 1941 00af 666C6167 		.ascii	"flagPoint2\000"
 1941      506F696E 
 1941      743200
 1942              	.LASF107:
 1943 00ba 73637265 		.ascii	"screen\000"
 1943      656E00
 1944              	.LASF55:
 1945 00c1 766F6C75 		.ascii	"volumeQuota\000"
 1945      6D655175 
 1945      6F746100 
 1946              	.LASF13:
 1947 00cd 666C6F61 		.ascii	"float\000"
ARM GAS  C:\Users\Lenovo\AppData\Local\Temp\cc7PLiU0.s 			page 40


 1947      7400
 1948              	.LASF123:
 1949 00d3 433A5C55 		.ascii	"C:\\Users\\Lenovo\\Desktop\\Hardware\\Software Mux\\"
 1949      73657273 
 1949      5C4C656E 
 1949      6F766F5C 
 1949      4465736B 
 1950 0101 4D757820 		.ascii	"Mux Advance Encore\\MuxAdvance.cydsn\000"
 1950      41647661 
 1950      6E636520 
 1950      456E636F 
 1950      72655C4D 
 1951              	.LASF7:
 1952 0125 6C6F6E67 		.ascii	"long long unsigned int\000"
 1952      206C6F6E 
 1952      6720756E 
 1952      7369676E 
 1952      65642069 
 1953              	.LASF41:
 1954 013c 746F7461 		.ascii	"totalVolumePrevious\000"
 1954      6C566F6C 
 1954      756D6550 
 1954      72657669 
 1954      6F757300 
 1955              	.LASF90:
 1956 0150 64696769 		.ascii	"digits\000"
 1956      747300
 1957              	.LASF105:
 1958 0157 74696D65 		.ascii	"time\000"
 1958      00
 1959              	.LASF34:
 1960 015c 70726F64 		.ascii	"productType\000"
 1960      75637454 
 1960      79706500 
 1961              	.LASF97:
 1962 0168 70726F64 		.ascii	"productNumber\000"
 1962      7563744E 
 1962      756D6265 
 1962      7200
 1963              	.LASF37:
 1964 0176 64617465 		.ascii	"dateDownHandle\000"
 1964      446F776E 
 1964      48616E64 
 1964      6C6500
 1965              	.LASF19:
 1966 0185 69645365 		.ascii	"idSerial\000"
 1966      7269616C 
 1966      00
 1967              	.LASF118:
 1968 018e 62756666 		.ascii	"bufferLCD1\000"
 1968      65724C43 
 1968      443100
 1969              	.LASF119:
 1970 0199 62756666 		.ascii	"bufferLCD2\000"
 1970      65724C43 
 1970      443200
 1971              	.LASF47:
ARM GAS  C:\Users\Lenovo\AppData\Local\Temp\cc7PLiU0.s 			page 41


 1972 01a4 6D696C65 		.ascii	"mileageSale\000"
 1972      61676553 
 1972      616C6500 
 1973              	.LASF67:
 1974 01b0 666C6167 		.ascii	"flagChangePPU\000"
 1974      4368616E 
 1974      67655050 
 1974      5500
 1975              	.LASF96:
 1976 01be 62757474 		.ascii	"button\000"
 1976      6F6E00
 1977              	.LASF57:
 1978 01c5 73657269 		.ascii	"serialMarket\000"
 1978      616C4D61 
 1978      726B6574 
 1978      00
 1979              	.LASF70:
 1980 01d2 746F7461 		.ascii	"totalsHandle\000"
 1980      6C734861 
 1980      6E646C65 
 1980      00
 1981              	.LASF33:
 1982 01df 70726573 		.ascii	"presetValue\000"
 1982      65745661 
 1982      6C756500 
 1983              	.LASF111:
 1984 01eb 7475726E 		.ascii	"turn\000"
 1984      00
 1985              	.LASF48:
 1986 01f0 6964656E 		.ascii	"identySale\000"
 1986      74795361 
 1986      6C6500
 1987              	.LASF88:
 1988 01fb 666C6F77 		.ascii	"flowLCD1\000"
 1988      4C434431 
 1988      00
 1989              	.LASF89:
 1990 0204 666C6F77 		.ascii	"flowLCD2\000"
 1990      4C434432 
 1990      00
 1991              	.LASF30:
 1992 020d 73616C65 		.ascii	"saleType\000"
 1992      54797065 
 1992      00
 1993              	.LASF28:
 1994 0216 76616C75 		.ascii	"valueKeys\000"
 1994      654B6579 
 1994      7300
 1995              	.LASF16:
 1996 0220 63686172 		.ascii	"char\000"
 1996      00
 1997              	.LASF92:
 1998 0225 6E756D62 		.ascii	"numberKeys1\000"
 1998      65724B65 
 1998      79733100 
 1999              	.LASF93:
 2000 0231 6E756D62 		.ascii	"numberKeys2\000"
ARM GAS  C:\Users\Lenovo\AppData\Local\Temp\cc7PLiU0.s 			page 42


 2000      65724B65 
 2000      79733200 
 2001              	.LASF86:
 2002 023d 636F756E 		.ascii	"countBeagleTX\000"
 2002      74426561 
 2002      676C6554 
 2002      5800
 2003              	.LASF80:
 2004 024b 64617461 		.ascii	"data\000"
 2004      00
 2005              	.LASF106:
 2006 0250 64617465 		.ascii	"date\000"
 2006      00
 2007              	.LASF77:
 2008 0255 73746174 		.ascii	"status\000"
 2008      757300
 2009              	.LASF50:
 2010 025c 666C6167 		.ascii	"flagPayment\000"
 2010      5061796D 
 2010      656E7400 
 2011              	.LASF20:
 2012 0268 69645365 		.ascii	"idSerialCom\000"
 2012      7269616C 
 2012      436F6D00 
 2013              	.LASF56:
 2014 0274 70707551 		.ascii	"ppuQuota\000"
 2014      756F7461 
 2014      00
 2015              	.LASF43:
 2016 027d 746F7461 		.ascii	"totalMoneyAfter\000"
 2016      6C4D6F6E 
 2016      65794166 
 2016      74657200 
 2017              	.LASF54:
 2018 028d 6D6F6E65 		.ascii	"moneyQuota\000"
 2018      7951756F 
 2018      746100
 2019              	.LASF66:
 2020 0298 7072696E 		.ascii	"printers\000"
 2020      74657273 
 2020      00
 2021              	.LASF98:
 2022 02a1 70726573 		.ascii	"presetFast\000"
 2022      65744661 
 2022      737400
 2023              	.LASF72:
 2024 02ac 6D6F6E65 		.ascii	"moneySale\000"
 2024      7953616C 
 2024      6500
 2025              	.LASF6:
 2026 02b6 6C6F6E67 		.ascii	"long long int\000"
 2026      206C6F6E 
 2026      6720696E 
 2026      7400
 2027              	.LASF74:
 2028 02c4 70707553 		.ascii	"ppuSale\000"
 2028      616C6500 
ARM GAS  C:\Users\Lenovo\AppData\Local\Temp\cc7PLiU0.s 			page 43


 2029              	.LASF84:
 2030 02cc 636F756E 		.ascii	"countAnimation1\000"
 2030      74416E69 
 2030      6D617469 
 2030      6F6E3100 
 2031              	.LASF117:
 2032 02dc 73746174 		.ascii	"stateBeagleSoft\000"
 2032      65426561 
 2032      676C6553 
 2032      6F667400 
 2033              	.LASF42:
 2034 02ec 746F7461 		.ascii	"totalPPUPrevious\000"
 2034      6C505055 
 2034      50726576 
 2034      696F7573 
 2034      00
 2035              	.LASF85:
 2036 02fd 636F756E 		.ascii	"countAnimation2\000"
 2036      74416E69 
 2036      6D617469 
 2036      6F6E3200 
 2037              	.LASF63:
 2038 030d 746F7461 		.ascii	"totalMarket\000"
 2038      6C4D6172 
 2038      6B657400 
 2039              	.LASF121:
 2040 0319 474E5520 		.ascii	"GNU C 4.9.3 20150303 (release) [ARM/embedded-4_9-br"
 2040      4320342E 
 2040      392E3320 
 2040      32303135 
 2040      30333033 
 2041 034c 616E6368 		.ascii	"anch revision 221220] -mcpu=cortex-m3 -mthumb -g -O"
 2041      20726576 
 2041      6973696F 
 2041      6E203232 
 2041      31323230 
 2042 037f 30202D66 		.ascii	"0 -ffunction-sections -ffat-lto-objects\000"
 2042      66756E63 
 2042      74696F6E 
 2042      2D736563 
 2042      74696F6E 
 2043              	.LASF39:
 2044 03a7 74696D65 		.ascii	"timeDownHandle\000"
 2044      446F776E 
 2044      48616E64 
 2044      6C6500
 2045              	.LASF29:
 2046 03b6 76656869 		.ascii	"vehicleType\000"
 2046      636C6554 
 2046      79706500 
 2047              	.LASF49:
 2048 03c2 666C6167 		.ascii	"flagKeyboard\000"
 2048      4B657962 
 2048      6F617264 
 2048      00
 2049              	.LASF12:
 2050 03cf 75696E74 		.ascii	"uint32\000"
ARM GAS  C:\Users\Lenovo\AppData\Local\Temp\cc7PLiU0.s 			page 44


 2050      333200
 2051              	.LASF116:
 2052 03d6 666C6167 		.ascii	"flagResetMux\000"
 2052      52657365 
 2052      744D7578 
 2052      00
 2053              	.LASF45:
 2054 03e3 746F7461 		.ascii	"totalPPUAfter\000"
 2054      6C505055 
 2054      41667465 
 2054      7200
 2055              	.LASF26:
 2056 03f1 6B657962 		.ascii	"keyboardWayToPay\000"
 2056      6F617264 
 2056      57617954 
 2056      6F506179 
 2056      00
 2057              	.LASF101:
 2058 0402 70707578 		.ascii	"ppux10\000"
 2058      313000
 2059              	.LASF40:
 2060 0409 746F7461 		.ascii	"totalMoneyPrevious\000"
 2060      6C4D6F6E 
 2060      65795072 
 2060      6576696F 
 2060      757300
 2061              	.LASF94:
 2062 041c 666C6167 		.ascii	"flagPoint1\000"
 2062      506F696E 
 2062      743100
 2063              	.LASF24:
 2064 0427 6D6F6E65 		.ascii	"moneySelectedSale\000"
 2064      7953656C 
 2064      65637465 
 2064      6453616C 
 2064      6500
 2065              	.LASF104:
 2066 0439 73796D62 		.ascii	"symbols\000"
 2066      6F6C7300 
 2067              	.LASF46:
 2068 0441 6C696365 		.ascii	"licenceSale\000"
 2068      6E636553 
 2068      616C6500 
 2069              	.LASF65:
 2070 044d 70726963 		.ascii	"priceConsign\000"
 2070      65436F6E 
 2070      7369676E 
 2070      00
 2071              	.LASF2:
 2072 045a 73686F72 		.ascii	"short int\000"
 2072      7420696E 
 2072      7400
 2073              	.LASF4:
 2074 0464 6C6F6E67 		.ascii	"long int\000"
 2074      20696E74 
 2074      00
 2075              	.LASF83:
ARM GAS  C:\Users\Lenovo\AppData\Local\Temp\cc7PLiU0.s 			page 45


 2076 046d 49544D5F 		.ascii	"ITM_RxBuffer\000"
 2076      52784275 
 2076      66666572 
 2076      00
 2077              	.LASF112:
 2078 047a 6C6F636B 		.ascii	"lockTurn\000"
 2078      5475726E 
 2078      00
 2079              	.LASF52:
 2080 0483 666C6167 		.ascii	"flagEndSale\000"
 2080      456E6453 
 2080      616C6500 
 2081              	.LASF36:
 2082 048f 64617465 		.ascii	"dateLiftHandle\000"
 2082      4C696674 
 2082      48616E64 
 2082      6C6500
 2083              	.LASF115:
 2084 049e 70617373 		.ascii	"passwordSeller\000"
 2084      776F7264 
 2084      53656C6C 
 2084      657200
 2085              	.LASF44:
 2086 04ad 746F7461 		.ascii	"totalVolumeAfter\000"
 2086      6C566F6C 
 2086      756D6541 
 2086      66746572 
 2086      00
 2087              	.LASF78:
 2088 04be 72656164 		.ascii	"read_time\000"
 2088      5F74696D 
 2088      6500
 2089              	.LASF15:
 2090 04c8 75696E74 		.ascii	"uint64\000"
 2090      363400
 2091              	.LASF99:
 2092 04cf 64656C61 		.ascii	"delayPicture1\000"
 2092      79506963 
 2092      74757265 
 2092      3100
 2093              	.LASF100:
 2094 04dd 64656C61 		.ascii	"delayPicture2\000"
 2094      79506963 
 2094      74757265 
 2094      3200
 2095              	.LASF35:
 2096 04eb 73746174 		.ascii	"stateMux\000"
 2096      654D7578 
 2096      00
 2097              	.LASF17:
 2098 04f4 73697A65 		.ascii	"sizetype\000"
 2098      74797065 
 2098      00
 2099              	.LASF5:
 2100 04fd 6C6F6E67 		.ascii	"long unsigned int\000"
 2100      20756E73 
 2100      69676E65 
ARM GAS  C:\Users\Lenovo\AppData\Local\Temp\cc7PLiU0.s 			page 46


 2100      6420696E 
 2100      7400
 2101              	.LASF114:
 2102 050f 74797065 		.ascii	"typeIdSeller\000"
 2102      49645365 
 2102      6C6C6572 
 2102      00
 2103              	.LASF64:
 2104 051c 666C6167 		.ascii	"flagProductmarket\000"
 2104      50726F64 
 2104      7563746D 
 2104      61726B65 
 2104      7400
 2105              	.LASF10:
 2106 052e 696E7433 		.ascii	"int32_t\000"
 2106      325F7400 
 2107              	.LASF79:
 2108 0536 72656164 		.ascii	"read_date\000"
 2108      5F646174 
 2108      6500
 2109              	.LASF60:
 2110 0540 7175616E 		.ascii	"quantAvailableMark\000"
 2110      74417661 
 2110      696C6162 
 2110      6C654D61 
 2110      726B00
 2111              	.LASF22:
 2112 0553 666C6167 		.ascii	"flagWayToPayMixed\000"
 2112      57617954 
 2112      6F506179 
 2112      4D697865 
 2112      6400
 2113              	.LASF1:
 2114 0565 756E7369 		.ascii	"unsigned char\000"
 2114      676E6564 
 2114      20636861 
 2114      7200
 2115              	.LASF27:
 2116 0573 61757468 		.ascii	"authorizationFlag\000"
 2116      6F72697A 
 2116      6174696F 
 2116      6E466C61 
 2116      6700
 2117              	.LASF61:
 2118 0585 70726963 		.ascii	"priceTotalMarket\000"
 2118      65546F74 
 2118      616C4D61 
 2118      726B6574 
 2118      00
 2119              	.LASF113:
 2120 0596 69645365 		.ascii	"idSeller\000"
 2120      6C6C6572 
 2120      00
 2121              	.LASF76:
 2122 059f 70756D70 		.ascii	"pump\000"
 2122      00
 2123              	.LASF109:
ARM GAS  C:\Users\Lenovo\AppData\Local\Temp\cc7PLiU0.s 			page 47


 2124 05a4 74656D70 		.ascii	"temporal\000"
 2124      6F72616C 
 2124      00
 2125              	.LASF32:
 2126 05ad 70726573 		.ascii	"presetType\000"
 2126      65745479 
 2126      706500
 2127              	.LASF81:
 2128 05b8 77726974 		.ascii	"write_time\000"
 2128      655F7469 
 2128      6D6500
 2129              	.LASF62:
 2130 05c3 70726963 		.ascii	"priceUnitMarket\000"
 2130      65556E69 
 2130      744D6172 
 2130      6B657400 
 2131              	.LASF73:
 2132 05d3 766F6C75 		.ascii	"volumeSale\000"
 2132      6D655361 
 2132      6C6500
 2133              	.LASF122:
 2134 05de 2E5C4932 		.ascii	".\\I2C.c\000"
 2134      432E6300 
 2135              	.LASF0:
 2136 05e6 7369676E 		.ascii	"signed char\000"
 2136      65642063 
 2136      68617200 
 2137              	.LASF3:
 2138 05f2 73686F72 		.ascii	"short unsigned int\000"
 2138      7420756E 
 2138      7369676E 
 2138      65642069 
 2138      6E7400
 2139              	.LASF87:
 2140 0605 636F756E 		.ascii	"countPump\000"
 2140      7450756D 
 2140      7000
 2141              	.LASF82:
 2142 060f 77726974 		.ascii	"write_date\000"
 2142      655F6461 
 2142      746500
 2143              	.LASF75:
 2144 061a 70726F64 		.ascii	"productSale\000"
 2144      75637453 
 2144      616C6500 
 2145              	.LASF11:
 2146 0626 75696E74 		.ascii	"uint8\000"
 2146      3800
 2147              	.LASF14:
 2148 062c 646F7562 		.ascii	"double\000"
 2148      6C6500
 2149              	.LASF21:
 2150 0633 77617954 		.ascii	"wayToPay\000"
 2150      6F506179 
 2150      00
 2151              	.LASF38:
 2152 063c 74696D65 		.ascii	"timeLiftHandle\000"
ARM GAS  C:\Users\Lenovo\AppData\Local\Temp\cc7PLiU0.s 			page 48


 2152      4C696674 
 2152      48616E64 
 2152      6C6500
 2153              	.LASF71:
 2154 064b 70707541 		.ascii	"ppuAuthorized\000"
 2154      7574686F 
 2154      72697A65 
 2154      6400
 2155              	.LASF25:
 2156 0659 73657269 		.ascii	"serialSelectedSale\000"
 2156      616C5365 
 2156      6C656374 
 2156      65645361 
 2156      6C6500
 2157              	.LASF69:
 2158 066c 706F7369 		.ascii	"position\000"
 2158      74696F6E 
 2158      00
 2159              		.ident	"GCC: (GNU Tools for ARM Embedded Processors) 4.9.3 20150303 (release) [ARM/embedded-4_9-br
