ARM GAS  C:\Users\Lenovo\AppData\Local\Temp\ccorJ0uR.s 			page 1


   1              		.syntax unified
   2              		.cpu cortex-m3
   3              		.fpu softvfp
   4              		.eabi_attribute 20, 1
   5              		.eabi_attribute 21, 1
   6              		.eabi_attribute 23, 3
   7              		.eabi_attribute 24, 1
   8              		.eabi_attribute 25, 1
   9              		.eabi_attribute 26, 1
  10              		.eabi_attribute 30, 6
  11              		.eabi_attribute 34, 1
  12              		.eabi_attribute 18, 4
  13              		.thumb
  14              		.file	"keyboard.c"
  15              		.text
  16              	.Ltext0:
  17              		.cfi_sections	.debug_frame
  18              		.comm	countAnimation1,8,8
  19              		.comm	countAnimation2,8,8
  20              		.comm	countBeagleTX,8,8
  21              		.comm	countPump,8,8
  22              		.comm	flowLCD1,4,4
  23              		.comm	flowLCD2,4,4
  24              		.comm	digits,1,1
  25              		.comm	ipAdress,12,4
  26              		.comm	numberKeys1,1,1
  27              		.comm	numberKeys2,1,1
  28              		.comm	flagPoint1,1,1
  29              		.comm	flagPoint2,1,1
  30              		.comm	button,960,4
  31              		.comm	productNumber,1,1
  32              		.comm	presetFast,30,4
  33              		.comm	delayPicture1,4,4
  34              		.comm	delayPicture2,4,4
  35              		.comm	ppux10,1,1
  36              		.comm	decimalMoney,1,1
  37              		.comm	decimalVolume,1,1
  38              		.comm	symbols,2,4
  39              		.comm	time,3,4
  40              		.comm	date,3,4
  41              		.comm	screen,2,4
  42              		.comm	residue,14,4
  43              		.comm	temporal,30,4
  44              		.comm	temporalCom,30,4
  45              		.comm	turn,1,1
  46              		.comm	lockTurn,1,1
  47              		.comm	idSeller,25,4
  48              		.comm	typeIdSeller,1,1
  49              		.comm	passwordSeller,8,4
  50              		.comm	flagResetMux,1,1
  51              		.comm	stateBeagleSoft,1,1
  52              		.comm	bufferLCD1,661,4
  53              		.comm	bufferLCD2,661,4
  54              		.comm	side,512,4
  55              		.section	.text.alphanumeric_keyboard,"ax",%progbits
  56              		.align	2
  57              		.global	alphanumeric_keyboard
ARM GAS  C:\Users\Lenovo\AppData\Local\Temp\ccorJ0uR.s 			page 2


  58              		.thumb
  59              		.thumb_func
  60              		.type	alphanumeric_keyboard, %function
  61              	alphanumeric_keyboard:
  62              	.LFB56:
  63              		.file 1 ".\\keyboard.c"
   1:.\keyboard.c  **** /*
   2:.\keyboard.c  **** ***************************************************************************************************
   3:.\keyboard.c  **** *                                         MUX ADVANCE CODE
   4:.\keyboard.c  **** *
   5:.\keyboard.c  **** *                             (c) Copyright 2016; Sistemas Insepet LTDA
   6:.\keyboard.c  **** *
   7:.\keyboard.c  **** *               All rights reserved.  Protected by international copyright laws.
   8:.\keyboard.c  **** *               Knowledge of the source code may NOT be used to develop a similar product.
   9:.\keyboard.c  **** *               Please help us continue to provide the Embedded community with the finest
  10:.\keyboard.c  **** *               software available.  Your honesty is greatly appreciated.
  11:.\keyboard.c  **** ***************************************************************************************************
  12:.\keyboard.c  **** */
  13:.\keyboard.c  **** 
  14:.\keyboard.c  **** /*
  15:.\keyboard.c  **** ***************************************************************************************************
  16:.\keyboard.c  **** *
  17:.\keyboard.c  **** *                                            MUX ADVANCE CODE
  18:.\keyboard.c  **** *
  19:.\keyboard.c  **** *                                             CYPRESS PSoC5LP
  20:.\keyboard.c  **** *                                                with the
  21:.\keyboard.c  **** *                                            CY8C5969AXI-LP035
  22:.\keyboard.c  **** *
  23:.\keyboard.c  **** * Filename      : keyboard.c
  24:.\keyboard.c  **** * Version       : V1.00
  25:.\keyboard.c  **** * Programmer(s) : 
  26:.\keyboard.c  ****                   
  27:.\keyboard.c  **** ***************************************************************************************************
  28:.\keyboard.c  **** */
  29:.\keyboard.c  **** 
  30:.\keyboard.c  **** /*
  31:.\keyboard.c  **** ***************************************************************************************************
  32:.\keyboard.c  **** *                                             INCLUDE FILES
  33:.\keyboard.c  **** ***************************************************************************************************
  34:.\keyboard.c  **** */
  35:.\keyboard.c  **** 
  36:.\keyboard.c  **** #include <device.h>
  37:.\keyboard.c  **** #include "variables.h"
  38:.\keyboard.c  **** #include "LCD.h"
  39:.\keyboard.c  **** 
  40:.\keyboard.c  **** /*
  41:.\keyboard.c  **** ***************************************************************************************************
  42:.\keyboard.c  **** *               uint8 alphanumeric_keyboard(uint8 lcd, uint8 maxNumberKeys, uint8 character)
  43:.\keyboard.c  **** *
  44:.\keyboard.c  **** * Description : 
  45:.\keyboard.c  **** *               
  46:.\keyboard.c  **** *
  47:.\keyboard.c  **** * Argument(s) : none
  48:.\keyboard.c  **** *
  49:.\keyboard.c  **** * Return(s)   : none
  50:.\keyboard.c  **** *
  51:.\keyboard.c  **** * Caller(s)   :  
ARM GAS  C:\Users\Lenovo\AppData\Local\Temp\ccorJ0uR.s 			page 3


  52:.\keyboard.c  **** *
  53:.\keyboard.c  **** * Note(s)     : none.
  54:.\keyboard.c  **** ***************************************************************************************************
  55:.\keyboard.c  **** */
  56:.\keyboard.c  **** 
  57:.\keyboard.c  **** uint8 alphanumeric_keyboard(uint8 lcd, uint8 maxNumberKeys, uint8 character){
  64              		.loc 1 57 0
  65              		.cfi_startproc
  66              		@ args = 0, pretend = 0, frame = 8
  67              		@ frame_needed = 1, uses_anonymous_args = 0
  68 0000 90B5     		push	{r4, r7, lr}
  69              		.cfi_def_cfa_offset 12
  70              		.cfi_offset 4, -12
  71              		.cfi_offset 7, -8
  72              		.cfi_offset 14, -4
  73 0002 87B0     		sub	sp, sp, #28
  74              		.cfi_def_cfa_offset 40
  75 0004 04AF     		add	r7, sp, #16
  76              		.cfi_def_cfa 7, 24
  77 0006 0346     		mov	r3, r0
  78 0008 FB71     		strb	r3, [r7, #7]
  79 000a 0B46     		mov	r3, r1
  80 000c BB71     		strb	r3, [r7, #6]
  81 000e 1346     		mov	r3, r2
  82 0010 7B71     		strb	r3, [r7, #5]
  58:.\keyboard.c  ****     if(lcd==1){
  83              		.loc 1 58 0
  84 0012 FB79     		ldrb	r3, [r7, #7]	@ zero_extendqisi2
  85 0014 012B     		cmp	r3, #1
  86 0016 40F08481 		bne	.L2
  59:.\keyboard.c  ****         if(LCD1_GetRxBufferSize()==8){
  87              		.loc 1 59 0
  88 001a FFF7FEFF 		bl	LCD1_GetRxBufferSize
  89 001e 0346     		mov	r3, r0
  90 0020 082B     		cmp	r3, #8
  91 0022 40F00983 		bne	.L18
  60:.\keyboard.c  ****             if((LCD1_rxBuffer[0]==0xAA) && (LCD1_rxBuffer[6]==0xC3) && (LCD1_rxBuffer[7]==0x3C)){
  92              		.loc 1 60 0
  93 0026 924B     		ldr	r3, .L32
  94 0028 1B78     		ldrb	r3, [r3]
  95 002a DBB2     		uxtb	r3, r3
  96 002c AA2B     		cmp	r3, #170
  97 002e 40F07281 		bne	.L4
  98              		.loc 1 60 0 is_stmt 0 discriminator 1
  99 0032 8F4B     		ldr	r3, .L32
 100 0034 9B79     		ldrb	r3, [r3, #6]
 101 0036 DBB2     		uxtb	r3, r3
 102 0038 C32B     		cmp	r3, #195
 103 003a 40F06C81 		bne	.L4
 104              		.loc 1 60 0 discriminator 2
 105 003e 8C4B     		ldr	r3, .L32
 106 0040 DB79     		ldrb	r3, [r3, #7]
 107 0042 DBB2     		uxtb	r3, r3
 108 0044 3C2B     		cmp	r3, #60
 109 0046 40F06681 		bne	.L4
  61:.\keyboard.c  ****                 countAnimation1=0;
 110              		.loc 1 61 0 is_stmt 1
ARM GAS  C:\Users\Lenovo\AppData\Local\Temp\ccorJ0uR.s 			page 4


 111 004a 8A49     		ldr	r1, .L32+4
 112 004c 4FF00002 		mov	r2, #0
 113 0050 4FF00003 		mov	r3, #0
 114 0054 C1E90023 		strd	r2, [r1]
  62:.\keyboard.c  ****                 if(numberKeys1<=(maxNumberKeys-1)){
 115              		.loc 1 62 0
 116 0058 874B     		ldr	r3, .L32+8
 117 005a 1B78     		ldrb	r3, [r3]
 118 005c DBB2     		uxtb	r3, r3
 119 005e 1A46     		mov	r2, r3
 120 0060 BB79     		ldrb	r3, [r7, #6]	@ zero_extendqisi2
 121 0062 013B     		subs	r3, r3, #1
 122 0064 9A42     		cmp	r2, r3
 123 0066 00F3F180 		bgt	.L5
  63:.\keyboard.c  ****                     if(LCD1_rxBuffer[3]>=0x20 && LCD1_rxBuffer[3]<=0x2B){ //Comandos ascii sin incl
 124              		.loc 1 63 0
 125 006a 814B     		ldr	r3, .L32
 126 006c DB78     		ldrb	r3, [r3, #3]
 127 006e DBB2     		uxtb	r3, r3
 128 0070 1F2B     		cmp	r3, #31
 129 0072 48D9     		bls	.L6
 130              		.loc 1 63 0 is_stmt 0 discriminator 1
 131 0074 7E4B     		ldr	r3, .L32
 132 0076 DB78     		ldrb	r3, [r3, #3]
 133 0078 DBB2     		uxtb	r3, r3
 134 007a 2B2B     		cmp	r3, #43
 135 007c 43D8     		bhi	.L6
  64:.\keyboard.c  ****                         numberKeys1++;  
 136              		.loc 1 64 0 is_stmt 1
 137 007e 7E4B     		ldr	r3, .L32+8
 138 0080 1B78     		ldrb	r3, [r3]
 139 0082 DBB2     		uxtb	r3, r3
 140 0084 0133     		adds	r3, r3, #1
 141 0086 DAB2     		uxtb	r2, r3
 142 0088 7B4B     		ldr	r3, .L32+8
 143 008a 1A70     		strb	r2, [r3]
  65:.\keyboard.c  ****                         bufferLCD1.valueKeys[numberKeys1]=LCD1_rxBuffer[3];
 144              		.loc 1 65 0
 145 008c 7A4B     		ldr	r3, .L32+8
 146 008e 1B78     		ldrb	r3, [r3]
 147 0090 DBB2     		uxtb	r3, r3
 148 0092 1946     		mov	r1, r3
 149 0094 764B     		ldr	r3, .L32
 150 0096 DB78     		ldrb	r3, [r3, #3]
 151 0098 DAB2     		uxtb	r2, r3
 152 009a 784B     		ldr	r3, .L32+12
 153 009c 0B44     		add	r3, r3, r1
 154 009e 83F86420 		strb	r2, [r3, #100]
  66:.\keyboard.c  ****                         if(character==0){
 155              		.loc 1 66 0
 156 00a2 7B79     		ldrb	r3, [r7, #5]	@ zero_extendqisi2
 157 00a4 002B     		cmp	r3, #0
 158 00a6 1AD1     		bne	.L7
  67:.\keyboard.c  ****                             write_LCD(1,bufferLCD1.valueKeys[numberKeys1],2,numberKeys1+2,1,0x0000,
 159              		.loc 1 67 0
 160 00a8 734B     		ldr	r3, .L32+8
 161 00aa 1B78     		ldrb	r3, [r3]
ARM GAS  C:\Users\Lenovo\AppData\Local\Temp\ccorJ0uR.s 			page 5


 162 00ac DBB2     		uxtb	r3, r3
 163 00ae 1A46     		mov	r2, r3
 164 00b0 724B     		ldr	r3, .L32+12
 165 00b2 1344     		add	r3, r3, r2
 166 00b4 93F86420 		ldrb	r2, [r3, #100]	@ zero_extendqisi2
 167 00b8 6F4B     		ldr	r3, .L32+8
 168 00ba 1B78     		ldrb	r3, [r3]
 169 00bc DBB2     		uxtb	r3, r3
 170 00be 9BB2     		uxth	r3, r3
 171 00c0 0233     		adds	r3, r3, #2
 172 00c2 9CB2     		uxth	r4, r3
 173 00c4 0123     		movs	r3, #1
 174 00c6 0093     		str	r3, [sp]
 175 00c8 0023     		movs	r3, #0
 176 00ca 0193     		str	r3, [sp, #4]
 177 00cc 4E23     		movs	r3, #78
 178 00ce 0293     		str	r3, [sp, #8]
 179 00d0 0120     		movs	r0, #1
 180 00d2 1146     		mov	r1, r2
 181 00d4 0222     		movs	r2, #2
 182 00d6 2346     		mov	r3, r4
 183 00d8 FFF7FEFF 		bl	write_LCD
  66:.\keyboard.c  ****                         if(character==0){
 184              		.loc 1 66 0
 185 00dc B6E0     		b	.L5
 186              	.L7:
  68:.\keyboard.c  ****                         }else{
  69:.\keyboard.c  ****                             write_LCD(1,character,2,numberKeys1+2,1,0x0000,'N');
 187              		.loc 1 69 0
 188 00de 664B     		ldr	r3, .L32+8
 189 00e0 1B78     		ldrb	r3, [r3]
 190 00e2 DBB2     		uxtb	r3, r3
 191 00e4 9BB2     		uxth	r3, r3
 192 00e6 0233     		adds	r3, r3, #2
 193 00e8 9CB2     		uxth	r4, r3
 194 00ea 7A79     		ldrb	r2, [r7, #5]	@ zero_extendqisi2
 195 00ec 0123     		movs	r3, #1
 196 00ee 0093     		str	r3, [sp]
 197 00f0 0023     		movs	r3, #0
 198 00f2 0193     		str	r3, [sp, #4]
 199 00f4 4E23     		movs	r3, #78
 200 00f6 0293     		str	r3, [sp, #8]
 201 00f8 0120     		movs	r0, #1
 202 00fa 1146     		mov	r1, r2
 203 00fc 0222     		movs	r2, #2
 204 00fe 2346     		mov	r3, r4
 205 0100 FFF7FEFF 		bl	write_LCD
  66:.\keyboard.c  ****                             write_LCD(1,bufferLCD1.valueKeys[numberKeys1],2,numberKeys1+2,1,0x0000,
 206              		.loc 1 66 0
 207 0104 A2E0     		b	.L5
 208              	.L6:
  70:.\keyboard.c  ****                         }
  71:.\keyboard.c  ****                     }else if(LCD1_rxBuffer[3]>=0x2D && LCD1_rxBuffer[3]<=0x7E){ //Comandos ascii si
 209              		.loc 1 71 0
 210 0106 5A4B     		ldr	r3, .L32
 211 0108 DB78     		ldrb	r3, [r3, #3]
 212 010a DBB2     		uxtb	r3, r3
ARM GAS  C:\Users\Lenovo\AppData\Local\Temp\ccorJ0uR.s 			page 6


 213 010c 2C2B     		cmp	r3, #44
 214 010e 48D9     		bls	.L9
 215              		.loc 1 71 0 is_stmt 0 discriminator 1
 216 0110 574B     		ldr	r3, .L32
 217 0112 DB78     		ldrb	r3, [r3, #3]
 218 0114 DBB2     		uxtb	r3, r3
 219 0116 7E2B     		cmp	r3, #126
 220 0118 43D8     		bhi	.L9
  72:.\keyboard.c  ****                         numberKeys1++;  
 221              		.loc 1 72 0 is_stmt 1
 222 011a 574B     		ldr	r3, .L32+8
 223 011c 1B78     		ldrb	r3, [r3]
 224 011e DBB2     		uxtb	r3, r3
 225 0120 0133     		adds	r3, r3, #1
 226 0122 DAB2     		uxtb	r2, r3
 227 0124 544B     		ldr	r3, .L32+8
 228 0126 1A70     		strb	r2, [r3]
  73:.\keyboard.c  ****                         bufferLCD1.valueKeys[numberKeys1]=LCD1_rxBuffer[3];
 229              		.loc 1 73 0
 230 0128 534B     		ldr	r3, .L32+8
 231 012a 1B78     		ldrb	r3, [r3]
 232 012c DBB2     		uxtb	r3, r3
 233 012e 1946     		mov	r1, r3
 234 0130 4F4B     		ldr	r3, .L32
 235 0132 DB78     		ldrb	r3, [r3, #3]
 236 0134 DAB2     		uxtb	r2, r3
 237 0136 514B     		ldr	r3, .L32+12
 238 0138 0B44     		add	r3, r3, r1
 239 013a 83F86420 		strb	r2, [r3, #100]
  74:.\keyboard.c  ****                         if(character==0){
 240              		.loc 1 74 0
 241 013e 7B79     		ldrb	r3, [r7, #5]	@ zero_extendqisi2
 242 0140 002B     		cmp	r3, #0
 243 0142 1AD1     		bne	.L10
  75:.\keyboard.c  ****                             write_LCD(1,bufferLCD1.valueKeys[numberKeys1],2,numberKeys1+2,1,0x0000,
 244              		.loc 1 75 0
 245 0144 4C4B     		ldr	r3, .L32+8
 246 0146 1B78     		ldrb	r3, [r3]
 247 0148 DBB2     		uxtb	r3, r3
 248 014a 1A46     		mov	r2, r3
 249 014c 4B4B     		ldr	r3, .L32+12
 250 014e 1344     		add	r3, r3, r2
 251 0150 93F86420 		ldrb	r2, [r3, #100]	@ zero_extendqisi2
 252 0154 484B     		ldr	r3, .L32+8
 253 0156 1B78     		ldrb	r3, [r3]
 254 0158 DBB2     		uxtb	r3, r3
 255 015a 9BB2     		uxth	r3, r3
 256 015c 0233     		adds	r3, r3, #2
 257 015e 9CB2     		uxth	r4, r3
 258 0160 0123     		movs	r3, #1
 259 0162 0093     		str	r3, [sp]
 260 0164 0023     		movs	r3, #0
 261 0166 0193     		str	r3, [sp, #4]
 262 0168 4E23     		movs	r3, #78
 263 016a 0293     		str	r3, [sp, #8]
 264 016c 0120     		movs	r0, #1
 265 016e 1146     		mov	r1, r2
ARM GAS  C:\Users\Lenovo\AppData\Local\Temp\ccorJ0uR.s 			page 7


 266 0170 0222     		movs	r2, #2
 267 0172 2346     		mov	r3, r4
 268 0174 FFF7FEFF 		bl	write_LCD
  74:.\keyboard.c  ****                         if(character==0){
 269              		.loc 1 74 0
 270 0178 68E0     		b	.L5
 271              	.L10:
  76:.\keyboard.c  ****                         }else{
  77:.\keyboard.c  ****                             write_LCD(1,character,2,numberKeys1+2,1,0x0000,'N');
 272              		.loc 1 77 0
 273 017a 3F4B     		ldr	r3, .L32+8
 274 017c 1B78     		ldrb	r3, [r3]
 275 017e DBB2     		uxtb	r3, r3
 276 0180 9BB2     		uxth	r3, r3
 277 0182 0233     		adds	r3, r3, #2
 278 0184 9CB2     		uxth	r4, r3
 279 0186 7A79     		ldrb	r2, [r7, #5]	@ zero_extendqisi2
 280 0188 0123     		movs	r3, #1
 281 018a 0093     		str	r3, [sp]
 282 018c 0023     		movs	r3, #0
 283 018e 0193     		str	r3, [sp, #4]
 284 0190 4E23     		movs	r3, #78
 285 0192 0293     		str	r3, [sp, #8]
 286 0194 0120     		movs	r0, #1
 287 0196 1146     		mov	r1, r2
 288 0198 0222     		movs	r2, #2
 289 019a 2346     		mov	r3, r4
 290 019c FFF7FEFF 		bl	write_LCD
  74:.\keyboard.c  ****                             write_LCD(1,bufferLCD1.valueKeys[numberKeys1],2,numberKeys1+2,1,0x0000,
 291              		.loc 1 74 0
 292 01a0 54E0     		b	.L5
 293              	.L9:
  78:.\keyboard.c  ****                         }
  79:.\keyboard.c  ****                     }else if(LCD1_rxBuffer[3]==',' && numberKeys1>=1 && flagPoint1==0){  //Coma (,)
 294              		.loc 1 79 0
 295 01a2 334B     		ldr	r3, .L32
 296 01a4 DB78     		ldrb	r3, [r3, #3]
 297 01a6 DBB2     		uxtb	r3, r3
 298 01a8 2C2B     		cmp	r3, #44
 299 01aa 4FD1     		bne	.L5
 300              		.loc 1 79 0 is_stmt 0 discriminator 1
 301 01ac 324B     		ldr	r3, .L32+8
 302 01ae 1B78     		ldrb	r3, [r3]
 303 01b0 DBB2     		uxtb	r3, r3
 304 01b2 002B     		cmp	r3, #0
 305 01b4 4AD0     		beq	.L5
 306              		.loc 1 79 0 discriminator 2
 307 01b6 324B     		ldr	r3, .L32+16
 308 01b8 1B78     		ldrb	r3, [r3]
 309 01ba DBB2     		uxtb	r3, r3
 310 01bc 002B     		cmp	r3, #0
 311 01be 45D1     		bne	.L5
  80:.\keyboard.c  ****                         numberKeys1++;  
 312              		.loc 1 80 0 is_stmt 1
 313 01c0 2D4B     		ldr	r3, .L32+8
 314 01c2 1B78     		ldrb	r3, [r3]
 315 01c4 DBB2     		uxtb	r3, r3
ARM GAS  C:\Users\Lenovo\AppData\Local\Temp\ccorJ0uR.s 			page 8


 316 01c6 0133     		adds	r3, r3, #1
 317 01c8 DAB2     		uxtb	r2, r3
 318 01ca 2B4B     		ldr	r3, .L32+8
 319 01cc 1A70     		strb	r2, [r3]
  81:.\keyboard.c  ****                         flagPoint1=1;
 320              		.loc 1 81 0
 321 01ce 2C4B     		ldr	r3, .L32+16
 322 01d0 0122     		movs	r2, #1
 323 01d2 1A70     		strb	r2, [r3]
  82:.\keyboard.c  ****                         bufferLCD1.valueKeys[numberKeys1]=LCD1_rxBuffer[3];
 324              		.loc 1 82 0
 325 01d4 284B     		ldr	r3, .L32+8
 326 01d6 1B78     		ldrb	r3, [r3]
 327 01d8 DBB2     		uxtb	r3, r3
 328 01da 1946     		mov	r1, r3
 329 01dc 244B     		ldr	r3, .L32
 330 01de DB78     		ldrb	r3, [r3, #3]
 331 01e0 DAB2     		uxtb	r2, r3
 332 01e2 264B     		ldr	r3, .L32+12
 333 01e4 0B44     		add	r3, r3, r1
 334 01e6 83F86420 		strb	r2, [r3, #100]
  83:.\keyboard.c  ****                         if(character==0){
 335              		.loc 1 83 0
 336 01ea 7B79     		ldrb	r3, [r7, #5]	@ zero_extendqisi2
 337 01ec 002B     		cmp	r3, #0
 338 01ee 1AD1     		bne	.L12
  84:.\keyboard.c  ****                             write_LCD(1,bufferLCD1.valueKeys[numberKeys1],2,numberKeys1+2,1,0x0000,
 339              		.loc 1 84 0
 340 01f0 214B     		ldr	r3, .L32+8
 341 01f2 1B78     		ldrb	r3, [r3]
 342 01f4 DBB2     		uxtb	r3, r3
 343 01f6 1A46     		mov	r2, r3
 344 01f8 204B     		ldr	r3, .L32+12
 345 01fa 1344     		add	r3, r3, r2
 346 01fc 93F86420 		ldrb	r2, [r3, #100]	@ zero_extendqisi2
 347 0200 1D4B     		ldr	r3, .L32+8
 348 0202 1B78     		ldrb	r3, [r3]
 349 0204 DBB2     		uxtb	r3, r3
 350 0206 9BB2     		uxth	r3, r3
 351 0208 0233     		adds	r3, r3, #2
 352 020a 9CB2     		uxth	r4, r3
 353 020c 0123     		movs	r3, #1
 354 020e 0093     		str	r3, [sp]
 355 0210 0023     		movs	r3, #0
 356 0212 0193     		str	r3, [sp, #4]
 357 0214 4E23     		movs	r3, #78
 358 0216 0293     		str	r3, [sp, #8]
 359 0218 0120     		movs	r0, #1
 360 021a 1146     		mov	r1, r2
 361 021c 0222     		movs	r2, #2
 362 021e 2346     		mov	r3, r4
 363 0220 FFF7FEFF 		bl	write_LCD
 364 0224 12E0     		b	.L5
 365              	.L12:
  85:.\keyboard.c  ****                         }else{
  86:.\keyboard.c  ****                             write_LCD(1,character,2,numberKeys1+2,1,0x0000,'N');
 366              		.loc 1 86 0
ARM GAS  C:\Users\Lenovo\AppData\Local\Temp\ccorJ0uR.s 			page 9


 367 0226 144B     		ldr	r3, .L32+8
 368 0228 1B78     		ldrb	r3, [r3]
 369 022a DBB2     		uxtb	r3, r3
 370 022c 9BB2     		uxth	r3, r3
 371 022e 0233     		adds	r3, r3, #2
 372 0230 9CB2     		uxth	r4, r3
 373 0232 7A79     		ldrb	r2, [r7, #5]	@ zero_extendqisi2
 374 0234 0123     		movs	r3, #1
 375 0236 0093     		str	r3, [sp]
 376 0238 0023     		movs	r3, #0
 377 023a 0193     		str	r3, [sp, #4]
 378 023c 4E23     		movs	r3, #78
 379 023e 0293     		str	r3, [sp, #8]
 380 0240 0120     		movs	r0, #1
 381 0242 1146     		mov	r1, r2
 382 0244 0222     		movs	r2, #2
 383 0246 2346     		mov	r3, r4
 384 0248 FFF7FEFF 		bl	write_LCD
 385              	.L5:
  87:.\keyboard.c  ****                         }
  88:.\keyboard.c  ****                     }
  89:.\keyboard.c  ****                 }  
  90:.\keyboard.c  ****                 if(LCD1_rxBuffer[3]==0x0B){ //Borrar
 386              		.loc 1 90 0
 387 024c 084B     		ldr	r3, .L32
 388 024e DB78     		ldrb	r3, [r3, #3]
 389 0250 DBB2     		uxtb	r3, r3
 390 0252 0B2B     		cmp	r3, #11
 391 0254 3CD1     		bne	.L13
  91:.\keyboard.c  ****                     if(numberKeys1==0){		//Si no ha presionado nada regresa al menu anterior
 392              		.loc 1 91 0
 393 0256 084B     		ldr	r3, .L32+8
 394 0258 1B78     		ldrb	r3, [r3]
 395 025a DBB2     		uxtb	r3, r3
 396 025c 002B     		cmp	r3, #0
 397 025e 11D1     		bne	.L14
  92:.\keyboard.c  ****                         CyDelay(20);         
 398              		.loc 1 92 0
 399 0260 1420     		movs	r0, #20
 400 0262 FFF7FEFF 		bl	CyDelay
  93:.\keyboard.c  ****                         LCD1_ClearRxBuffer();
 401              		.loc 1 93 0
 402 0266 FFF7FEFF 		bl	LCD1_ClearRxBuffer
  94:.\keyboard.c  ****                         return 0;
 403              		.loc 1 94 0
 404 026a 0023     		movs	r3, #0
 405 026c E5E1     		b	.L15
 406              	.L33:
 407 026e 00BF     		.align	2
 408              	.L32:
 409 0270 00000000 		.word	LCD1_rxBuffer
 410 0274 00000000 		.word	countAnimation1
 411 0278 00000000 		.word	numberKeys1
 412 027c 00000000 		.word	bufferLCD1
 413 0280 00000000 		.word	flagPoint1
 414              	.L14:
  95:.\keyboard.c  ****                     }
ARM GAS  C:\Users\Lenovo\AppData\Local\Temp\ccorJ0uR.s 			page 10


  96:.\keyboard.c  ****                     else{
  97:.\keyboard.c  ****                         write_LCD(1,' ',2,numberKeys1+2,1,0x0000,'N');	//Si ya presiono borra el da
 415              		.loc 1 97 0
 416 0284 AA4B     		ldr	r3, .L34
 417 0286 1B78     		ldrb	r3, [r3]
 418 0288 DBB2     		uxtb	r3, r3
 419 028a 9BB2     		uxth	r3, r3
 420 028c 0233     		adds	r3, r3, #2
 421 028e 9CB2     		uxth	r4, r3
 422 0290 0123     		movs	r3, #1
 423 0292 0093     		str	r3, [sp]
 424 0294 0023     		movs	r3, #0
 425 0296 0193     		str	r3, [sp, #4]
 426 0298 4E23     		movs	r3, #78
 427 029a 0293     		str	r3, [sp, #8]
 428 029c 0120     		movs	r0, #1
 429 029e 2021     		movs	r1, #32
 430 02a0 0222     		movs	r2, #2
 431 02a2 2346     		mov	r3, r4
 432 02a4 FFF7FEFF 		bl	write_LCD
  98:.\keyboard.c  ****                         if(bufferLCD1.valueKeys[numberKeys1]==0x2C){
 433              		.loc 1 98 0
 434 02a8 A14B     		ldr	r3, .L34
 435 02aa 1B78     		ldrb	r3, [r3]
 436 02ac DBB2     		uxtb	r3, r3
 437 02ae 1A46     		mov	r2, r3
 438 02b0 A04B     		ldr	r3, .L34+4
 439 02b2 1344     		add	r3, r3, r2
 440 02b4 93F86430 		ldrb	r3, [r3, #100]	@ zero_extendqisi2
 441 02b8 2C2B     		cmp	r3, #44
 442 02ba 02D1     		bne	.L16
  99:.\keyboard.c  ****                             flagPoint1=0;
 443              		.loc 1 99 0
 444 02bc 9E4B     		ldr	r3, .L34+8
 445 02be 0022     		movs	r2, #0
 446 02c0 1A70     		strb	r2, [r3]
 447              	.L16:
 100:.\keyboard.c  ****                         }
 101:.\keyboard.c  ****                         numberKeys1--;
 448              		.loc 1 101 0
 449 02c2 9B4B     		ldr	r3, .L34
 450 02c4 1B78     		ldrb	r3, [r3]
 451 02c6 DBB2     		uxtb	r3, r3
 452 02c8 013B     		subs	r3, r3, #1
 453 02ca DAB2     		uxtb	r2, r3
 454 02cc 984B     		ldr	r3, .L34
 455 02ce 1A70     		strb	r2, [r3]
 456              	.L13:
 102:.\keyboard.c  ****                     }
 103:.\keyboard.c  ****                 }
 104:.\keyboard.c  ****                 if(LCD1_rxBuffer[3]==0x0A){ //Enter
 457              		.loc 1 104 0
 458 02d0 9A4B     		ldr	r3, .L34+12
 459 02d2 DB78     		ldrb	r3, [r3, #3]
 460 02d4 DBB2     		uxtb	r3, r3
 461 02d6 0A2B     		cmp	r3, #10
 462 02d8 11D1     		bne	.L17
ARM GAS  C:\Users\Lenovo\AppData\Local\Temp\ccorJ0uR.s 			page 11


 105:.\keyboard.c  ****                     if(numberKeys1>0){
 463              		.loc 1 105 0
 464 02da 954B     		ldr	r3, .L34
 465 02dc 1B78     		ldrb	r3, [r3]
 466 02de DBB2     		uxtb	r3, r3
 467 02e0 002B     		cmp	r3, #0
 468 02e2 0CD0     		beq	.L17
 106:.\keyboard.c  ****                         bufferLCD1.valueKeys[0]=numberKeys1;
 469              		.loc 1 106 0
 470 02e4 924B     		ldr	r3, .L34
 471 02e6 1B78     		ldrb	r3, [r3]
 472 02e8 DAB2     		uxtb	r2, r3
 473 02ea 924B     		ldr	r3, .L34+4
 474 02ec 83F86420 		strb	r2, [r3, #100]
 107:.\keyboard.c  ****                         CyDelay(20);         
 475              		.loc 1 107 0
 476 02f0 1420     		movs	r0, #20
 477 02f2 FFF7FEFF 		bl	CyDelay
 108:.\keyboard.c  ****                         LCD1_ClearRxBuffer();
 478              		.loc 1 108 0
 479 02f6 FFF7FEFF 		bl	LCD1_ClearRxBuffer
 109:.\keyboard.c  ****                         return 1;
 480              		.loc 1 109 0
 481 02fa 0123     		movs	r3, #1
 482 02fc 9DE1     		b	.L15
 483              	.L17:
 110:.\keyboard.c  ****                     }
 111:.\keyboard.c  ****                 }
 112:.\keyboard.c  ****                 if(LCD1_rxBuffer[3]==0x0F){ //Atras
 484              		.loc 1 112 0
 485 02fe 8F4B     		ldr	r3, .L34+12
 486 0300 DB78     		ldrb	r3, [r3, #3]
 487 0302 DBB2     		uxtb	r3, r3
 488 0304 0F2B     		cmp	r3, #15
 489 0306 06D1     		bne	.L4
 113:.\keyboard.c  ****                     CyDelay(20);         
 490              		.loc 1 113 0
 491 0308 1420     		movs	r0, #20
 492 030a FFF7FEFF 		bl	CyDelay
 114:.\keyboard.c  ****                     LCD1_ClearRxBuffer();
 493              		.loc 1 114 0
 494 030e FFF7FEFF 		bl	LCD1_ClearRxBuffer
 115:.\keyboard.c  ****                     return 0;
 495              		.loc 1 115 0
 496 0312 0023     		movs	r3, #0
 497 0314 91E1     		b	.L15
 498              	.L4:
 116:.\keyboard.c  ****                 }
 117:.\keyboard.c  ****             } 
 118:.\keyboard.c  ****             CyDelay(20);         
 499              		.loc 1 118 0
 500 0316 1420     		movs	r0, #20
 501 0318 FFF7FEFF 		bl	CyDelay
 119:.\keyboard.c  ****             LCD1_ClearRxBuffer();
 502              		.loc 1 119 0
 503 031c FFF7FEFF 		bl	LCD1_ClearRxBuffer
 504 0320 8AE1     		b	.L18
ARM GAS  C:\Users\Lenovo\AppData\Local\Temp\ccorJ0uR.s 			page 12


 505              	.L2:
 120:.\keyboard.c  ****         }
 121:.\keyboard.c  ****     }else{
 122:.\keyboard.c  ****         if(LCD2_GetRxBufferSize()==8){
 506              		.loc 1 122 0
 507 0322 FFF7FEFF 		bl	LCD2_GetRxBufferSize
 508 0326 0346     		mov	r3, r0
 509 0328 082B     		cmp	r3, #8
 510 032a 40F08581 		bne	.L18
 123:.\keyboard.c  ****             if((LCD2_rxBuffer[0]==0xAA) && (LCD2_rxBuffer[6]==0xC3) && (LCD2_rxBuffer[7]==0x3C)){
 511              		.loc 1 123 0
 512 032e 844B     		ldr	r3, .L34+16
 513 0330 1B78     		ldrb	r3, [r3]
 514 0332 DBB2     		uxtb	r3, r3
 515 0334 AA2B     		cmp	r3, #170
 516 0336 40F07A81 		bne	.L19
 517              		.loc 1 123 0 is_stmt 0 discriminator 1
 518 033a 814B     		ldr	r3, .L34+16
 519 033c 9B79     		ldrb	r3, [r3, #6]
 520 033e DBB2     		uxtb	r3, r3
 521 0340 C32B     		cmp	r3, #195
 522 0342 40F07481 		bne	.L19
 523              		.loc 1 123 0 discriminator 2
 524 0346 7E4B     		ldr	r3, .L34+16
 525 0348 DB79     		ldrb	r3, [r3, #7]
 526 034a DBB2     		uxtb	r3, r3
 527 034c 3C2B     		cmp	r3, #60
 528 034e 40F06E81 		bne	.L19
 124:.\keyboard.c  ****                 countAnimation2=0;
 529              		.loc 1 124 0 is_stmt 1
 530 0352 7C49     		ldr	r1, .L34+20
 531 0354 4FF00002 		mov	r2, #0
 532 0358 4FF00003 		mov	r3, #0
 533 035c C1E90023 		strd	r2, [r1]
 125:.\keyboard.c  ****                 if(numberKeys2<=(maxNumberKeys-1)){
 534              		.loc 1 125 0
 535 0360 794B     		ldr	r3, .L34+24
 536 0362 1B78     		ldrb	r3, [r3]
 537 0364 DBB2     		uxtb	r3, r3
 538 0366 1A46     		mov	r2, r3
 539 0368 BB79     		ldrb	r3, [r7, #6]	@ zero_extendqisi2
 540 036a 013B     		subs	r3, r3, #1
 541 036c 9A42     		cmp	r2, r3
 542 036e 00F30481 		bgt	.L20
 126:.\keyboard.c  ****                     if(LCD2_rxBuffer[3]>=0x20 && LCD2_rxBuffer[3]<=0x2B){ //Comandos ascii sin incl
 543              		.loc 1 126 0
 544 0372 734B     		ldr	r3, .L34+16
 545 0374 DB78     		ldrb	r3, [r3, #3]
 546 0376 DBB2     		uxtb	r3, r3
 547 0378 1F2B     		cmp	r3, #31
 548 037a 48D9     		bls	.L21
 549              		.loc 1 126 0 is_stmt 0 discriminator 1
 550 037c 704B     		ldr	r3, .L34+16
 551 037e DB78     		ldrb	r3, [r3, #3]
 552 0380 DBB2     		uxtb	r3, r3
 553 0382 2B2B     		cmp	r3, #43
 554 0384 43D8     		bhi	.L21
ARM GAS  C:\Users\Lenovo\AppData\Local\Temp\ccorJ0uR.s 			page 13


 127:.\keyboard.c  ****                         numberKeys2++;  
 555              		.loc 1 127 0 is_stmt 1
 556 0386 704B     		ldr	r3, .L34+24
 557 0388 1B78     		ldrb	r3, [r3]
 558 038a DBB2     		uxtb	r3, r3
 559 038c 0133     		adds	r3, r3, #1
 560 038e DAB2     		uxtb	r2, r3
 561 0390 6D4B     		ldr	r3, .L34+24
 562 0392 1A70     		strb	r2, [r3]
 128:.\keyboard.c  ****                         bufferLCD2.valueKeys[numberKeys2]=LCD2_rxBuffer[3];
 563              		.loc 1 128 0
 564 0394 6C4B     		ldr	r3, .L34+24
 565 0396 1B78     		ldrb	r3, [r3]
 566 0398 DBB2     		uxtb	r3, r3
 567 039a 1946     		mov	r1, r3
 568 039c 684B     		ldr	r3, .L34+16
 569 039e DB78     		ldrb	r3, [r3, #3]
 570 03a0 DAB2     		uxtb	r2, r3
 571 03a2 6A4B     		ldr	r3, .L34+28
 572 03a4 0B44     		add	r3, r3, r1
 573 03a6 83F86420 		strb	r2, [r3, #100]
 129:.\keyboard.c  ****                         if(character==0){
 574              		.loc 1 129 0
 575 03aa 7B79     		ldrb	r3, [r7, #5]	@ zero_extendqisi2
 576 03ac 002B     		cmp	r3, #0
 577 03ae 1AD1     		bne	.L22
 130:.\keyboard.c  ****                             write_LCD(2,bufferLCD2.valueKeys[numberKeys2],2,numberKeys2+2,1,0x0000,
 578              		.loc 1 130 0
 579 03b0 654B     		ldr	r3, .L34+24
 580 03b2 1B78     		ldrb	r3, [r3]
 581 03b4 DBB2     		uxtb	r3, r3
 582 03b6 1A46     		mov	r2, r3
 583 03b8 644B     		ldr	r3, .L34+28
 584 03ba 1344     		add	r3, r3, r2
 585 03bc 93F86420 		ldrb	r2, [r3, #100]	@ zero_extendqisi2
 586 03c0 614B     		ldr	r3, .L34+24
 587 03c2 1B78     		ldrb	r3, [r3]
 588 03c4 DBB2     		uxtb	r3, r3
 589 03c6 9BB2     		uxth	r3, r3
 590 03c8 0233     		adds	r3, r3, #2
 591 03ca 9CB2     		uxth	r4, r3
 592 03cc 0123     		movs	r3, #1
 593 03ce 0093     		str	r3, [sp]
 594 03d0 0023     		movs	r3, #0
 595 03d2 0193     		str	r3, [sp, #4]
 596 03d4 4E23     		movs	r3, #78
 597 03d6 0293     		str	r3, [sp, #8]
 598 03d8 0220     		movs	r0, #2
 599 03da 1146     		mov	r1, r2
 600 03dc 0222     		movs	r2, #2
 601 03de 2346     		mov	r3, r4
 602 03e0 FFF7FEFF 		bl	write_LCD
 129:.\keyboard.c  ****                         if(character==0){
 603              		.loc 1 129 0
 604 03e4 C9E0     		b	.L20
 605              	.L22:
 131:.\keyboard.c  ****                         }else{
ARM GAS  C:\Users\Lenovo\AppData\Local\Temp\ccorJ0uR.s 			page 14


 132:.\keyboard.c  ****                             write_LCD(2,character,2,numberKeys2+2,1,0x0000,'N');
 606              		.loc 1 132 0
 607 03e6 584B     		ldr	r3, .L34+24
 608 03e8 1B78     		ldrb	r3, [r3]
 609 03ea DBB2     		uxtb	r3, r3
 610 03ec 9BB2     		uxth	r3, r3
 611 03ee 0233     		adds	r3, r3, #2
 612 03f0 9CB2     		uxth	r4, r3
 613 03f2 7A79     		ldrb	r2, [r7, #5]	@ zero_extendqisi2
 614 03f4 0123     		movs	r3, #1
 615 03f6 0093     		str	r3, [sp]
 616 03f8 0023     		movs	r3, #0
 617 03fa 0193     		str	r3, [sp, #4]
 618 03fc 4E23     		movs	r3, #78
 619 03fe 0293     		str	r3, [sp, #8]
 620 0400 0220     		movs	r0, #2
 621 0402 1146     		mov	r1, r2
 622 0404 0222     		movs	r2, #2
 623 0406 2346     		mov	r3, r4
 624 0408 FFF7FEFF 		bl	write_LCD
 129:.\keyboard.c  ****                             write_LCD(2,bufferLCD2.valueKeys[numberKeys2],2,numberKeys2+2,1,0x0000,
 625              		.loc 1 129 0
 626 040c B5E0     		b	.L20
 627              	.L21:
 133:.\keyboard.c  ****                         }
 134:.\keyboard.c  ****                     }else if(LCD2_rxBuffer[3]>=0x2D && LCD2_rxBuffer[3]<=0x7E){ //Comandos ascii si
 628              		.loc 1 134 0
 629 040e 4C4B     		ldr	r3, .L34+16
 630 0410 DB78     		ldrb	r3, [r3, #3]
 631 0412 DBB2     		uxtb	r3, r3
 632 0414 2C2B     		cmp	r3, #44
 633 0416 48D9     		bls	.L24
 634              		.loc 1 134 0 is_stmt 0 discriminator 1
 635 0418 494B     		ldr	r3, .L34+16
 636 041a DB78     		ldrb	r3, [r3, #3]
 637 041c DBB2     		uxtb	r3, r3
 638 041e 7E2B     		cmp	r3, #126
 639 0420 43D8     		bhi	.L24
 135:.\keyboard.c  ****                         numberKeys2++;  
 640              		.loc 1 135 0 is_stmt 1
 641 0422 494B     		ldr	r3, .L34+24
 642 0424 1B78     		ldrb	r3, [r3]
 643 0426 DBB2     		uxtb	r3, r3
 644 0428 0133     		adds	r3, r3, #1
 645 042a DAB2     		uxtb	r2, r3
 646 042c 464B     		ldr	r3, .L34+24
 647 042e 1A70     		strb	r2, [r3]
 136:.\keyboard.c  ****                         bufferLCD2.valueKeys[numberKeys2]=LCD2_rxBuffer[3];
 648              		.loc 1 136 0
 649 0430 454B     		ldr	r3, .L34+24
 650 0432 1B78     		ldrb	r3, [r3]
 651 0434 DBB2     		uxtb	r3, r3
 652 0436 1946     		mov	r1, r3
 653 0438 414B     		ldr	r3, .L34+16
 654 043a DB78     		ldrb	r3, [r3, #3]
 655 043c DAB2     		uxtb	r2, r3
 656 043e 434B     		ldr	r3, .L34+28
ARM GAS  C:\Users\Lenovo\AppData\Local\Temp\ccorJ0uR.s 			page 15


 657 0440 0B44     		add	r3, r3, r1
 658 0442 83F86420 		strb	r2, [r3, #100]
 137:.\keyboard.c  ****                         if(character==0){
 659              		.loc 1 137 0
 660 0446 7B79     		ldrb	r3, [r7, #5]	@ zero_extendqisi2
 661 0448 002B     		cmp	r3, #0
 662 044a 1AD1     		bne	.L25
 138:.\keyboard.c  ****                             write_LCD(2,bufferLCD2.valueKeys[numberKeys2],2,numberKeys2+2,1,0x0000,
 663              		.loc 1 138 0
 664 044c 3E4B     		ldr	r3, .L34+24
 665 044e 1B78     		ldrb	r3, [r3]
 666 0450 DBB2     		uxtb	r3, r3
 667 0452 1A46     		mov	r2, r3
 668 0454 3D4B     		ldr	r3, .L34+28
 669 0456 1344     		add	r3, r3, r2
 670 0458 93F86420 		ldrb	r2, [r3, #100]	@ zero_extendqisi2
 671 045c 3A4B     		ldr	r3, .L34+24
 672 045e 1B78     		ldrb	r3, [r3]
 673 0460 DBB2     		uxtb	r3, r3
 674 0462 9BB2     		uxth	r3, r3
 675 0464 0233     		adds	r3, r3, #2
 676 0466 9CB2     		uxth	r4, r3
 677 0468 0123     		movs	r3, #1
 678 046a 0093     		str	r3, [sp]
 679 046c 0023     		movs	r3, #0
 680 046e 0193     		str	r3, [sp, #4]
 681 0470 4E23     		movs	r3, #78
 682 0472 0293     		str	r3, [sp, #8]
 683 0474 0220     		movs	r0, #2
 684 0476 1146     		mov	r1, r2
 685 0478 0222     		movs	r2, #2
 686 047a 2346     		mov	r3, r4
 687 047c FFF7FEFF 		bl	write_LCD
 137:.\keyboard.c  ****                         if(character==0){
 688              		.loc 1 137 0
 689 0480 7BE0     		b	.L20
 690              	.L25:
 139:.\keyboard.c  ****                         }else{
 140:.\keyboard.c  ****                             write_LCD(2,character,2,numberKeys2+2,1,0x0000,'N');
 691              		.loc 1 140 0
 692 0482 314B     		ldr	r3, .L34+24
 693 0484 1B78     		ldrb	r3, [r3]
 694 0486 DBB2     		uxtb	r3, r3
 695 0488 9BB2     		uxth	r3, r3
 696 048a 0233     		adds	r3, r3, #2
 697 048c 9CB2     		uxth	r4, r3
 698 048e 7A79     		ldrb	r2, [r7, #5]	@ zero_extendqisi2
 699 0490 0123     		movs	r3, #1
 700 0492 0093     		str	r3, [sp]
 701 0494 0023     		movs	r3, #0
 702 0496 0193     		str	r3, [sp, #4]
 703 0498 4E23     		movs	r3, #78
 704 049a 0293     		str	r3, [sp, #8]
 705 049c 0220     		movs	r0, #2
 706 049e 1146     		mov	r1, r2
 707 04a0 0222     		movs	r2, #2
 708 04a2 2346     		mov	r3, r4
ARM GAS  C:\Users\Lenovo\AppData\Local\Temp\ccorJ0uR.s 			page 16


 709 04a4 FFF7FEFF 		bl	write_LCD
 137:.\keyboard.c  ****                             write_LCD(2,bufferLCD2.valueKeys[numberKeys2],2,numberKeys2+2,1,0x0000,
 710              		.loc 1 137 0
 711 04a8 67E0     		b	.L20
 712              	.L24:
 141:.\keyboard.c  ****                         }
 142:.\keyboard.c  ****                     }else if(LCD2_rxBuffer[3]==',' && numberKeys2>=1 && flagPoint2==0){  //Coma (,)
 713              		.loc 1 142 0
 714 04aa 254B     		ldr	r3, .L34+16
 715 04ac DB78     		ldrb	r3, [r3, #3]
 716 04ae DBB2     		uxtb	r3, r3
 717 04b0 2C2B     		cmp	r3, #44
 718 04b2 62D1     		bne	.L20
 719              		.loc 1 142 0 is_stmt 0 discriminator 1
 720 04b4 244B     		ldr	r3, .L34+24
 721 04b6 1B78     		ldrb	r3, [r3]
 722 04b8 DBB2     		uxtb	r3, r3
 723 04ba 002B     		cmp	r3, #0
 724 04bc 5DD0     		beq	.L20
 725              		.loc 1 142 0 discriminator 2
 726 04be 244B     		ldr	r3, .L34+32
 727 04c0 1B78     		ldrb	r3, [r3]
 728 04c2 DBB2     		uxtb	r3, r3
 729 04c4 002B     		cmp	r3, #0
 730 04c6 58D1     		bne	.L20
 143:.\keyboard.c  ****                         numberKeys2++;  
 731              		.loc 1 143 0 is_stmt 1
 732 04c8 1F4B     		ldr	r3, .L34+24
 733 04ca 1B78     		ldrb	r3, [r3]
 734 04cc DBB2     		uxtb	r3, r3
 735 04ce 0133     		adds	r3, r3, #1
 736 04d0 DAB2     		uxtb	r2, r3
 737 04d2 1D4B     		ldr	r3, .L34+24
 738 04d4 1A70     		strb	r2, [r3]
 144:.\keyboard.c  ****                         flagPoint2=1;
 739              		.loc 1 144 0
 740 04d6 1E4B     		ldr	r3, .L34+32
 741 04d8 0122     		movs	r2, #1
 742 04da 1A70     		strb	r2, [r3]
 145:.\keyboard.c  ****                         bufferLCD2.valueKeys[numberKeys2]=LCD2_rxBuffer[3];
 743              		.loc 1 145 0
 744 04dc 1A4B     		ldr	r3, .L34+24
 745 04de 1B78     		ldrb	r3, [r3]
 746 04e0 DBB2     		uxtb	r3, r3
 747 04e2 1946     		mov	r1, r3
 748 04e4 164B     		ldr	r3, .L34+16
 749 04e6 DB78     		ldrb	r3, [r3, #3]
 750 04e8 DAB2     		uxtb	r2, r3
 751 04ea 184B     		ldr	r3, .L34+28
 752 04ec 0B44     		add	r3, r3, r1
 753 04ee 83F86420 		strb	r2, [r3, #100]
 146:.\keyboard.c  ****                         if(character==0){
 754              		.loc 1 146 0
 755 04f2 7B79     		ldrb	r3, [r7, #5]	@ zero_extendqisi2
 756 04f4 002B     		cmp	r3, #0
 757 04f6 2DD1     		bne	.L27
 147:.\keyboard.c  ****                             write_LCD(2,bufferLCD2.valueKeys[numberKeys2],2,numberKeys2+2,1,0x0000,
ARM GAS  C:\Users\Lenovo\AppData\Local\Temp\ccorJ0uR.s 			page 17


 758              		.loc 1 147 0
 759 04f8 134B     		ldr	r3, .L34+24
 760 04fa 1B78     		ldrb	r3, [r3]
 761 04fc DBB2     		uxtb	r3, r3
 762 04fe 1A46     		mov	r2, r3
 763 0500 124B     		ldr	r3, .L34+28
 764 0502 1344     		add	r3, r3, r2
 765 0504 93F86420 		ldrb	r2, [r3, #100]	@ zero_extendqisi2
 766 0508 0F4B     		ldr	r3, .L34+24
 767 050a 1B78     		ldrb	r3, [r3]
 768 050c DBB2     		uxtb	r3, r3
 769 050e 9BB2     		uxth	r3, r3
 770 0510 0233     		adds	r3, r3, #2
 771 0512 9CB2     		uxth	r4, r3
 772 0514 0123     		movs	r3, #1
 773 0516 0093     		str	r3, [sp]
 774 0518 0023     		movs	r3, #0
 775 051a 0193     		str	r3, [sp, #4]
 776 051c 4E23     		movs	r3, #78
 777 051e 0293     		str	r3, [sp, #8]
 778 0520 0220     		movs	r0, #2
 779 0522 1146     		mov	r1, r2
 780 0524 0222     		movs	r2, #2
 781 0526 2346     		mov	r3, r4
 782 0528 FFF7FEFF 		bl	write_LCD
 783 052c 25E0     		b	.L20
 784              	.L35:
 785 052e 00BF     		.align	2
 786              	.L34:
 787 0530 00000000 		.word	numberKeys1
 788 0534 00000000 		.word	bufferLCD1
 789 0538 00000000 		.word	flagPoint1
 790 053c 00000000 		.word	LCD1_rxBuffer
 791 0540 00000000 		.word	LCD2_rxBuffer
 792 0544 00000000 		.word	countAnimation2
 793 0548 00000000 		.word	numberKeys2
 794 054c 00000000 		.word	bufferLCD2
 795 0550 00000000 		.word	flagPoint2
 796              	.L27:
 148:.\keyboard.c  ****                         }else{
 149:.\keyboard.c  ****                             write_LCD(2,character,2,numberKeys2+2,1,0x0000,'N');
 797              		.loc 1 149 0
 798 0554 3B4B     		ldr	r3, .L36
 799 0556 1B78     		ldrb	r3, [r3]
 800 0558 DBB2     		uxtb	r3, r3
 801 055a 9BB2     		uxth	r3, r3
 802 055c 0233     		adds	r3, r3, #2
 803 055e 9CB2     		uxth	r4, r3
 804 0560 7A79     		ldrb	r2, [r7, #5]	@ zero_extendqisi2
 805 0562 0123     		movs	r3, #1
 806 0564 0093     		str	r3, [sp]
 807 0566 0023     		movs	r3, #0
 808 0568 0193     		str	r3, [sp, #4]
 809 056a 4E23     		movs	r3, #78
 810 056c 0293     		str	r3, [sp, #8]
 811 056e 0220     		movs	r0, #2
 812 0570 1146     		mov	r1, r2
ARM GAS  C:\Users\Lenovo\AppData\Local\Temp\ccorJ0uR.s 			page 18


 813 0572 0222     		movs	r2, #2
 814 0574 2346     		mov	r3, r4
 815 0576 FFF7FEFF 		bl	write_LCD
 816              	.L20:
 150:.\keyboard.c  ****                         }
 151:.\keyboard.c  ****                     }
 152:.\keyboard.c  ****                 }
 153:.\keyboard.c  ****                 if(LCD2_rxBuffer[3]==0x0B){ //Borrar
 817              		.loc 1 153 0
 818 057a 334B     		ldr	r3, .L36+4
 819 057c DB78     		ldrb	r3, [r3, #3]
 820 057e DBB2     		uxtb	r3, r3
 821 0580 0B2B     		cmp	r3, #11
 822 0582 31D1     		bne	.L28
 154:.\keyboard.c  ****                     if(numberKeys2==0){		//Si no ha presionado nada regresa al menu anterior
 823              		.loc 1 154 0
 824 0584 2F4B     		ldr	r3, .L36
 825 0586 1B78     		ldrb	r3, [r3]
 826 0588 DBB2     		uxtb	r3, r3
 827 058a 002B     		cmp	r3, #0
 828 058c 06D1     		bne	.L29
 155:.\keyboard.c  ****                         CyDelay(20);         
 829              		.loc 1 155 0
 830 058e 1420     		movs	r0, #20
 831 0590 FFF7FEFF 		bl	CyDelay
 156:.\keyboard.c  ****                         LCD2_ClearRxBuffer();
 832              		.loc 1 156 0
 833 0594 FFF7FEFF 		bl	LCD2_ClearRxBuffer
 157:.\keyboard.c  ****                         return 0;
 834              		.loc 1 157 0
 835 0598 0023     		movs	r3, #0
 836 059a 4EE0     		b	.L15
 837              	.L29:
 158:.\keyboard.c  ****                     }
 159:.\keyboard.c  ****                     else{
 160:.\keyboard.c  ****                         write_LCD(2,' ',2,numberKeys2+2,1,0x0000,'N');	//Si ya presiono borra el da
 838              		.loc 1 160 0
 839 059c 294B     		ldr	r3, .L36
 840 059e 1B78     		ldrb	r3, [r3]
 841 05a0 DBB2     		uxtb	r3, r3
 842 05a2 9BB2     		uxth	r3, r3
 843 05a4 0233     		adds	r3, r3, #2
 844 05a6 9CB2     		uxth	r4, r3
 845 05a8 0123     		movs	r3, #1
 846 05aa 0093     		str	r3, [sp]
 847 05ac 0023     		movs	r3, #0
 848 05ae 0193     		str	r3, [sp, #4]
 849 05b0 4E23     		movs	r3, #78
 850 05b2 0293     		str	r3, [sp, #8]
 851 05b4 0220     		movs	r0, #2
 852 05b6 2021     		movs	r1, #32
 853 05b8 0222     		movs	r2, #2
 854 05ba 2346     		mov	r3, r4
 855 05bc FFF7FEFF 		bl	write_LCD
 161:.\keyboard.c  ****                         if(bufferLCD2.valueKeys[numberKeys2]==0x2C){
 856              		.loc 1 161 0
 857 05c0 204B     		ldr	r3, .L36
ARM GAS  C:\Users\Lenovo\AppData\Local\Temp\ccorJ0uR.s 			page 19


 858 05c2 1B78     		ldrb	r3, [r3]
 859 05c4 DBB2     		uxtb	r3, r3
 860 05c6 1A46     		mov	r2, r3
 861 05c8 204B     		ldr	r3, .L36+8
 862 05ca 1344     		add	r3, r3, r2
 863 05cc 93F86430 		ldrb	r3, [r3, #100]	@ zero_extendqisi2
 864 05d0 2C2B     		cmp	r3, #44
 865 05d2 02D1     		bne	.L30
 162:.\keyboard.c  ****                             flagPoint2=0;
 866              		.loc 1 162 0
 867 05d4 1E4B     		ldr	r3, .L36+12
 868 05d6 0022     		movs	r2, #0
 869 05d8 1A70     		strb	r2, [r3]
 870              	.L30:
 163:.\keyboard.c  ****                         }
 164:.\keyboard.c  ****                         numberKeys2--;
 871              		.loc 1 164 0
 872 05da 1A4B     		ldr	r3, .L36
 873 05dc 1B78     		ldrb	r3, [r3]
 874 05de DBB2     		uxtb	r3, r3
 875 05e0 013B     		subs	r3, r3, #1
 876 05e2 DAB2     		uxtb	r2, r3
 877 05e4 174B     		ldr	r3, .L36
 878 05e6 1A70     		strb	r2, [r3]
 879              	.L28:
 165:.\keyboard.c  ****                     }
 166:.\keyboard.c  ****                 }
 167:.\keyboard.c  ****                 if(LCD2_rxBuffer[3]==0x0A){ //Enter
 880              		.loc 1 167 0
 881 05e8 174B     		ldr	r3, .L36+4
 882 05ea DB78     		ldrb	r3, [r3, #3]
 883 05ec DBB2     		uxtb	r3, r3
 884 05ee 0A2B     		cmp	r3, #10
 885 05f0 11D1     		bne	.L31
 168:.\keyboard.c  ****                     if(numberKeys2>0){
 886              		.loc 1 168 0
 887 05f2 144B     		ldr	r3, .L36
 888 05f4 1B78     		ldrb	r3, [r3]
 889 05f6 DBB2     		uxtb	r3, r3
 890 05f8 002B     		cmp	r3, #0
 891 05fa 0CD0     		beq	.L31
 169:.\keyboard.c  ****                         bufferLCD2.valueKeys[0]=numberKeys2;
 892              		.loc 1 169 0
 893 05fc 114B     		ldr	r3, .L36
 894 05fe 1B78     		ldrb	r3, [r3]
 895 0600 DAB2     		uxtb	r2, r3
 896 0602 124B     		ldr	r3, .L36+8
 897 0604 83F86420 		strb	r2, [r3, #100]
 170:.\keyboard.c  ****                         CyDelay(20);         
 898              		.loc 1 170 0
 899 0608 1420     		movs	r0, #20
 900 060a FFF7FEFF 		bl	CyDelay
 171:.\keyboard.c  ****                         LCD2_ClearRxBuffer();
 901              		.loc 1 171 0
 902 060e FFF7FEFF 		bl	LCD2_ClearRxBuffer
 172:.\keyboard.c  ****                         return 1;
 903              		.loc 1 172 0
ARM GAS  C:\Users\Lenovo\AppData\Local\Temp\ccorJ0uR.s 			page 20


 904 0612 0123     		movs	r3, #1
 905 0614 11E0     		b	.L15
 906              	.L31:
 173:.\keyboard.c  ****                     }
 174:.\keyboard.c  ****                 }
 175:.\keyboard.c  ****                 if(LCD2_rxBuffer[3]==0x0F){ //Atras
 907              		.loc 1 175 0
 908 0616 0C4B     		ldr	r3, .L36+4
 909 0618 DB78     		ldrb	r3, [r3, #3]
 910 061a DBB2     		uxtb	r3, r3
 911 061c 0F2B     		cmp	r3, #15
 912 061e 06D1     		bne	.L19
 176:.\keyboard.c  ****                     CyDelay(20);         
 913              		.loc 1 176 0
 914 0620 1420     		movs	r0, #20
 915 0622 FFF7FEFF 		bl	CyDelay
 177:.\keyboard.c  ****                     LCD2_ClearRxBuffer();
 916              		.loc 1 177 0
 917 0626 FFF7FEFF 		bl	LCD2_ClearRxBuffer
 178:.\keyboard.c  ****                     return 0;
 918              		.loc 1 178 0
 919 062a 0023     		movs	r3, #0
 920 062c 05E0     		b	.L15
 921              	.L19:
 179:.\keyboard.c  ****                 }
 180:.\keyboard.c  ****             } 
 181:.\keyboard.c  ****             CyDelay(20);         
 922              		.loc 1 181 0
 923 062e 1420     		movs	r0, #20
 924 0630 FFF7FEFF 		bl	CyDelay
 182:.\keyboard.c  ****             LCD2_ClearRxBuffer();
 925              		.loc 1 182 0
 926 0634 FFF7FEFF 		bl	LCD2_ClearRxBuffer
 927              	.L18:
 183:.\keyboard.c  ****         }
 184:.\keyboard.c  ****     }
 185:.\keyboard.c  ****     return 2;
 928              		.loc 1 185 0
 929 0638 0223     		movs	r3, #2
 930              	.L15:
 186:.\keyboard.c  **** }...
 931              		.loc 1 186 0
 932 063a 1846     		mov	r0, r3
 933 063c 0C37     		adds	r7, r7, #12
 934              		.cfi_def_cfa_offset 12
 935 063e BD46     		mov	sp, r7
 936              		.cfi_def_cfa_register 13
 937              		@ sp needed
 938 0640 90BD     		pop	{r4, r7, pc}
 939              	.L37:
 940 0642 00BF     		.align	2
 941              	.L36:
 942 0644 00000000 		.word	numberKeys2
 943 0648 00000000 		.word	LCD2_rxBuffer
 944 064c 00000000 		.word	bufferLCD2
 945 0650 00000000 		.word	flagPoint2
 946              		.cfi_endproc
ARM GAS  C:\Users\Lenovo\AppData\Local\Temp\ccorJ0uR.s 			page 21


 947              	.LFE56:
 948              		.size	alphanumeric_keyboard, .-alphanumeric_keyboard
 949              		.text
 950              	.Letext0:
 951              		.file 2 "c:\\program files (x86)\\cypress\\psoc creator\\3.3\\psoc creator\\import\\gnu\\arm\\4.9.
 952              		.file 3 "c:\\program files (x86)\\cypress\\psoc creator\\3.3\\psoc creator\\import\\gnu\\arm\\4.9.
 953              		.file 4 "Generated_Source\\PSoC5/cytypes.h"
 954              		.file 5 ".\\variables.h"
 955              		.file 6 "Generated_Source\\PSoC5/LCD1.h"
 956              		.file 7 "Generated_Source\\PSoC5/LCD2.h"
 957              		.file 8 "Generated_Source\\PSoC5/core_cm3.h"