ARM GAS  C:\Users\Lenovo\AppData\Local\Temp\ccorJ0uR.s 			page 1


   1              		.syntax unified
   2              		.cpu cortex-m3
   3              		.fpu softvfp
   4              		.eabi_attribute 20, 1
   5              		.eabi_attribute 21, 1
   6              		.eabi_attribute 23, 3
   7              		.eabi_attribute 24, 1
   8              		.eabi_attribute 25, 1
   9              		.eabi_attribute 26, 1
  10              		.eabi_attribute 30, 6
  11              		.eabi_attribute 34, 1
  12              		.eabi_attribute 18, 4
  13              		.thumb
  14              		.file	"keyboard.c"
  15              		.text
  16              	.Ltext0:
  17              		.cfi_sections	.debug_frame
  18              		.comm	countAnimation1,8,8
  19              		.comm	countAnimation2,8,8
  20              		.comm	countBeagleTX,8,8
  21              		.comm	countPump,8,8
  22              		.comm	flowLCD1,4,4
  23              		.comm	flowLCD2,4,4
  24              		.comm	digits,1,1
  25              		.comm	ipAdress,12,4
  26              		.comm	numberKeys1,1,1
  27              		.comm	numberKeys2,1,1
  28              		.comm	flagPoint1,1,1
  29              		.comm	flagPoint2,1,1
  30              		.comm	button,960,4
  31              		.comm	productNumber,1,1
  32              		.comm	presetFast,30,4
  33              		.comm	delayPicture1,4,4
  34              		.comm	delayPicture2,4,4
  35              		.comm	ppux10,1,1
  36              		.comm	decimalMoney,1,1
  37              		.comm	decimalVolume,1,1
  38              		.comm	symbols,2,4
  39              		.comm	time,3,4
  40              		.comm	date,3,4
  41              		.comm	screen,2,4
  42              		.comm	residue,14,4
  43              		.comm	temporal,30,4
  44              		.comm	temporalCom,30,4
  45              		.comm	turn,1,1
  46              		.comm	lockTurn,1,1
  47              		.comm	idSeller,25,4
  48              		.comm	typeIdSeller,1,1
  49              		.comm	passwordSeller,8,4
  50              		.comm	flagResetMux,1,1
  51              		.comm	stateBeagleSoft,1,1
  52              		.comm	bufferLCD1,661,4
  53              		.comm	bufferLCD2,661,4
  54              		.comm	side,512,4
  55              		.section	.text.alphanumeric_keyboard,"ax",%progbits
  56              		.align	2
  57              		.global	alphanumeric_keyboard
ARM GAS  C:\Users\Lenovo\AppData\Local\Temp\ccorJ0uR.s 			page 2


  58              		.thumb
  59              		.thumb_func
  60              		.type	alphanumeric_keyboard, %function
  61              	alphanumeric_keyboard:
  62              	.LFB56:
  63              		.file 1 ".\\keyboard.c"
   1:.\keyboard.c  **** /*
   2:.\keyboard.c  **** ***************************************************************************************************
   3:.\keyboard.c  **** *                                         MUX ADVANCE CODE
   4:.\keyboard.c  **** *
   5:.\keyboard.c  **** *                             (c) Copyright 2016; Sistemas Insepet LTDA
   6:.\keyboard.c  **** *
   7:.\keyboard.c  **** *               All rights reserved.  Protected by international copyright laws.
   8:.\keyboard.c  **** *               Knowledge of the source code may NOT be used to develop a similar product.
   9:.\keyboard.c  **** *               Please help us continue to provide the Embedded community with the finest
  10:.\keyboard.c  **** *               software available.  Your honesty is greatly appreciated.
  11:.\keyboard.c  **** ***************************************************************************************************
  12:.\keyboard.c  **** */
  13:.\keyboard.c  **** 
  14:.\keyboard.c  **** /*
  15:.\keyboard.c  **** ***************************************************************************************************
  16:.\keyboard.c  **** *
  17:.\keyboard.c  **** *                                            MUX ADVANCE CODE
  18:.\keyboard.c  **** *
  19:.\keyboard.c  **** *                                             CYPRESS PSoC5LP
  20:.\keyboard.c  **** *                                                with the
  21:.\keyboard.c  **** *                                            CY8C5969AXI-LP035
  22:.\keyboard.c  **** *
  23:.\keyboard.c  **** * Filename      : keyboard.c
  24:.\keyboard.c  **** * Version       : V1.00
  25:.\keyboard.c  **** * Programmer(s) : 
  26:.\keyboard.c  ****                   
  27:.\keyboard.c  **** ***************************************************************************************************
  28:.\keyboard.c  **** */
  29:.\keyboard.c  **** 
  30:.\keyboard.c  **** /*
  31:.\keyboard.c  **** ***************************************************************************************************
  32:.\keyboard.c  **** *                                             INCLUDE FILES
  33:.\keyboard.c  **** ***************************************************************************************************
  34:.\keyboard.c  **** */
  35:.\keyboard.c  **** 
  36:.\keyboard.c  **** #include <device.h>
  37:.\keyboard.c  **** #include "variables.h"
  38:.\keyboard.c  **** #include "LCD.h"
  39:.\keyboard.c  **** 
  40:.\keyboard.c  **** /*
  41:.\keyboard.c  **** ***************************************************************************************************
  42:.\keyboard.c  **** *               uint8 alphanumeric_keyboard(uint8 lcd, uint8 maxNumberKeys, uint8 character)
  43:.\keyboard.c  **** *
  44:.\keyboard.c  **** * Description : 
  45:.\keyboard.c  **** *               
  46:.\keyboard.c  **** *
  47:.\keyboard.c  **** * Argument(s) : none
  48:.\keyboard.c  **** *
  49:.\keyboard.c  **** * Return(s)   : none
  50:.\keyboard.c  **** *
  51:.\keyboard.c  **** * Caller(s)   :  
ARM GAS  C:\Users\Lenovo\AppData\Local\Temp\ccorJ0uR.s 			page 3


  52:.\keyboard.c  **** *
  53:.\keyboard.c  **** * Note(s)     : none.
  54:.\keyboard.c  **** ***************************************************************************************************
  55:.\keyboard.c  **** */
  56:.\keyboard.c  **** 
  57:.\keyboard.c  **** uint8 alphanumeric_keyboard(uint8 lcd, uint8 maxNumberKeys, uint8 character){
  64              		.loc 1 57 0
  65              		.cfi_startproc
  66              		@ args = 0, pretend = 0, frame = 8
  67              		@ frame_needed = 1, uses_anonymous_args = 0
  68 0000 90B5     		push	{r4, r7, lr}
  69              		.cfi_def_cfa_offset 12
  70              		.cfi_offset 4, -12
  71              		.cfi_offset 7, -8
  72              		.cfi_offset 14, -4
  73 0002 87B0     		sub	sp, sp, #28
  74              		.cfi_def_cfa_offset 40
  75 0004 04AF     		add	r7, sp, #16
  76              		.cfi_def_cfa 7, 24
  77 0006 0346     		mov	r3, r0
  78 0008 FB71     		strb	r3, [r7, #7]
  79 000a 0B46     		mov	r3, r1
  80 000c BB71     		strb	r3, [r7, #6]
  81 000e 1346     		mov	r3, r2
  82 0010 7B71     		strb	r3, [r7, #5]
  58:.\keyboard.c  ****     if(lcd==1){
  83              		.loc 1 58 0
  84 0012 FB79     		ldrb	r3, [r7, #7]	@ zero_extendqisi2
  85 0014 012B     		cmp	r3, #1
  86 0016 40F08481 		bne	.L2
  59:.\keyboard.c  ****         if(LCD1_GetRxBufferSize()==8){
  87              		.loc 1 59 0
  88 001a FFF7FEFF 		bl	LCD1_GetRxBufferSize
  89 001e 0346     		mov	r3, r0
  90 0020 082B     		cmp	r3, #8
  91 0022 40F00983 		bne	.L18
  60:.\keyboard.c  ****             if((LCD1_rxBuffer[0]==0xAA) && (LCD1_rxBuffer[6]==0xC3) && (LCD1_rxBuffer[7]==0x3C)){
  92              		.loc 1 60 0
  93 0026 924B     		ldr	r3, .L32
  94 0028 1B78     		ldrb	r3, [r3]
  95 002a DBB2     		uxtb	r3, r3
  96 002c AA2B     		cmp	r3, #170
  97 002e 40F07281 		bne	.L4
  98              		.loc 1 60 0 is_stmt 0 discriminator 1
  99 0032 8F4B     		ldr	r3, .L32
 100 0034 9B79     		ldrb	r3, [r3, #6]
 101 0036 DBB2     		uxtb	r3, r3
 102 0038 C32B     		cmp	r3, #195
 103 003a 40F06C81 		bne	.L4
 104              		.loc 1 60 0 discriminator 2
 105 003e 8C4B     		ldr	r3, .L32
 106 0040 DB79     		ldrb	r3, [r3, #7]
 107 0042 DBB2     		uxtb	r3, r3
 108 0044 3C2B     		cmp	r3, #60
 109 0046 40F06681 		bne	.L4
  61:.\keyboard.c  ****                 countAnimation1=0;
 110              		.loc 1 61 0 is_stmt 1
ARM GAS  C:\Users\Lenovo\AppData\Local\Temp\ccorJ0uR.s 			page 4


 111 004a 8A49     		ldr	r1, .L32+4
 112 004c 4FF00002 		mov	r2, #0
 113 0050 4FF00003 		mov	r3, #0
 114 0054 C1E90023 		strd	r2, [r1]
  62:.\keyboard.c  ****                 if(numberKeys1<=(maxNumberKeys-1)){
 115              		.loc 1 62 0
 116 0058 874B     		ldr	r3, .L32+8
 117 005a 1B78     		ldrb	r3, [r3]
 118 005c DBB2     		uxtb	r3, r3
 119 005e 1A46     		mov	r2, r3
 120 0060 BB79     		ldrb	r3, [r7, #6]	@ zero_extendqisi2
 121 0062 013B     		subs	r3, r3, #1
 122 0064 9A42     		cmp	r2, r3
 123 0066 00F3F180 		bgt	.L5
  63:.\keyboard.c  ****                     if(LCD1_rxBuffer[3]>=0x20 && LCD1_rxBuffer[3]<=0x2B){ //Comandos ascii sin incl
 124              		.loc 1 63 0
 125 006a 814B     		ldr	r3, .L32
 126 006c DB78     		ldrb	r3, [r3, #3]
 127 006e DBB2     		uxtb	r3, r3
 128 0070 1F2B     		cmp	r3, #31
 129 0072 48D9     		bls	.L6
 130              		.loc 1 63 0 is_stmt 0 discriminator 1
 131 0074 7E4B     		ldr	r3, .L32
 132 0076 DB78     		ldrb	r3, [r3, #3]
 133 0078 DBB2     		uxtb	r3, r3
 134 007a 2B2B     		cmp	r3, #43
 135 007c 43D8     		bhi	.L6
  64:.\keyboard.c  ****                         numberKeys1++;  
 136              		.loc 1 64 0 is_stmt 1
 137 007e 7E4B     		ldr	r3, .L32+8
 138 0080 1B78     		ldrb	r3, [r3]
 139 0082 DBB2     		uxtb	r3, r3
 140 0084 0133     		adds	r3, r3, #1
 141 0086 DAB2     		uxtb	r2, r3
 142 0088 7B4B     		ldr	r3, .L32+8
 143 008a 1A70     		strb	r2, [r3]
  65:.\keyboard.c  ****                         bufferLCD1.valueKeys[numberKeys1]=LCD1_rxBuffer[3];
 144              		.loc 1 65 0
 145 008c 7A4B     		ldr	r3, .L32+8
 146 008e 1B78     		ldrb	r3, [r3]
 147 0090 DBB2     		uxtb	r3, r3
 148 0092 1946     		mov	r1, r3
 149 0094 764B     		ldr	r3, .L32
 150 0096 DB78     		ldrb	r3, [r3, #3]
 151 0098 DAB2     		uxtb	r2, r3
 152 009a 784B     		ldr	r3, .L32+12
 153 009c 0B44     		add	r3, r3, r1
 154 009e 83F86420 		strb	r2, [r3, #100]
  66:.\keyboard.c  ****                         if(character==0){
 155              		.loc 1 66 0
 156 00a2 7B79     		ldrb	r3, [r7, #5]	@ zero_extendqisi2
 157 00a4 002B     		cmp	r3, #0
 158 00a6 1AD1     		bne	.L7
  67:.\keyboard.c  ****                             write_LCD(1,bufferLCD1.valueKeys[numberKeys1],2,numberKeys1+2,1,0x0000,
 159              		.loc 1 67 0
 160 00a8 734B     		ldr	r3, .L32+8
 161 00aa 1B78     		ldrb	r3, [r3]
ARM GAS  C:\Users\Lenovo\AppData\Local\Temp\ccorJ0uR.s 			page 5


 162 00ac DBB2     		uxtb	r3, r3
 163 00ae 1A46     		mov	r2, r3
 164 00b0 724B     		ldr	r3, .L32+12
 165 00b2 1344     		add	r3, r3, r2
 166 00b4 93F86420 		ldrb	r2, [r3, #100]	@ zero_extendqisi2
 167 00b8 6F4B     		ldr	r3, .L32+8
 168 00ba 1B78     		ldrb	r3, [r3]
 169 00bc DBB2     		uxtb	r3, r3
 170 00be 9BB2     		uxth	r3, r3
 171 00c0 0233     		adds	r3, r3, #2
 172 00c2 9CB2     		uxth	r4, r3
 173 00c4 0123     		movs	r3, #1
 174 00c6 0093     		str	r3, [sp]
 175 00c8 0023     		movs	r3, #0
 176 00ca 0193     		str	r3, [sp, #4]
 177 00cc 4E23     		movs	r3, #78
 178 00ce 0293     		str	r3, [sp, #8]
 179 00d0 0120     		movs	r0, #1
 180 00d2 1146     		mov	r1, r2
 181 00d4 0222     		movs	r2, #2
 182 00d6 2346     		mov	r3, r4
 183 00d8 FFF7FEFF 		bl	write_LCD
  66:.\keyboard.c  ****                         if(character==0){
 184              		.loc 1 66 0
 185 00dc B6E0     		b	.L5
 186              	.L7:
  68:.\keyboard.c  ****                         }else{
  69:.\keyboard.c  ****                             write_LCD(1,character,2,numberKeys1+2,1,0x0000,'N');
 187              		.loc 1 69 0
 188 00de 664B     		ldr	r3, .L32+8
 189 00e0 1B78     		ldrb	r3, [r3]
 190 00e2 DBB2     		uxtb	r3, r3
 191 00e4 9BB2     		uxth	r3, r3
 192 00e6 0233     		adds	r3, r3, #2
 193 00e8 9CB2     		uxth	r4, r3
 194 00ea 7A79     		ldrb	r2, [r7, #5]	@ zero_extendqisi2
 195 00ec 0123     		movs	r3, #1
 196 00ee 0093     		str	r3, [sp]
 197 00f0 0023     		movs	r3, #0
 198 00f2 0193     		str	r3, [sp, #4]
 199 00f4 4E23     		movs	r3, #78
 200 00f6 0293     		str	r3, [sp, #8]
 201 00f8 0120     		movs	r0, #1
 202 00fa 1146     		mov	r1, r2
 203 00fc 0222     		movs	r2, #2
 204 00fe 2346     		mov	r3, r4
 205 0100 FFF7FEFF 		bl	write_LCD
  66:.\keyboard.c  ****                             write_LCD(1,bufferLCD1.valueKeys[numberKeys1],2,numberKeys1+2,1,0x0000,
 206              		.loc 1 66 0
 207 0104 A2E0     		b	.L5
 208              	.L6:
  70:.\keyboard.c  ****                         }
  71:.\keyboard.c  ****                     }else if(LCD1_rxBuffer[3]>=0x2D && LCD1_rxBuffer[3]<=0x7E){ //Comandos ascii si
 209              		.loc 1 71 0
 210 0106 5A4B     		ldr	r3, .L32
 211 0108 DB78     		ldrb	r3, [r3, #3]
 212 010a DBB2     		uxtb	r3, r3
ARM GAS  C:\Users\Lenovo\AppData\Local\Temp\ccorJ0uR.s 			page 6


 213 010c 2C2B     		cmp	r3, #44
 214 010e 48D9     		bls	.L9
 215              		.loc 1 71 0 is_stmt 0 discriminator 1
 216 0110 574B     		ldr	r3, .L32
 217 0112 DB78     		ldrb	r3, [r3, #3]
 218 0114 DBB2     		uxtb	r3, r3
 219 0116 7E2B     		cmp	r3, #126
 220 0118 43D8     		bhi	.L9
  72:.\keyboard.c  ****                         numberKeys1++;  
 221              		.loc 1 72 0 is_stmt 1
 222 011a 574B     		ldr	r3, .L32+8
 223 011c 1B78     		ldrb	r3, [r3]
 224 011e DBB2     		uxtb	r3, r3
 225 0120 0133     		adds	r3, r3, #1
 226 0122 DAB2     		uxtb	r2, r3
 227 0124 544B     		ldr	r3, .L32+8
 228 0126 1A70     		strb	r2, [r3]
  73:.\keyboard.c  ****                         bufferLCD1.valueKeys[numberKeys1]=LCD1_rxBuffer[3];
 229              		.loc 1 73 0
 230 0128 534B     		ldr	r3, .L32+8
 231 012a 1B78     		ldrb	r3, [r3]
 232 012c DBB2     		uxtb	r3, r3
 233 012e 1946     		mov	r1, r3
 234 0130 4F4B     		ldr	r3, .L32
 235 0132 DB78     		ldrb	r3, [r3, #3]
 236 0134 DAB2     		uxtb	r2, r3
 237 0136 514B     		ldr	r3, .L32+12
 238 0138 0B44     		add	r3, r3, r1
 239 013a 83F86420 		strb	r2, [r3, #100]
  74:.\keyboard.c  ****                         if(character==0){
 240              		.loc 1 74 0
 241 013e 7B79     		ldrb	r3, [r7, #5]	@ zero_extendqisi2
 242 0140 002B     		cmp	r3, #0
 243 0142 1AD1     		bne	.L10
  75:.\keyboard.c  ****                             write_LCD(1,bufferLCD1.valueKeys[numberKeys1],2,numberKeys1+2,1,0x0000,
 244              		.loc 1 75 0
 245 0144 4C4B     		ldr	r3, .L32+8
 246 0146 1B78     		ldrb	r3, [r3]
 247 0148 DBB2     		uxtb	r3, r3
 248 014a 1A46     		mov	r2, r3
 249 014c 4B4B     		ldr	r3, .L32+12
 250 014e 1344     		add	r3, r3, r2
 251 0150 93F86420 		ldrb	r2, [r3, #100]	@ zero_extendqisi2
 252 0154 484B     		ldr	r3, .L32+8
 253 0156 1B78     		ldrb	r3, [r3]
 254 0158 DBB2     		uxtb	r3, r3
 255 015a 9BB2     		uxth	r3, r3
 256 015c 0233     		adds	r3, r3, #2
 257 015e 9CB2     		uxth	r4, r3
 258 0160 0123     		movs	r3, #1
 259 0162 0093     		str	r3, [sp]
 260 0164 0023     		movs	r3, #0
 261 0166 0193     		str	r3, [sp, #4]
 262 0168 4E23     		movs	r3, #78
 263 016a 0293     		str	r3, [sp, #8]
 264 016c 0120     		movs	r0, #1
 265 016e 1146     		mov	r1, r2
ARM GAS  C:\Users\Lenovo\AppData\Local\Temp\ccorJ0uR.s 			page 7


 266 0170 0222     		movs	r2, #2
 267 0172 2346     		mov	r3, r4
 268 0174 FFF7FEFF 		bl	write_LCD
  74:.\keyboard.c  ****                         if(character==0){
 269              		.loc 1 74 0
 270 0178 68E0     		b	.L5
 271              	.L10:
  76:.\keyboard.c  ****                         }else{
  77:.\keyboard.c  ****                             write_LCD(1,character,2,numberKeys1+2,1,0x0000,'N');
 272              		.loc 1 77 0
 273 017a 3F4B     		ldr	r3, .L32+8
 274 017c 1B78     		ldrb	r3, [r3]
 275 017e DBB2     		uxtb	r3, r3
 276 0180 9BB2     		uxth	r3, r3
 277 0182 0233     		adds	r3, r3, #2
 278 0184 9CB2     		uxth	r4, r3
 279 0186 7A79     		ldrb	r2, [r7, #5]	@ zero_extendqisi2
 280 0188 0123     		movs	r3, #1
 281 018a 0093     		str	r3, [sp]
 282 018c 0023     		movs	r3, #0
 283 018e 0193     		str	r3, [sp, #4]
 284 0190 4E23     		movs	r3, #78
 285 0192 0293     		str	r3, [sp, #8]
 286 0194 0120     		movs	r0, #1
 287 0196 1146     		mov	r1, r2
 288 0198 0222     		movs	r2, #2
 289 019a 2346     		mov	r3, r4
 290 019c FFF7FEFF 		bl	write_LCD
  74:.\keyboard.c  ****                             write_LCD(1,bufferLCD1.valueKeys[numberKeys1],2,numberKeys1+2,1,0x0000,
 291              		.loc 1 74 0
 292 01a0 54E0     		b	.L5
 293              	.L9:
  78:.\keyboard.c  ****                         }
  79:.\keyboard.c  ****                     }else if(LCD1_rxBuffer[3]==',' && numberKeys1>=1 && flagPoint1==0){  //Coma (,)
 294              		.loc 1 79 0
 295 01a2 334B     		ldr	r3, .L32
 296 01a4 DB78     		ldrb	r3, [r3, #3]
 297 01a6 DBB2     		uxtb	r3, r3
 298 01a8 2C2B     		cmp	r3, #44
 299 01aa 4FD1     		bne	.L5
 300              		.loc 1 79 0 is_stmt 0 discriminator 1
 301 01ac 324B     		ldr	r3, .L32+8
 302 01ae 1B78     		ldrb	r3, [r3]
 303 01b0 DBB2     		uxtb	r3, r3
 304 01b2 002B     		cmp	r3, #0
 305 01b4 4AD0     		beq	.L5
 306              		.loc 1 79 0 discriminator 2
 307 01b6 324B     		ldr	r3, .L32+16
 308 01b8 1B78     		ldrb	r3, [r3]
 309 01ba DBB2     		uxtb	r3, r3
 310 01bc 002B     		cmp	r3, #0
 311 01be 45D1     		bne	.L5
  80:.\keyboard.c  ****                         numberKeys1++;  
 312              		.loc 1 80 0 is_stmt 1
 313 01c0 2D4B     		ldr	r3, .L32+8
 314 01c2 1B78     		ldrb	r3, [r3]
 315 01c4 DBB2     		uxtb	r3, r3
ARM GAS  C:\Users\Lenovo\AppData\Local\Temp\ccorJ0uR.s 			page 8


 316 01c6 0133     		adds	r3, r3, #1
 317 01c8 DAB2     		uxtb	r2, r3
 318 01ca 2B4B     		ldr	r3, .L32+8
 319 01cc 1A70     		strb	r2, [r3]
  81:.\keyboard.c  ****                         flagPoint1=1;
 320              		.loc 1 81 0
 321 01ce 2C4B     		ldr	r3, .L32+16
 322 01d0 0122     		movs	r2, #1
 323 01d2 1A70     		strb	r2, [r3]
  82:.\keyboard.c  ****                         bufferLCD1.valueKeys[numberKeys1]=LCD1_rxBuffer[3];
 324              		.loc 1 82 0
 325 01d4 284B     		ldr	r3, .L32+8
 326 01d6 1B78     		ldrb	r3, [r3]
 327 01d8 DBB2     		uxtb	r3, r3
 328 01da 1946     		mov	r1, r3
 329 01dc 244B     		ldr	r3, .L32
 330 01de DB78     		ldrb	r3, [r3, #3]
 331 01e0 DAB2     		uxtb	r2, r3
 332 01e2 264B     		ldr	r3, .L32+12
 333 01e4 0B44     		add	r3, r3, r1
 334 01e6 83F86420 		strb	r2, [r3, #100]
  83:.\keyboard.c  ****                         if(character==0){
 335              		.loc 1 83 0
 336 01ea 7B79     		ldrb	r3, [r7, #5]	@ zero_extendqisi2
 337 01ec 002B     		cmp	r3, #0
 338 01ee 1AD1     		bne	.L12
  84:.\keyboard.c  ****                             write_LCD(1,bufferLCD1.valueKeys[numberKeys1],2,numberKeys1+2,1,0x0000,
 339              		.loc 1 84 0
 340 01f0 214B     		ldr	r3, .L32+8
 341 01f2 1B78     		ldrb	r3, [r3]
 342 01f4 DBB2     		uxtb	r3, r3
 343 01f6 1A46     		mov	r2, r3
 344 01f8 204B     		ldr	r3, .L32+12
 345 01fa 1344     		add	r3, r3, r2
 346 01fc 93F86420 		ldrb	r2, [r3, #100]	@ zero_extendqisi2
 347 0200 1D4B     		ldr	r3, .L32+8
 348 0202 1B78     		ldrb	r3, [r3]
 349 0204 DBB2     		uxtb	r3, r3
 350 0206 9BB2     		uxth	r3, r3
 351 0208 0233     		adds	r3, r3, #2
 352 020a 9CB2     		uxth	r4, r3
 353 020c 0123     		movs	r3, #1
 354 020e 0093     		str	r3, [sp]
 355 0210 0023     		movs	r3, #0
 356 0212 0193     		str	r3, [sp, #4]
 357 0214 4E23     		movs	r3, #78
 358 0216 0293     		str	r3, [sp, #8]
 359 0218 0120     		movs	r0, #1
 360 021a 1146     		mov	r1, r2
 361 021c 0222     		movs	r2, #2
 362 021e 2346     		mov	r3, r4
 363 0220 FFF7FEFF 		bl	write_LCD
 364 0224 12E0     		b	.L5
 365              	.L12:
  85:.\keyboard.c  ****                         }else{
  86:.\keyboard.c  ****                             write_LCD(1,character,2,numberKeys1+2,1,0x0000,'N');
 366              		.loc 1 86 0
ARM GAS  C:\Users\Lenovo\AppData\Local\Temp\ccorJ0uR.s 			page 9


 367 0226 144B     		ldr	r3, .L32+8
 368 0228 1B78     		ldrb	r3, [r3]
 369 022a DBB2     		uxtb	r3, r3
 370 022c 9BB2     		uxth	r3, r3
 371 022e 0233     		adds	r3, r3, #2
 372 0230 9CB2     		uxth	r4, r3
 373 0232 7A79     		ldrb	r2, [r7, #5]	@ zero_extendqisi2
 374 0234 0123     		movs	r3, #1
 375 0236 0093     		str	r3, [sp]
 376 0238 0023     		movs	r3, #0
 377 023a 0193     		str	r3, [sp, #4]
 378 023c 4E23     		movs	r3, #78
 379 023e 0293     		str	r3, [sp, #8]
 380 0240 0120     		movs	r0, #1
 381 0242 1146     		mov	r1, r2
 382 0244 0222     		movs	r2, #2
 383 0246 2346     		mov	r3, r4
 384 0248 FFF7FEFF 		bl	write_LCD
 385              	.L5:
  87:.\keyboard.c  ****                         }
  88:.\keyboard.c  ****                     }
  89:.\keyboard.c  ****                 }  
  90:.\keyboard.c  ****                 if(LCD1_rxBuffer[3]==0x0B){ //Borrar
 386              		.loc 1 90 0
 387 024c 084B     		ldr	r3, .L32
 388 024e DB78     		ldrb	r3, [r3, #3]
 389 0250 DBB2     		uxtb	r3, r3
 390 0252 0B2B     		cmp	r3, #11
 391 0254 3CD1     		bne	.L13
  91:.\keyboard.c  ****                     if(numberKeys1==0){		//Si no ha presionado nada regresa al menu anterior
 392              		.loc 1 91 0
 393 0256 084B     		ldr	r3, .L32+8
 394 0258 1B78     		ldrb	r3, [r3]
 395 025a DBB2     		uxtb	r3, r3
 396 025c 002B     		cmp	r3, #0
 397 025e 11D1     		bne	.L14
  92:.\keyboard.c  ****                         CyDelay(20);         
 398              		.loc 1 92 0
 399 0260 1420     		movs	r0, #20
 400 0262 FFF7FEFF 		bl	CyDelay
  93:.\keyboard.c  ****                         LCD1_ClearRxBuffer();
 401              		.loc 1 93 0
 402 0266 FFF7FEFF 		bl	LCD1_ClearRxBuffer
  94:.\keyboard.c  ****                         return 0;
 403              		.loc 1 94 0
 404 026a 0023     		movs	r3, #0
 405 026c E5E1     		b	.L15
 406              	.L33:
 407 026e 00BF     		.align	2
 408              	.L32:
 409 0270 00000000 		.word	LCD1_rxBuffer
 410 0274 00000000 		.word	countAnimation1
 411 0278 00000000 		.word	numberKeys1
 412 027c 00000000 		.word	bufferLCD1
 413 0280 00000000 		.word	flagPoint1
 414              	.L14:
  95:.\keyboard.c  ****                     }
ARM GAS  C:\Users\Lenovo\AppData\Local\Temp\ccorJ0uR.s 			page 10


  96:.\keyboard.c  ****                     else{
  97:.\keyboard.c  ****                         write_LCD(1,' ',2,numberKeys1+2,1,0x0000,'N');	//Si ya presiono borra el da
 415              		.loc 1 97 0
 416 0284 AA4B     		ldr	r3, .L34
 417 0286 1B78     		ldrb	r3, [r3]
 418 0288 DBB2     		uxtb	r3, r3
 419 028a 9BB2     		uxth	r3, r3
 420 028c 0233     		adds	r3, r3, #2
 421 028e 9CB2     		uxth	r4, r3
 422 0290 0123     		movs	r3, #1
 423 0292 0093     		str	r3, [sp]
 424 0294 0023     		movs	r3, #0
 425 0296 0193     		str	r3, [sp, #4]
 426 0298 4E23     		movs	r3, #78
 427 029a 0293     		str	r3, [sp, #8]
 428 029c 0120     		movs	r0, #1
 429 029e 2021     		movs	r1, #32
 430 02a0 0222     		movs	r2, #2
 431 02a2 2346     		mov	r3, r4
 432 02a4 FFF7FEFF 		bl	write_LCD
  98:.\keyboard.c  ****                         if(bufferLCD1.valueKeys[numberKeys1]==0x2C){
 433              		.loc 1 98 0
 434 02a8 A14B     		ldr	r3, .L34
 435 02aa 1B78     		ldrb	r3, [r3]
 436 02ac DBB2     		uxtb	r3, r3
 437 02ae 1A46     		mov	r2, r3
 438 02b0 A04B     		ldr	r3, .L34+4
 439 02b2 1344     		add	r3, r3, r2
 440 02b4 93F86430 		ldrb	r3, [r3, #100]	@ zero_extendqisi2
 441 02b8 2C2B     		cmp	r3, #44
 442 02ba 02D1     		bne	.L16
  99:.\keyboard.c  ****                             flagPoint1=0;
 443              		.loc 1 99 0
 444 02bc 9E4B     		ldr	r3, .L34+8
 445 02be 0022     		movs	r2, #0
 446 02c0 1A70     		strb	r2, [r3]
 447              	.L16:
 100:.\keyboard.c  ****                         }
 101:.\keyboard.c  ****                         numberKeys1--;
 448              		.loc 1 101 0
 449 02c2 9B4B     		ldr	r3, .L34
 450 02c4 1B78     		ldrb	r3, [r3]
 451 02c6 DBB2     		uxtb	r3, r3
 452 02c8 013B     		subs	r3, r3, #1
 453 02ca DAB2     		uxtb	r2, r3
 454 02cc 984B     		ldr	r3, .L34
 455 02ce 1A70     		strb	r2, [r3]
 456              	.L13:
 102:.\keyboard.c  ****                     }
 103:.\keyboard.c  ****                 }
 104:.\keyboard.c  ****                 if(LCD1_rxBuffer[3]==0x0A){ //Enter
 457              		.loc 1 104 0
 458 02d0 9A4B     		ldr	r3, .L34+12
 459 02d2 DB78     		ldrb	r3, [r3, #3]
 460 02d4 DBB2     		uxtb	r3, r3
 461 02d6 0A2B     		cmp	r3, #10
 462 02d8 11D1     		bne	.L17
ARM GAS  C:\Users\Lenovo\AppData\Local\Temp\ccorJ0uR.s 			page 11


 105:.\keyboard.c  ****                     if(numberKeys1>0){
 463              		.loc 1 105 0
 464 02da 954B     		ldr	r3, .L34
 465 02dc 1B78     		ldrb	r3, [r3]
 466 02de DBB2     		uxtb	r3, r3
 467 02e0 002B     		cmp	r3, #0
 468 02e2 0CD0     		beq	.L17
 106:.\keyboard.c  ****                         bufferLCD1.valueKeys[0]=numberKeys1;
 469              		.loc 1 106 0
 470 02e4 924B     		ldr	r3, .L34
 471 02e6 1B78     		ldrb	r3, [r3]
 472 02e8 DAB2     		uxtb	r2, r3
 473 02ea 924B     		ldr	r3, .L34+4
 474 02ec 83F86420 		strb	r2, [r3, #100]
 107:.\keyboard.c  ****                         CyDelay(20);         
 475              		.loc 1 107 0
 476 02f0 1420     		movs	r0, #20
 477 02f2 FFF7FEFF 		bl	CyDelay
 108:.\keyboard.c  ****                         LCD1_ClearRxBuffer();
 478              		.loc 1 108 0
 479 02f6 FFF7FEFF 		bl	LCD1_ClearRxBuffer
 109:.\keyboard.c  ****                         return 1;
 480              		.loc 1 109 0
 481 02fa 0123     		movs	r3, #1
 482 02fc 9DE1     		b	.L15
 483              	.L17:
 110:.\keyboard.c  ****                     }
 111:.\keyboard.c  ****                 }
 112:.\keyboard.c  ****                 if(LCD1_rxBuffer[3]==0x0F){ //Atras
 484              		.loc 1 112 0
 485 02fe 8F4B     		ldr	r3, .L34+12
 486 0300 DB78     		ldrb	r3, [r3, #3]
 487 0302 DBB2     		uxtb	r3, r3
 488 0304 0F2B     		cmp	r3, #15
 489 0306 06D1     		bne	.L4
 113:.\keyboard.c  ****                     CyDelay(20);         
 490              		.loc 1 113 0
 491 0308 1420     		movs	r0, #20
 492 030a FFF7FEFF 		bl	CyDelay
 114:.\keyboard.c  ****                     LCD1_ClearRxBuffer();
 493              		.loc 1 114 0
 494 030e FFF7FEFF 		bl	LCD1_ClearRxBuffer
 115:.\keyboard.c  ****                     return 0;
 495              		.loc 1 115 0
 496 0312 0023     		movs	r3, #0
 497 0314 91E1     		b	.L15
 498              	.L4:
 116:.\keyboard.c  ****                 }
 117:.\keyboard.c  ****             } 
 118:.\keyboard.c  ****             CyDelay(20);         
 499              		.loc 1 118 0
 500 0316 1420     		movs	r0, #20
 501 0318 FFF7FEFF 		bl	CyDelay
 119:.\keyboard.c  ****             LCD1_ClearRxBuffer();
 502              		.loc 1 119 0
 503 031c FFF7FEFF 		bl	LCD1_ClearRxBuffer
 504 0320 8AE1     		b	.L18
ARM GAS  C:\Users\Lenovo\AppData\Local\Temp\ccorJ0uR.s 			page 12


 505              	.L2:
 120:.\keyboard.c  ****         }
 121:.\keyboard.c  ****     }else{
 122:.\keyboard.c  ****         if(LCD2_GetRxBufferSize()==8){
 506              		.loc 1 122 0
 507 0322 FFF7FEFF 		bl	LCD2_GetRxBufferSize
 508 0326 0346     		mov	r3, r0
 509 0328 082B     		cmp	r3, #8
 510 032a 40F08581 		bne	.L18
 123:.\keyboard.c  ****             if((LCD2_rxBuffer[0]==0xAA) && (LCD2_rxBuffer[6]==0xC3) && (LCD2_rxBuffer[7]==0x3C)){
 511              		.loc 1 123 0
 512 032e 844B     		ldr	r3, .L34+16
 513 0330 1B78     		ldrb	r3, [r3]
 514 0332 DBB2     		uxtb	r3, r3
 515 0334 AA2B     		cmp	r3, #170
 516 0336 40F07A81 		bne	.L19
 517              		.loc 1 123 0 is_stmt 0 discriminator 1
 518 033a 814B     		ldr	r3, .L34+16
 519 033c 9B79     		ldrb	r3, [r3, #6]
 520 033e DBB2     		uxtb	r3, r3
 521 0340 C32B     		cmp	r3, #195
 522 0342 40F07481 		bne	.L19
 523              		.loc 1 123 0 discriminator 2
 524 0346 7E4B     		ldr	r3, .L34+16
 525 0348 DB79     		ldrb	r3, [r3, #7]
 526 034a DBB2     		uxtb	r3, r3
 527 034c 3C2B     		cmp	r3, #60
 528 034e 40F06E81 		bne	.L19
 124:.\keyboard.c  ****                 countAnimation2=0;
 529              		.loc 1 124 0 is_stmt 1
 530 0352 7C49     		ldr	r1, .L34+20
 531 0354 4FF00002 		mov	r2, #0
 532 0358 4FF00003 		mov	r3, #0
 533 035c C1E90023 		strd	r2, [r1]
 125:.\keyboard.c  ****                 if(numberKeys2<=(maxNumberKeys-1)){
 534              		.loc 1 125 0
 535 0360 794B     		ldr	r3, .L34+24
 536 0362 1B78     		ldrb	r3, [r3]
 537 0364 DBB2     		uxtb	r3, r3
 538 0366 1A46     		mov	r2, r3
 539 0368 BB79     		ldrb	r3, [r7, #6]	@ zero_extendqisi2
 540 036a 013B     		subs	r3, r3, #1
 541 036c 9A42     		cmp	r2, r3
 542 036e 00F30481 		bgt	.L20
 126:.\keyboard.c  ****                     if(LCD2_rxBuffer[3]>=0x20 && LCD2_rxBuffer[3]<=0x2B){ //Comandos ascii sin incl
 543              		.loc 1 126 0
 544 0372 734B     		ldr	r3, .L34+16
 545 0374 DB78     		ldrb	r3, [r3, #3]
 546 0376 DBB2     		uxtb	r3, r3
 547 0378 1F2B     		cmp	r3, #31
 548 037a 48D9     		bls	.L21
 549              		.loc 1 126 0 is_stmt 0 discriminator 1
 550 037c 704B     		ldr	r3, .L34+16
 551 037e DB78     		ldrb	r3, [r3, #3]
 552 0380 DBB2     		uxtb	r3, r3
 553 0382 2B2B     		cmp	r3, #43
 554 0384 43D8     		bhi	.L21
ARM GAS  C:\Users\Lenovo\AppData\Local\Temp\ccorJ0uR.s 			page 13


 127:.\keyboard.c  ****                         numberKeys2++;  
 555              		.loc 1 127 0 is_stmt 1
 556 0386 704B     		ldr	r3, .L34+24
 557 0388 1B78     		ldrb	r3, [r3]
 558 038a DBB2     		uxtb	r3, r3
 559 038c 0133     		adds	r3, r3, #1
 560 038e DAB2     		uxtb	r2, r3
 561 0390 6D4B     		ldr	r3, .L34+24
 562 0392 1A70     		strb	r2, [r3]
 128:.\keyboard.c  ****                         bufferLCD2.valueKeys[numberKeys2]=LCD2_rxBuffer[3];
 563              		.loc 1 128 0
 564 0394 6C4B     		ldr	r3, .L34+24
 565 0396 1B78     		ldrb	r3, [r3]
 566 0398 DBB2     		uxtb	r3, r3
 567 039a 1946     		mov	r1, r3
 568 039c 684B     		ldr	r3, .L34+16
 569 039e DB78     		ldrb	r3, [r3, #3]
 570 03a0 DAB2     		uxtb	r2, r3
 571 03a2 6A4B     		ldr	r3, .L34+28
 572 03a4 0B44     		add	r3, r3, r1
 573 03a6 83F86420 		strb	r2, [r3, #100]
 129:.\keyboard.c  ****                         if(character==0){
 574              		.loc 1 129 0
 575 03aa 7B79     		ldrb	r3, [r7, #5]	@ zero_extendqisi2
 576 03ac 002B     		cmp	r3, #0
 577 03ae 1AD1     		bne	.L22
 130:.\keyboard.c  ****                             write_LCD(2,bufferLCD2.valueKeys[numberKeys2],2,numberKeys2+2,1,0x0000,
 578              		.loc 1 130 0
 579 03b0 654B     		ldr	r3, .L34+24
 580 03b2 1B78     		ldrb	r3, [r3]
 581 03b4 DBB2     		uxtb	r3, r3
 582 03b6 1A46     		mov	r2, r3
 583 03b8 644B     		ldr	r3, .L34+28
 584 03ba 1344     		add	r3, r3, r2
 585 03bc 93F86420 		ldrb	r2, [r3, #100]	@ zero_extendqisi2
 586 03c0 614B     		ldr	r3, .L34+24
 587 03c2 1B78     		ldrb	r3, [r3]
 588 03c4 DBB2     		uxtb	r3, r3
 589 03c6 9BB2     		uxth	r3, r3
 590 03c8 0233     		adds	r3, r3, #2
 591 03ca 9CB2     		uxth	r4, r3
 592 03cc 0123     		movs	r3, #1
 593 03ce 0093     		str	r3, [sp]
 594 03d0 0023     		movs	r3, #0
 595 03d2 0193     		str	r3, [sp, #4]
 596 03d4 4E23     		movs	r3, #78
 597 03d6 0293     		str	r3, [sp, #8]
 598 03d8 0220     		movs	r0, #2
 599 03da 1146     		mov	r1, r2
 600 03dc 0222     		movs	r2, #2
 601 03de 2346     		mov	r3, r4
 602 03e0 FFF7FEFF 		bl	write_LCD
 129:.\keyboard.c  ****                         if(character==0){
 603              		.loc 1 129 0
 604 03e4 C9E0     		b	.L20
 605              	.L22:
 131:.\keyboard.c  ****                         }else{
ARM GAS  C:\Users\Lenovo\AppData\Local\Temp\ccorJ0uR.s 			page 14


 132:.\keyboard.c  ****                             write_LCD(2,character,2,numberKeys2+2,1,0x0000,'N');
 606              		.loc 1 132 0
 607 03e6 584B     		ldr	r3, .L34+24
 608 03e8 1B78     		ldrb	r3, [r3]
 609 03ea DBB2     		uxtb	r3, r3
 610 03ec 9BB2     		uxth	r3, r3
 611 03ee 0233     		adds	r3, r3, #2
 612 03f0 9CB2     		uxth	r4, r3
 613 03f2 7A79     		ldrb	r2, [r7, #5]	@ zero_extendqisi2
 614 03f4 0123     		movs	r3, #1
 615 03f6 0093     		str	r3, [sp]
 616 03f8 0023     		movs	r3, #0
 617 03fa 0193     		str	r3, [sp, #4]
 618 03fc 4E23     		movs	r3, #78
 619 03fe 0293     		str	r3, [sp, #8]
 620 0400 0220     		movs	r0, #2
 621 0402 1146     		mov	r1, r2
 622 0404 0222     		movs	r2, #2
 623 0406 2346     		mov	r3, r4
 624 0408 FFF7FEFF 		bl	write_LCD
 129:.\keyboard.c  ****                             write_LCD(2,bufferLCD2.valueKeys[numberKeys2],2,numberKeys2+2,1,0x0000,
 625              		.loc 1 129 0
 626 040c B5E0     		b	.L20
 627              	.L21:
 133:.\keyboard.c  ****                         }
 134:.\keyboard.c  ****                     }else if(LCD2_rxBuffer[3]>=0x2D && LCD2_rxBuffer[3]<=0x7E){ //Comandos ascii si
 628              		.loc 1 134 0
 629 040e 4C4B     		ldr	r3, .L34+16
 630 0410 DB78     		ldrb	r3, [r3, #3]
 631 0412 DBB2     		uxtb	r3, r3
 632 0414 2C2B     		cmp	r3, #44
 633 0416 48D9     		bls	.L24
 634              		.loc 1 134 0 is_stmt 0 discriminator 1
 635 0418 494B     		ldr	r3, .L34+16
 636 041a DB78     		ldrb	r3, [r3, #3]
 637 041c DBB2     		uxtb	r3, r3
 638 041e 7E2B     		cmp	r3, #126
 639 0420 43D8     		bhi	.L24
 135:.\keyboard.c  ****                         numberKeys2++;  
 640              		.loc 1 135 0 is_stmt 1
 641 0422 494B     		ldr	r3, .L34+24
 642 0424 1B78     		ldrb	r3, [r3]
 643 0426 DBB2     		uxtb	r3, r3
 644 0428 0133     		adds	r3, r3, #1
 645 042a DAB2     		uxtb	r2, r3
 646 042c 464B     		ldr	r3, .L34+24
 647 042e 1A70     		strb	r2, [r3]
 136:.\keyboard.c  ****                         bufferLCD2.valueKeys[numberKeys2]=LCD2_rxBuffer[3];
 648              		.loc 1 136 0
 649 0430 454B     		ldr	r3, .L34+24
 650 0432 1B78     		ldrb	r3, [r3]
 651 0434 DBB2     		uxtb	r3, r3
 652 0436 1946     		mov	r1, r3
 653 0438 414B     		ldr	r3, .L34+16
 654 043a DB78     		ldrb	r3, [r3, #3]
 655 043c DAB2     		uxtb	r2, r3
 656 043e 434B     		ldr	r3, .L34+28
ARM GAS  C:\Users\Lenovo\AppData\Local\Temp\ccorJ0uR.s 			page 15


 657 0440 0B44     		add	r3, r3, r1
 658 0442 83F86420 		strb	r2, [r3, #100]
 137:.\keyboard.c  ****                         if(character==0){
 659              		.loc 1 137 0
 660 0446 7B79     		ldrb	r3, [r7, #5]	@ zero_extendqisi2
 661 0448 002B     		cmp	r3, #0
 662 044a 1AD1     		bne	.L25
 138:.\keyboard.c  ****                             write_LCD(2,bufferLCD2.valueKeys[numberKeys2],2,numberKeys2+2,1,0x0000,
 663              		.loc 1 138 0
 664 044c 3E4B     		ldr	r3, .L34+24
 665 044e 1B78     		ldrb	r3, [r3]
 666 0450 DBB2     		uxtb	r3, r3
 667 0452 1A46     		mov	r2, r3
 668 0454 3D4B     		ldr	r3, .L34+28
 669 0456 1344     		add	r3, r3, r2
 670 0458 93F86420 		ldrb	r2, [r3, #100]	@ zero_extendqisi2
 671 045c 3A4B     		ldr	r3, .L34+24
 672 045e 1B78     		ldrb	r3, [r3]
 673 0460 DBB2     		uxtb	r3, r3
 674 0462 9BB2     		uxth	r3, r3
 675 0464 0233     		adds	r3, r3, #2
 676 0466 9CB2     		uxth	r4, r3
 677 0468 0123     		movs	r3, #1
 678 046a 0093     		str	r3, [sp]
 679 046c 0023     		movs	r3, #0
 680 046e 0193     		str	r3, [sp, #4]
 681 0470 4E23     		movs	r3, #78
 682 0472 0293     		str	r3, [sp, #8]
 683 0474 0220     		movs	r0, #2
 684 0476 1146     		mov	r1, r2
 685 0478 0222     		movs	r2, #2
 686 047a 2346     		mov	r3, r4
 687 047c FFF7FEFF 		bl	write_LCD
 137:.\keyboard.c  ****                         if(character==0){
 688              		.loc 1 137 0
 689 0480 7BE0     		b	.L20
 690              	.L25:
 139:.\keyboard.c  ****                         }else{
 140:.\keyboard.c  ****                             write_LCD(2,character,2,numberKeys2+2,1,0x0000,'N');
 691              		.loc 1 140 0
 692 0482 314B     		ldr	r3, .L34+24
 693 0484 1B78     		ldrb	r3, [r3]
 694 0486 DBB2     		uxtb	r3, r3
 695 0488 9BB2     		uxth	r3, r3
 696 048a 0233     		adds	r3, r3, #2
 697 048c 9CB2     		uxth	r4, r3
 698 048e 7A79     		ldrb	r2, [r7, #5]	@ zero_extendqisi2
 699 0490 0123     		movs	r3, #1
 700 0492 0093     		str	r3, [sp]
 701 0494 0023     		movs	r3, #0
 702 0496 0193     		str	r3, [sp, #4]
 703 0498 4E23     		movs	r3, #78
 704 049a 0293     		str	r3, [sp, #8]
 705 049c 0220     		movs	r0, #2
 706 049e 1146     		mov	r1, r2
 707 04a0 0222     		movs	r2, #2
 708 04a2 2346     		mov	r3, r4
ARM GAS  C:\Users\Lenovo\AppData\Local\Temp\ccorJ0uR.s 			page 16


 709 04a4 FFF7FEFF 		bl	write_LCD
 137:.\keyboard.c  ****                             write_LCD(2,bufferLCD2.valueKeys[numberKeys2],2,numberKeys2+2,1,0x0000,
 710              		.loc 1 137 0
 711 04a8 67E0     		b	.L20
 712              	.L24:
 141:.\keyboard.c  ****                         }
 142:.\keyboard.c  ****                     }else if(LCD2_rxBuffer[3]==',' && numberKeys2>=1 && flagPoint2==0){  //Coma (,)
 713              		.loc 1 142 0
 714 04aa 254B     		ldr	r3, .L34+16
 715 04ac DB78     		ldrb	r3, [r3, #3]
 716 04ae DBB2     		uxtb	r3, r3
 717 04b0 2C2B     		cmp	r3, #44
 718 04b2 62D1     		bne	.L20
 719              		.loc 1 142 0 is_stmt 0 discriminator 1
 720 04b4 244B     		ldr	r3, .L34+24
 721 04b6 1B78     		ldrb	r3, [r3]
 722 04b8 DBB2     		uxtb	r3, r3
 723 04ba 002B     		cmp	r3, #0
 724 04bc 5DD0     		beq	.L20
 725              		.loc 1 142 0 discriminator 2
 726 04be 244B     		ldr	r3, .L34+32
 727 04c0 1B78     		ldrb	r3, [r3]
 728 04c2 DBB2     		uxtb	r3, r3
 729 04c4 002B     		cmp	r3, #0
 730 04c6 58D1     		bne	.L20
 143:.\keyboard.c  ****                         numberKeys2++;  
 731              		.loc 1 143 0 is_stmt 1
 732 04c8 1F4B     		ldr	r3, .L34+24
 733 04ca 1B78     		ldrb	r3, [r3]
 734 04cc DBB2     		uxtb	r3, r3
 735 04ce 0133     		adds	r3, r3, #1
 736 04d0 DAB2     		uxtb	r2, r3
 737 04d2 1D4B     		ldr	r3, .L34+24
 738 04d4 1A70     		strb	r2, [r3]
 144:.\keyboard.c  ****                         flagPoint2=1;
 739              		.loc 1 144 0
 740 04d6 1E4B     		ldr	r3, .L34+32
 741 04d8 0122     		movs	r2, #1
 742 04da 1A70     		strb	r2, [r3]
 145:.\keyboard.c  ****                         bufferLCD2.valueKeys[numberKeys2]=LCD2_rxBuffer[3];
 743              		.loc 1 145 0
 744 04dc 1A4B     		ldr	r3, .L34+24
 745 04de 1B78     		ldrb	r3, [r3]
 746 04e0 DBB2     		uxtb	r3, r3
 747 04e2 1946     		mov	r1, r3
 748 04e4 164B     		ldr	r3, .L34+16
 749 04e6 DB78     		ldrb	r3, [r3, #3]
 750 04e8 DAB2     		uxtb	r2, r3
 751 04ea 184B     		ldr	r3, .L34+28
 752 04ec 0B44     		add	r3, r3, r1
 753 04ee 83F86420 		strb	r2, [r3, #100]
 146:.\keyboard.c  ****                         if(character==0){
 754              		.loc 1 146 0
 755 04f2 7B79     		ldrb	r3, [r7, #5]	@ zero_extendqisi2
 756 04f4 002B     		cmp	r3, #0
 757 04f6 2DD1     		bne	.L27
 147:.\keyboard.c  ****                             write_LCD(2,bufferLCD2.valueKeys[numberKeys2],2,numberKeys2+2,1,0x0000,
ARM GAS  C:\Users\Lenovo\AppData\Local\Temp\ccorJ0uR.s 			page 17


 758              		.loc 1 147 0
 759 04f8 134B     		ldr	r3, .L34+24
 760 04fa 1B78     		ldrb	r3, [r3]
 761 04fc DBB2     		uxtb	r3, r3
 762 04fe 1A46     		mov	r2, r3
 763 0500 124B     		ldr	r3, .L34+28
 764 0502 1344     		add	r3, r3, r2
 765 0504 93F86420 		ldrb	r2, [r3, #100]	@ zero_extendqisi2
 766 0508 0F4B     		ldr	r3, .L34+24
 767 050a 1B78     		ldrb	r3, [r3]
 768 050c DBB2     		uxtb	r3, r3
 769 050e 9BB2     		uxth	r3, r3
 770 0510 0233     		adds	r3, r3, #2
 771 0512 9CB2     		uxth	r4, r3
 772 0514 0123     		movs	r3, #1
 773 0516 0093     		str	r3, [sp]
 774 0518 0023     		movs	r3, #0
 775 051a 0193     		str	r3, [sp, #4]
 776 051c 4E23     		movs	r3, #78
 777 051e 0293     		str	r3, [sp, #8]
 778 0520 0220     		movs	r0, #2
 779 0522 1146     		mov	r1, r2
 780 0524 0222     		movs	r2, #2
 781 0526 2346     		mov	r3, r4
 782 0528 FFF7FEFF 		bl	write_LCD
 783 052c 25E0     		b	.L20
 784              	.L35:
 785 052e 00BF     		.align	2
 786              	.L34:
 787 0530 00000000 		.word	numberKeys1
 788 0534 00000000 		.word	bufferLCD1
 789 0538 00000000 		.word	flagPoint1
 790 053c 00000000 		.word	LCD1_rxBuffer
 791 0540 00000000 		.word	LCD2_rxBuffer
 792 0544 00000000 		.word	countAnimation2
 793 0548 00000000 		.word	numberKeys2
 794 054c 00000000 		.word	bufferLCD2
 795 0550 00000000 		.word	flagPoint2
 796              	.L27:
 148:.\keyboard.c  ****                         }else{
 149:.\keyboard.c  ****                             write_LCD(2,character,2,numberKeys2+2,1,0x0000,'N');
 797              		.loc 1 149 0
 798 0554 3B4B     		ldr	r3, .L36
 799 0556 1B78     		ldrb	r3, [r3]
 800 0558 DBB2     		uxtb	r3, r3
 801 055a 9BB2     		uxth	r3, r3
 802 055c 0233     		adds	r3, r3, #2
 803 055e 9CB2     		uxth	r4, r3
 804 0560 7A79     		ldrb	r2, [r7, #5]	@ zero_extendqisi2
 805 0562 0123     		movs	r3, #1
 806 0564 0093     		str	r3, [sp]
 807 0566 0023     		movs	r3, #0
 808 0568 0193     		str	r3, [sp, #4]
 809 056a 4E23     		movs	r3, #78
 810 056c 0293     		str	r3, [sp, #8]
 811 056e 0220     		movs	r0, #2
 812 0570 1146     		mov	r1, r2
ARM GAS  C:\Users\Lenovo\AppData\Local\Temp\ccorJ0uR.s 			page 18


 813 0572 0222     		movs	r2, #2
 814 0574 2346     		mov	r3, r4
 815 0576 FFF7FEFF 		bl	write_LCD
 816              	.L20:
 150:.\keyboard.c  ****                         }
 151:.\keyboard.c  ****                     }
 152:.\keyboard.c  ****                 }
 153:.\keyboard.c  ****                 if(LCD2_rxBuffer[3]==0x0B){ //Borrar
 817              		.loc 1 153 0
 818 057a 334B     		ldr	r3, .L36+4
 819 057c DB78     		ldrb	r3, [r3, #3]
 820 057e DBB2     		uxtb	r3, r3
 821 0580 0B2B     		cmp	r3, #11
 822 0582 31D1     		bne	.L28
 154:.\keyboard.c  ****                     if(numberKeys2==0){		//Si no ha presionado nada regresa al menu anterior
 823              		.loc 1 154 0
 824 0584 2F4B     		ldr	r3, .L36
 825 0586 1B78     		ldrb	r3, [r3]
 826 0588 DBB2     		uxtb	r3, r3
 827 058a 002B     		cmp	r3, #0
 828 058c 06D1     		bne	.L29
 155:.\keyboard.c  ****                         CyDelay(20);         
 829              		.loc 1 155 0
 830 058e 1420     		movs	r0, #20
 831 0590 FFF7FEFF 		bl	CyDelay
 156:.\keyboard.c  ****                         LCD2_ClearRxBuffer();
 832              		.loc 1 156 0
 833 0594 FFF7FEFF 		bl	LCD2_ClearRxBuffer
 157:.\keyboard.c  ****                         return 0;
 834              		.loc 1 157 0
 835 0598 0023     		movs	r3, #0
 836 059a 4EE0     		b	.L15
 837              	.L29:
 158:.\keyboard.c  ****                     }
 159:.\keyboard.c  ****                     else{
 160:.\keyboard.c  ****                         write_LCD(2,' ',2,numberKeys2+2,1,0x0000,'N');	//Si ya presiono borra el da
 838              		.loc 1 160 0
 839 059c 294B     		ldr	r3, .L36
 840 059e 1B78     		ldrb	r3, [r3]
 841 05a0 DBB2     		uxtb	r3, r3
 842 05a2 9BB2     		uxth	r3, r3
 843 05a4 0233     		adds	r3, r3, #2
 844 05a6 9CB2     		uxth	r4, r3
 845 05a8 0123     		movs	r3, #1
 846 05aa 0093     		str	r3, [sp]
 847 05ac 0023     		movs	r3, #0
 848 05ae 0193     		str	r3, [sp, #4]
 849 05b0 4E23     		movs	r3, #78
 850 05b2 0293     		str	r3, [sp, #8]
 851 05b4 0220     		movs	r0, #2
 852 05b6 2021     		movs	r1, #32
 853 05b8 0222     		movs	r2, #2
 854 05ba 2346     		mov	r3, r4
 855 05bc FFF7FEFF 		bl	write_LCD
 161:.\keyboard.c  ****                         if(bufferLCD2.valueKeys[numberKeys2]==0x2C){
 856              		.loc 1 161 0
 857 05c0 204B     		ldr	r3, .L36
ARM GAS  C:\Users\Lenovo\AppData\Local\Temp\ccorJ0uR.s 			page 19


 858 05c2 1B78     		ldrb	r3, [r3]
 859 05c4 DBB2     		uxtb	r3, r3
 860 05c6 1A46     		mov	r2, r3
 861 05c8 204B     		ldr	r3, .L36+8
 862 05ca 1344     		add	r3, r3, r2
 863 05cc 93F86430 		ldrb	r3, [r3, #100]	@ zero_extendqisi2
 864 05d0 2C2B     		cmp	r3, #44
 865 05d2 02D1     		bne	.L30
 162:.\keyboard.c  ****                             flagPoint2=0;
 866              		.loc 1 162 0
 867 05d4 1E4B     		ldr	r3, .L36+12
 868 05d6 0022     		movs	r2, #0
 869 05d8 1A70     		strb	r2, [r3]
 870              	.L30:
 163:.\keyboard.c  ****                         }
 164:.\keyboard.c  ****                         numberKeys2--;
 871              		.loc 1 164 0
 872 05da 1A4B     		ldr	r3, .L36
 873 05dc 1B78     		ldrb	r3, [r3]
 874 05de DBB2     		uxtb	r3, r3
 875 05e0 013B     		subs	r3, r3, #1
 876 05e2 DAB2     		uxtb	r2, r3
 877 05e4 174B     		ldr	r3, .L36
 878 05e6 1A70     		strb	r2, [r3]
 879              	.L28:
 165:.\keyboard.c  ****                     }
 166:.\keyboard.c  ****                 }
 167:.\keyboard.c  ****                 if(LCD2_rxBuffer[3]==0x0A){ //Enter
 880              		.loc 1 167 0
 881 05e8 174B     		ldr	r3, .L36+4
 882 05ea DB78     		ldrb	r3, [r3, #3]
 883 05ec DBB2     		uxtb	r3, r3
 884 05ee 0A2B     		cmp	r3, #10
 885 05f0 11D1     		bne	.L31
 168:.\keyboard.c  ****                     if(numberKeys2>0){
 886              		.loc 1 168 0
 887 05f2 144B     		ldr	r3, .L36
 888 05f4 1B78     		ldrb	r3, [r3]
 889 05f6 DBB2     		uxtb	r3, r3
 890 05f8 002B     		cmp	r3, #0
 891 05fa 0CD0     		beq	.L31
 169:.\keyboard.c  ****                         bufferLCD2.valueKeys[0]=numberKeys2;
 892              		.loc 1 169 0
 893 05fc 114B     		ldr	r3, .L36
 894 05fe 1B78     		ldrb	r3, [r3]
 895 0600 DAB2     		uxtb	r2, r3
 896 0602 124B     		ldr	r3, .L36+8
 897 0604 83F86420 		strb	r2, [r3, #100]
 170:.\keyboard.c  ****                         CyDelay(20);         
 898              		.loc 1 170 0
 899 0608 1420     		movs	r0, #20
 900 060a FFF7FEFF 		bl	CyDelay
 171:.\keyboard.c  ****                         LCD2_ClearRxBuffer();
 901              		.loc 1 171 0
 902 060e FFF7FEFF 		bl	LCD2_ClearRxBuffer
 172:.\keyboard.c  ****                         return 1;
 903              		.loc 1 172 0
ARM GAS  C:\Users\Lenovo\AppData\Local\Temp\ccorJ0uR.s 			page 20


 904 0612 0123     		movs	r3, #1
 905 0614 11E0     		b	.L15
 906              	.L31:
 173:.\keyboard.c  ****                     }
 174:.\keyboard.c  ****                 }
 175:.\keyboard.c  ****                 if(LCD2_rxBuffer[3]==0x0F){ //Atras
 907              		.loc 1 175 0
 908 0616 0C4B     		ldr	r3, .L36+4
 909 0618 DB78     		ldrb	r3, [r3, #3]
 910 061a DBB2     		uxtb	r3, r3
 911 061c 0F2B     		cmp	r3, #15
 912 061e 06D1     		bne	.L19
 176:.\keyboard.c  ****                     CyDelay(20);         
 913              		.loc 1 176 0
 914 0620 1420     		movs	r0, #20
 915 0622 FFF7FEFF 		bl	CyDelay
 177:.\keyboard.c  ****                     LCD2_ClearRxBuffer();
 916              		.loc 1 177 0
 917 0626 FFF7FEFF 		bl	LCD2_ClearRxBuffer
 178:.\keyboard.c  ****                     return 0;
 918              		.loc 1 178 0
 919 062a 0023     		movs	r3, #0
 920 062c 05E0     		b	.L15
 921              	.L19:
 179:.\keyboard.c  ****                 }
 180:.\keyboard.c  ****             } 
 181:.\keyboard.c  ****             CyDelay(20);         
 922              		.loc 1 181 0
 923 062e 1420     		movs	r0, #20
 924 0630 FFF7FEFF 		bl	CyDelay
 182:.\keyboard.c  ****             LCD2_ClearRxBuffer();
 925              		.loc 1 182 0
 926 0634 FFF7FEFF 		bl	LCD2_ClearRxBuffer
 927              	.L18:
 183:.\keyboard.c  ****         }
 184:.\keyboard.c  ****     }
 185:.\keyboard.c  ****     return 2;
 928              		.loc 1 185 0
 929 0638 0223     		movs	r3, #2
 930              	.L15:
 186:.\keyboard.c  **** }...
 931              		.loc 1 186 0
 932 063a 1846     		mov	r0, r3
 933 063c 0C37     		adds	r7, r7, #12
 934              		.cfi_def_cfa_offset 12
 935 063e BD46     		mov	sp, r7
 936              		.cfi_def_cfa_register 13
 937              		@ sp needed
 938 0640 90BD     		pop	{r4, r7, pc}
 939              	.L37:
 940 0642 00BF     		.align	2
 941              	.L36:
 942 0644 00000000 		.word	numberKeys2
 943 0648 00000000 		.word	LCD2_rxBuffer
 944 064c 00000000 		.word	bufferLCD2
 945 0650 00000000 		.word	flagPoint2
 946              		.cfi_endproc
ARM GAS  C:\Users\Lenovo\AppData\Local\Temp\ccorJ0uR.s 			page 21


 947              	.LFE56:
 948              		.size	alphanumeric_keyboard, .-alphanumeric_keyboard
 949              		.text
 950              	.Letext0:
 951              		.file 2 "c:\\program files (x86)\\cypress\\psoc creator\\3.3\\psoc creator\\import\\gnu\\arm\\4.9.
 952              		.file 3 "c:\\program files (x86)\\cypress\\psoc creator\\3.3\\psoc creator\\import\\gnu\\arm\\4.9.
 953              		.file 4 "Generated_Source\\PSoC5/cytypes.h"
 954              		.file 5 ".\\variables.h"
 955              		.file 6 "Generated_Source\\PSoC5/LCD1.h"
 956              		.file 7 "Generated_Source\\PSoC5/LCD2.h"
 957              		.file 8 "Generated_Source\\PSoC5/core_cm3.h"
 958              		.section	.debug_info,"",%progbits
 959              	.Ldebug_info0:
 960 0000 64080000 		.4byte	0x864
 961 0004 0400     		.2byte	0x4
 962 0006 00000000 		.4byte	.Ldebug_abbrev0
 963 000a 04       		.byte	0x4
 964 000b 01       		.uleb128 0x1
 965 000c 56030000 		.4byte	.LASF119
 966 0010 01       		.byte	0x1
 967 0011 CD010000 		.4byte	.LASF120
 968 0015 EE000000 		.4byte	.LASF121
 969 0019 00000000 		.4byte	.Ldebug_ranges0+0
 970 001d 00000000 		.4byte	0
 971 0021 00000000 		.4byte	.Ldebug_line0
 972 0025 02       		.uleb128 0x2
 973 0026 01       		.byte	0x1
 974 0027 06       		.byte	0x6
 975 0028 0A060000 		.4byte	.LASF0
 976 002c 02       		.uleb128 0x2
 977 002d 01       		.byte	0x1
 978 002e 08       		.byte	0x8
 979 002f 9C050000 		.4byte	.LASF1
 980 0033 02       		.uleb128 0x2
 981 0034 02       		.byte	0x2
 982 0035 05       		.byte	0x5
 983 0036 A5040000 		.4byte	.LASF2
 984 003a 02       		.uleb128 0x2
 985 003b 02       		.byte	0x2
 986 003c 07       		.byte	0x7
 987 003d 16060000 		.4byte	.LASF3
 988 0041 03       		.uleb128 0x3
 989 0042 73000000 		.4byte	.LASF9
 990 0046 02       		.byte	0x2
 991 0047 3F       		.byte	0x3f
 992 0048 4C000000 		.4byte	0x4c
 993 004c 02       		.uleb128 0x2
 994 004d 04       		.byte	0x4
 995 004e 05       		.byte	0x5
 996 004f AF040000 		.4byte	.LASF4
 997 0053 02       		.uleb128 0x2
 998 0054 04       		.byte	0x4
 999 0055 07       		.byte	0x7
 1000 0056 3E050000 		.4byte	.LASF5
 1001 005a 02       		.uleb128 0x2
 1002 005b 08       		.byte	0x8
 1003 005c 05       		.byte	0x5
ARM GAS  C:\Users\Lenovo\AppData\Local\Temp\ccorJ0uR.s 			page 22


 1004 005d F3020000 		.4byte	.LASF6
 1005 0061 02       		.uleb128 0x2
 1006 0062 08       		.byte	0x8
 1007 0063 07       		.byte	0x7
 1008 0064 40010000 		.4byte	.LASF7
 1009 0068 04       		.uleb128 0x4
 1010 0069 04       		.byte	0x4
 1011 006a 05       		.byte	0x5
 1012 006b 696E7400 		.ascii	"int\000"
 1013 006f 02       		.uleb128 0x2
 1014 0070 04       		.byte	0x4
 1015 0071 07       		.byte	0x7
 1016 0072 58000000 		.4byte	.LASF8
 1017 0076 03       		.uleb128 0x3
 1018 0077 6F050000 		.4byte	.LASF10
 1019 007b 03       		.byte	0x3
 1020 007c 2C       		.byte	0x2c
 1021 007d 41000000 		.4byte	0x41
 1022 0081 03       		.uleb128 0x3
 1023 0082 3F060000 		.4byte	.LASF11
 1024 0086 04       		.byte	0x4
 1025 0087 A1       		.byte	0xa1
 1026 0088 2C000000 		.4byte	0x2c
 1027 008c 03       		.uleb128 0x3
 1028 008d 0C040000 		.4byte	.LASF12
 1029 0091 04       		.byte	0x4
 1030 0092 A3       		.byte	0xa3
 1031 0093 53000000 		.4byte	0x53
 1032 0097 02       		.uleb128 0x2
 1033 0098 04       		.byte	0x4
 1034 0099 04       		.byte	0x4
 1035 009a E8000000 		.4byte	.LASF13
 1036 009e 02       		.uleb128 0x2
 1037 009f 08       		.byte	0x8
 1038 00a0 04       		.byte	0x4
 1039 00a1 45060000 		.4byte	.LASF14
 1040 00a5 03       		.uleb128 0x3
 1041 00a6 09050000 		.4byte	.LASF15
 1042 00aa 04       		.byte	0x4
 1043 00ab AD       		.byte	0xad
 1044 00ac 61000000 		.4byte	0x61
 1045 00b0 02       		.uleb128 0x2
 1046 00b1 01       		.byte	0x1
 1047 00b2 08       		.byte	0x8
 1048 00b3 69020000 		.4byte	.LASF16
 1049 00b7 05       		.uleb128 0x5
 1050 00b8 81000000 		.4byte	0x81
 1051 00bc 05       		.uleb128 0x5
 1052 00bd 8C000000 		.4byte	0x8c
 1053 00c1 02       		.uleb128 0x2
 1054 00c2 04       		.byte	0x4
 1055 00c3 07       		.byte	0x7
 1056 00c4 35050000 		.4byte	.LASF17
 1057 00c8 06       		.uleb128 0x6
 1058 00c9 22000000 		.4byte	.LASF68
 1059 00cd 9502     		.2byte	0x295
 1060 00cf 05       		.byte	0x5
ARM GAS  C:\Users\Lenovo\AppData\Local\Temp\ccorJ0uR.s 			page 23


 1061 00d0 56       		.byte	0x56
 1062 00d1 44030000 		.4byte	0x344
 1063 00d5 07       		.uleb128 0x7
 1064 00d6 94000000 		.4byte	.LASF18
 1065 00da 05       		.byte	0x5
 1066 00db 57       		.byte	0x57
 1067 00dc 81000000 		.4byte	0x81
 1068 00e0 00       		.byte	0
 1069 00e1 07       		.uleb128 0x7
 1070 00e2 AE010000 		.4byte	.LASF19
 1071 00e6 05       		.byte	0x5
 1072 00e7 58       		.byte	0x58
 1073 00e8 44030000 		.4byte	0x344
 1074 00ec 01       		.byte	0x1
 1075 00ed 07       		.uleb128 0x7
 1076 00ee A5020000 		.4byte	.LASF20
 1077 00f2 05       		.byte	0x5
 1078 00f3 59       		.byte	0x59
 1079 00f4 44030000 		.4byte	0x344
 1080 00f8 1A       		.byte	0x1a
 1081 00f9 07       		.uleb128 0x7
 1082 00fa 4C060000 		.4byte	.LASF21
 1083 00fe 05       		.byte	0x5
 1084 00ff 5A       		.byte	0x5a
 1085 0100 81000000 		.4byte	0x81
 1086 0104 33       		.byte	0x33
 1087 0105 07       		.uleb128 0x7
 1088 0106 8A050000 		.4byte	.LASF22
 1089 010a 05       		.byte	0x5
 1090 010b 5B       		.byte	0x5b
 1091 010c 81000000 		.4byte	0x81
 1092 0110 34       		.byte	0x34
 1093 0111 07       		.uleb128 0x7
 1094 0112 A0000000 		.4byte	.LASF23
 1095 0116 05       		.byte	0x5
 1096 0117 5C       		.byte	0x5c
 1097 0118 54030000 		.4byte	0x354
 1098 011c 35       		.byte	0x35
 1099 011d 07       		.uleb128 0x7
 1100 011e 72040000 		.4byte	.LASF24
 1101 0122 05       		.byte	0x5
 1102 0123 5D       		.byte	0x5d
 1103 0124 54030000 		.4byte	0x354
 1104 0128 3F       		.byte	0x3f
 1105 0129 07       		.uleb128 0x7
 1106 012a 72060000 		.4byte	.LASF25
 1107 012e 05       		.byte	0x5
 1108 012f 5E       		.byte	0x5e
 1109 0130 44030000 		.4byte	0x344
 1110 0134 49       		.byte	0x49
 1111 0135 07       		.uleb128 0x7
 1112 0136 3C040000 		.4byte	.LASF26
 1113 013a 05       		.byte	0x5
 1114 013b 5F       		.byte	0x5f
 1115 013c 81000000 		.4byte	0x81
 1116 0140 62       		.byte	0x62
 1117 0141 07       		.uleb128 0x7
ARM GAS  C:\Users\Lenovo\AppData\Local\Temp\ccorJ0uR.s 			page 24


 1118 0142 AA050000 		.4byte	.LASF27
 1119 0146 05       		.byte	0x5
 1120 0147 60       		.byte	0x60
 1121 0148 81000000 		.4byte	0x81
 1122 014c 63       		.byte	0x63
 1123 014d 07       		.uleb128 0x7
 1124 014e 5F020000 		.4byte	.LASF28
 1125 0152 05       		.byte	0x5
 1126 0153 61       		.byte	0x61
 1127 0154 64030000 		.4byte	0x364
 1128 0158 64       		.byte	0x64
 1129 0159 07       		.uleb128 0x7
 1130 015a F3030000 		.4byte	.LASF29
 1131 015e 05       		.byte	0x5
 1132 015f 62       		.byte	0x62
 1133 0160 81000000 		.4byte	0x81
 1134 0164 79       		.byte	0x79
 1135 0165 07       		.uleb128 0x7
 1136 0166 56020000 		.4byte	.LASF30
 1137 016a 05       		.byte	0x5
 1138 016b 63       		.byte	0x63
 1139 016c 81000000 		.4byte	0x81
 1140 0170 7A       		.byte	0x7a
 1141 0171 07       		.uleb128 0x7
 1142 0172 4C000000 		.4byte	.LASF31
 1143 0176 05       		.byte	0x5
 1144 0177 64       		.byte	0x64
 1145 0178 81000000 		.4byte	0x81
 1146 017c 7B       		.byte	0x7b
 1147 017d 07       		.uleb128 0x7
 1148 017e E4050000 		.4byte	.LASF32
 1149 0182 05       		.byte	0x5
 1150 0183 65       		.byte	0x65
 1151 0184 74030000 		.4byte	0x374
 1152 0188 7C       		.byte	0x7c
 1153 0189 07       		.uleb128 0x7
 1154 018a 28020000 		.4byte	.LASF33
 1155 018e 05       		.byte	0x5
 1156 018f 66       		.byte	0x66
 1157 0190 84030000 		.4byte	0x384
 1158 0194 7E       		.byte	0x7e
 1159 0195 07       		.uleb128 0x7
 1160 0196 85010000 		.4byte	.LASF34
 1161 019a 05       		.byte	0x5
 1162 019b 67       		.byte	0x67
 1163 019c 81000000 		.4byte	0x81
 1164 01a0 92       		.byte	0x92
 1165 01a1 07       		.uleb128 0x7
 1166 01a2 2C050000 		.4byte	.LASF35
 1167 01a6 05       		.byte	0x5
 1168 01a7 68       		.byte	0x68
 1169 01a8 9A030000 		.4byte	0x39a
 1170 01ac 93       		.byte	0x93
 1171 01ad 07       		.uleb128 0x7
 1172 01ae DA040000 		.4byte	.LASF36
 1173 01b2 05       		.byte	0x5
 1174 01b3 69       		.byte	0x69
ARM GAS  C:\Users\Lenovo\AppData\Local\Temp\ccorJ0uR.s 			page 25


 1175 01b4 AA030000 		.4byte	0x3aa
 1176 01b8 98       		.byte	0x98
 1177 01b9 07       		.uleb128 0x7
 1178 01ba 9F010000 		.4byte	.LASF37
 1179 01be 05       		.byte	0x5
 1180 01bf 6A       		.byte	0x6a
 1181 01c0 AA030000 		.4byte	0x3aa
 1182 01c4 9E       		.byte	0x9e
 1183 01c5 07       		.uleb128 0x7
 1184 01c6 55060000 		.4byte	.LASF38
 1185 01ca 05       		.byte	0x5
 1186 01cb 6B       		.byte	0x6b
 1187 01cc AA030000 		.4byte	0x3aa
 1188 01d0 A4       		.byte	0xa4
 1189 01d1 07       		.uleb128 0x7
 1190 01d2 E4030000 		.4byte	.LASF39
 1191 01d6 05       		.byte	0x5
 1192 01d7 6C       		.byte	0x6c
 1193 01d8 AA030000 		.4byte	0x3aa
 1194 01dc AA       		.byte	0xaa
 1195 01dd 07       		.uleb128 0x7
 1196 01de 54040000 		.4byte	.LASF40
 1197 01e2 05       		.byte	0x5
 1198 01e3 6D       		.byte	0x6d
 1199 01e4 BA030000 		.4byte	0x3ba
 1200 01e8 B0       		.byte	0xb0
 1201 01e9 07       		.uleb128 0x7
 1202 01ea 65010000 		.4byte	.LASF41
 1203 01ee 05       		.byte	0x5
 1204 01ef 6E       		.byte	0x6e
 1205 01f0 BA030000 		.4byte	0x3ba
 1206 01f4 BE       		.byte	0xbe
 1207 01f5 07       		.uleb128 0x7
 1208 01f6 29030000 		.4byte	.LASF42
 1209 01fa 05       		.byte	0x5
 1210 01fb 6F       		.byte	0x6f
 1211 01fc BA030000 		.4byte	0x3ba
 1212 0200 CC       		.byte	0xcc
 1213 0201 07       		.uleb128 0x7
 1214 0202 BA020000 		.4byte	.LASF43
 1215 0206 05       		.byte	0x5
 1216 0207 70       		.byte	0x70
 1217 0208 BA030000 		.4byte	0x3ba
 1218 020c DA       		.byte	0xda
 1219 020d 07       		.uleb128 0x7
 1220 020e F8040000 		.4byte	.LASF44
 1221 0212 05       		.byte	0x5
 1222 0213 71       		.byte	0x71
 1223 0214 BA030000 		.4byte	0x3ba
 1224 0218 E8       		.byte	0xe8
 1225 0219 07       		.uleb128 0x7
 1226 021a 2E040000 		.4byte	.LASF45
 1227 021e 05       		.byte	0x5
 1228 021f 72       		.byte	0x72
 1229 0220 BA030000 		.4byte	0x3ba
 1230 0224 F6       		.byte	0xf6
 1231 0225 08       		.uleb128 0x8
ARM GAS  C:\Users\Lenovo\AppData\Local\Temp\ccorJ0uR.s 			page 26


 1232 0226 8C040000 		.4byte	.LASF46
 1233 022a 05       		.byte	0x5
 1234 022b 73       		.byte	0x73
 1235 022c CA030000 		.4byte	0x3ca
 1236 0230 0401     		.2byte	0x104
 1237 0232 08       		.uleb128 0x8
 1238 0233 DA010000 		.4byte	.LASF47
 1239 0237 05       		.byte	0x5
 1240 0238 74       		.byte	0x74
 1241 0239 CA030000 		.4byte	0x3ca
 1242 023d 0F01     		.2byte	0x10f
 1243 023f 08       		.uleb128 0x8
 1244 0240 39020000 		.4byte	.LASF48
 1245 0244 05       		.byte	0x5
 1246 0245 75       		.byte	0x75
 1247 0246 CA030000 		.4byte	0x3ca
 1248 024a 1A01     		.2byte	0x11a
 1249 024c 08       		.uleb128 0x8
 1250 024d FF030000 		.4byte	.LASF49
 1251 0251 05       		.byte	0x5
 1252 0252 76       		.byte	0x76
 1253 0253 81000000 		.4byte	0x81
 1254 0257 2501     		.2byte	0x125
 1255 0259 08       		.uleb128 0x8
 1256 025a 99020000 		.4byte	.LASF50
 1257 025e 05       		.byte	0x5
 1258 025f 77       		.byte	0x77
 1259 0260 81000000 		.4byte	0x81
 1260 0264 2601     		.2byte	0x126
 1261 0266 08       		.uleb128 0x8
 1262 0267 7D000000 		.4byte	.LASF51
 1263 026b 05       		.byte	0x5
 1264 026c 78       		.byte	0x78
 1265 026d 81000000 		.4byte	0x81
 1266 0271 2701     		.2byte	0x127
 1267 0273 08       		.uleb128 0x8
 1268 0274 CE040000 		.4byte	.LASF52
 1269 0278 05       		.byte	0x5
 1270 0279 79       		.byte	0x79
 1271 027a 81000000 		.4byte	0x81
 1272 027e 2801     		.2byte	0x128
 1273 0280 08       		.uleb128 0x8
 1274 0281 1A000000 		.4byte	.LASF53
 1275 0285 05       		.byte	0x5
 1276 0286 7A       		.byte	0x7a
 1277 0287 DA030000 		.4byte	0x3da
 1278 028b 2901     		.2byte	0x129
 1279 028d 08       		.uleb128 0x8
 1280 028e CA020000 		.4byte	.LASF54
 1281 0292 05       		.byte	0x5
 1282 0293 7B       		.byte	0x7b
 1283 0294 54030000 		.4byte	0x354
 1284 0298 6A01     		.2byte	0x16a
 1285 029a 08       		.uleb128 0x8
 1286 029b DC000000 		.4byte	.LASF55
 1287 029f 05       		.byte	0x5
 1288 02a0 7C       		.byte	0x7c
ARM GAS  C:\Users\Lenovo\AppData\Local\Temp\ccorJ0uR.s 			page 27


 1289 02a1 54030000 		.4byte	0x354
 1290 02a5 7401     		.2byte	0x174
 1291 02a7 08       		.uleb128 0x8
 1292 02a8 B1020000 		.4byte	.LASF56
 1293 02ac 05       		.byte	0x5
 1294 02ad 7D       		.byte	0x7d
 1295 02ae 54030000 		.4byte	0x354
 1296 02b2 7E01     		.2byte	0x17e
 1297 02b4 08       		.uleb128 0x8
 1298 02b5 0E020000 		.4byte	.LASF57
 1299 02b9 05       		.byte	0x5
 1300 02ba 7E       		.byte	0x7e
 1301 02bb EA030000 		.4byte	0x3ea
 1302 02bf 8801     		.2byte	0x188
 1303 02c1 08       		.uleb128 0x8
 1304 02c2 65000000 		.4byte	.LASF58
 1305 02c6 05       		.byte	0x5
 1306 02c7 7F       		.byte	0x7f
 1307 02c8 EA030000 		.4byte	0x3ea
 1308 02cc D301     		.2byte	0x1d3
 1309 02ce 08       		.uleb128 0x8
 1310 02cf AD000000 		.4byte	.LASF59
 1311 02d3 05       		.byte	0x5
 1312 02d4 80       		.byte	0x80
 1313 02d5 00040000 		.4byte	0x400
 1314 02d9 1E02     		.2byte	0x21e
 1315 02db 08       		.uleb128 0x8
 1316 02dc 77050000 		.4byte	.LASF60
 1317 02e0 05       		.byte	0x5
 1318 02e1 81       		.byte	0x81
 1319 02e2 00040000 		.4byte	0x400
 1320 02e6 2D02     		.2byte	0x22d
 1321 02e8 08       		.uleb128 0x8
 1322 02e9 BC050000 		.4byte	.LASF61
 1323 02ed 05       		.byte	0x5
 1324 02ee 82       		.byte	0x82
 1325 02ef 16040000 		.4byte	0x416
 1326 02f3 3C02     		.2byte	0x23c
 1327 02f5 08       		.uleb128 0x8
 1328 02f6 EF050000 		.4byte	.LASF62
 1329 02fa 05       		.byte	0x5
 1330 02fb 83       		.byte	0x83
 1331 02fc 16040000 		.4byte	0x416
 1332 0300 5A02     		.2byte	0x25a
 1333 0302 08       		.uleb128 0x8
 1334 0303 4A030000 		.4byte	.LASF63
 1335 0307 05       		.byte	0x5
 1336 0308 84       		.byte	0x84
 1337 0309 54030000 		.4byte	0x354
 1338 030d 7802     		.2byte	0x278
 1339 030f 08       		.uleb128 0x8
 1340 0310 5D050000 		.4byte	.LASF64
 1341 0314 05       		.byte	0x5
 1342 0315 85       		.byte	0x85
 1343 0316 81000000 		.4byte	0x81
 1344 031a 8202     		.2byte	0x282
 1345 031c 08       		.uleb128 0x8
ARM GAS  C:\Users\Lenovo\AppData\Local\Temp\ccorJ0uR.s 			page 28


 1346 031d 98040000 		.4byte	.LASF65
 1347 0321 05       		.byte	0x5
 1348 0322 86       		.byte	0x86
 1349 0323 2C040000 		.4byte	0x42c
 1350 0327 8302     		.2byte	0x283
 1351 0329 08       		.uleb128 0x8
 1352 032a D5020000 		.4byte	.LASF66
 1353 032e 05       		.byte	0x5
 1354 032f 87       		.byte	0x87
 1355 0330 74030000 		.4byte	0x374
 1356 0334 9202     		.2byte	0x292
 1357 0336 08       		.uleb128 0x8
 1358 0337 E6010000 		.4byte	.LASF67
 1359 033b 05       		.byte	0x5
 1360 033c 88       		.byte	0x88
 1361 033d 81000000 		.4byte	0x81
 1362 0341 9402     		.2byte	0x294
 1363 0343 00       		.byte	0
 1364 0344 09       		.uleb128 0x9
 1365 0345 81000000 		.4byte	0x81
 1366 0349 54030000 		.4byte	0x354
 1367 034d 0A       		.uleb128 0xa
 1368 034e C1000000 		.4byte	0xc1
 1369 0352 18       		.byte	0x18
 1370 0353 00       		.byte	0
 1371 0354 09       		.uleb128 0x9
 1372 0355 81000000 		.4byte	0x81
 1373 0359 64030000 		.4byte	0x364
 1374 035d 0A       		.uleb128 0xa
 1375 035e C1000000 		.4byte	0xc1
 1376 0362 09       		.byte	0x9
 1377 0363 00       		.byte	0
 1378 0364 09       		.uleb128 0x9
 1379 0365 81000000 		.4byte	0x81
 1380 0369 74030000 		.4byte	0x374
 1381 036d 0A       		.uleb128 0xa
 1382 036e C1000000 		.4byte	0xc1
 1383 0372 14       		.byte	0x14
 1384 0373 00       		.byte	0
 1385 0374 09       		.uleb128 0x9
 1386 0375 81000000 		.4byte	0x81
 1387 0379 84030000 		.4byte	0x384
 1388 037d 0A       		.uleb128 0xa
 1389 037e C1000000 		.4byte	0xc1
 1390 0382 01       		.byte	0x1
 1391 0383 00       		.byte	0
 1392 0384 09       		.uleb128 0x9
 1393 0385 81000000 		.4byte	0x81
 1394 0389 9A030000 		.4byte	0x39a
 1395 038d 0A       		.uleb128 0xa
 1396 038e C1000000 		.4byte	0xc1
 1397 0392 01       		.byte	0x1
 1398 0393 0A       		.uleb128 0xa
 1399 0394 C1000000 		.4byte	0xc1
 1400 0398 09       		.byte	0x9
 1401 0399 00       		.byte	0
 1402 039a 09       		.uleb128 0x9
ARM GAS  C:\Users\Lenovo\AppData\Local\Temp\ccorJ0uR.s 			page 29


 1403 039b 81000000 		.4byte	0x81
 1404 039f AA030000 		.4byte	0x3aa
 1405 03a3 0A       		.uleb128 0xa
 1406 03a4 C1000000 		.4byte	0xc1
 1407 03a8 04       		.byte	0x4
 1408 03a9 00       		.byte	0
 1409 03aa 09       		.uleb128 0x9
 1410 03ab 81000000 		.4byte	0x81
 1411 03af BA030000 		.4byte	0x3ba
 1412 03b3 0A       		.uleb128 0xa
 1413 03b4 C1000000 		.4byte	0xc1
 1414 03b8 05       		.byte	0x5
 1415 03b9 00       		.byte	0
 1416 03ba 09       		.uleb128 0x9
 1417 03bb 81000000 		.4byte	0x81
 1418 03bf CA030000 		.4byte	0x3ca
 1419 03c3 0A       		.uleb128 0xa
 1420 03c4 C1000000 		.4byte	0xc1
 1421 03c8 0D       		.byte	0xd
 1422 03c9 00       		.byte	0
 1423 03ca 09       		.uleb128 0x9
 1424 03cb 81000000 		.4byte	0x81
 1425 03cf DA030000 		.4byte	0x3da
 1426 03d3 0A       		.uleb128 0xa
 1427 03d4 C1000000 		.4byte	0xc1
 1428 03d8 0A       		.byte	0xa
 1429 03d9 00       		.byte	0
 1430 03da 09       		.uleb128 0x9
 1431 03db 81000000 		.4byte	0x81
 1432 03df EA030000 		.4byte	0x3ea
 1433 03e3 0A       		.uleb128 0xa
 1434 03e4 C1000000 		.4byte	0xc1
 1435 03e8 40       		.byte	0x40
 1436 03e9 00       		.byte	0
 1437 03ea 09       		.uleb128 0x9
 1438 03eb 81000000 		.4byte	0x81
 1439 03ef 00040000 		.4byte	0x400
 1440 03f3 0A       		.uleb128 0xa
 1441 03f4 C1000000 		.4byte	0xc1
 1442 03f8 02       		.byte	0x2
 1443 03f9 0A       		.uleb128 0xa
 1444 03fa C1000000 		.4byte	0xc1
 1445 03fe 18       		.byte	0x18
 1446 03ff 00       		.byte	0
 1447 0400 09       		.uleb128 0x9
 1448 0401 81000000 		.4byte	0x81
 1449 0405 16040000 		.4byte	0x416
 1450 0409 0A       		.uleb128 0xa
 1451 040a C1000000 		.4byte	0xc1
 1452 040e 02       		.byte	0x2
 1453 040f 0A       		.uleb128 0xa
 1454 0410 C1000000 		.4byte	0xc1
 1455 0414 04       		.byte	0x4
 1456 0415 00       		.byte	0
 1457 0416 09       		.uleb128 0x9
 1458 0417 81000000 		.4byte	0x81
 1459 041b 2C040000 		.4byte	0x42c
ARM GAS  C:\Users\Lenovo\AppData\Local\Temp\ccorJ0uR.s 			page 30


 1460 041f 0A       		.uleb128 0xa
 1461 0420 C1000000 		.4byte	0xc1
 1462 0424 02       		.byte	0x2
 1463 0425 0A       		.uleb128 0xa
 1464 0426 C1000000 		.4byte	0xc1
 1465 042a 09       		.byte	0x9
 1466 042b 00       		.byte	0
 1467 042c 09       		.uleb128 0x9
 1468 042d 81000000 		.4byte	0x81
 1469 0431 3C040000 		.4byte	0x43c
 1470 0435 0A       		.uleb128 0xa
 1471 0436 C1000000 		.4byte	0xc1
 1472 043a 0E       		.byte	0xe
 1473 043b 00       		.byte	0
 1474 043c 06       		.uleb128 0x6
 1475 043d 85060000 		.4byte	.LASF69
 1476 0441 0001     		.2byte	0x100
 1477 0443 05       		.byte	0x5
 1478 0444 96       		.byte	0x96
 1479 0445 9E040000 		.4byte	0x49e
 1480 0449 0B       		.uleb128 0xb
 1481 044a 64697200 		.ascii	"dir\000"
 1482 044e 05       		.byte	0x5
 1483 044f 97       		.byte	0x97
 1484 0450 81000000 		.4byte	0x81
 1485 0454 00       		.byte	0
 1486 0455 07       		.uleb128 0x7
 1487 0456 1B020000 		.4byte	.LASF70
 1488 045a 05       		.byte	0x5
 1489 045b 98       		.byte	0x98
 1490 045c 9E040000 		.4byte	0x49e
 1491 0460 01       		.byte	0x1
 1492 0461 07       		.uleb128 0x7
 1493 0462 64060000 		.4byte	.LASF71
 1494 0466 05       		.byte	0x5
 1495 0467 99       		.byte	0x99
 1496 0468 BA040000 		.4byte	0x4ba
 1497 046c B5       		.byte	0xb5
 1498 046d 07       		.uleb128 0x7
 1499 046e E9020000 		.4byte	.LASF72
 1500 0472 05       		.byte	0x5
 1501 0473 9A       		.byte	0x9a
 1502 0474 BA030000 		.4byte	0x3ba
 1503 0478 D5       		.byte	0xd5
 1504 0479 07       		.uleb128 0x7
 1505 047a FF050000 		.4byte	.LASF73
 1506 047e 05       		.byte	0x5
 1507 047f 9B       		.byte	0x9b
 1508 0480 BA030000 		.4byte	0x3ba
 1509 0484 E3       		.byte	0xe3
 1510 0485 07       		.uleb128 0x7
 1511 0486 01030000 		.4byte	.LASF74
 1512 048a 05       		.byte	0x5
 1513 048b 9C       		.byte	0x9c
 1514 048c BA030000 		.4byte	0x3ba
 1515 0490 F1       		.byte	0xf1
 1516 0491 07       		.uleb128 0x7
ARM GAS  C:\Users\Lenovo\AppData\Local\Temp\ccorJ0uR.s 			page 31


 1517 0492 33060000 		.4byte	.LASF75
 1518 0496 05       		.byte	0x5
 1519 0497 9D       		.byte	0x9d
 1520 0498 81000000 		.4byte	0x81
 1521 049c FF       		.byte	0xff
 1522 049d 00       		.byte	0
 1523 049e 09       		.uleb128 0x9
 1524 049f 81000000 		.4byte	0x81
 1525 04a3 BA040000 		.4byte	0x4ba
 1526 04a7 0A       		.uleb128 0xa
 1527 04a8 C1000000 		.4byte	0xc1
 1528 04ac 03       		.byte	0x3
 1529 04ad 0A       		.uleb128 0xa
 1530 04ae C1000000 		.4byte	0xc1
 1531 04b2 02       		.byte	0x2
 1532 04b3 0A       		.uleb128 0xa
 1533 04b4 C1000000 		.4byte	0xc1
 1534 04b8 0E       		.byte	0xe
 1535 04b9 00       		.byte	0
 1536 04ba 09       		.uleb128 0x9
 1537 04bb 81000000 		.4byte	0x81
 1538 04bf D0040000 		.4byte	0x4d0
 1539 04c3 0A       		.uleb128 0xa
 1540 04c4 C1000000 		.4byte	0xc1
 1541 04c8 03       		.byte	0x3
 1542 04c9 0A       		.uleb128 0xa
 1543 04ca C1000000 		.4byte	0xc1
 1544 04ce 07       		.byte	0x7
 1545 04cf 00       		.byte	0
 1546 04d0 06       		.uleb128 0x6
 1547 04d1 D6050000 		.4byte	.LASF76
 1548 04d5 0002     		.2byte	0x200
 1549 04d7 05       		.byte	0x5
 1550 04d8 A0       		.byte	0xa0
 1551 04d9 F3040000 		.4byte	0x4f3
 1552 04dd 0B       		.uleb128 0xb
 1553 04de 6100     		.ascii	"a\000"
 1554 04e0 05       		.byte	0x5
 1555 04e1 A1       		.byte	0xa1
 1556 04e2 3C040000 		.4byte	0x43c
 1557 04e6 00       		.byte	0
 1558 04e7 0C       		.uleb128 0xc
 1559 04e8 6200     		.ascii	"b\000"
 1560 04ea 05       		.byte	0x5
 1561 04eb A2       		.byte	0xa2
 1562 04ec 3C040000 		.4byte	0x43c
 1563 04f0 0001     		.2byte	0x100
 1564 04f2 00       		.byte	0
 1565 04f3 0D       		.uleb128 0xd
 1566 04f4 29000000 		.4byte	.LASF122
 1567 04f8 01       		.byte	0x1
 1568 04f9 39       		.byte	0x39
 1569 04fa 81000000 		.4byte	0x81
 1570 04fe 00000000 		.4byte	.LFB56
 1571 0502 54060000 		.4byte	.LFE56-.LFB56
 1572 0506 01       		.uleb128 0x1
 1573 0507 9C       		.byte	0x9c
ARM GAS  C:\Users\Lenovo\AppData\Local\Temp\ccorJ0uR.s 			page 32


 1574 0508 37050000 		.4byte	0x537
 1575 050c 0E       		.uleb128 0xe
 1576 050d 6C636400 		.ascii	"lcd\000"
 1577 0511 01       		.byte	0x1
 1578 0512 39       		.byte	0x39
 1579 0513 81000000 		.4byte	0x81
 1580 0517 02       		.uleb128 0x2
 1581 0518 91       		.byte	0x91
 1582 0519 6F       		.sleb128 -17
 1583 051a 0F       		.uleb128 0xf
 1584 051b 20040000 		.4byte	.LASF77
 1585 051f 01       		.byte	0x1
 1586 0520 39       		.byte	0x39
 1587 0521 81000000 		.4byte	0x81
 1588 0525 02       		.uleb128 0x2
 1589 0526 91       		.byte	0x91
 1590 0527 6E       		.sleb128 -18
 1591 0528 0F       		.uleb128 0xf
 1592 0529 F4010000 		.4byte	.LASF78
 1593 052d 01       		.byte	0x1
 1594 052e 39       		.byte	0x39
 1595 052f 81000000 		.4byte	0x81
 1596 0533 02       		.uleb128 0x2
 1597 0534 91       		.byte	0x91
 1598 0535 6D       		.sleb128 -19
 1599 0536 00       		.byte	0
 1600 0537 09       		.uleb128 0x9
 1601 0538 81000000 		.4byte	0x81
 1602 053c 47050000 		.4byte	0x547
 1603 0540 0A       		.uleb128 0xa
 1604 0541 C1000000 		.4byte	0xc1
 1605 0545 07       		.byte	0x7
 1606 0546 00       		.byte	0
 1607 0547 10       		.uleb128 0x10
 1608 0548 C7000000 		.4byte	.LASF79
 1609 054c 06       		.byte	0x6
 1610 054d 5201     		.2byte	0x152
 1611 054f 53050000 		.4byte	0x553
 1612 0553 05       		.uleb128 0x5
 1613 0554 37050000 		.4byte	0x537
 1614 0558 10       		.uleb128 0x10
 1615 0559 57010000 		.4byte	.LASF80
 1616 055d 07       		.byte	0x7
 1617 055e 5201     		.2byte	0x152
 1618 0560 64050000 		.4byte	0x564
 1619 0564 05       		.uleb128 0x5
 1620 0565 37050000 		.4byte	0x537
 1621 0569 10       		.uleb128 0x10
 1622 056a B8040000 		.4byte	.LASF81
 1623 056e 08       		.byte	0x8
 1624 056f 1606     		.2byte	0x616
 1625 0571 75050000 		.4byte	0x575
 1626 0575 05       		.uleb128 0x5
 1627 0576 76000000 		.4byte	0x76
 1628 057a 11       		.uleb128 0x11
 1629 057b 09030000 		.4byte	.LASF82
 1630 057f 05       		.byte	0x5
ARM GAS  C:\Users\Lenovo\AppData\Local\Temp\ccorJ0uR.s 			page 33


 1631 0580 2C       		.byte	0x2c
 1632 0581 8B050000 		.4byte	0x58b
 1633 0585 05       		.uleb128 0x5
 1634 0586 03       		.byte	0x3
 1635 0587 00000000 		.4byte	countAnimation1
 1636 058b 05       		.uleb128 0x5
 1637 058c A5000000 		.4byte	0xa5
 1638 0590 11       		.uleb128 0x11
 1639 0591 3A030000 		.4byte	.LASF83
 1640 0595 05       		.byte	0x5
 1641 0596 2D       		.byte	0x2d
 1642 0597 8B050000 		.4byte	0x58b
 1643 059b 05       		.uleb128 0x5
 1644 059c 03       		.byte	0x3
 1645 059d 00000000 		.4byte	countAnimation2
 1646 05a1 11       		.uleb128 0x11
 1647 05a2 86020000 		.4byte	.LASF84
 1648 05a6 05       		.byte	0x5
 1649 05a7 2E       		.byte	0x2e
 1650 05a8 8B050000 		.4byte	0x58b
 1651 05ac 05       		.uleb128 0x5
 1652 05ad 03       		.byte	0x3
 1653 05ae 00000000 		.4byte	countBeagleTX
 1654 05b2 11       		.uleb128 0x11
 1655 05b3 29060000 		.4byte	.LASF85
 1656 05b7 05       		.byte	0x5
 1657 05b8 2F       		.byte	0x2f
 1658 05b9 8B050000 		.4byte	0x58b
 1659 05bd 05       		.uleb128 0x5
 1660 05be 03       		.byte	0x3
 1661 05bf 00000000 		.4byte	countPump
 1662 05c3 11       		.uleb128 0x11
 1663 05c4 44020000 		.4byte	.LASF86
 1664 05c8 05       		.byte	0x5
 1665 05c9 30       		.byte	0x30
 1666 05ca BC000000 		.4byte	0xbc
 1667 05ce 05       		.uleb128 0x5
 1668 05cf 03       		.byte	0x3
 1669 05d0 00000000 		.4byte	flowLCD1
 1670 05d4 11       		.uleb128 0x11
 1671 05d5 4D020000 		.4byte	.LASF87
 1672 05d9 05       		.byte	0x5
 1673 05da 31       		.byte	0x31
 1674 05db BC000000 		.4byte	0xbc
 1675 05df 05       		.uleb128 0x5
 1676 05e0 03       		.byte	0x3
 1677 05e1 00000000 		.4byte	flowLCD2
 1678 05e5 11       		.uleb128 0x11
 1679 05e6 79010000 		.4byte	.LASF88
 1680 05ea 05       		.byte	0x5
 1681 05eb 32       		.byte	0x32
 1682 05ec B7000000 		.4byte	0xb7
 1683 05f0 05       		.uleb128 0x5
 1684 05f1 03       		.byte	0x3
 1685 05f2 00000000 		.4byte	digits
 1686 05f6 09       		.uleb128 0x9
 1687 05f7 81000000 		.4byte	0x81
ARM GAS  C:\Users\Lenovo\AppData\Local\Temp\ccorJ0uR.s 			page 34


 1688 05fb 06060000 		.4byte	0x606
 1689 05ff 0A       		.uleb128 0xa
 1690 0600 C1000000 		.4byte	0xc1
 1691 0604 0B       		.byte	0xb
 1692 0605 00       		.byte	0
 1693 0606 11       		.uleb128 0x11
 1694 0607 05020000 		.4byte	.LASF89
 1695 060b 05       		.byte	0x5
 1696 060c 33       		.byte	0x33
 1697 060d 17060000 		.4byte	0x617
 1698 0611 05       		.uleb128 0x5
 1699 0612 03       		.byte	0x3
 1700 0613 00000000 		.4byte	ipAdress
 1701 0617 05       		.uleb128 0x5
 1702 0618 F6050000 		.4byte	0x5f6
 1703 061c 11       		.uleb128 0x11
 1704 061d 6E020000 		.4byte	.LASF90
 1705 0621 05       		.byte	0x5
 1706 0622 34       		.byte	0x34
 1707 0623 B7000000 		.4byte	0xb7
 1708 0627 05       		.uleb128 0x5
 1709 0628 03       		.byte	0x3
 1710 0629 00000000 		.4byte	numberKeys1
 1711 062d 11       		.uleb128 0x11
 1712 062e 7A020000 		.4byte	.LASF91
 1713 0632 05       		.byte	0x5
 1714 0633 35       		.byte	0x35
 1715 0634 B7000000 		.4byte	0xb7
 1716 0638 05       		.uleb128 0x5
 1717 0639 03       		.byte	0x3
 1718 063a 00000000 		.4byte	numberKeys2
 1719 063e 11       		.uleb128 0x11
 1720 063f 67040000 		.4byte	.LASF92
 1721 0643 05       		.byte	0x5
 1722 0644 36       		.byte	0x36
 1723 0645 B7000000 		.4byte	0xb7
 1724 0649 05       		.uleb128 0x5
 1725 064a 03       		.byte	0x3
 1726 064b 00000000 		.4byte	flagPoint1
 1727 064f 11       		.uleb128 0x11
 1728 0650 BC000000 		.4byte	.LASF93
 1729 0654 05       		.byte	0x5
 1730 0655 37       		.byte	0x37
 1731 0656 B7000000 		.4byte	0xb7
 1732 065a 05       		.uleb128 0x5
 1733 065b 03       		.byte	0x3
 1734 065c 00000000 		.4byte	flagPoint2
 1735 0660 09       		.uleb128 0x9
 1736 0661 81000000 		.4byte	0x81
 1737 0665 76060000 		.4byte	0x676
 1738 0669 0A       		.uleb128 0xa
 1739 066a C1000000 		.4byte	0xc1
 1740 066e 77       		.byte	0x77
 1741 066f 0A       		.uleb128 0xa
 1742 0670 C1000000 		.4byte	0xc1
 1743 0674 07       		.byte	0x7
 1744 0675 00       		.byte	0
ARM GAS  C:\Users\Lenovo\AppData\Local\Temp\ccorJ0uR.s 			page 35


 1745 0676 11       		.uleb128 0x11
 1746 0677 FE010000 		.4byte	.LASF94
 1747 067b 05       		.byte	0x5
 1748 067c 38       		.byte	0x38
 1749 067d 87060000 		.4byte	0x687
 1750 0681 05       		.uleb128 0x5
 1751 0682 03       		.byte	0x3
 1752 0683 00000000 		.4byte	button
 1753 0687 05       		.uleb128 0x5
 1754 0688 60060000 		.4byte	0x660
 1755 068c 11       		.uleb128 0x11
 1756 068d 91010000 		.4byte	.LASF95
 1757 0691 05       		.byte	0x5
 1758 0692 39       		.byte	0x39
 1759 0693 B7000000 		.4byte	0xb7
 1760 0697 05       		.uleb128 0x5
 1761 0698 03       		.byte	0x3
 1762 0699 00000000 		.4byte	productNumber
 1763 069d 11       		.uleb128 0x11
 1764 069e DE020000 		.4byte	.LASF96
 1765 06a2 05       		.byte	0x5
 1766 06a3 3A       		.byte	0x3a
 1767 06a4 16040000 		.4byte	0x416
 1768 06a8 05       		.uleb128 0x5
 1769 06a9 03       		.byte	0x3
 1770 06aa 00000000 		.4byte	presetFast
 1771 06ae 11       		.uleb128 0x11
 1772 06af 10050000 		.4byte	.LASF97
 1773 06b3 05       		.byte	0x5
 1774 06b4 3B       		.byte	0x3b
 1775 06b5 BC000000 		.4byte	0xbc
 1776 06b9 05       		.uleb128 0x5
 1777 06ba 03       		.byte	0x3
 1778 06bb 00000000 		.4byte	delayPicture1
 1779 06bf 11       		.uleb128 0x11
 1780 06c0 1E050000 		.4byte	.LASF98
 1781 06c4 05       		.byte	0x5
 1782 06c5 3C       		.byte	0x3c
 1783 06c6 BC000000 		.4byte	0xbc
 1784 06ca 05       		.uleb128 0x5
 1785 06cb 03       		.byte	0x3
 1786 06cc 00000000 		.4byte	delayPicture2
 1787 06d0 11       		.uleb128 0x11
 1788 06d1 4D040000 		.4byte	.LASF99
 1789 06d5 05       		.byte	0x5
 1790 06d6 3D       		.byte	0x3d
 1791 06d7 B7000000 		.4byte	0xb7
 1792 06db 05       		.uleb128 0x5
 1793 06dc 03       		.byte	0x3
 1794 06dd 00000000 		.4byte	ppux10
 1795 06e1 11       		.uleb128 0x11
 1796 06e2 3F000000 		.4byte	.LASF100
 1797 06e6 05       		.byte	0x5
 1798 06e7 3E       		.byte	0x3e
 1799 06e8 B7000000 		.4byte	0xb7
 1800 06ec 05       		.uleb128 0x5
 1801 06ed 03       		.byte	0x3
ARM GAS  C:\Users\Lenovo\AppData\Local\Temp\ccorJ0uR.s 			page 36


 1802 06ee 00000000 		.4byte	decimalMoney
 1803 06f2 11       		.uleb128 0x11
 1804 06f3 00000000 		.4byte	.LASF101
 1805 06f7 05       		.byte	0x5
 1806 06f8 3F       		.byte	0x3f
 1807 06f9 B7000000 		.4byte	0xb7
 1808 06fd 05       		.uleb128 0x5
 1809 06fe 03       		.byte	0x3
 1810 06ff 00000000 		.4byte	decimalVolume
 1811 0703 11       		.uleb128 0x11
 1812 0704 84040000 		.4byte	.LASF102
 1813 0708 05       		.byte	0x5
 1814 0709 40       		.byte	0x40
 1815 070a 14070000 		.4byte	0x714
 1816 070e 05       		.uleb128 0x5
 1817 070f 03       		.byte	0x3
 1818 0710 00000000 		.4byte	symbols
 1819 0714 05       		.uleb128 0x5
 1820 0715 74030000 		.4byte	0x374
 1821 0719 09       		.uleb128 0x9
 1822 071a 81000000 		.4byte	0x81
 1823 071e 29070000 		.4byte	0x729
 1824 0722 0A       		.uleb128 0xa
 1825 0723 C1000000 		.4byte	0xc1
 1826 0727 02       		.byte	0x2
 1827 0728 00       		.byte	0
 1828 0729 11       		.uleb128 0x11
 1829 072a 80010000 		.4byte	.LASF103
 1830 072e 05       		.byte	0x5
 1831 072f 41       		.byte	0x41
 1832 0730 3A070000 		.4byte	0x73a
 1833 0734 05       		.uleb128 0x5
 1834 0735 03       		.byte	0x3
 1835 0736 00000000 		.4byte	time
 1836 073a 05       		.uleb128 0x5
 1837 073b 19070000 		.4byte	0x719
 1838 073f 11       		.uleb128 0x11
 1839 0740 94020000 		.4byte	.LASF104
 1840 0744 05       		.byte	0x5
 1841 0745 42       		.byte	0x42
 1842 0746 50070000 		.4byte	0x750
 1843 074a 05       		.uleb128 0x5
 1844 074b 03       		.byte	0x3
 1845 074c 00000000 		.4byte	date
 1846 0750 05       		.uleb128 0x5
 1847 0751 19070000 		.4byte	0x719
 1848 0755 11       		.uleb128 0x11
 1849 0756 D5000000 		.4byte	.LASF105
 1850 075a 05       		.byte	0x5
 1851 075b 43       		.byte	0x43
 1852 075c 66070000 		.4byte	0x766
 1853 0760 05       		.uleb128 0x5
 1854 0761 03       		.byte	0x3
 1855 0762 00000000 		.4byte	screen
 1856 0766 05       		.uleb128 0x5
 1857 0767 74030000 		.4byte	0x374
 1858 076b 11       		.uleb128 0x11
ARM GAS  C:\Users\Lenovo\AppData\Local\Temp\ccorJ0uR.s 			page 37


 1859 076c 8C000000 		.4byte	.LASF106
 1860 0770 05       		.byte	0x5
 1861 0771 44       		.byte	0x44
 1862 0772 7C070000 		.4byte	0x77c
 1863 0776 05       		.uleb128 0x5
 1864 0777 03       		.byte	0x3
 1865 0778 00000000 		.4byte	residue
 1866 077c 05       		.uleb128 0x5
 1867 077d BA030000 		.4byte	0x3ba
 1868 0781 09       		.uleb128 0x9
 1869 0782 81000000 		.4byte	0x81
 1870 0786 91070000 		.4byte	0x791
 1871 078a 0A       		.uleb128 0xa
 1872 078b C1000000 		.4byte	0xc1
 1873 078f 1D       		.byte	0x1d
 1874 0790 00       		.byte	0
 1875 0791 11       		.uleb128 0x11
 1876 0792 DB050000 		.4byte	.LASF107
 1877 0796 05       		.byte	0x5
 1878 0797 45       		.byte	0x45
 1879 0798 81070000 		.4byte	0x781
 1880 079c 05       		.uleb128 0x5
 1881 079d 03       		.byte	0x3
 1882 079e 00000000 		.4byte	temporal
 1883 07a2 11       		.uleb128 0x11
 1884 07a3 0E000000 		.4byte	.LASF108
 1885 07a7 05       		.byte	0x5
 1886 07a8 46       		.byte	0x46
 1887 07a9 81070000 		.4byte	0x781
 1888 07ad 05       		.uleb128 0x5
 1889 07ae 03       		.byte	0x3
 1890 07af 00000000 		.4byte	temporalCom
 1891 07b3 11       		.uleb128 0x11
 1892 07b4 34020000 		.4byte	.LASF109
 1893 07b8 05       		.byte	0x5
 1894 07b9 47       		.byte	0x47
 1895 07ba B7000000 		.4byte	0xb7
 1896 07be 05       		.uleb128 0x5
 1897 07bf 03       		.byte	0x3
 1898 07c0 00000000 		.4byte	turn
 1899 07c4 11       		.uleb128 0x11
 1900 07c5 C5040000 		.4byte	.LASF110
 1901 07c9 05       		.byte	0x5
 1902 07ca 48       		.byte	0x48
 1903 07cb B7000000 		.4byte	0xb7
 1904 07cf 05       		.uleb128 0x5
 1905 07d0 03       		.byte	0x3
 1906 07d1 00000000 		.4byte	lockTurn
 1907 07d5 11       		.uleb128 0x11
 1908 07d6 CD050000 		.4byte	.LASF111
 1909 07da 05       		.byte	0x5
 1910 07db 49       		.byte	0x49
 1911 07dc E6070000 		.4byte	0x7e6
 1912 07e0 05       		.uleb128 0x5
 1913 07e1 03       		.byte	0x3
 1914 07e2 00000000 		.4byte	idSeller
 1915 07e6 05       		.uleb128 0x5
ARM GAS  C:\Users\Lenovo\AppData\Local\Temp\ccorJ0uR.s 			page 38


 1916 07e7 44030000 		.4byte	0x344
 1917 07eb 11       		.uleb128 0x11
 1918 07ec 50050000 		.4byte	.LASF112
 1919 07f0 05       		.byte	0x5
 1920 07f1 4A       		.byte	0x4a
 1921 07f2 B7000000 		.4byte	0xb7
 1922 07f6 05       		.uleb128 0x5
 1923 07f7 03       		.byte	0x3
 1924 07f8 00000000 		.4byte	typeIdSeller
 1925 07fc 11       		.uleb128 0x11
 1926 07fd E9040000 		.4byte	.LASF113
 1927 0801 05       		.byte	0x5
 1928 0802 4B       		.byte	0x4b
 1929 0803 0D080000 		.4byte	0x80d
 1930 0807 05       		.uleb128 0x5
 1931 0808 03       		.byte	0x3
 1932 0809 00000000 		.4byte	passwordSeller
 1933 080d 05       		.uleb128 0x5
 1934 080e 37050000 		.4byte	0x537
 1935 0812 11       		.uleb128 0x11
 1936 0813 13040000 		.4byte	.LASF114
 1937 0817 05       		.byte	0x5
 1938 0818 4C       		.byte	0x4c
 1939 0819 B7000000 		.4byte	0xb7
 1940 081d 05       		.uleb128 0x5
 1941 081e 03       		.byte	0x3
 1942 081f 00000000 		.4byte	flagResetMux
 1943 0823 11       		.uleb128 0x11
 1944 0824 19030000 		.4byte	.LASF115
 1945 0828 05       		.byte	0x5
 1946 0829 4D       		.byte	0x4d
 1947 082a B7000000 		.4byte	0xb7
 1948 082e 05       		.uleb128 0x5
 1949 082f 03       		.byte	0x3
 1950 0830 00000000 		.4byte	stateBeagleSoft
 1951 0834 11       		.uleb128 0x11
 1952 0835 B7010000 		.4byte	.LASF116
 1953 0839 05       		.byte	0x5
 1954 083a 8B       		.byte	0x8b
 1955 083b C8000000 		.4byte	0xc8
 1956 083f 05       		.uleb128 0x5
 1957 0840 03       		.byte	0x3
 1958 0841 00000000 		.4byte	bufferLCD1
 1959 0845 11       		.uleb128 0x11
 1960 0846 C2010000 		.4byte	.LASF117
 1961 084a 05       		.byte	0x5
 1962 084b 8C       		.byte	0x8c
 1963 084c C8000000 		.4byte	0xc8
 1964 0850 05       		.uleb128 0x5
 1965 0851 03       		.byte	0x3
 1966 0852 00000000 		.4byte	bufferLCD2
 1967 0856 11       		.uleb128 0x11
 1968 0857 9B000000 		.4byte	.LASF118
 1969 085b 05       		.byte	0x5
 1970 085c A5       		.byte	0xa5
 1971 085d D0040000 		.4byte	0x4d0
 1972 0861 05       		.uleb128 0x5
ARM GAS  C:\Users\Lenovo\AppData\Local\Temp\ccorJ0uR.s 			page 39


 1973 0862 03       		.byte	0x3
 1974 0863 00000000 		.4byte	side
 1975 0867 00       		.byte	0
 1976              		.section	.debug_abbrev,"",%progbits
 1977              	.Ldebug_abbrev0:
 1978 0000 01       		.uleb128 0x1
 1979 0001 11       		.uleb128 0x11
 1980 0002 01       		.byte	0x1
 1981 0003 25       		.uleb128 0x25
 1982 0004 0E       		.uleb128 0xe
 1983 0005 13       		.uleb128 0x13
 1984 0006 0B       		.uleb128 0xb
 1985 0007 03       		.uleb128 0x3
 1986 0008 0E       		.uleb128 0xe
 1987 0009 1B       		.uleb128 0x1b
 1988 000a 0E       		.uleb128 0xe
 1989 000b 55       		.uleb128 0x55
 1990 000c 17       		.uleb128 0x17
 1991 000d 11       		.uleb128 0x11
 1992 000e 01       		.uleb128 0x1
 1993 000f 10       		.uleb128 0x10
 1994 0010 17       		.uleb128 0x17
 1995 0011 00       		.byte	0
 1996 0012 00       		.byte	0
 1997 0013 02       		.uleb128 0x2
 1998 0014 24       		.uleb128 0x24
 1999 0015 00       		.byte	0
 2000 0016 0B       		.uleb128 0xb
 2001 0017 0B       		.uleb128 0xb
 2002 0018 3E       		.uleb128 0x3e
 2003 0019 0B       		.uleb128 0xb
 2004 001a 03       		.uleb128 0x3
 2005 001b 0E       		.uleb128 0xe
 2006 001c 00       		.byte	0
 2007 001d 00       		.byte	0
 2008 001e 03       		.uleb128 0x3
 2009 001f 16       		.uleb128 0x16
 2010 0020 00       		.byte	0
 2011 0021 03       		.uleb128 0x3
 2012 0022 0E       		.uleb128 0xe
 2013 0023 3A       		.uleb128 0x3a
 2014 0024 0B       		.uleb128 0xb
 2015 0025 3B       		.uleb128 0x3b
 2016 0026 0B       		.uleb128 0xb
 2017 0027 49       		.uleb128 0x49
 2018 0028 13       		.uleb128 0x13
 2019 0029 00       		.byte	0
 2020 002a 00       		.byte	0
 2021 002b 04       		.uleb128 0x4
 2022 002c 24       		.uleb128 0x24
 2023 002d 00       		.byte	0
 2024 002e 0B       		.uleb128 0xb
 2025 002f 0B       		.uleb128 0xb
 2026 0030 3E       		.uleb128 0x3e
 2027 0031 0B       		.uleb128 0xb
 2028 0032 03       		.uleb128 0x3
 2029 0033 08       		.uleb128 0x8
ARM GAS  C:\Users\Lenovo\AppData\Local\Temp\ccorJ0uR.s 			page 40


 2030 0034 00       		.byte	0
 2031 0035 00       		.byte	0
 2032 0036 05       		.uleb128 0x5
 2033 0037 35       		.uleb128 0x35
 2034 0038 00       		.byte	0
 2035 0039 49       		.uleb128 0x49
 2036 003a 13       		.uleb128 0x13
 2037 003b 00       		.byte	0
 2038 003c 00       		.byte	0
 2039 003d 06       		.uleb128 0x6
 2040 003e 13       		.uleb128 0x13
 2041 003f 01       		.byte	0x1
 2042 0040 03       		.uleb128 0x3
 2043 0041 0E       		.uleb128 0xe
 2044 0042 0B       		.uleb128 0xb
 2045 0043 05       		.uleb128 0x5
 2046 0044 3A       		.uleb128 0x3a
 2047 0045 0B       		.uleb128 0xb
 2048 0046 3B       		.uleb128 0x3b
 2049 0047 0B       		.uleb128 0xb
 2050 0048 01       		.uleb128 0x1
 2051 0049 13       		.uleb128 0x13
 2052 004a 00       		.byte	0
 2053 004b 00       		.byte	0
 2054 004c 07       		.uleb128 0x7
 2055 004d 0D       		.uleb128 0xd
 2056 004e 00       		.byte	0
 2057 004f 03       		.uleb128 0x3
 2058 0050 0E       		.uleb128 0xe
 2059 0051 3A       		.uleb128 0x3a
 2060 0052 0B       		.uleb128 0xb
 2061 0053 3B       		.uleb128 0x3b
 2062 0054 0B       		.uleb128 0xb
 2063 0055 49       		.uleb128 0x49
 2064 0056 13       		.uleb128 0x13
 2065 0057 38       		.uleb128 0x38
 2066 0058 0B       		.uleb128 0xb
 2067 0059 00       		.byte	0
 2068 005a 00       		.byte	0
 2069 005b 08       		.uleb128 0x8
 2070 005c 0D       		.uleb128 0xd
 2071 005d 00       		.byte	0
 2072 005e 03       		.uleb128 0x3
 2073 005f 0E       		.uleb128 0xe
 2074 0060 3A       		.uleb128 0x3a
 2075 0061 0B       		.uleb128 0xb
 2076 0062 3B       		.uleb128 0x3b
 2077 0063 0B       		.uleb128 0xb
 2078 0064 49       		.uleb128 0x49
 2079 0065 13       		.uleb128 0x13
 2080 0066 38       		.uleb128 0x38
 2081 0067 05       		.uleb128 0x5
 2082 0068 00       		.byte	0
 2083 0069 00       		.byte	0
 2084 006a 09       		.uleb128 0x9
 2085 006b 01       		.uleb128 0x1
 2086 006c 01       		.byte	0x1
ARM GAS  C:\Users\Lenovo\AppData\Local\Temp\ccorJ0uR.s 			page 41


 2087 006d 49       		.uleb128 0x49
 2088 006e 13       		.uleb128 0x13
 2089 006f 01       		.uleb128 0x1
 2090 0070 13       		.uleb128 0x13
 2091 0071 00       		.byte	0
 2092 0072 00       		.byte	0
 2093 0073 0A       		.uleb128 0xa
 2094 0074 21       		.uleb128 0x21
 2095 0075 00       		.byte	0
 2096 0076 49       		.uleb128 0x49
 2097 0077 13       		.uleb128 0x13
 2098 0078 2F       		.uleb128 0x2f
 2099 0079 0B       		.uleb128 0xb
 2100 007a 00       		.byte	0
 2101 007b 00       		.byte	0
 2102 007c 0B       		.uleb128 0xb
 2103 007d 0D       		.uleb128 0xd
 2104 007e 00       		.byte	0
 2105 007f 03       		.uleb128 0x3
 2106 0080 08       		.uleb128 0x8
 2107 0081 3A       		.uleb128 0x3a
 2108 0082 0B       		.uleb128 0xb
 2109 0083 3B       		.uleb128 0x3b
 2110 0084 0B       		.uleb128 0xb
 2111 0085 49       		.uleb128 0x49
 2112 0086 13       		.uleb128 0x13
 2113 0087 38       		.uleb128 0x38
 2114 0088 0B       		.uleb128 0xb
 2115 0089 00       		.byte	0
 2116 008a 00       		.byte	0
 2117 008b 0C       		.uleb128 0xc
 2118 008c 0D       		.uleb128 0xd
 2119 008d 00       		.byte	0
 2120 008e 03       		.uleb128 0x3
 2121 008f 08       		.uleb128 0x8
 2122 0090 3A       		.uleb128 0x3a
 2123 0091 0B       		.uleb128 0xb
 2124 0092 3B       		.uleb128 0x3b
 2125 0093 0B       		.uleb128 0xb
 2126 0094 49       		.uleb128 0x49
 2127 0095 13       		.uleb128 0x13
 2128 0096 38       		.uleb128 0x38
 2129 0097 05       		.uleb128 0x5
 2130 0098 00       		.byte	0
 2131 0099 00       		.byte	0
 2132 009a 0D       		.uleb128 0xd
 2133 009b 2E       		.uleb128 0x2e
 2134 009c 01       		.byte	0x1
 2135 009d 3F       		.uleb128 0x3f
 2136 009e 19       		.uleb128 0x19
 2137 009f 03       		.uleb128 0x3
 2138 00a0 0E       		.uleb128 0xe
 2139 00a1 3A       		.uleb128 0x3a
 2140 00a2 0B       		.uleb128 0xb
 2141 00a3 3B       		.uleb128 0x3b
 2142 00a4 0B       		.uleb128 0xb
 2143 00a5 27       		.uleb128 0x27
ARM GAS  C:\Users\Lenovo\AppData\Local\Temp\ccorJ0uR.s 			page 42


 2144 00a6 19       		.uleb128 0x19
 2145 00a7 49       		.uleb128 0x49
 2146 00a8 13       		.uleb128 0x13
 2147 00a9 11       		.uleb128 0x11
 2148 00aa 01       		.uleb128 0x1
 2149 00ab 12       		.uleb128 0x12
 2150 00ac 06       		.uleb128 0x6
 2151 00ad 40       		.uleb128 0x40
 2152 00ae 18       		.uleb128 0x18
 2153 00af 9642     		.uleb128 0x2116
 2154 00b1 19       		.uleb128 0x19
 2155 00b2 01       		.uleb128 0x1
 2156 00b3 13       		.uleb128 0x13
 2157 00b4 00       		.byte	0
 2158 00b5 00       		.byte	0
 2159 00b6 0E       		.uleb128 0xe
 2160 00b7 05       		.uleb128 0x5
 2161 00b8 00       		.byte	0
 2162 00b9 03       		.uleb128 0x3
 2163 00ba 08       		.uleb128 0x8
 2164 00bb 3A       		.uleb128 0x3a
 2165 00bc 0B       		.uleb128 0xb
 2166 00bd 3B       		.uleb128 0x3b
 2167 00be 0B       		.uleb128 0xb
 2168 00bf 49       		.uleb128 0x49
 2169 00c0 13       		.uleb128 0x13
 2170 00c1 02       		.uleb128 0x2
 2171 00c2 18       		.uleb128 0x18
 2172 00c3 00       		.byte	0
 2173 00c4 00       		.byte	0
 2174 00c5 0F       		.uleb128 0xf
 2175 00c6 05       		.uleb128 0x5
 2176 00c7 00       		.byte	0
 2177 00c8 03       		.uleb128 0x3
 2178 00c9 0E       		.uleb128 0xe
 2179 00ca 3A       		.uleb128 0x3a
 2180 00cb 0B       		.uleb128 0xb
 2181 00cc 3B       		.uleb128 0x3b
 2182 00cd 0B       		.uleb128 0xb
 2183 00ce 49       		.uleb128 0x49
 2184 00cf 13       		.uleb128 0x13
 2185 00d0 02       		.uleb128 0x2
 2186 00d1 18       		.uleb128 0x18
 2187 00d2 00       		.byte	0
 2188 00d3 00       		.byte	0
 2189 00d4 10       		.uleb128 0x10
 2190 00d5 34       		.uleb128 0x34
 2191 00d6 00       		.byte	0
 2192 00d7 03       		.uleb128 0x3
 2193 00d8 0E       		.uleb128 0xe
 2194 00d9 3A       		.uleb128 0x3a
 2195 00da 0B       		.uleb128 0xb
 2196 00db 3B       		.uleb128 0x3b
 2197 00dc 05       		.uleb128 0x5
 2198 00dd 49       		.uleb128 0x49
 2199 00de 13       		.uleb128 0x13
 2200 00df 3F       		.uleb128 0x3f
ARM GAS  C:\Users\Lenovo\AppData\Local\Temp\ccorJ0uR.s 			page 43


 2201 00e0 19       		.uleb128 0x19
 2202 00e1 3C       		.uleb128 0x3c
 2203 00e2 19       		.uleb128 0x19
 2204 00e3 00       		.byte	0
 2205 00e4 00       		.byte	0
 2206 00e5 11       		.uleb128 0x11
 2207 00e6 34       		.uleb128 0x34
 2208 00e7 00       		.byte	0
 2209 00e8 03       		.uleb128 0x3
 2210 00e9 0E       		.uleb128 0xe
 2211 00ea 3A       		.uleb128 0x3a
 2212 00eb 0B       		.uleb128 0xb
 2213 00ec 3B       		.uleb128 0x3b
 2214 00ed 0B       		.uleb128 0xb
 2215 00ee 49       		.uleb128 0x49
 2216 00ef 13       		.uleb128 0x13
 2217 00f0 3F       		.uleb128 0x3f
 2218 00f1 19       		.uleb128 0x19
 2219 00f2 02       		.uleb128 0x2
 2220 00f3 18       		.uleb128 0x18
 2221 00f4 00       		.byte	0
 2222 00f5 00       		.byte	0
 2223 00f6 00       		.byte	0
 2224              		.section	.debug_aranges,"",%progbits
 2225 0000 1C000000 		.4byte	0x1c
 2226 0004 0200     		.2byte	0x2
 2227 0006 00000000 		.4byte	.Ldebug_info0
 2228 000a 04       		.byte	0x4
 2229 000b 00       		.byte	0
 2230 000c 0000     		.2byte	0
 2231 000e 0000     		.2byte	0
 2232 0010 00000000 		.4byte	.LFB56
 2233 0014 54060000 		.4byte	.LFE56-.LFB56
 2234 0018 00000000 		.4byte	0
 2235 001c 00000000 		.4byte	0
 2236              		.section	.debug_ranges,"",%progbits
 2237              	.Ldebug_ranges0:
 2238 0000 00000000 		.4byte	.LFB56
 2239 0004 54060000 		.4byte	.LFE56
 2240 0008 00000000 		.4byte	0
 2241 000c 00000000 		.4byte	0
 2242              		.section	.debug_line,"",%progbits
 2243              	.Ldebug_line0:
 2244 0000 45020000 		.section	.debug_str,"MS",%progbits,1
 2244      02007201 
 2244      00000201 
 2244      FB0E0D00 
 2244      01010101 
 2245              	.LASF101:
 2246 0000 64656369 		.ascii	"decimalVolume\000"
 2246      6D616C56 
 2246      6F6C756D 
 2246      6500
 2247              	.LASF108:
 2248 000e 74656D70 		.ascii	"temporalCom\000"
 2248      6F72616C 
 2248      436F6D00 
ARM GAS  C:\Users\Lenovo\AppData\Local\Temp\ccorJ0uR.s 			page 44


 2249              	.LASF53:
 2250 001a 6D657373 		.ascii	"message\000"
 2250      61676500 
 2251              	.LASF68:
 2252 0022 62756666 		.ascii	"buffer\000"
 2252      657200
 2253              	.LASF122:
 2254 0029 616C7068 		.ascii	"alphanumeric_keyboard\000"
 2254      616E756D 
 2254      65726963 
 2254      5F6B6579 
 2254      626F6172 
 2255              	.LASF100:
 2256 003f 64656369 		.ascii	"decimalMoney\000"
 2256      6D616C4D 
 2256      6F6E6579 
 2256      00
 2257              	.LASF31:
 2258 004c 73616C65 		.ascii	"salePerform\000"
 2258      50657266 
 2258      6F726D00 
 2259              	.LASF8:
 2260 0058 756E7369 		.ascii	"unsigned int\000"
 2260      676E6564 
 2260      20696E74 
 2260      00
 2261              	.LASF58:
 2262 0065 70726F64 		.ascii	"productMarket\000"
 2262      7563744D 
 2262      61726B65 
 2262      7400
 2263              	.LASF9:
 2264 0073 5F5F696E 		.ascii	"__int32_t\000"
 2264      7433325F 
 2264      7400
 2265              	.LASF51:
 2266 007d 666C6167 		.ascii	"flagLiftHandle\000"
 2266      4C696674 
 2266      48616E64 
 2266      6C6500
 2267              	.LASF106:
 2268 008c 72657369 		.ascii	"residue\000"
 2268      64756500 
 2269              	.LASF18:
 2270 0094 69645479 		.ascii	"idType\000"
 2270      706500
 2271              	.LASF118:
 2272 009b 73696465 		.ascii	"side\000"
 2272      00
 2273              	.LASF23:
 2274 00a0 73656C65 		.ascii	"selectedSale\000"
 2274      63746564 
 2274      53616C65 
 2274      00
 2275              	.LASF59:
 2276 00ad 7175616E 		.ascii	"quantityMarket\000"
 2276      74697479 
ARM GAS  C:\Users\Lenovo\AppData\Local\Temp\ccorJ0uR.s 			page 45


 2276      4D61726B 
 2276      657400
 2277              	.LASF93:
 2278 00bc 666C6167 		.ascii	"flagPoint2\000"
 2278      506F696E 
 2278      743200
 2279              	.LASF79:
 2280 00c7 4C434431 		.ascii	"LCD1_rxBuffer\000"
 2280      5F727842 
 2280      75666665 
 2280      7200
 2281              	.LASF105:
 2282 00d5 73637265 		.ascii	"screen\000"
 2282      656E00
 2283              	.LASF55:
 2284 00dc 766F6C75 		.ascii	"volumeQuota\000"
 2284      6D655175 
 2284      6F746100 
 2285              	.LASF13:
 2286 00e8 666C6F61 		.ascii	"float\000"
 2286      7400
 2287              	.LASF121:
 2288 00ee 433A5C55 		.ascii	"C:\\Users\\Lenovo\\Desktop\\Hardware\\Software Mux\\"
 2288      73657273 
 2288      5C4C656E 
 2288      6F766F5C 
 2288      4465736B 
 2289 011c 4D757820 		.ascii	"Mux Advance Encore\\MuxAdvance.cydsn\000"
 2289      41647661 
 2289      6E636520 
 2289      456E636F 
 2289      72655C4D 
 2290              	.LASF7:
 2291 0140 6C6F6E67 		.ascii	"long long unsigned int\000"
 2291      206C6F6E 
 2291      6720756E 
 2291      7369676E 
 2291      65642069 
 2292              	.LASF80:
 2293 0157 4C434432 		.ascii	"LCD2_rxBuffer\000"
 2293      5F727842 
 2293      75666665 
 2293      7200
 2294              	.LASF41:
 2295 0165 746F7461 		.ascii	"totalVolumePrevious\000"
 2295      6C566F6C 
 2295      756D6550 
 2295      72657669 
 2295      6F757300 
 2296              	.LASF88:
 2297 0179 64696769 		.ascii	"digits\000"
 2297      747300
 2298              	.LASF103:
 2299 0180 74696D65 		.ascii	"time\000"
 2299      00
 2300              	.LASF34:
 2301 0185 70726F64 		.ascii	"productType\000"
ARM GAS  C:\Users\Lenovo\AppData\Local\Temp\ccorJ0uR.s 			page 46


 2301      75637454 
 2301      79706500 
 2302              	.LASF95:
 2303 0191 70726F64 		.ascii	"productNumber\000"
 2303      7563744E 
 2303      756D6265 
 2303      7200
 2304              	.LASF37:
 2305 019f 64617465 		.ascii	"dateDownHandle\000"
 2305      446F776E 
 2305      48616E64 
 2305      6C6500
 2306              	.LASF19:
 2307 01ae 69645365 		.ascii	"idSerial\000"
 2307      7269616C 
 2307      00
 2308              	.LASF116:
 2309 01b7 62756666 		.ascii	"bufferLCD1\000"
 2309      65724C43 
 2309      443100
 2310              	.LASF117:
 2311 01c2 62756666 		.ascii	"bufferLCD2\000"
 2311      65724C43 
 2311      443200
 2312              	.LASF120:
 2313 01cd 2E5C6B65 		.ascii	".\\keyboard.c\000"
 2313      79626F61 
 2313      72642E63 
 2313      00
 2314              	.LASF47:
 2315 01da 6D696C65 		.ascii	"mileageSale\000"
 2315      61676553 
 2315      616C6500 
 2316              	.LASF67:
 2317 01e6 666C6167 		.ascii	"flagChangePPU\000"
 2317      4368616E 
 2317      67655050 
 2317      5500
 2318              	.LASF78:
 2319 01f4 63686172 		.ascii	"character\000"
 2319      61637465 
 2319      7200
 2320              	.LASF94:
 2321 01fe 62757474 		.ascii	"button\000"
 2321      6F6E00
 2322              	.LASF89:
 2323 0205 69704164 		.ascii	"ipAdress\000"
 2323      72657373 
 2323      00
 2324              	.LASF57:
 2325 020e 73657269 		.ascii	"serialMarket\000"
 2325      616C4D61 
 2325      726B6574 
 2325      00
 2326              	.LASF70:
 2327 021b 746F7461 		.ascii	"totalsHandle\000"
 2327      6C734861 
ARM GAS  C:\Users\Lenovo\AppData\Local\Temp\ccorJ0uR.s 			page 47


 2327      6E646C65 
 2327      00
 2328              	.LASF33:
 2329 0228 70726573 		.ascii	"presetValue\000"
 2329      65745661 
 2329      6C756500 
 2330              	.LASF109:
 2331 0234 7475726E 		.ascii	"turn\000"
 2331      00
 2332              	.LASF48:
 2333 0239 6964656E 		.ascii	"identySale\000"
 2333      74795361 
 2333      6C6500
 2334              	.LASF86:
 2335 0244 666C6F77 		.ascii	"flowLCD1\000"
 2335      4C434431 
 2335      00
 2336              	.LASF87:
 2337 024d 666C6F77 		.ascii	"flowLCD2\000"
 2337      4C434432 
 2337      00
 2338              	.LASF30:
 2339 0256 73616C65 		.ascii	"saleType\000"
 2339      54797065 
 2339      00
 2340              	.LASF28:
 2341 025f 76616C75 		.ascii	"valueKeys\000"
 2341      654B6579 
 2341      7300
 2342              	.LASF16:
 2343 0269 63686172 		.ascii	"char\000"
 2343      00
 2344              	.LASF90:
 2345 026e 6E756D62 		.ascii	"numberKeys1\000"
 2345      65724B65 
 2345      79733100 
 2346              	.LASF91:
 2347 027a 6E756D62 		.ascii	"numberKeys2\000"
 2347      65724B65 
 2347      79733200 
 2348              	.LASF84:
 2349 0286 636F756E 		.ascii	"countBeagleTX\000"
 2349      74426561 
 2349      676C6554 
 2349      5800
 2350              	.LASF104:
 2351 0294 64617465 		.ascii	"date\000"
 2351      00
 2352              	.LASF50:
 2353 0299 666C6167 		.ascii	"flagPayment\000"
 2353      5061796D 
 2353      656E7400 
 2354              	.LASF20:
 2355 02a5 69645365 		.ascii	"idSerialCom\000"
 2355      7269616C 
 2355      436F6D00 
 2356              	.LASF56:
ARM GAS  C:\Users\Lenovo\AppData\Local\Temp\ccorJ0uR.s 			page 48


 2357 02b1 70707551 		.ascii	"ppuQuota\000"
 2357      756F7461 
 2357      00
 2358              	.LASF43:
 2359 02ba 746F7461 		.ascii	"totalMoneyAfter\000"
 2359      6C4D6F6E 
 2359      65794166 
 2359      74657200 
 2360              	.LASF54:
 2361 02ca 6D6F6E65 		.ascii	"moneyQuota\000"
 2361      7951756F 
 2361      746100
 2362              	.LASF66:
 2363 02d5 7072696E 		.ascii	"printers\000"
 2363      74657273 
 2363      00
 2364              	.LASF96:
 2365 02de 70726573 		.ascii	"presetFast\000"
 2365      65744661 
 2365      737400
 2366              	.LASF72:
 2367 02e9 6D6F6E65 		.ascii	"moneySale\000"
 2367      7953616C 
 2367      6500
 2368              	.LASF6:
 2369 02f3 6C6F6E67 		.ascii	"long long int\000"
 2369      206C6F6E 
 2369      6720696E 
 2369      7400
 2370              	.LASF74:
 2371 0301 70707553 		.ascii	"ppuSale\000"
 2371      616C6500 
 2372              	.LASF82:
 2373 0309 636F756E 		.ascii	"countAnimation1\000"
 2373      74416E69 
 2373      6D617469 
 2373      6F6E3100 
 2374              	.LASF115:
 2375 0319 73746174 		.ascii	"stateBeagleSoft\000"
 2375      65426561 
 2375      676C6553 
 2375      6F667400 
 2376              	.LASF42:
 2377 0329 746F7461 		.ascii	"totalPPUPrevious\000"
 2377      6C505055 
 2377      50726576 
 2377      696F7573 
 2377      00
 2378              	.LASF83:
 2379 033a 636F756E 		.ascii	"countAnimation2\000"
 2379      74416E69 
 2379      6D617469 
 2379      6F6E3200 
 2380              	.LASF63:
 2381 034a 746F7461 		.ascii	"totalMarket\000"
 2381      6C4D6172 
 2381      6B657400 
ARM GAS  C:\Users\Lenovo\AppData\Local\Temp\ccorJ0uR.s 			page 49


 2382              	.LASF119:
 2383 0356 474E5520 		.ascii	"GNU C 4.9.3 20150303 (release) [ARM/embedded-4_9-br"
 2383      4320342E 
 2383      392E3320 
 2383      32303135 
 2383      30333033 
 2384 0389 616E6368 		.ascii	"anch revision 221220] -mcpu=cortex-m3 -mthumb -g -O"
 2384      20726576 
 2384      6973696F 
 2384      6E203232 
 2384      31323230 
 2385 03bc 30202D66 		.ascii	"0 -ffunction-sections -ffat-lto-objects\000"
 2385      66756E63 
 2385      74696F6E 
 2385      2D736563 
 2385      74696F6E 
 2386              	.LASF39:
 2387 03e4 74696D65 		.ascii	"timeDownHandle\000"
 2387      446F776E 
 2387      48616E64 
 2387      6C6500
 2388              	.LASF29:
 2389 03f3 76656869 		.ascii	"vehicleType\000"
 2389      636C6554 
 2389      79706500 
 2390              	.LASF49:
 2391 03ff 666C6167 		.ascii	"flagKeyboard\000"
 2391      4B657962 
 2391      6F617264 
 2391      00
 2392              	.LASF12:
 2393 040c 75696E74 		.ascii	"uint32\000"
 2393      333200
 2394              	.LASF114:
 2395 0413 666C6167 		.ascii	"flagResetMux\000"
 2395      52657365 
 2395      744D7578 
 2395      00
 2396              	.LASF77:
 2397 0420 6D61784E 		.ascii	"maxNumberKeys\000"
 2397      756D6265 
 2397      724B6579 
 2397      7300
 2398              	.LASF45:
 2399 042e 746F7461 		.ascii	"totalPPUAfter\000"
 2399      6C505055 
 2399      41667465 
 2399      7200
 2400              	.LASF26:
 2401 043c 6B657962 		.ascii	"keyboardWayToPay\000"
 2401      6F617264 
 2401      57617954 
 2401      6F506179 
 2401      00
 2402              	.LASF99:
 2403 044d 70707578 		.ascii	"ppux10\000"
 2403      313000
ARM GAS  C:\Users\Lenovo\AppData\Local\Temp\ccorJ0uR.s 			page 50


 2404              	.LASF40:
 2405 0454 746F7461 		.ascii	"totalMoneyPrevious\000"
 2405      6C4D6F6E 
 2405      65795072 
 2405      6576696F 
 2405      757300
 2406              	.LASF92:
 2407 0467 666C6167 		.ascii	"flagPoint1\000"
 2407      506F696E 
 2407      743100
 2408              	.LASF24:
 2409 0472 6D6F6E65 		.ascii	"moneySelectedSale\000"
 2409      7953656C 
 2409      65637465 
 2409      6453616C 
 2409      6500
 2410              	.LASF102:
 2411 0484 73796D62 		.ascii	"symbols\000"
 2411      6F6C7300 
 2412              	.LASF46:
 2413 048c 6C696365 		.ascii	"licenceSale\000"
 2413      6E636553 
 2413      616C6500 
 2414              	.LASF65:
 2415 0498 70726963 		.ascii	"priceConsign\000"
 2415      65436F6E 
 2415      7369676E 
 2415      00
 2416              	.LASF2:
 2417 04a5 73686F72 		.ascii	"short int\000"
 2417      7420696E 
 2417      7400
 2418              	.LASF4:
 2419 04af 6C6F6E67 		.ascii	"long int\000"
 2419      20696E74 
 2419      00
 2420              	.LASF81:
 2421 04b8 49544D5F 		.ascii	"ITM_RxBuffer\000"
 2421      52784275 
 2421      66666572 
 2421      00
 2422              	.LASF110:
 2423 04c5 6C6F636B 		.ascii	"lockTurn\000"
 2423      5475726E 
 2423      00
 2424              	.LASF52:
 2425 04ce 666C6167 		.ascii	"flagEndSale\000"
 2425      456E6453 
 2425      616C6500 
 2426              	.LASF36:
 2427 04da 64617465 		.ascii	"dateLiftHandle\000"
 2427      4C696674 
 2427      48616E64 
 2427      6C6500
 2428              	.LASF113:
 2429 04e9 70617373 		.ascii	"passwordSeller\000"
 2429      776F7264 
ARM GAS  C:\Users\Lenovo\AppData\Local\Temp\ccorJ0uR.s 			page 51


 2429      53656C6C 
 2429      657200
 2430              	.LASF44:
 2431 04f8 746F7461 		.ascii	"totalVolumeAfter\000"
 2431      6C566F6C 
 2431      756D6541 
 2431      66746572 
 2431      00
 2432              	.LASF15:
 2433 0509 75696E74 		.ascii	"uint64\000"
 2433      363400
 2434              	.LASF97:
 2435 0510 64656C61 		.ascii	"delayPicture1\000"
 2435      79506963 
 2435      74757265 
 2435      3100
 2436              	.LASF98:
 2437 051e 64656C61 		.ascii	"delayPicture2\000"
 2437      79506963 
 2437      74757265 
 2437      3200
 2438              	.LASF35:
 2439 052c 73746174 		.ascii	"stateMux\000"
 2439      654D7578 
 2439      00
 2440              	.LASF17:
 2441 0535 73697A65 		.ascii	"sizetype\000"
 2441      74797065 
 2441      00
 2442              	.LASF5:
 2443 053e 6C6F6E67 		.ascii	"long unsigned int\000"
 2443      20756E73 
 2443      69676E65 
 2443      6420696E 
 2443      7400
 2444              	.LASF112:
 2445 0550 74797065 		.ascii	"typeIdSeller\000"
 2445      49645365 
 2445      6C6C6572 
 2445      00
 2446              	.LASF64:
 2447 055d 666C6167 		.ascii	"flagProductmarket\000"
 2447      50726F64 
 2447      7563746D 
 2447      61726B65 
 2447      7400
 2448              	.LASF10:
 2449 056f 696E7433 		.ascii	"int32_t\000"
 2449      325F7400 
 2450              	.LASF60:
 2451 0577 7175616E 		.ascii	"quantAvailableMark\000"
 2451      74417661 
 2451      696C6162 
 2451      6C654D61 
 2451      726B00
 2452              	.LASF22:
 2453 058a 666C6167 		.ascii	"flagWayToPayMixed\000"
ARM GAS  C:\Users\Lenovo\AppData\Local\Temp\ccorJ0uR.s 			page 52


 2453      57617954 
 2453      6F506179 
 2453      4D697865 
 2453      6400
 2454              	.LASF1:
 2455 059c 756E7369 		.ascii	"unsigned char\000"
 2455      676E6564 
 2455      20636861 
 2455      7200
 2456              	.LASF27:
 2457 05aa 61757468 		.ascii	"authorizationFlag\000"
 2457      6F72697A 
 2457      6174696F 
 2457      6E466C61 
 2457      6700
 2458              	.LASF61:
 2459 05bc 70726963 		.ascii	"priceTotalMarket\000"
 2459      65546F74 
 2459      616C4D61 
 2459      726B6574 
 2459      00
 2460              	.LASF111:
 2461 05cd 69645365 		.ascii	"idSeller\000"
 2461      6C6C6572 
 2461      00
 2462              	.LASF76:
 2463 05d6 70756D70 		.ascii	"pump\000"
 2463      00
 2464              	.LASF107:
 2465 05db 74656D70 		.ascii	"temporal\000"
 2465      6F72616C 
 2465      00
 2466              	.LASF32:
 2467 05e4 70726573 		.ascii	"presetType\000"
 2467      65745479 
 2467      706500
 2468              	.LASF62:
 2469 05ef 70726963 		.ascii	"priceUnitMarket\000"
 2469      65556E69 
 2469      744D6172 
 2469      6B657400 
 2470              	.LASF73:
 2471 05ff 766F6C75 		.ascii	"volumeSale\000"
 2471      6D655361 
 2471      6C6500
 2472              	.LASF0:
 2473 060a 7369676E 		.ascii	"signed char\000"
 2473      65642063 
 2473      68617200 
 2474              	.LASF3:
 2475 0616 73686F72 		.ascii	"short unsigned int\000"
 2475      7420756E 
 2475      7369676E 
 2475      65642069 
 2475      6E7400
 2476              	.LASF85:
 2477 0629 636F756E 		.ascii	"countPump\000"
ARM GAS  C:\Users\Lenovo\AppData\Local\Temp\ccorJ0uR.s 			page 53


 2477      7450756D 
 2477      7000
 2478              	.LASF75:
 2479 0633 70726F64 		.ascii	"productSale\000"
 2479      75637453 
 2479      616C6500 
 2480              	.LASF11:
 2481 063f 75696E74 		.ascii	"uint8\000"
 2481      3800
 2482              	.LASF14:
 2483 0645 646F7562 		.ascii	"double\000"
 2483      6C6500
 2484              	.LASF21:
 2485 064c 77617954 		.ascii	"wayToPay\000"
 2485      6F506179 
 2485      00
 2486              	.LASF38:
 2487 0655 74696D65 		.ascii	"timeLiftHandle\000"
 2487      4C696674 
 2487      48616E64 
 2487      6C6500
 2488              	.LASF71:
 2489 0664 70707541 		.ascii	"ppuAuthorized\000"
 2489      7574686F 
 2489      72697A65 
 2489      6400
 2490              	.LASF25:
 2491 0672 73657269 		.ascii	"serialSelectedSale\000"
 2491      616C5365 
 2491      6C656374 
 2491      65645361 
 2491      6C6500
 2492              	.LASF69:
 2493 0685 706F7369 		.ascii	"position\000"
 2493      74696F6E 
 2493      00
 2494              		.ident	"GCC: (GNU Tools for ARM Embedded Processors) 4.9.3 20150303 (release) [ARM/embedded-4_9-br
