ARM GAS  C:\Users\PROYEC~1\AppData\Local\Temp\cczrWv2r.s 			page 1


   1              		.syntax unified
   2              		.cpu cortex-m3
   3              		.fpu softvfp
   4              		.eabi_attribute 20, 1
   5              		.eabi_attribute 21, 1
   6              		.eabi_attribute 23, 3
   7              		.eabi_attribute 24, 1
   8              		.eabi_attribute 25, 1
   9              		.eabi_attribute 26, 1
  10              		.eabi_attribute 30, 6
  11              		.eabi_attribute 34, 1
  12              		.eabi_attribute 18, 4
  13              		.thumb
  14              		.file	"keyboard.c"
  15              		.text
  16              	.Ltext0:
  17              		.cfi_sections	.debug_frame
  18              		.comm	countAnimation1,8,8
  19              		.comm	countAnimation2,8,8
  20              		.comm	countBeagleTX,8,8
  21              		.comm	flowLCD1,4,4
  22              		.comm	flowLCD2,4,4
  23              		.comm	digits,1,1
  24              		.comm	ipAdress,12,4
  25              		.comm	numberKeys1,1,1
  26              		.comm	numberKeys2,1,1
  27              		.comm	flagPoint1,1,1
  28              		.comm	flagPoint2,1,1
  29              		.comm	button,960,4
  30              		.comm	productNumber,1,1
  31              		.comm	presetFast,30,4
  32              		.comm	delayPicture1,4,4
  33              		.comm	delayPicture2,4,4
  34              		.comm	ppux10,1,1
  35              		.comm	decimalMoney,1,1
  36              		.comm	decimalVolume,1,1
  37              		.comm	symbols,2,4
  38              		.comm	time,3,4
  39              		.comm	date,3,4
  40              		.comm	screen,2,4
  41              		.comm	residue,14,4
  42              		.comm	temporal,30,4
  43              		.comm	turn,1,1
  44              		.comm	idSeller,25,4
  45              		.comm	typeIdSeller,1,1
  46              		.comm	passwordSeller,8,4
  47              		.comm	flagResetMux,1,1
  48              		.comm	bufferLCD1,635,4
  49              		.comm	bufferLCD2,635,4
  50              		.comm	side,512,4
  51              		.section	.text.alphanumeric_keyboard,"ax",%progbits
  52              		.align	2
  53              		.global	alphanumeric_keyboard
  54              		.thumb
  55              		.thumb_func
  56              		.type	alphanumeric_keyboard, %function
  57              	alphanumeric_keyboard:
ARM GAS  C:\Users\PROYEC~1\AppData\Local\Temp\cczrWv2r.s 			page 2


  58              	.LFB56:
  59              		.file 1 ".\\keyboard.c"
   1:.\keyboard.c  **** /*
   2:.\keyboard.c  **** ***************************************************************************************************
   3:.\keyboard.c  **** *                                         MUX ADVANCE CODE
   4:.\keyboard.c  **** *
   5:.\keyboard.c  **** *                             (c) Copyright 2016; Sistemas Insepet LTDA
   6:.\keyboard.c  **** *
   7:.\keyboard.c  **** *               All rights reserved.  Protected by international copyright laws.
   8:.\keyboard.c  **** *               Knowledge of the source code may NOT be used to develop a similar product.
   9:.\keyboard.c  **** *               Please help us continue to provide the Embedded community with the finest
  10:.\keyboard.c  **** *               software available.  Your honesty is greatly appreciated.
  11:.\keyboard.c  **** ***************************************************************************************************
  12:.\keyboard.c  **** */
  13:.\keyboard.c  **** 
  14:.\keyboard.c  **** /*
  15:.\keyboard.c  **** ***************************************************************************************************
  16:.\keyboard.c  **** *
  17:.\keyboard.c  **** *                                            MUX ADVANCE CODE
  18:.\keyboard.c  **** *
  19:.\keyboard.c  **** *                                             CYPRESS PSoC5LP
  20:.\keyboard.c  **** *                                                with the
  21:.\keyboard.c  **** *                                            CY8C5969AXI-LP035
  22:.\keyboard.c  **** *
  23:.\keyboard.c  **** * Filename      : keyboard.c
  24:.\keyboard.c  **** * Version       : V1.00
  25:.\keyboard.c  **** * Programmer(s) : 
  26:.\keyboard.c  ****                   
  27:.\keyboard.c  **** ***************************************************************************************************
  28:.\keyboard.c  **** */
  29:.\keyboard.c  **** 
  30:.\keyboard.c  **** /*
  31:.\keyboard.c  **** ***************************************************************************************************
  32:.\keyboard.c  **** *                                             INCLUDE FILES
  33:.\keyboard.c  **** ***************************************************************************************************
  34:.\keyboard.c  **** */
  35:.\keyboard.c  **** 
  36:.\keyboard.c  **** #include <device.h>
  37:.\keyboard.c  **** #include "variables.h"
  38:.\keyboard.c  **** #include "LCD.h"
  39:.\keyboard.c  **** 
  40:.\keyboard.c  **** /*
  41:.\keyboard.c  **** ***************************************************************************************************
  42:.\keyboard.c  **** *               uint8 alphanumeric_keyboard(uint8 lcd, uint8 maxNumberKeys, uint8 character)
  43:.\keyboard.c  **** *
  44:.\keyboard.c  **** * Description : 
  45:.\keyboard.c  **** *               
  46:.\keyboard.c  **** *
  47:.\keyboard.c  **** * Argument(s) : none
  48:.\keyboard.c  **** *
  49:.\keyboard.c  **** * Return(s)   : none
  50:.\keyboard.c  **** *
  51:.\keyboard.c  **** * Caller(s)   :  
  52:.\keyboard.c  **** *
  53:.\keyboard.c  **** * Note(s)     : none.
  54:.\keyboard.c  **** ***************************************************************************************************
  55:.\keyboard.c  **** */
ARM GAS  C:\Users\PROYEC~1\AppData\Local\Temp\cczrWv2r.s 			page 3


  56:.\keyboard.c  **** 
  57:.\keyboard.c  **** uint8 alphanumeric_keyboard(uint8 lcd, uint8 maxNumberKeys, uint8 character){
  60              		.loc 1 57 0
  61              		.cfi_startproc
  62              		@ args = 0, pretend = 0, frame = 8
  63              		@ frame_needed = 1, uses_anonymous_args = 0
  64 0000 90B5     		push	{r4, r7, lr}
  65              		.cfi_def_cfa_offset 12
  66              		.cfi_offset 4, -12
  67              		.cfi_offset 7, -8
  68              		.cfi_offset 14, -4
  69 0002 87B0     		sub	sp, sp, #28
  70              		.cfi_def_cfa_offset 40
  71 0004 04AF     		add	r7, sp, #16
  72              		.cfi_def_cfa 7, 24
  73 0006 0346     		mov	r3, r0
  74 0008 FB71     		strb	r3, [r7, #7]
  75 000a 0B46     		mov	r3, r1
  76 000c BB71     		strb	r3, [r7, #6]
  77 000e 1346     		mov	r3, r2
  78 0010 7B71     		strb	r3, [r7, #5]
  58:.\keyboard.c  ****     if(lcd==1){
  79              		.loc 1 58 0
  80 0012 FB79     		ldrb	r3, [r7, #7]	@ zero_extendqisi2
  81 0014 012B     		cmp	r3, #1
  82 0016 40F08481 		bne	.L2
  59:.\keyboard.c  ****         if(LCD1_GetRxBufferSize()==8){
  83              		.loc 1 59 0
  84 001a FFF7FEFF 		bl	LCD1_GetRxBufferSize
  85 001e 0346     		mov	r3, r0
  86 0020 082B     		cmp	r3, #8
  87 0022 40F00983 		bne	.L18
  60:.\keyboard.c  ****             if((LCD1_rxBuffer[0]==0xAA) && (LCD1_rxBuffer[6]==0xC3) && (LCD1_rxBuffer[7]==0x3C)){
  88              		.loc 1 60 0
  89 0026 924B     		ldr	r3, .L32
  90 0028 1B78     		ldrb	r3, [r3]
  91 002a DBB2     		uxtb	r3, r3
  92 002c AA2B     		cmp	r3, #170
  93 002e 40F07281 		bne	.L4
  94              		.loc 1 60 0 is_stmt 0 discriminator 1
  95 0032 8F4B     		ldr	r3, .L32
  96 0034 9B79     		ldrb	r3, [r3, #6]
  97 0036 DBB2     		uxtb	r3, r3
  98 0038 C32B     		cmp	r3, #195
  99 003a 40F06C81 		bne	.L4
 100              		.loc 1 60 0 discriminator 2
 101 003e 8C4B     		ldr	r3, .L32
 102 0040 DB79     		ldrb	r3, [r3, #7]
 103 0042 DBB2     		uxtb	r3, r3
 104 0044 3C2B     		cmp	r3, #60
 105 0046 40F06681 		bne	.L4
  61:.\keyboard.c  ****                 countAnimation1=0;
 106              		.loc 1 61 0 is_stmt 1
 107 004a 8A49     		ldr	r1, .L32+4
 108 004c 4FF00002 		mov	r2, #0
 109 0050 4FF00003 		mov	r3, #0
 110 0054 C1E90023 		strd	r2, [r1]
ARM GAS  C:\Users\PROYEC~1\AppData\Local\Temp\cczrWv2r.s 			page 4


  62:.\keyboard.c  ****                 if(numberKeys1<=(maxNumberKeys-1)){
 111              		.loc 1 62 0
 112 0058 874B     		ldr	r3, .L32+8
 113 005a 1B78     		ldrb	r3, [r3]
 114 005c DBB2     		uxtb	r3, r3
 115 005e 1A46     		mov	r2, r3
 116 0060 BB79     		ldrb	r3, [r7, #6]	@ zero_extendqisi2
 117 0062 013B     		subs	r3, r3, #1
 118 0064 9A42     		cmp	r2, r3
 119 0066 00F3F180 		bgt	.L5
  63:.\keyboard.c  ****                     if(LCD1_rxBuffer[3]>=0x20 && LCD1_rxBuffer[3]<=0x2B){ //Comandos ascii sin incl
 120              		.loc 1 63 0
 121 006a 814B     		ldr	r3, .L32
 122 006c DB78     		ldrb	r3, [r3, #3]
 123 006e DBB2     		uxtb	r3, r3
 124 0070 1F2B     		cmp	r3, #31
 125 0072 48D9     		bls	.L6
 126              		.loc 1 63 0 is_stmt 0 discriminator 1
 127 0074 7E4B     		ldr	r3, .L32
 128 0076 DB78     		ldrb	r3, [r3, #3]
 129 0078 DBB2     		uxtb	r3, r3
 130 007a 2B2B     		cmp	r3, #43
 131 007c 43D8     		bhi	.L6
  64:.\keyboard.c  ****                         numberKeys1++;  
 132              		.loc 1 64 0 is_stmt 1
 133 007e 7E4B     		ldr	r3, .L32+8
 134 0080 1B78     		ldrb	r3, [r3]
 135 0082 DBB2     		uxtb	r3, r3
 136 0084 0133     		adds	r3, r3, #1
 137 0086 DAB2     		uxtb	r2, r3
 138 0088 7B4B     		ldr	r3, .L32+8
 139 008a 1A70     		strb	r2, [r3]
  65:.\keyboard.c  ****                         bufferLCD1.valueKeys[numberKeys1]=LCD1_rxBuffer[3];
 140              		.loc 1 65 0
 141 008c 7A4B     		ldr	r3, .L32+8
 142 008e 1B78     		ldrb	r3, [r3]
 143 0090 DBB2     		uxtb	r3, r3
 144 0092 1946     		mov	r1, r3
 145 0094 764B     		ldr	r3, .L32
 146 0096 DB78     		ldrb	r3, [r3, #3]
 147 0098 DAB2     		uxtb	r2, r3
 148 009a 784B     		ldr	r3, .L32+12
 149 009c 0B44     		add	r3, r3, r1
 150 009e 83F84A20 		strb	r2, [r3, #74]
  66:.\keyboard.c  ****                         if(character==0){
 151              		.loc 1 66 0
 152 00a2 7B79     		ldrb	r3, [r7, #5]	@ zero_extendqisi2
 153 00a4 002B     		cmp	r3, #0
 154 00a6 1AD1     		bne	.L7
  67:.\keyboard.c  ****                             write_LCD(1,bufferLCD1.valueKeys[numberKeys1],2,numberKeys1+2,1,0x0000,
 155              		.loc 1 67 0
 156 00a8 734B     		ldr	r3, .L32+8
 157 00aa 1B78     		ldrb	r3, [r3]
 158 00ac DBB2     		uxtb	r3, r3
 159 00ae 1A46     		mov	r2, r3
 160 00b0 724B     		ldr	r3, .L32+12
 161 00b2 1344     		add	r3, r3, r2
ARM GAS  C:\Users\PROYEC~1\AppData\Local\Temp\cczrWv2r.s 			page 5


 162 00b4 93F84A20 		ldrb	r2, [r3, #74]	@ zero_extendqisi2
 163 00b8 6F4B     		ldr	r3, .L32+8
 164 00ba 1B78     		ldrb	r3, [r3]
 165 00bc DBB2     		uxtb	r3, r3
 166 00be 9BB2     		uxth	r3, r3
 167 00c0 0233     		adds	r3, r3, #2
 168 00c2 9CB2     		uxth	r4, r3
 169 00c4 0123     		movs	r3, #1
 170 00c6 0093     		str	r3, [sp]
 171 00c8 0023     		movs	r3, #0
 172 00ca 0193     		str	r3, [sp, #4]
 173 00cc 4E23     		movs	r3, #78
 174 00ce 0293     		str	r3, [sp, #8]
 175 00d0 0120     		movs	r0, #1
 176 00d2 1146     		mov	r1, r2
 177 00d4 0222     		movs	r2, #2
 178 00d6 2346     		mov	r3, r4
 179 00d8 FFF7FEFF 		bl	write_LCD
  66:.\keyboard.c  ****                         if(character==0){
 180              		.loc 1 66 0
 181 00dc B6E0     		b	.L5
 182              	.L7:
  68:.\keyboard.c  ****                         }else{
  69:.\keyboard.c  ****                             write_LCD(1,character,2,numberKeys1+2,1,0x0000,'N');
 183              		.loc 1 69 0
 184 00de 664B     		ldr	r3, .L32+8
 185 00e0 1B78     		ldrb	r3, [r3]
 186 00e2 DBB2     		uxtb	r3, r3
 187 00e4 9BB2     		uxth	r3, r3
 188 00e6 0233     		adds	r3, r3, #2
 189 00e8 9CB2     		uxth	r4, r3
 190 00ea 7A79     		ldrb	r2, [r7, #5]	@ zero_extendqisi2
 191 00ec 0123     		movs	r3, #1
 192 00ee 0093     		str	r3, [sp]
 193 00f0 0023     		movs	r3, #0
 194 00f2 0193     		str	r3, [sp, #4]
 195 00f4 4E23     		movs	r3, #78
 196 00f6 0293     		str	r3, [sp, #8]
 197 00f8 0120     		movs	r0, #1
 198 00fa 1146     		mov	r1, r2
 199 00fc 0222     		movs	r2, #2
 200 00fe 2346     		mov	r3, r4
 201 0100 FFF7FEFF 		bl	write_LCD
  66:.\keyboard.c  ****                             write_LCD(1,bufferLCD1.valueKeys[numberKeys1],2,numberKeys1+2,1,0x0000,
 202              		.loc 1 66 0
 203 0104 A2E0     		b	.L5
 204              	.L6:
  70:.\keyboard.c  ****                         }
  71:.\keyboard.c  ****                     }else if(LCD1_rxBuffer[3]>=0x2D && LCD1_rxBuffer[3]<=0x7E){ //Comandos ascii si
 205              		.loc 1 71 0
 206 0106 5A4B     		ldr	r3, .L32
 207 0108 DB78     		ldrb	r3, [r3, #3]
 208 010a DBB2     		uxtb	r3, r3
 209 010c 2C2B     		cmp	r3, #44
 210 010e 48D9     		bls	.L9
 211              		.loc 1 71 0 is_stmt 0 discriminator 1
 212 0110 574B     		ldr	r3, .L32
ARM GAS  C:\Users\PROYEC~1\AppData\Local\Temp\cczrWv2r.s 			page 6


 213 0112 DB78     		ldrb	r3, [r3, #3]
 214 0114 DBB2     		uxtb	r3, r3
 215 0116 7E2B     		cmp	r3, #126
 216 0118 43D8     		bhi	.L9
  72:.\keyboard.c  ****                         numberKeys1++;  
 217              		.loc 1 72 0 is_stmt 1
 218 011a 574B     		ldr	r3, .L32+8
 219 011c 1B78     		ldrb	r3, [r3]
 220 011e DBB2     		uxtb	r3, r3
 221 0120 0133     		adds	r3, r3, #1
 222 0122 DAB2     		uxtb	r2, r3
 223 0124 544B     		ldr	r3, .L32+8
 224 0126 1A70     		strb	r2, [r3]
  73:.\keyboard.c  ****                         bufferLCD1.valueKeys[numberKeys1]=LCD1_rxBuffer[3];
 225              		.loc 1 73 0
 226 0128 534B     		ldr	r3, .L32+8
 227 012a 1B78     		ldrb	r3, [r3]
 228 012c DBB2     		uxtb	r3, r3
 229 012e 1946     		mov	r1, r3
 230 0130 4F4B     		ldr	r3, .L32
 231 0132 DB78     		ldrb	r3, [r3, #3]
 232 0134 DAB2     		uxtb	r2, r3
 233 0136 514B     		ldr	r3, .L32+12
 234 0138 0B44     		add	r3, r3, r1
 235 013a 83F84A20 		strb	r2, [r3, #74]
  74:.\keyboard.c  ****                         if(character==0){
 236              		.loc 1 74 0
 237 013e 7B79     		ldrb	r3, [r7, #5]	@ zero_extendqisi2
 238 0140 002B     		cmp	r3, #0
 239 0142 1AD1     		bne	.L10
  75:.\keyboard.c  ****                             write_LCD(1,bufferLCD1.valueKeys[numberKeys1],2,numberKeys1+2,1,0x0000,
 240              		.loc 1 75 0
 241 0144 4C4B     		ldr	r3, .L32+8
 242 0146 1B78     		ldrb	r3, [r3]
 243 0148 DBB2     		uxtb	r3, r3
 244 014a 1A46     		mov	r2, r3
 245 014c 4B4B     		ldr	r3, .L32+12
 246 014e 1344     		add	r3, r3, r2
 247 0150 93F84A20 		ldrb	r2, [r3, #74]	@ zero_extendqisi2
 248 0154 484B     		ldr	r3, .L32+8
 249 0156 1B78     		ldrb	r3, [r3]
 250 0158 DBB2     		uxtb	r3, r3
 251 015a 9BB2     		uxth	r3, r3
 252 015c 0233     		adds	r3, r3, #2
 253 015e 9CB2     		uxth	r4, r3
 254 0160 0123     		movs	r3, #1
 255 0162 0093     		str	r3, [sp]
 256 0164 0023     		movs	r3, #0
 257 0166 0193     		str	r3, [sp, #4]
 258 0168 4E23     		movs	r3, #78
 259 016a 0293     		str	r3, [sp, #8]
 260 016c 0120     		movs	r0, #1
 261 016e 1146     		mov	r1, r2
 262 0170 0222     		movs	r2, #2
 263 0172 2346     		mov	r3, r4
 264 0174 FFF7FEFF 		bl	write_LCD
  74:.\keyboard.c  ****                         if(character==0){
ARM GAS  C:\Users\PROYEC~1\AppData\Local\Temp\cczrWv2r.s 			page 7


 265              		.loc 1 74 0
 266 0178 68E0     		b	.L5
 267              	.L10:
  76:.\keyboard.c  ****                         }else{
  77:.\keyboard.c  ****                             write_LCD(1,character,2,numberKeys1+2,1,0x0000,'N');
 268              		.loc 1 77 0
 269 017a 3F4B     		ldr	r3, .L32+8
 270 017c 1B78     		ldrb	r3, [r3]
 271 017e DBB2     		uxtb	r3, r3
 272 0180 9BB2     		uxth	r3, r3
 273 0182 0233     		adds	r3, r3, #2
 274 0184 9CB2     		uxth	r4, r3
 275 0186 7A79     		ldrb	r2, [r7, #5]	@ zero_extendqisi2
 276 0188 0123     		movs	r3, #1
 277 018a 0093     		str	r3, [sp]
 278 018c 0023     		movs	r3, #0
 279 018e 0193     		str	r3, [sp, #4]
 280 0190 4E23     		movs	r3, #78
 281 0192 0293     		str	r3, [sp, #8]
 282 0194 0120     		movs	r0, #1
 283 0196 1146     		mov	r1, r2
 284 0198 0222     		movs	r2, #2
 285 019a 2346     		mov	r3, r4
 286 019c FFF7FEFF 		bl	write_LCD
  74:.\keyboard.c  ****                             write_LCD(1,bufferLCD1.valueKeys[numberKeys1],2,numberKeys1+2,1,0x0000,
 287              		.loc 1 74 0
 288 01a0 54E0     		b	.L5
 289              	.L9:
  78:.\keyboard.c  ****                         }
  79:.\keyboard.c  ****                     }else if(LCD1_rxBuffer[3]==',' && numberKeys1>=1 && flagPoint1==0){  //Coma (,)
 290              		.loc 1 79 0
 291 01a2 334B     		ldr	r3, .L32
 292 01a4 DB78     		ldrb	r3, [r3, #3]
 293 01a6 DBB2     		uxtb	r3, r3
 294 01a8 2C2B     		cmp	r3, #44
 295 01aa 4FD1     		bne	.L5
 296              		.loc 1 79 0 is_stmt 0 discriminator 1
 297 01ac 324B     		ldr	r3, .L32+8
 298 01ae 1B78     		ldrb	r3, [r3]
 299 01b0 DBB2     		uxtb	r3, r3
 300 01b2 002B     		cmp	r3, #0
 301 01b4 4AD0     		beq	.L5
 302              		.loc 1 79 0 discriminator 2
 303 01b6 324B     		ldr	r3, .L32+16
 304 01b8 1B78     		ldrb	r3, [r3]
 305 01ba DBB2     		uxtb	r3, r3
 306 01bc 002B     		cmp	r3, #0
 307 01be 45D1     		bne	.L5
  80:.\keyboard.c  ****                         numberKeys1++;  
 308              		.loc 1 80 0 is_stmt 1
 309 01c0 2D4B     		ldr	r3, .L32+8
 310 01c2 1B78     		ldrb	r3, [r3]
 311 01c4 DBB2     		uxtb	r3, r3
 312 01c6 0133     		adds	r3, r3, #1
 313 01c8 DAB2     		uxtb	r2, r3
 314 01ca 2B4B     		ldr	r3, .L32+8
 315 01cc 1A70     		strb	r2, [r3]
ARM GAS  C:\Users\PROYEC~1\AppData\Local\Temp\cczrWv2r.s 			page 8


  81:.\keyboard.c  ****                         flagPoint1=1;
 316              		.loc 1 81 0
 317 01ce 2C4B     		ldr	r3, .L32+16
 318 01d0 0122     		movs	r2, #1
 319 01d2 1A70     		strb	r2, [r3]
  82:.\keyboard.c  ****                         bufferLCD1.valueKeys[numberKeys1]=LCD1_rxBuffer[3];
 320              		.loc 1 82 0
 321 01d4 284B     		ldr	r3, .L32+8
 322 01d6 1B78     		ldrb	r3, [r3]
 323 01d8 DBB2     		uxtb	r3, r3
 324 01da 1946     		mov	r1, r3
 325 01dc 244B     		ldr	r3, .L32
 326 01de DB78     		ldrb	r3, [r3, #3]
 327 01e0 DAB2     		uxtb	r2, r3
 328 01e2 264B     		ldr	r3, .L32+12
 329 01e4 0B44     		add	r3, r3, r1
 330 01e6 83F84A20 		strb	r2, [r3, #74]
  83:.\keyboard.c  ****                         if(character==0){
 331              		.loc 1 83 0
 332 01ea 7B79     		ldrb	r3, [r7, #5]	@ zero_extendqisi2
 333 01ec 002B     		cmp	r3, #0
 334 01ee 1AD1     		bne	.L12
  84:.\keyboard.c  ****                             write_LCD(1,bufferLCD1.valueKeys[numberKeys1],2,numberKeys1+2,1,0x0000,
 335              		.loc 1 84 0
 336 01f0 214B     		ldr	r3, .L32+8
 337 01f2 1B78     		ldrb	r3, [r3]
 338 01f4 DBB2     		uxtb	r3, r3
 339 01f6 1A46     		mov	r2, r3
 340 01f8 204B     		ldr	r3, .L32+12
 341 01fa 1344     		add	r3, r3, r2
 342 01fc 93F84A20 		ldrb	r2, [r3, #74]	@ zero_extendqisi2
 343 0200 1D4B     		ldr	r3, .L32+8
 344 0202 1B78     		ldrb	r3, [r3]
 345 0204 DBB2     		uxtb	r3, r3
 346 0206 9BB2     		uxth	r3, r3
 347 0208 0233     		adds	r3, r3, #2
 348 020a 9CB2     		uxth	r4, r3
 349 020c 0123     		movs	r3, #1
 350 020e 0093     		str	r3, [sp]
 351 0210 0023     		movs	r3, #0
 352 0212 0193     		str	r3, [sp, #4]
 353 0214 4E23     		movs	r3, #78
 354 0216 0293     		str	r3, [sp, #8]
 355 0218 0120     		movs	r0, #1
 356 021a 1146     		mov	r1, r2
 357 021c 0222     		movs	r2, #2
 358 021e 2346     		mov	r3, r4
 359 0220 FFF7FEFF 		bl	write_LCD
 360 0224 12E0     		b	.L5
 361              	.L12:
  85:.\keyboard.c  ****                         }else{
  86:.\keyboard.c  ****                             write_LCD(1,character,2,numberKeys1+2,1,0x0000,'N');
 362              		.loc 1 86 0
 363 0226 144B     		ldr	r3, .L32+8
 364 0228 1B78     		ldrb	r3, [r3]
 365 022a DBB2     		uxtb	r3, r3
 366 022c 9BB2     		uxth	r3, r3
ARM GAS  C:\Users\PROYEC~1\AppData\Local\Temp\cczrWv2r.s 			page 9


 367 022e 0233     		adds	r3, r3, #2
 368 0230 9CB2     		uxth	r4, r3
 369 0232 7A79     		ldrb	r2, [r7, #5]	@ zero_extendqisi2
 370 0234 0123     		movs	r3, #1
 371 0236 0093     		str	r3, [sp]
 372 0238 0023     		movs	r3, #0
 373 023a 0193     		str	r3, [sp, #4]
 374 023c 4E23     		movs	r3, #78
 375 023e 0293     		str	r3, [sp, #8]
 376 0240 0120     		movs	r0, #1
 377 0242 1146     		mov	r1, r2
 378 0244 0222     		movs	r2, #2
 379 0246 2346     		mov	r3, r4
 380 0248 FFF7FEFF 		bl	write_LCD
 381              	.L5:
  87:.\keyboard.c  ****                         }
  88:.\keyboard.c  ****                     }
  89:.\keyboard.c  ****                 }  
  90:.\keyboard.c  ****                 if(LCD1_rxBuffer[3]==0x0B){ //Borrar
 382              		.loc 1 90 0
 383 024c 084B     		ldr	r3, .L32
 384 024e DB78     		ldrb	r3, [r3, #3]
 385 0250 DBB2     		uxtb	r3, r3
 386 0252 0B2B     		cmp	r3, #11
 387 0254 3CD1     		bne	.L13
  91:.\keyboard.c  ****                     if(numberKeys1==0){		//Si no ha presionado nada regresa al menu anterior
 388              		.loc 1 91 0
 389 0256 084B     		ldr	r3, .L32+8
 390 0258 1B78     		ldrb	r3, [r3]
 391 025a DBB2     		uxtb	r3, r3
 392 025c 002B     		cmp	r3, #0
 393 025e 11D1     		bne	.L14
  92:.\keyboard.c  ****                         CyDelay(20);         
 394              		.loc 1 92 0
 395 0260 1420     		movs	r0, #20
 396 0262 FFF7FEFF 		bl	CyDelay
  93:.\keyboard.c  ****                         LCD1_ClearRxBuffer();
 397              		.loc 1 93 0
 398 0266 FFF7FEFF 		bl	LCD1_ClearRxBuffer
  94:.\keyboard.c  ****                         return 0;
 399              		.loc 1 94 0
 400 026a 0023     		movs	r3, #0
 401 026c E5E1     		b	.L15
 402              	.L33:
 403 026e 00BF     		.align	2
 404              	.L32:
 405 0270 00000000 		.word	LCD1_rxBuffer
 406 0274 00000000 		.word	countAnimation1
 407 0278 00000000 		.word	numberKeys1
 408 027c 00000000 		.word	bufferLCD1
 409 0280 00000000 		.word	flagPoint1
 410              	.L14:
  95:.\keyboard.c  ****                     }
  96:.\keyboard.c  ****                     else{
  97:.\keyboard.c  ****                         write_LCD(1,' ',2,numberKeys1+2,1,0x0000,'N');	//Si ya presiono borra el da
 411              		.loc 1 97 0
 412 0284 AA4B     		ldr	r3, .L34
ARM GAS  C:\Users\PROYEC~1\AppData\Local\Temp\cczrWv2r.s 			page 10


 413 0286 1B78     		ldrb	r3, [r3]
 414 0288 DBB2     		uxtb	r3, r3
 415 028a 9BB2     		uxth	r3, r3
 416 028c 0233     		adds	r3, r3, #2
 417 028e 9CB2     		uxth	r4, r3
 418 0290 0123     		movs	r3, #1
 419 0292 0093     		str	r3, [sp]
 420 0294 0023     		movs	r3, #0
 421 0296 0193     		str	r3, [sp, #4]
 422 0298 4E23     		movs	r3, #78
 423 029a 0293     		str	r3, [sp, #8]
 424 029c 0120     		movs	r0, #1
 425 029e 2021     		movs	r1, #32
 426 02a0 0222     		movs	r2, #2
 427 02a2 2346     		mov	r3, r4
 428 02a4 FFF7FEFF 		bl	write_LCD
  98:.\keyboard.c  ****                         if(bufferLCD1.valueKeys[numberKeys1]==0x2C){
 429              		.loc 1 98 0
 430 02a8 A14B     		ldr	r3, .L34
 431 02aa 1B78     		ldrb	r3, [r3]
 432 02ac DBB2     		uxtb	r3, r3
 433 02ae 1A46     		mov	r2, r3
 434 02b0 A04B     		ldr	r3, .L34+4
 435 02b2 1344     		add	r3, r3, r2
 436 02b4 93F84A30 		ldrb	r3, [r3, #74]	@ zero_extendqisi2
 437 02b8 2C2B     		cmp	r3, #44
 438 02ba 02D1     		bne	.L16
  99:.\keyboard.c  ****                             flagPoint1=0;
 439              		.loc 1 99 0
 440 02bc 9E4B     		ldr	r3, .L34+8
 441 02be 0022     		movs	r2, #0
 442 02c0 1A70     		strb	r2, [r3]
 443              	.L16:
 100:.\keyboard.c  ****                         }
 101:.\keyboard.c  ****                         numberKeys1--;
 444              		.loc 1 101 0
 445 02c2 9B4B     		ldr	r3, .L34
 446 02c4 1B78     		ldrb	r3, [r3]
 447 02c6 DBB2     		uxtb	r3, r3
 448 02c8 013B     		subs	r3, r3, #1
 449 02ca DAB2     		uxtb	r2, r3
 450 02cc 984B     		ldr	r3, .L34
 451 02ce 1A70     		strb	r2, [r3]
 452              	.L13:
 102:.\keyboard.c  ****                     }
 103:.\keyboard.c  ****                 }
 104:.\keyboard.c  ****                 if(LCD1_rxBuffer[3]==0x0A){ //Enter
 453              		.loc 1 104 0
 454 02d0 9A4B     		ldr	r3, .L34+12
 455 02d2 DB78     		ldrb	r3, [r3, #3]
 456 02d4 DBB2     		uxtb	r3, r3
 457 02d6 0A2B     		cmp	r3, #10
 458 02d8 11D1     		bne	.L17
 105:.\keyboard.c  ****                     if(numberKeys1>0){
 459              		.loc 1 105 0
 460 02da 954B     		ldr	r3, .L34
 461 02dc 1B78     		ldrb	r3, [r3]
ARM GAS  C:\Users\PROYEC~1\AppData\Local\Temp\cczrWv2r.s 			page 11


 462 02de DBB2     		uxtb	r3, r3
 463 02e0 002B     		cmp	r3, #0
 464 02e2 0CD0     		beq	.L17
 106:.\keyboard.c  ****                         bufferLCD1.valueKeys[0]=numberKeys1;
 465              		.loc 1 106 0
 466 02e4 924B     		ldr	r3, .L34
 467 02e6 1B78     		ldrb	r3, [r3]
 468 02e8 DAB2     		uxtb	r2, r3
 469 02ea 924B     		ldr	r3, .L34+4
 470 02ec 83F84A20 		strb	r2, [r3, #74]
 107:.\keyboard.c  ****                         CyDelay(20);         
 471              		.loc 1 107 0
 472 02f0 1420     		movs	r0, #20
 473 02f2 FFF7FEFF 		bl	CyDelay
 108:.\keyboard.c  ****                         LCD1_ClearRxBuffer();
 474              		.loc 1 108 0
 475 02f6 FFF7FEFF 		bl	LCD1_ClearRxBuffer
 109:.\keyboard.c  ****                         return 1;
 476              		.loc 1 109 0
 477 02fa 0123     		movs	r3, #1
 478 02fc 9DE1     		b	.L15
 479              	.L17:
 110:.\keyboard.c  ****                     }
 111:.\keyboard.c  ****                 }
 112:.\keyboard.c  ****                 if(LCD1_rxBuffer[3]==0x0F){ //Atras
 480              		.loc 1 112 0
 481 02fe 8F4B     		ldr	r3, .L34+12
 482 0300 DB78     		ldrb	r3, [r3, #3]
 483 0302 DBB2     		uxtb	r3, r3
 484 0304 0F2B     		cmp	r3, #15
 485 0306 06D1     		bne	.L4
 113:.\keyboard.c  ****                     CyDelay(20);         
 486              		.loc 1 113 0
 487 0308 1420     		movs	r0, #20
 488 030a FFF7FEFF 		bl	CyDelay
 114:.\keyboard.c  ****                     LCD1_ClearRxBuffer();
 489              		.loc 1 114 0
 490 030e FFF7FEFF 		bl	LCD1_ClearRxBuffer
 115:.\keyboard.c  ****                     return 0;
 491              		.loc 1 115 0
 492 0312 0023     		movs	r3, #0
 493 0314 91E1     		b	.L15
 494              	.L4:
 116:.\keyboard.c  ****                 }
 117:.\keyboard.c  ****             } 
 118:.\keyboard.c  ****             CyDelay(20);         
 495              		.loc 1 118 0
 496 0316 1420     		movs	r0, #20
 497 0318 FFF7FEFF 		bl	CyDelay
 119:.\keyboard.c  ****             LCD1_ClearRxBuffer();
 498              		.loc 1 119 0
 499 031c FFF7FEFF 		bl	LCD1_ClearRxBuffer
 500 0320 8AE1     		b	.L18
 501              	.L2:
 120:.\keyboard.c  ****         }
 121:.\keyboard.c  ****     }else{
 122:.\keyboard.c  ****         if(LCD2_GetRxBufferSize()==8){
ARM GAS  C:\Users\PROYEC~1\AppData\Local\Temp\cczrWv2r.s 			page 12


 502              		.loc 1 122 0
 503 0322 FFF7FEFF 		bl	LCD2_GetRxBufferSize
 504 0326 0346     		mov	r3, r0
 505 0328 082B     		cmp	r3, #8
 506 032a 40F08581 		bne	.L18
 123:.\keyboard.c  ****             if((LCD2_rxBuffer[0]==0xAA) && (LCD2_rxBuffer[6]==0xC3) && (LCD2_rxBuffer[7]==0x3C)){
 507              		.loc 1 123 0
 508 032e 844B     		ldr	r3, .L34+16
 509 0330 1B78     		ldrb	r3, [r3]
 510 0332 DBB2     		uxtb	r3, r3
 511 0334 AA2B     		cmp	r3, #170
 512 0336 40F07A81 		bne	.L19
 513              		.loc 1 123 0 is_stmt 0 discriminator 1
 514 033a 814B     		ldr	r3, .L34+16
 515 033c 9B79     		ldrb	r3, [r3, #6]
 516 033e DBB2     		uxtb	r3, r3
 517 0340 C32B     		cmp	r3, #195
 518 0342 40F07481 		bne	.L19
 519              		.loc 1 123 0 discriminator 2
 520 0346 7E4B     		ldr	r3, .L34+16
 521 0348 DB79     		ldrb	r3, [r3, #7]
 522 034a DBB2     		uxtb	r3, r3
 523 034c 3C2B     		cmp	r3, #60
 524 034e 40F06E81 		bne	.L19
 124:.\keyboard.c  ****                 countAnimation2=0;
 525              		.loc 1 124 0 is_stmt 1
 526 0352 7C49     		ldr	r1, .L34+20
 527 0354 4FF00002 		mov	r2, #0
 528 0358 4FF00003 		mov	r3, #0
 529 035c C1E90023 		strd	r2, [r1]
 125:.\keyboard.c  ****                 if(numberKeys2<=(maxNumberKeys-1)){
 530              		.loc 1 125 0
 531 0360 794B     		ldr	r3, .L34+24
 532 0362 1B78     		ldrb	r3, [r3]
 533 0364 DBB2     		uxtb	r3, r3
 534 0366 1A46     		mov	r2, r3
 535 0368 BB79     		ldrb	r3, [r7, #6]	@ zero_extendqisi2
 536 036a 013B     		subs	r3, r3, #1
 537 036c 9A42     		cmp	r2, r3
 538 036e 00F30481 		bgt	.L20
 126:.\keyboard.c  ****                     if(LCD2_rxBuffer[3]>=0x20 && LCD2_rxBuffer[3]<=0x2B){ //Comandos ascii sin incl
 539              		.loc 1 126 0
 540 0372 734B     		ldr	r3, .L34+16
 541 0374 DB78     		ldrb	r3, [r3, #3]
 542 0376 DBB2     		uxtb	r3, r3
 543 0378 1F2B     		cmp	r3, #31
 544 037a 48D9     		bls	.L21
 545              		.loc 1 126 0 is_stmt 0 discriminator 1
 546 037c 704B     		ldr	r3, .L34+16
 547 037e DB78     		ldrb	r3, [r3, #3]
 548 0380 DBB2     		uxtb	r3, r3
 549 0382 2B2B     		cmp	r3, #43
 550 0384 43D8     		bhi	.L21
 127:.\keyboard.c  ****                         numberKeys2++;  
 551              		.loc 1 127 0 is_stmt 1
 552 0386 704B     		ldr	r3, .L34+24
 553 0388 1B78     		ldrb	r3, [r3]
ARM GAS  C:\Users\PROYEC~1\AppData\Local\Temp\cczrWv2r.s 			page 13


 554 038a DBB2     		uxtb	r3, r3
 555 038c 0133     		adds	r3, r3, #1
 556 038e DAB2     		uxtb	r2, r3
 557 0390 6D4B     		ldr	r3, .L34+24
 558 0392 1A70     		strb	r2, [r3]
 128:.\keyboard.c  ****                         bufferLCD2.valueKeys[numberKeys2]=LCD2_rxBuffer[3];
 559              		.loc 1 128 0
 560 0394 6C4B     		ldr	r3, .L34+24
 561 0396 1B78     		ldrb	r3, [r3]
 562 0398 DBB2     		uxtb	r3, r3
 563 039a 1946     		mov	r1, r3
 564 039c 684B     		ldr	r3, .L34+16
 565 039e DB78     		ldrb	r3, [r3, #3]
 566 03a0 DAB2     		uxtb	r2, r3
 567 03a2 6A4B     		ldr	r3, .L34+28
 568 03a4 0B44     		add	r3, r3, r1
 569 03a6 83F84A20 		strb	r2, [r3, #74]
 129:.\keyboard.c  ****                         if(character==0){
 570              		.loc 1 129 0
 571 03aa 7B79     		ldrb	r3, [r7, #5]	@ zero_extendqisi2
 572 03ac 002B     		cmp	r3, #0
 573 03ae 1AD1     		bne	.L22
 130:.\keyboard.c  ****                             write_LCD(2,bufferLCD2.valueKeys[numberKeys2],2,numberKeys2+2,1,0x0000,
 574              		.loc 1 130 0
 575 03b0 654B     		ldr	r3, .L34+24
 576 03b2 1B78     		ldrb	r3, [r3]
 577 03b4 DBB2     		uxtb	r3, r3
 578 03b6 1A46     		mov	r2, r3
 579 03b8 644B     		ldr	r3, .L34+28
 580 03ba 1344     		add	r3, r3, r2
 581 03bc 93F84A20 		ldrb	r2, [r3, #74]	@ zero_extendqisi2
 582 03c0 614B     		ldr	r3, .L34+24
 583 03c2 1B78     		ldrb	r3, [r3]
 584 03c4 DBB2     		uxtb	r3, r3
 585 03c6 9BB2     		uxth	r3, r3
 586 03c8 0233     		adds	r3, r3, #2
 587 03ca 9CB2     		uxth	r4, r3
 588 03cc 0123     		movs	r3, #1
 589 03ce 0093     		str	r3, [sp]
 590 03d0 0023     		movs	r3, #0
 591 03d2 0193     		str	r3, [sp, #4]
 592 03d4 4E23     		movs	r3, #78
 593 03d6 0293     		str	r3, [sp, #8]
 594 03d8 0220     		movs	r0, #2
 595 03da 1146     		mov	r1, r2
 596 03dc 0222     		movs	r2, #2
 597 03de 2346     		mov	r3, r4
 598 03e0 FFF7FEFF 		bl	write_LCD
 129:.\keyboard.c  ****                         if(character==0){
 599              		.loc 1 129 0
 600 03e4 C9E0     		b	.L20
 601              	.L22:
 131:.\keyboard.c  ****                         }else{
 132:.\keyboard.c  ****                             write_LCD(2,character,2,numberKeys2+2,1,0x0000,'N');
 602              		.loc 1 132 0
 603 03e6 584B     		ldr	r3, .L34+24
 604 03e8 1B78     		ldrb	r3, [r3]
ARM GAS  C:\Users\PROYEC~1\AppData\Local\Temp\cczrWv2r.s 			page 14


 605 03ea DBB2     		uxtb	r3, r3
 606 03ec 9BB2     		uxth	r3, r3
 607 03ee 0233     		adds	r3, r3, #2
 608 03f0 9CB2     		uxth	r4, r3
 609 03f2 7A79     		ldrb	r2, [r7, #5]	@ zero_extendqisi2
 610 03f4 0123     		movs	r3, #1
 611 03f6 0093     		str	r3, [sp]
 612 03f8 0023     		movs	r3, #0
 613 03fa 0193     		str	r3, [sp, #4]
 614 03fc 4E23     		movs	r3, #78
 615 03fe 0293     		str	r3, [sp, #8]
 616 0400 0220     		movs	r0, #2
 617 0402 1146     		mov	r1, r2
 618 0404 0222     		movs	r2, #2
 619 0406 2346     		mov	r3, r4
 620 0408 FFF7FEFF 		bl	write_LCD
 129:.\keyboard.c  ****                             write_LCD(2,bufferLCD2.valueKeys[numberKeys2],2,numberKeys2+2,1,0x0000,
 621              		.loc 1 129 0
 622 040c B5E0     		b	.L20
 623              	.L21:
 133:.\keyboard.c  ****                         }
 134:.\keyboard.c  ****                     }else if(LCD2_rxBuffer[3]>=0x2D && LCD2_rxBuffer[3]<=0x7E){ //Comandos ascii si
 624              		.loc 1 134 0
 625 040e 4C4B     		ldr	r3, .L34+16
 626 0410 DB78     		ldrb	r3, [r3, #3]
 627 0412 DBB2     		uxtb	r3, r3
 628 0414 2C2B     		cmp	r3, #44
 629 0416 48D9     		bls	.L24
 630              		.loc 1 134 0 is_stmt 0 discriminator 1
 631 0418 494B     		ldr	r3, .L34+16
 632 041a DB78     		ldrb	r3, [r3, #3]
 633 041c DBB2     		uxtb	r3, r3
 634 041e 7E2B     		cmp	r3, #126
 635 0420 43D8     		bhi	.L24
 135:.\keyboard.c  ****                         numberKeys2++;  
 636              		.loc 1 135 0 is_stmt 1
 637 0422 494B     		ldr	r3, .L34+24
 638 0424 1B78     		ldrb	r3, [r3]
 639 0426 DBB2     		uxtb	r3, r3
 640 0428 0133     		adds	r3, r3, #1
 641 042a DAB2     		uxtb	r2, r3
 642 042c 464B     		ldr	r3, .L34+24
 643 042e 1A70     		strb	r2, [r3]
 136:.\keyboard.c  ****                         bufferLCD2.valueKeys[numberKeys2]=LCD2_rxBuffer[3];
 644              		.loc 1 136 0
 645 0430 454B     		ldr	r3, .L34+24
 646 0432 1B78     		ldrb	r3, [r3]
 647 0434 DBB2     		uxtb	r3, r3
 648 0436 1946     		mov	r1, r3
 649 0438 414B     		ldr	r3, .L34+16
 650 043a DB78     		ldrb	r3, [r3, #3]
 651 043c DAB2     		uxtb	r2, r3
 652 043e 434B     		ldr	r3, .L34+28
 653 0440 0B44     		add	r3, r3, r1
 654 0442 83F84A20 		strb	r2, [r3, #74]
 137:.\keyboard.c  ****                         if(character==0){
 655              		.loc 1 137 0
ARM GAS  C:\Users\PROYEC~1\AppData\Local\Temp\cczrWv2r.s 			page 15


 656 0446 7B79     		ldrb	r3, [r7, #5]	@ zero_extendqisi2
 657 0448 002B     		cmp	r3, #0
 658 044a 1AD1     		bne	.L25
 138:.\keyboard.c  ****                             write_LCD(2,bufferLCD2.valueKeys[numberKeys2],2,numberKeys2+2,1,0x0000,
 659              		.loc 1 138 0
 660 044c 3E4B     		ldr	r3, .L34+24
 661 044e 1B78     		ldrb	r3, [r3]
 662 0450 DBB2     		uxtb	r3, r3
 663 0452 1A46     		mov	r2, r3
 664 0454 3D4B     		ldr	r3, .L34+28
 665 0456 1344     		add	r3, r3, r2
 666 0458 93F84A20 		ldrb	r2, [r3, #74]	@ zero_extendqisi2
 667 045c 3A4B     		ldr	r3, .L34+24
 668 045e 1B78     		ldrb	r3, [r3]
 669 0460 DBB2     		uxtb	r3, r3
 670 0462 9BB2     		uxth	r3, r3
 671 0464 0233     		adds	r3, r3, #2
 672 0466 9CB2     		uxth	r4, r3
 673 0468 0123     		movs	r3, #1
 674 046a 0093     		str	r3, [sp]
 675 046c 0023     		movs	r3, #0
 676 046e 0193     		str	r3, [sp, #4]
 677 0470 4E23     		movs	r3, #78
 678 0472 0293     		str	r3, [sp, #8]
 679 0474 0220     		movs	r0, #2
 680 0476 1146     		mov	r1, r2
 681 0478 0222     		movs	r2, #2
 682 047a 2346     		mov	r3, r4
 683 047c FFF7FEFF 		bl	write_LCD
 137:.\keyboard.c  ****                         if(character==0){
 684              		.loc 1 137 0
 685 0480 7BE0     		b	.L20
 686              	.L25:
 139:.\keyboard.c  ****                         }else{
 140:.\keyboard.c  ****                             write_LCD(2,character,2,numberKeys2+2,1,0x0000,'N');
 687              		.loc 1 140 0
 688 0482 314B     		ldr	r3, .L34+24
 689 0484 1B78     		ldrb	r3, [r3]
 690 0486 DBB2     		uxtb	r3, r3
 691 0488 9BB2     		uxth	r3, r3
 692 048a 0233     		adds	r3, r3, #2
 693 048c 9CB2     		uxth	r4, r3
 694 048e 7A79     		ldrb	r2, [r7, #5]	@ zero_extendqisi2
 695 0490 0123     		movs	r3, #1
 696 0492 0093     		str	r3, [sp]
 697 0494 0023     		movs	r3, #0
 698 0496 0193     		str	r3, [sp, #4]
 699 0498 4E23     		movs	r3, #78
 700 049a 0293     		str	r3, [sp, #8]
 701 049c 0220     		movs	r0, #2
 702 049e 1146     		mov	r1, r2
 703 04a0 0222     		movs	r2, #2
 704 04a2 2346     		mov	r3, r4
 705 04a4 FFF7FEFF 		bl	write_LCD
 137:.\keyboard.c  ****                             write_LCD(2,bufferLCD2.valueKeys[numberKeys2],2,numberKeys2+2,1,0x0000,
 706              		.loc 1 137 0
 707 04a8 67E0     		b	.L20
ARM GAS  C:\Users\PROYEC~1\AppData\Local\Temp\cczrWv2r.s 			page 16


 708              	.L24:
 141:.\keyboard.c  ****                         }
 142:.\keyboard.c  ****                     }else if(LCD2_rxBuffer[3]==',' && numberKeys2>=1 && flagPoint2==0){  //Coma (,)
 709              		.loc 1 142 0
 710 04aa 254B     		ldr	r3, .L34+16
 711 04ac DB78     		ldrb	r3, [r3, #3]
 712 04ae DBB2     		uxtb	r3, r3
 713 04b0 2C2B     		cmp	r3, #44
 714 04b2 62D1     		bne	.L20
 715              		.loc 1 142 0 is_stmt 0 discriminator 1
 716 04b4 244B     		ldr	r3, .L34+24
 717 04b6 1B78     		ldrb	r3, [r3]
 718 04b8 DBB2     		uxtb	r3, r3
 719 04ba 002B     		cmp	r3, #0
 720 04bc 5DD0     		beq	.L20
 721              		.loc 1 142 0 discriminator 2
 722 04be 244B     		ldr	r3, .L34+32
 723 04c0 1B78     		ldrb	r3, [r3]
 724 04c2 DBB2     		uxtb	r3, r3
 725 04c4 002B     		cmp	r3, #0
 726 04c6 58D1     		bne	.L20
 143:.\keyboard.c  ****                         numberKeys2++;  
 727              		.loc 1 143 0 is_stmt 1
 728 04c8 1F4B     		ldr	r3, .L34+24
 729 04ca 1B78     		ldrb	r3, [r3]
 730 04cc DBB2     		uxtb	r3, r3
 731 04ce 0133     		adds	r3, r3, #1
 732 04d0 DAB2     		uxtb	r2, r3
 733 04d2 1D4B     		ldr	r3, .L34+24
 734 04d4 1A70     		strb	r2, [r3]
 144:.\keyboard.c  ****                         flagPoint2=1;
 735              		.loc 1 144 0
 736 04d6 1E4B     		ldr	r3, .L34+32
 737 04d8 0122     		movs	r2, #1
 738 04da 1A70     		strb	r2, [r3]
 145:.\keyboard.c  ****                         bufferLCD2.valueKeys[numberKeys2]=LCD2_rxBuffer[3];
 739              		.loc 1 145 0
 740 04dc 1A4B     		ldr	r3, .L34+24
 741 04de 1B78     		ldrb	r3, [r3]
 742 04e0 DBB2     		uxtb	r3, r3
 743 04e2 1946     		mov	r1, r3
 744 04e4 164B     		ldr	r3, .L34+16
 745 04e6 DB78     		ldrb	r3, [r3, #3]
 746 04e8 DAB2     		uxtb	r2, r3
 747 04ea 184B     		ldr	r3, .L34+28
 748 04ec 0B44     		add	r3, r3, r1
 749 04ee 83F84A20 		strb	r2, [r3, #74]
 146:.\keyboard.c  ****                         if(character==0){
 750              		.loc 1 146 0
 751 04f2 7B79     		ldrb	r3, [r7, #5]	@ zero_extendqisi2
 752 04f4 002B     		cmp	r3, #0
 753 04f6 2DD1     		bne	.L27
 147:.\keyboard.c  ****                             write_LCD(2,bufferLCD2.valueKeys[numberKeys2],2,numberKeys2+2,1,0x0000,
 754              		.loc 1 147 0
 755 04f8 134B     		ldr	r3, .L34+24
 756 04fa 1B78     		ldrb	r3, [r3]
 757 04fc DBB2     		uxtb	r3, r3
ARM GAS  C:\Users\PROYEC~1\AppData\Local\Temp\cczrWv2r.s 			page 17


 758 04fe 1A46     		mov	r2, r3
 759 0500 124B     		ldr	r3, .L34+28
 760 0502 1344     		add	r3, r3, r2
 761 0504 93F84A20 		ldrb	r2, [r3, #74]	@ zero_extendqisi2
 762 0508 0F4B     		ldr	r3, .L34+24
 763 050a 1B78     		ldrb	r3, [r3]
 764 050c DBB2     		uxtb	r3, r3
 765 050e 9BB2     		uxth	r3, r3
 766 0510 0233     		adds	r3, r3, #2
 767 0512 9CB2     		uxth	r4, r3
 768 0514 0123     		movs	r3, #1
 769 0516 0093     		str	r3, [sp]
 770 0518 0023     		movs	r3, #0
 771 051a 0193     		str	r3, [sp, #4]
 772 051c 4E23     		movs	r3, #78
 773 051e 0293     		str	r3, [sp, #8]
 774 0520 0220     		movs	r0, #2
 775 0522 1146     		mov	r1, r2
 776 0524 0222     		movs	r2, #2
 777 0526 2346     		mov	r3, r4
 778 0528 FFF7FEFF 		bl	write_LCD
 779 052c 25E0     		b	.L20
 780              	.L35:
 781 052e 00BF     		.align	2
 782              	.L34:
 783 0530 00000000 		.word	numberKeys1
 784 0534 00000000 		.word	bufferLCD1
 785 0538 00000000 		.word	flagPoint1
 786 053c 00000000 		.word	LCD1_rxBuffer
 787 0540 00000000 		.word	LCD2_rxBuffer
 788 0544 00000000 		.word	countAnimation2
 789 0548 00000000 		.word	numberKeys2
 790 054c 00000000 		.word	bufferLCD2
 791 0550 00000000 		.word	flagPoint2
 792              	.L27:
 148:.\keyboard.c  ****                         }else{
 149:.\keyboard.c  ****                             write_LCD(2,character,2,numberKeys2+2,1,0x0000,'N');
 793              		.loc 1 149 0
 794 0554 3B4B     		ldr	r3, .L36
 795 0556 1B78     		ldrb	r3, [r3]
 796 0558 DBB2     		uxtb	r3, r3
 797 055a 9BB2     		uxth	r3, r3
 798 055c 0233     		adds	r3, r3, #2
 799 055e 9CB2     		uxth	r4, r3
 800 0560 7A79     		ldrb	r2, [r7, #5]	@ zero_extendqisi2
 801 0562 0123     		movs	r3, #1
 802 0564 0093     		str	r3, [sp]
 803 0566 0023     		movs	r3, #0
 804 0568 0193     		str	r3, [sp, #4]
 805 056a 4E23     		movs	r3, #78
 806 056c 0293     		str	r3, [sp, #8]
 807 056e 0220     		movs	r0, #2
 808 0570 1146     		mov	r1, r2
 809 0572 0222     		movs	r2, #2
 810 0574 2346     		mov	r3, r4
 811 0576 FFF7FEFF 		bl	write_LCD
 812              	.L20:
ARM GAS  C:\Users\PROYEC~1\AppData\Local\Temp\cczrWv2r.s 			page 18


 150:.\keyboard.c  ****                         }
 151:.\keyboard.c  ****                     }
 152:.\keyboard.c  ****                 }
 153:.\keyboard.c  ****                 if(LCD2_rxBuffer[3]==0x0B){ //Borrar
 813              		.loc 1 153 0
 814 057a 334B     		ldr	r3, .L36+4
 815 057c DB78     		ldrb	r3, [r3, #3]
 816 057e DBB2     		uxtb	r3, r3
 817 0580 0B2B     		cmp	r3, #11
 818 0582 31D1     		bne	.L28
 154:.\keyboard.c  ****                     if(numberKeys2==0){		//Si no ha presionado nada regresa al menu anterior
 819              		.loc 1 154 0
 820 0584 2F4B     		ldr	r3, .L36
 821 0586 1B78     		ldrb	r3, [r3]
 822 0588 DBB2     		uxtb	r3, r3
 823 058a 002B     		cmp	r3, #0
 824 058c 06D1     		bne	.L29
 155:.\keyboard.c  ****                         CyDelay(20);         
 825              		.loc 1 155 0
 826 058e 1420     		movs	r0, #20
 827 0590 FFF7FEFF 		bl	CyDelay
 156:.\keyboard.c  ****                         LCD2_ClearRxBuffer();
 828              		.loc 1 156 0
 829 0594 FFF7FEFF 		bl	LCD2_ClearRxBuffer
 157:.\keyboard.c  ****                         return 0;
 830              		.loc 1 157 0
 831 0598 0023     		movs	r3, #0
 832 059a 4EE0     		b	.L15
 833              	.L29:
 158:.\keyboard.c  ****                     }
 159:.\keyboard.c  ****                     else{
 160:.\keyboard.c  ****                         write_LCD(2,' ',2,numberKeys2+2,1,0x0000,'N');	//Si ya presiono borra el da
 834              		.loc 1 160 0
 835 059c 294B     		ldr	r3, .L36
 836 059e 1B78     		ldrb	r3, [r3]
 837 05a0 DBB2     		uxtb	r3, r3
 838 05a2 9BB2     		uxth	r3, r3
 839 05a4 0233     		adds	r3, r3, #2
 840 05a6 9CB2     		uxth	r4, r3
 841 05a8 0123     		movs	r3, #1
 842 05aa 0093     		str	r3, [sp]
 843 05ac 0023     		movs	r3, #0
 844 05ae 0193     		str	r3, [sp, #4]
 845 05b0 4E23     		movs	r3, #78
 846 05b2 0293     		str	r3, [sp, #8]
 847 05b4 0220     		movs	r0, #2
 848 05b6 2021     		movs	r1, #32
 849 05b8 0222     		movs	r2, #2
 850 05ba 2346     		mov	r3, r4
 851 05bc FFF7FEFF 		bl	write_LCD
 161:.\keyboard.c  ****                         if(bufferLCD2.valueKeys[numberKeys2]==0x2C){
 852              		.loc 1 161 0
 853 05c0 204B     		ldr	r3, .L36
 854 05c2 1B78     		ldrb	r3, [r3]
 855 05c4 DBB2     		uxtb	r3, r3
 856 05c6 1A46     		mov	r2, r3
 857 05c8 204B     		ldr	r3, .L36+8
ARM GAS  C:\Users\PROYEC~1\AppData\Local\Temp\cczrWv2r.s 			page 19


 858 05ca 1344     		add	r3, r3, r2
 859 05cc 93F84A30 		ldrb	r3, [r3, #74]	@ zero_extendqisi2
 860 05d0 2C2B     		cmp	r3, #44
 861 05d2 02D1     		bne	.L30
 162:.\keyboard.c  ****                             flagPoint2=0;
 862              		.loc 1 162 0
 863 05d4 1E4B     		ldr	r3, .L36+12
 864 05d6 0022     		movs	r2, #0
 865 05d8 1A70     		strb	r2, [r3]
 866              	.L30:
 163:.\keyboard.c  ****                         }
 164:.\keyboard.c  ****                         numberKeys2--;
 867              		.loc 1 164 0
 868 05da 1A4B     		ldr	r3, .L36
 869 05dc 1B78     		ldrb	r3, [r3]
 870 05de DBB2     		uxtb	r3, r3
 871 05e0 013B     		subs	r3, r3, #1
 872 05e2 DAB2     		uxtb	r2, r3
 873 05e4 174B     		ldr	r3, .L36
 874 05e6 1A70     		strb	r2, [r3]
 875              	.L28:
 165:.\keyboard.c  ****                     }
 166:.\keyboard.c  ****                 }
 167:.\keyboard.c  ****                 if(LCD2_rxBuffer[3]==0x0A){ //Enter
 876              		.loc 1 167 0
 877 05e8 174B     		ldr	r3, .L36+4
 878 05ea DB78     		ldrb	r3, [r3, #3]
 879 05ec DBB2     		uxtb	r3, r3
 880 05ee 0A2B     		cmp	r3, #10
 881 05f0 11D1     		bne	.L31
 168:.\keyboard.c  ****                     if(numberKeys2>0){
 882              		.loc 1 168 0
 883 05f2 144B     		ldr	r3, .L36
 884 05f4 1B78     		ldrb	r3, [r3]
 885 05f6 DBB2     		uxtb	r3, r3
 886 05f8 002B     		cmp	r3, #0
 887 05fa 0CD0     		beq	.L31
 169:.\keyboard.c  ****                         bufferLCD2.valueKeys[0]=numberKeys2;
 888              		.loc 1 169 0
 889 05fc 114B     		ldr	r3, .L36
 890 05fe 1B78     		ldrb	r3, [r3]
 891 0600 DAB2     		uxtb	r2, r3
 892 0602 124B     		ldr	r3, .L36+8
 893 0604 83F84A20 		strb	r2, [r3, #74]
 170:.\keyboard.c  ****                         CyDelay(20);         
 894              		.loc 1 170 0
 895 0608 1420     		movs	r0, #20
 896 060a FFF7FEFF 		bl	CyDelay
 171:.\keyboard.c  ****                         LCD2_ClearRxBuffer();
 897              		.loc 1 171 0
 898 060e FFF7FEFF 		bl	LCD2_ClearRxBuffer
 172:.\keyboard.c  ****                         return 1;
 899              		.loc 1 172 0
 900 0612 0123     		movs	r3, #1
 901 0614 11E0     		b	.L15
 902              	.L31:
 173:.\keyboard.c  ****                     }
ARM GAS  C:\Users\PROYEC~1\AppData\Local\Temp\cczrWv2r.s 			page 20


 174:.\keyboard.c  ****                 }
 175:.\keyboard.c  ****                 if(LCD2_rxBuffer[3]==0x0F){ //Atras
 903              		.loc 1 175 0
 904 0616 0C4B     		ldr	r3, .L36+4
 905 0618 DB78     		ldrb	r3, [r3, #3]
 906 061a DBB2     		uxtb	r3, r3
 907 061c 0F2B     		cmp	r3, #15
 908 061e 06D1     		bne	.L19
 176:.\keyboard.c  ****                     CyDelay(20);         
 909              		.loc 1 176 0
 910 0620 1420     		movs	r0, #20
 911 0622 FFF7FEFF 		bl	CyDelay
 177:.\keyboard.c  ****                     LCD2_ClearRxBuffer();
 912              		.loc 1 177 0
 913 0626 FFF7FEFF 		bl	LCD2_ClearRxBuffer
 178:.\keyboard.c  ****                     return 0;
 914              		.loc 1 178 0
 915 062a 0023     		movs	r3, #0
 916 062c 05E0     		b	.L15
 917              	.L19:
 179:.\keyboard.c  ****                 }
 180:.\keyboard.c  ****             } 
 181:.\keyboard.c  ****             CyDelay(20);         
 918              		.loc 1 181 0
 919 062e 1420     		movs	r0, #20
 920 0630 FFF7FEFF 		bl	CyDelay
 182:.\keyboard.c  ****             LCD2_ClearRxBuffer();
 921              		.loc 1 182 0
 922 0634 FFF7FEFF 		bl	LCD2_ClearRxBuffer
 923              	.L18:
 183:.\keyboard.c  ****         }
 184:.\keyboard.c  ****     }
 185:.\keyboard.c  ****     return 2;
 924              		.loc 1 185 0
 925 0638 0223     		movs	r3, #2
 926              	.L15:
 186:.\keyboard.c  **** }...
 927              		.loc 1 186 0
 928 063a 1846     		mov	r0, r3
 929 063c 0C37     		adds	r7, r7, #12
 930              		.cfi_def_cfa_offset 12
 931 063e BD46     		mov	sp, r7
 932              		.cfi_def_cfa_register 13
 933              		@ sp needed
 934 0640 90BD     		pop	{r4, r7, pc}
 935              	.L37:
 936 0642 00BF     		.align	2
 937              	.L36:
 938 0644 00000000 		.word	numberKeys2
 939 0648 00000000 		.word	LCD2_rxBuffer
 940 064c 00000000 		.word	bufferLCD2
 941 0650 00000000 		.word	flagPoint2
 942              		.cfi_endproc
 943              	.LFE56:
 944              		.size	alphanumeric_keyboard, .-alphanumeric_keyboard
 945              		.text
 946              	.Letext0:
ARM GAS  C:\Users\PROYEC~1\AppData\Local\Temp\cczrWv2r.s 			page 21


 947              		.file 2 "c:\\program files (x86)\\cypress\\psoc creator\\3.3\\psoc creator\\import\\gnu\\arm\\4.9.
 948              		.file 3 "c:\\program files (x86)\\cypress\\psoc creator\\3.3\\psoc creator\\import\\gnu\\arm\\4.9.
 949              		.file 4 "Generated_Source\\PSoC5/cytypes.h"
 950              		.file 5 ".\\variables.h"
 951              		.file 6 "Generated_Source\\PSoC5/LCD1.h"
 952              		.file 7 "Generated_Source\\PSoC5/LCD2.h"
 953              		.file 8 "Generated_Source\\PSoC5/core_cm3.h"
 954              		.section	.debug_info,"",%progbits
 955              	.Ldebug_info0:
 956 0000 06080000 		.4byte	0x806
 957 0004 0400     		.2byte	0x4
 958 0006 00000000 		.4byte	.Ldebug_abbrev0
 959 000a 04       		.byte	0x4
 960 000b 01       		.uleb128 0x1
 961 000c 9B010000 		.4byte	.LASF113
 962 0010 01       		.byte	0x1
 963 0011 13050000 		.4byte	.LASF114
 964 0015 D6020000 		.4byte	.LASF115
 965 0019 00000000 		.4byte	.Ldebug_ranges0+0
 966 001d 00000000 		.4byte	0
 967 0021 00000000 		.4byte	.Ldebug_line0
 968 0025 02       		.uleb128 0x2
 969 0026 01       		.byte	0x1
 970 0027 06       		.byte	0x6
 971 0028 2C010000 		.4byte	.LASF0
 972 002c 02       		.uleb128 0x2
 973 002d 01       		.byte	0x1
 974 002e 08       		.byte	0x8
 975 002f AD020000 		.4byte	.LASF1
 976 0033 02       		.uleb128 0x2
 977 0034 02       		.byte	0x2
 978 0035 05       		.byte	0x5
 979 0036 62000000 		.4byte	.LASF2
 980 003a 02       		.uleb128 0x2
 981 003b 02       		.byte	0x2
 982 003c 07       		.byte	0x7
 983 003d F9040000 		.4byte	.LASF3
 984 0041 03       		.uleb128 0x3
 985 0042 8F050000 		.4byte	.LASF9
 986 0046 02       		.byte	0x2
 987 0047 3F       		.byte	0x3f
 988 0048 4C000000 		.4byte	0x4c
 989 004c 02       		.uleb128 0x2
 990 004d 04       		.byte	0x4
 991 004e 05       		.byte	0x5
 992 004f 99040000 		.4byte	.LASF4
 993 0053 02       		.uleb128 0x2
 994 0054 04       		.byte	0x4
 995 0055 07       		.byte	0x7
 996 0056 17000000 		.4byte	.LASF5
 997 005a 02       		.uleb128 0x2
 998 005b 08       		.byte	0x8
 999 005c 05       		.byte	0x5
 1000 005d 6E010000 		.4byte	.LASF6
 1001 0061 02       		.uleb128 0x2
 1002 0062 08       		.byte	0x8
 1003 0063 07       		.byte	0x7
ARM GAS  C:\Users\PROYEC~1\AppData\Local\Temp\cczrWv2r.s 			page 22


 1004 0064 BD030000 		.4byte	.LASF7
 1005 0068 04       		.uleb128 0x4
 1006 0069 04       		.byte	0x4
 1007 006a 05       		.byte	0x5
 1008 006b 696E7400 		.ascii	"int\000"
 1009 006f 02       		.uleb128 0x2
 1010 0070 04       		.byte	0x4
 1011 0071 07       		.byte	0x7
 1012 0072 FD030000 		.4byte	.LASF8
 1013 0076 03       		.uleb128 0x3
 1014 0077 A2040000 		.4byte	.LASF10
 1015 007b 03       		.byte	0x3
 1016 007c 2C       		.byte	0x2c
 1017 007d 41000000 		.4byte	0x41
 1018 0081 03       		.uleb128 0x3
 1019 0082 1D010000 		.4byte	.LASF11
 1020 0086 04       		.byte	0x4
 1021 0087 A1       		.byte	0xa1
 1022 0088 2C000000 		.4byte	0x2c
 1023 008c 03       		.uleb128 0x3
 1024 008d 0C050000 		.4byte	.LASF12
 1025 0091 04       		.byte	0x4
 1026 0092 A3       		.byte	0xa3
 1027 0093 53000000 		.4byte	0x53
 1028 0097 02       		.uleb128 0x2
 1029 0098 04       		.byte	0x4
 1030 0099 04       		.byte	0x4
 1031 009a 45010000 		.4byte	.LASF13
 1032 009e 02       		.uleb128 0x2
 1033 009f 08       		.byte	0x8
 1034 00a0 04       		.byte	0x4
 1035 00a1 EA050000 		.4byte	.LASF14
 1036 00a5 03       		.uleb128 0x3
 1037 00a6 29020000 		.4byte	.LASF15
 1038 00aa 04       		.byte	0x4
 1039 00ab AD       		.byte	0xad
 1040 00ac 61000000 		.4byte	0x61
 1041 00b0 02       		.uleb128 0x2
 1042 00b1 01       		.byte	0x1
 1043 00b2 08       		.byte	0x8
 1044 00b3 8C040000 		.4byte	.LASF16
 1045 00b7 05       		.uleb128 0x5
 1046 00b8 81000000 		.4byte	0x81
 1047 00bc 05       		.uleb128 0x5
 1048 00bd 8C000000 		.4byte	0x8c
 1049 00c1 02       		.uleb128 0x2
 1050 00c2 04       		.byte	0x4
 1051 00c3 07       		.byte	0x7
 1052 00c4 84000000 		.4byte	.LASF17
 1053 00c8 06       		.uleb128 0x6
 1054 00c9 F2040000 		.4byte	.LASF66
 1055 00cd 7B02     		.2byte	0x27b
 1056 00cf 05       		.byte	0x5
 1057 00d0 52       		.byte	0x52
 1058 00d1 2A030000 		.4byte	0x32a
 1059 00d5 07       		.uleb128 0x7
 1060 00d6 16010000 		.4byte	.LASF18
ARM GAS  C:\Users\PROYEC~1\AppData\Local\Temp\cczrWv2r.s 			page 23


 1061 00da 05       		.byte	0x5
 1062 00db 53       		.byte	0x53
 1063 00dc 81000000 		.4byte	0x81
 1064 00e0 00       		.byte	0
 1065 00e1 07       		.uleb128 0x7
 1066 00e2 59000000 		.4byte	.LASF19
 1067 00e6 05       		.byte	0x5
 1068 00e7 54       		.byte	0x54
 1069 00e8 2A030000 		.4byte	0x32a
 1070 00ec 01       		.byte	0x1
 1071 00ed 07       		.uleb128 0x7
 1072 00ee F5000000 		.4byte	.LASF20
 1073 00f2 05       		.byte	0x5
 1074 00f3 55       		.byte	0x55
 1075 00f4 81000000 		.4byte	0x81
 1076 00f8 1A       		.byte	0x1a
 1077 00f9 07       		.uleb128 0x7
 1078 00fa 82050000 		.4byte	.LASF21
 1079 00fe 05       		.byte	0x5
 1080 00ff 56       		.byte	0x56
 1081 0100 3A030000 		.4byte	0x33a
 1082 0104 1B       		.byte	0x1b
 1083 0105 07       		.uleb128 0x7
 1084 0106 6A030000 		.4byte	.LASF22
 1085 010a 05       		.byte	0x5
 1086 010b 57       		.byte	0x57
 1087 010c 3A030000 		.4byte	0x33a
 1088 0110 25       		.byte	0x25
 1089 0111 07       		.uleb128 0x7
 1090 0112 A8000000 		.4byte	.LASF23
 1091 0116 05       		.byte	0x5
 1092 0117 58       		.byte	0x58
 1093 0118 2A030000 		.4byte	0x32a
 1094 011c 2F       		.byte	0x2f
 1095 011d 07       		.uleb128 0x7
 1096 011e 8A010000 		.4byte	.LASF24
 1097 0122 05       		.byte	0x5
 1098 0123 59       		.byte	0x59
 1099 0124 81000000 		.4byte	0x81
 1100 0128 48       		.byte	0x48
 1101 0129 07       		.uleb128 0x7
 1102 012a 99050000 		.4byte	.LASF25
 1103 012e 05       		.byte	0x5
 1104 012f 5A       		.byte	0x5a
 1105 0130 81000000 		.4byte	0x81
 1106 0134 49       		.byte	0x49
 1107 0135 07       		.uleb128 0x7
 1108 0136 74020000 		.4byte	.LASF26
 1109 013a 05       		.byte	0x5
 1110 013b 5B       		.byte	0x5b
 1111 013c 4A030000 		.4byte	0x34a
 1112 0140 4A       		.byte	0x4a
 1113 0141 07       		.uleb128 0x7
 1114 0142 37020000 		.4byte	.LASF27
 1115 0146 05       		.byte	0x5
 1116 0147 5C       		.byte	0x5c
 1117 0148 81000000 		.4byte	0x81
ARM GAS  C:\Users\PROYEC~1\AppData\Local\Temp\cczrWv2r.s 			page 24


 1118 014c 5F       		.byte	0x5f
 1119 014d 07       		.uleb128 0x7
 1120 014e 96000000 		.4byte	.LASF28
 1121 0152 05       		.byte	0x5
 1122 0153 5D       		.byte	0x5d
 1123 0154 81000000 		.4byte	0x81
 1124 0158 60       		.byte	0x60
 1125 0159 07       		.uleb128 0x7
 1126 015a FE000000 		.4byte	.LASF29
 1127 015e 05       		.byte	0x5
 1128 015f 5E       		.byte	0x5e
 1129 0160 81000000 		.4byte	0x81
 1130 0164 61       		.byte	0x61
 1131 0165 07       		.uleb128 0x7
 1132 0166 38030000 		.4byte	.LASF30
 1133 016a 05       		.byte	0x5
 1134 016b 5F       		.byte	0x5f
 1135 016c 5A030000 		.4byte	0x35a
 1136 0170 62       		.byte	0x62
 1137 0171 07       		.uleb128 0x7
 1138 0172 E9000000 		.4byte	.LASF31
 1139 0176 05       		.byte	0x5
 1140 0177 60       		.byte	0x60
 1141 0178 6A030000 		.4byte	0x36a
 1142 017c 64       		.byte	0x64
 1143 017d 07       		.uleb128 0x7
 1144 017e 0B000000 		.4byte	.LASF32
 1145 0182 05       		.byte	0x5
 1146 0183 61       		.byte	0x61
 1147 0184 81000000 		.4byte	0x81
 1148 0188 78       		.byte	0x78
 1149 0189 07       		.uleb128 0x7
 1150 018a 8D000000 		.4byte	.LASF33
 1151 018e 05       		.byte	0x5
 1152 018f 62       		.byte	0x62
 1153 0190 80030000 		.4byte	0x380
 1154 0194 79       		.byte	0x79
 1155 0195 07       		.uleb128 0x7
 1156 0196 EE030000 		.4byte	.LASF34
 1157 019a 05       		.byte	0x5
 1158 019b 63       		.byte	0x63
 1159 019c 90030000 		.4byte	0x390
 1160 01a0 7E       		.byte	0x7e
 1161 01a1 07       		.uleb128 0x7
 1162 01a2 DE040000 		.4byte	.LASF35
 1163 01a6 05       		.byte	0x5
 1164 01a7 64       		.byte	0x64
 1165 01a8 90030000 		.4byte	0x390
 1166 01ac 84       		.byte	0x84
 1167 01ad 07       		.uleb128 0x7
 1168 01ae AA040000 		.4byte	.LASF36
 1169 01b2 05       		.byte	0x5
 1170 01b3 65       		.byte	0x65
 1171 01b4 90030000 		.4byte	0x390
 1172 01b8 8A       		.byte	0x8a
 1173 01b9 07       		.uleb128 0x7
 1174 01ba 28050000 		.4byte	.LASF37
ARM GAS  C:\Users\PROYEC~1\AppData\Local\Temp\cczrWv2r.s 			page 25


 1175 01be 05       		.byte	0x5
 1176 01bf 66       		.byte	0x66
 1177 01c0 90030000 		.4byte	0x390
 1178 01c4 90       		.byte	0x90
 1179 01c5 07       		.uleb128 0x7
 1180 01c6 DB030000 		.4byte	.LASF38
 1181 01ca 05       		.byte	0x5
 1182 01cb 67       		.byte	0x67
 1183 01cc A0030000 		.4byte	0x3a0
 1184 01d0 96       		.byte	0x96
 1185 01d1 07       		.uleb128 0x7
 1186 01d2 60020000 		.4byte	.LASF39
 1187 01d6 05       		.byte	0x5
 1188 01d7 68       		.byte	0x68
 1189 01d8 A0030000 		.4byte	0x3a0
 1190 01dc A4       		.byte	0xa4
 1191 01dd 07       		.uleb128 0x7
 1192 01de D9050000 		.4byte	.LASF40
 1193 01e2 05       		.byte	0x5
 1194 01e3 69       		.byte	0x69
 1195 01e4 A0030000 		.4byte	0x3a0
 1196 01e8 B2       		.byte	0xb2
 1197 01e9 07       		.uleb128 0x7
 1198 01ea 9D020000 		.4byte	.LASF41
 1199 01ee 05       		.byte	0x5
 1200 01ef 6A       		.byte	0x6a
 1201 01f0 A0030000 		.4byte	0x3a0
 1202 01f4 C0       		.byte	0xc0
 1203 01f5 07       		.uleb128 0x7
 1204 01f6 32040000 		.4byte	.LASF42
 1205 01fa 05       		.byte	0x5
 1206 01fb 6B       		.byte	0x6b
 1207 01fc A0030000 		.4byte	0x3a0
 1208 0200 CE       		.byte	0xce
 1209 0201 07       		.uleb128 0x7
 1210 0202 C7040000 		.4byte	.LASF43
 1211 0206 05       		.byte	0x5
 1212 0207 6C       		.byte	0x6c
 1213 0208 A0030000 		.4byte	0x3a0
 1214 020c DC       		.byte	0xdc
 1215 020d 07       		.uleb128 0x7
 1216 020e 6C000000 		.4byte	.LASF44
 1217 0212 05       		.byte	0x5
 1218 0213 6D       		.byte	0x6d
 1219 0214 B0030000 		.4byte	0x3b0
 1220 0218 EA       		.byte	0xea
 1221 0219 07       		.uleb128 0x7
 1222 021a 0A010000 		.4byte	.LASF45
 1223 021e 05       		.byte	0x5
 1224 021f 6E       		.byte	0x6e
 1225 0220 B0030000 		.4byte	0x3b0
 1226 0224 F5       		.byte	0xf5
 1227 0225 08       		.uleb128 0x8
 1228 0226 12040000 		.4byte	.LASF46
 1229 022a 05       		.byte	0x5
 1230 022b 6F       		.byte	0x6f
 1231 022c B0030000 		.4byte	0x3b0
ARM GAS  C:\Users\PROYEC~1\AppData\Local\Temp\cczrWv2r.s 			page 26


 1232 0230 0001     		.2byte	0x100
 1233 0232 08       		.uleb128 0x8
 1234 0233 43030000 		.4byte	.LASF47
 1235 0237 05       		.byte	0x5
 1236 0238 70       		.byte	0x70
 1237 0239 81000000 		.4byte	0x81
 1238 023d 0B01     		.2byte	0x10b
 1239 023f 08       		.uleb128 0x8
 1240 0240 76040000 		.4byte	.LASF48
 1241 0244 05       		.byte	0x5
 1242 0245 71       		.byte	0x71
 1243 0246 81000000 		.4byte	0x81
 1244 024a 0C01     		.2byte	0x10c
 1245 024c 08       		.uleb128 0x8
 1246 024d 51020000 		.4byte	.LASF49
 1247 0251 05       		.byte	0x5
 1248 0252 72       		.byte	0x72
 1249 0253 81000000 		.4byte	0x81
 1250 0257 0D01     		.2byte	0x10d
 1251 0259 08       		.uleb128 0x8
 1252 025a 3F000000 		.4byte	.LASF50
 1253 025e 05       		.byte	0x5
 1254 025f 73       		.byte	0x73
 1255 0260 81000000 		.4byte	0x81
 1256 0264 0E01     		.2byte	0x10e
 1257 0266 08       		.uleb128 0x8
 1258 0267 20050000 		.4byte	.LASF51
 1259 026b 05       		.byte	0x5
 1260 026c 74       		.byte	0x74
 1261 026d C0030000 		.4byte	0x3c0
 1262 0271 0F01     		.2byte	0x10f
 1263 0273 08       		.uleb128 0x8
 1264 0274 00000000 		.4byte	.LASF52
 1265 0278 05       		.byte	0x5
 1266 0279 75       		.byte	0x75
 1267 027a 3A030000 		.4byte	0x33a
 1268 027e 5001     		.2byte	0x150
 1269 0280 08       		.uleb128 0x8
 1270 0281 6A040000 		.4byte	.LASF53
 1271 0285 05       		.byte	0x5
 1272 0286 76       		.byte	0x76
 1273 0287 3A030000 		.4byte	0x33a
 1274 028b 5A01     		.2byte	0x15a
 1275 028d 08       		.uleb128 0x8
 1276 028e D2000000 		.4byte	.LASF54
 1277 0292 05       		.byte	0x5
 1278 0293 77       		.byte	0x77
 1279 0294 3A030000 		.4byte	0x33a
 1280 0298 6401     		.2byte	0x164
 1281 029a 08       		.uleb128 0x8
 1282 029b B0030000 		.4byte	.LASF55
 1283 029f 05       		.byte	0x5
 1284 02a0 78       		.byte	0x78
 1285 02a1 D0030000 		.4byte	0x3d0
 1286 02a5 6E01     		.2byte	0x16e
 1287 02a7 08       		.uleb128 0x8
 1288 02a8 51040000 		.4byte	.LASF56
ARM GAS  C:\Users\PROYEC~1\AppData\Local\Temp\cczrWv2r.s 			page 27


 1289 02ac 05       		.byte	0x5
 1290 02ad 79       		.byte	0x79
 1291 02ae D0030000 		.4byte	0x3d0
 1292 02b2 B901     		.2byte	0x1b9
 1293 02b4 08       		.uleb128 0x8
 1294 02b5 5B030000 		.4byte	.LASF57
 1295 02b9 05       		.byte	0x5
 1296 02ba 7A       		.byte	0x7a
 1297 02bb E6030000 		.4byte	0x3e6
 1298 02bf 0402     		.2byte	0x204
 1299 02c1 08       		.uleb128 0x8
 1300 02c2 8F030000 		.4byte	.LASF58
 1301 02c6 05       		.byte	0x5
 1302 02c7 7B       		.byte	0x7b
 1303 02c8 E6030000 		.4byte	0x3e6
 1304 02cc 1302     		.2byte	0x213
 1305 02ce 08       		.uleb128 0x8
 1306 02cf 34060000 		.4byte	.LASF59
 1307 02d3 05       		.byte	0x5
 1308 02d4 7C       		.byte	0x7c
 1309 02d5 FC030000 		.4byte	0x3fc
 1310 02d9 2202     		.2byte	0x222
 1311 02db 08       		.uleb128 0x8
 1312 02dc 1D040000 		.4byte	.LASF60
 1313 02e0 05       		.byte	0x5
 1314 02e1 7D       		.byte	0x7d
 1315 02e2 FC030000 		.4byte	0x3fc
 1316 02e6 4002     		.2byte	0x240
 1317 02e8 08       		.uleb128 0x8
 1318 02e9 45060000 		.4byte	.LASF61
 1319 02ed 05       		.byte	0x5
 1320 02ee 7E       		.byte	0x7e
 1321 02ef 3A030000 		.4byte	0x33a
 1322 02f3 5E02     		.2byte	0x25e
 1323 02f5 08       		.uleb128 0x8
 1324 02f6 55050000 		.4byte	.LASF62
 1325 02fa 05       		.byte	0x5
 1326 02fb 7F       		.byte	0x7f
 1327 02fc 81000000 		.4byte	0x81
 1328 0300 6802     		.2byte	0x268
 1329 0302 08       		.uleb128 0x8
 1330 0303 67050000 		.4byte	.LASF63
 1331 0307 05       		.byte	0x5
 1332 0308 80       		.byte	0x80
 1333 0309 12040000 		.4byte	0x412
 1334 030d 6902     		.2byte	0x269
 1335 030f 08       		.uleb128 0x8
 1336 0310 9F000000 		.4byte	.LASF64
 1337 0314 05       		.byte	0x5
 1338 0315 81       		.byte	0x81
 1339 0316 5A030000 		.4byte	0x35a
 1340 031a 7802     		.2byte	0x278
 1341 031c 08       		.uleb128 0x8
 1342 031d 74050000 		.4byte	.LASF65
 1343 0321 05       		.byte	0x5
 1344 0322 82       		.byte	0x82
 1345 0323 81000000 		.4byte	0x81
ARM GAS  C:\Users\PROYEC~1\AppData\Local\Temp\cczrWv2r.s 			page 28


 1346 0327 7A02     		.2byte	0x27a
 1347 0329 00       		.byte	0
 1348 032a 09       		.uleb128 0x9
 1349 032b 81000000 		.4byte	0x81
 1350 032f 3A030000 		.4byte	0x33a
 1351 0333 0A       		.uleb128 0xa
 1352 0334 C1000000 		.4byte	0xc1
 1353 0338 18       		.byte	0x18
 1354 0339 00       		.byte	0
 1355 033a 09       		.uleb128 0x9
 1356 033b 81000000 		.4byte	0x81
 1357 033f 4A030000 		.4byte	0x34a
 1358 0343 0A       		.uleb128 0xa
 1359 0344 C1000000 		.4byte	0xc1
 1360 0348 09       		.byte	0x9
 1361 0349 00       		.byte	0
 1362 034a 09       		.uleb128 0x9
 1363 034b 81000000 		.4byte	0x81
 1364 034f 5A030000 		.4byte	0x35a
 1365 0353 0A       		.uleb128 0xa
 1366 0354 C1000000 		.4byte	0xc1
 1367 0358 14       		.byte	0x14
 1368 0359 00       		.byte	0
 1369 035a 09       		.uleb128 0x9
 1370 035b 81000000 		.4byte	0x81
 1371 035f 6A030000 		.4byte	0x36a
 1372 0363 0A       		.uleb128 0xa
 1373 0364 C1000000 		.4byte	0xc1
 1374 0368 01       		.byte	0x1
 1375 0369 00       		.byte	0
 1376 036a 09       		.uleb128 0x9
 1377 036b 81000000 		.4byte	0x81
 1378 036f 80030000 		.4byte	0x380
 1379 0373 0A       		.uleb128 0xa
 1380 0374 C1000000 		.4byte	0xc1
 1381 0378 01       		.byte	0x1
 1382 0379 0A       		.uleb128 0xa
 1383 037a C1000000 		.4byte	0xc1
 1384 037e 09       		.byte	0x9
 1385 037f 00       		.byte	0
 1386 0380 09       		.uleb128 0x9
 1387 0381 81000000 		.4byte	0x81
 1388 0385 90030000 		.4byte	0x390
 1389 0389 0A       		.uleb128 0xa
 1390 038a C1000000 		.4byte	0xc1
 1391 038e 04       		.byte	0x4
 1392 038f 00       		.byte	0
 1393 0390 09       		.uleb128 0x9
 1394 0391 81000000 		.4byte	0x81
 1395 0395 A0030000 		.4byte	0x3a0
 1396 0399 0A       		.uleb128 0xa
 1397 039a C1000000 		.4byte	0xc1
 1398 039e 05       		.byte	0x5
 1399 039f 00       		.byte	0
 1400 03a0 09       		.uleb128 0x9
 1401 03a1 81000000 		.4byte	0x81
 1402 03a5 B0030000 		.4byte	0x3b0
ARM GAS  C:\Users\PROYEC~1\AppData\Local\Temp\cczrWv2r.s 			page 29


 1403 03a9 0A       		.uleb128 0xa
 1404 03aa C1000000 		.4byte	0xc1
 1405 03ae 0D       		.byte	0xd
 1406 03af 00       		.byte	0
 1407 03b0 09       		.uleb128 0x9
 1408 03b1 81000000 		.4byte	0x81
 1409 03b5 C0030000 		.4byte	0x3c0
 1410 03b9 0A       		.uleb128 0xa
 1411 03ba C1000000 		.4byte	0xc1
 1412 03be 0A       		.byte	0xa
 1413 03bf 00       		.byte	0
 1414 03c0 09       		.uleb128 0x9
 1415 03c1 81000000 		.4byte	0x81
 1416 03c5 D0030000 		.4byte	0x3d0
 1417 03c9 0A       		.uleb128 0xa
 1418 03ca C1000000 		.4byte	0xc1
 1419 03ce 40       		.byte	0x40
 1420 03cf 00       		.byte	0
 1421 03d0 09       		.uleb128 0x9
 1422 03d1 81000000 		.4byte	0x81
 1423 03d5 E6030000 		.4byte	0x3e6
 1424 03d9 0A       		.uleb128 0xa
 1425 03da C1000000 		.4byte	0xc1
 1426 03de 02       		.byte	0x2
 1427 03df 0A       		.uleb128 0xa
 1428 03e0 C1000000 		.4byte	0xc1
 1429 03e4 18       		.byte	0x18
 1430 03e5 00       		.byte	0
 1431 03e6 09       		.uleb128 0x9
 1432 03e7 81000000 		.4byte	0x81
 1433 03eb FC030000 		.4byte	0x3fc
 1434 03ef 0A       		.uleb128 0xa
 1435 03f0 C1000000 		.4byte	0xc1
 1436 03f4 02       		.byte	0x2
 1437 03f5 0A       		.uleb128 0xa
 1438 03f6 C1000000 		.4byte	0xc1
 1439 03fa 04       		.byte	0x4
 1440 03fb 00       		.byte	0
 1441 03fc 09       		.uleb128 0x9
 1442 03fd 81000000 		.4byte	0x81
 1443 0401 12040000 		.4byte	0x412
 1444 0405 0A       		.uleb128 0xa
 1445 0406 C1000000 		.4byte	0xc1
 1446 040a 02       		.byte	0x2
 1447 040b 0A       		.uleb128 0xa
 1448 040c C1000000 		.4byte	0xc1
 1449 0410 09       		.byte	0x9
 1450 0411 00       		.byte	0
 1451 0412 09       		.uleb128 0x9
 1452 0413 81000000 		.4byte	0x81
 1453 0417 22040000 		.4byte	0x422
 1454 041b 0A       		.uleb128 0xa
 1455 041c C1000000 		.4byte	0xc1
 1456 0420 0E       		.byte	0xe
 1457 0421 00       		.byte	0
 1458 0422 06       		.uleb128 0x6
 1459 0423 DB000000 		.4byte	.LASF67
ARM GAS  C:\Users\PROYEC~1\AppData\Local\Temp\cczrWv2r.s 			page 30


 1460 0427 0001     		.2byte	0x100
 1461 0429 05       		.byte	0x5
 1462 042a 90       		.byte	0x90
 1463 042b 84040000 		.4byte	0x484
 1464 042f 0B       		.uleb128 0xb
 1465 0430 64697200 		.ascii	"dir\000"
 1466 0434 05       		.byte	0x5
 1467 0435 91       		.byte	0x91
 1468 0436 81000000 		.4byte	0x81
 1469 043a 00       		.byte	0
 1470 043b 07       		.uleb128 0x7
 1471 043c 38010000 		.4byte	.LASF68
 1472 0440 05       		.byte	0x5
 1473 0441 92       		.byte	0x92
 1474 0442 84040000 		.4byte	0x484
 1475 0446 01       		.byte	0x1
 1476 0447 07       		.uleb128 0x7
 1477 0448 8F020000 		.4byte	.LASF69
 1478 044c 05       		.byte	0x5
 1479 044d 93       		.byte	0x93
 1480 044e A0040000 		.4byte	0x4a0
 1481 0452 B5       		.byte	0xb5
 1482 0453 07       		.uleb128 0x7
 1483 0454 82040000 		.4byte	.LASF70
 1484 0458 05       		.byte	0x5
 1485 0459 94       		.byte	0x94
 1486 045a A0030000 		.4byte	0x3a0
 1487 045e D5       		.byte	0xd5
 1488 045f 07       		.uleb128 0x7
 1489 0460 5F040000 		.4byte	.LASF71
 1490 0464 05       		.byte	0x5
 1491 0465 95       		.byte	0x95
 1492 0466 A0030000 		.4byte	0x3a0
 1493 046a E3       		.byte	0xe3
 1494 046b 07       		.uleb128 0x7
 1495 046c 0A040000 		.4byte	.LASF72
 1496 0470 05       		.byte	0x5
 1497 0471 96       		.byte	0x96
 1498 0472 A0030000 		.4byte	0x3a0
 1499 0476 F1       		.byte	0xf1
 1500 0477 07       		.uleb128 0x7
 1501 0478 BB020000 		.4byte	.LASF73
 1502 047c 05       		.byte	0x5
 1503 047d 97       		.byte	0x97
 1504 047e 81000000 		.4byte	0x81
 1505 0482 FF       		.byte	0xff
 1506 0483 00       		.byte	0
 1507 0484 09       		.uleb128 0x9
 1508 0485 81000000 		.4byte	0x81
 1509 0489 A0040000 		.4byte	0x4a0
 1510 048d 0A       		.uleb128 0xa
 1511 048e C1000000 		.4byte	0xc1
 1512 0492 03       		.byte	0x3
 1513 0493 0A       		.uleb128 0xa
 1514 0494 C1000000 		.4byte	0xc1
 1515 0498 02       		.byte	0x2
 1516 0499 0A       		.uleb128 0xa
ARM GAS  C:\Users\PROYEC~1\AppData\Local\Temp\cczrWv2r.s 			page 31


 1517 049a C1000000 		.4byte	0xc1
 1518 049e 0E       		.byte	0xe
 1519 049f 00       		.byte	0
 1520 04a0 09       		.uleb128 0x9
 1521 04a1 81000000 		.4byte	0x81
 1522 04a5 B6040000 		.4byte	0x4b6
 1523 04a9 0A       		.uleb128 0xa
 1524 04aa C1000000 		.4byte	0xc1
 1525 04ae 03       		.byte	0x3
 1526 04af 0A       		.uleb128 0xa
 1527 04b0 C1000000 		.4byte	0xc1
 1528 04b4 07       		.byte	0x7
 1529 04b5 00       		.byte	0
 1530 04b6 06       		.uleb128 0x6
 1531 04b7 ED040000 		.4byte	.LASF74
 1532 04bb 0002     		.2byte	0x200
 1533 04bd 05       		.byte	0x5
 1534 04be 9A       		.byte	0x9a
 1535 04bf D9040000 		.4byte	0x4d9
 1536 04c3 0B       		.uleb128 0xb
 1537 04c4 6100     		.ascii	"a\000"
 1538 04c6 05       		.byte	0x5
 1539 04c7 9B       		.byte	0x9b
 1540 04c8 22040000 		.4byte	0x422
 1541 04cc 00       		.byte	0
 1542 04cd 0C       		.uleb128 0xc
 1543 04ce 6200     		.ascii	"b\000"
 1544 04d0 05       		.byte	0x5
 1545 04d1 9C       		.byte	0x9c
 1546 04d2 22040000 		.4byte	0x422
 1547 04d6 0001     		.2byte	0x100
 1548 04d8 00       		.byte	0
 1549 04d9 0D       		.uleb128 0xd
 1550 04da 29000000 		.4byte	.LASF116
 1551 04de 01       		.byte	0x1
 1552 04df 39       		.byte	0x39
 1553 04e0 81000000 		.4byte	0x81
 1554 04e4 00000000 		.4byte	.LFB56
 1555 04e8 54060000 		.4byte	.LFE56-.LFB56
 1556 04ec 01       		.uleb128 0x1
 1557 04ed 9C       		.byte	0x9c
 1558 04ee 1D050000 		.4byte	0x51d
 1559 04f2 0E       		.uleb128 0xe
 1560 04f3 6C636400 		.ascii	"lcd\000"
 1561 04f7 01       		.byte	0x1
 1562 04f8 39       		.byte	0x39
 1563 04f9 81000000 		.4byte	0x81
 1564 04fd 02       		.uleb128 0x2
 1565 04fe 91       		.byte	0x91
 1566 04ff 6F       		.sleb128 -17
 1567 0500 0F       		.uleb128 0xf
 1568 0501 F1050000 		.4byte	.LASF75
 1569 0505 01       		.byte	0x1
 1570 0506 39       		.byte	0x39
 1571 0507 81000000 		.4byte	0x81
 1572 050b 02       		.uleb128 0x2
 1573 050c 91       		.byte	0x91
ARM GAS  C:\Users\PROYEC~1\AppData\Local\Temp\cczrWv2r.s 			page 32


 1574 050d 6E       		.sleb128 -18
 1575 050e 0F       		.uleb128 0xf
 1576 050f 85020000 		.4byte	.LASF76
 1577 0513 01       		.byte	0x1
 1578 0514 39       		.byte	0x39
 1579 0515 81000000 		.4byte	0x81
 1580 0519 02       		.uleb128 0x2
 1581 051a 91       		.byte	0x91
 1582 051b 6D       		.sleb128 -19
 1583 051c 00       		.byte	0
 1584 051d 09       		.uleb128 0x9
 1585 051e 81000000 		.4byte	0x81
 1586 0522 2D050000 		.4byte	0x52d
 1587 0526 0A       		.uleb128 0xa
 1588 0527 C1000000 		.4byte	0xc1
 1589 052b 07       		.byte	0x7
 1590 052c 00       		.byte	0
 1591 052d 10       		.uleb128 0x10
 1592 052e B9040000 		.4byte	.LASF77
 1593 0532 06       		.byte	0x6
 1594 0533 5201     		.2byte	0x152
 1595 0535 39050000 		.4byte	0x539
 1596 0539 05       		.uleb128 0x5
 1597 053a 1D050000 		.4byte	0x51d
 1598 053e 10       		.uleb128 0x10
 1599 053f 4B000000 		.4byte	.LASF78
 1600 0543 07       		.byte	0x7
 1601 0544 5201     		.2byte	0x152
 1602 0546 4A050000 		.4byte	0x54a
 1603 054a 05       		.uleb128 0x5
 1604 054b 1D050000 		.4byte	0x51d
 1605 054f 10       		.uleb128 0x10
 1606 0550 04060000 		.4byte	.LASF79
 1607 0554 08       		.byte	0x8
 1608 0555 1606     		.2byte	0x616
 1609 0557 5B050000 		.4byte	0x55b
 1610 055b 05       		.uleb128 0x5
 1611 055c 76000000 		.4byte	0x76
 1612 0560 11       		.uleb128 0x11
 1613 0561 B9050000 		.4byte	.LASF80
 1614 0565 05       		.byte	0x5
 1615 0566 2C       		.byte	0x2c
 1616 0567 71050000 		.4byte	0x571
 1617 056b 05       		.uleb128 0x5
 1618 056c 03       		.byte	0x3
 1619 056d 00000000 		.4byte	countAnimation1
 1620 0571 05       		.uleb128 0x5
 1621 0572 A5000000 		.4byte	0xa5
 1622 0576 11       		.uleb128 0x11
 1623 0577 C9050000 		.4byte	.LASF81
 1624 057b 05       		.byte	0x5
 1625 057c 2D       		.byte	0x2d
 1626 057d 71050000 		.4byte	0x571
 1627 0581 05       		.uleb128 0x5
 1628 0582 03       		.byte	0x3
 1629 0583 00000000 		.4byte	countAnimation2
 1630 0587 11       		.uleb128 0x11
ARM GAS  C:\Users\PROYEC~1\AppData\Local\Temp\cczrWv2r.s 			page 33


 1631 0588 C4000000 		.4byte	.LASF82
 1632 058c 05       		.byte	0x5
 1633 058d 2E       		.byte	0x2e
 1634 058e 71050000 		.4byte	0x571
 1635 0592 05       		.uleb128 0x5
 1636 0593 03       		.byte	0x3
 1637 0594 00000000 		.4byte	countBeagleTX
 1638 0598 11       		.uleb128 0x11
 1639 0599 43040000 		.4byte	.LASF83
 1640 059d 05       		.byte	0x5
 1641 059e 2F       		.byte	0x2f
 1642 059f BC000000 		.4byte	0xbc
 1643 05a3 05       		.uleb128 0x5
 1644 05a4 03       		.byte	0x3
 1645 05a5 00000000 		.4byte	flowLCD1
 1646 05a9 11       		.uleb128 0x11
 1647 05aa D5040000 		.4byte	.LASF84
 1648 05ae 05       		.byte	0x5
 1649 05af 30       		.byte	0x30
 1650 05b0 BC000000 		.4byte	0xbc
 1651 05b4 05       		.uleb128 0x5
 1652 05b5 03       		.byte	0x3
 1653 05b6 00000000 		.4byte	flowLCD2
 1654 05ba 11       		.uleb128 0x11
 1655 05bb 7E020000 		.4byte	.LASF85
 1656 05bf 05       		.byte	0x5
 1657 05c0 31       		.byte	0x31
 1658 05c1 B7000000 		.4byte	0xb7
 1659 05c5 05       		.uleb128 0x5
 1660 05c6 03       		.byte	0x3
 1661 05c7 00000000 		.4byte	digits
 1662 05cb 09       		.uleb128 0x9
 1663 05cc 81000000 		.4byte	0x81
 1664 05d0 DB050000 		.4byte	0x5db
 1665 05d4 0A       		.uleb128 0xa
 1666 05d5 C1000000 		.4byte	0xc1
 1667 05d9 0B       		.byte	0xb
 1668 05da 00       		.byte	0
 1669 05db 11       		.uleb128 0x11
 1670 05dc BB000000 		.4byte	.LASF86
 1671 05e0 05       		.byte	0x5
 1672 05e1 32       		.byte	0x32
 1673 05e2 EC050000 		.4byte	0x5ec
 1674 05e6 05       		.uleb128 0x5
 1675 05e7 03       		.byte	0x3
 1676 05e8 00000000 		.4byte	ipAdress
 1677 05ec 05       		.uleb128 0x5
 1678 05ed CB050000 		.4byte	0x5cb
 1679 05f1 11       		.uleb128 0x11
 1680 05f2 7C030000 		.4byte	.LASF87
 1681 05f6 05       		.byte	0x5
 1682 05f7 33       		.byte	0x33
 1683 05f8 B7000000 		.4byte	0xb7
 1684 05fc 05       		.uleb128 0x5
 1685 05fd 03       		.byte	0x3
 1686 05fe 00000000 		.4byte	numberKeys1
 1687 0602 11       		.uleb128 0x11
ARM GAS  C:\Users\PROYEC~1\AppData\Local\Temp\cczrWv2r.s 			page 34


 1688 0603 78000000 		.4byte	.LASF88
 1689 0607 05       		.byte	0x5
 1690 0608 34       		.byte	0x34
 1691 0609 B7000000 		.4byte	0xb7
 1692 060d 05       		.uleb128 0x5
 1693 060e 03       		.byte	0x3
 1694 060f 00000000 		.4byte	numberKeys2
 1695 0613 11       		.uleb128 0x11
 1696 0614 58010000 		.4byte	.LASF89
 1697 0618 05       		.byte	0x5
 1698 0619 35       		.byte	0x35
 1699 061a B7000000 		.4byte	0xb7
 1700 061e 05       		.uleb128 0x5
 1701 061f 03       		.byte	0x3
 1702 0620 00000000 		.4byte	flagPoint1
 1703 0624 11       		.uleb128 0x11
 1704 0625 63010000 		.4byte	.LASF90
 1705 0629 05       		.byte	0x5
 1706 062a 36       		.byte	0x36
 1707 062b B7000000 		.4byte	0xb7
 1708 062f 05       		.uleb128 0x5
 1709 0630 03       		.byte	0x3
 1710 0631 00000000 		.4byte	flagPoint2
 1711 0635 09       		.uleb128 0x9
 1712 0636 81000000 		.4byte	0x81
 1713 063a 4B060000 		.4byte	0x64b
 1714 063e 0A       		.uleb128 0xa
 1715 063f C1000000 		.4byte	0xc1
 1716 0643 77       		.byte	0x77
 1717 0644 0A       		.uleb128 0xa
 1718 0645 C1000000 		.4byte	0xc1
 1719 0649 07       		.byte	0x7
 1720 064a 00       		.byte	0
 1721 064b 11       		.uleb128 0x11
 1722 064c 30020000 		.4byte	.LASF91
 1723 0650 05       		.byte	0x5
 1724 0651 37       		.byte	0x37
 1725 0652 5C060000 		.4byte	0x65c
 1726 0656 05       		.uleb128 0x5
 1727 0657 03       		.byte	0x3
 1728 0658 00000000 		.4byte	button
 1729 065c 05       		.uleb128 0x5
 1730 065d 35060000 		.4byte	0x635
 1731 0661 11       		.uleb128 0x11
 1732 0662 AB050000 		.4byte	.LASF92
 1733 0666 05       		.byte	0x5
 1734 0667 38       		.byte	0x38
 1735 0668 B7000000 		.4byte	0xb7
 1736 066c 05       		.uleb128 0x5
 1737 066d 03       		.byte	0x3
 1738 066e 00000000 		.4byte	productNumber
 1739 0672 11       		.uleb128 0x11
 1740 0673 50030000 		.4byte	.LASF93
 1741 0677 05       		.byte	0x5
 1742 0678 39       		.byte	0x39
 1743 0679 FC030000 		.4byte	0x3fc
 1744 067d 05       		.uleb128 0x5
ARM GAS  C:\Users\PROYEC~1\AppData\Local\Temp\cczrWv2r.s 			page 35


 1745 067e 03       		.byte	0x3
 1746 067f 00000000 		.4byte	presetFast
 1747 0683 11       		.uleb128 0x11
 1748 0684 7C010000 		.4byte	.LASF94
 1749 0688 05       		.byte	0x5
 1750 0689 3A       		.byte	0x3a
 1751 068a BC000000 		.4byte	0xbc
 1752 068e 05       		.uleb128 0x5
 1753 068f 03       		.byte	0x3
 1754 0690 00000000 		.4byte	delayPicture1
 1755 0694 11       		.uleb128 0x11
 1756 0695 43020000 		.4byte	.LASF95
 1757 0699 05       		.byte	0x5
 1758 069a 3B       		.byte	0x3b
 1759 069b BC000000 		.4byte	0xbc
 1760 069f 05       		.uleb128 0x5
 1761 06a0 03       		.byte	0x3
 1762 06a1 00000000 		.4byte	delayPicture2
 1763 06a5 11       		.uleb128 0x11
 1764 06a6 D4030000 		.4byte	.LASF96
 1765 06aa 05       		.byte	0x5
 1766 06ab 3C       		.byte	0x3c
 1767 06ac B7000000 		.4byte	0xb7
 1768 06b0 05       		.uleb128 0x5
 1769 06b1 03       		.byte	0x3
 1770 06b2 00000000 		.4byte	ppux10
 1771 06b6 11       		.uleb128 0x11
 1772 06b7 4B010000 		.4byte	.LASF97
 1773 06bb 05       		.byte	0x5
 1774 06bc 3D       		.byte	0x3d
 1775 06bd B7000000 		.4byte	0xb7
 1776 06c1 05       		.uleb128 0x5
 1777 06c2 03       		.byte	0x3
 1778 06c3 00000000 		.4byte	decimalMoney
 1779 06c7 11       		.uleb128 0x11
 1780 06c8 A2030000 		.4byte	.LASF98
 1781 06cc 05       		.byte	0x5
 1782 06cd 3E       		.byte	0x3e
 1783 06ce B7000000 		.4byte	0xb7
 1784 06d2 05       		.uleb128 0x5
 1785 06d3 03       		.byte	0x3
 1786 06d4 00000000 		.4byte	decimalVolume
 1787 06d8 11       		.uleb128 0x11
 1788 06d9 91040000 		.4byte	.LASF99
 1789 06dd 05       		.byte	0x5
 1790 06de 3F       		.byte	0x3f
 1791 06df E9060000 		.4byte	0x6e9
 1792 06e3 05       		.uleb128 0x5
 1793 06e4 03       		.byte	0x3
 1794 06e5 00000000 		.4byte	symbols
 1795 06e9 05       		.uleb128 0x5
 1796 06ea 5A030000 		.4byte	0x35a
 1797 06ee 09       		.uleb128 0x9
 1798 06ef 81000000 		.4byte	0x81
 1799 06f3 FE060000 		.4byte	0x6fe
 1800 06f7 0A       		.uleb128 0xa
 1801 06f8 C1000000 		.4byte	0xc1
ARM GAS  C:\Users\PROYEC~1\AppData\Local\Temp\cczrWv2r.s 			page 36


 1802 06fc 02       		.byte	0x2
 1803 06fd 00       		.byte	0
 1804 06fe 11       		.uleb128 0x11
 1805 06ff 4C040000 		.4byte	.LASF100
 1806 0703 05       		.byte	0x5
 1807 0704 40       		.byte	0x40
 1808 0705 0F070000 		.4byte	0x70f
 1809 0709 05       		.uleb128 0x5
 1810 070a 03       		.byte	0x3
 1811 070b 00000000 		.4byte	time
 1812 070f 05       		.uleb128 0x5
 1813 0710 EE060000 		.4byte	0x6ee
 1814 0714 11       		.uleb128 0x11
 1815 0715 E4000000 		.4byte	.LASF101
 1816 0719 05       		.byte	0x5
 1817 071a 41       		.byte	0x41
 1818 071b 25070000 		.4byte	0x725
 1819 071f 05       		.uleb128 0x5
 1820 0720 03       		.byte	0x3
 1821 0721 00000000 		.4byte	date
 1822 0725 05       		.uleb128 0x5
 1823 0726 EE060000 		.4byte	0x6ee
 1824 072a 11       		.uleb128 0x11
 1825 072b 88030000 		.4byte	.LASF102
 1826 072f 05       		.byte	0x5
 1827 0730 42       		.byte	0x42
 1828 0731 3B070000 		.4byte	0x73b
 1829 0735 05       		.uleb128 0x5
 1830 0736 03       		.byte	0x3
 1831 0737 00000000 		.4byte	screen
 1832 073b 05       		.uleb128 0x5
 1833 073c 5A030000 		.4byte	0x35a
 1834 0740 11       		.uleb128 0x11
 1835 0741 4D050000 		.4byte	.LASF103
 1836 0745 05       		.byte	0x5
 1837 0746 43       		.byte	0x43
 1838 0747 51070000 		.4byte	0x751
 1839 074b 05       		.uleb128 0x5
 1840 074c 03       		.byte	0x3
 1841 074d 00000000 		.4byte	residue
 1842 0751 05       		.uleb128 0x5
 1843 0752 A0030000 		.4byte	0x3a0
 1844 0756 09       		.uleb128 0x9
 1845 0757 81000000 		.4byte	0x81
 1846 075b 66070000 		.4byte	0x766
 1847 075f 0A       		.uleb128 0xa
 1848 0760 C1000000 		.4byte	0xc1
 1849 0764 1D       		.byte	0x1d
 1850 0765 00       		.byte	0
 1851 0766 11       		.uleb128 0x11
 1852 0767 1E060000 		.4byte	.LASF104
 1853 076b 05       		.byte	0x5
 1854 076c 44       		.byte	0x44
 1855 076d 56070000 		.4byte	0x756
 1856 0771 05       		.uleb128 0x5
 1857 0772 03       		.byte	0x3
 1858 0773 00000000 		.4byte	temporal
ARM GAS  C:\Users\PROYEC~1\AppData\Local\Temp\cczrWv2r.s 			page 37


 1859 0777 11       		.uleb128 0x11
 1860 0778 2D040000 		.4byte	.LASF105
 1861 077c 05       		.byte	0x5
 1862 077d 45       		.byte	0x45
 1863 077e B7000000 		.4byte	0xb7
 1864 0782 05       		.uleb128 0x5
 1865 0783 03       		.byte	0x3
 1866 0784 00000000 		.4byte	turn
 1867 0788 11       		.uleb128 0x11
 1868 0789 23010000 		.4byte	.LASF106
 1869 078d 05       		.byte	0x5
 1870 078e 46       		.byte	0x46
 1871 078f 99070000 		.4byte	0x799
 1872 0793 05       		.uleb128 0x5
 1873 0794 03       		.byte	0x3
 1874 0795 00000000 		.4byte	idSeller
 1875 0799 05       		.uleb128 0x5
 1876 079a 2A030000 		.4byte	0x32a
 1877 079e 11       		.uleb128 0x11
 1878 079f 11060000 		.4byte	.LASF107
 1879 07a3 05       		.byte	0x5
 1880 07a4 47       		.byte	0x47
 1881 07a5 B7000000 		.4byte	0xb7
 1882 07a9 05       		.uleb128 0x5
 1883 07aa 03       		.byte	0x3
 1884 07ab 00000000 		.4byte	typeIdSeller
 1885 07af 11       		.uleb128 0x11
 1886 07b0 C7020000 		.4byte	.LASF108
 1887 07b4 05       		.byte	0x5
 1888 07b5 48       		.byte	0x48
 1889 07b6 C0070000 		.4byte	0x7c0
 1890 07ba 05       		.uleb128 0x5
 1891 07bb 03       		.byte	0x3
 1892 07bc 00000000 		.4byte	passwordSeller
 1893 07c0 05       		.uleb128 0x5
 1894 07c1 1D050000 		.4byte	0x51d
 1895 07c5 11       		.uleb128 0x11
 1896 07c6 27060000 		.4byte	.LASF109
 1897 07ca 05       		.byte	0x5
 1898 07cb 49       		.byte	0x49
 1899 07cc B7000000 		.4byte	0xb7
 1900 07d0 05       		.uleb128 0x5
 1901 07d1 03       		.byte	0x3
 1902 07d2 00000000 		.4byte	flagResetMux
 1903 07d6 11       		.uleb128 0x11
 1904 07d7 37050000 		.4byte	.LASF110
 1905 07db 05       		.byte	0x5
 1906 07dc 85       		.byte	0x85
 1907 07dd C8000000 		.4byte	0xc8
 1908 07e1 05       		.uleb128 0x5
 1909 07e2 03       		.byte	0x3
 1910 07e3 00000000 		.4byte	bufferLCD1
 1911 07e7 11       		.uleb128 0x11
 1912 07e8 42050000 		.4byte	.LASF111
 1913 07ec 05       		.byte	0x5
 1914 07ed 86       		.byte	0x86
 1915 07ee C8000000 		.4byte	0xc8
ARM GAS  C:\Users\PROYEC~1\AppData\Local\Temp\cczrWv2r.s 			page 38


 1916 07f2 05       		.uleb128 0x5
 1917 07f3 03       		.byte	0x3
 1918 07f4 00000000 		.4byte	bufferLCD2
 1919 07f8 11       		.uleb128 0x11
 1920 07f9 FF050000 		.4byte	.LASF112
 1921 07fd 05       		.byte	0x5
 1922 07fe 9F       		.byte	0x9f
 1923 07ff B6040000 		.4byte	0x4b6
 1924 0803 05       		.uleb128 0x5
 1925 0804 03       		.byte	0x3
 1926 0805 00000000 		.4byte	side
 1927 0809 00       		.byte	0
 1928              		.section	.debug_abbrev,"",%progbits
 1929              	.Ldebug_abbrev0:
 1930 0000 01       		.uleb128 0x1
 1931 0001 11       		.uleb128 0x11
 1932 0002 01       		.byte	0x1
 1933 0003 25       		.uleb128 0x25
 1934 0004 0E       		.uleb128 0xe
 1935 0005 13       		.uleb128 0x13
 1936 0006 0B       		.uleb128 0xb
 1937 0007 03       		.uleb128 0x3
 1938 0008 0E       		.uleb128 0xe
 1939 0009 1B       		.uleb128 0x1b
 1940 000a 0E       		.uleb128 0xe
 1941 000b 55       		.uleb128 0x55
 1942 000c 17       		.uleb128 0x17
 1943 000d 11       		.uleb128 0x11
 1944 000e 01       		.uleb128 0x1
 1945 000f 10       		.uleb128 0x10
 1946 0010 17       		.uleb128 0x17
 1947 0011 00       		.byte	0
 1948 0012 00       		.byte	0
 1949 0013 02       		.uleb128 0x2
 1950 0014 24       		.uleb128 0x24
 1951 0015 00       		.byte	0
 1952 0016 0B       		.uleb128 0xb
 1953 0017 0B       		.uleb128 0xb
 1954 0018 3E       		.uleb128 0x3e
 1955 0019 0B       		.uleb128 0xb
 1956 001a 03       		.uleb128 0x3
 1957 001b 0E       		.uleb128 0xe
 1958 001c 00       		.byte	0
 1959 001d 00       		.byte	0
 1960 001e 03       		.uleb128 0x3
 1961 001f 16       		.uleb128 0x16
 1962 0020 00       		.byte	0
 1963 0021 03       		.uleb128 0x3
 1964 0022 0E       		.uleb128 0xe
 1965 0023 3A       		.uleb128 0x3a
 1966 0024 0B       		.uleb128 0xb
 1967 0025 3B       		.uleb128 0x3b
 1968 0026 0B       		.uleb128 0xb
 1969 0027 49       		.uleb128 0x49
 1970 0028 13       		.uleb128 0x13
 1971 0029 00       		.byte	0
 1972 002a 00       		.byte	0
ARM GAS  C:\Users\PROYEC~1\AppData\Local\Temp\cczrWv2r.s 			page 39


 1973 002b 04       		.uleb128 0x4
 1974 002c 24       		.uleb128 0x24
 1975 002d 00       		.byte	0
 1976 002e 0B       		.uleb128 0xb
 1977 002f 0B       		.uleb128 0xb
 1978 0030 3E       		.uleb128 0x3e
 1979 0031 0B       		.uleb128 0xb
 1980 0032 03       		.uleb128 0x3
 1981 0033 08       		.uleb128 0x8
 1982 0034 00       		.byte	0
 1983 0035 00       		.byte	0
 1984 0036 05       		.uleb128 0x5
 1985 0037 35       		.uleb128 0x35
 1986 0038 00       		.byte	0
 1987 0039 49       		.uleb128 0x49
 1988 003a 13       		.uleb128 0x13
 1989 003b 00       		.byte	0
 1990 003c 00       		.byte	0
 1991 003d 06       		.uleb128 0x6
 1992 003e 13       		.uleb128 0x13
 1993 003f 01       		.byte	0x1
 1994 0040 03       		.uleb128 0x3
 1995 0041 0E       		.uleb128 0xe
 1996 0042 0B       		.uleb128 0xb
 1997 0043 05       		.uleb128 0x5
 1998 0044 3A       		.uleb128 0x3a
 1999 0045 0B       		.uleb128 0xb
 2000 0046 3B       		.uleb128 0x3b
 2001 0047 0B       		.uleb128 0xb
 2002 0048 01       		.uleb128 0x1
 2003 0049 13       		.uleb128 0x13
 2004 004a 00       		.byte	0
 2005 004b 00       		.byte	0
 2006 004c 07       		.uleb128 0x7
 2007 004d 0D       		.uleb128 0xd
 2008 004e 00       		.byte	0
 2009 004f 03       		.uleb128 0x3
 2010 0050 0E       		.uleb128 0xe
 2011 0051 3A       		.uleb128 0x3a
 2012 0052 0B       		.uleb128 0xb
 2013 0053 3B       		.uleb128 0x3b
 2014 0054 0B       		.uleb128 0xb
 2015 0055 49       		.uleb128 0x49
 2016 0056 13       		.uleb128 0x13
 2017 0057 38       		.uleb128 0x38
 2018 0058 0B       		.uleb128 0xb
 2019 0059 00       		.byte	0
 2020 005a 00       		.byte	0
 2021 005b 08       		.uleb128 0x8
 2022 005c 0D       		.uleb128 0xd
 2023 005d 00       		.byte	0
 2024 005e 03       		.uleb128 0x3
 2025 005f 0E       		.uleb128 0xe
 2026 0060 3A       		.uleb128 0x3a
 2027 0061 0B       		.uleb128 0xb
 2028 0062 3B       		.uleb128 0x3b
 2029 0063 0B       		.uleb128 0xb
ARM GAS  C:\Users\PROYEC~1\AppData\Local\Temp\cczrWv2r.s 			page 40


 2030 0064 49       		.uleb128 0x49
 2031 0065 13       		.uleb128 0x13
 2032 0066 38       		.uleb128 0x38
 2033 0067 05       		.uleb128 0x5
 2034 0068 00       		.byte	0
 2035 0069 00       		.byte	0
 2036 006a 09       		.uleb128 0x9
 2037 006b 01       		.uleb128 0x1
 2038 006c 01       		.byte	0x1
 2039 006d 49       		.uleb128 0x49
 2040 006e 13       		.uleb128 0x13
 2041 006f 01       		.uleb128 0x1
 2042 0070 13       		.uleb128 0x13
 2043 0071 00       		.byte	0
 2044 0072 00       		.byte	0
 2045 0073 0A       		.uleb128 0xa
 2046 0074 21       		.uleb128 0x21
 2047 0075 00       		.byte	0
 2048 0076 49       		.uleb128 0x49
 2049 0077 13       		.uleb128 0x13
 2050 0078 2F       		.uleb128 0x2f
 2051 0079 0B       		.uleb128 0xb
 2052 007a 00       		.byte	0
 2053 007b 00       		.byte	0
 2054 007c 0B       		.uleb128 0xb
 2055 007d 0D       		.uleb128 0xd
 2056 007e 00       		.byte	0
 2057 007f 03       		.uleb128 0x3
 2058 0080 08       		.uleb128 0x8
 2059 0081 3A       		.uleb128 0x3a
 2060 0082 0B       		.uleb128 0xb
 2061 0083 3B       		.uleb128 0x3b
 2062 0084 0B       		.uleb128 0xb
 2063 0085 49       		.uleb128 0x49
 2064 0086 13       		.uleb128 0x13
 2065 0087 38       		.uleb128 0x38
 2066 0088 0B       		.uleb128 0xb
 2067 0089 00       		.byte	0
 2068 008a 00       		.byte	0
 2069 008b 0C       		.uleb128 0xc
 2070 008c 0D       		.uleb128 0xd
 2071 008d 00       		.byte	0
 2072 008e 03       		.uleb128 0x3
 2073 008f 08       		.uleb128 0x8
 2074 0090 3A       		.uleb128 0x3a
 2075 0091 0B       		.uleb128 0xb
 2076 0092 3B       		.uleb128 0x3b
 2077 0093 0B       		.uleb128 0xb
 2078 0094 49       		.uleb128 0x49
 2079 0095 13       		.uleb128 0x13
 2080 0096 38       		.uleb128 0x38
 2081 0097 05       		.uleb128 0x5
 2082 0098 00       		.byte	0
 2083 0099 00       		.byte	0
 2084 009a 0D       		.uleb128 0xd
 2085 009b 2E       		.uleb128 0x2e
 2086 009c 01       		.byte	0x1
ARM GAS  C:\Users\PROYEC~1\AppData\Local\Temp\cczrWv2r.s 			page 41


 2087 009d 3F       		.uleb128 0x3f
 2088 009e 19       		.uleb128 0x19
 2089 009f 03       		.uleb128 0x3
 2090 00a0 0E       		.uleb128 0xe
 2091 00a1 3A       		.uleb128 0x3a
 2092 00a2 0B       		.uleb128 0xb
 2093 00a3 3B       		.uleb128 0x3b
 2094 00a4 0B       		.uleb128 0xb
 2095 00a5 27       		.uleb128 0x27
 2096 00a6 19       		.uleb128 0x19
 2097 00a7 49       		.uleb128 0x49
 2098 00a8 13       		.uleb128 0x13
 2099 00a9 11       		.uleb128 0x11
 2100 00aa 01       		.uleb128 0x1
 2101 00ab 12       		.uleb128 0x12
 2102 00ac 06       		.uleb128 0x6
 2103 00ad 40       		.uleb128 0x40
 2104 00ae 18       		.uleb128 0x18
 2105 00af 9642     		.uleb128 0x2116
 2106 00b1 19       		.uleb128 0x19
 2107 00b2 01       		.uleb128 0x1
 2108 00b3 13       		.uleb128 0x13
 2109 00b4 00       		.byte	0
 2110 00b5 00       		.byte	0
 2111 00b6 0E       		.uleb128 0xe
 2112 00b7 05       		.uleb128 0x5
 2113 00b8 00       		.byte	0
 2114 00b9 03       		.uleb128 0x3
 2115 00ba 08       		.uleb128 0x8
 2116 00bb 3A       		.uleb128 0x3a
 2117 00bc 0B       		.uleb128 0xb
 2118 00bd 3B       		.uleb128 0x3b
 2119 00be 0B       		.uleb128 0xb
 2120 00bf 49       		.uleb128 0x49
 2121 00c0 13       		.uleb128 0x13
 2122 00c1 02       		.uleb128 0x2
 2123 00c2 18       		.uleb128 0x18
 2124 00c3 00       		.byte	0
 2125 00c4 00       		.byte	0
 2126 00c5 0F       		.uleb128 0xf
 2127 00c6 05       		.uleb128 0x5
 2128 00c7 00       		.byte	0
 2129 00c8 03       		.uleb128 0x3
 2130 00c9 0E       		.uleb128 0xe
 2131 00ca 3A       		.uleb128 0x3a
 2132 00cb 0B       		.uleb128 0xb
 2133 00cc 3B       		.uleb128 0x3b
 2134 00cd 0B       		.uleb128 0xb
 2135 00ce 49       		.uleb128 0x49
 2136 00cf 13       		.uleb128 0x13
 2137 00d0 02       		.uleb128 0x2
 2138 00d1 18       		.uleb128 0x18
 2139 00d2 00       		.byte	0
 2140 00d3 00       		.byte	0
 2141 00d4 10       		.uleb128 0x10
 2142 00d5 34       		.uleb128 0x34
 2143 00d6 00       		.byte	0
ARM GAS  C:\Users\PROYEC~1\AppData\Local\Temp\cczrWv2r.s 			page 42


 2144 00d7 03       		.uleb128 0x3
 2145 00d8 0E       		.uleb128 0xe
 2146 00d9 3A       		.uleb128 0x3a
 2147 00da 0B       		.uleb128 0xb
 2148 00db 3B       		.uleb128 0x3b
 2149 00dc 05       		.uleb128 0x5
 2150 00dd 49       		.uleb128 0x49
 2151 00de 13       		.uleb128 0x13
 2152 00df 3F       		.uleb128 0x3f
 2153 00e0 19       		.uleb128 0x19
 2154 00e1 3C       		.uleb128 0x3c
 2155 00e2 19       		.uleb128 0x19
 2156 00e3 00       		.byte	0
 2157 00e4 00       		.byte	0
 2158 00e5 11       		.uleb128 0x11
 2159 00e6 34       		.uleb128 0x34
 2160 00e7 00       		.byte	0
 2161 00e8 03       		.uleb128 0x3
 2162 00e9 0E       		.uleb128 0xe
 2163 00ea 3A       		.uleb128 0x3a
 2164 00eb 0B       		.uleb128 0xb
 2165 00ec 3B       		.uleb128 0x3b
 2166 00ed 0B       		.uleb128 0xb
 2167 00ee 49       		.uleb128 0x49
 2168 00ef 13       		.uleb128 0x13
 2169 00f0 3F       		.uleb128 0x3f
 2170 00f1 19       		.uleb128 0x19
 2171 00f2 02       		.uleb128 0x2
 2172 00f3 18       		.uleb128 0x18
 2173 00f4 00       		.byte	0
 2174 00f5 00       		.byte	0
 2175 00f6 00       		.byte	0
 2176              		.section	.debug_aranges,"",%progbits
 2177 0000 1C000000 		.4byte	0x1c
 2178 0004 0200     		.2byte	0x2
 2179 0006 00000000 		.4byte	.Ldebug_info0
 2180 000a 04       		.byte	0x4
 2181 000b 00       		.byte	0
 2182 000c 0000     		.2byte	0
 2183 000e 0000     		.2byte	0
 2184 0010 00000000 		.4byte	.LFB56
 2185 0014 54060000 		.4byte	.LFE56-.LFB56
 2186 0018 00000000 		.4byte	0
 2187 001c 00000000 		.4byte	0
 2188              		.section	.debug_ranges,"",%progbits
 2189              	.Ldebug_ranges0:
 2190 0000 00000000 		.4byte	.LFB56
 2191 0004 54060000 		.4byte	.LFE56
 2192 0008 00000000 		.4byte	0
 2193 000c 00000000 		.4byte	0
 2194              		.section	.debug_line,"",%progbits
 2195              	.Ldebug_line0:
 2196 0000 45020000 		.section	.debug_str,"MS",%progbits,1
 2196      02007201 
 2196      00000201 
 2196      FB0E0D00 
 2196      01010101 
ARM GAS  C:\Users\PROYEC~1\AppData\Local\Temp\cczrWv2r.s 			page 43


 2197              	.LASF52:
 2198 0000 6D6F6E65 		.ascii	"moneyQuota\000"
 2198      7951756F 
 2198      746100
 2199              	.LASF32:
 2200 000b 70726F64 		.ascii	"productType\000"
 2200      75637454 
 2200      79706500 
 2201              	.LASF5:
 2202 0017 6C6F6E67 		.ascii	"long unsigned int\000"
 2202      20756E73 
 2202      69676E65 
 2202      6420696E 
 2202      7400
 2203              	.LASF116:
 2204 0029 616C7068 		.ascii	"alphanumeric_keyboard\000"
 2204      616E756D 
 2204      65726963 
 2204      5F6B6579 
 2204      626F6172 
 2205              	.LASF50:
 2206 003f 666C6167 		.ascii	"flagEndSale\000"
 2206      456E6453 
 2206      616C6500 
 2207              	.LASF78:
 2208 004b 4C434432 		.ascii	"LCD2_rxBuffer\000"
 2208      5F727842 
 2208      75666665 
 2208      7200
 2209              	.LASF19:
 2210 0059 69645365 		.ascii	"idSerial\000"
 2210      7269616C 
 2210      00
 2211              	.LASF2:
 2212 0062 73686F72 		.ascii	"short int\000"
 2212      7420696E 
 2212      7400
 2213              	.LASF44:
 2214 006c 6C696365 		.ascii	"licenceSale\000"
 2214      6E636553 
 2214      616C6500 
 2215              	.LASF88:
 2216 0078 6E756D62 		.ascii	"numberKeys2\000"
 2216      65724B65 
 2216      79733200 
 2217              	.LASF17:
 2218 0084 73697A65 		.ascii	"sizetype\000"
 2218      74797065 
 2218      00
 2219              	.LASF33:
 2220 008d 73746174 		.ascii	"stateMux\000"
 2220      654D7578 
 2220      00
 2221              	.LASF28:
 2222 0096 73616C65 		.ascii	"saleType\000"
 2222      54797065 
 2222      00
ARM GAS  C:\Users\PROYEC~1\AppData\Local\Temp\cczrWv2r.s 			page 44


 2223              	.LASF64:
 2224 009f 7072696E 		.ascii	"printers\000"
 2224      74657273 
 2224      00
 2225              	.LASF23:
 2226 00a8 73657269 		.ascii	"serialSelectedSale\000"
 2226      616C5365 
 2226      6C656374 
 2226      65645361 
 2226      6C6500
 2227              	.LASF86:
 2228 00bb 69704164 		.ascii	"ipAdress\000"
 2228      72657373 
 2228      00
 2229              	.LASF82:
 2230 00c4 636F756E 		.ascii	"countBeagleTX\000"
 2230      74426561 
 2230      676C6554 
 2230      5800
 2231              	.LASF54:
 2232 00d2 70707551 		.ascii	"ppuQuota\000"
 2232      756F7461 
 2232      00
 2233              	.LASF67:
 2234 00db 706F7369 		.ascii	"position\000"
 2234      74696F6E 
 2234      00
 2235              	.LASF101:
 2236 00e4 64617465 		.ascii	"date\000"
 2236      00
 2237              	.LASF31:
 2238 00e9 70726573 		.ascii	"presetValue\000"
 2238      65745661 
 2238      6C756500 
 2239              	.LASF20:
 2240 00f5 77617954 		.ascii	"wayToPay\000"
 2240      6F506179 
 2240      00
 2241              	.LASF29:
 2242 00fe 73616C65 		.ascii	"salePerform\000"
 2242      50657266 
 2242      6F726D00 
 2243              	.LASF45:
 2244 010a 6D696C65 		.ascii	"mileageSale\000"
 2244      61676553 
 2244      616C6500 
 2245              	.LASF18:
 2246 0116 69645479 		.ascii	"idType\000"
 2246      706500
 2247              	.LASF11:
 2248 011d 75696E74 		.ascii	"uint8\000"
 2248      3800
 2249              	.LASF106:
 2250 0123 69645365 		.ascii	"idSeller\000"
 2250      6C6C6572 
 2250      00
 2251              	.LASF0:
ARM GAS  C:\Users\PROYEC~1\AppData\Local\Temp\cczrWv2r.s 			page 45


 2252 012c 7369676E 		.ascii	"signed char\000"
 2252      65642063 
 2252      68617200 
 2253              	.LASF68:
 2254 0138 746F7461 		.ascii	"totalsHandle\000"
 2254      6C734861 
 2254      6E646C65 
 2254      00
 2255              	.LASF13:
 2256 0145 666C6F61 		.ascii	"float\000"
 2256      7400
 2257              	.LASF97:
 2258 014b 64656369 		.ascii	"decimalMoney\000"
 2258      6D616C4D 
 2258      6F6E6579 
 2258      00
 2259              	.LASF89:
 2260 0158 666C6167 		.ascii	"flagPoint1\000"
 2260      506F696E 
 2260      743100
 2261              	.LASF90:
 2262 0163 666C6167 		.ascii	"flagPoint2\000"
 2262      506F696E 
 2262      743200
 2263              	.LASF6:
 2264 016e 6C6F6E67 		.ascii	"long long int\000"
 2264      206C6F6E 
 2264      6720696E 
 2264      7400
 2265              	.LASF94:
 2266 017c 64656C61 		.ascii	"delayPicture1\000"
 2266      79506963 
 2266      74757265 
 2266      3100
 2267              	.LASF24:
 2268 018a 6B657962 		.ascii	"keyboardWayToPay\000"
 2268      6F617264 
 2268      57617954 
 2268      6F506179 
 2268      00
 2269              	.LASF113:
 2270 019b 474E5520 		.ascii	"GNU C 4.9.3 20150303 (release) [ARM/embedded-4_9-br"
 2270      4320342E 
 2270      392E3320 
 2270      32303135 
 2270      30333033 
 2271 01ce 616E6368 		.ascii	"anch revision 221220] -mcpu=cortex-m3 -mthumb -g -O"
 2271      20726576 
 2271      6973696F 
 2271      6E203232 
 2271      31323230 
 2272 0201 30202D66 		.ascii	"0 -ffunction-sections -ffat-lto-objects\000"
 2272      66756E63 
 2272      74696F6E 
 2272      2D736563 
 2272      74696F6E 
 2273              	.LASF15:
ARM GAS  C:\Users\PROYEC~1\AppData\Local\Temp\cczrWv2r.s 			page 46


 2274 0229 75696E74 		.ascii	"uint64\000"
 2274      363400
 2275              	.LASF91:
 2276 0230 62757474 		.ascii	"button\000"
 2276      6F6E00
 2277              	.LASF27:
 2278 0237 76656869 		.ascii	"vehicleType\000"
 2278      636C6554 
 2278      79706500 
 2279              	.LASF95:
 2280 0243 64656C61 		.ascii	"delayPicture2\000"
 2280      79506963 
 2280      74757265 
 2280      3200
 2281              	.LASF49:
 2282 0251 666C6167 		.ascii	"flagLiftHandle\000"
 2282      4C696674 
 2282      48616E64 
 2282      6C6500
 2283              	.LASF39:
 2284 0260 746F7461 		.ascii	"totalVolumePrevious\000"
 2284      6C566F6C 
 2284      756D6550 
 2284      72657669 
 2284      6F757300 
 2285              	.LASF26:
 2286 0274 76616C75 		.ascii	"valueKeys\000"
 2286      654B6579 
 2286      7300
 2287              	.LASF85:
 2288 027e 64696769 		.ascii	"digits\000"
 2288      747300
 2289              	.LASF76:
 2290 0285 63686172 		.ascii	"character\000"
 2290      61637465 
 2290      7200
 2291              	.LASF69:
 2292 028f 70707541 		.ascii	"ppuAuthorized\000"
 2292      7574686F 
 2292      72697A65 
 2292      6400
 2293              	.LASF41:
 2294 029d 746F7461 		.ascii	"totalMoneyAfter\000"
 2294      6C4D6F6E 
 2294      65794166 
 2294      74657200 
 2295              	.LASF1:
 2296 02ad 756E7369 		.ascii	"unsigned char\000"
 2296      676E6564 
 2296      20636861 
 2296      7200
 2297              	.LASF73:
 2298 02bb 70726F64 		.ascii	"productSale\000"
 2298      75637453 
 2298      616C6500 
 2299              	.LASF108:
 2300 02c7 70617373 		.ascii	"passwordSeller\000"
ARM GAS  C:\Users\PROYEC~1\AppData\Local\Temp\cczrWv2r.s 			page 47


 2300      776F7264 
 2300      53656C6C 
 2300      657200
 2301              	.LASF115:
 2302 02d6 433A5C55 		.ascii	"C:\\Users\\Proyectos_Hardware\\Dropbox\\Proyecto Co"
 2302      73657273 
 2302      5C50726F 
 2302      79656374 
 2302      6F735F48 
 2303 0305 6E74726F 		.ascii	"ntroller\\Mux Advance Encore V5_00\\MuxAdvance.cyds"
 2303      6C6C6572 
 2303      5C4D7578 
 2303      20416476 
 2303      616E6365 
 2304 0336 6E00     		.ascii	"n\000"
 2305              	.LASF30:
 2306 0338 70726573 		.ascii	"presetType\000"
 2306      65745479 
 2306      706500
 2307              	.LASF47:
 2308 0343 666C6167 		.ascii	"flagKeyboard\000"
 2308      4B657962 
 2308      6F617264 
 2308      00
 2309              	.LASF93:
 2310 0350 70726573 		.ascii	"presetFast\000"
 2310      65744661 
 2310      737400
 2311              	.LASF57:
 2312 035b 7175616E 		.ascii	"quantityMarket\000"
 2312      74697479 
 2312      4D61726B 
 2312      657400
 2313              	.LASF22:
 2314 036a 6D6F6E65 		.ascii	"moneySelectedSale\000"
 2314      7953656C 
 2314      65637465 
 2314      6453616C 
 2314      6500
 2315              	.LASF87:
 2316 037c 6E756D62 		.ascii	"numberKeys1\000"
 2316      65724B65 
 2316      79733100 
 2317              	.LASF102:
 2318 0388 73637265 		.ascii	"screen\000"
 2318      656E00
 2319              	.LASF58:
 2320 038f 7175616E 		.ascii	"quantAvailableMark\000"
 2320      74417661 
 2320      696C6162 
 2320      6C654D61 
 2320      726B00
 2321              	.LASF98:
 2322 03a2 64656369 		.ascii	"decimalVolume\000"
 2322      6D616C56 
 2322      6F6C756D 
 2322      6500
ARM GAS  C:\Users\PROYEC~1\AppData\Local\Temp\cczrWv2r.s 			page 48


 2323              	.LASF55:
 2324 03b0 73657269 		.ascii	"serialMarket\000"
 2324      616C4D61 
 2324      726B6574 
 2324      00
 2325              	.LASF7:
 2326 03bd 6C6F6E67 		.ascii	"long long unsigned int\000"
 2326      206C6F6E 
 2326      6720756E 
 2326      7369676E 
 2326      65642069 
 2327              	.LASF96:
 2328 03d4 70707578 		.ascii	"ppux10\000"
 2328      313000
 2329              	.LASF38:
 2330 03db 746F7461 		.ascii	"totalMoneyPrevious\000"
 2330      6C4D6F6E 
 2330      65795072 
 2330      6576696F 
 2330      757300
 2331              	.LASF34:
 2332 03ee 64617465 		.ascii	"dateLiftHandle\000"
 2332      4C696674 
 2332      48616E64 
 2332      6C6500
 2333              	.LASF8:
 2334 03fd 756E7369 		.ascii	"unsigned int\000"
 2334      676E6564 
 2334      20696E74 
 2334      00
 2335              	.LASF72:
 2336 040a 70707553 		.ascii	"ppuSale\000"
 2336      616C6500 
 2337              	.LASF46:
 2338 0412 6964656E 		.ascii	"identySale\000"
 2338      74795361 
 2338      6C6500
 2339              	.LASF60:
 2340 041d 70726963 		.ascii	"priceUnitMarket\000"
 2340      65556E69 
 2340      744D6172 
 2340      6B657400 
 2341              	.LASF105:
 2342 042d 7475726E 		.ascii	"turn\000"
 2342      00
 2343              	.LASF42:
 2344 0432 746F7461 		.ascii	"totalVolumeAfter\000"
 2344      6C566F6C 
 2344      756D6541 
 2344      66746572 
 2344      00
 2345              	.LASF83:
 2346 0443 666C6F77 		.ascii	"flowLCD1\000"
 2346      4C434431 
 2346      00
 2347              	.LASF100:
 2348 044c 74696D65 		.ascii	"time\000"
ARM GAS  C:\Users\PROYEC~1\AppData\Local\Temp\cczrWv2r.s 			page 49


 2348      00
 2349              	.LASF56:
 2350 0451 70726F64 		.ascii	"productMarket\000"
 2350      7563744D 
 2350      61726B65 
 2350      7400
 2351              	.LASF71:
 2352 045f 766F6C75 		.ascii	"volumeSale\000"
 2352      6D655361 
 2352      6C6500
 2353              	.LASF53:
 2354 046a 766F6C75 		.ascii	"volumeQuota\000"
 2354      6D655175 
 2354      6F746100 
 2355              	.LASF48:
 2356 0476 666C6167 		.ascii	"flagPayment\000"
 2356      5061796D 
 2356      656E7400 
 2357              	.LASF70:
 2358 0482 6D6F6E65 		.ascii	"moneySale\000"
 2358      7953616C 
 2358      6500
 2359              	.LASF16:
 2360 048c 63686172 		.ascii	"char\000"
 2360      00
 2361              	.LASF99:
 2362 0491 73796D62 		.ascii	"symbols\000"
 2362      6F6C7300 
 2363              	.LASF4:
 2364 0499 6C6F6E67 		.ascii	"long int\000"
 2364      20696E74 
 2364      00
 2365              	.LASF10:
 2366 04a2 696E7433 		.ascii	"int32_t\000"
 2366      325F7400 
 2367              	.LASF36:
 2368 04aa 74696D65 		.ascii	"timeLiftHandle\000"
 2368      4C696674 
 2368      48616E64 
 2368      6C6500
 2369              	.LASF77:
 2370 04b9 4C434431 		.ascii	"LCD1_rxBuffer\000"
 2370      5F727842 
 2370      75666665 
 2370      7200
 2371              	.LASF43:
 2372 04c7 746F7461 		.ascii	"totalPPUAfter\000"
 2372      6C505055 
 2372      41667465 
 2372      7200
 2373              	.LASF84:
 2374 04d5 666C6F77 		.ascii	"flowLCD2\000"
 2374      4C434432 
 2374      00
 2375              	.LASF35:
 2376 04de 64617465 		.ascii	"dateDownHandle\000"
 2376      446F776E 
ARM GAS  C:\Users\PROYEC~1\AppData\Local\Temp\cczrWv2r.s 			page 50


 2376      48616E64 
 2376      6C6500
 2377              	.LASF74:
 2378 04ed 70756D70 		.ascii	"pump\000"
 2378      00
 2379              	.LASF66:
 2380 04f2 62756666 		.ascii	"buffer\000"
 2380      657200
 2381              	.LASF3:
 2382 04f9 73686F72 		.ascii	"short unsigned int\000"
 2382      7420756E 
 2382      7369676E 
 2382      65642069 
 2382      6E7400
 2383              	.LASF12:
 2384 050c 75696E74 		.ascii	"uint32\000"
 2384      333200
 2385              	.LASF114:
 2386 0513 2E5C6B65 		.ascii	".\\keyboard.c\000"
 2386      79626F61 
 2386      72642E63 
 2386      00
 2387              	.LASF51:
 2388 0520 6D657373 		.ascii	"message\000"
 2388      61676500 
 2389              	.LASF37:
 2390 0528 74696D65 		.ascii	"timeDownHandle\000"
 2390      446F776E 
 2390      48616E64 
 2390      6C6500
 2391              	.LASF110:
 2392 0537 62756666 		.ascii	"bufferLCD1\000"
 2392      65724C43 
 2392      443100
 2393              	.LASF111:
 2394 0542 62756666 		.ascii	"bufferLCD2\000"
 2394      65724C43 
 2394      443200
 2395              	.LASF103:
 2396 054d 72657369 		.ascii	"residue\000"
 2396      64756500 
 2397              	.LASF62:
 2398 0555 666C6167 		.ascii	"flagProductmarket\000"
 2398      50726F64 
 2398      7563746D 
 2398      61726B65 
 2398      7400
 2399              	.LASF63:
 2400 0567 70726963 		.ascii	"priceConsign\000"
 2400      65436F6E 
 2400      7369676E 
 2400      00
 2401              	.LASF65:
 2402 0574 666C6167 		.ascii	"flagChangePPU\000"
 2402      4368616E 
 2402      67655050 
 2402      5500
ARM GAS  C:\Users\PROYEC~1\AppData\Local\Temp\cczrWv2r.s 			page 51


 2403              	.LASF21:
 2404 0582 73656C65 		.ascii	"selectedSale\000"
 2404      63746564 
 2404      53616C65 
 2404      00
 2405              	.LASF9:
 2406 058f 5F5F696E 		.ascii	"__int32_t\000"
 2406      7433325F 
 2406      7400
 2407              	.LASF25:
 2408 0599 61757468 		.ascii	"authorizationFlag\000"
 2408      6F72697A 
 2408      6174696F 
 2408      6E466C61 
 2408      6700
 2409              	.LASF92:
 2410 05ab 70726F64 		.ascii	"productNumber\000"
 2410      7563744E 
 2410      756D6265 
 2410      7200
 2411              	.LASF80:
 2412 05b9 636F756E 		.ascii	"countAnimation1\000"
 2412      74416E69 
 2412      6D617469 
 2412      6F6E3100 
 2413              	.LASF81:
 2414 05c9 636F756E 		.ascii	"countAnimation2\000"
 2414      74416E69 
 2414      6D617469 
 2414      6F6E3200 
 2415              	.LASF40:
 2416 05d9 746F7461 		.ascii	"totalPPUPrevious\000"
 2416      6C505055 
 2416      50726576 
 2416      696F7573 
 2416      00
 2417              	.LASF14:
 2418 05ea 646F7562 		.ascii	"double\000"
 2418      6C6500
 2419              	.LASF75:
 2420 05f1 6D61784E 		.ascii	"maxNumberKeys\000"
 2420      756D6265 
 2420      724B6579 
 2420      7300
 2421              	.LASF112:
 2422 05ff 73696465 		.ascii	"side\000"
 2422      00
 2423              	.LASF79:
 2424 0604 49544D5F 		.ascii	"ITM_RxBuffer\000"
 2424      52784275 
 2424      66666572 
 2424      00
 2425              	.LASF107:
 2426 0611 74797065 		.ascii	"typeIdSeller\000"
 2426      49645365 
 2426      6C6C6572 
 2426      00
ARM GAS  C:\Users\PROYEC~1\AppData\Local\Temp\cczrWv2r.s 			page 52


 2427              	.LASF104:
 2428 061e 74656D70 		.ascii	"temporal\000"
 2428      6F72616C 
 2428      00
 2429              	.LASF109:
 2430 0627 666C6167 		.ascii	"flagResetMux\000"
 2430      52657365 
 2430      744D7578 
 2430      00
 2431              	.LASF59:
 2432 0634 70726963 		.ascii	"priceTotalMarket\000"
 2432      65546F74 
 2432      616C4D61 
 2432      726B6574 
 2432      00
 2433              	.LASF61:
 2434 0645 746F7461 		.ascii	"totalMarket\000"
 2434      6C4D6172 
 2434      6B657400 
 2435              		.ident	"GCC: (GNU Tools for ARM Embedded Processors) 4.9.3 20150303 (release) [ARM/embedded-4_9-br
