ARM GAS  C:\Users\RECEPC~1\AppData\Local\Temp\ccAuxgaT.s 			page 1


   1              		.syntax unified
   2              		.cpu cortex-m3
   3              		.fpu softvfp
   4              		.eabi_attribute 20, 1
   5              		.eabi_attribute 21, 1
   6              		.eabi_attribute 23, 3
   7              		.eabi_attribute 24, 1
   8              		.eabi_attribute 25, 1
   9              		.eabi_attribute 26, 1
  10              		.eabi_attribute 30, 6
  11              		.eabi_attribute 34, 1
  12              		.eabi_attribute 18, 4
  13              		.thumb
  14              		.file	"LCD.c"
  15              		.text
  16              	.Ltext0:
  17              		.cfi_sections	.debug_frame
  18              		.comm	countAnimation1,8,8
  19              		.comm	countAnimation2,8,8
  20              		.comm	countBeagleTX,8,8
  21              		.comm	countPump,8,8
  22              		.comm	flowLCD1,4,4
  23              		.comm	flowLCD2,4,4
  24              		.comm	digits,1,1
  25              		.comm	ipAdress,12,4
  26              		.comm	numberKeys1,1,1
  27              		.comm	numberKeys2,1,1
  28              		.comm	flagPoint1,1,1
  29              		.comm	flagPoint2,1,1
  30              		.comm	button,960,4
  31              		.comm	productNumber,1,1
  32              		.comm	presetFast,30,4
  33              		.comm	delayPicture1,4,4
  34              		.comm	delayPicture2,4,4
  35              		.comm	ppux10,1,1
  36              		.comm	decimalMoney,1,1
  37              		.comm	decimalVolume,1,1
  38              		.comm	symbols,2,4
  39              		.comm	time,3,4
  40              		.comm	date,3,4
  41              		.comm	screen,2,4
  42              		.comm	residue,14,4
  43              		.comm	temporal,30,4
  44              		.comm	temporalCom,30,4
  45              		.comm	turn,1,1
  46              		.comm	lockTurn,1,1
  47              		.comm	idSeller,25,4
  48              		.comm	typeIdSeller,1,1
  49              		.comm	passwordSeller,8,4
  50              		.comm	flagResetMux,1,1
  51              		.comm	stateBeagleSoft,1,1
  52              		.comm	bufferLCD1,661,4
  53              		.comm	bufferLCD2,661,4
  54              		.comm	side,512,4
  55              		.section	.rodata
  56              		.align	2
  57              	.LC0:
ARM GAS  C:\Users\RECEPC~1\AppData\Local\Temp\ccAuxgaT.s 			page 2


  58 0000 AA       		.byte	-86
  59 0001 70       		.byte	112
  60 0002 00       		.byte	0
  61 0003 00       		.byte	0
  62 0004 CC       		.byte	-52
  63 0005 33       		.byte	51
  64 0006 C3       		.byte	-61
  65 0007 3C       		.byte	60
  66              		.section	.text.set_picture,"ax",%progbits
  67              		.align	2
  68              		.global	set_picture
  69              		.thumb
  70              		.thumb_func
  71              		.type	set_picture, %function
  72              	set_picture:
  73              	.LFB56:
  74              		.file 1 ".\\LCD.c"
   1:.\LCD.c       **** /*
   2:.\LCD.c       **** ***************************************************************************************************
   3:.\LCD.c       **** *                                         MUX ADVANCE CODE
   4:.\LCD.c       **** *
   5:.\LCD.c       **** *                             (c) Copyright 2016; Sistemas Insepet LTDA
   6:.\LCD.c       **** *
   7:.\LCD.c       **** *               All rights reserved.  Protected by international copyright laws.
   8:.\LCD.c       **** *               Knowledge of the source code may NOT be used to develop a similar product.
   9:.\LCD.c       **** *               Please help us continue to provide the Embedded community with the finest
  10:.\LCD.c       **** *               software available.  Your honesty is greatly appreciated.
  11:.\LCD.c       **** ***************************************************************************************************
  12:.\LCD.c       **** */
  13:.\LCD.c       **** 
  14:.\LCD.c       **** /*
  15:.\LCD.c       **** ***************************************************************************************************
  16:.\LCD.c       **** *
  17:.\LCD.c       **** *                                            MUX ADVANCE CODE
  18:.\LCD.c       **** *
  19:.\LCD.c       **** *                                             CYPRESS PSoC5LP
  20:.\LCD.c       **** *                                                with the
  21:.\LCD.c       **** *                                            CY8C5969AXI-LP035
  22:.\LCD.c       **** *
  23:.\LCD.c       **** * Filename      : LCD.c
  24:.\LCD.c       **** * Version       : V1.00
  25:.\LCD.c       **** * Programmer(s) : 
  26:.\LCD.c       ****                   
  27:.\LCD.c       **** ***************************************************************************************************
  28:.\LCD.c       **** */
  29:.\LCD.c       **** 
  30:.\LCD.c       **** /*
  31:.\LCD.c       **** ***************************************************************************************************
  32:.\LCD.c       **** *                                             INCLUDE FILES
  33:.\LCD.c       **** ***************************************************************************************************
  34:.\LCD.c       **** */
  35:.\LCD.c       **** 
  36:.\LCD.c       **** #include <device.h>
  37:.\LCD.c       **** #include "variables.h"
  38:.\LCD.c       **** #include "operations.h"
  39:.\LCD.c       **** #include "I2C.h"
  40:.\LCD.c       **** #include "LCD.h"
ARM GAS  C:\Users\RECEPC~1\AppData\Local\Temp\ccAuxgaT.s 			page 3


  41:.\LCD.c       **** 
  42:.\LCD.c       **** 
  43:.\LCD.c       **** /*
  44:.\LCD.c       **** ***************************************************************************************************
  45:.\LCD.c       **** *                                        void set_picture(uint8 lcd, uint16 picture)
  46:.\LCD.c       **** *
  47:.\LCD.c       **** * Description : 
  48:.\LCD.c       **** *               
  49:.\LCD.c       **** *
  50:.\LCD.c       **** * Argument(s) : none
  51:.\LCD.c       **** *
  52:.\LCD.c       **** * Return(s)   : none
  53:.\LCD.c       **** *
  54:.\LCD.c       **** * Caller(s)   :  
  55:.\LCD.c       **** *
  56:.\LCD.c       **** * Note(s)     : none.
  57:.\LCD.c       **** ***************************************************************************************************
  58:.\LCD.c       **** */
  59:.\LCD.c       **** 
  60:.\LCD.c       **** void set_picture(uint8 lcd, uint16 picture){
  75              		.loc 1 60 0
  76              		.cfi_startproc
  77              		@ args = 0, pretend = 0, frame = 24
  78              		@ frame_needed = 1, uses_anonymous_args = 0
  79 0000 80B5     		push	{r7, lr}
  80              		.cfi_def_cfa_offset 8
  81              		.cfi_offset 7, -8
  82              		.cfi_offset 14, -4
  83 0002 86B0     		sub	sp, sp, #24
  84              		.cfi_def_cfa_offset 32
  85 0004 00AF     		add	r7, sp, #0
  86              		.cfi_def_cfa_register 7
  87 0006 0346     		mov	r3, r0
  88 0008 0A46     		mov	r2, r1
  89 000a FB71     		strb	r3, [r7, #7]
  90 000c 1346     		mov	r3, r2	@ movhi
  91 000e BB80     		strh	r3, [r7, #4]	@ movhi
  61:.\LCD.c       ****     uint8 buffer[8]={0xAA,0x70,0x00,0x00,0xCC,0x33,0xC3,0x3C},x;
  92              		.loc 1 61 0
  93 0010 174A     		ldr	r2, .L6
  94 0012 07F10C03 		add	r3, r7, #12
  95 0016 1068     		ldr	r0, [r2]	@ unaligned
  96 0018 5168     		ldr	r1, [r2, #4]	@ unaligned
  97 001a 03C3     		stmia	r3!, {r0, r1}
  62:.\LCD.c       ****     buffer[2]=(picture>>8)&0xFF;
  98              		.loc 1 62 0
  99 001c BB88     		ldrh	r3, [r7, #4]
 100 001e 1B0A     		lsrs	r3, r3, #8
 101 0020 9BB2     		uxth	r3, r3
 102 0022 DBB2     		uxtb	r3, r3
 103 0024 BB73     		strb	r3, [r7, #14]
  63:.\LCD.c       ****     buffer[3]=picture&0xFF;
 104              		.loc 1 63 0
 105 0026 BB88     		ldrh	r3, [r7, #4]	@ movhi
 106 0028 DBB2     		uxtb	r3, r3
 107 002a FB73     		strb	r3, [r7, #15]
  64:.\LCD.c       ****     for(x=0;x<8;x++){
ARM GAS  C:\Users\RECEPC~1\AppData\Local\Temp\ccAuxgaT.s 			page 4


 108              		.loc 1 64 0
 109 002c 0023     		movs	r3, #0
 110 002e FB75     		strb	r3, [r7, #23]
 111 0030 18E0     		b	.L2
 112              	.L5:
  65:.\LCD.c       ****         if(lcd==1){
 113              		.loc 1 65 0
 114 0032 FB79     		ldrb	r3, [r7, #7]	@ zero_extendqisi2
 115 0034 012B     		cmp	r3, #1
 116 0036 09D1     		bne	.L3
  66:.\LCD.c       ****             LCD1_PutChar(buffer[x]);
 117              		.loc 1 66 0
 118 0038 FB7D     		ldrb	r3, [r7, #23]	@ zero_extendqisi2
 119 003a 07F11802 		add	r2, r7, #24
 120 003e 1344     		add	r3, r3, r2
 121 0040 13F80C3C 		ldrb	r3, [r3, #-12]	@ zero_extendqisi2
 122 0044 1846     		mov	r0, r3
 123 0046 FFF7FEFF 		bl	LCD1_PutChar
 124 004a 08E0     		b	.L4
 125              	.L3:
  67:.\LCD.c       ****         }else{
  68:.\LCD.c       ****             LCD2_PutChar(buffer[x]);
 126              		.loc 1 68 0
 127 004c FB7D     		ldrb	r3, [r7, #23]	@ zero_extendqisi2
 128 004e 07F11802 		add	r2, r7, #24
 129 0052 1344     		add	r3, r3, r2
 130 0054 13F80C3C 		ldrb	r3, [r3, #-12]	@ zero_extendqisi2
 131 0058 1846     		mov	r0, r3
 132 005a FFF7FEFF 		bl	LCD2_PutChar
 133              	.L4:
  64:.\LCD.c       ****         if(lcd==1){
 134              		.loc 1 64 0 discriminator 2
 135 005e FB7D     		ldrb	r3, [r7, #23]	@ zero_extendqisi2
 136 0060 0133     		adds	r3, r3, #1
 137 0062 FB75     		strb	r3, [r7, #23]
 138              	.L2:
  64:.\LCD.c       ****         if(lcd==1){
 139              		.loc 1 64 0 is_stmt 0 discriminator 1
 140 0064 FB7D     		ldrb	r3, [r7, #23]	@ zero_extendqisi2
 141 0066 072B     		cmp	r3, #7
 142 0068 E3D9     		bls	.L5
  69:.\LCD.c       ****         }
  70:.\LCD.c       ****     }
  71:.\LCD.c       **** }
 143              		.loc 1 71 0 is_stmt 1
 144 006a 1837     		adds	r7, r7, #24
 145              		.cfi_def_cfa_offset 8
 146 006c BD46     		mov	sp, r7
 147              		.cfi_def_cfa_register 13
 148              		@ sp needed
 149 006e 80BD     		pop	{r7, pc}
 150              	.L7:
 151              		.align	2
 152              	.L6:
 153 0070 00000000 		.word	.LC0
 154              		.cfi_endproc
 155              	.LFE56:
ARM GAS  C:\Users\RECEPC~1\AppData\Local\Temp\ccAuxgaT.s 			page 5


 156              		.size	set_picture, .-set_picture
 157              		.section	.rodata
 158              		.align	2
 159              	.LC1:
 160 0008 AA       		.byte	-86
 161 0009 98       		.byte	-104
 162 000a 00       		.byte	0
 163 000b 00       		.byte	0
 164 000c 01       		.byte	1
 165 000d 39       		.byte	57
 166 000e 23       		.byte	35
 167 000f C5       		.byte	-59
 168 0010 02       		.byte	2
 169 0011 00       		.byte	0
 170 0012 00       		.byte	0
 171 0013 FF       		.byte	-1
 172 0014 FF       		.byte	-1
 173 0015 00       		.byte	0
 174 0016 CC       		.byte	-52
 175 0017 33       		.byte	51
 176 0018 C3       		.byte	-61
 177 0019 3C       		.byte	60
 178              		.section	.text.write_LCD,"ax",%progbits
 179              		.align	2
 180              		.global	write_LCD
 181              		.thumb
 182              		.thumb_func
 183              		.type	write_LCD, %function
 184              	write_LCD:
 185              	.LFB57:
  72:.\LCD.c       **** 
  73:.\LCD.c       **** /*
  74:.\LCD.c       **** ***************************************************************************************************
  75:.\LCD.c       **** *          void write_LCD(uint8_t lcd, uint8_t data, uint16_t posy, uint16_t posx,uint8_t size)
  76:.\LCD.c       **** *
  77:.\LCD.c       **** * Description : 
  78:.\LCD.c       **** *               
  79:.\LCD.c       **** *
  80:.\LCD.c       **** * Argument(s) : none
  81:.\LCD.c       **** *
  82:.\LCD.c       **** * Return(s)   : none
  83:.\LCD.c       **** *
  84:.\LCD.c       **** * Caller(s)   :  
  85:.\LCD.c       **** *
  86:.\LCD.c       **** * Note(s)     : none.
  87:.\LCD.c       **** ***************************************************************************************************
  88:.\LCD.c       **** */
  89:.\LCD.c       **** 
  90:.\LCD.c       **** void write_LCD(uint8_t lcd,uint8_t data, uint16_t posy, uint16_t posx,uint8_t size, uint16_t fgcolo
 186              		.loc 1 90 0
 187              		.cfi_startproc
 188              		@ args = 12, pretend = 0, frame = 32
 189              		@ frame_needed = 1, uses_anonymous_args = 0
 190 0000 B0B5     		push	{r4, r5, r7, lr}
 191              		.cfi_def_cfa_offset 16
 192              		.cfi_offset 4, -16
 193              		.cfi_offset 5, -12
ARM GAS  C:\Users\RECEPC~1\AppData\Local\Temp\ccAuxgaT.s 			page 6


 194              		.cfi_offset 7, -8
 195              		.cfi_offset 14, -4
 196 0002 88B0     		sub	sp, sp, #32
 197              		.cfi_def_cfa_offset 48
 198 0004 00AF     		add	r7, sp, #0
 199              		.cfi_def_cfa_register 7
 200 0006 0446     		mov	r4, r0
 201 0008 0846     		mov	r0, r1
 202 000a 1146     		mov	r1, r2
 203 000c 1A46     		mov	r2, r3
 204 000e 2346     		mov	r3, r4
 205 0010 FB71     		strb	r3, [r7, #7]
 206 0012 0346     		mov	r3, r0
 207 0014 BB71     		strb	r3, [r7, #6]
 208 0016 0B46     		mov	r3, r1	@ movhi
 209 0018 BB80     		strh	r3, [r7, #4]	@ movhi
 210 001a 1346     		mov	r3, r2	@ movhi
 211 001c 7B80     		strh	r3, [r7, #2]	@ movhi
  91:.\LCD.c       **** uint8_t buffer[18]={0xAA,0x98,0,0,0x01,0x39,0x23,0xC5,0x02,0x00,0x00,0xFF,0xFF,0,0xCC,0x33,0xC3,0x3
 212              		.loc 1 91 0
 213 001e 374B     		ldr	r3, .L14
 214 0020 07F10C04 		add	r4, r7, #12
 215 0024 1D46     		mov	r5, r3
 216 0026 2868     		ldr	r0, [r5]	@ unaligned
 217 0028 6968     		ldr	r1, [r5, #4]	@ unaligned
 218 002a AA68     		ldr	r2, [r5, #8]	@ unaligned
 219 002c EB68     		ldr	r3, [r5, #12]	@ unaligned
 220 002e 0FC4     		stmia	r4!, {r0, r1, r2, r3}
 221 0030 2B8A     		ldrh	r3, [r5, #16]	@ unaligned
 222 0032 2380     		strh	r3, [r4]	@ unaligned
  92:.\LCD.c       **** 	buffer[2] =(0x0C*(posx*(size+1)))>>8;
 223              		.loc 1 92 0
 224 0034 7B88     		ldrh	r3, [r7, #2]
 225 0036 97F83020 		ldrb	r2, [r7, #48]	@ zero_extendqisi2
 226 003a 0132     		adds	r2, r2, #1
 227 003c 02FB03F2 		mul	r2, r2, r3
 228 0040 1346     		mov	r3, r2
 229 0042 5B00     		lsls	r3, r3, #1
 230 0044 1344     		add	r3, r3, r2
 231 0046 9B00     		lsls	r3, r3, #2
 232 0048 1B12     		asrs	r3, r3, #8
 233 004a DBB2     		uxtb	r3, r3
 234 004c BB73     		strb	r3, [r7, #14]
  93:.\LCD.c       **** 	buffer[3] =(0x0C*(posx*(size+1)))&0xFF;
 235              		.loc 1 93 0
 236 004e 7B88     		ldrh	r3, [r7, #2]	@ movhi
 237 0050 DBB2     		uxtb	r3, r3
 238 0052 97F83020 		ldrb	r2, [r7, #48]	@ zero_extendqisi2
 239 0056 0132     		adds	r2, r2, #1
 240 0058 D2B2     		uxtb	r2, r2
 241 005a 02FB03F3 		mul	r3, r2, r3
 242 005e DBB2     		uxtb	r3, r3
 243 0060 1A46     		mov	r2, r3
 244 0062 5200     		lsls	r2, r2, #1
 245 0064 1344     		add	r3, r3, r2
 246 0066 9B00     		lsls	r3, r3, #2
 247 0068 DBB2     		uxtb	r3, r3
ARM GAS  C:\Users\RECEPC~1\AppData\Local\Temp\ccAuxgaT.s 			page 7


 248 006a FB73     		strb	r3, [r7, #15]
  94:.\LCD.c       **** 	buffer[4] =(0x0E*posy)>>8;
 249              		.loc 1 94 0
 250 006c BA88     		ldrh	r2, [r7, #4]
 251 006e 1346     		mov	r3, r2
 252 0070 DB00     		lsls	r3, r3, #3
 253 0072 9B1A     		subs	r3, r3, r2
 254 0074 5B00     		lsls	r3, r3, #1
 255 0076 1B12     		asrs	r3, r3, #8
 256 0078 DBB2     		uxtb	r3, r3
 257 007a 3B74     		strb	r3, [r7, #16]
  95:.\LCD.c       **** 	buffer[5] =(0x0E*posy)&0xFF;
 258              		.loc 1 95 0
 259 007c BB88     		ldrh	r3, [r7, #4]	@ movhi
 260 007e DBB2     		uxtb	r3, r3
 261 0080 1A46     		mov	r2, r3
 262 0082 D200     		lsls	r2, r2, #3
 263 0084 D31A     		subs	r3, r2, r3
 264 0086 5B00     		lsls	r3, r3, #1
 265 0088 DBB2     		uxtb	r3, r3
 266 008a 7B74     		strb	r3, [r7, #17]
  96:.\LCD.c       **** 	buffer[6] =0x23+size;
 267              		.loc 1 96 0
 268 008c 97F83030 		ldrb	r3, [r7, #48]
 269 0090 2333     		adds	r3, r3, #35
 270 0092 DBB2     		uxtb	r3, r3
 271 0094 BB74     		strb	r3, [r7, #18]
  97:.\LCD.c       ****     if(bottomless=='Y'){
 272              		.loc 1 97 0
 273 0096 97F83830 		ldrb	r3, [r7, #56]	@ zero_extendqisi2
 274 009a 592B     		cmp	r3, #89
 275 009c 01D1     		bne	.L9
  98:.\LCD.c       ****          buffer[7]=0x85;
 276              		.loc 1 98 0
 277 009e 8523     		movs	r3, #133
 278 00a0 FB74     		strb	r3, [r7, #19]
 279              	.L9:
  99:.\LCD.c       ****     }
 100:.\LCD.c       ****     buffer[9] =(fgcolor&0xFF00)>>8;
 280              		.loc 1 100 0
 281 00a2 BB8E     		ldrh	r3, [r7, #52]
 282 00a4 1B0A     		lsrs	r3, r3, #8
 283 00a6 9BB2     		uxth	r3, r3
 284 00a8 DBB2     		uxtb	r3, r3
 285 00aa 7B75     		strb	r3, [r7, #21]
 101:.\LCD.c       ****     buffer[10]=(fgcolor&0x00FF);
 286              		.loc 1 101 0
 287 00ac BB8E     		ldrh	r3, [r7, #52]	@ movhi
 288 00ae DBB2     		uxtb	r3, r3
 289 00b0 BB75     		strb	r3, [r7, #22]
 102:.\LCD.c       **** 	buffer[13]=data;
 290              		.loc 1 102 0
 291 00b2 BB79     		ldrb	r3, [r7, #6]
 292 00b4 7B76     		strb	r3, [r7, #25]
 103:.\LCD.c       **** 	for(x=0;x<=17;x++){
 293              		.loc 1 103 0
 294 00b6 0023     		movs	r3, #0
ARM GAS  C:\Users\RECEPC~1\AppData\Local\Temp\ccAuxgaT.s 			page 8


 295 00b8 FB77     		strb	r3, [r7, #31]
 296 00ba 18E0     		b	.L10
 297              	.L13:
 104:.\LCD.c       **** 		if(lcd==1){
 298              		.loc 1 104 0
 299 00bc FB79     		ldrb	r3, [r7, #7]	@ zero_extendqisi2
 300 00be 012B     		cmp	r3, #1
 301 00c0 09D1     		bne	.L11
 105:.\LCD.c       **** 			LCD1_PutChar(buffer[x]);
 302              		.loc 1 105 0
 303 00c2 FB7F     		ldrb	r3, [r7, #31]	@ zero_extendqisi2
 304 00c4 07F12002 		add	r2, r7, #32
 305 00c8 1344     		add	r3, r3, r2
 306 00ca 13F8143C 		ldrb	r3, [r3, #-20]	@ zero_extendqisi2
 307 00ce 1846     		mov	r0, r3
 308 00d0 FFF7FEFF 		bl	LCD1_PutChar
 309 00d4 08E0     		b	.L12
 310              	.L11:
 106:.\LCD.c       **** 		}
 107:.\LCD.c       **** 		else{
 108:.\LCD.c       **** 			LCD2_PutChar(buffer[x]);
 311              		.loc 1 108 0
 312 00d6 FB7F     		ldrb	r3, [r7, #31]	@ zero_extendqisi2
 313 00d8 07F12002 		add	r2, r7, #32
 314 00dc 1344     		add	r3, r3, r2
 315 00de 13F8143C 		ldrb	r3, [r3, #-20]	@ zero_extendqisi2
 316 00e2 1846     		mov	r0, r3
 317 00e4 FFF7FEFF 		bl	LCD2_PutChar
 318              	.L12:
 103:.\LCD.c       **** 		if(lcd==1){
 319              		.loc 1 103 0 discriminator 2
 320 00e8 FB7F     		ldrb	r3, [r7, #31]	@ zero_extendqisi2
 321 00ea 0133     		adds	r3, r3, #1
 322 00ec FB77     		strb	r3, [r7, #31]
 323              	.L10:
 103:.\LCD.c       **** 		if(lcd==1){
 324              		.loc 1 103 0 is_stmt 0 discriminator 1
 325 00ee FB7F     		ldrb	r3, [r7, #31]	@ zero_extendqisi2
 326 00f0 112B     		cmp	r3, #17
 327 00f2 E3D9     		bls	.L13
 109:.\LCD.c       **** 		}	
 110:.\LCD.c       **** 	}	
 111:.\LCD.c       **** }
 328              		.loc 1 111 0 is_stmt 1
 329 00f4 2037     		adds	r7, r7, #32
 330              		.cfi_def_cfa_offset 16
 331 00f6 BD46     		mov	sp, r7
 332              		.cfi_def_cfa_register 13
 333              		@ sp needed
 334 00f8 B0BD     		pop	{r4, r5, r7, pc}
 335              	.L15:
 336 00fa 00BF     		.align	2
 337              	.L14:
 338 00fc 08000000 		.word	.LC1
 339              		.cfi_endproc
 340              	.LFE57:
 341              		.size	write_LCD, .-write_LCD
ARM GAS  C:\Users\RECEPC~1\AppData\Local\Temp\ccAuxgaT.s 			page 9


 342              		.section	.rodata
 343 001a 0000     		.align	2
 344              	.LC2:
 345 001c 4D697820 		.ascii	"Mix     \000"
 345      20202020 
 345      00
 346 0025 000000   		.align	2
 347              	.LC3:
 348 0028 202F546F 		.ascii	" /Token \000"
 348      6B656E20 
 348      00
 349 0031 000000   		.section	.text.write_button,"ax",%progbits
 350              		.align	2
 351              		.global	write_button
 352              		.thumb
 353              		.thumb_func
 354              		.type	write_button, %function
 355              	write_button:
 356              	.LFB58:
 112:.\LCD.c       **** 
 113:.\LCD.c       **** /*
 114:.\LCD.c       **** ***************************************************************************************************
 115:.\LCD.c       **** *                                    void write_button(uint8 lcd, uint8 screen)
 116:.\LCD.c       **** *
 117:.\LCD.c       **** * Description : 
 118:.\LCD.c       **** *               
 119:.\LCD.c       **** *
 120:.\LCD.c       **** * Argument(s) : none
 121:.\LCD.c       **** *
 122:.\LCD.c       **** * Return(s)   : none
 123:.\LCD.c       **** *
 124:.\LCD.c       **** * Caller(s)   :  
 125:.\LCD.c       **** *
 126:.\LCD.c       **** * Note(s)     : none.
 127:.\LCD.c       **** ***************************************************************************************************
 128:.\LCD.c       **** */
 129:.\LCD.c       **** 
 130:.\LCD.c       **** void write_button(uint8 lcd, uint8 screen){
 357              		.loc 1 130 0
 358              		.cfi_startproc
 359              		@ args = 0, pretend = 0, frame = 32
 360              		@ frame_needed = 1, uses_anonymous_args = 0
 361 0000 90B5     		push	{r4, r7, lr}
 362              		.cfi_def_cfa_offset 12
 363              		.cfi_offset 4, -12
 364              		.cfi_offset 7, -8
 365              		.cfi_offset 14, -4
 366 0002 8DB0     		sub	sp, sp, #52
 367              		.cfi_def_cfa_offset 64
 368 0004 04AF     		add	r7, sp, #16
 369              		.cfi_def_cfa 7, 48
 370 0006 0346     		mov	r3, r0
 371 0008 0A46     		mov	r2, r1
 372 000a FB71     		strb	r3, [r7, #7]
 373 000c 1346     		mov	r3, r2
 374 000e BB71     		strb	r3, [r7, #6]
 131:.\LCD.c       ****     uint8 x,y,flag,mixto[8]="Mix     ";
ARM GAS  C:\Users\RECEPC~1\AppData\Local\Temp\ccAuxgaT.s 			page 10


 375              		.loc 1 131 0
 376 0010 D04A     		ldr	r2, .L250
 377 0012 07F11403 		add	r3, r7, #20
 378 0016 92E80300 		ldmia	r2, {r0, r1}
 379 001a 83E80300 		stmia	r3, {r0, r1}
 132:.\LCD.c       ****     uint8 token[8] = " /Token ";
 380              		.loc 1 132 0
 381 001e CE4A     		ldr	r2, .L250+4
 382 0020 07F10C03 		add	r3, r7, #12
 383 0024 92E80300 		ldmia	r2, {r0, r1}
 384 0028 83E80300 		stmia	r3, {r0, r1}
 133:.\LCD.c       ****     switch(screen){
 385              		.loc 1 133 0
 386 002c BB79     		ldrb	r3, [r7, #6]	@ zero_extendqisi2
 387 002e 013B     		subs	r3, r3, #1
 388 0030 782B     		cmp	r3, #120
 389 0032 03F29681 		bhi	.L16
 390 0036 01A2     		adr	r2, .L19
 391 0038 52F823F0 		ldr	pc, [r2, r3, lsl #2]
 392              		.p2align 2
 393              	.L19:
 394 003c C3200000 		.word	.L18+1
 395 0040 FF210000 		.word	.L20+1
 396 0044 37230000 		.word	.L21+1
 397 0048 73240000 		.word	.L22+1
 398 004c 63330000 		.word	.L16+1
 399 0050 63330000 		.word	.L16+1
 400 0054 63330000 		.word	.L16+1
 401 0058 63330000 		.word	.L16+1
 402 005c 63330000 		.word	.L16+1
 403 0060 63330000 		.word	.L16+1
 404 0064 63330000 		.word	.L16+1
 405 0068 63330000 		.word	.L16+1
 406 006c 63330000 		.word	.L16+1
 407 0070 63330000 		.word	.L16+1
 408 0074 63330000 		.word	.L16+1
 409 0078 63330000 		.word	.L16+1
 410 007c 63330000 		.word	.L16+1
 411 0080 63330000 		.word	.L16+1
 412 0084 63330000 		.word	.L16+1
 413 0088 63330000 		.word	.L16+1
 414 008c 63330000 		.word	.L16+1
 415 0090 63330000 		.word	.L16+1
 416 0094 63330000 		.word	.L16+1
 417 0098 63330000 		.word	.L16+1
 418 009c 63330000 		.word	.L16+1
 419 00a0 63330000 		.word	.L16+1
 420 00a4 63330000 		.word	.L16+1
 421 00a8 63330000 		.word	.L16+1
 422 00ac 63330000 		.word	.L16+1
 423 00b0 63330000 		.word	.L16+1
 424 00b4 63330000 		.word	.L16+1
 425 00b8 63330000 		.word	.L16+1
 426 00bc 63330000 		.word	.L16+1
 427 00c0 63330000 		.word	.L16+1
 428 00c4 63330000 		.word	.L16+1
 429 00c8 63330000 		.word	.L16+1
ARM GAS  C:\Users\RECEPC~1\AppData\Local\Temp\ccAuxgaT.s 			page 11


 430 00cc 63330000 		.word	.L16+1
 431 00d0 63330000 		.word	.L16+1
 432 00d4 63330000 		.word	.L16+1
 433 00d8 63330000 		.word	.L16+1
 434 00dc 63330000 		.word	.L16+1
 435 00e0 D71F0000 		.word	.L23+1
 436 00e4 63330000 		.word	.L16+1
 437 00e8 63330000 		.word	.L16+1
 438 00ec 63330000 		.word	.L16+1
 439 00f0 63330000 		.word	.L16+1
 440 00f4 63330000 		.word	.L16+1
 441 00f8 611F0000 		.word	.L24+1
 442 00fc 13070000 		.word	.L25+1
 443 0100 89070000 		.word	.L26+1
 444 0104 E31B0000 		.word	.L27+1
 445 0108 591C0000 		.word	.L28+1
 446 010c 0D1D0000 		.word	.L29+1
 447 0110 831D0000 		.word	.L30+1
 448 0114 F91D0000 		.word	.L31+1
 449 0118 6F1E0000 		.word	.L32+1
 450 011c E51E0000 		.word	.L33+1
 451 0120 63330000 		.word	.L16+1
 452 0124 63330000 		.word	.L16+1
 453 0128 63330000 		.word	.L16+1
 454 012c 63330000 		.word	.L16+1
 455 0130 63330000 		.word	.L16+1
 456 0134 63330000 		.word	.L16+1
 457 0138 63330000 		.word	.L16+1
 458 013c ED270000 		.word	.L34+1
 459 0140 63330000 		.word	.L16+1
 460 0144 69050000 		.word	.L35+1
 461 0148 63330000 		.word	.L16+1
 462 014c 2F0A0000 		.word	.L36+1
 463 0150 4D200000 		.word	.L37+1
 464 0154 47270000 		.word	.L38+1
 465 0158 63330000 		.word	.L16+1
 466 015c 4F030000 		.word	.L39+1
 467 0160 63330000 		.word	.L16+1
 468 0164 2B320000 		.word	.L40+1
 469 0168 63330000 		.word	.L16+1
 470 016c 21020000 		.word	.L41+1
 471 0170 63330000 		.word	.L16+1
 472 0174 63330000 		.word	.L16+1
 473 0178 FF070000 		.word	.L42+1
 474 017c B1310000 		.word	.L43+1
 475 0180 63330000 		.word	.L16+1
 476 0184 93040000 		.word	.L44+1
 477 0188 A50A0000 		.word	.L45+1
 478 018c 43090000 		.word	.L46+1
 479 0190 AB250000 		.word	.L47+1
 480 0194 B9090000 		.word	.L48+1
 481 0198 63330000 		.word	.L16+1
 482 019c 63330000 		.word	.L16+1
 483 01a0 63330000 		.word	.L16+1
 484 01a4 63330000 		.word	.L16+1
 485 01a8 63330000 		.word	.L16+1
 486 01ac 63330000 		.word	.L16+1
ARM GAS  C:\Users\RECEPC~1\AppData\Local\Temp\ccAuxgaT.s 			page 12


 487 01b0 63330000 		.word	.L16+1
 488 01b4 63330000 		.word	.L16+1
 489 01b8 63330000 		.word	.L16+1
 490 01bc 3F310000 		.word	.L49+1
 491 01c0 63330000 		.word	.L16+1
 492 01c4 8F2C0000 		.word	.L50+1
 493 01c8 63330000 		.word	.L16+1
 494 01cc 63330000 		.word	.L16+1
 495 01d0 63330000 		.word	.L16+1
 496 01d4 63330000 		.word	.L16+1
 497 01d8 63330000 		.word	.L16+1
 498 01dc FF290000 		.word	.L51+1
 499 01e0 752A0000 		.word	.L52+1
 500 01e4 EB2A0000 		.word	.L53+1
 501 01e8 632B0000 		.word	.L54+1
 502 01ec 63280000 		.word	.L55+1
 503 01f0 D72B0000 		.word	.L56+1
 504 01f4 4B2C0000 		.word	.L57+1
 505 01f8 B72F0000 		.word	.L58+1
 506 01fc 63330000 		.word	.L16+1
 507 0200 63330000 		.word	.L16+1
 508 0204 63330000 		.word	.L16+1
 509 0208 29120000 		.word	.L59+1
 510 020c 092F0000 		.word	.L60+1
 511 0210 CF320000 		.word	.L61+1
 512 0214 63330000 		.word	.L16+1
 513 0218 CD300000 		.word	.L62+1
 514 021c 5B300000 		.word	.L63+1
 515              		.p2align 1
 516              	.L41:
 134:.\LCD.c       ****         case 'M'://Menu
 135:.\LCD.c       ****             for(x=0;x<8;x++){
 517              		.loc 1 135 0
 518 0220 0023     		movs	r3, #0
 519 0222 FB77     		strb	r3, [r7, #31]
 520 0224 8DE0     		b	.L64
 521              	.L65:
 136:.\LCD.c       ****                 write_LCD(lcd,button[0][x],9,x+4,1,0xFFFF,'Y');     //Nombre de boton Ventas
 522              		.loc 1 136 0 discriminator 3
 523 0226 FB7F     		ldrb	r3, [r7, #31]	@ zero_extendqisi2
 524 0228 4C4A     		ldr	r2, .L250+8
 525 022a D35C     		ldrb	r3, [r2, r3]
 526 022c DAB2     		uxtb	r2, r3
 527 022e FB7F     		ldrb	r3, [r7, #31]	@ zero_extendqisi2
 528 0230 9BB2     		uxth	r3, r3
 529 0232 0433     		adds	r3, r3, #4
 530 0234 9CB2     		uxth	r4, r3
 531 0236 F979     		ldrb	r1, [r7, #7]	@ zero_extendqisi2
 532 0238 0123     		movs	r3, #1
 533 023a 0093     		str	r3, [sp]
 534 023c 4FF6FF73 		movw	r3, #65535
 535 0240 0193     		str	r3, [sp, #4]
 536 0242 5923     		movs	r3, #89
 537 0244 0293     		str	r3, [sp, #8]
 538 0246 0846     		mov	r0, r1
 539 0248 1146     		mov	r1, r2
 540 024a 0922     		movs	r2, #9
ARM GAS  C:\Users\RECEPC~1\AppData\Local\Temp\ccAuxgaT.s 			page 13


 541 024c 2346     		mov	r3, r4
 542 024e FFF7FEFF 		bl	write_LCD
 137:.\LCD.c       ****                 write_LCD(lcd,button[1][x],9,x+15,1,0xFFFF,'Y');    //Nombre de boton Turnos
 543              		.loc 1 137 0 discriminator 3
 544 0252 FB7F     		ldrb	r3, [r7, #31]	@ zero_extendqisi2
 545 0254 414A     		ldr	r2, .L250+8
 546 0256 1344     		add	r3, r3, r2
 547 0258 1B7A     		ldrb	r3, [r3, #8]
 548 025a DAB2     		uxtb	r2, r3
 549 025c FB7F     		ldrb	r3, [r7, #31]	@ zero_extendqisi2
 550 025e 9BB2     		uxth	r3, r3
 551 0260 0F33     		adds	r3, r3, #15
 552 0262 9CB2     		uxth	r4, r3
 553 0264 F979     		ldrb	r1, [r7, #7]	@ zero_extendqisi2
 554 0266 0123     		movs	r3, #1
 555 0268 0093     		str	r3, [sp]
 556 026a 4FF6FF73 		movw	r3, #65535
 557 026e 0193     		str	r3, [sp, #4]
 558 0270 5923     		movs	r3, #89
 559 0272 0293     		str	r3, [sp, #8]
 560 0274 0846     		mov	r0, r1
 561 0276 1146     		mov	r1, r2
 562 0278 0922     		movs	r2, #9
 563 027a 2346     		mov	r3, r4
 564 027c FFF7FEFF 		bl	write_LCD
 138:.\LCD.c       ****                 write_LCD(lcd,button[2][x],15,x+4,1,0xFFFF,'Y');    //Nombre de boton Canasta
 565              		.loc 1 138 0 discriminator 3
 566 0280 FB7F     		ldrb	r3, [r7, #31]	@ zero_extendqisi2
 567 0282 364A     		ldr	r2, .L250+8
 568 0284 1344     		add	r3, r3, r2
 569 0286 1B7C     		ldrb	r3, [r3, #16]
 570 0288 DAB2     		uxtb	r2, r3
 571 028a FB7F     		ldrb	r3, [r7, #31]	@ zero_extendqisi2
 572 028c 9BB2     		uxth	r3, r3
 573 028e 0433     		adds	r3, r3, #4
 574 0290 9CB2     		uxth	r4, r3
 575 0292 F979     		ldrb	r1, [r7, #7]	@ zero_extendqisi2
 576 0294 0123     		movs	r3, #1
 577 0296 0093     		str	r3, [sp]
 578 0298 4FF6FF73 		movw	r3, #65535
 579 029c 0193     		str	r3, [sp, #4]
 580 029e 5923     		movs	r3, #89
 581 02a0 0293     		str	r3, [sp, #8]
 582 02a2 0846     		mov	r0, r1
 583 02a4 1146     		mov	r1, r2
 584 02a6 0F22     		movs	r2, #15
 585 02a8 2346     		mov	r3, r4
 586 02aa FFF7FEFF 		bl	write_LCD
 139:.\LCD.c       ****                 write_LCD(lcd,button[3][x],15,x+15,1,0xFFFF,'Y');   //Nombre de boton Consignacione
 587              		.loc 1 139 0 discriminator 3
 588 02ae FB7F     		ldrb	r3, [r7, #31]	@ zero_extendqisi2
 589 02b0 2A4A     		ldr	r2, .L250+8
 590 02b2 1344     		add	r3, r3, r2
 591 02b4 1B7E     		ldrb	r3, [r3, #24]
 592 02b6 DAB2     		uxtb	r2, r3
 593 02b8 FB7F     		ldrb	r3, [r7, #31]	@ zero_extendqisi2
 594 02ba 9BB2     		uxth	r3, r3
ARM GAS  C:\Users\RECEPC~1\AppData\Local\Temp\ccAuxgaT.s 			page 14


 595 02bc 0F33     		adds	r3, r3, #15
 596 02be 9CB2     		uxth	r4, r3
 597 02c0 F979     		ldrb	r1, [r7, #7]	@ zero_extendqisi2
 598 02c2 0123     		movs	r3, #1
 599 02c4 0093     		str	r3, [sp]
 600 02c6 4FF6FF73 		movw	r3, #65535
 601 02ca 0193     		str	r3, [sp, #4]
 602 02cc 5923     		movs	r3, #89
 603 02ce 0293     		str	r3, [sp, #8]
 604 02d0 0846     		mov	r0, r1
 605 02d2 1146     		mov	r1, r2
 606 02d4 0F22     		movs	r2, #15
 607 02d6 2346     		mov	r3, r4
 608 02d8 FFF7FEFF 		bl	write_LCD
 140:.\LCD.c       ****                 write_LCD(lcd,button[4][x],21,x+4,1,0xFFFF,'Y');    //Nombre de boton Mantenimiento
 609              		.loc 1 140 0 discriminator 3
 610 02dc FB7F     		ldrb	r3, [r7, #31]	@ zero_extendqisi2
 611 02de 1F4A     		ldr	r2, .L250+8
 612 02e0 1344     		add	r3, r3, r2
 613 02e2 93F82030 		ldrb	r3, [r3, #32]
 614 02e6 DAB2     		uxtb	r2, r3
 615 02e8 FB7F     		ldrb	r3, [r7, #31]	@ zero_extendqisi2
 616 02ea 9BB2     		uxth	r3, r3
 617 02ec 0433     		adds	r3, r3, #4
 618 02ee 9CB2     		uxth	r4, r3
 619 02f0 F979     		ldrb	r1, [r7, #7]	@ zero_extendqisi2
 620 02f2 0123     		movs	r3, #1
 621 02f4 0093     		str	r3, [sp]
 622 02f6 4FF6FF73 		movw	r3, #65535
 623 02fa 0193     		str	r3, [sp, #4]
 624 02fc 5923     		movs	r3, #89
 625 02fe 0293     		str	r3, [sp, #8]
 626 0300 0846     		mov	r0, r1
 627 0302 1146     		mov	r1, r2
 628 0304 1522     		movs	r2, #21
 629 0306 2346     		mov	r3, r4
 630 0308 FFF7FEFF 		bl	write_LCD
 141:.\LCD.c       ****                 write_LCD(lcd,button[5][x],21,x+15,1,0xFFFF,'Y');   //Nombre de boton Copia de Reci
 631              		.loc 1 141 0 discriminator 3
 632 030c FB7F     		ldrb	r3, [r7, #31]	@ zero_extendqisi2
 633 030e 134A     		ldr	r2, .L250+8
 634 0310 1344     		add	r3, r3, r2
 635 0312 93F82830 		ldrb	r3, [r3, #40]
 636 0316 DAB2     		uxtb	r2, r3
 637 0318 FB7F     		ldrb	r3, [r7, #31]	@ zero_extendqisi2
 638 031a 9BB2     		uxth	r3, r3
 639 031c 0F33     		adds	r3, r3, #15
 640 031e 9CB2     		uxth	r4, r3
 641 0320 F979     		ldrb	r1, [r7, #7]	@ zero_extendqisi2
 642 0322 0123     		movs	r3, #1
 643 0324 0093     		str	r3, [sp]
 644 0326 4FF6FF73 		movw	r3, #65535
 645 032a 0193     		str	r3, [sp, #4]
 646 032c 5923     		movs	r3, #89
 647 032e 0293     		str	r3, [sp, #8]
 648 0330 0846     		mov	r0, r1
 649 0332 1146     		mov	r1, r2
ARM GAS  C:\Users\RECEPC~1\AppData\Local\Temp\ccAuxgaT.s 			page 15


 650 0334 1522     		movs	r2, #21
 651 0336 2346     		mov	r3, r4
 652 0338 FFF7FEFF 		bl	write_LCD
 135:.\LCD.c       ****                 write_LCD(lcd,button[0][x],9,x+4,1,0xFFFF,'Y');     //Nombre de boton Ventas
 653              		.loc 1 135 0 discriminator 3
 654 033c FB7F     		ldrb	r3, [r7, #31]	@ zero_extendqisi2
 655 033e 0133     		adds	r3, r3, #1
 656 0340 FB77     		strb	r3, [r7, #31]
 657              	.L64:
 135:.\LCD.c       ****                 write_LCD(lcd,button[0][x],9,x+4,1,0xFFFF,'Y');     //Nombre de boton Ventas
 658              		.loc 1 135 0 is_stmt 0 discriminator 1
 659 0342 FB7F     		ldrb	r3, [r7, #31]	@ zero_extendqisi2
 660 0344 072B     		cmp	r3, #7
 661 0346 7FF66EAF 		bls	.L65
 142:.\LCD.c       ****             }
 143:.\LCD.c       ****         break;
 662              		.loc 1 143 0 is_stmt 1
 663 034a 03F00AB8 		b	.L16
 664              	.L39:
 144:.\LCD.c       ****             
 145:.\LCD.c       ****         case 'I'://Informacion
 146:.\LCD.c       ****             for(x=0;x<8;x++){
 665              		.loc 1 146 0
 666 034e 0023     		movs	r3, #0
 667 0350 FB77     		strb	r3, [r7, #31]
 668 0352 98E0     		b	.L66
 669              	.L251:
 670              		.align	2
 671              	.L250:
 672 0354 1C000000 		.word	.LC2
 673 0358 28000000 		.word	.LC3
 674 035c 00000000 		.word	button
 675              	.L67:
 147:.\LCD.c       ****                 write_LCD(lcd,button[6][x],0,x+4,0,0x2110,'Y');     //Nombre caja Version
 676              		.loc 1 147 0 discriminator 3
 677 0360 FB7F     		ldrb	r3, [r7, #31]	@ zero_extendqisi2
 678 0362 834A     		ldr	r2, .L252
 679 0364 1344     		add	r3, r3, r2
 680 0366 93F83030 		ldrb	r3, [r3, #48]
 681 036a DAB2     		uxtb	r2, r3
 682 036c FB7F     		ldrb	r3, [r7, #31]	@ zero_extendqisi2
 683 036e 9BB2     		uxth	r3, r3
 684 0370 0433     		adds	r3, r3, #4
 685 0372 9CB2     		uxth	r4, r3
 686 0374 F979     		ldrb	r1, [r7, #7]	@ zero_extendqisi2
 687 0376 0023     		movs	r3, #0
 688 0378 0093     		str	r3, [sp]
 689 037a 42F21013 		movw	r3, #8464
 690 037e 0193     		str	r3, [sp, #4]
 691 0380 5923     		movs	r3, #89
 692 0382 0293     		str	r3, [sp, #8]
 693 0384 0846     		mov	r0, r1
 694 0386 1146     		mov	r1, r2
 695 0388 0022     		movs	r2, #0
 696 038a 2346     		mov	r3, r4
 697 038c FFF7FEFF 		bl	write_LCD
 148:.\LCD.c       ****                 write_LCD(lcd,button[7][x],0,x+29,0,0x2110,'Y');    //Nombre caja Posicion
ARM GAS  C:\Users\RECEPC~1\AppData\Local\Temp\ccAuxgaT.s 			page 16


 698              		.loc 1 148 0 discriminator 3
 699 0390 FB7F     		ldrb	r3, [r7, #31]	@ zero_extendqisi2
 700 0392 774A     		ldr	r2, .L252
 701 0394 1344     		add	r3, r3, r2
 702 0396 93F83830 		ldrb	r3, [r3, #56]
 703 039a DAB2     		uxtb	r2, r3
 704 039c FB7F     		ldrb	r3, [r7, #31]	@ zero_extendqisi2
 705 039e 9BB2     		uxth	r3, r3
 706 03a0 1D33     		adds	r3, r3, #29
 707 03a2 9CB2     		uxth	r4, r3
 708 03a4 F979     		ldrb	r1, [r7, #7]	@ zero_extendqisi2
 709 03a6 0023     		movs	r3, #0
 710 03a8 0093     		str	r3, [sp]
 711 03aa 42F21013 		movw	r3, #8464
 712 03ae 0193     		str	r3, [sp, #4]
 713 03b0 5923     		movs	r3, #89
 714 03b2 0293     		str	r3, [sp, #8]
 715 03b4 0846     		mov	r0, r1
 716 03b6 1146     		mov	r1, r2
 717 03b8 0022     		movs	r2, #0
 718 03ba 2346     		mov	r3, r4
 719 03bc FFF7FEFF 		bl	write_LCD
 149:.\LCD.c       ****                 write_LCD(lcd,button[8][x],9,x+4,0,0x2110,'Y');     //Nombre caja Hora
 720              		.loc 1 149 0 discriminator 3
 721 03c0 FB7F     		ldrb	r3, [r7, #31]	@ zero_extendqisi2
 722 03c2 6B4A     		ldr	r2, .L252
 723 03c4 1344     		add	r3, r3, r2
 724 03c6 93F84030 		ldrb	r3, [r3, #64]
 725 03ca DAB2     		uxtb	r2, r3
 726 03cc FB7F     		ldrb	r3, [r7, #31]	@ zero_extendqisi2
 727 03ce 9BB2     		uxth	r3, r3
 728 03d0 0433     		adds	r3, r3, #4
 729 03d2 9CB2     		uxth	r4, r3
 730 03d4 F979     		ldrb	r1, [r7, #7]	@ zero_extendqisi2
 731 03d6 0023     		movs	r3, #0
 732 03d8 0093     		str	r3, [sp]
 733 03da 42F21013 		movw	r3, #8464
 734 03de 0193     		str	r3, [sp, #4]
 735 03e0 5923     		movs	r3, #89
 736 03e2 0293     		str	r3, [sp, #8]
 737 03e4 0846     		mov	r0, r1
 738 03e6 1146     		mov	r1, r2
 739 03e8 0922     		movs	r2, #9
 740 03ea 2346     		mov	r3, r4
 741 03ec FFF7FEFF 		bl	write_LCD
 150:.\LCD.c       ****                 write_LCD(lcd,button[9][x],9,x+29,0,0x2110,'Y');    //Nombre caja Fecha
 742              		.loc 1 150 0 discriminator 3
 743 03f0 FB7F     		ldrb	r3, [r7, #31]	@ zero_extendqisi2
 744 03f2 5F4A     		ldr	r2, .L252
 745 03f4 1344     		add	r3, r3, r2
 746 03f6 93F84830 		ldrb	r3, [r3, #72]
 747 03fa DAB2     		uxtb	r2, r3
 748 03fc FB7F     		ldrb	r3, [r7, #31]	@ zero_extendqisi2
 749 03fe 9BB2     		uxth	r3, r3
 750 0400 1D33     		adds	r3, r3, #29
 751 0402 9CB2     		uxth	r4, r3
 752 0404 F979     		ldrb	r1, [r7, #7]	@ zero_extendqisi2
ARM GAS  C:\Users\RECEPC~1\AppData\Local\Temp\ccAuxgaT.s 			page 17


 753 0406 0023     		movs	r3, #0
 754 0408 0093     		str	r3, [sp]
 755 040a 42F21013 		movw	r3, #8464
 756 040e 0193     		str	r3, [sp, #4]
 757 0410 5923     		movs	r3, #89
 758 0412 0293     		str	r3, [sp, #8]
 759 0414 0846     		mov	r0, r1
 760 0416 1146     		mov	r1, r2
 761 0418 0922     		movs	r2, #9
 762 041a 2346     		mov	r3, r4
 763 041c FFF7FEFF 		bl	write_LCD
 151:.\LCD.c       ****                 write_LCD(lcd,button[10][x],18,x+4,0,0x2110,'Y');   //Nombre caja Direccion IP
 764              		.loc 1 151 0 discriminator 3
 765 0420 FB7F     		ldrb	r3, [r7, #31]	@ zero_extendqisi2
 766 0422 534A     		ldr	r2, .L252
 767 0424 1344     		add	r3, r3, r2
 768 0426 93F85030 		ldrb	r3, [r3, #80]
 769 042a DAB2     		uxtb	r2, r3
 770 042c FB7F     		ldrb	r3, [r7, #31]	@ zero_extendqisi2
 771 042e 9BB2     		uxth	r3, r3
 772 0430 0433     		adds	r3, r3, #4
 773 0432 9CB2     		uxth	r4, r3
 774 0434 F979     		ldrb	r1, [r7, #7]	@ zero_extendqisi2
 775 0436 0023     		movs	r3, #0
 776 0438 0093     		str	r3, [sp]
 777 043a 42F21013 		movw	r3, #8464
 778 043e 0193     		str	r3, [sp, #4]
 779 0440 5923     		movs	r3, #89
 780 0442 0293     		str	r3, [sp, #8]
 781 0444 0846     		mov	r0, r1
 782 0446 1146     		mov	r1, r2
 783 0448 1222     		movs	r2, #18
 784 044a 2346     		mov	r3, r4
 785 044c FFF7FEFF 		bl	write_LCD
 152:.\LCD.c       ****                 write_LCD(lcd,button[11][x],18,x+29,0,0x2110,'Y');  //Nombre caja Digitos Surtidor
 786              		.loc 1 152 0 discriminator 3
 787 0450 FB7F     		ldrb	r3, [r7, #31]	@ zero_extendqisi2
 788 0452 474A     		ldr	r2, .L252
 789 0454 1344     		add	r3, r3, r2
 790 0456 93F85830 		ldrb	r3, [r3, #88]
 791 045a DAB2     		uxtb	r2, r3
 792 045c FB7F     		ldrb	r3, [r7, #31]	@ zero_extendqisi2
 793 045e 9BB2     		uxth	r3, r3
 794 0460 1D33     		adds	r3, r3, #29
 795 0462 9CB2     		uxth	r4, r3
 796 0464 F979     		ldrb	r1, [r7, #7]	@ zero_extendqisi2
 797 0466 0023     		movs	r3, #0
 798 0468 0093     		str	r3, [sp]
 799 046a 42F21013 		movw	r3, #8464
 800 046e 0193     		str	r3, [sp, #4]
 801 0470 5923     		movs	r3, #89
 802 0472 0293     		str	r3, [sp, #8]
 803 0474 0846     		mov	r0, r1
 804 0476 1146     		mov	r1, r2
 805 0478 1222     		movs	r2, #18
 806 047a 2346     		mov	r3, r4
 807 047c FFF7FEFF 		bl	write_LCD
ARM GAS  C:\Users\RECEPC~1\AppData\Local\Temp\ccAuxgaT.s 			page 18


 146:.\LCD.c       ****                 write_LCD(lcd,button[6][x],0,x+4,0,0x2110,'Y');     //Nombre caja Version
 808              		.loc 1 146 0 discriminator 3
 809 0480 FB7F     		ldrb	r3, [r7, #31]	@ zero_extendqisi2
 810 0482 0133     		adds	r3, r3, #1
 811 0484 FB77     		strb	r3, [r7, #31]
 812              	.L66:
 146:.\LCD.c       ****                 write_LCD(lcd,button[6][x],0,x+4,0,0x2110,'Y');     //Nombre caja Version
 813              		.loc 1 146 0 is_stmt 0 discriminator 1
 814 0486 FB7F     		ldrb	r3, [r7, #31]	@ zero_extendqisi2
 815 0488 072B     		cmp	r3, #7
 816 048a 7FF669AF 		bls	.L67
 153:.\LCD.c       ****             }
 154:.\LCD.c       ****         break;
 817              		.loc 1 154 0 is_stmt 1 discriminator 2
 818 048e 02F068BF 		b	.L16
 819              	.L44:
 155:.\LCD.c       ****             
 156:.\LCD.c       ****         case 'S'://Venta
 157:.\LCD.c       ****             for(x=0;x<8;x++){
 820              		.loc 1 157 0
 821 0492 0023     		movs	r3, #0
 822 0494 FB77     		strb	r3, [r7, #31]
 823 0496 62E0     		b	.L68
 824              	.L69:
 158:.\LCD.c       ****                 write_LCD(lcd,button[12][x],10,x+11,1,0xFFFF,'Y');  //Nombre de boton Contado
 825              		.loc 1 158 0 discriminator 3
 826 0498 FB7F     		ldrb	r3, [r7, #31]	@ zero_extendqisi2
 827 049a 354A     		ldr	r2, .L252
 828 049c 1344     		add	r3, r3, r2
 829 049e 93F86030 		ldrb	r3, [r3, #96]
 830 04a2 DAB2     		uxtb	r2, r3
 831 04a4 FB7F     		ldrb	r3, [r7, #31]	@ zero_extendqisi2
 832 04a6 9BB2     		uxth	r3, r3
 833 04a8 0B33     		adds	r3, r3, #11
 834 04aa 9CB2     		uxth	r4, r3
 835 04ac F979     		ldrb	r1, [r7, #7]	@ zero_extendqisi2
 836 04ae 0123     		movs	r3, #1
 837 04b0 0093     		str	r3, [sp]
 838 04b2 4FF6FF73 		movw	r3, #65535
 839 04b6 0193     		str	r3, [sp, #4]
 840 04b8 5923     		movs	r3, #89
 841 04ba 0293     		str	r3, [sp, #8]
 842 04bc 0846     		mov	r0, r1
 843 04be 1146     		mov	r1, r2
 844 04c0 0A22     		movs	r2, #10
 845 04c2 2346     		mov	r3, r4
 846 04c4 FFF7FEFF 		bl	write_LCD
 159:.\LCD.c       ****                 write_LCD(lcd,button[13][x],16,x+11,1,0xFFFF,'Y');  //Nombre de boton Credito
 847              		.loc 1 159 0 discriminator 3
 848 04c8 FB7F     		ldrb	r3, [r7, #31]	@ zero_extendqisi2
 849 04ca 294A     		ldr	r2, .L252
 850 04cc 1344     		add	r3, r3, r2
 851 04ce 93F86830 		ldrb	r3, [r3, #104]
 852 04d2 DAB2     		uxtb	r2, r3
 853 04d4 FB7F     		ldrb	r3, [r7, #31]	@ zero_extendqisi2
 854 04d6 9BB2     		uxth	r3, r3
 855 04d8 0B33     		adds	r3, r3, #11
ARM GAS  C:\Users\RECEPC~1\AppData\Local\Temp\ccAuxgaT.s 			page 19


 856 04da 9CB2     		uxth	r4, r3
 857 04dc F979     		ldrb	r1, [r7, #7]	@ zero_extendqisi2
 858 04de 0123     		movs	r3, #1
 859 04e0 0093     		str	r3, [sp]
 860 04e2 4FF6FF73 		movw	r3, #65535
 861 04e6 0193     		str	r3, [sp, #4]
 862 04e8 5923     		movs	r3, #89
 863 04ea 0293     		str	r3, [sp, #8]
 864 04ec 0846     		mov	r0, r1
 865 04ee 1146     		mov	r1, r2
 866 04f0 1022     		movs	r2, #16
 867 04f2 2346     		mov	r3, r4
 868 04f4 FFF7FEFF 		bl	write_LCD
 160:.\LCD.c       ****                 write_LCD(lcd,button[70][x],22,x+11,1,0xFFFF,'Y');  //Nombre de boton Forma de pago
 869              		.loc 1 160 0 discriminator 3
 870 04f8 FB7F     		ldrb	r3, [r7, #31]	@ zero_extendqisi2
 871 04fa 1D4A     		ldr	r2, .L252
 872 04fc 1344     		add	r3, r3, r2
 873 04fe 93F83032 		ldrb	r3, [r3, #560]
 874 0502 DAB2     		uxtb	r2, r3
 875 0504 FB7F     		ldrb	r3, [r7, #31]	@ zero_extendqisi2
 876 0506 9BB2     		uxth	r3, r3
 877 0508 0B33     		adds	r3, r3, #11
 878 050a 9CB2     		uxth	r4, r3
 879 050c F979     		ldrb	r1, [r7, #7]	@ zero_extendqisi2
 880 050e 0123     		movs	r3, #1
 881 0510 0093     		str	r3, [sp]
 882 0512 4FF6FF73 		movw	r3, #65535
 883 0516 0193     		str	r3, [sp, #4]
 884 0518 5923     		movs	r3, #89
 885 051a 0293     		str	r3, [sp, #8]
 886 051c 0846     		mov	r0, r1
 887 051e 1146     		mov	r1, r2
 888 0520 1622     		movs	r2, #22
 889 0522 2346     		mov	r3, r4
 890 0524 FFF7FEFF 		bl	write_LCD
 161:.\LCD.c       ****                 write_LCD(lcd,mixto[x],28,x+11,1,0xFFFF,'Y');   //Nombre de boton Forma de pago MIX
 891              		.loc 1 161 0 discriminator 3
 892 0528 FB7F     		ldrb	r3, [r7, #31]	@ zero_extendqisi2
 893 052a 07F12002 		add	r2, r7, #32
 894 052e 1344     		add	r3, r3, r2
 895 0530 13F80C2C 		ldrb	r2, [r3, #-12]	@ zero_extendqisi2
 896 0534 FB7F     		ldrb	r3, [r7, #31]	@ zero_extendqisi2
 897 0536 9BB2     		uxth	r3, r3
 898 0538 0B33     		adds	r3, r3, #11
 899 053a 9CB2     		uxth	r4, r3
 900 053c F979     		ldrb	r1, [r7, #7]	@ zero_extendqisi2
 901 053e 0123     		movs	r3, #1
 902 0540 0093     		str	r3, [sp]
 903 0542 4FF6FF73 		movw	r3, #65535
 904 0546 0193     		str	r3, [sp, #4]
 905 0548 5923     		movs	r3, #89
 906 054a 0293     		str	r3, [sp, #8]
 907 054c 0846     		mov	r0, r1
 908 054e 1146     		mov	r1, r2
 909 0550 1C22     		movs	r2, #28
 910 0552 2346     		mov	r3, r4
ARM GAS  C:\Users\RECEPC~1\AppData\Local\Temp\ccAuxgaT.s 			page 20


 911 0554 FFF7FEFF 		bl	write_LCD
 157:.\LCD.c       ****                 write_LCD(lcd,button[12][x],10,x+11,1,0xFFFF,'Y');  //Nombre de boton Contado
 912              		.loc 1 157 0 discriminator 3
 913 0558 FB7F     		ldrb	r3, [r7, #31]	@ zero_extendqisi2
 914 055a 0133     		adds	r3, r3, #1
 915 055c FB77     		strb	r3, [r7, #31]
 916              	.L68:
 157:.\LCD.c       ****                 write_LCD(lcd,button[12][x],10,x+11,1,0xFFFF,'Y');  //Nombre de boton Contado
 917              		.loc 1 157 0 is_stmt 0 discriminator 1
 918 055e FB7F     		ldrb	r3, [r7, #31]	@ zero_extendqisi2
 919 0560 072B     		cmp	r3, #7
 920 0562 99D9     		bls	.L69
 162:.\LCD.c       ****             }
 163:.\LCD.c       ****         break;
 921              		.loc 1 163 0 is_stmt 1 discriminator 3
 922 0564 02F0FDBE 		b	.L16
 923              	.L35:
 164:.\LCD.c       ****             
 165:.\LCD.c       ****         case 'C'://Contado
 166:.\LCD.c       ****             for(x=0;x<8;x++){
 924              		.loc 1 166 0
 925 0568 0023     		movs	r3, #0
 926 056a FB77     		strb	r3, [r7, #31]
 927 056c 65E0     		b	.L70
 928              	.L253:
 929 056e 00BF     		.align	2
 930              	.L252:
 931 0570 00000000 		.word	button
 932              	.L71:
 167:.\LCD.c       ****                 write_LCD(lcd,button[71][x],2,x+5,2,0x2110,'Y');    //Nombre de boton Preset
 933              		.loc 1 167 0 discriminator 3
 934 0574 FB7F     		ldrb	r3, [r7, #31]	@ zero_extendqisi2
 935 0576 A34A     		ldr	r2, .L254
 936 0578 1344     		add	r3, r3, r2
 937 057a 93F83832 		ldrb	r3, [r3, #568]
 938 057e DAB2     		uxtb	r2, r3
 939 0580 FB7F     		ldrb	r3, [r7, #31]	@ zero_extendqisi2
 940 0582 9BB2     		uxth	r3, r3
 941 0584 0533     		adds	r3, r3, #5
 942 0586 9CB2     		uxth	r4, r3
 943 0588 F979     		ldrb	r1, [r7, #7]	@ zero_extendqisi2
 944 058a 0223     		movs	r3, #2
 945 058c 0093     		str	r3, [sp]
 946 058e 42F21013 		movw	r3, #8464
 947 0592 0193     		str	r3, [sp, #4]
 948 0594 5923     		movs	r3, #89
 949 0596 0293     		str	r3, [sp, #8]
 950 0598 0846     		mov	r0, r1
 951 059a 1146     		mov	r1, r2
 952 059c 0222     		movs	r2, #2
 953 059e 2346     		mov	r3, r4
 954 05a0 FFF7FEFF 		bl	write_LCD
 168:.\LCD.c       ****                 write_LCD(lcd,button[14][x],9,x+4,1,0xFFFF,'Y');    //Nombre de boton Dinero
 955              		.loc 1 168 0 discriminator 3
 956 05a4 FB7F     		ldrb	r3, [r7, #31]	@ zero_extendqisi2
 957 05a6 974A     		ldr	r2, .L254
 958 05a8 1344     		add	r3, r3, r2
ARM GAS  C:\Users\RECEPC~1\AppData\Local\Temp\ccAuxgaT.s 			page 21


 959 05aa 93F87030 		ldrb	r3, [r3, #112]
 960 05ae DAB2     		uxtb	r2, r3
 961 05b0 FB7F     		ldrb	r3, [r7, #31]	@ zero_extendqisi2
 962 05b2 9BB2     		uxth	r3, r3
 963 05b4 0433     		adds	r3, r3, #4
 964 05b6 9CB2     		uxth	r4, r3
 965 05b8 F979     		ldrb	r1, [r7, #7]	@ zero_extendqisi2
 966 05ba 0123     		movs	r3, #1
 967 05bc 0093     		str	r3, [sp]
 968 05be 4FF6FF73 		movw	r3, #65535
 969 05c2 0193     		str	r3, [sp, #4]
 970 05c4 5923     		movs	r3, #89
 971 05c6 0293     		str	r3, [sp, #8]
 972 05c8 0846     		mov	r0, r1
 973 05ca 1146     		mov	r1, r2
 974 05cc 0922     		movs	r2, #9
 975 05ce 2346     		mov	r3, r4
 976 05d0 FFF7FEFF 		bl	write_LCD
 169:.\LCD.c       ****                 write_LCD(lcd,button[15][x],15,x+4,1,0xFFFF,'Y');   //Nombre de boton Volumen
 977              		.loc 1 169 0 discriminator 3
 978 05d4 FB7F     		ldrb	r3, [r7, #31]	@ zero_extendqisi2
 979 05d6 8B4A     		ldr	r2, .L254
 980 05d8 1344     		add	r3, r3, r2
 981 05da 93F87830 		ldrb	r3, [r3, #120]
 982 05de DAB2     		uxtb	r2, r3
 983 05e0 FB7F     		ldrb	r3, [r7, #31]	@ zero_extendqisi2
 984 05e2 9BB2     		uxth	r3, r3
 985 05e4 0433     		adds	r3, r3, #4
 986 05e6 9CB2     		uxth	r4, r3
 987 05e8 F979     		ldrb	r1, [r7, #7]	@ zero_extendqisi2
 988 05ea 0123     		movs	r3, #1
 989 05ec 0093     		str	r3, [sp]
 990 05ee 4FF6FF73 		movw	r3, #65535
 991 05f2 0193     		str	r3, [sp, #4]
 992 05f4 5923     		movs	r3, #89
 993 05f6 0293     		str	r3, [sp, #8]
 994 05f8 0846     		mov	r0, r1
 995 05fa 1146     		mov	r1, r2
 996 05fc 0F22     		movs	r2, #15
 997 05fe 2346     		mov	r3, r4
 998 0600 FFF7FEFF 		bl	write_LCD
 170:.\LCD.c       ****                 write_LCD(lcd,button[16][x],21,x+4,1,0xFFFF,'Y');   //Nombre de boton Lleno
 999              		.loc 1 170 0 discriminator 3
 1000 0604 FB7F     		ldrb	r3, [r7, #31]	@ zero_extendqisi2
 1001 0606 7F4A     		ldr	r2, .L254
 1002 0608 1344     		add	r3, r3, r2
 1003 060a 93F88030 		ldrb	r3, [r3, #128]
 1004 060e DAB2     		uxtb	r2, r3
 1005 0610 FB7F     		ldrb	r3, [r7, #31]	@ zero_extendqisi2
 1006 0612 9BB2     		uxth	r3, r3
 1007 0614 0433     		adds	r3, r3, #4
 1008 0616 9CB2     		uxth	r4, r3
 1009 0618 F979     		ldrb	r1, [r7, #7]	@ zero_extendqisi2
 1010 061a 0123     		movs	r3, #1
 1011 061c 0093     		str	r3, [sp]
 1012 061e 4FF6FF73 		movw	r3, #65535
 1013 0622 0193     		str	r3, [sp, #4]
ARM GAS  C:\Users\RECEPC~1\AppData\Local\Temp\ccAuxgaT.s 			page 22


 1014 0624 5923     		movs	r3, #89
 1015 0626 0293     		str	r3, [sp, #8]
 1016 0628 0846     		mov	r0, r1
 1017 062a 1146     		mov	r1, r2
 1018 062c 1522     		movs	r2, #21
 1019 062e 2346     		mov	r3, r4
 1020 0630 FFF7FEFF 		bl	write_LCD
 166:.\LCD.c       ****                 write_LCD(lcd,button[71][x],2,x+5,2,0x2110,'Y');    //Nombre de boton Preset
 1021              		.loc 1 166 0 discriminator 3
 1022 0634 FB7F     		ldrb	r3, [r7, #31]	@ zero_extendqisi2
 1023 0636 0133     		adds	r3, r3, #1
 1024 0638 FB77     		strb	r3, [r7, #31]
 1025              	.L70:
 166:.\LCD.c       ****                 write_LCD(lcd,button[71][x],2,x+5,2,0x2110,'Y');    //Nombre de boton Preset
 1026              		.loc 1 166 0 is_stmt 0 discriminator 1
 1027 063a FB7F     		ldrb	r3, [r7, #31]	@ zero_extendqisi2
 1028 063c 072B     		cmp	r3, #7
 1029 063e 99D9     		bls	.L71
 171:.\LCD.c       ****             }
 172:.\LCD.c       ****             for(y=0;y<=2;y++){
 1030              		.loc 1 172 0 is_stmt 1
 1031 0640 0023     		movs	r3, #0
 1032 0642 BB77     		strb	r3, [r7, #30]
 1033 0644 60E0     		b	.L72
 1034              	.L77:
 173:.\LCD.c       ****                 write_LCD(lcd,symbols[0],9+(6*y),15,1,0xFFFF,'Y');
 1035              		.loc 1 173 0
 1036 0646 704B     		ldr	r3, .L254+4
 1037 0648 1B78     		ldrb	r3, [r3]
 1038 064a D9B2     		uxtb	r1, r3
 1039 064c BB7F     		ldrb	r3, [r7, #30]	@ zero_extendqisi2
 1040 064e 9BB2     		uxth	r3, r3
 1041 0650 1A46     		mov	r2, r3	@ movhi
 1042 0652 5200     		lsls	r2, r2, #1
 1043 0654 1344     		add	r3, r3, r2
 1044 0656 5B00     		lsls	r3, r3, #1
 1045 0658 9BB2     		uxth	r3, r3
 1046 065a 0933     		adds	r3, r3, #9
 1047 065c 9AB2     		uxth	r2, r3
 1048 065e F879     		ldrb	r0, [r7, #7]	@ zero_extendqisi2
 1049 0660 0123     		movs	r3, #1
 1050 0662 0093     		str	r3, [sp]
 1051 0664 4FF6FF73 		movw	r3, #65535
 1052 0668 0193     		str	r3, [sp, #4]
 1053 066a 5923     		movs	r3, #89
 1054 066c 0293     		str	r3, [sp, #8]
 1055 066e 0F23     		movs	r3, #15
 1056 0670 FFF7FEFF 		bl	write_LCD
 174:.\LCD.c       ****                 flag=0;
 1057              		.loc 1 174 0
 1058 0674 0023     		movs	r3, #0
 1059 0676 7B77     		strb	r3, [r7, #29]
 175:.\LCD.c       ****                 for(x=1;x<=presetFast[y][0];x++){
 1060              		.loc 1 175 0
 1061 0678 0123     		movs	r3, #1
 1062 067a FB77     		strb	r3, [r7, #31]
 1063 067c 36E0     		b	.L73
ARM GAS  C:\Users\RECEPC~1\AppData\Local\Temp\ccAuxgaT.s 			page 23


 1064              	.L76:
 176:.\LCD.c       ****                     if(presetFast[y][x]=='0' && flag==0){
 1065              		.loc 1 176 0
 1066 067e BA7F     		ldrb	r2, [r7, #30]	@ zero_extendqisi2
 1067 0680 F97F     		ldrb	r1, [r7, #31]	@ zero_extendqisi2
 1068 0682 6248     		ldr	r0, .L254+8
 1069 0684 1346     		mov	r3, r2
 1070 0686 9B00     		lsls	r3, r3, #2
 1071 0688 1344     		add	r3, r3, r2
 1072 068a 5B00     		lsls	r3, r3, #1
 1073 068c 0B44     		add	r3, r3, r1
 1074 068e 0344     		add	r3, r3, r0
 1075 0690 1B78     		ldrb	r3, [r3]	@ zero_extendqisi2
 1076 0692 302B     		cmp	r3, #48
 1077 0694 03D1     		bne	.L74
 1078              		.loc 1 176 0 is_stmt 0 discriminator 1
 1079 0696 7B7F     		ldrb	r3, [r7, #29]	@ zero_extendqisi2
 1080 0698 002B     		cmp	r3, #0
 1081 069a 00D1     		bne	.L74
 1082              		.loc 1 176 0
 1083 069c 23E0     		b	.L75
 1084              	.L74:
 177:.\LCD.c       ****                     }else{
 178:.\LCD.c       ****                         write_LCD(lcd,presetFast[y][x],9+(6*y),x+15,1,0xFFFF,'Y');
 1085              		.loc 1 178 0 is_stmt 1
 1086 069e BA7F     		ldrb	r2, [r7, #30]	@ zero_extendqisi2
 1087 06a0 F97F     		ldrb	r1, [r7, #31]	@ zero_extendqisi2
 1088 06a2 5A48     		ldr	r0, .L254+8
 1089 06a4 1346     		mov	r3, r2
 1090 06a6 9B00     		lsls	r3, r3, #2
 1091 06a8 1344     		add	r3, r3, r2
 1092 06aa 5B00     		lsls	r3, r3, #1
 1093 06ac 0B44     		add	r3, r3, r1
 1094 06ae 0344     		add	r3, r3, r0
 1095 06b0 1978     		ldrb	r1, [r3]	@ zero_extendqisi2
 1096 06b2 BB7F     		ldrb	r3, [r7, #30]	@ zero_extendqisi2
 1097 06b4 9BB2     		uxth	r3, r3
 1098 06b6 1A46     		mov	r2, r3	@ movhi
 1099 06b8 5200     		lsls	r2, r2, #1
 1100 06ba 1344     		add	r3, r3, r2
 1101 06bc 5B00     		lsls	r3, r3, #1
 1102 06be 9BB2     		uxth	r3, r3
 1103 06c0 0933     		adds	r3, r3, #9
 1104 06c2 9AB2     		uxth	r2, r3
 1105 06c4 FB7F     		ldrb	r3, [r7, #31]	@ zero_extendqisi2
 1106 06c6 9BB2     		uxth	r3, r3
 1107 06c8 0F33     		adds	r3, r3, #15
 1108 06ca 9CB2     		uxth	r4, r3
 1109 06cc F879     		ldrb	r0, [r7, #7]	@ zero_extendqisi2
 1110 06ce 0123     		movs	r3, #1
 1111 06d0 0093     		str	r3, [sp]
 1112 06d2 4FF6FF73 		movw	r3, #65535
 1113 06d6 0193     		str	r3, [sp, #4]
 1114 06d8 5923     		movs	r3, #89
 1115 06da 0293     		str	r3, [sp, #8]
 1116 06dc 2346     		mov	r3, r4
 1117 06de FFF7FEFF 		bl	write_LCD
ARM GAS  C:\Users\RECEPC~1\AppData\Local\Temp\ccAuxgaT.s 			page 24


 179:.\LCD.c       ****                         flag=1;
 1118              		.loc 1 179 0
 1119 06e2 0123     		movs	r3, #1
 1120 06e4 7B77     		strb	r3, [r7, #29]
 1121              	.L75:
 175:.\LCD.c       ****                     if(presetFast[y][x]=='0' && flag==0){
 1122              		.loc 1 175 0 discriminator 2
 1123 06e6 FB7F     		ldrb	r3, [r7, #31]	@ zero_extendqisi2
 1124 06e8 0133     		adds	r3, r3, #1
 1125 06ea FB77     		strb	r3, [r7, #31]
 1126              	.L73:
 175:.\LCD.c       ****                     if(presetFast[y][x]=='0' && flag==0){
 1127              		.loc 1 175 0 is_stmt 0 discriminator 1
 1128 06ec BA7F     		ldrb	r2, [r7, #30]	@ zero_extendqisi2
 1129 06ee 4749     		ldr	r1, .L254+8
 1130 06f0 1346     		mov	r3, r2
 1131 06f2 9B00     		lsls	r3, r3, #2
 1132 06f4 1344     		add	r3, r3, r2
 1133 06f6 5B00     		lsls	r3, r3, #1
 1134 06f8 0B44     		add	r3, r3, r1
 1135 06fa 1B78     		ldrb	r3, [r3]	@ zero_extendqisi2
 1136 06fc FA7F     		ldrb	r2, [r7, #31]	@ zero_extendqisi2
 1137 06fe 9A42     		cmp	r2, r3
 1138 0700 BDD9     		bls	.L76
 172:.\LCD.c       ****                 write_LCD(lcd,symbols[0],9+(6*y),15,1,0xFFFF,'Y');
 1139              		.loc 1 172 0 is_stmt 1 discriminator 2
 1140 0702 BB7F     		ldrb	r3, [r7, #30]	@ zero_extendqisi2
 1141 0704 0133     		adds	r3, r3, #1
 1142 0706 BB77     		strb	r3, [r7, #30]
 1143              	.L72:
 172:.\LCD.c       ****                 write_LCD(lcd,symbols[0],9+(6*y),15,1,0xFFFF,'Y');
 1144              		.loc 1 172 0 is_stmt 0 discriminator 1
 1145 0708 BB7F     		ldrb	r3, [r7, #30]	@ zero_extendqisi2
 1146 070a 022B     		cmp	r3, #2
 1147 070c 9BD9     		bls	.L77
 180:.\LCD.c       ****                     }
 181:.\LCD.c       ****                 }
 182:.\LCD.c       ****             }
 183:.\LCD.c       ****         break;
 1148              		.loc 1 183 0 is_stmt 1 discriminator 4
 1149 070e 02F028BE 		b	.L16
 1150              	.L25:
 184:.\LCD.c       ****             
 185:.\LCD.c       ****         case '1'://Teclado Dinero
 186:.\LCD.c       ****             for(x=0;x<8;x++){
 1151              		.loc 1 186 0
 1152 0712 0023     		movs	r3, #0
 1153 0714 FB77     		strb	r3, [r7, #31]
 1154 0716 32E0     		b	.L78
 1155              	.L79:
 187:.\LCD.c       ****                 write_LCD(lcd,button[20][x],14,x+1,2,0x2110,'Y');   //Nombre de imagen Teclado Dine
 1156              		.loc 1 187 0 discriminator 3
 1157 0718 FB7F     		ldrb	r3, [r7, #31]	@ zero_extendqisi2
 1158 071a 3A4A     		ldr	r2, .L254
 1159 071c 1344     		add	r3, r3, r2
 1160 071e 93F8A030 		ldrb	r3, [r3, #160]
 1161 0722 DAB2     		uxtb	r2, r3
ARM GAS  C:\Users\RECEPC~1\AppData\Local\Temp\ccAuxgaT.s 			page 25


 1162 0724 FB7F     		ldrb	r3, [r7, #31]	@ zero_extendqisi2
 1163 0726 9BB2     		uxth	r3, r3
 1164 0728 0133     		adds	r3, r3, #1
 1165 072a 9CB2     		uxth	r4, r3
 1166 072c F979     		ldrb	r1, [r7, #7]	@ zero_extendqisi2
 1167 072e 0223     		movs	r3, #2
 1168 0730 0093     		str	r3, [sp]
 1169 0732 42F21013 		movw	r3, #8464
 1170 0736 0193     		str	r3, [sp, #4]
 1171 0738 5923     		movs	r3, #89
 1172 073a 0293     		str	r3, [sp, #8]
 1173 073c 0846     		mov	r0, r1
 1174 073e 1146     		mov	r1, r2
 1175 0740 0E22     		movs	r2, #14
 1176 0742 2346     		mov	r3, r4
 1177 0744 FFF7FEFF 		bl	write_LCD
 188:.\LCD.c       ****                 write_LCD(lcd,button[21][x],18,x+1,2,0x2110,'Y');   //Nombre de imagen Teclado Dine
 1178              		.loc 1 188 0 discriminator 3
 1179 0748 FB7F     		ldrb	r3, [r7, #31]	@ zero_extendqisi2
 1180 074a 2E4A     		ldr	r2, .L254
 1181 074c 1344     		add	r3, r3, r2
 1182 074e 93F8A830 		ldrb	r3, [r3, #168]
 1183 0752 DAB2     		uxtb	r2, r3
 1184 0754 FB7F     		ldrb	r3, [r7, #31]	@ zero_extendqisi2
 1185 0756 9BB2     		uxth	r3, r3
 1186 0758 0133     		adds	r3, r3, #1
 1187 075a 9CB2     		uxth	r4, r3
 1188 075c F979     		ldrb	r1, [r7, #7]	@ zero_extendqisi2
 1189 075e 0223     		movs	r3, #2
 1190 0760 0093     		str	r3, [sp]
 1191 0762 42F21013 		movw	r3, #8464
 1192 0766 0193     		str	r3, [sp, #4]
 1193 0768 5923     		movs	r3, #89
 1194 076a 0293     		str	r3, [sp, #8]
 1195 076c 0846     		mov	r0, r1
 1196 076e 1146     		mov	r1, r2
 1197 0770 1222     		movs	r2, #18
 1198 0772 2346     		mov	r3, r4
 1199 0774 FFF7FEFF 		bl	write_LCD
 186:.\LCD.c       ****                 write_LCD(lcd,button[20][x],14,x+1,2,0x2110,'Y');   //Nombre de imagen Teclado Dine
 1200              		.loc 1 186 0 discriminator 3
 1201 0778 FB7F     		ldrb	r3, [r7, #31]	@ zero_extendqisi2
 1202 077a 0133     		adds	r3, r3, #1
 1203 077c FB77     		strb	r3, [r7, #31]
 1204              	.L78:
 186:.\LCD.c       ****                 write_LCD(lcd,button[20][x],14,x+1,2,0x2110,'Y');   //Nombre de imagen Teclado Dine
 1205              		.loc 1 186 0 is_stmt 0 discriminator 1
 1206 077e FB7F     		ldrb	r3, [r7, #31]	@ zero_extendqisi2
 1207 0780 072B     		cmp	r3, #7
 1208 0782 C9D9     		bls	.L79
 189:.\LCD.c       ****             }
 190:.\LCD.c       ****         break;
 1209              		.loc 1 190 0 is_stmt 1 discriminator 5
 1210 0784 02F0EDBD 		b	.L16
 1211              	.L26:
 191:.\LCD.c       ****             
 192:.\LCD.c       ****         case '2'://Teclado Volumen
ARM GAS  C:\Users\RECEPC~1\AppData\Local\Temp\ccAuxgaT.s 			page 26


 193:.\LCD.c       ****             for(x=0;x<8;x++){
 1212              		.loc 1 193 0
 1213 0788 0023     		movs	r3, #0
 1214 078a FB77     		strb	r3, [r7, #31]
 1215 078c 32E0     		b	.L80
 1216              	.L81:
 194:.\LCD.c       ****                 write_LCD(lcd,button[22][x],14,x+1,2,0x2110,'Y');   //Nombre de imagen Teclado Volu
 1217              		.loc 1 194 0 discriminator 3
 1218 078e FB7F     		ldrb	r3, [r7, #31]	@ zero_extendqisi2
 1219 0790 1C4A     		ldr	r2, .L254
 1220 0792 1344     		add	r3, r3, r2
 1221 0794 93F8B030 		ldrb	r3, [r3, #176]
 1222 0798 DAB2     		uxtb	r2, r3
 1223 079a FB7F     		ldrb	r3, [r7, #31]	@ zero_extendqisi2
 1224 079c 9BB2     		uxth	r3, r3
 1225 079e 0133     		adds	r3, r3, #1
 1226 07a0 9CB2     		uxth	r4, r3
 1227 07a2 F979     		ldrb	r1, [r7, #7]	@ zero_extendqisi2
 1228 07a4 0223     		movs	r3, #2
 1229 07a6 0093     		str	r3, [sp]
 1230 07a8 42F21013 		movw	r3, #8464
 1231 07ac 0193     		str	r3, [sp, #4]
 1232 07ae 5923     		movs	r3, #89
 1233 07b0 0293     		str	r3, [sp, #8]
 1234 07b2 0846     		mov	r0, r1
 1235 07b4 1146     		mov	r1, r2
 1236 07b6 0E22     		movs	r2, #14
 1237 07b8 2346     		mov	r3, r4
 1238 07ba FFF7FEFF 		bl	write_LCD
 195:.\LCD.c       ****                 write_LCD(lcd,button[23][x],18,x+1,2,0x2110,'Y');   //Nombre de imagen Teclado Volu
 1239              		.loc 1 195 0 discriminator 3
 1240 07be FB7F     		ldrb	r3, [r7, #31]	@ zero_extendqisi2
 1241 07c0 104A     		ldr	r2, .L254
 1242 07c2 1344     		add	r3, r3, r2
 1243 07c4 93F8B830 		ldrb	r3, [r3, #184]
 1244 07c8 DAB2     		uxtb	r2, r3
 1245 07ca FB7F     		ldrb	r3, [r7, #31]	@ zero_extendqisi2
 1246 07cc 9BB2     		uxth	r3, r3
 1247 07ce 0133     		adds	r3, r3, #1
 1248 07d0 9CB2     		uxth	r4, r3
 1249 07d2 F979     		ldrb	r1, [r7, #7]	@ zero_extendqisi2
 1250 07d4 0223     		movs	r3, #2
 1251 07d6 0093     		str	r3, [sp]
 1252 07d8 42F21013 		movw	r3, #8464
 1253 07dc 0193     		str	r3, [sp, #4]
 1254 07de 5923     		movs	r3, #89
 1255 07e0 0293     		str	r3, [sp, #8]
 1256 07e2 0846     		mov	r0, r1
 1257 07e4 1146     		mov	r1, r2
 1258 07e6 1222     		movs	r2, #18
 1259 07e8 2346     		mov	r3, r4
 1260 07ea FFF7FEFF 		bl	write_LCD
 193:.\LCD.c       ****                 write_LCD(lcd,button[22][x],14,x+1,2,0x2110,'Y');   //Nombre de imagen Teclado Volu
 1261              		.loc 1 193 0 discriminator 3
 1262 07ee FB7F     		ldrb	r3, [r7, #31]	@ zero_extendqisi2
 1263 07f0 0133     		adds	r3, r3, #1
 1264 07f2 FB77     		strb	r3, [r7, #31]
ARM GAS  C:\Users\RECEPC~1\AppData\Local\Temp\ccAuxgaT.s 			page 27


 1265              	.L80:
 193:.\LCD.c       ****                 write_LCD(lcd,button[22][x],14,x+1,2,0x2110,'Y');   //Nombre de imagen Teclado Volu
 1266              		.loc 1 193 0 is_stmt 0 discriminator 1
 1267 07f4 FB7F     		ldrb	r3, [r7, #31]	@ zero_extendqisi2
 1268 07f6 072B     		cmp	r3, #7
 1269 07f8 C9D9     		bls	.L81
 196:.\LCD.c       ****             }
 197:.\LCD.c       ****         break;
 1270              		.loc 1 197 0 is_stmt 1 discriminator 6
 1271 07fa 02F0B2BD 		b	.L16
 1272              	.L42:
 198:.\LCD.c       ****             
 199:.\LCD.c       ****         case 'P'://Escoja producto
 200:.\LCD.c       ****             for(x=0;x<8;x++){
 1273              		.loc 1 200 0
 1274 07fe 0023     		movs	r3, #0
 1275 0800 FB77     		strb	r3, [r7, #31]
 1276 0802 98E0     		b	.L82
 1277              	.L255:
 1278              		.align	2
 1279              	.L254:
 1280 0804 00000000 		.word	button
 1281 0808 00000000 		.word	symbols
 1282 080c 00000000 		.word	presetFast
 1283              	.L83:
 201:.\LCD.c       ****                 write_LCD(lcd,button[24][x],0,x+9,2,0x2110,'Y');   //Nombre de imagen Escoja produc
 1284              		.loc 1 201 0 discriminator 3
 1285 0810 FB7F     		ldrb	r3, [r7, #31]	@ zero_extendqisi2
 1286 0812 A64A     		ldr	r2, .L256
 1287 0814 1344     		add	r3, r3, r2
 1288 0816 93F8C030 		ldrb	r3, [r3, #192]
 1289 081a DAB2     		uxtb	r2, r3
 1290 081c FB7F     		ldrb	r3, [r7, #31]	@ zero_extendqisi2
 1291 081e 9BB2     		uxth	r3, r3
 1292 0820 0933     		adds	r3, r3, #9
 1293 0822 9CB2     		uxth	r4, r3
 1294 0824 F979     		ldrb	r1, [r7, #7]	@ zero_extendqisi2
 1295 0826 0223     		movs	r3, #2
 1296 0828 0093     		str	r3, [sp]
 1297 082a 42F21013 		movw	r3, #8464
 1298 082e 0193     		str	r3, [sp, #4]
 1299 0830 5923     		movs	r3, #89
 1300 0832 0293     		str	r3, [sp, #8]
 1301 0834 0846     		mov	r0, r1
 1302 0836 1146     		mov	r1, r2
 1303 0838 0022     		movs	r2, #0
 1304 083a 2346     		mov	r3, r4
 1305 083c FFF7FEFF 		bl	write_LCD
 202:.\LCD.c       ****                 write_LCD(lcd,button[25][x],4,x+9,2,0x2110,'Y');   //Nombre de imagen Escoja produc
 1306              		.loc 1 202 0 discriminator 3
 1307 0840 FB7F     		ldrb	r3, [r7, #31]	@ zero_extendqisi2
 1308 0842 9A4A     		ldr	r2, .L256
 1309 0844 1344     		add	r3, r3, r2
 1310 0846 93F8C830 		ldrb	r3, [r3, #200]
 1311 084a DAB2     		uxtb	r2, r3
 1312 084c FB7F     		ldrb	r3, [r7, #31]	@ zero_extendqisi2
 1313 084e 9BB2     		uxth	r3, r3
ARM GAS  C:\Users\RECEPC~1\AppData\Local\Temp\ccAuxgaT.s 			page 28


 1314 0850 0933     		adds	r3, r3, #9
 1315 0852 9CB2     		uxth	r4, r3
 1316 0854 F979     		ldrb	r1, [r7, #7]	@ zero_extendqisi2
 1317 0856 0223     		movs	r3, #2
 1318 0858 0093     		str	r3, [sp]
 1319 085a 42F21013 		movw	r3, #8464
 1320 085e 0193     		str	r3, [sp, #4]
 1321 0860 5923     		movs	r3, #89
 1322 0862 0293     		str	r3, [sp, #8]
 1323 0864 0846     		mov	r0, r1
 1324 0866 1146     		mov	r1, r2
 1325 0868 0422     		movs	r2, #4
 1326 086a 2346     		mov	r3, r4
 1327 086c FFF7FEFF 		bl	write_LCD
 203:.\LCD.c       ****                 write_LCD(lcd,button[26][x],10,x+15,1,0xFFFF,'Y');   //Nombre de boton Producto 1
 1328              		.loc 1 203 0 discriminator 3
 1329 0870 FB7F     		ldrb	r3, [r7, #31]	@ zero_extendqisi2
 1330 0872 8E4A     		ldr	r2, .L256
 1331 0874 1344     		add	r3, r3, r2
 1332 0876 93F8D030 		ldrb	r3, [r3, #208]
 1333 087a DAB2     		uxtb	r2, r3
 1334 087c FB7F     		ldrb	r3, [r7, #31]	@ zero_extendqisi2
 1335 087e 9BB2     		uxth	r3, r3
 1336 0880 0F33     		adds	r3, r3, #15
 1337 0882 9CB2     		uxth	r4, r3
 1338 0884 F979     		ldrb	r1, [r7, #7]	@ zero_extendqisi2
 1339 0886 0123     		movs	r3, #1
 1340 0888 0093     		str	r3, [sp]
 1341 088a 4FF6FF73 		movw	r3, #65535
 1342 088e 0193     		str	r3, [sp, #4]
 1343 0890 5923     		movs	r3, #89
 1344 0892 0293     		str	r3, [sp, #8]
 1345 0894 0846     		mov	r0, r1
 1346 0896 1146     		mov	r1, r2
 1347 0898 0A22     		movs	r2, #10
 1348 089a 2346     		mov	r3, r4
 1349 089c FFF7FEFF 		bl	write_LCD
 204:.\LCD.c       ****                 write_LCD(lcd,button[27][x],16,x+15,1,0xFFFF,'Y');   //Nombre de boton Producto 2  
 1350              		.loc 1 204 0 discriminator 3
 1351 08a0 FB7F     		ldrb	r3, [r7, #31]	@ zero_extendqisi2
 1352 08a2 824A     		ldr	r2, .L256
 1353 08a4 1344     		add	r3, r3, r2
 1354 08a6 93F8D830 		ldrb	r3, [r3, #216]
 1355 08aa DAB2     		uxtb	r2, r3
 1356 08ac FB7F     		ldrb	r3, [r7, #31]	@ zero_extendqisi2
 1357 08ae 9BB2     		uxth	r3, r3
 1358 08b0 0F33     		adds	r3, r3, #15
 1359 08b2 9CB2     		uxth	r4, r3
 1360 08b4 F979     		ldrb	r1, [r7, #7]	@ zero_extendqisi2
 1361 08b6 0123     		movs	r3, #1
 1362 08b8 0093     		str	r3, [sp]
 1363 08ba 4FF6FF73 		movw	r3, #65535
 1364 08be 0193     		str	r3, [sp, #4]
 1365 08c0 5923     		movs	r3, #89
 1366 08c2 0293     		str	r3, [sp, #8]
 1367 08c4 0846     		mov	r0, r1
 1368 08c6 1146     		mov	r1, r2
ARM GAS  C:\Users\RECEPC~1\AppData\Local\Temp\ccAuxgaT.s 			page 29


 1369 08c8 1022     		movs	r2, #16
 1370 08ca 2346     		mov	r3, r4
 1371 08cc FFF7FEFF 		bl	write_LCD
 205:.\LCD.c       ****                 write_LCD(lcd,button[28][x],22,x+15,1,0xFFFF,'Y');   //Nombre de boton Producto 3
 1372              		.loc 1 205 0 discriminator 3
 1373 08d0 FB7F     		ldrb	r3, [r7, #31]	@ zero_extendqisi2
 1374 08d2 764A     		ldr	r2, .L256
 1375 08d4 1344     		add	r3, r3, r2
 1376 08d6 93F8E030 		ldrb	r3, [r3, #224]
 1377 08da DAB2     		uxtb	r2, r3
 1378 08dc FB7F     		ldrb	r3, [r7, #31]	@ zero_extendqisi2
 1379 08de 9BB2     		uxth	r3, r3
 1380 08e0 0F33     		adds	r3, r3, #15
 1381 08e2 9CB2     		uxth	r4, r3
 1382 08e4 F979     		ldrb	r1, [r7, #7]	@ zero_extendqisi2
 1383 08e6 0123     		movs	r3, #1
 1384 08e8 0093     		str	r3, [sp]
 1385 08ea 4FF6FF73 		movw	r3, #65535
 1386 08ee 0193     		str	r3, [sp, #4]
 1387 08f0 5923     		movs	r3, #89
 1388 08f2 0293     		str	r3, [sp, #8]
 1389 08f4 0846     		mov	r0, r1
 1390 08f6 1146     		mov	r1, r2
 1391 08f8 1622     		movs	r2, #22
 1392 08fa 2346     		mov	r3, r4
 1393 08fc FFF7FEFF 		bl	write_LCD
 206:.\LCD.c       ****                 write_LCD(lcd,button[29][x],28,x+15,1,0xFFFF,'Y');   //Nombre de boton Producto 4
 1394              		.loc 1 206 0 discriminator 3
 1395 0900 FB7F     		ldrb	r3, [r7, #31]	@ zero_extendqisi2
 1396 0902 6A4A     		ldr	r2, .L256
 1397 0904 1344     		add	r3, r3, r2
 1398 0906 93F8E830 		ldrb	r3, [r3, #232]
 1399 090a DAB2     		uxtb	r2, r3
 1400 090c FB7F     		ldrb	r3, [r7, #31]	@ zero_extendqisi2
 1401 090e 9BB2     		uxth	r3, r3
 1402 0910 0F33     		adds	r3, r3, #15
 1403 0912 9CB2     		uxth	r4, r3
 1404 0914 F979     		ldrb	r1, [r7, #7]	@ zero_extendqisi2
 1405 0916 0123     		movs	r3, #1
 1406 0918 0093     		str	r3, [sp]
 1407 091a 4FF6FF73 		movw	r3, #65535
 1408 091e 0193     		str	r3, [sp, #4]
 1409 0920 5923     		movs	r3, #89
 1410 0922 0293     		str	r3, [sp, #8]
 1411 0924 0846     		mov	r0, r1
 1412 0926 1146     		mov	r1, r2
 1413 0928 1C22     		movs	r2, #28
 1414 092a 2346     		mov	r3, r4
 1415 092c FFF7FEFF 		bl	write_LCD
 200:.\LCD.c       ****                 write_LCD(lcd,button[24][x],0,x+9,2,0x2110,'Y');   //Nombre de imagen Escoja produc
 1416              		.loc 1 200 0 discriminator 3
 1417 0930 FB7F     		ldrb	r3, [r7, #31]	@ zero_extendqisi2
 1418 0932 0133     		adds	r3, r3, #1
 1419 0934 FB77     		strb	r3, [r7, #31]
 1420              	.L82:
 200:.\LCD.c       ****                 write_LCD(lcd,button[24][x],0,x+9,2,0x2110,'Y');   //Nombre de imagen Escoja produc
 1421              		.loc 1 200 0 is_stmt 0 discriminator 1
ARM GAS  C:\Users\RECEPC~1\AppData\Local\Temp\ccAuxgaT.s 			page 30


 1422 0936 FB7F     		ldrb	r3, [r7, #31]	@ zero_extendqisi2
 1423 0938 072B     		cmp	r3, #7
 1424 093a 7FF669AF 		bls	.L83
 207:.\LCD.c       ****             }
 208:.\LCD.c       ****         break;
 1425              		.loc 1 208 0 is_stmt 1 discriminator 7
 1426 093e 02F010BD 		b	.L16
 1427              	.L46:
 209:.\LCD.c       ****             
 210:.\LCD.c       ****         case 'U'://Suba la manija
 211:.\LCD.c       ****             for(x=0;x<8;x++){
 1428              		.loc 1 211 0
 1429 0942 0023     		movs	r3, #0
 1430 0944 FB77     		strb	r3, [r7, #31]
 1431 0946 32E0     		b	.L84
 1432              	.L85:
 212:.\LCD.c       ****                 write_LCD(lcd,button[30][x],18,x+5,2,0x2110,'Y');   //Nombre de imagen Suba la mani
 1433              		.loc 1 212 0 discriminator 3
 1434 0948 FB7F     		ldrb	r3, [r7, #31]	@ zero_extendqisi2
 1435 094a 584A     		ldr	r2, .L256
 1436 094c 1344     		add	r3, r3, r2
 1437 094e 93F8F030 		ldrb	r3, [r3, #240]
 1438 0952 DAB2     		uxtb	r2, r3
 1439 0954 FB7F     		ldrb	r3, [r7, #31]	@ zero_extendqisi2
 1440 0956 9BB2     		uxth	r3, r3
 1441 0958 0533     		adds	r3, r3, #5
 1442 095a 9CB2     		uxth	r4, r3
 1443 095c F979     		ldrb	r1, [r7, #7]	@ zero_extendqisi2
 1444 095e 0223     		movs	r3, #2
 1445 0960 0093     		str	r3, [sp]
 1446 0962 42F21013 		movw	r3, #8464
 1447 0966 0193     		str	r3, [sp, #4]
 1448 0968 5923     		movs	r3, #89
 1449 096a 0293     		str	r3, [sp, #8]
 1450 096c 0846     		mov	r0, r1
 1451 096e 1146     		mov	r1, r2
 1452 0970 1222     		movs	r2, #18
 1453 0972 2346     		mov	r3, r4
 1454 0974 FFF7FEFF 		bl	write_LCD
 213:.\LCD.c       ****                 write_LCD(lcd,button[31][x],22,x+5,2,0x2110,'Y');   //Nombre de imagen Suba la mani
 1455              		.loc 1 213 0 discriminator 3
 1456 0978 FB7F     		ldrb	r3, [r7, #31]	@ zero_extendqisi2
 1457 097a 4C4A     		ldr	r2, .L256
 1458 097c 1344     		add	r3, r3, r2
 1459 097e 93F8F830 		ldrb	r3, [r3, #248]
 1460 0982 DAB2     		uxtb	r2, r3
 1461 0984 FB7F     		ldrb	r3, [r7, #31]	@ zero_extendqisi2
 1462 0986 9BB2     		uxth	r3, r3
 1463 0988 0533     		adds	r3, r3, #5
 1464 098a 9CB2     		uxth	r4, r3
 1465 098c F979     		ldrb	r1, [r7, #7]	@ zero_extendqisi2
 1466 098e 0223     		movs	r3, #2
 1467 0990 0093     		str	r3, [sp]
 1468 0992 42F21013 		movw	r3, #8464
 1469 0996 0193     		str	r3, [sp, #4]
 1470 0998 5923     		movs	r3, #89
 1471 099a 0293     		str	r3, [sp, #8]
ARM GAS  C:\Users\RECEPC~1\AppData\Local\Temp\ccAuxgaT.s 			page 31


 1472 099c 0846     		mov	r0, r1
 1473 099e 1146     		mov	r1, r2
 1474 09a0 1622     		movs	r2, #22
 1475 09a2 2346     		mov	r3, r4
 1476 09a4 FFF7FEFF 		bl	write_LCD
 211:.\LCD.c       ****                 write_LCD(lcd,button[30][x],18,x+5,2,0x2110,'Y');   //Nombre de imagen Suba la mani
 1477              		.loc 1 211 0 discriminator 3
 1478 09a8 FB7F     		ldrb	r3, [r7, #31]	@ zero_extendqisi2
 1479 09aa 0133     		adds	r3, r3, #1
 1480 09ac FB77     		strb	r3, [r7, #31]
 1481              	.L84:
 211:.\LCD.c       ****                 write_LCD(lcd,button[30][x],18,x+5,2,0x2110,'Y');   //Nombre de imagen Suba la mani
 1482              		.loc 1 211 0 is_stmt 0 discriminator 1
 1483 09ae FB7F     		ldrb	r3, [r7, #31]	@ zero_extendqisi2
 1484 09b0 072B     		cmp	r3, #7
 1485 09b2 C9D9     		bls	.L85
 214:.\LCD.c       ****             }
 215:.\LCD.c       ****         break;
 1486              		.loc 1 215 0 is_stmt 1 discriminator 8
 1487 09b4 02F0D5BC 		b	.L16
 1488              	.L48:
 216:.\LCD.c       ****             
 217:.\LCD.c       ****         case 'W'://Espere 1 momento
 218:.\LCD.c       ****             for(x=0;x<8;x++){
 1489              		.loc 1 218 0
 1490 09b8 0023     		movs	r3, #0
 1491 09ba FB77     		strb	r3, [r7, #31]
 1492 09bc 32E0     		b	.L86
 1493              	.L87:
 219:.\LCD.c       ****                 write_LCD(lcd,button[32][x],18,x+5,2,0x2110,'Y');   //Nombre de imagen Esperando Re
 1494              		.loc 1 219 0 discriminator 3
 1495 09be FB7F     		ldrb	r3, [r7, #31]	@ zero_extendqisi2
 1496 09c0 3A4A     		ldr	r2, .L256
 1497 09c2 1344     		add	r3, r3, r2
 1498 09c4 93F80031 		ldrb	r3, [r3, #256]
 1499 09c8 DAB2     		uxtb	r2, r3
 1500 09ca FB7F     		ldrb	r3, [r7, #31]	@ zero_extendqisi2
 1501 09cc 9BB2     		uxth	r3, r3
 1502 09ce 0533     		adds	r3, r3, #5
 1503 09d0 9CB2     		uxth	r4, r3
 1504 09d2 F979     		ldrb	r1, [r7, #7]	@ zero_extendqisi2
 1505 09d4 0223     		movs	r3, #2
 1506 09d6 0093     		str	r3, [sp]
 1507 09d8 42F21013 		movw	r3, #8464
 1508 09dc 0193     		str	r3, [sp, #4]
 1509 09de 5923     		movs	r3, #89
 1510 09e0 0293     		str	r3, [sp, #8]
 1511 09e2 0846     		mov	r0, r1
 1512 09e4 1146     		mov	r1, r2
 1513 09e6 1222     		movs	r2, #18
 1514 09e8 2346     		mov	r3, r4
 1515 09ea FFF7FEFF 		bl	write_LCD
 220:.\LCD.c       ****                 write_LCD(lcd,button[33][x],22,x+5,2,0x2110,'Y');   //Nombre de imagen Esperando Re
 1516              		.loc 1 220 0 discriminator 3
 1517 09ee FB7F     		ldrb	r3, [r7, #31]	@ zero_extendqisi2
 1518 09f0 2E4A     		ldr	r2, .L256
 1519 09f2 1344     		add	r3, r3, r2
ARM GAS  C:\Users\RECEPC~1\AppData\Local\Temp\ccAuxgaT.s 			page 32


 1520 09f4 93F80831 		ldrb	r3, [r3, #264]
 1521 09f8 DAB2     		uxtb	r2, r3
 1522 09fa FB7F     		ldrb	r3, [r7, #31]	@ zero_extendqisi2
 1523 09fc 9BB2     		uxth	r3, r3
 1524 09fe 0533     		adds	r3, r3, #5
 1525 0a00 9CB2     		uxth	r4, r3
 1526 0a02 F979     		ldrb	r1, [r7, #7]	@ zero_extendqisi2
 1527 0a04 0223     		movs	r3, #2
 1528 0a06 0093     		str	r3, [sp]
 1529 0a08 42F21013 		movw	r3, #8464
 1530 0a0c 0193     		str	r3, [sp, #4]
 1531 0a0e 5923     		movs	r3, #89
 1532 0a10 0293     		str	r3, [sp, #8]
 1533 0a12 0846     		mov	r0, r1
 1534 0a14 1146     		mov	r1, r2
 1535 0a16 1622     		movs	r2, #22
 1536 0a18 2346     		mov	r3, r4
 1537 0a1a FFF7FEFF 		bl	write_LCD
 218:.\LCD.c       ****                 write_LCD(lcd,button[32][x],18,x+5,2,0x2110,'Y');   //Nombre de imagen Esperando Re
 1538              		.loc 1 218 0 discriminator 3
 1539 0a1e FB7F     		ldrb	r3, [r7, #31]	@ zero_extendqisi2
 1540 0a20 0133     		adds	r3, r3, #1
 1541 0a22 FB77     		strb	r3, [r7, #31]
 1542              	.L86:
 218:.\LCD.c       ****                 write_LCD(lcd,button[32][x],18,x+5,2,0x2110,'Y');   //Nombre de imagen Esperando Re
 1543              		.loc 1 218 0 is_stmt 0 discriminator 1
 1544 0a24 FB7F     		ldrb	r3, [r7, #31]	@ zero_extendqisi2
 1545 0a26 072B     		cmp	r3, #7
 1546 0a28 C9D9     		bls	.L87
 221:.\LCD.c       ****             }
 222:.\LCD.c       ****         break;
 1547              		.loc 1 222 0 is_stmt 1 discriminator 9
 1548 0a2a 02F09ABC 		b	.L16
 1549              	.L36:
 223:.\LCD.c       ****           
 224:.\LCD.c       ****         case 'E'://Error de sistema
 225:.\LCD.c       ****             for(x=0;x<8;x++){
 1550              		.loc 1 225 0
 1551 0a2e 0023     		movs	r3, #0
 1552 0a30 FB77     		strb	r3, [r7, #31]
 1553 0a32 32E0     		b	.L88
 1554              	.L89:
 226:.\LCD.c       ****                 write_LCD(lcd,button[34][x],1,x+3,3,0x2110,'Y');   //Nombre de imagen Error de sist
 1555              		.loc 1 226 0 discriminator 3
 1556 0a34 FB7F     		ldrb	r3, [r7, #31]	@ zero_extendqisi2
 1557 0a36 1D4A     		ldr	r2, .L256
 1558 0a38 1344     		add	r3, r3, r2
 1559 0a3a 93F81031 		ldrb	r3, [r3, #272]
 1560 0a3e DAB2     		uxtb	r2, r3
 1561 0a40 FB7F     		ldrb	r3, [r7, #31]	@ zero_extendqisi2
 1562 0a42 9BB2     		uxth	r3, r3
 1563 0a44 0333     		adds	r3, r3, #3
 1564 0a46 9CB2     		uxth	r4, r3
 1565 0a48 F979     		ldrb	r1, [r7, #7]	@ zero_extendqisi2
 1566 0a4a 0323     		movs	r3, #3
 1567 0a4c 0093     		str	r3, [sp]
 1568 0a4e 42F21013 		movw	r3, #8464
ARM GAS  C:\Users\RECEPC~1\AppData\Local\Temp\ccAuxgaT.s 			page 33


 1569 0a52 0193     		str	r3, [sp, #4]
 1570 0a54 5923     		movs	r3, #89
 1571 0a56 0293     		str	r3, [sp, #8]
 1572 0a58 0846     		mov	r0, r1
 1573 0a5a 1146     		mov	r1, r2
 1574 0a5c 0122     		movs	r2, #1
 1575 0a5e 2346     		mov	r3, r4
 1576 0a60 FFF7FEFF 		bl	write_LCD
 227:.\LCD.c       ****                 write_LCD(lcd,button[35][x],7,x+3,3,0x2110,'Y');   //Nombre de imagen Error de sist
 1577              		.loc 1 227 0 discriminator 3
 1578 0a64 FB7F     		ldrb	r3, [r7, #31]	@ zero_extendqisi2
 1579 0a66 114A     		ldr	r2, .L256
 1580 0a68 1344     		add	r3, r3, r2
 1581 0a6a 93F81831 		ldrb	r3, [r3, #280]
 1582 0a6e DAB2     		uxtb	r2, r3
 1583 0a70 FB7F     		ldrb	r3, [r7, #31]	@ zero_extendqisi2
 1584 0a72 9BB2     		uxth	r3, r3
 1585 0a74 0333     		adds	r3, r3, #3
 1586 0a76 9CB2     		uxth	r4, r3
 1587 0a78 F979     		ldrb	r1, [r7, #7]	@ zero_extendqisi2
 1588 0a7a 0323     		movs	r3, #3
 1589 0a7c 0093     		str	r3, [sp]
 1590 0a7e 42F21013 		movw	r3, #8464
 1591 0a82 0193     		str	r3, [sp, #4]
 1592 0a84 5923     		movs	r3, #89
 1593 0a86 0293     		str	r3, [sp, #8]
 1594 0a88 0846     		mov	r0, r1
 1595 0a8a 1146     		mov	r1, r2
 1596 0a8c 0722     		movs	r2, #7
 1597 0a8e 2346     		mov	r3, r4
 1598 0a90 FFF7FEFF 		bl	write_LCD
 225:.\LCD.c       ****                 write_LCD(lcd,button[34][x],1,x+3,3,0x2110,'Y');   //Nombre de imagen Error de sist
 1599              		.loc 1 225 0 discriminator 3
 1600 0a94 FB7F     		ldrb	r3, [r7, #31]	@ zero_extendqisi2
 1601 0a96 0133     		adds	r3, r3, #1
 1602 0a98 FB77     		strb	r3, [r7, #31]
 1603              	.L88:
 225:.\LCD.c       ****                 write_LCD(lcd,button[34][x],1,x+3,3,0x2110,'Y');   //Nombre de imagen Error de sist
 1604              		.loc 1 225 0 is_stmt 0 discriminator 1
 1605 0a9a FB7F     		ldrb	r3, [r7, #31]	@ zero_extendqisi2
 1606 0a9c 072B     		cmp	r3, #7
 1607 0a9e C9D9     		bls	.L89
 228:.\LCD.c       ****             }
 229:.\LCD.c       ****         break;
 1608              		.loc 1 229 0 is_stmt 1 discriminator 10
 1609 0aa0 02F05FBC 		b	.L16
 1610              	.L45:
 230:.\LCD.c       ****             
 231:.\LCD.c       ****         case 'T'://Tanqueando
 232:.\LCD.c       ****             for(x=0;x<8;x++){
 1611              		.loc 1 232 0
 1612 0aa4 0023     		movs	r3, #0
 1613 0aa6 FB77     		strb	r3, [r7, #31]
 1614 0aa8 4DE0     		b	.L90
 1615              	.L257:
 1616 0aaa 00BF     		.align	2
 1617              	.L256:
ARM GAS  C:\Users\RECEPC~1\AppData\Local\Temp\ccAuxgaT.s 			page 34


 1618 0aac 00000000 		.word	button
 1619              	.L91:
 233:.\LCD.c       ****                 write_LCD(lcd,button[36][x],16,x+3,3,0x2110,'Y');   //Nombre de imagen Tanqueando R
 1620              		.loc 1 233 0 discriminator 3
 1621 0ab0 FB7F     		ldrb	r3, [r7, #31]	@ zero_extendqisi2
 1622 0ab2 B74A     		ldr	r2, .L258
 1623 0ab4 1344     		add	r3, r3, r2
 1624 0ab6 93F82031 		ldrb	r3, [r3, #288]
 1625 0aba DAB2     		uxtb	r2, r3
 1626 0abc FB7F     		ldrb	r3, [r7, #31]	@ zero_extendqisi2
 1627 0abe 9BB2     		uxth	r3, r3
 1628 0ac0 0333     		adds	r3, r3, #3
 1629 0ac2 9CB2     		uxth	r4, r3
 1630 0ac4 F979     		ldrb	r1, [r7, #7]	@ zero_extendqisi2
 1631 0ac6 0323     		movs	r3, #3
 1632 0ac8 0093     		str	r3, [sp]
 1633 0aca 42F21013 		movw	r3, #8464
 1634 0ace 0193     		str	r3, [sp, #4]
 1635 0ad0 5923     		movs	r3, #89
 1636 0ad2 0293     		str	r3, [sp, #8]
 1637 0ad4 0846     		mov	r0, r1
 1638 0ad6 1146     		mov	r1, r2
 1639 0ad8 1022     		movs	r2, #16
 1640 0ada 2346     		mov	r3, r4
 1641 0adc FFF7FEFF 		bl	write_LCD
 234:.\LCD.c       ****                 write_LCD(lcd,button[37][x],22,x+3,3,0x2110,'Y');   //Nombre de imagen Tanqueando R
 1642              		.loc 1 234 0 discriminator 3
 1643 0ae0 FB7F     		ldrb	r3, [r7, #31]	@ zero_extendqisi2
 1644 0ae2 AB4A     		ldr	r2, .L258
 1645 0ae4 1344     		add	r3, r3, r2
 1646 0ae6 93F82831 		ldrb	r3, [r3, #296]
 1647 0aea DAB2     		uxtb	r2, r3
 1648 0aec FB7F     		ldrb	r3, [r7, #31]	@ zero_extendqisi2
 1649 0aee 9BB2     		uxth	r3, r3
 1650 0af0 0333     		adds	r3, r3, #3
 1651 0af2 9CB2     		uxth	r4, r3
 1652 0af4 F979     		ldrb	r1, [r7, #7]	@ zero_extendqisi2
 1653 0af6 0323     		movs	r3, #3
 1654 0af8 0093     		str	r3, [sp]
 1655 0afa 42F21013 		movw	r3, #8464
 1656 0afe 0193     		str	r3, [sp, #4]
 1657 0b00 5923     		movs	r3, #89
 1658 0b02 0293     		str	r3, [sp, #8]
 1659 0b04 0846     		mov	r0, r1
 1660 0b06 1146     		mov	r1, r2
 1661 0b08 1622     		movs	r2, #22
 1662 0b0a 2346     		mov	r3, r4
 1663 0b0c FFF7FEFF 		bl	write_LCD
 235:.\LCD.c       ****                 write_LCD(lcd,button[71][x],2,x+3,0,0xD000,'Y');   //Nombre de boton preset
 1664              		.loc 1 235 0 discriminator 3
 1665 0b10 FB7F     		ldrb	r3, [r7, #31]	@ zero_extendqisi2
 1666 0b12 9F4A     		ldr	r2, .L258
 1667 0b14 1344     		add	r3, r3, r2
 1668 0b16 93F83832 		ldrb	r3, [r3, #568]
 1669 0b1a DAB2     		uxtb	r2, r3
 1670 0b1c FB7F     		ldrb	r3, [r7, #31]	@ zero_extendqisi2
 1671 0b1e 9BB2     		uxth	r3, r3
ARM GAS  C:\Users\RECEPC~1\AppData\Local\Temp\ccAuxgaT.s 			page 35


 1672 0b20 0333     		adds	r3, r3, #3
 1673 0b22 9CB2     		uxth	r4, r3
 1674 0b24 F979     		ldrb	r1, [r7, #7]	@ zero_extendqisi2
 1675 0b26 0023     		movs	r3, #0
 1676 0b28 0093     		str	r3, [sp]
 1677 0b2a 4FF45043 		mov	r3, #53248
 1678 0b2e 0193     		str	r3, [sp, #4]
 1679 0b30 5923     		movs	r3, #89
 1680 0b32 0293     		str	r3, [sp, #8]
 1681 0b34 0846     		mov	r0, r1
 1682 0b36 1146     		mov	r1, r2
 1683 0b38 0222     		movs	r2, #2
 1684 0b3a 2346     		mov	r3, r4
 1685 0b3c FFF7FEFF 		bl	write_LCD
 232:.\LCD.c       ****                 write_LCD(lcd,button[36][x],16,x+3,3,0x2110,'Y');   //Nombre de imagen Tanqueando R
 1686              		.loc 1 232 0 discriminator 3
 1687 0b40 FB7F     		ldrb	r3, [r7, #31]	@ zero_extendqisi2
 1688 0b42 0133     		adds	r3, r3, #1
 1689 0b44 FB77     		strb	r3, [r7, #31]
 1690              	.L90:
 232:.\LCD.c       ****                 write_LCD(lcd,button[36][x],16,x+3,3,0x2110,'Y');   //Nombre de imagen Tanqueando R
 1691              		.loc 1 232 0 is_stmt 0 discriminator 1
 1692 0b46 FB7F     		ldrb	r3, [r7, #31]	@ zero_extendqisi2
 1693 0b48 072B     		cmp	r3, #7
 1694 0b4a B1D9     		bls	.L91
 236:.\LCD.c       ****             }
 237:.\LCD.c       ****             if(lcd==1){
 1695              		.loc 1 237 0 is_stmt 1
 1696 0b4c FB79     		ldrb	r3, [r7, #7]	@ zero_extendqisi2
 1697 0b4e 012B     		cmp	r3, #1
 1698 0b50 40F0B481 		bne	.L92
 238:.\LCD.c       ****                 switch (bufferLCD1.presetType[1]){
 1699              		.loc 1 238 0
 1700 0b54 8F4B     		ldr	r3, .L258+4
 1701 0b56 93F87D30 		ldrb	r3, [r3, #125]	@ zero_extendqisi2
 1702 0b5a 313B     		subs	r3, r3, #49
 1703 0b5c 252B     		cmp	r3, #37
 1704 0b5e 00F27981 		bhi	.L93
 1705 0b62 01A2     		adr	r2, .L95
 1706 0b64 52F823F0 		ldr	pc, [r2, r3, lsl #2]
 1707              		.p2align 2
 1708              	.L95:
 1709 0b68 330D0000 		.word	.L94+1
 1710 0b6c 9D0D0000 		.word	.L96+1
 1711 0b70 F90D0000 		.word	.L97+1
 1712 0b74 550E0000 		.word	.L93+1
 1713 0b78 550E0000 		.word	.L93+1
 1714 0b7c 550E0000 		.word	.L93+1
 1715 0b80 550E0000 		.word	.L93+1
 1716 0b84 550E0000 		.word	.L93+1
 1717 0b88 550E0000 		.word	.L93+1
 1718 0b8c 550E0000 		.word	.L93+1
 1719 0b90 550E0000 		.word	.L93+1
 1720 0b94 550E0000 		.word	.L93+1
 1721 0b98 550E0000 		.word	.L93+1
 1722 0b9c 550E0000 		.word	.L93+1
 1723 0ba0 550E0000 		.word	.L93+1
ARM GAS  C:\Users\RECEPC~1\AppData\Local\Temp\ccAuxgaT.s 			page 36


 1724 0ba4 550E0000 		.word	.L93+1
 1725 0ba8 550E0000 		.word	.L93+1
 1726 0bac 550E0000 		.word	.L93+1
 1727 0bb0 550E0000 		.word	.L93+1
 1728 0bb4 010C0000 		.word	.L98+1
 1729 0bb8 550E0000 		.word	.L93+1
 1730 0bbc CD0C0000 		.word	.L99+1
 1731 0bc0 550E0000 		.word	.L93+1
 1732 0bc4 550E0000 		.word	.L93+1
 1733 0bc8 550E0000 		.word	.L93+1
 1734 0bcc 550E0000 		.word	.L93+1
 1735 0bd0 550E0000 		.word	.L93+1
 1736 0bd4 550E0000 		.word	.L93+1
 1737 0bd8 550E0000 		.word	.L93+1
 1738 0bdc 550E0000 		.word	.L93+1
 1739 0be0 550E0000 		.word	.L93+1
 1740 0be4 550E0000 		.word	.L93+1
 1741 0be8 550E0000 		.word	.L93+1
 1742 0bec 550E0000 		.word	.L93+1
 1743 0bf0 550E0000 		.word	.L93+1
 1744 0bf4 550E0000 		.word	.L93+1
 1745 0bf8 550E0000 		.word	.L93+1
 1746 0bfc 670C0000 		.word	.L100+1
 1747              		.p2align 1
 1748              	.L98:
 239:.\LCD.c       ****                     case 'D':
 240:.\LCD.c       ****                         for(x=0;x<8;x++){
 1749              		.loc 1 240 0
 1750 0c00 0023     		movs	r3, #0
 1751 0c02 FB77     		strb	r3, [r7, #31]
 1752 0c04 1AE0     		b	.L101
 1753              	.L102:
 241:.\LCD.c       ****                             write_LCD(lcd,button[14][x],2,x+12,0,0x2110,'Y');   //Nombre de boton D
 1754              		.loc 1 241 0 discriminator 3
 1755 0c06 FB7F     		ldrb	r3, [r7, #31]	@ zero_extendqisi2
 1756 0c08 614A     		ldr	r2, .L258
 1757 0c0a 1344     		add	r3, r3, r2
 1758 0c0c 93F87030 		ldrb	r3, [r3, #112]
 1759 0c10 DAB2     		uxtb	r2, r3
 1760 0c12 FB7F     		ldrb	r3, [r7, #31]	@ zero_extendqisi2
 1761 0c14 9BB2     		uxth	r3, r3
 1762 0c16 0C33     		adds	r3, r3, #12
 1763 0c18 9CB2     		uxth	r4, r3
 1764 0c1a F979     		ldrb	r1, [r7, #7]	@ zero_extendqisi2
 1765 0c1c 0023     		movs	r3, #0
 1766 0c1e 0093     		str	r3, [sp]
 1767 0c20 42F21013 		movw	r3, #8464
 1768 0c24 0193     		str	r3, [sp, #4]
 1769 0c26 5923     		movs	r3, #89
 1770 0c28 0293     		str	r3, [sp, #8]
 1771 0c2a 0846     		mov	r0, r1
 1772 0c2c 1146     		mov	r1, r2
 1773 0c2e 0222     		movs	r2, #2
 1774 0c30 2346     		mov	r3, r4
 1775 0c32 FFF7FEFF 		bl	write_LCD
 240:.\LCD.c       ****                             write_LCD(lcd,button[14][x],2,x+12,0,0x2110,'Y');   //Nombre de boton D
 1776              		.loc 1 240 0 discriminator 3
ARM GAS  C:\Users\RECEPC~1\AppData\Local\Temp\ccAuxgaT.s 			page 37


 1777 0c36 FB7F     		ldrb	r3, [r7, #31]	@ zero_extendqisi2
 1778 0c38 0133     		adds	r3, r3, #1
 1779 0c3a FB77     		strb	r3, [r7, #31]
 1780              	.L101:
 240:.\LCD.c       ****                             write_LCD(lcd,button[14][x],2,x+12,0,0x2110,'Y');   //Nombre de boton D
 1781              		.loc 1 240 0 is_stmt 0 discriminator 1
 1782 0c3c FB7F     		ldrb	r3, [r7, #31]	@ zero_extendqisi2
 1783 0c3e 072B     		cmp	r3, #7
 1784 0c40 E1D9     		bls	.L102
 242:.\LCD.c       ****                         }
 243:.\LCD.c       ****                         write_LCD(lcd,symbols[0],4,2,1,0xD000,'Y');   //Simbolo de dinero
 1785              		.loc 1 243 0 is_stmt 1
 1786 0c42 554B     		ldr	r3, .L258+8
 1787 0c44 1B78     		ldrb	r3, [r3]
 1788 0c46 DAB2     		uxtb	r2, r3
 1789 0c48 F979     		ldrb	r1, [r7, #7]	@ zero_extendqisi2
 1790 0c4a 0123     		movs	r3, #1
 1791 0c4c 0093     		str	r3, [sp]
 1792 0c4e 4FF45043 		mov	r3, #53248
 1793 0c52 0193     		str	r3, [sp, #4]
 1794 0c54 5923     		movs	r3, #89
 1795 0c56 0293     		str	r3, [sp, #8]
 1796 0c58 0846     		mov	r0, r1
 1797 0c5a 1146     		mov	r1, r2
 1798 0c5c 0422     		movs	r2, #4
 1799 0c5e 0223     		movs	r3, #2
 1800 0c60 FFF7FEFF 		bl	write_LCD
 244:.\LCD.c       ****                     break;
 1801              		.loc 1 244 0
 1802 0c64 F6E0     		b	.L93
 1803              	.L100:
 245:.\LCD.c       ****                     
 246:.\LCD.c       ****                     case 'V':
 247:.\LCD.c       ****                         for(x=0;x<8;x++){
 1804              		.loc 1 247 0
 1805 0c66 0023     		movs	r3, #0
 1806 0c68 FB77     		strb	r3, [r7, #31]
 1807 0c6a 1AE0     		b	.L103
 1808              	.L104:
 248:.\LCD.c       ****                             write_LCD(lcd,button[15][x],2,x+12,0,0x2110,'Y');   //Nombre de boton V
 1809              		.loc 1 248 0 discriminator 3
 1810 0c6c FB7F     		ldrb	r3, [r7, #31]	@ zero_extendqisi2
 1811 0c6e 484A     		ldr	r2, .L258
 1812 0c70 1344     		add	r3, r3, r2
 1813 0c72 93F87830 		ldrb	r3, [r3, #120]
 1814 0c76 DAB2     		uxtb	r2, r3
 1815 0c78 FB7F     		ldrb	r3, [r7, #31]	@ zero_extendqisi2
 1816 0c7a 9BB2     		uxth	r3, r3
 1817 0c7c 0C33     		adds	r3, r3, #12
 1818 0c7e 9CB2     		uxth	r4, r3
 1819 0c80 F979     		ldrb	r1, [r7, #7]	@ zero_extendqisi2
 1820 0c82 0023     		movs	r3, #0
 1821 0c84 0093     		str	r3, [sp]
 1822 0c86 42F21013 		movw	r3, #8464
 1823 0c8a 0193     		str	r3, [sp, #4]
 1824 0c8c 5923     		movs	r3, #89
 1825 0c8e 0293     		str	r3, [sp, #8]
ARM GAS  C:\Users\RECEPC~1\AppData\Local\Temp\ccAuxgaT.s 			page 38


 1826 0c90 0846     		mov	r0, r1
 1827 0c92 1146     		mov	r1, r2
 1828 0c94 0222     		movs	r2, #2
 1829 0c96 2346     		mov	r3, r4
 1830 0c98 FFF7FEFF 		bl	write_LCD
 247:.\LCD.c       ****                             write_LCD(lcd,button[15][x],2,x+12,0,0x2110,'Y');   //Nombre de boton V
 1831              		.loc 1 247 0 discriminator 3
 1832 0c9c FB7F     		ldrb	r3, [r7, #31]	@ zero_extendqisi2
 1833 0c9e 0133     		adds	r3, r3, #1
 1834 0ca0 FB77     		strb	r3, [r7, #31]
 1835              	.L103:
 247:.\LCD.c       ****                             write_LCD(lcd,button[15][x],2,x+12,0,0x2110,'Y');   //Nombre de boton V
 1836              		.loc 1 247 0 is_stmt 0 discriminator 1
 1837 0ca2 FB7F     		ldrb	r3, [r7, #31]	@ zero_extendqisi2
 1838 0ca4 072B     		cmp	r3, #7
 1839 0ca6 E1D9     		bls	.L104
 249:.\LCD.c       ****                         }
 250:.\LCD.c       ****                         write_LCD(lcd,symbols[1],4,2,1,0xD000,'Y');   //Simbolo de Volumen
 1840              		.loc 1 250 0 is_stmt 1
 1841 0ca8 3B4B     		ldr	r3, .L258+8
 1842 0caa 5B78     		ldrb	r3, [r3, #1]
 1843 0cac DAB2     		uxtb	r2, r3
 1844 0cae F979     		ldrb	r1, [r7, #7]	@ zero_extendqisi2
 1845 0cb0 0123     		movs	r3, #1
 1846 0cb2 0093     		str	r3, [sp]
 1847 0cb4 4FF45043 		mov	r3, #53248
 1848 0cb8 0193     		str	r3, [sp, #4]
 1849 0cba 5923     		movs	r3, #89
 1850 0cbc 0293     		str	r3, [sp, #8]
 1851 0cbe 0846     		mov	r0, r1
 1852 0cc0 1146     		mov	r1, r2
 1853 0cc2 0422     		movs	r2, #4
 1854 0cc4 0223     		movs	r3, #2
 1855 0cc6 FFF7FEFF 		bl	write_LCD
 251:.\LCD.c       ****                     break;
 1856              		.loc 1 251 0
 1857 0cca C3E0     		b	.L93
 1858              	.L99:
 252:.\LCD.c       ****                         
 253:.\LCD.c       ****                     case 'F':
 254:.\LCD.c       ****                         for(x=0;x<8;x++){
 1859              		.loc 1 254 0
 1860 0ccc 0023     		movs	r3, #0
 1861 0cce FB77     		strb	r3, [r7, #31]
 1862 0cd0 1AE0     		b	.L105
 1863              	.L106:
 255:.\LCD.c       ****                             write_LCD(lcd,button[16][x],2,x+12,0,0x2110,'Y');   //Nombre de boton L
 1864              		.loc 1 255 0 discriminator 3
 1865 0cd2 FB7F     		ldrb	r3, [r7, #31]	@ zero_extendqisi2
 1866 0cd4 2E4A     		ldr	r2, .L258
 1867 0cd6 1344     		add	r3, r3, r2
 1868 0cd8 93F88030 		ldrb	r3, [r3, #128]
 1869 0cdc DAB2     		uxtb	r2, r3
 1870 0cde FB7F     		ldrb	r3, [r7, #31]	@ zero_extendqisi2
 1871 0ce0 9BB2     		uxth	r3, r3
 1872 0ce2 0C33     		adds	r3, r3, #12
 1873 0ce4 9CB2     		uxth	r4, r3
ARM GAS  C:\Users\RECEPC~1\AppData\Local\Temp\ccAuxgaT.s 			page 39


 1874 0ce6 F979     		ldrb	r1, [r7, #7]	@ zero_extendqisi2
 1875 0ce8 0023     		movs	r3, #0
 1876 0cea 0093     		str	r3, [sp]
 1877 0cec 42F21013 		movw	r3, #8464
 1878 0cf0 0193     		str	r3, [sp, #4]
 1879 0cf2 5923     		movs	r3, #89
 1880 0cf4 0293     		str	r3, [sp, #8]
 1881 0cf6 0846     		mov	r0, r1
 1882 0cf8 1146     		mov	r1, r2
 1883 0cfa 0222     		movs	r2, #2
 1884 0cfc 2346     		mov	r3, r4
 1885 0cfe FFF7FEFF 		bl	write_LCD
 254:.\LCD.c       ****                             write_LCD(lcd,button[16][x],2,x+12,0,0x2110,'Y');   //Nombre de boton L
 1886              		.loc 1 254 0 discriminator 3
 1887 0d02 FB7F     		ldrb	r3, [r7, #31]	@ zero_extendqisi2
 1888 0d04 0133     		adds	r3, r3, #1
 1889 0d06 FB77     		strb	r3, [r7, #31]
 1890              	.L105:
 254:.\LCD.c       ****                             write_LCD(lcd,button[16][x],2,x+12,0,0x2110,'Y');   //Nombre de boton L
 1891              		.loc 1 254 0 is_stmt 0 discriminator 1
 1892 0d08 FB7F     		ldrb	r3, [r7, #31]	@ zero_extendqisi2
 1893 0d0a 072B     		cmp	r3, #7
 1894 0d0c E1D9     		bls	.L106
 256:.\LCD.c       ****                         }
 257:.\LCD.c       ****                         write_LCD(lcd,symbols[0],4,2,1,0xD000,'Y');   //Simbolo de dinero
 1895              		.loc 1 257 0 is_stmt 1
 1896 0d0e 224B     		ldr	r3, .L258+8
 1897 0d10 1B78     		ldrb	r3, [r3]
 1898 0d12 DAB2     		uxtb	r2, r3
 1899 0d14 F979     		ldrb	r1, [r7, #7]	@ zero_extendqisi2
 1900 0d16 0123     		movs	r3, #1
 1901 0d18 0093     		str	r3, [sp]
 1902 0d1a 4FF45043 		mov	r3, #53248
 1903 0d1e 0193     		str	r3, [sp, #4]
 1904 0d20 5923     		movs	r3, #89
 1905 0d22 0293     		str	r3, [sp, #8]
 1906 0d24 0846     		mov	r0, r1
 1907 0d26 1146     		mov	r1, r2
 1908 0d28 0422     		movs	r2, #4
 1909 0d2a 0223     		movs	r3, #2
 1910 0d2c FFF7FEFF 		bl	write_LCD
 258:.\LCD.c       ****                     break;
 1911              		.loc 1 258 0
 1912 0d30 90E0     		b	.L93
 1913              	.L94:
 259:.\LCD.c       ****                     
 260:.\LCD.c       ****                     case '1':
 261:.\LCD.c       ****                         write_LCD(lcd,'P',2,12,0,0x2110,'Y');   //Nombre de boton P1
 1914              		.loc 1 261 0
 1915 0d32 FA79     		ldrb	r2, [r7, #7]	@ zero_extendqisi2
 1916 0d34 0023     		movs	r3, #0
 1917 0d36 0093     		str	r3, [sp]
 1918 0d38 42F21013 		movw	r3, #8464
 1919 0d3c 0193     		str	r3, [sp, #4]
 1920 0d3e 5923     		movs	r3, #89
 1921 0d40 0293     		str	r3, [sp, #8]
 1922 0d42 1046     		mov	r0, r2
ARM GAS  C:\Users\RECEPC~1\AppData\Local\Temp\ccAuxgaT.s 			page 40


 1923 0d44 5021     		movs	r1, #80
 1924 0d46 0222     		movs	r2, #2
 1925 0d48 0C23     		movs	r3, #12
 1926 0d4a FFF7FEFF 		bl	write_LCD
 262:.\LCD.c       ****                         write_LCD(lcd,'1',2,13,0,0x2110,'Y');   //Nombre de boton P1
 1927              		.loc 1 262 0
 1928 0d4e FA79     		ldrb	r2, [r7, #7]	@ zero_extendqisi2
 1929 0d50 0023     		movs	r3, #0
 1930 0d52 0093     		str	r3, [sp]
 1931 0d54 42F21013 		movw	r3, #8464
 1932 0d58 0193     		str	r3, [sp, #4]
 1933 0d5a 5923     		movs	r3, #89
 1934 0d5c 0293     		str	r3, [sp, #8]
 1935 0d5e 1046     		mov	r0, r2
 1936 0d60 3121     		movs	r1, #49
 1937 0d62 0222     		movs	r2, #2
 1938 0d64 0D23     		movs	r3, #13
 1939 0d66 FFF7FEFF 		bl	write_LCD
 263:.\LCD.c       ****                         write_LCD(lcd,symbols[0],4,2,1,0xD000,'Y');   //Simbolo de dinero
 1940              		.loc 1 263 0
 1941 0d6a 0B4B     		ldr	r3, .L258+8
 1942 0d6c 1B78     		ldrb	r3, [r3]
 1943 0d6e DAB2     		uxtb	r2, r3
 1944 0d70 F979     		ldrb	r1, [r7, #7]	@ zero_extendqisi2
 1945 0d72 0123     		movs	r3, #1
 1946 0d74 0093     		str	r3, [sp]
 1947 0d76 4FF45043 		mov	r3, #53248
 1948 0d7a 0193     		str	r3, [sp, #4]
 1949 0d7c 5923     		movs	r3, #89
 1950 0d7e 0293     		str	r3, [sp, #8]
 1951 0d80 0846     		mov	r0, r1
 1952 0d82 1146     		mov	r1, r2
 1953 0d84 0422     		movs	r2, #4
 1954 0d86 0223     		movs	r3, #2
 1955 0d88 FFF7FEFF 		bl	write_LCD
 264:.\LCD.c       ****                     break;
 1956              		.loc 1 264 0
 1957 0d8c 62E0     		b	.L93
 1958              	.L259:
 1959 0d8e 00BF     		.align	2
 1960              	.L258:
 1961 0d90 00000000 		.word	button
 1962 0d94 00000000 		.word	bufferLCD1
 1963 0d98 00000000 		.word	symbols
 1964              	.L96:
 265:.\LCD.c       ****                     
 266:.\LCD.c       ****                     case '2':
 267:.\LCD.c       ****                         write_LCD(lcd,'P',2,12,0,0x2110,'Y');   //Nombre de boton P1
 1965              		.loc 1 267 0
 1966 0d9c FA79     		ldrb	r2, [r7, #7]	@ zero_extendqisi2
 1967 0d9e 0023     		movs	r3, #0
 1968 0da0 0093     		str	r3, [sp]
 1969 0da2 42F21013 		movw	r3, #8464
 1970 0da6 0193     		str	r3, [sp, #4]
 1971 0da8 5923     		movs	r3, #89
 1972 0daa 0293     		str	r3, [sp, #8]
 1973 0dac 1046     		mov	r0, r2
ARM GAS  C:\Users\RECEPC~1\AppData\Local\Temp\ccAuxgaT.s 			page 41


 1974 0dae 5021     		movs	r1, #80
 1975 0db0 0222     		movs	r2, #2
 1976 0db2 0C23     		movs	r3, #12
 1977 0db4 FFF7FEFF 		bl	write_LCD
 268:.\LCD.c       ****                         write_LCD(lcd,'2',2,13,0,0x2110,'Y');   //Nombre de boton P1
 1978              		.loc 1 268 0
 1979 0db8 FA79     		ldrb	r2, [r7, #7]	@ zero_extendqisi2
 1980 0dba 0023     		movs	r3, #0
 1981 0dbc 0093     		str	r3, [sp]
 1982 0dbe 42F21013 		movw	r3, #8464
 1983 0dc2 0193     		str	r3, [sp, #4]
 1984 0dc4 5923     		movs	r3, #89
 1985 0dc6 0293     		str	r3, [sp, #8]
 1986 0dc8 1046     		mov	r0, r2
 1987 0dca 3221     		movs	r1, #50
 1988 0dcc 0222     		movs	r2, #2
 1989 0dce 0D23     		movs	r3, #13
 1990 0dd0 FFF7FEFF 		bl	write_LCD
 269:.\LCD.c       ****                         write_LCD(lcd,symbols[0],4,2,1,0xD000,'Y');   //Simbolo de dinero
 1991              		.loc 1 269 0
 1992 0dd4 B14B     		ldr	r3, .L260
 1993 0dd6 1B78     		ldrb	r3, [r3]
 1994 0dd8 DAB2     		uxtb	r2, r3
 1995 0dda F979     		ldrb	r1, [r7, #7]	@ zero_extendqisi2
 1996 0ddc 0123     		movs	r3, #1
 1997 0dde 0093     		str	r3, [sp]
 1998 0de0 4FF45043 		mov	r3, #53248
 1999 0de4 0193     		str	r3, [sp, #4]
 2000 0de6 5923     		movs	r3, #89
 2001 0de8 0293     		str	r3, [sp, #8]
 2002 0dea 0846     		mov	r0, r1
 2003 0dec 1146     		mov	r1, r2
 2004 0dee 0422     		movs	r2, #4
 2005 0df0 0223     		movs	r3, #2
 2006 0df2 FFF7FEFF 		bl	write_LCD
 270:.\LCD.c       ****                     break;
 2007              		.loc 1 270 0
 2008 0df6 2DE0     		b	.L93
 2009              	.L97:
 271:.\LCD.c       ****                     
 272:.\LCD.c       ****                     case '3':
 273:.\LCD.c       ****                         write_LCD(lcd,'P',2,12,0,0x2110,'Y');   //Nombre de boton P1
 2010              		.loc 1 273 0
 2011 0df8 FA79     		ldrb	r2, [r7, #7]	@ zero_extendqisi2
 2012 0dfa 0023     		movs	r3, #0
 2013 0dfc 0093     		str	r3, [sp]
 2014 0dfe 42F21013 		movw	r3, #8464
 2015 0e02 0193     		str	r3, [sp, #4]
 2016 0e04 5923     		movs	r3, #89
 2017 0e06 0293     		str	r3, [sp, #8]
 2018 0e08 1046     		mov	r0, r2
 2019 0e0a 5021     		movs	r1, #80
 2020 0e0c 0222     		movs	r2, #2
 2021 0e0e 0C23     		movs	r3, #12
 2022 0e10 FFF7FEFF 		bl	write_LCD
 274:.\LCD.c       ****                         write_LCD(lcd,'3',2,13,0,0x2110,'Y');   //Nombre de boton P1
 2023              		.loc 1 274 0
ARM GAS  C:\Users\RECEPC~1\AppData\Local\Temp\ccAuxgaT.s 			page 42


 2024 0e14 FA79     		ldrb	r2, [r7, #7]	@ zero_extendqisi2
 2025 0e16 0023     		movs	r3, #0
 2026 0e18 0093     		str	r3, [sp]
 2027 0e1a 42F21013 		movw	r3, #8464
 2028 0e1e 0193     		str	r3, [sp, #4]
 2029 0e20 5923     		movs	r3, #89
 2030 0e22 0293     		str	r3, [sp, #8]
 2031 0e24 1046     		mov	r0, r2
 2032 0e26 3321     		movs	r1, #51
 2033 0e28 0222     		movs	r2, #2
 2034 0e2a 0D23     		movs	r3, #13
 2035 0e2c FFF7FEFF 		bl	write_LCD
 275:.\LCD.c       ****                         write_LCD(lcd,symbols[0],4,2,1,0xD000,'Y');   //Simbolo de dinero
 2036              		.loc 1 275 0
 2037 0e30 9A4B     		ldr	r3, .L260
 2038 0e32 1B78     		ldrb	r3, [r3]
 2039 0e34 DAB2     		uxtb	r2, r3
 2040 0e36 F979     		ldrb	r1, [r7, #7]	@ zero_extendqisi2
 2041 0e38 0123     		movs	r3, #1
 2042 0e3a 0093     		str	r3, [sp]
 2043 0e3c 4FF45043 		mov	r3, #53248
 2044 0e40 0193     		str	r3, [sp, #4]
 2045 0e42 5923     		movs	r3, #89
 2046 0e44 0293     		str	r3, [sp, #8]
 2047 0e46 0846     		mov	r0, r1
 2048 0e48 1146     		mov	r1, r2
 2049 0e4a 0422     		movs	r2, #4
 2050 0e4c 0223     		movs	r3, #2
 2051 0e4e FFF7FEFF 		bl	write_LCD
 276:.\LCD.c       ****                     break;
 2052              		.loc 1 276 0
 2053 0e52 00BF     		nop
 2054              	.L93:
 277:.\LCD.c       ****                 }
 278:.\LCD.c       ****                 flag=0;
 2055              		.loc 1 278 0
 2056 0e54 0023     		movs	r3, #0
 2057 0e56 7B77     		strb	r3, [r7, #29]
 279:.\LCD.c       ****                 for(x=1;x<=bufferLCD1.presetValue[1][0];x++){
 2058              		.loc 1 279 0
 2059 0e58 0123     		movs	r3, #1
 2060 0e5a FB77     		strb	r3, [r7, #31]
 2061 0e5c 26E0     		b	.L107
 2062              	.L110:
 280:.\LCD.c       ****                     if(bufferLCD1.presetValue[1][x]=='0' && flag==0){
 2063              		.loc 1 280 0
 2064 0e5e FB7F     		ldrb	r3, [r7, #31]	@ zero_extendqisi2
 2065 0e60 8F4A     		ldr	r2, .L260+4
 2066 0e62 1344     		add	r3, r3, r2
 2067 0e64 93F88830 		ldrb	r3, [r3, #136]	@ zero_extendqisi2
 2068 0e68 302B     		cmp	r3, #48
 2069 0e6a 03D1     		bne	.L108
 2070              		.loc 1 280 0 is_stmt 0 discriminator 1
 2071 0e6c 7B7F     		ldrb	r3, [r7, #29]	@ zero_extendqisi2
 2072 0e6e 002B     		cmp	r3, #0
 2073 0e70 00D1     		bne	.L108
 2074              		.loc 1 280 0
ARM GAS  C:\Users\RECEPC~1\AppData\Local\Temp\ccAuxgaT.s 			page 43


 2075 0e72 18E0     		b	.L109
 2076              	.L108:
 281:.\LCD.c       ****                     }else{
 282:.\LCD.c       ****                         write_LCD(lcd,bufferLCD1.presetValue[1][x],4,x+2,1,0x2110,'Y');
 2077              		.loc 1 282 0 is_stmt 1
 2078 0e74 FB7F     		ldrb	r3, [r7, #31]	@ zero_extendqisi2
 2079 0e76 8A4A     		ldr	r2, .L260+4
 2080 0e78 1344     		add	r3, r3, r2
 2081 0e7a 93F88820 		ldrb	r2, [r3, #136]	@ zero_extendqisi2
 2082 0e7e FB7F     		ldrb	r3, [r7, #31]	@ zero_extendqisi2
 2083 0e80 9BB2     		uxth	r3, r3
 2084 0e82 0233     		adds	r3, r3, #2
 2085 0e84 9CB2     		uxth	r4, r3
 2086 0e86 F979     		ldrb	r1, [r7, #7]	@ zero_extendqisi2
 2087 0e88 0123     		movs	r3, #1
 2088 0e8a 0093     		str	r3, [sp]
 2089 0e8c 42F21013 		movw	r3, #8464
 2090 0e90 0193     		str	r3, [sp, #4]
 2091 0e92 5923     		movs	r3, #89
 2092 0e94 0293     		str	r3, [sp, #8]
 2093 0e96 0846     		mov	r0, r1
 2094 0e98 1146     		mov	r1, r2
 2095 0e9a 0422     		movs	r2, #4
 2096 0e9c 2346     		mov	r3, r4
 2097 0e9e FFF7FEFF 		bl	write_LCD
 283:.\LCD.c       ****                         flag=1;
 2098              		.loc 1 283 0
 2099 0ea2 0123     		movs	r3, #1
 2100 0ea4 7B77     		strb	r3, [r7, #29]
 2101              	.L109:
 279:.\LCD.c       ****                     if(bufferLCD1.presetValue[1][x]=='0' && flag==0){
 2102              		.loc 1 279 0 discriminator 2
 2103 0ea6 FB7F     		ldrb	r3, [r7, #31]	@ zero_extendqisi2
 2104 0ea8 0133     		adds	r3, r3, #1
 2105 0eaa FB77     		strb	r3, [r7, #31]
 2106              	.L107:
 279:.\LCD.c       ****                     if(bufferLCD1.presetValue[1][x]=='0' && flag==0){
 2107              		.loc 1 279 0 is_stmt 0 discriminator 1
 2108 0eac 7C4B     		ldr	r3, .L260+4
 2109 0eae 93F88830 		ldrb	r3, [r3, #136]	@ zero_extendqisi2
 2110 0eb2 FA7F     		ldrb	r2, [r7, #31]	@ zero_extendqisi2
 2111 0eb4 9A42     		cmp	r2, r3
 2112 0eb6 D2D9     		bls	.L110
 284:.\LCD.c       ****                     }
 285:.\LCD.c       ****                 }
 286:.\LCD.c       ****             }else{
 287:.\LCD.c       ****                 switch (bufferLCD2.presetType[1]){
 288:.\LCD.c       ****                     case 'D':
 289:.\LCD.c       ****                         for(x=0;x<8;x++){
 290:.\LCD.c       ****                             write_LCD(lcd,button[14][x],2,x+12,0,0x2110,'Y');   //Nombre de boton D
 291:.\LCD.c       ****                         }
 292:.\LCD.c       ****                         write_LCD(lcd,symbols[0],4,2,1,0xD000,'Y');   //Simbolo de dinero
 293:.\LCD.c       ****                     break;
 294:.\LCD.c       ****                     
 295:.\LCD.c       ****                     case 'V':
 296:.\LCD.c       ****                         for(x=0;x<8;x++){
 297:.\LCD.c       ****                             write_LCD(lcd,button[15][x],2,x+12,0,0x2110,'Y');   //Nombre de boton V
ARM GAS  C:\Users\RECEPC~1\AppData\Local\Temp\ccAuxgaT.s 			page 44


 298:.\LCD.c       ****                         }
 299:.\LCD.c       ****                         write_LCD(lcd,symbols[1],4,2,1,0xD000,'Y');   //Simbolo de Volumen
 300:.\LCD.c       ****                     break;
 301:.\LCD.c       ****                         
 302:.\LCD.c       ****                     case 'F':
 303:.\LCD.c       ****                         for(x=0;x<8;x++){
 304:.\LCD.c       ****                             write_LCD(lcd,button[16][x],2,x+12,0,0x2110,'Y');   //Nombre de boton L
 305:.\LCD.c       ****                         }
 306:.\LCD.c       ****                         write_LCD(lcd,symbols[0],4,2,1,0xD000,'Y');   //Simbolo de dinero
 307:.\LCD.c       ****                     break;
 308:.\LCD.c       ****                     
 309:.\LCD.c       ****                     case '1':
 310:.\LCD.c       ****                         write_LCD(lcd,'P',2,12,0,0x2110,'Y');   //Nombre de boton P1
 311:.\LCD.c       ****                         write_LCD(lcd,'1',2,13,0,0x2110,'Y');   //Nombre de boton P1
 312:.\LCD.c       ****                         write_LCD(lcd,symbols[0],4,2,1,0xD000,'Y');   //Simbolo de dinero
 313:.\LCD.c       ****                     break;
 314:.\LCD.c       ****                     
 315:.\LCD.c       ****                     case '2':
 316:.\LCD.c       ****                         write_LCD(lcd,'P',2,12,0,0x2110,'Y');   //Nombre de boton P1
 317:.\LCD.c       ****                         write_LCD(lcd,'2',2,13,0,0x2110,'Y');   //Nombre de boton P1
 318:.\LCD.c       ****                         write_LCD(lcd,symbols[0],4,2,1,0xD000,'Y');   //Simbolo de dinero
 319:.\LCD.c       ****                     break;
 320:.\LCD.c       ****                     
 321:.\LCD.c       ****                     case '3':
 322:.\LCD.c       ****                         write_LCD(lcd,'P',2,12,0,0x2110,'Y');   //Nombre de boton P1
 323:.\LCD.c       ****                         write_LCD(lcd,'3',2,13,0,0x2110,'Y');   //Nombre de boton P1
 324:.\LCD.c       ****                         write_LCD(lcd,symbols[0],4,2,1,0xD000,'Y');   //Simbolo de dinero
 325:.\LCD.c       ****                     break;
 326:.\LCD.c       ****                 }
 327:.\LCD.c       ****                 flag=0;
 328:.\LCD.c       ****                 for(x=1;x<=bufferLCD2.presetValue[1][0];x++){
 329:.\LCD.c       ****                     if(bufferLCD2.presetValue[1][x]=='0' && flag==0){
 330:.\LCD.c       ****                     }else{
 331:.\LCD.c       ****                         write_LCD(lcd,bufferLCD2.presetValue[1][x],4,x+2,1,0x2110,'Y');
 332:.\LCD.c       ****                         flag=1;
 333:.\LCD.c       ****                     }
 334:.\LCD.c       ****                 }
 335:.\LCD.c       ****             }
 336:.\LCD.c       ****         break;
 2113              		.loc 1 336 0 is_stmt 1
 2114 0eb8 02F053BA 		b	.L16
 2115              	.L92:
 287:.\LCD.c       ****                     case 'D':
 2116              		.loc 1 287 0
 2117 0ebc 794B     		ldr	r3, .L260+8
 2118 0ebe 93F87D30 		ldrb	r3, [r3, #125]	@ zero_extendqisi2
 2119 0ec2 313B     		subs	r3, r3, #49
 2120 0ec4 252B     		cmp	r3, #37
 2121 0ec6 00F27B81 		bhi	.L112
 2122 0eca 01A2     		adr	r2, .L114
 2123 0ecc 52F823F0 		ldr	pc, [r2, r3, lsl #2]
 2124              		.p2align 2
 2125              	.L114:
 2126 0ed0 AD100000 		.word	.L113+1
 2127 0ed4 09110000 		.word	.L115+1
 2128 0ed8 65110000 		.word	.L116+1
 2129 0edc C1110000 		.word	.L112+1
ARM GAS  C:\Users\RECEPC~1\AppData\Local\Temp\ccAuxgaT.s 			page 45


 2130 0ee0 C1110000 		.word	.L112+1
 2131 0ee4 C1110000 		.word	.L112+1
 2132 0ee8 C1110000 		.word	.L112+1
 2133 0eec C1110000 		.word	.L112+1
 2134 0ef0 C1110000 		.word	.L112+1
 2135 0ef4 C1110000 		.word	.L112+1
 2136 0ef8 C1110000 		.word	.L112+1
 2137 0efc C1110000 		.word	.L112+1
 2138 0f00 C1110000 		.word	.L112+1
 2139 0f04 C1110000 		.word	.L112+1
 2140 0f08 C1110000 		.word	.L112+1
 2141 0f0c C1110000 		.word	.L112+1
 2142 0f10 C1110000 		.word	.L112+1
 2143 0f14 C1110000 		.word	.L112+1
 2144 0f18 C1110000 		.word	.L112+1
 2145 0f1c 690F0000 		.word	.L117+1
 2146 0f20 C1110000 		.word	.L112+1
 2147 0f24 35100000 		.word	.L118+1
 2148 0f28 C1110000 		.word	.L112+1
 2149 0f2c C1110000 		.word	.L112+1
 2150 0f30 C1110000 		.word	.L112+1
 2151 0f34 C1110000 		.word	.L112+1
 2152 0f38 C1110000 		.word	.L112+1
 2153 0f3c C1110000 		.word	.L112+1
 2154 0f40 C1110000 		.word	.L112+1
 2155 0f44 C1110000 		.word	.L112+1
 2156 0f48 C1110000 		.word	.L112+1
 2157 0f4c C1110000 		.word	.L112+1
 2158 0f50 C1110000 		.word	.L112+1
 2159 0f54 C1110000 		.word	.L112+1
 2160 0f58 C1110000 		.word	.L112+1
 2161 0f5c C1110000 		.word	.L112+1
 2162 0f60 C1110000 		.word	.L112+1
 2163 0f64 CF0F0000 		.word	.L119+1
 2164              		.p2align 1
 2165              	.L117:
 289:.\LCD.c       ****                             write_LCD(lcd,button[14][x],2,x+12,0,0x2110,'Y');   //Nombre de boton D
 2166              		.loc 1 289 0
 2167 0f68 0023     		movs	r3, #0
 2168 0f6a FB77     		strb	r3, [r7, #31]
 2169 0f6c 1AE0     		b	.L120
 2170              	.L121:
 290:.\LCD.c       ****                         }
 2171              		.loc 1 290 0 discriminator 3
 2172 0f6e FB7F     		ldrb	r3, [r7, #31]	@ zero_extendqisi2
 2173 0f70 4D4A     		ldr	r2, .L260+12
 2174 0f72 1344     		add	r3, r3, r2
 2175 0f74 93F87030 		ldrb	r3, [r3, #112]
 2176 0f78 DAB2     		uxtb	r2, r3
 2177 0f7a FB7F     		ldrb	r3, [r7, #31]	@ zero_extendqisi2
 2178 0f7c 9BB2     		uxth	r3, r3
 2179 0f7e 0C33     		adds	r3, r3, #12
 2180 0f80 9CB2     		uxth	r4, r3
 2181 0f82 F979     		ldrb	r1, [r7, #7]	@ zero_extendqisi2
 2182 0f84 0023     		movs	r3, #0
 2183 0f86 0093     		str	r3, [sp]
 2184 0f88 42F21013 		movw	r3, #8464
ARM GAS  C:\Users\RECEPC~1\AppData\Local\Temp\ccAuxgaT.s 			page 46


 2185 0f8c 0193     		str	r3, [sp, #4]
 2186 0f8e 5923     		movs	r3, #89
 2187 0f90 0293     		str	r3, [sp, #8]
 2188 0f92 0846     		mov	r0, r1
 2189 0f94 1146     		mov	r1, r2
 2190 0f96 0222     		movs	r2, #2
 2191 0f98 2346     		mov	r3, r4
 2192 0f9a FFF7FEFF 		bl	write_LCD
 289:.\LCD.c       ****                             write_LCD(lcd,button[14][x],2,x+12,0,0x2110,'Y');   //Nombre de boton D
 2193              		.loc 1 289 0 discriminator 3
 2194 0f9e FB7F     		ldrb	r3, [r7, #31]	@ zero_extendqisi2
 2195 0fa0 0133     		adds	r3, r3, #1
 2196 0fa2 FB77     		strb	r3, [r7, #31]
 2197              	.L120:
 289:.\LCD.c       ****                             write_LCD(lcd,button[14][x],2,x+12,0,0x2110,'Y');   //Nombre de boton D
 2198              		.loc 1 289 0 is_stmt 0 discriminator 1
 2199 0fa4 FB7F     		ldrb	r3, [r7, #31]	@ zero_extendqisi2
 2200 0fa6 072B     		cmp	r3, #7
 2201 0fa8 E1D9     		bls	.L121
 292:.\LCD.c       ****                     break;
 2202              		.loc 1 292 0 is_stmt 1
 2203 0faa 3C4B     		ldr	r3, .L260
 2204 0fac 1B78     		ldrb	r3, [r3]
 2205 0fae DAB2     		uxtb	r2, r3
 2206 0fb0 F979     		ldrb	r1, [r7, #7]	@ zero_extendqisi2
 2207 0fb2 0123     		movs	r3, #1
 2208 0fb4 0093     		str	r3, [sp]
 2209 0fb6 4FF45043 		mov	r3, #53248
 2210 0fba 0193     		str	r3, [sp, #4]
 2211 0fbc 5923     		movs	r3, #89
 2212 0fbe 0293     		str	r3, [sp, #8]
 2213 0fc0 0846     		mov	r0, r1
 2214 0fc2 1146     		mov	r1, r2
 2215 0fc4 0422     		movs	r2, #4
 2216 0fc6 0223     		movs	r3, #2
 2217 0fc8 FFF7FEFF 		bl	write_LCD
 293:.\LCD.c       ****                     
 2218              		.loc 1 293 0
 2219 0fcc F8E0     		b	.L112
 2220              	.L119:
 296:.\LCD.c       ****                             write_LCD(lcd,button[15][x],2,x+12,0,0x2110,'Y');   //Nombre de boton V
 2221              		.loc 1 296 0
 2222 0fce 0023     		movs	r3, #0
 2223 0fd0 FB77     		strb	r3, [r7, #31]
 2224 0fd2 1AE0     		b	.L122
 2225              	.L123:
 297:.\LCD.c       ****                         }
 2226              		.loc 1 297 0 discriminator 3
 2227 0fd4 FB7F     		ldrb	r3, [r7, #31]	@ zero_extendqisi2
 2228 0fd6 344A     		ldr	r2, .L260+12
 2229 0fd8 1344     		add	r3, r3, r2
 2230 0fda 93F87830 		ldrb	r3, [r3, #120]
 2231 0fde DAB2     		uxtb	r2, r3
 2232 0fe0 FB7F     		ldrb	r3, [r7, #31]	@ zero_extendqisi2
 2233 0fe2 9BB2     		uxth	r3, r3
 2234 0fe4 0C33     		adds	r3, r3, #12
 2235 0fe6 9CB2     		uxth	r4, r3
ARM GAS  C:\Users\RECEPC~1\AppData\Local\Temp\ccAuxgaT.s 			page 47


 2236 0fe8 F979     		ldrb	r1, [r7, #7]	@ zero_extendqisi2
 2237 0fea 0023     		movs	r3, #0
 2238 0fec 0093     		str	r3, [sp]
 2239 0fee 42F21013 		movw	r3, #8464
 2240 0ff2 0193     		str	r3, [sp, #4]
 2241 0ff4 5923     		movs	r3, #89
 2242 0ff6 0293     		str	r3, [sp, #8]
 2243 0ff8 0846     		mov	r0, r1
 2244 0ffa 1146     		mov	r1, r2
 2245 0ffc 0222     		movs	r2, #2
 2246 0ffe 2346     		mov	r3, r4
 2247 1000 FFF7FEFF 		bl	write_LCD
 296:.\LCD.c       ****                             write_LCD(lcd,button[15][x],2,x+12,0,0x2110,'Y');   //Nombre de boton V
 2248              		.loc 1 296 0 discriminator 3
 2249 1004 FB7F     		ldrb	r3, [r7, #31]	@ zero_extendqisi2
 2250 1006 0133     		adds	r3, r3, #1
 2251 1008 FB77     		strb	r3, [r7, #31]
 2252              	.L122:
 296:.\LCD.c       ****                             write_LCD(lcd,button[15][x],2,x+12,0,0x2110,'Y');   //Nombre de boton V
 2253              		.loc 1 296 0 is_stmt 0 discriminator 1
 2254 100a FB7F     		ldrb	r3, [r7, #31]	@ zero_extendqisi2
 2255 100c 072B     		cmp	r3, #7
 2256 100e E1D9     		bls	.L123
 299:.\LCD.c       ****                     break;
 2257              		.loc 1 299 0 is_stmt 1
 2258 1010 224B     		ldr	r3, .L260
 2259 1012 5B78     		ldrb	r3, [r3, #1]
 2260 1014 DAB2     		uxtb	r2, r3
 2261 1016 F979     		ldrb	r1, [r7, #7]	@ zero_extendqisi2
 2262 1018 0123     		movs	r3, #1
 2263 101a 0093     		str	r3, [sp]
 2264 101c 4FF45043 		mov	r3, #53248
 2265 1020 0193     		str	r3, [sp, #4]
 2266 1022 5923     		movs	r3, #89
 2267 1024 0293     		str	r3, [sp, #8]
 2268 1026 0846     		mov	r0, r1
 2269 1028 1146     		mov	r1, r2
 2270 102a 0422     		movs	r2, #4
 2271 102c 0223     		movs	r3, #2
 2272 102e FFF7FEFF 		bl	write_LCD
 300:.\LCD.c       ****                         
 2273              		.loc 1 300 0
 2274 1032 C5E0     		b	.L112
 2275              	.L118:
 303:.\LCD.c       ****                             write_LCD(lcd,button[16][x],2,x+12,0,0x2110,'Y');   //Nombre de boton L
 2276              		.loc 1 303 0
 2277 1034 0023     		movs	r3, #0
 2278 1036 FB77     		strb	r3, [r7, #31]
 2279 1038 1AE0     		b	.L124
 2280              	.L125:
 304:.\LCD.c       ****                         }
 2281              		.loc 1 304 0 discriminator 3
 2282 103a FB7F     		ldrb	r3, [r7, #31]	@ zero_extendqisi2
 2283 103c 1A4A     		ldr	r2, .L260+12
 2284 103e 1344     		add	r3, r3, r2
 2285 1040 93F88030 		ldrb	r3, [r3, #128]
 2286 1044 DAB2     		uxtb	r2, r3
ARM GAS  C:\Users\RECEPC~1\AppData\Local\Temp\ccAuxgaT.s 			page 48


 2287 1046 FB7F     		ldrb	r3, [r7, #31]	@ zero_extendqisi2
 2288 1048 9BB2     		uxth	r3, r3
 2289 104a 0C33     		adds	r3, r3, #12
 2290 104c 9CB2     		uxth	r4, r3
 2291 104e F979     		ldrb	r1, [r7, #7]	@ zero_extendqisi2
 2292 1050 0023     		movs	r3, #0
 2293 1052 0093     		str	r3, [sp]
 2294 1054 42F21013 		movw	r3, #8464
 2295 1058 0193     		str	r3, [sp, #4]
 2296 105a 5923     		movs	r3, #89
 2297 105c 0293     		str	r3, [sp, #8]
 2298 105e 0846     		mov	r0, r1
 2299 1060 1146     		mov	r1, r2
 2300 1062 0222     		movs	r2, #2
 2301 1064 2346     		mov	r3, r4
 2302 1066 FFF7FEFF 		bl	write_LCD
 303:.\LCD.c       ****                             write_LCD(lcd,button[16][x],2,x+12,0,0x2110,'Y');   //Nombre de boton L
 2303              		.loc 1 303 0 discriminator 3
 2304 106a FB7F     		ldrb	r3, [r7, #31]	@ zero_extendqisi2
 2305 106c 0133     		adds	r3, r3, #1
 2306 106e FB77     		strb	r3, [r7, #31]
 2307              	.L124:
 303:.\LCD.c       ****                             write_LCD(lcd,button[16][x],2,x+12,0,0x2110,'Y');   //Nombre de boton L
 2308              		.loc 1 303 0 is_stmt 0 discriminator 1
 2309 1070 FB7F     		ldrb	r3, [r7, #31]	@ zero_extendqisi2
 2310 1072 072B     		cmp	r3, #7
 2311 1074 E1D9     		bls	.L125
 306:.\LCD.c       ****                     break;
 2312              		.loc 1 306 0 is_stmt 1
 2313 1076 094B     		ldr	r3, .L260
 2314 1078 1B78     		ldrb	r3, [r3]
 2315 107a DAB2     		uxtb	r2, r3
 2316 107c F979     		ldrb	r1, [r7, #7]	@ zero_extendqisi2
 2317 107e 0123     		movs	r3, #1
 2318 1080 0093     		str	r3, [sp]
 2319 1082 4FF45043 		mov	r3, #53248
 2320 1086 0193     		str	r3, [sp, #4]
 2321 1088 5923     		movs	r3, #89
 2322 108a 0293     		str	r3, [sp, #8]
 2323 108c 0846     		mov	r0, r1
 2324 108e 1146     		mov	r1, r2
 2325 1090 0422     		movs	r2, #4
 2326 1092 0223     		movs	r3, #2
 2327 1094 FFF7FEFF 		bl	write_LCD
 307:.\LCD.c       ****                     
 2328              		.loc 1 307 0
 2329 1098 92E0     		b	.L112
 2330              	.L261:
 2331 109a 00BF     		.align	2
 2332              	.L260:
 2333 109c 00000000 		.word	symbols
 2334 10a0 00000000 		.word	bufferLCD1
 2335 10a4 00000000 		.word	bufferLCD2
 2336 10a8 00000000 		.word	button
 2337              	.L113:
 310:.\LCD.c       ****                         write_LCD(lcd,'1',2,13,0,0x2110,'Y');   //Nombre de boton P1
 2338              		.loc 1 310 0
ARM GAS  C:\Users\RECEPC~1\AppData\Local\Temp\ccAuxgaT.s 			page 49


 2339 10ac FA79     		ldrb	r2, [r7, #7]	@ zero_extendqisi2
 2340 10ae 0023     		movs	r3, #0
 2341 10b0 0093     		str	r3, [sp]
 2342 10b2 42F21013 		movw	r3, #8464
 2343 10b6 0193     		str	r3, [sp, #4]
 2344 10b8 5923     		movs	r3, #89
 2345 10ba 0293     		str	r3, [sp, #8]
 2346 10bc 1046     		mov	r0, r2
 2347 10be 5021     		movs	r1, #80
 2348 10c0 0222     		movs	r2, #2
 2349 10c2 0C23     		movs	r3, #12
 2350 10c4 FFF7FEFF 		bl	write_LCD
 311:.\LCD.c       ****                         write_LCD(lcd,symbols[0],4,2,1,0xD000,'Y');   //Simbolo de dinero
 2351              		.loc 1 311 0
 2352 10c8 FA79     		ldrb	r2, [r7, #7]	@ zero_extendqisi2
 2353 10ca 0023     		movs	r3, #0
 2354 10cc 0093     		str	r3, [sp]
 2355 10ce 42F21013 		movw	r3, #8464
 2356 10d2 0193     		str	r3, [sp, #4]
 2357 10d4 5923     		movs	r3, #89
 2358 10d6 0293     		str	r3, [sp, #8]
 2359 10d8 1046     		mov	r0, r2
 2360 10da 3121     		movs	r1, #49
 2361 10dc 0222     		movs	r2, #2
 2362 10de 0D23     		movs	r3, #13
 2363 10e0 FFF7FEFF 		bl	write_LCD
 312:.\LCD.c       ****                     break;
 2364              		.loc 1 312 0
 2365 10e4 B24B     		ldr	r3, .L262
 2366 10e6 1B78     		ldrb	r3, [r3]
 2367 10e8 DAB2     		uxtb	r2, r3
 2368 10ea F979     		ldrb	r1, [r7, #7]	@ zero_extendqisi2
 2369 10ec 0123     		movs	r3, #1
 2370 10ee 0093     		str	r3, [sp]
 2371 10f0 4FF45043 		mov	r3, #53248
 2372 10f4 0193     		str	r3, [sp, #4]
 2373 10f6 5923     		movs	r3, #89
 2374 10f8 0293     		str	r3, [sp, #8]
 2375 10fa 0846     		mov	r0, r1
 2376 10fc 1146     		mov	r1, r2
 2377 10fe 0422     		movs	r2, #4
 2378 1100 0223     		movs	r3, #2
 2379 1102 FFF7FEFF 		bl	write_LCD
 313:.\LCD.c       ****                     
 2380              		.loc 1 313 0
 2381 1106 5BE0     		b	.L112
 2382              	.L115:
 316:.\LCD.c       ****                         write_LCD(lcd,'2',2,13,0,0x2110,'Y');   //Nombre de boton P1
 2383              		.loc 1 316 0
 2384 1108 FA79     		ldrb	r2, [r7, #7]	@ zero_extendqisi2
 2385 110a 0023     		movs	r3, #0
 2386 110c 0093     		str	r3, [sp]
 2387 110e 42F21013 		movw	r3, #8464
 2388 1112 0193     		str	r3, [sp, #4]
 2389 1114 5923     		movs	r3, #89
 2390 1116 0293     		str	r3, [sp, #8]
 2391 1118 1046     		mov	r0, r2
ARM GAS  C:\Users\RECEPC~1\AppData\Local\Temp\ccAuxgaT.s 			page 50


 2392 111a 5021     		movs	r1, #80
 2393 111c 0222     		movs	r2, #2
 2394 111e 0C23     		movs	r3, #12
 2395 1120 FFF7FEFF 		bl	write_LCD
 317:.\LCD.c       ****                         write_LCD(lcd,symbols[0],4,2,1,0xD000,'Y');   //Simbolo de dinero
 2396              		.loc 1 317 0
 2397 1124 FA79     		ldrb	r2, [r7, #7]	@ zero_extendqisi2
 2398 1126 0023     		movs	r3, #0
 2399 1128 0093     		str	r3, [sp]
 2400 112a 42F21013 		movw	r3, #8464
 2401 112e 0193     		str	r3, [sp, #4]
 2402 1130 5923     		movs	r3, #89
 2403 1132 0293     		str	r3, [sp, #8]
 2404 1134 1046     		mov	r0, r2
 2405 1136 3221     		movs	r1, #50
 2406 1138 0222     		movs	r2, #2
 2407 113a 0D23     		movs	r3, #13
 2408 113c FFF7FEFF 		bl	write_LCD
 318:.\LCD.c       ****                     break;
 2409              		.loc 1 318 0
 2410 1140 9B4B     		ldr	r3, .L262
 2411 1142 1B78     		ldrb	r3, [r3]
 2412 1144 DAB2     		uxtb	r2, r3
 2413 1146 F979     		ldrb	r1, [r7, #7]	@ zero_extendqisi2
 2414 1148 0123     		movs	r3, #1
 2415 114a 0093     		str	r3, [sp]
 2416 114c 4FF45043 		mov	r3, #53248
 2417 1150 0193     		str	r3, [sp, #4]
 2418 1152 5923     		movs	r3, #89
 2419 1154 0293     		str	r3, [sp, #8]
 2420 1156 0846     		mov	r0, r1
 2421 1158 1146     		mov	r1, r2
 2422 115a 0422     		movs	r2, #4
 2423 115c 0223     		movs	r3, #2
 2424 115e FFF7FEFF 		bl	write_LCD
 319:.\LCD.c       ****                     
 2425              		.loc 1 319 0
 2426 1162 2DE0     		b	.L112
 2427              	.L116:
 322:.\LCD.c       ****                         write_LCD(lcd,'3',2,13,0,0x2110,'Y');   //Nombre de boton P1
 2428              		.loc 1 322 0
 2429 1164 FA79     		ldrb	r2, [r7, #7]	@ zero_extendqisi2
 2430 1166 0023     		movs	r3, #0
 2431 1168 0093     		str	r3, [sp]
 2432 116a 42F21013 		movw	r3, #8464
 2433 116e 0193     		str	r3, [sp, #4]
 2434 1170 5923     		movs	r3, #89
 2435 1172 0293     		str	r3, [sp, #8]
 2436 1174 1046     		mov	r0, r2
 2437 1176 5021     		movs	r1, #80
 2438 1178 0222     		movs	r2, #2
 2439 117a 0C23     		movs	r3, #12
 2440 117c FFF7FEFF 		bl	write_LCD
 323:.\LCD.c       ****                         write_LCD(lcd,symbols[0],4,2,1,0xD000,'Y');   //Simbolo de dinero
 2441              		.loc 1 323 0
 2442 1180 FA79     		ldrb	r2, [r7, #7]	@ zero_extendqisi2
 2443 1182 0023     		movs	r3, #0
ARM GAS  C:\Users\RECEPC~1\AppData\Local\Temp\ccAuxgaT.s 			page 51


 2444 1184 0093     		str	r3, [sp]
 2445 1186 42F21013 		movw	r3, #8464
 2446 118a 0193     		str	r3, [sp, #4]
 2447 118c 5923     		movs	r3, #89
 2448 118e 0293     		str	r3, [sp, #8]
 2449 1190 1046     		mov	r0, r2
 2450 1192 3321     		movs	r1, #51
 2451 1194 0222     		movs	r2, #2
 2452 1196 0D23     		movs	r3, #13
 2453 1198 FFF7FEFF 		bl	write_LCD
 324:.\LCD.c       ****                     break;
 2454              		.loc 1 324 0
 2455 119c 844B     		ldr	r3, .L262
 2456 119e 1B78     		ldrb	r3, [r3]
 2457 11a0 DAB2     		uxtb	r2, r3
 2458 11a2 F979     		ldrb	r1, [r7, #7]	@ zero_extendqisi2
 2459 11a4 0123     		movs	r3, #1
 2460 11a6 0093     		str	r3, [sp]
 2461 11a8 4FF45043 		mov	r3, #53248
 2462 11ac 0193     		str	r3, [sp, #4]
 2463 11ae 5923     		movs	r3, #89
 2464 11b0 0293     		str	r3, [sp, #8]
 2465 11b2 0846     		mov	r0, r1
 2466 11b4 1146     		mov	r1, r2
 2467 11b6 0422     		movs	r2, #4
 2468 11b8 0223     		movs	r3, #2
 2469 11ba FFF7FEFF 		bl	write_LCD
 325:.\LCD.c       ****                 }
 2470              		.loc 1 325 0
 2471 11be 00BF     		nop
 2472              	.L112:
 327:.\LCD.c       ****                 for(x=1;x<=bufferLCD2.presetValue[1][0];x++){
 2473              		.loc 1 327 0
 2474 11c0 0023     		movs	r3, #0
 2475 11c2 7B77     		strb	r3, [r7, #29]
 328:.\LCD.c       ****                     if(bufferLCD2.presetValue[1][x]=='0' && flag==0){
 2476              		.loc 1 328 0
 2477 11c4 0123     		movs	r3, #1
 2478 11c6 FB77     		strb	r3, [r7, #31]
 2479 11c8 26E0     		b	.L126
 2480              	.L129:
 329:.\LCD.c       ****                     }else{
 2481              		.loc 1 329 0
 2482 11ca FB7F     		ldrb	r3, [r7, #31]	@ zero_extendqisi2
 2483 11cc 794A     		ldr	r2, .L262+4
 2484 11ce 1344     		add	r3, r3, r2
 2485 11d0 93F88830 		ldrb	r3, [r3, #136]	@ zero_extendqisi2
 2486 11d4 302B     		cmp	r3, #48
 2487 11d6 03D1     		bne	.L127
 329:.\LCD.c       ****                     }else{
 2488              		.loc 1 329 0 is_stmt 0 discriminator 1
 2489 11d8 7B7F     		ldrb	r3, [r7, #29]	@ zero_extendqisi2
 2490 11da 002B     		cmp	r3, #0
 2491 11dc 00D1     		bne	.L127
 329:.\LCD.c       ****                     }else{
 2492              		.loc 1 329 0
 2493 11de 18E0     		b	.L128
ARM GAS  C:\Users\RECEPC~1\AppData\Local\Temp\ccAuxgaT.s 			page 52


 2494              	.L127:
 331:.\LCD.c       ****                         flag=1;
 2495              		.loc 1 331 0 is_stmt 1
 2496 11e0 FB7F     		ldrb	r3, [r7, #31]	@ zero_extendqisi2
 2497 11e2 744A     		ldr	r2, .L262+4
 2498 11e4 1344     		add	r3, r3, r2
 2499 11e6 93F88820 		ldrb	r2, [r3, #136]	@ zero_extendqisi2
 2500 11ea FB7F     		ldrb	r3, [r7, #31]	@ zero_extendqisi2
 2501 11ec 9BB2     		uxth	r3, r3
 2502 11ee 0233     		adds	r3, r3, #2
 2503 11f0 9CB2     		uxth	r4, r3
 2504 11f2 F979     		ldrb	r1, [r7, #7]	@ zero_extendqisi2
 2505 11f4 0123     		movs	r3, #1
 2506 11f6 0093     		str	r3, [sp]
 2507 11f8 42F21013 		movw	r3, #8464
 2508 11fc 0193     		str	r3, [sp, #4]
 2509 11fe 5923     		movs	r3, #89
 2510 1200 0293     		str	r3, [sp, #8]
 2511 1202 0846     		mov	r0, r1
 2512 1204 1146     		mov	r1, r2
 2513 1206 0422     		movs	r2, #4
 2514 1208 2346     		mov	r3, r4
 2515 120a FFF7FEFF 		bl	write_LCD
 332:.\LCD.c       ****                     }
 2516              		.loc 1 332 0
 2517 120e 0123     		movs	r3, #1
 2518 1210 7B77     		strb	r3, [r7, #29]
 2519              	.L128:
 328:.\LCD.c       ****                     if(bufferLCD2.presetValue[1][x]=='0' && flag==0){
 2520              		.loc 1 328 0 discriminator 2
 2521 1212 FB7F     		ldrb	r3, [r7, #31]	@ zero_extendqisi2
 2522 1214 0133     		adds	r3, r3, #1
 2523 1216 FB77     		strb	r3, [r7, #31]
 2524              	.L126:
 328:.\LCD.c       ****                     if(bufferLCD2.presetValue[1][x]=='0' && flag==0){
 2525              		.loc 1 328 0 is_stmt 0 discriminator 1
 2526 1218 664B     		ldr	r3, .L262+4
 2527 121a 93F88830 		ldrb	r3, [r3, #136]	@ zero_extendqisi2
 2528 121e FA7F     		ldrb	r2, [r7, #31]	@ zero_extendqisi2
 2529 1220 9A42     		cmp	r2, r3
 2530 1222 D2D9     		bls	.L129
 2531              		.loc 1 336 0 is_stmt 1 discriminator 11
 2532 1224 02F09DB8 		b	.L16
 2533              	.L59:
 337:.\LCD.c       ****             
 338:.\LCD.c       ****         case 't'://Tanqueando con datos
 339:.\LCD.c       ****             for(x=0;x<8;x++){
 2534              		.loc 1 339 0
 2535 1228 0023     		movs	r3, #0
 2536 122a FB77     		strb	r3, [r7, #31]
 2537 122c 92E0     		b	.L130
 2538              	.L131:
 340:.\LCD.c       ****                 write_LCD(lcd,button[71][x],2,x+31,0,0xD000,'Y');   //Nombre de boton preset
 2539              		.loc 1 340 0 discriminator 3
 2540 122e FB7F     		ldrb	r3, [r7, #31]	@ zero_extendqisi2
 2541 1230 614A     		ldr	r2, .L262+8
 2542 1232 1344     		add	r3, r3, r2
ARM GAS  C:\Users\RECEPC~1\AppData\Local\Temp\ccAuxgaT.s 			page 53


 2543 1234 93F83832 		ldrb	r3, [r3, #568]
 2544 1238 DAB2     		uxtb	r2, r3
 2545 123a FB7F     		ldrb	r3, [r7, #31]	@ zero_extendqisi2
 2546 123c 9BB2     		uxth	r3, r3
 2547 123e 1F33     		adds	r3, r3, #31
 2548 1240 9CB2     		uxth	r4, r3
 2549 1242 F979     		ldrb	r1, [r7, #7]	@ zero_extendqisi2
 2550 1244 0023     		movs	r3, #0
 2551 1246 0093     		str	r3, [sp]
 2552 1248 4FF45043 		mov	r3, #53248
 2553 124c 0193     		str	r3, [sp, #4]
 2554 124e 5923     		movs	r3, #89
 2555 1250 0293     		str	r3, [sp, #8]
 2556 1252 0846     		mov	r0, r1
 2557 1254 1146     		mov	r1, r2
 2558 1256 0222     		movs	r2, #2
 2559 1258 2346     		mov	r3, r4
 2560 125a FFF7FEFF 		bl	write_LCD
 341:.\LCD.c       ****                 write_LCD(lcd,button[36][x],1,x+1,2,0x2110,'Y');   //Nombre de imagen Tanqueando Re
 2561              		.loc 1 341 0 discriminator 3
 2562 125e FB7F     		ldrb	r3, [r7, #31]	@ zero_extendqisi2
 2563 1260 554A     		ldr	r2, .L262+8
 2564 1262 1344     		add	r3, r3, r2
 2565 1264 93F82031 		ldrb	r3, [r3, #288]
 2566 1268 DAB2     		uxtb	r2, r3
 2567 126a FB7F     		ldrb	r3, [r7, #31]	@ zero_extendqisi2
 2568 126c 9BB2     		uxth	r3, r3
 2569 126e 0133     		adds	r3, r3, #1
 2570 1270 9CB2     		uxth	r4, r3
 2571 1272 F979     		ldrb	r1, [r7, #7]	@ zero_extendqisi2
 2572 1274 0223     		movs	r3, #2
 2573 1276 0093     		str	r3, [sp]
 2574 1278 42F21013 		movw	r3, #8464
 2575 127c 0193     		str	r3, [sp, #4]
 2576 127e 5923     		movs	r3, #89
 2577 1280 0293     		str	r3, [sp, #8]
 2578 1282 0846     		mov	r0, r1
 2579 1284 1146     		mov	r1, r2
 2580 1286 0122     		movs	r2, #1
 2581 1288 2346     		mov	r3, r4
 2582 128a FFF7FEFF 		bl	write_LCD
 342:.\LCD.c       ****                 write_LCD(lcd,button[37][x],5,x+1,2,0x2110,'Y');   //Nombre de imagen Tanqueando Re
 2583              		.loc 1 342 0 discriminator 3
 2584 128e FB7F     		ldrb	r3, [r7, #31]	@ zero_extendqisi2
 2585 1290 494A     		ldr	r2, .L262+8
 2586 1292 1344     		add	r3, r3, r2
 2587 1294 93F82831 		ldrb	r3, [r3, #296]
 2588 1298 DAB2     		uxtb	r2, r3
 2589 129a FB7F     		ldrb	r3, [r7, #31]	@ zero_extendqisi2
 2590 129c 9BB2     		uxth	r3, r3
 2591 129e 0133     		adds	r3, r3, #1
 2592 12a0 9CB2     		uxth	r4, r3
 2593 12a2 F979     		ldrb	r1, [r7, #7]	@ zero_extendqisi2
 2594 12a4 0223     		movs	r3, #2
 2595 12a6 0093     		str	r3, [sp]
 2596 12a8 42F21013 		movw	r3, #8464
 2597 12ac 0193     		str	r3, [sp, #4]
ARM GAS  C:\Users\RECEPC~1\AppData\Local\Temp\ccAuxgaT.s 			page 54


 2598 12ae 5923     		movs	r3, #89
 2599 12b0 0293     		str	r3, [sp, #8]
 2600 12b2 0846     		mov	r0, r1
 2601 12b4 1146     		mov	r1, r2
 2602 12b6 0522     		movs	r2, #5
 2603 12b8 2346     		mov	r3, r4
 2604 12ba FFF7FEFF 		bl	write_LCD
 343:.\LCD.c       ****                 write_LCD(lcd,button[39][x],12,x+3,1,0xD000,'Y');   //Nombre de imagen Teclado Plac
 2605              		.loc 1 343 0 discriminator 3
 2606 12be FB7F     		ldrb	r3, [r7, #31]	@ zero_extendqisi2
 2607 12c0 3D4A     		ldr	r2, .L262+8
 2608 12c2 1344     		add	r3, r3, r2
 2609 12c4 93F83831 		ldrb	r3, [r3, #312]
 2610 12c8 DAB2     		uxtb	r2, r3
 2611 12ca FB7F     		ldrb	r3, [r7, #31]	@ zero_extendqisi2
 2612 12cc 9BB2     		uxth	r3, r3
 2613 12ce 0333     		adds	r3, r3, #3
 2614 12d0 9CB2     		uxth	r4, r3
 2615 12d2 F979     		ldrb	r1, [r7, #7]	@ zero_extendqisi2
 2616 12d4 0123     		movs	r3, #1
 2617 12d6 0093     		str	r3, [sp]
 2618 12d8 4FF45043 		mov	r3, #53248
 2619 12dc 0193     		str	r3, [sp, #4]
 2620 12de 5923     		movs	r3, #89
 2621 12e0 0293     		str	r3, [sp, #8]
 2622 12e2 0846     		mov	r0, r1
 2623 12e4 1146     		mov	r1, r2
 2624 12e6 0C22     		movs	r2, #12
 2625 12e8 2346     		mov	r3, r4
 2626 12ea FFF7FEFF 		bl	write_LCD
 344:.\LCD.c       ****                 write_LCD(lcd,button[41][x],20,x+3,1,0xD000,'Y');   //Nombre de imagen Teclado Kilo
 2627              		.loc 1 344 0 discriminator 3
 2628 12ee FB7F     		ldrb	r3, [r7, #31]	@ zero_extendqisi2
 2629 12f0 314A     		ldr	r2, .L262+8
 2630 12f2 1344     		add	r3, r3, r2
 2631 12f4 93F84831 		ldrb	r3, [r3, #328]
 2632 12f8 DAB2     		uxtb	r2, r3
 2633 12fa FB7F     		ldrb	r3, [r7, #31]	@ zero_extendqisi2
 2634 12fc 9BB2     		uxth	r3, r3
 2635 12fe 0333     		adds	r3, r3, #3
 2636 1300 9CB2     		uxth	r4, r3
 2637 1302 F979     		ldrb	r1, [r7, #7]	@ zero_extendqisi2
 2638 1304 0123     		movs	r3, #1
 2639 1306 0093     		str	r3, [sp]
 2640 1308 4FF45043 		mov	r3, #53248
 2641 130c 0193     		str	r3, [sp, #4]
 2642 130e 5923     		movs	r3, #89
 2643 1310 0293     		str	r3, [sp, #8]
 2644 1312 0846     		mov	r0, r1
 2645 1314 1146     		mov	r1, r2
 2646 1316 1422     		movs	r2, #20
 2647 1318 2346     		mov	r3, r4
 2648 131a FFF7FEFF 		bl	write_LCD
 345:.\LCD.c       ****                 write_LCD(lcd,button[43][x],28,x+3,1,0xD000,'Y');   //Nombre de imagen Teclado Nit/
 2649              		.loc 1 345 0 discriminator 3
 2650 131e FB7F     		ldrb	r3, [r7, #31]	@ zero_extendqisi2
 2651 1320 254A     		ldr	r2, .L262+8
ARM GAS  C:\Users\RECEPC~1\AppData\Local\Temp\ccAuxgaT.s 			page 55


 2652 1322 1344     		add	r3, r3, r2
 2653 1324 93F85831 		ldrb	r3, [r3, #344]
 2654 1328 DAB2     		uxtb	r2, r3
 2655 132a FB7F     		ldrb	r3, [r7, #31]	@ zero_extendqisi2
 2656 132c 9BB2     		uxth	r3, r3
 2657 132e 0333     		adds	r3, r3, #3
 2658 1330 9CB2     		uxth	r4, r3
 2659 1332 F979     		ldrb	r1, [r7, #7]	@ zero_extendqisi2
 2660 1334 0123     		movs	r3, #1
 2661 1336 0093     		str	r3, [sp]
 2662 1338 4FF45043 		mov	r3, #53248
 2663 133c 0193     		str	r3, [sp, #4]
 2664 133e 5923     		movs	r3, #89
 2665 1340 0293     		str	r3, [sp, #8]
 2666 1342 0846     		mov	r0, r1
 2667 1344 1146     		mov	r1, r2
 2668 1346 1C22     		movs	r2, #28
 2669 1348 2346     		mov	r3, r4
 2670 134a FFF7FEFF 		bl	write_LCD
 339:.\LCD.c       ****                 write_LCD(lcd,button[71][x],2,x+31,0,0xD000,'Y');   //Nombre de boton preset
 2671              		.loc 1 339 0 discriminator 3
 2672 134e FB7F     		ldrb	r3, [r7, #31]	@ zero_extendqisi2
 2673 1350 0133     		adds	r3, r3, #1
 2674 1352 FB77     		strb	r3, [r7, #31]
 2675              	.L130:
 339:.\LCD.c       ****                 write_LCD(lcd,button[71][x],2,x+31,0,0xD000,'Y');   //Nombre de boton preset
 2676              		.loc 1 339 0 is_stmt 0 discriminator 1
 2677 1354 FB7F     		ldrb	r3, [r7, #31]	@ zero_extendqisi2
 2678 1356 072B     		cmp	r3, #7
 2679 1358 7FF669AF 		bls	.L131
 346:.\LCD.c       ****             }
 347:.\LCD.c       ****             if(lcd==1){
 2680              		.loc 1 347 0 is_stmt 1
 2681 135c FB79     		ldrb	r3, [r7, #7]	@ zero_extendqisi2
 2682 135e 012B     		cmp	r3, #1
 2683 1360 40F02482 		bne	.L132
 348:.\LCD.c       ****                 for(x=1;x<=bufferLCD1.licenceSale[0];x++){
 2684              		.loc 1 348 0
 2685 1364 0123     		movs	r3, #1
 2686 1366 FB77     		strb	r3, [r7, #31]
 2687 1368 18E0     		b	.L133
 2688              	.L134:
 349:.\LCD.c       ****                     write_LCD(lcd,bufferLCD1.licenceSale[x],12,x+13,1,0x0000,'N');   //Placa
 2689              		.loc 1 349 0 discriminator 3
 2690 136a FB7F     		ldrb	r3, [r7, #31]	@ zero_extendqisi2
 2691 136c 134A     		ldr	r2, .L262+12
 2692 136e 1344     		add	r3, r3, r2
 2693 1370 93F80421 		ldrb	r2, [r3, #260]	@ zero_extendqisi2
 2694 1374 FB7F     		ldrb	r3, [r7, #31]	@ zero_extendqisi2
 2695 1376 9BB2     		uxth	r3, r3
 2696 1378 0D33     		adds	r3, r3, #13
 2697 137a 9CB2     		uxth	r4, r3
 2698 137c F979     		ldrb	r1, [r7, #7]	@ zero_extendqisi2
 2699 137e 0123     		movs	r3, #1
 2700 1380 0093     		str	r3, [sp]
 2701 1382 0023     		movs	r3, #0
 2702 1384 0193     		str	r3, [sp, #4]
ARM GAS  C:\Users\RECEPC~1\AppData\Local\Temp\ccAuxgaT.s 			page 56


 2703 1386 4E23     		movs	r3, #78
 2704 1388 0293     		str	r3, [sp, #8]
 2705 138a 0846     		mov	r0, r1
 2706 138c 1146     		mov	r1, r2
 2707 138e 0C22     		movs	r2, #12
 2708 1390 2346     		mov	r3, r4
 2709 1392 FFF7FEFF 		bl	write_LCD
 348:.\LCD.c       ****                 for(x=1;x<=bufferLCD1.licenceSale[0];x++){
 2710              		.loc 1 348 0 discriminator 3
 2711 1396 FB7F     		ldrb	r3, [r7, #31]	@ zero_extendqisi2
 2712 1398 0133     		adds	r3, r3, #1
 2713 139a FB77     		strb	r3, [r7, #31]
 2714              	.L133:
 348:.\LCD.c       ****                 for(x=1;x<=bufferLCD1.licenceSale[0];x++){
 2715              		.loc 1 348 0 is_stmt 0 discriminator 1
 2716 139c 074B     		ldr	r3, .L262+12
 2717 139e 93F80431 		ldrb	r3, [r3, #260]	@ zero_extendqisi2
 2718 13a2 FA7F     		ldrb	r2, [r7, #31]	@ zero_extendqisi2
 2719 13a4 9A42     		cmp	r2, r3
 2720 13a6 E0D9     		bls	.L134
 350:.\LCD.c       ****                 }
 351:.\LCD.c       ****                 for(x=1;x<=bufferLCD1.mileageSale[0];x++){
 2721              		.loc 1 351 0 is_stmt 1
 2722 13a8 0123     		movs	r3, #1
 2723 13aa FB77     		strb	r3, [r7, #31]
 2724 13ac 21E0     		b	.L135
 2725              	.L263:
 2726 13ae 00BF     		.align	2
 2727              	.L262:
 2728 13b0 00000000 		.word	symbols
 2729 13b4 00000000 		.word	bufferLCD2
 2730 13b8 00000000 		.word	button
 2731 13bc 00000000 		.word	bufferLCD1
 2732              	.L136:
 352:.\LCD.c       ****                     write_LCD(lcd,bufferLCD1.mileageSale[x],20,x+13,1,0x0000,'N');   //Kilometraje
 2733              		.loc 1 352 0 discriminator 3
 2734 13c0 FB7F     		ldrb	r3, [r7, #31]	@ zero_extendqisi2
 2735 13c2 AF4A     		ldr	r2, .L264
 2736 13c4 1344     		add	r3, r3, r2
 2737 13c6 93F80F21 		ldrb	r2, [r3, #271]	@ zero_extendqisi2
 2738 13ca FB7F     		ldrb	r3, [r7, #31]	@ zero_extendqisi2
 2739 13cc 9BB2     		uxth	r3, r3
 2740 13ce 0D33     		adds	r3, r3, #13
 2741 13d0 9CB2     		uxth	r4, r3
 2742 13d2 F979     		ldrb	r1, [r7, #7]	@ zero_extendqisi2
 2743 13d4 0123     		movs	r3, #1
 2744 13d6 0093     		str	r3, [sp]
 2745 13d8 0023     		movs	r3, #0
 2746 13da 0193     		str	r3, [sp, #4]
 2747 13dc 4E23     		movs	r3, #78
 2748 13de 0293     		str	r3, [sp, #8]
 2749 13e0 0846     		mov	r0, r1
 2750 13e2 1146     		mov	r1, r2
 2751 13e4 1422     		movs	r2, #20
 2752 13e6 2346     		mov	r3, r4
 2753 13e8 FFF7FEFF 		bl	write_LCD
 351:.\LCD.c       ****                     write_LCD(lcd,bufferLCD1.mileageSale[x],20,x+13,1,0x0000,'N');   //Kilometraje
ARM GAS  C:\Users\RECEPC~1\AppData\Local\Temp\ccAuxgaT.s 			page 57


 2754              		.loc 1 351 0 discriminator 3
 2755 13ec FB7F     		ldrb	r3, [r7, #31]	@ zero_extendqisi2
 2756 13ee 0133     		adds	r3, r3, #1
 2757 13f0 FB77     		strb	r3, [r7, #31]
 2758              	.L135:
 351:.\LCD.c       ****                     write_LCD(lcd,bufferLCD1.mileageSale[x],20,x+13,1,0x0000,'N');   //Kilometraje
 2759              		.loc 1 351 0 is_stmt 0 discriminator 1
 2760 13f2 A34B     		ldr	r3, .L264
 2761 13f4 93F80F31 		ldrb	r3, [r3, #271]	@ zero_extendqisi2
 2762 13f8 FA7F     		ldrb	r2, [r7, #31]	@ zero_extendqisi2
 2763 13fa 9A42     		cmp	r2, r3
 2764 13fc E0D9     		bls	.L136
 353:.\LCD.c       ****                 }
 354:.\LCD.c       ****                 for(x=1;x<=bufferLCD1.identySale[0];x++){
 2765              		.loc 1 354 0 is_stmt 1
 2766 13fe 0123     		movs	r3, #1
 2767 1400 FB77     		strb	r3, [r7, #31]
 2768 1402 18E0     		b	.L137
 2769              	.L138:
 355:.\LCD.c       ****                     write_LCD(lcd,bufferLCD1.identySale[x],28,x+13,1,0x0000,'N');   //CC/NIT
 2770              		.loc 1 355 0 discriminator 3
 2771 1404 FB7F     		ldrb	r3, [r7, #31]	@ zero_extendqisi2
 2772 1406 9E4A     		ldr	r2, .L264
 2773 1408 1344     		add	r3, r3, r2
 2774 140a 93F81A21 		ldrb	r2, [r3, #282]	@ zero_extendqisi2
 2775 140e FB7F     		ldrb	r3, [r7, #31]	@ zero_extendqisi2
 2776 1410 9BB2     		uxth	r3, r3
 2777 1412 0D33     		adds	r3, r3, #13
 2778 1414 9CB2     		uxth	r4, r3
 2779 1416 F979     		ldrb	r1, [r7, #7]	@ zero_extendqisi2
 2780 1418 0123     		movs	r3, #1
 2781 141a 0093     		str	r3, [sp]
 2782 141c 0023     		movs	r3, #0
 2783 141e 0193     		str	r3, [sp, #4]
 2784 1420 4E23     		movs	r3, #78
 2785 1422 0293     		str	r3, [sp, #8]
 2786 1424 0846     		mov	r0, r1
 2787 1426 1146     		mov	r1, r2
 2788 1428 1C22     		movs	r2, #28
 2789 142a 2346     		mov	r3, r4
 2790 142c FFF7FEFF 		bl	write_LCD
 354:.\LCD.c       ****                     write_LCD(lcd,bufferLCD1.identySale[x],28,x+13,1,0x0000,'N');   //CC/NIT
 2791              		.loc 1 354 0 discriminator 3
 2792 1430 FB7F     		ldrb	r3, [r7, #31]	@ zero_extendqisi2
 2793 1432 0133     		adds	r3, r3, #1
 2794 1434 FB77     		strb	r3, [r7, #31]
 2795              	.L137:
 354:.\LCD.c       ****                     write_LCD(lcd,bufferLCD1.identySale[x],28,x+13,1,0x0000,'N');   //CC/NIT
 2796              		.loc 1 354 0 is_stmt 0 discriminator 1
 2797 1436 924B     		ldr	r3, .L264
 2798 1438 93F81A31 		ldrb	r3, [r3, #282]	@ zero_extendqisi2
 2799 143c FA7F     		ldrb	r2, [r7, #31]	@ zero_extendqisi2
 2800 143e 9A42     		cmp	r2, r3
 2801 1440 E0D9     		bls	.L138
 356:.\LCD.c       ****                 }
 357:.\LCD.c       ****                 switch (bufferLCD1.presetType[1]){
 2802              		.loc 1 357 0 is_stmt 1
ARM GAS  C:\Users\RECEPC~1\AppData\Local\Temp\ccAuxgaT.s 			page 58


 2803 1442 8F4B     		ldr	r3, .L264
 2804 1444 93F87D30 		ldrb	r3, [r3, #125]	@ zero_extendqisi2
 2805 1448 313B     		subs	r3, r3, #49
 2806 144a 252B     		cmp	r3, #37
 2807 144c 00F27A81 		bhi	.L139
 2808 1450 01A2     		adr	r2, .L141
 2809 1452 52F823F0 		ldr	pc, [r2, r3, lsl #2]
 2810 1456 00BF     		.p2align 2
 2811              	.L141:
 2812 1458 23160000 		.word	.L140+1
 2813 145c 8D160000 		.word	.L142+1
 2814 1460 E9160000 		.word	.L143+1
 2815 1464 45170000 		.word	.L139+1
 2816 1468 45170000 		.word	.L139+1
 2817 146c 45170000 		.word	.L139+1
 2818 1470 45170000 		.word	.L139+1
 2819 1474 45170000 		.word	.L139+1
 2820 1478 45170000 		.word	.L139+1
 2821 147c 45170000 		.word	.L139+1
 2822 1480 45170000 		.word	.L139+1
 2823 1484 45170000 		.word	.L139+1
 2824 1488 45170000 		.word	.L139+1
 2825 148c 45170000 		.word	.L139+1
 2826 1490 45170000 		.word	.L139+1
 2827 1494 45170000 		.word	.L139+1
 2828 1498 45170000 		.word	.L139+1
 2829 149c 45170000 		.word	.L139+1
 2830 14a0 45170000 		.word	.L139+1
 2831 14a4 F1140000 		.word	.L144+1
 2832 14a8 45170000 		.word	.L139+1
 2833 14ac BD150000 		.word	.L145+1
 2834 14b0 45170000 		.word	.L139+1
 2835 14b4 45170000 		.word	.L139+1
 2836 14b8 45170000 		.word	.L139+1
 2837 14bc 45170000 		.word	.L139+1
 2838 14c0 45170000 		.word	.L139+1
 2839 14c4 45170000 		.word	.L139+1
 2840 14c8 45170000 		.word	.L139+1
 2841 14cc 45170000 		.word	.L139+1
 2842 14d0 45170000 		.word	.L139+1
 2843 14d4 45170000 		.word	.L139+1
 2844 14d8 45170000 		.word	.L139+1
 2845 14dc 45170000 		.word	.L139+1
 2846 14e0 45170000 		.word	.L139+1
 2847 14e4 45170000 		.word	.L139+1
 2848 14e8 45170000 		.word	.L139+1
 2849 14ec 57150000 		.word	.L146+1
 2850              		.p2align 1
 2851              	.L144:
 358:.\LCD.c       ****                     case 'D':
 359:.\LCD.c       ****                         for(x=0;x<8;x++){
 2852              		.loc 1 359 0
 2853 14f0 0023     		movs	r3, #0
 2854 14f2 FB77     		strb	r3, [r7, #31]
 2855 14f4 1AE0     		b	.L147
 2856              	.L148:
 360:.\LCD.c       ****                             write_LCD(lcd,button[14][x],2,x+40,0,0x2110,'Y');   //Nombre de boton D
ARM GAS  C:\Users\RECEPC~1\AppData\Local\Temp\ccAuxgaT.s 			page 59


 2857              		.loc 1 360 0 discriminator 3
 2858 14f6 FB7F     		ldrb	r3, [r7, #31]	@ zero_extendqisi2
 2859 14f8 624A     		ldr	r2, .L264+4
 2860 14fa 1344     		add	r3, r3, r2
 2861 14fc 93F87030 		ldrb	r3, [r3, #112]
 2862 1500 DAB2     		uxtb	r2, r3
 2863 1502 FB7F     		ldrb	r3, [r7, #31]	@ zero_extendqisi2
 2864 1504 9BB2     		uxth	r3, r3
 2865 1506 2833     		adds	r3, r3, #40
 2866 1508 9CB2     		uxth	r4, r3
 2867 150a F979     		ldrb	r1, [r7, #7]	@ zero_extendqisi2
 2868 150c 0023     		movs	r3, #0
 2869 150e 0093     		str	r3, [sp]
 2870 1510 42F21013 		movw	r3, #8464
 2871 1514 0193     		str	r3, [sp, #4]
 2872 1516 5923     		movs	r3, #89
 2873 1518 0293     		str	r3, [sp, #8]
 2874 151a 0846     		mov	r0, r1
 2875 151c 1146     		mov	r1, r2
 2876 151e 0222     		movs	r2, #2
 2877 1520 2346     		mov	r3, r4
 2878 1522 FFF7FEFF 		bl	write_LCD
 359:.\LCD.c       ****                             write_LCD(lcd,button[14][x],2,x+40,0,0x2110,'Y');   //Nombre de boton D
 2879              		.loc 1 359 0 discriminator 3
 2880 1526 FB7F     		ldrb	r3, [r7, #31]	@ zero_extendqisi2
 2881 1528 0133     		adds	r3, r3, #1
 2882 152a FB77     		strb	r3, [r7, #31]
 2883              	.L147:
 359:.\LCD.c       ****                             write_LCD(lcd,button[14][x],2,x+40,0,0x2110,'Y');   //Nombre de boton D
 2884              		.loc 1 359 0 is_stmt 0 discriminator 1
 2885 152c FB7F     		ldrb	r3, [r7, #31]	@ zero_extendqisi2
 2886 152e 072B     		cmp	r3, #7
 2887 1530 E1D9     		bls	.L148
 361:.\LCD.c       ****                         }
 362:.\LCD.c       ****                         write_LCD(lcd,symbols[0],4,16,1,0xD000,'Y');   //Simbolo de dinero
 2888              		.loc 1 362 0 is_stmt 1
 2889 1532 554B     		ldr	r3, .L264+8
 2890 1534 1B78     		ldrb	r3, [r3]
 2891 1536 DAB2     		uxtb	r2, r3
 2892 1538 F979     		ldrb	r1, [r7, #7]	@ zero_extendqisi2
 2893 153a 0123     		movs	r3, #1
 2894 153c 0093     		str	r3, [sp]
 2895 153e 4FF45043 		mov	r3, #53248
 2896 1542 0193     		str	r3, [sp, #4]
 2897 1544 5923     		movs	r3, #89
 2898 1546 0293     		str	r3, [sp, #8]
 2899 1548 0846     		mov	r0, r1
 2900 154a 1146     		mov	r1, r2
 2901 154c 0422     		movs	r2, #4
 2902 154e 1023     		movs	r3, #16
 2903 1550 FFF7FEFF 		bl	write_LCD
 363:.\LCD.c       ****                     break;
 2904              		.loc 1 363 0
 2905 1554 F6E0     		b	.L139
 2906              	.L146:
 364:.\LCD.c       ****                     
 365:.\LCD.c       ****                     case 'V':
ARM GAS  C:\Users\RECEPC~1\AppData\Local\Temp\ccAuxgaT.s 			page 60


 366:.\LCD.c       ****                         for(x=0;x<8;x++){
 2907              		.loc 1 366 0
 2908 1556 0023     		movs	r3, #0
 2909 1558 FB77     		strb	r3, [r7, #31]
 2910 155a 1AE0     		b	.L149
 2911              	.L150:
 367:.\LCD.c       ****                             write_LCD(lcd,button[15][x],2,x+40,0,0x2110,'Y');   //Nombre de boton V
 2912              		.loc 1 367 0 discriminator 3
 2913 155c FB7F     		ldrb	r3, [r7, #31]	@ zero_extendqisi2
 2914 155e 494A     		ldr	r2, .L264+4
 2915 1560 1344     		add	r3, r3, r2
 2916 1562 93F87830 		ldrb	r3, [r3, #120]
 2917 1566 DAB2     		uxtb	r2, r3
 2918 1568 FB7F     		ldrb	r3, [r7, #31]	@ zero_extendqisi2
 2919 156a 9BB2     		uxth	r3, r3
 2920 156c 2833     		adds	r3, r3, #40
 2921 156e 9CB2     		uxth	r4, r3
 2922 1570 F979     		ldrb	r1, [r7, #7]	@ zero_extendqisi2
 2923 1572 0023     		movs	r3, #0
 2924 1574 0093     		str	r3, [sp]
 2925 1576 42F21013 		movw	r3, #8464
 2926 157a 0193     		str	r3, [sp, #4]
 2927 157c 5923     		movs	r3, #89
 2928 157e 0293     		str	r3, [sp, #8]
 2929 1580 0846     		mov	r0, r1
 2930 1582 1146     		mov	r1, r2
 2931 1584 0222     		movs	r2, #2
 2932 1586 2346     		mov	r3, r4
 2933 1588 FFF7FEFF 		bl	write_LCD
 366:.\LCD.c       ****                             write_LCD(lcd,button[15][x],2,x+40,0,0x2110,'Y');   //Nombre de boton V
 2934              		.loc 1 366 0 discriminator 3
 2935 158c FB7F     		ldrb	r3, [r7, #31]	@ zero_extendqisi2
 2936 158e 0133     		adds	r3, r3, #1
 2937 1590 FB77     		strb	r3, [r7, #31]
 2938              	.L149:
 366:.\LCD.c       ****                             write_LCD(lcd,button[15][x],2,x+40,0,0x2110,'Y');   //Nombre de boton V
 2939              		.loc 1 366 0 is_stmt 0 discriminator 1
 2940 1592 FB7F     		ldrb	r3, [r7, #31]	@ zero_extendqisi2
 2941 1594 072B     		cmp	r3, #7
 2942 1596 E1D9     		bls	.L150
 368:.\LCD.c       ****                         }
 369:.\LCD.c       ****                         write_LCD(lcd,symbols[1],4,16,1,0xD000,'Y');   //Simbolo de Volumen
 2943              		.loc 1 369 0 is_stmt 1
 2944 1598 3B4B     		ldr	r3, .L264+8
 2945 159a 5B78     		ldrb	r3, [r3, #1]
 2946 159c DAB2     		uxtb	r2, r3
 2947 159e F979     		ldrb	r1, [r7, #7]	@ zero_extendqisi2
 2948 15a0 0123     		movs	r3, #1
 2949 15a2 0093     		str	r3, [sp]
 2950 15a4 4FF45043 		mov	r3, #53248
 2951 15a8 0193     		str	r3, [sp, #4]
 2952 15aa 5923     		movs	r3, #89
 2953 15ac 0293     		str	r3, [sp, #8]
 2954 15ae 0846     		mov	r0, r1
 2955 15b0 1146     		mov	r1, r2
 2956 15b2 0422     		movs	r2, #4
 2957 15b4 1023     		movs	r3, #16
ARM GAS  C:\Users\RECEPC~1\AppData\Local\Temp\ccAuxgaT.s 			page 61


 2958 15b6 FFF7FEFF 		bl	write_LCD
 370:.\LCD.c       ****                     break;
 2959              		.loc 1 370 0
 2960 15ba C3E0     		b	.L139
 2961              	.L145:
 371:.\LCD.c       ****                         
 372:.\LCD.c       ****                     case 'F':
 373:.\LCD.c       ****                         for(x=0;x<8;x++){
 2962              		.loc 1 373 0
 2963 15bc 0023     		movs	r3, #0
 2964 15be FB77     		strb	r3, [r7, #31]
 2965 15c0 1AE0     		b	.L151
 2966              	.L152:
 374:.\LCD.c       ****                             write_LCD(lcd,button[16][x],2,x+40,0,0x2110,'Y');   //Nombre de boton L
 2967              		.loc 1 374 0 discriminator 3
 2968 15c2 FB7F     		ldrb	r3, [r7, #31]	@ zero_extendqisi2
 2969 15c4 2F4A     		ldr	r2, .L264+4
 2970 15c6 1344     		add	r3, r3, r2
 2971 15c8 93F88030 		ldrb	r3, [r3, #128]
 2972 15cc DAB2     		uxtb	r2, r3
 2973 15ce FB7F     		ldrb	r3, [r7, #31]	@ zero_extendqisi2
 2974 15d0 9BB2     		uxth	r3, r3
 2975 15d2 2833     		adds	r3, r3, #40
 2976 15d4 9CB2     		uxth	r4, r3
 2977 15d6 F979     		ldrb	r1, [r7, #7]	@ zero_extendqisi2
 2978 15d8 0023     		movs	r3, #0
 2979 15da 0093     		str	r3, [sp]
 2980 15dc 42F21013 		movw	r3, #8464
 2981 15e0 0193     		str	r3, [sp, #4]
 2982 15e2 5923     		movs	r3, #89
 2983 15e4 0293     		str	r3, [sp, #8]
 2984 15e6 0846     		mov	r0, r1
 2985 15e8 1146     		mov	r1, r2
 2986 15ea 0222     		movs	r2, #2
 2987 15ec 2346     		mov	r3, r4
 2988 15ee FFF7FEFF 		bl	write_LCD
 373:.\LCD.c       ****                             write_LCD(lcd,button[16][x],2,x+40,0,0x2110,'Y');   //Nombre de boton L
 2989              		.loc 1 373 0 discriminator 3
 2990 15f2 FB7F     		ldrb	r3, [r7, #31]	@ zero_extendqisi2
 2991 15f4 0133     		adds	r3, r3, #1
 2992 15f6 FB77     		strb	r3, [r7, #31]
 2993              	.L151:
 373:.\LCD.c       ****                             write_LCD(lcd,button[16][x],2,x+40,0,0x2110,'Y');   //Nombre de boton L
 2994              		.loc 1 373 0 is_stmt 0 discriminator 1
 2995 15f8 FB7F     		ldrb	r3, [r7, #31]	@ zero_extendqisi2
 2996 15fa 072B     		cmp	r3, #7
 2997 15fc E1D9     		bls	.L152
 375:.\LCD.c       ****                         }
 376:.\LCD.c       ****                         write_LCD(lcd,symbols[0],4,16,1,0xD000,'Y');   //Simbolo de dinero
 2998              		.loc 1 376 0 is_stmt 1
 2999 15fe 224B     		ldr	r3, .L264+8
 3000 1600 1B78     		ldrb	r3, [r3]
 3001 1602 DAB2     		uxtb	r2, r3
 3002 1604 F979     		ldrb	r1, [r7, #7]	@ zero_extendqisi2
 3003 1606 0123     		movs	r3, #1
 3004 1608 0093     		str	r3, [sp]
 3005 160a 4FF45043 		mov	r3, #53248
ARM GAS  C:\Users\RECEPC~1\AppData\Local\Temp\ccAuxgaT.s 			page 62


 3006 160e 0193     		str	r3, [sp, #4]
 3007 1610 5923     		movs	r3, #89
 3008 1612 0293     		str	r3, [sp, #8]
 3009 1614 0846     		mov	r0, r1
 3010 1616 1146     		mov	r1, r2
 3011 1618 0422     		movs	r2, #4
 3012 161a 1023     		movs	r3, #16
 3013 161c FFF7FEFF 		bl	write_LCD
 377:.\LCD.c       ****                     break;
 3014              		.loc 1 377 0
 3015 1620 90E0     		b	.L139
 3016              	.L140:
 378:.\LCD.c       ****                     
 379:.\LCD.c       ****                     case '1':
 380:.\LCD.c       ****                         write_LCD(lcd,'P',2,40,0,0x2110,'Y');   //Nombre de boton P1
 3017              		.loc 1 380 0
 3018 1622 FA79     		ldrb	r2, [r7, #7]	@ zero_extendqisi2
 3019 1624 0023     		movs	r3, #0
 3020 1626 0093     		str	r3, [sp]
 3021 1628 42F21013 		movw	r3, #8464
 3022 162c 0193     		str	r3, [sp, #4]
 3023 162e 5923     		movs	r3, #89
 3024 1630 0293     		str	r3, [sp, #8]
 3025 1632 1046     		mov	r0, r2
 3026 1634 5021     		movs	r1, #80
 3027 1636 0222     		movs	r2, #2
 3028 1638 2823     		movs	r3, #40
 3029 163a FFF7FEFF 		bl	write_LCD
 381:.\LCD.c       ****                         write_LCD(lcd,'1',2,41,0,0x2110,'Y');   //Nombre de boton P1
 3030              		.loc 1 381 0
 3031 163e FA79     		ldrb	r2, [r7, #7]	@ zero_extendqisi2
 3032 1640 0023     		movs	r3, #0
 3033 1642 0093     		str	r3, [sp]
 3034 1644 42F21013 		movw	r3, #8464
 3035 1648 0193     		str	r3, [sp, #4]
 3036 164a 5923     		movs	r3, #89
 3037 164c 0293     		str	r3, [sp, #8]
 3038 164e 1046     		mov	r0, r2
 3039 1650 3121     		movs	r1, #49
 3040 1652 0222     		movs	r2, #2
 3041 1654 2923     		movs	r3, #41
 3042 1656 FFF7FEFF 		bl	write_LCD
 382:.\LCD.c       ****                         write_LCD(lcd,symbols[0],4,16,1,0xD000,'Y');   //Simbolo de dinero
 3043              		.loc 1 382 0
 3044 165a 0B4B     		ldr	r3, .L264+8
 3045 165c 1B78     		ldrb	r3, [r3]
 3046 165e DAB2     		uxtb	r2, r3
 3047 1660 F979     		ldrb	r1, [r7, #7]	@ zero_extendqisi2
 3048 1662 0123     		movs	r3, #1
 3049 1664 0093     		str	r3, [sp]
 3050 1666 4FF45043 		mov	r3, #53248
 3051 166a 0193     		str	r3, [sp, #4]
 3052 166c 5923     		movs	r3, #89
 3053 166e 0293     		str	r3, [sp, #8]
 3054 1670 0846     		mov	r0, r1
 3055 1672 1146     		mov	r1, r2
 3056 1674 0422     		movs	r2, #4
ARM GAS  C:\Users\RECEPC~1\AppData\Local\Temp\ccAuxgaT.s 			page 63


 3057 1676 1023     		movs	r3, #16
 3058 1678 FFF7FEFF 		bl	write_LCD
 383:.\LCD.c       ****                     break;
 3059              		.loc 1 383 0
 3060 167c 62E0     		b	.L139
 3061              	.L265:
 3062 167e 00BF     		.align	2
 3063              	.L264:
 3064 1680 00000000 		.word	bufferLCD1
 3065 1684 00000000 		.word	button
 3066 1688 00000000 		.word	symbols
 3067              	.L142:
 384:.\LCD.c       ****                     
 385:.\LCD.c       ****                     case '2':
 386:.\LCD.c       ****                         write_LCD(lcd,'P',2,40,0,0x2110,'Y');   //Nombre de boton P1
 3068              		.loc 1 386 0
 3069 168c FA79     		ldrb	r2, [r7, #7]	@ zero_extendqisi2
 3070 168e 0023     		movs	r3, #0
 3071 1690 0093     		str	r3, [sp]
 3072 1692 42F21013 		movw	r3, #8464
 3073 1696 0193     		str	r3, [sp, #4]
 3074 1698 5923     		movs	r3, #89
 3075 169a 0293     		str	r3, [sp, #8]
 3076 169c 1046     		mov	r0, r2
 3077 169e 5021     		movs	r1, #80
 3078 16a0 0222     		movs	r2, #2
 3079 16a2 2823     		movs	r3, #40
 3080 16a4 FFF7FEFF 		bl	write_LCD
 387:.\LCD.c       ****                         write_LCD(lcd,'2',2,41,0,0x2110,'Y');   //Nombre de boton P1
 3081              		.loc 1 387 0
 3082 16a8 FA79     		ldrb	r2, [r7, #7]	@ zero_extendqisi2
 3083 16aa 0023     		movs	r3, #0
 3084 16ac 0093     		str	r3, [sp]
 3085 16ae 42F21013 		movw	r3, #8464
 3086 16b2 0193     		str	r3, [sp, #4]
 3087 16b4 5923     		movs	r3, #89
 3088 16b6 0293     		str	r3, [sp, #8]
 3089 16b8 1046     		mov	r0, r2
 3090 16ba 3221     		movs	r1, #50
 3091 16bc 0222     		movs	r2, #2
 3092 16be 2923     		movs	r3, #41
 3093 16c0 FFF7FEFF 		bl	write_LCD
 388:.\LCD.c       ****                         write_LCD(lcd,symbols[0],4,16,1,0xD000,'Y');   //Simbolo de dinero
 3094              		.loc 1 388 0
 3095 16c4 B24B     		ldr	r3, .L266
 3096 16c6 1B78     		ldrb	r3, [r3]
 3097 16c8 DAB2     		uxtb	r2, r3
 3098 16ca F979     		ldrb	r1, [r7, #7]	@ zero_extendqisi2
 3099 16cc 0123     		movs	r3, #1
 3100 16ce 0093     		str	r3, [sp]
 3101 16d0 4FF45043 		mov	r3, #53248
 3102 16d4 0193     		str	r3, [sp, #4]
 3103 16d6 5923     		movs	r3, #89
 3104 16d8 0293     		str	r3, [sp, #8]
 3105 16da 0846     		mov	r0, r1
 3106 16dc 1146     		mov	r1, r2
 3107 16de 0422     		movs	r2, #4
ARM GAS  C:\Users\RECEPC~1\AppData\Local\Temp\ccAuxgaT.s 			page 64


 3108 16e0 1023     		movs	r3, #16
 3109 16e2 FFF7FEFF 		bl	write_LCD
 389:.\LCD.c       ****                     break;
 3110              		.loc 1 389 0
 3111 16e6 2DE0     		b	.L139
 3112              	.L143:
 390:.\LCD.c       ****                     
 391:.\LCD.c       ****                     case '3':
 392:.\LCD.c       ****                         write_LCD(lcd,'P',2,40,0,0x2110,'Y');   //Nombre de boton P1
 3113              		.loc 1 392 0
 3114 16e8 FA79     		ldrb	r2, [r7, #7]	@ zero_extendqisi2
 3115 16ea 0023     		movs	r3, #0
 3116 16ec 0093     		str	r3, [sp]
 3117 16ee 42F21013 		movw	r3, #8464
 3118 16f2 0193     		str	r3, [sp, #4]
 3119 16f4 5923     		movs	r3, #89
 3120 16f6 0293     		str	r3, [sp, #8]
 3121 16f8 1046     		mov	r0, r2
 3122 16fa 5021     		movs	r1, #80
 3123 16fc 0222     		movs	r2, #2
 3124 16fe 2823     		movs	r3, #40
 3125 1700 FFF7FEFF 		bl	write_LCD
 393:.\LCD.c       ****                         write_LCD(lcd,'3',2,41,0,0x2110,'Y');   //Nombre de boton P1
 3126              		.loc 1 393 0
 3127 1704 FA79     		ldrb	r2, [r7, #7]	@ zero_extendqisi2
 3128 1706 0023     		movs	r3, #0
 3129 1708 0093     		str	r3, [sp]
 3130 170a 42F21013 		movw	r3, #8464
 3131 170e 0193     		str	r3, [sp, #4]
 3132 1710 5923     		movs	r3, #89
 3133 1712 0293     		str	r3, [sp, #8]
 3134 1714 1046     		mov	r0, r2
 3135 1716 3321     		movs	r1, #51
 3136 1718 0222     		movs	r2, #2
 3137 171a 2923     		movs	r3, #41
 3138 171c FFF7FEFF 		bl	write_LCD
 394:.\LCD.c       ****                         write_LCD(lcd,symbols[0],4,16,1,0xD000,'Y');   //Simbolo de dinero
 3139              		.loc 1 394 0
 3140 1720 9B4B     		ldr	r3, .L266
 3141 1722 1B78     		ldrb	r3, [r3]
 3142 1724 DAB2     		uxtb	r2, r3
 3143 1726 F979     		ldrb	r1, [r7, #7]	@ zero_extendqisi2
 3144 1728 0123     		movs	r3, #1
 3145 172a 0093     		str	r3, [sp]
 3146 172c 4FF45043 		mov	r3, #53248
 3147 1730 0193     		str	r3, [sp, #4]
 3148 1732 5923     		movs	r3, #89
 3149 1734 0293     		str	r3, [sp, #8]
 3150 1736 0846     		mov	r0, r1
 3151 1738 1146     		mov	r1, r2
 3152 173a 0422     		movs	r2, #4
 3153 173c 1023     		movs	r3, #16
 3154 173e FFF7FEFF 		bl	write_LCD
 395:.\LCD.c       ****                     break;
 3155              		.loc 1 395 0
 3156 1742 00BF     		nop
 3157              	.L139:
ARM GAS  C:\Users\RECEPC~1\AppData\Local\Temp\ccAuxgaT.s 			page 65


 396:.\LCD.c       ****                 }
 397:.\LCD.c       ****                 flag=0;
 3158              		.loc 1 397 0
 3159 1744 0023     		movs	r3, #0
 3160 1746 7B77     		strb	r3, [r7, #29]
 398:.\LCD.c       ****                 for(x=1;x<=bufferLCD1.presetValue[1][0];x++){
 3161              		.loc 1 398 0
 3162 1748 0123     		movs	r3, #1
 3163 174a FB77     		strb	r3, [r7, #31]
 3164 174c 26E0     		b	.L153
 3165              	.L156:
 399:.\LCD.c       ****                     if(bufferLCD1.presetValue[1][x]=='0' && flag==0){
 3166              		.loc 1 399 0
 3167 174e FB7F     		ldrb	r3, [r7, #31]	@ zero_extendqisi2
 3168 1750 904A     		ldr	r2, .L266+4
 3169 1752 1344     		add	r3, r3, r2
 3170 1754 93F88830 		ldrb	r3, [r3, #136]	@ zero_extendqisi2
 3171 1758 302B     		cmp	r3, #48
 3172 175a 03D1     		bne	.L154
 3173              		.loc 1 399 0 is_stmt 0 discriminator 1
 3174 175c 7B7F     		ldrb	r3, [r7, #29]	@ zero_extendqisi2
 3175 175e 002B     		cmp	r3, #0
 3176 1760 00D1     		bne	.L154
 3177              		.loc 1 399 0
 3178 1762 18E0     		b	.L155
 3179              	.L154:
 400:.\LCD.c       ****                     }else{
 401:.\LCD.c       ****                         write_LCD(lcd,bufferLCD1.presetValue[1][x],4,x+16,1,0x2110,'Y');
 3180              		.loc 1 401 0 is_stmt 1
 3181 1764 FB7F     		ldrb	r3, [r7, #31]	@ zero_extendqisi2
 3182 1766 8B4A     		ldr	r2, .L266+4
 3183 1768 1344     		add	r3, r3, r2
 3184 176a 93F88820 		ldrb	r2, [r3, #136]	@ zero_extendqisi2
 3185 176e FB7F     		ldrb	r3, [r7, #31]	@ zero_extendqisi2
 3186 1770 9BB2     		uxth	r3, r3
 3187 1772 1033     		adds	r3, r3, #16
 3188 1774 9CB2     		uxth	r4, r3
 3189 1776 F979     		ldrb	r1, [r7, #7]	@ zero_extendqisi2
 3190 1778 0123     		movs	r3, #1
 3191 177a 0093     		str	r3, [sp]
 3192 177c 42F21013 		movw	r3, #8464
 3193 1780 0193     		str	r3, [sp, #4]
 3194 1782 5923     		movs	r3, #89
 3195 1784 0293     		str	r3, [sp, #8]
 3196 1786 0846     		mov	r0, r1
 3197 1788 1146     		mov	r1, r2
 3198 178a 0422     		movs	r2, #4
 3199 178c 2346     		mov	r3, r4
 3200 178e FFF7FEFF 		bl	write_LCD
 402:.\LCD.c       ****                         flag=1;
 3201              		.loc 1 402 0
 3202 1792 0123     		movs	r3, #1
 3203 1794 7B77     		strb	r3, [r7, #29]
 3204              	.L155:
 398:.\LCD.c       ****                     if(bufferLCD1.presetValue[1][x]=='0' && flag==0){
 3205              		.loc 1 398 0 discriminator 2
 3206 1796 FB7F     		ldrb	r3, [r7, #31]	@ zero_extendqisi2
ARM GAS  C:\Users\RECEPC~1\AppData\Local\Temp\ccAuxgaT.s 			page 66


 3207 1798 0133     		adds	r3, r3, #1
 3208 179a FB77     		strb	r3, [r7, #31]
 3209              	.L153:
 398:.\LCD.c       ****                     if(bufferLCD1.presetValue[1][x]=='0' && flag==0){
 3210              		.loc 1 398 0 is_stmt 0 discriminator 1
 3211 179c 7D4B     		ldr	r3, .L266+4
 3212 179e 93F88830 		ldrb	r3, [r3, #136]	@ zero_extendqisi2
 3213 17a2 FA7F     		ldrb	r2, [r7, #31]	@ zero_extendqisi2
 3214 17a4 9A42     		cmp	r2, r3
 3215 17a6 D2D9     		bls	.L156
 403:.\LCD.c       ****                     }
 404:.\LCD.c       ****                 }
 405:.\LCD.c       ****             }else{
 406:.\LCD.c       ****                 for(x=1;x<=bufferLCD2.licenceSale[0];x++){
 407:.\LCD.c       ****                     write_LCD(lcd,bufferLCD2.licenceSale[x],12,x+13,1,0x0000,'N');   //Placa
 408:.\LCD.c       ****                 }
 409:.\LCD.c       ****                 for(x=1;x<=bufferLCD2.mileageSale[0];x++){
 410:.\LCD.c       ****                     write_LCD(lcd,bufferLCD2.mileageSale[x],20,x+13,1,0x0000,'N');   //Kilometraje
 411:.\LCD.c       ****                 }
 412:.\LCD.c       ****                 for(x=1;x<=bufferLCD2.identySale[0];x++){
 413:.\LCD.c       ****                     write_LCD(lcd,bufferLCD2.identySale[x],28,x+13,1,0x0000,'N');   //CC/NIT
 414:.\LCD.c       ****                 }
 415:.\LCD.c       ****                 switch (bufferLCD2.presetType[1]){
 416:.\LCD.c       ****                     case 'D':
 417:.\LCD.c       ****                         for(x=0;x<8;x++){
 418:.\LCD.c       ****                             write_LCD(lcd,button[14][x],2,x+40,0,0x2110,'Y');   //Nombre de boton D
 419:.\LCD.c       ****                         }
 420:.\LCD.c       ****                         write_LCD(lcd,symbols[0],4,16,1,0xD000,'Y');   //Simbolo de dinero
 421:.\LCD.c       ****                     break;
 422:.\LCD.c       ****                     
 423:.\LCD.c       ****                     case 'V':
 424:.\LCD.c       ****                         for(x=0;x<8;x++){
 425:.\LCD.c       ****                             write_LCD(lcd,button[15][x],2,x+40,0,0x2110,'Y');   //Nombre de boton V
 426:.\LCD.c       ****                         }
 427:.\LCD.c       ****                         write_LCD(lcd,symbols[1],4,16,1,0xD000,'Y');   //Simbolo de Volumen
 428:.\LCD.c       ****                     break;
 429:.\LCD.c       ****                         
 430:.\LCD.c       ****                     case 'F':
 431:.\LCD.c       ****                         for(x=0;x<8;x++){
 432:.\LCD.c       ****                             write_LCD(lcd,button[16][x],2,x+40,0,0x2110,'Y');   //Nombre de boton L
 433:.\LCD.c       ****                         }
 434:.\LCD.c       ****                         write_LCD(lcd,symbols[0],4,16,1,0xD000,'Y');   //Simbolo de dinero
 435:.\LCD.c       ****                     break;
 436:.\LCD.c       ****                     
 437:.\LCD.c       ****                     case '1':
 438:.\LCD.c       ****                         write_LCD(lcd,'P',2,40,0,0x2110,'Y');   //Nombre de boton P1
 439:.\LCD.c       ****                         write_LCD(lcd,'1',2,41,0,0x2110,'Y');   //Nombre de boton P1
 440:.\LCD.c       ****                         write_LCD(lcd,symbols[0],4,16,1,0xD000,'Y');   //Simbolo de dinero
 441:.\LCD.c       ****                     break;
 442:.\LCD.c       ****                     
 443:.\LCD.c       ****                     case '2':
 444:.\LCD.c       ****                         write_LCD(lcd,'P',2,40,0,0x2110,'Y');   //Nombre de boton P1
 445:.\LCD.c       ****                         write_LCD(lcd,'2',2,41,0,0x2110,'Y');   //Nombre de boton P1
 446:.\LCD.c       ****                         write_LCD(lcd,symbols[0],4,16,1,0xD000,'Y');   //Simbolo de dinero
 447:.\LCD.c       ****                     break;
 448:.\LCD.c       ****                     
 449:.\LCD.c       ****                     case '3':
ARM GAS  C:\Users\RECEPC~1\AppData\Local\Temp\ccAuxgaT.s 			page 67


 450:.\LCD.c       ****                         write_LCD(lcd,'P',2,40,0,0x2110,'Y');   //Nombre de boton P1
 451:.\LCD.c       ****                         write_LCD(lcd,'3',2,41,0,0x2110,'Y');   //Nombre de boton P1
 452:.\LCD.c       ****                         write_LCD(lcd,symbols[0],4,16,1,0xD000,'Y');   //Simbolo de dinero
 453:.\LCD.c       ****                     break;
 454:.\LCD.c       ****                 }
 455:.\LCD.c       ****                 flag=0;
 456:.\LCD.c       ****                 for(x=1;x<=bufferLCD2.presetValue[1][0];x++){
 457:.\LCD.c       ****                     if(bufferLCD2.presetValue[1][x]=='0' && flag==0){
 458:.\LCD.c       ****                     }else{
 459:.\LCD.c       ****                         write_LCD(lcd,bufferLCD2.presetValue[1][x],4,x+16,1,0x2110,'Y');
 460:.\LCD.c       ****                         flag=1;
 461:.\LCD.c       ****                     }
 462:.\LCD.c       ****                 }
 463:.\LCD.c       ****             }
 464:.\LCD.c       ****         break;
 3216              		.loc 1 464 0 is_stmt 1
 3217 17a8 01F0DBBD 		b	.L16
 3218              	.L132:
 406:.\LCD.c       ****                     write_LCD(lcd,bufferLCD2.licenceSale[x],12,x+13,1,0x0000,'N');   //Placa
 3219              		.loc 1 406 0
 3220 17ac 0123     		movs	r3, #1
 3221 17ae FB77     		strb	r3, [r7, #31]
 3222 17b0 18E0     		b	.L158
 3223              	.L159:
 407:.\LCD.c       ****                 }
 3224              		.loc 1 407 0 discriminator 3
 3225 17b2 FB7F     		ldrb	r3, [r7, #31]	@ zero_extendqisi2
 3226 17b4 784A     		ldr	r2, .L266+8
 3227 17b6 1344     		add	r3, r3, r2
 3228 17b8 93F80421 		ldrb	r2, [r3, #260]	@ zero_extendqisi2
 3229 17bc FB7F     		ldrb	r3, [r7, #31]	@ zero_extendqisi2
 3230 17be 9BB2     		uxth	r3, r3
 3231 17c0 0D33     		adds	r3, r3, #13
 3232 17c2 9CB2     		uxth	r4, r3
 3233 17c4 F979     		ldrb	r1, [r7, #7]	@ zero_extendqisi2
 3234 17c6 0123     		movs	r3, #1
 3235 17c8 0093     		str	r3, [sp]
 3236 17ca 0023     		movs	r3, #0
 3237 17cc 0193     		str	r3, [sp, #4]
 3238 17ce 4E23     		movs	r3, #78
 3239 17d0 0293     		str	r3, [sp, #8]
 3240 17d2 0846     		mov	r0, r1
 3241 17d4 1146     		mov	r1, r2
 3242 17d6 0C22     		movs	r2, #12
 3243 17d8 2346     		mov	r3, r4
 3244 17da FFF7FEFF 		bl	write_LCD
 406:.\LCD.c       ****                     write_LCD(lcd,bufferLCD2.licenceSale[x],12,x+13,1,0x0000,'N');   //Placa
 3245              		.loc 1 406 0 discriminator 3
 3246 17de FB7F     		ldrb	r3, [r7, #31]	@ zero_extendqisi2
 3247 17e0 0133     		adds	r3, r3, #1
 3248 17e2 FB77     		strb	r3, [r7, #31]
 3249              	.L158:
 406:.\LCD.c       ****                     write_LCD(lcd,bufferLCD2.licenceSale[x],12,x+13,1,0x0000,'N');   //Placa
 3250              		.loc 1 406 0 is_stmt 0 discriminator 1
 3251 17e4 6C4B     		ldr	r3, .L266+8
 3252 17e6 93F80431 		ldrb	r3, [r3, #260]	@ zero_extendqisi2
 3253 17ea FA7F     		ldrb	r2, [r7, #31]	@ zero_extendqisi2
ARM GAS  C:\Users\RECEPC~1\AppData\Local\Temp\ccAuxgaT.s 			page 68


 3254 17ec 9A42     		cmp	r2, r3
 3255 17ee E0D9     		bls	.L159
 409:.\LCD.c       ****                     write_LCD(lcd,bufferLCD2.mileageSale[x],20,x+13,1,0x0000,'N');   //Kilometraje
 3256              		.loc 1 409 0 is_stmt 1
 3257 17f0 0123     		movs	r3, #1
 3258 17f2 FB77     		strb	r3, [r7, #31]
 3259 17f4 18E0     		b	.L160
 3260              	.L161:
 410:.\LCD.c       ****                 }
 3261              		.loc 1 410 0 discriminator 3
 3262 17f6 FB7F     		ldrb	r3, [r7, #31]	@ zero_extendqisi2
 3263 17f8 674A     		ldr	r2, .L266+8
 3264 17fa 1344     		add	r3, r3, r2
 3265 17fc 93F80F21 		ldrb	r2, [r3, #271]	@ zero_extendqisi2
 3266 1800 FB7F     		ldrb	r3, [r7, #31]	@ zero_extendqisi2
 3267 1802 9BB2     		uxth	r3, r3
 3268 1804 0D33     		adds	r3, r3, #13
 3269 1806 9CB2     		uxth	r4, r3
 3270 1808 F979     		ldrb	r1, [r7, #7]	@ zero_extendqisi2
 3271 180a 0123     		movs	r3, #1
 3272 180c 0093     		str	r3, [sp]
 3273 180e 0023     		movs	r3, #0
 3274 1810 0193     		str	r3, [sp, #4]
 3275 1812 4E23     		movs	r3, #78
 3276 1814 0293     		str	r3, [sp, #8]
 3277 1816 0846     		mov	r0, r1
 3278 1818 1146     		mov	r1, r2
 3279 181a 1422     		movs	r2, #20
 3280 181c 2346     		mov	r3, r4
 3281 181e FFF7FEFF 		bl	write_LCD
 409:.\LCD.c       ****                     write_LCD(lcd,bufferLCD2.mileageSale[x],20,x+13,1,0x0000,'N');   //Kilometraje
 3282              		.loc 1 409 0 discriminator 3
 3283 1822 FB7F     		ldrb	r3, [r7, #31]	@ zero_extendqisi2
 3284 1824 0133     		adds	r3, r3, #1
 3285 1826 FB77     		strb	r3, [r7, #31]
 3286              	.L160:
 409:.\LCD.c       ****                     write_LCD(lcd,bufferLCD2.mileageSale[x],20,x+13,1,0x0000,'N');   //Kilometraje
 3287              		.loc 1 409 0 is_stmt 0 discriminator 1
 3288 1828 5B4B     		ldr	r3, .L266+8
 3289 182a 93F80F31 		ldrb	r3, [r3, #271]	@ zero_extendqisi2
 3290 182e FA7F     		ldrb	r2, [r7, #31]	@ zero_extendqisi2
 3291 1830 9A42     		cmp	r2, r3
 3292 1832 E0D9     		bls	.L161
 412:.\LCD.c       ****                     write_LCD(lcd,bufferLCD2.identySale[x],28,x+13,1,0x0000,'N');   //CC/NIT
 3293              		.loc 1 412 0 is_stmt 1
 3294 1834 0123     		movs	r3, #1
 3295 1836 FB77     		strb	r3, [r7, #31]
 3296 1838 18E0     		b	.L162
 3297              	.L163:
 413:.\LCD.c       ****                 }
 3298              		.loc 1 413 0 discriminator 3
 3299 183a FB7F     		ldrb	r3, [r7, #31]	@ zero_extendqisi2
 3300 183c 564A     		ldr	r2, .L266+8
 3301 183e 1344     		add	r3, r3, r2
 3302 1840 93F81A21 		ldrb	r2, [r3, #282]	@ zero_extendqisi2
 3303 1844 FB7F     		ldrb	r3, [r7, #31]	@ zero_extendqisi2
 3304 1846 9BB2     		uxth	r3, r3
ARM GAS  C:\Users\RECEPC~1\AppData\Local\Temp\ccAuxgaT.s 			page 69


 3305 1848 0D33     		adds	r3, r3, #13
 3306 184a 9CB2     		uxth	r4, r3
 3307 184c F979     		ldrb	r1, [r7, #7]	@ zero_extendqisi2
 3308 184e 0123     		movs	r3, #1
 3309 1850 0093     		str	r3, [sp]
 3310 1852 0023     		movs	r3, #0
 3311 1854 0193     		str	r3, [sp, #4]
 3312 1856 4E23     		movs	r3, #78
 3313 1858 0293     		str	r3, [sp, #8]
 3314 185a 0846     		mov	r0, r1
 3315 185c 1146     		mov	r1, r2
 3316 185e 1C22     		movs	r2, #28
 3317 1860 2346     		mov	r3, r4
 3318 1862 FFF7FEFF 		bl	write_LCD
 412:.\LCD.c       ****                     write_LCD(lcd,bufferLCD2.identySale[x],28,x+13,1,0x0000,'N');   //CC/NIT
 3319              		.loc 1 412 0 discriminator 3
 3320 1866 FB7F     		ldrb	r3, [r7, #31]	@ zero_extendqisi2
 3321 1868 0133     		adds	r3, r3, #1
 3322 186a FB77     		strb	r3, [r7, #31]
 3323              	.L162:
 412:.\LCD.c       ****                     write_LCD(lcd,bufferLCD2.identySale[x],28,x+13,1,0x0000,'N');   //CC/NIT
 3324              		.loc 1 412 0 is_stmt 0 discriminator 1
 3325 186c 4A4B     		ldr	r3, .L266+8
 3326 186e 93F81A31 		ldrb	r3, [r3, #282]	@ zero_extendqisi2
 3327 1872 FA7F     		ldrb	r2, [r7, #31]	@ zero_extendqisi2
 3328 1874 9A42     		cmp	r2, r3
 3329 1876 E0D9     		bls	.L163
 415:.\LCD.c       ****                     case 'D':
 3330              		.loc 1 415 0 is_stmt 1
 3331 1878 474B     		ldr	r3, .L266+8
 3332 187a 93F87D30 		ldrb	r3, [r3, #125]	@ zero_extendqisi2
 3333 187e 313B     		subs	r3, r3, #49
 3334 1880 252B     		cmp	r3, #37
 3335 1882 00F27A81 		bhi	.L164
 3336 1886 01A2     		adr	r2, .L166
 3337 1888 52F823F0 		ldr	pc, [r2, r3, lsl #2]
 3338              		.p2align 2
 3339              	.L166:
 3340 188c 671A0000 		.word	.L165+1
 3341 1890 C31A0000 		.word	.L167+1
 3342 1894 1F1B0000 		.word	.L168+1
 3343 1898 7B1B0000 		.word	.L164+1
 3344 189c 7B1B0000 		.word	.L164+1
 3345 18a0 7B1B0000 		.word	.L164+1
 3346 18a4 7B1B0000 		.word	.L164+1
 3347 18a8 7B1B0000 		.word	.L164+1
 3348 18ac 7B1B0000 		.word	.L164+1
 3349 18b0 7B1B0000 		.word	.L164+1
 3350 18b4 7B1B0000 		.word	.L164+1
 3351 18b8 7B1B0000 		.word	.L164+1
 3352 18bc 7B1B0000 		.word	.L164+1
 3353 18c0 7B1B0000 		.word	.L164+1
 3354 18c4 7B1B0000 		.word	.L164+1
 3355 18c8 7B1B0000 		.word	.L164+1
 3356 18cc 7B1B0000 		.word	.L164+1
 3357 18d0 7B1B0000 		.word	.L164+1
 3358 18d4 7B1B0000 		.word	.L164+1
ARM GAS  C:\Users\RECEPC~1\AppData\Local\Temp\ccAuxgaT.s 			page 70


 3359 18d8 25190000 		.word	.L169+1
 3360 18dc 7B1B0000 		.word	.L164+1
 3361 18e0 011A0000 		.word	.L170+1
 3362 18e4 7B1B0000 		.word	.L164+1
 3363 18e8 7B1B0000 		.word	.L164+1
 3364 18ec 7B1B0000 		.word	.L164+1
 3365 18f0 7B1B0000 		.word	.L164+1
 3366 18f4 7B1B0000 		.word	.L164+1
 3367 18f8 7B1B0000 		.word	.L164+1
 3368 18fc 7B1B0000 		.word	.L164+1
 3369 1900 7B1B0000 		.word	.L164+1
 3370 1904 7B1B0000 		.word	.L164+1
 3371 1908 7B1B0000 		.word	.L164+1
 3372 190c 7B1B0000 		.word	.L164+1
 3373 1910 7B1B0000 		.word	.L164+1
 3374 1914 7B1B0000 		.word	.L164+1
 3375 1918 7B1B0000 		.word	.L164+1
 3376 191c 7B1B0000 		.word	.L164+1
 3377 1920 8B190000 		.word	.L171+1
 3378              		.p2align 1
 3379              	.L169:
 417:.\LCD.c       ****                             write_LCD(lcd,button[14][x],2,x+40,0,0x2110,'Y');   //Nombre de boton D
 3380              		.loc 1 417 0
 3381 1924 0023     		movs	r3, #0
 3382 1926 FB77     		strb	r3, [r7, #31]
 3383 1928 1AE0     		b	.L172
 3384              	.L173:
 418:.\LCD.c       ****                         }
 3385              		.loc 1 418 0 discriminator 3
 3386 192a FB7F     		ldrb	r3, [r7, #31]	@ zero_extendqisi2
 3387 192c 1B4A     		ldr	r2, .L266+12
 3388 192e 1344     		add	r3, r3, r2
 3389 1930 93F87030 		ldrb	r3, [r3, #112]
 3390 1934 DAB2     		uxtb	r2, r3
 3391 1936 FB7F     		ldrb	r3, [r7, #31]	@ zero_extendqisi2
 3392 1938 9BB2     		uxth	r3, r3
 3393 193a 2833     		adds	r3, r3, #40
 3394 193c 9CB2     		uxth	r4, r3
 3395 193e F979     		ldrb	r1, [r7, #7]	@ zero_extendqisi2
 3396 1940 0023     		movs	r3, #0
 3397 1942 0093     		str	r3, [sp]
 3398 1944 42F21013 		movw	r3, #8464
 3399 1948 0193     		str	r3, [sp, #4]
 3400 194a 5923     		movs	r3, #89
 3401 194c 0293     		str	r3, [sp, #8]
 3402 194e 0846     		mov	r0, r1
 3403 1950 1146     		mov	r1, r2
 3404 1952 0222     		movs	r2, #2
 3405 1954 2346     		mov	r3, r4
 3406 1956 FFF7FEFF 		bl	write_LCD
 417:.\LCD.c       ****                             write_LCD(lcd,button[14][x],2,x+40,0,0x2110,'Y');   //Nombre de boton D
 3407              		.loc 1 417 0 discriminator 3
 3408 195a FB7F     		ldrb	r3, [r7, #31]	@ zero_extendqisi2
 3409 195c 0133     		adds	r3, r3, #1
 3410 195e FB77     		strb	r3, [r7, #31]
 3411              	.L172:
 417:.\LCD.c       ****                             write_LCD(lcd,button[14][x],2,x+40,0,0x2110,'Y');   //Nombre de boton D
ARM GAS  C:\Users\RECEPC~1\AppData\Local\Temp\ccAuxgaT.s 			page 71


 3412              		.loc 1 417 0 is_stmt 0 discriminator 1
 3413 1960 FB7F     		ldrb	r3, [r7, #31]	@ zero_extendqisi2
 3414 1962 072B     		cmp	r3, #7
 3415 1964 E1D9     		bls	.L173
 420:.\LCD.c       ****                     break;
 3416              		.loc 1 420 0 is_stmt 1
 3417 1966 0A4B     		ldr	r3, .L266
 3418 1968 1B78     		ldrb	r3, [r3]
 3419 196a DAB2     		uxtb	r2, r3
 3420 196c F979     		ldrb	r1, [r7, #7]	@ zero_extendqisi2
 3421 196e 0123     		movs	r3, #1
 3422 1970 0093     		str	r3, [sp]
 3423 1972 4FF45043 		mov	r3, #53248
 3424 1976 0193     		str	r3, [sp, #4]
 3425 1978 5923     		movs	r3, #89
 3426 197a 0293     		str	r3, [sp, #8]
 3427 197c 0846     		mov	r0, r1
 3428 197e 1146     		mov	r1, r2
 3429 1980 0422     		movs	r2, #4
 3430 1982 1023     		movs	r3, #16
 3431 1984 FFF7FEFF 		bl	write_LCD
 421:.\LCD.c       ****                     
 3432              		.loc 1 421 0
 3433 1988 F7E0     		b	.L164
 3434              	.L171:
 424:.\LCD.c       ****                             write_LCD(lcd,button[15][x],2,x+40,0,0x2110,'Y');   //Nombre de boton V
 3435              		.loc 1 424 0
 3436 198a 0023     		movs	r3, #0
 3437 198c FB77     		strb	r3, [r7, #31]
 3438 198e 22E0     		b	.L174
 3439              	.L267:
 3440              		.align	2
 3441              	.L266:
 3442 1990 00000000 		.word	symbols
 3443 1994 00000000 		.word	bufferLCD1
 3444 1998 00000000 		.word	bufferLCD2
 3445 199c 00000000 		.word	button
 3446              	.L175:
 425:.\LCD.c       ****                         }
 3447              		.loc 1 425 0 discriminator 3
 3448 19a0 FB7F     		ldrb	r3, [r7, #31]	@ zero_extendqisi2
 3449 19a2 AF4A     		ldr	r2, .L268
 3450 19a4 1344     		add	r3, r3, r2
 3451 19a6 93F87830 		ldrb	r3, [r3, #120]
 3452 19aa DAB2     		uxtb	r2, r3
 3453 19ac FB7F     		ldrb	r3, [r7, #31]	@ zero_extendqisi2
 3454 19ae 9BB2     		uxth	r3, r3
 3455 19b0 2833     		adds	r3, r3, #40
 3456 19b2 9CB2     		uxth	r4, r3
 3457 19b4 F979     		ldrb	r1, [r7, #7]	@ zero_extendqisi2
 3458 19b6 0023     		movs	r3, #0
 3459 19b8 0093     		str	r3, [sp]
 3460 19ba 42F21013 		movw	r3, #8464
 3461 19be 0193     		str	r3, [sp, #4]
 3462 19c0 5923     		movs	r3, #89
 3463 19c2 0293     		str	r3, [sp, #8]
 3464 19c4 0846     		mov	r0, r1
ARM GAS  C:\Users\RECEPC~1\AppData\Local\Temp\ccAuxgaT.s 			page 72


 3465 19c6 1146     		mov	r1, r2
 3466 19c8 0222     		movs	r2, #2
 3467 19ca 2346     		mov	r3, r4
 3468 19cc FFF7FEFF 		bl	write_LCD
 424:.\LCD.c       ****                             write_LCD(lcd,button[15][x],2,x+40,0,0x2110,'Y');   //Nombre de boton V
 3469              		.loc 1 424 0 discriminator 3
 3470 19d0 FB7F     		ldrb	r3, [r7, #31]	@ zero_extendqisi2
 3471 19d2 0133     		adds	r3, r3, #1
 3472 19d4 FB77     		strb	r3, [r7, #31]
 3473              	.L174:
 424:.\LCD.c       ****                             write_LCD(lcd,button[15][x],2,x+40,0,0x2110,'Y');   //Nombre de boton V
 3474              		.loc 1 424 0 is_stmt 0 discriminator 1
 3475 19d6 FB7F     		ldrb	r3, [r7, #31]	@ zero_extendqisi2
 3476 19d8 072B     		cmp	r3, #7
 3477 19da E1D9     		bls	.L175
 427:.\LCD.c       ****                     break;
 3478              		.loc 1 427 0 is_stmt 1
 3479 19dc A14B     		ldr	r3, .L268+4
 3480 19de 5B78     		ldrb	r3, [r3, #1]
 3481 19e0 DAB2     		uxtb	r2, r3
 3482 19e2 F979     		ldrb	r1, [r7, #7]	@ zero_extendqisi2
 3483 19e4 0123     		movs	r3, #1
 3484 19e6 0093     		str	r3, [sp]
 3485 19e8 4FF45043 		mov	r3, #53248
 3486 19ec 0193     		str	r3, [sp, #4]
 3487 19ee 5923     		movs	r3, #89
 3488 19f0 0293     		str	r3, [sp, #8]
 3489 19f2 0846     		mov	r0, r1
 3490 19f4 1146     		mov	r1, r2
 3491 19f6 0422     		movs	r2, #4
 3492 19f8 1023     		movs	r3, #16
 3493 19fa FFF7FEFF 		bl	write_LCD
 428:.\LCD.c       ****                         
 3494              		.loc 1 428 0
 3495 19fe BCE0     		b	.L164
 3496              	.L170:
 431:.\LCD.c       ****                             write_LCD(lcd,button[16][x],2,x+40,0,0x2110,'Y');   //Nombre de boton L
 3497              		.loc 1 431 0
 3498 1a00 0023     		movs	r3, #0
 3499 1a02 FB77     		strb	r3, [r7, #31]
 3500 1a04 1AE0     		b	.L176
 3501              	.L177:
 432:.\LCD.c       ****                         }
 3502              		.loc 1 432 0 discriminator 3
 3503 1a06 FB7F     		ldrb	r3, [r7, #31]	@ zero_extendqisi2
 3504 1a08 954A     		ldr	r2, .L268
 3505 1a0a 1344     		add	r3, r3, r2
 3506 1a0c 93F88030 		ldrb	r3, [r3, #128]
 3507 1a10 DAB2     		uxtb	r2, r3
 3508 1a12 FB7F     		ldrb	r3, [r7, #31]	@ zero_extendqisi2
 3509 1a14 9BB2     		uxth	r3, r3
 3510 1a16 2833     		adds	r3, r3, #40
 3511 1a18 9CB2     		uxth	r4, r3
 3512 1a1a F979     		ldrb	r1, [r7, #7]	@ zero_extendqisi2
 3513 1a1c 0023     		movs	r3, #0
 3514 1a1e 0093     		str	r3, [sp]
 3515 1a20 42F21013 		movw	r3, #8464
ARM GAS  C:\Users\RECEPC~1\AppData\Local\Temp\ccAuxgaT.s 			page 73


 3516 1a24 0193     		str	r3, [sp, #4]
 3517 1a26 5923     		movs	r3, #89
 3518 1a28 0293     		str	r3, [sp, #8]
 3519 1a2a 0846     		mov	r0, r1
 3520 1a2c 1146     		mov	r1, r2
 3521 1a2e 0222     		movs	r2, #2
 3522 1a30 2346     		mov	r3, r4
 3523 1a32 FFF7FEFF 		bl	write_LCD
 431:.\LCD.c       ****                             write_LCD(lcd,button[16][x],2,x+40,0,0x2110,'Y');   //Nombre de boton L
 3524              		.loc 1 431 0 discriminator 3
 3525 1a36 FB7F     		ldrb	r3, [r7, #31]	@ zero_extendqisi2
 3526 1a38 0133     		adds	r3, r3, #1
 3527 1a3a FB77     		strb	r3, [r7, #31]
 3528              	.L176:
 431:.\LCD.c       ****                             write_LCD(lcd,button[16][x],2,x+40,0,0x2110,'Y');   //Nombre de boton L
 3529              		.loc 1 431 0 is_stmt 0 discriminator 1
 3530 1a3c FB7F     		ldrb	r3, [r7, #31]	@ zero_extendqisi2
 3531 1a3e 072B     		cmp	r3, #7
 3532 1a40 E1D9     		bls	.L177
 434:.\LCD.c       ****                     break;
 3533              		.loc 1 434 0 is_stmt 1
 3534 1a42 884B     		ldr	r3, .L268+4
 3535 1a44 1B78     		ldrb	r3, [r3]
 3536 1a46 DAB2     		uxtb	r2, r3
 3537 1a48 F979     		ldrb	r1, [r7, #7]	@ zero_extendqisi2
 3538 1a4a 0123     		movs	r3, #1
 3539 1a4c 0093     		str	r3, [sp]
 3540 1a4e 4FF45043 		mov	r3, #53248
 3541 1a52 0193     		str	r3, [sp, #4]
 3542 1a54 5923     		movs	r3, #89
 3543 1a56 0293     		str	r3, [sp, #8]
 3544 1a58 0846     		mov	r0, r1
 3545 1a5a 1146     		mov	r1, r2
 3546 1a5c 0422     		movs	r2, #4
 3547 1a5e 1023     		movs	r3, #16
 3548 1a60 FFF7FEFF 		bl	write_LCD
 435:.\LCD.c       ****                     
 3549              		.loc 1 435 0
 3550 1a64 89E0     		b	.L164
 3551              	.L165:
 438:.\LCD.c       ****                         write_LCD(lcd,'1',2,41,0,0x2110,'Y');   //Nombre de boton P1
 3552              		.loc 1 438 0
 3553 1a66 FA79     		ldrb	r2, [r7, #7]	@ zero_extendqisi2
 3554 1a68 0023     		movs	r3, #0
 3555 1a6a 0093     		str	r3, [sp]
 3556 1a6c 42F21013 		movw	r3, #8464
 3557 1a70 0193     		str	r3, [sp, #4]
 3558 1a72 5923     		movs	r3, #89
 3559 1a74 0293     		str	r3, [sp, #8]
 3560 1a76 1046     		mov	r0, r2
 3561 1a78 5021     		movs	r1, #80
 3562 1a7a 0222     		movs	r2, #2
 3563 1a7c 2823     		movs	r3, #40
 3564 1a7e FFF7FEFF 		bl	write_LCD
 439:.\LCD.c       ****                         write_LCD(lcd,symbols[0],4,16,1,0xD000,'Y');   //Simbolo de dinero
 3565              		.loc 1 439 0
 3566 1a82 FA79     		ldrb	r2, [r7, #7]	@ zero_extendqisi2
ARM GAS  C:\Users\RECEPC~1\AppData\Local\Temp\ccAuxgaT.s 			page 74


 3567 1a84 0023     		movs	r3, #0
 3568 1a86 0093     		str	r3, [sp]
 3569 1a88 42F21013 		movw	r3, #8464
 3570 1a8c 0193     		str	r3, [sp, #4]
 3571 1a8e 5923     		movs	r3, #89
 3572 1a90 0293     		str	r3, [sp, #8]
 3573 1a92 1046     		mov	r0, r2
 3574 1a94 3121     		movs	r1, #49
 3575 1a96 0222     		movs	r2, #2
 3576 1a98 2923     		movs	r3, #41
 3577 1a9a FFF7FEFF 		bl	write_LCD
 440:.\LCD.c       ****                     break;
 3578              		.loc 1 440 0
 3579 1a9e 714B     		ldr	r3, .L268+4
 3580 1aa0 1B78     		ldrb	r3, [r3]
 3581 1aa2 DAB2     		uxtb	r2, r3
 3582 1aa4 F979     		ldrb	r1, [r7, #7]	@ zero_extendqisi2
 3583 1aa6 0123     		movs	r3, #1
 3584 1aa8 0093     		str	r3, [sp]
 3585 1aaa 4FF45043 		mov	r3, #53248
 3586 1aae 0193     		str	r3, [sp, #4]
 3587 1ab0 5923     		movs	r3, #89
 3588 1ab2 0293     		str	r3, [sp, #8]
 3589 1ab4 0846     		mov	r0, r1
 3590 1ab6 1146     		mov	r1, r2
 3591 1ab8 0422     		movs	r2, #4
 3592 1aba 1023     		movs	r3, #16
 3593 1abc FFF7FEFF 		bl	write_LCD
 441:.\LCD.c       ****                     
 3594              		.loc 1 441 0
 3595 1ac0 5BE0     		b	.L164
 3596              	.L167:
 444:.\LCD.c       ****                         write_LCD(lcd,'2',2,41,0,0x2110,'Y');   //Nombre de boton P1
 3597              		.loc 1 444 0
 3598 1ac2 FA79     		ldrb	r2, [r7, #7]	@ zero_extendqisi2
 3599 1ac4 0023     		movs	r3, #0
 3600 1ac6 0093     		str	r3, [sp]
 3601 1ac8 42F21013 		movw	r3, #8464
 3602 1acc 0193     		str	r3, [sp, #4]
 3603 1ace 5923     		movs	r3, #89
 3604 1ad0 0293     		str	r3, [sp, #8]
 3605 1ad2 1046     		mov	r0, r2
 3606 1ad4 5021     		movs	r1, #80
 3607 1ad6 0222     		movs	r2, #2
 3608 1ad8 2823     		movs	r3, #40
 3609 1ada FFF7FEFF 		bl	write_LCD
 445:.\LCD.c       ****                         write_LCD(lcd,symbols[0],4,16,1,0xD000,'Y');   //Simbolo de dinero
 3610              		.loc 1 445 0
 3611 1ade FA79     		ldrb	r2, [r7, #7]	@ zero_extendqisi2
 3612 1ae0 0023     		movs	r3, #0
 3613 1ae2 0093     		str	r3, [sp]
 3614 1ae4 42F21013 		movw	r3, #8464
 3615 1ae8 0193     		str	r3, [sp, #4]
 3616 1aea 5923     		movs	r3, #89
 3617 1aec 0293     		str	r3, [sp, #8]
 3618 1aee 1046     		mov	r0, r2
 3619 1af0 3221     		movs	r1, #50
ARM GAS  C:\Users\RECEPC~1\AppData\Local\Temp\ccAuxgaT.s 			page 75


 3620 1af2 0222     		movs	r2, #2
 3621 1af4 2923     		movs	r3, #41
 3622 1af6 FFF7FEFF 		bl	write_LCD
 446:.\LCD.c       ****                     break;
 3623              		.loc 1 446 0
 3624 1afa 5A4B     		ldr	r3, .L268+4
 3625 1afc 1B78     		ldrb	r3, [r3]
 3626 1afe DAB2     		uxtb	r2, r3
 3627 1b00 F979     		ldrb	r1, [r7, #7]	@ zero_extendqisi2
 3628 1b02 0123     		movs	r3, #1
 3629 1b04 0093     		str	r3, [sp]
 3630 1b06 4FF45043 		mov	r3, #53248
 3631 1b0a 0193     		str	r3, [sp, #4]
 3632 1b0c 5923     		movs	r3, #89
 3633 1b0e 0293     		str	r3, [sp, #8]
 3634 1b10 0846     		mov	r0, r1
 3635 1b12 1146     		mov	r1, r2
 3636 1b14 0422     		movs	r2, #4
 3637 1b16 1023     		movs	r3, #16
 3638 1b18 FFF7FEFF 		bl	write_LCD
 447:.\LCD.c       ****                     
 3639              		.loc 1 447 0
 3640 1b1c 2DE0     		b	.L164
 3641              	.L168:
 450:.\LCD.c       ****                         write_LCD(lcd,'3',2,41,0,0x2110,'Y');   //Nombre de boton P1
 3642              		.loc 1 450 0
 3643 1b1e FA79     		ldrb	r2, [r7, #7]	@ zero_extendqisi2
 3644 1b20 0023     		movs	r3, #0
 3645 1b22 0093     		str	r3, [sp]
 3646 1b24 42F21013 		movw	r3, #8464
 3647 1b28 0193     		str	r3, [sp, #4]
 3648 1b2a 5923     		movs	r3, #89
 3649 1b2c 0293     		str	r3, [sp, #8]
 3650 1b2e 1046     		mov	r0, r2
 3651 1b30 5021     		movs	r1, #80
 3652 1b32 0222     		movs	r2, #2
 3653 1b34 2823     		movs	r3, #40
 3654 1b36 FFF7FEFF 		bl	write_LCD
 451:.\LCD.c       ****                         write_LCD(lcd,symbols[0],4,16,1,0xD000,'Y');   //Simbolo de dinero
 3655              		.loc 1 451 0
 3656 1b3a FA79     		ldrb	r2, [r7, #7]	@ zero_extendqisi2
 3657 1b3c 0023     		movs	r3, #0
 3658 1b3e 0093     		str	r3, [sp]
 3659 1b40 42F21013 		movw	r3, #8464
 3660 1b44 0193     		str	r3, [sp, #4]
 3661 1b46 5923     		movs	r3, #89
 3662 1b48 0293     		str	r3, [sp, #8]
 3663 1b4a 1046     		mov	r0, r2
 3664 1b4c 3321     		movs	r1, #51
 3665 1b4e 0222     		movs	r2, #2
 3666 1b50 2923     		movs	r3, #41
 3667 1b52 FFF7FEFF 		bl	write_LCD
 452:.\LCD.c       ****                     break;
 3668              		.loc 1 452 0
 3669 1b56 434B     		ldr	r3, .L268+4
 3670 1b58 1B78     		ldrb	r3, [r3]
 3671 1b5a DAB2     		uxtb	r2, r3
ARM GAS  C:\Users\RECEPC~1\AppData\Local\Temp\ccAuxgaT.s 			page 76


 3672 1b5c F979     		ldrb	r1, [r7, #7]	@ zero_extendqisi2
 3673 1b5e 0123     		movs	r3, #1
 3674 1b60 0093     		str	r3, [sp]
 3675 1b62 4FF45043 		mov	r3, #53248
 3676 1b66 0193     		str	r3, [sp, #4]
 3677 1b68 5923     		movs	r3, #89
 3678 1b6a 0293     		str	r3, [sp, #8]
 3679 1b6c 0846     		mov	r0, r1
 3680 1b6e 1146     		mov	r1, r2
 3681 1b70 0422     		movs	r2, #4
 3682 1b72 1023     		movs	r3, #16
 3683 1b74 FFF7FEFF 		bl	write_LCD
 453:.\LCD.c       ****                 }
 3684              		.loc 1 453 0
 3685 1b78 00BF     		nop
 3686              	.L164:
 455:.\LCD.c       ****                 for(x=1;x<=bufferLCD2.presetValue[1][0];x++){
 3687              		.loc 1 455 0
 3688 1b7a 0023     		movs	r3, #0
 3689 1b7c 7B77     		strb	r3, [r7, #29]
 456:.\LCD.c       ****                     if(bufferLCD2.presetValue[1][x]=='0' && flag==0){
 3690              		.loc 1 456 0
 3691 1b7e 0123     		movs	r3, #1
 3692 1b80 FB77     		strb	r3, [r7, #31]
 3693 1b82 26E0     		b	.L178
 3694              	.L181:
 457:.\LCD.c       ****                     }else{
 3695              		.loc 1 457 0
 3696 1b84 FB7F     		ldrb	r3, [r7, #31]	@ zero_extendqisi2
 3697 1b86 384A     		ldr	r2, .L268+8
 3698 1b88 1344     		add	r3, r3, r2
 3699 1b8a 93F88830 		ldrb	r3, [r3, #136]	@ zero_extendqisi2
 3700 1b8e 302B     		cmp	r3, #48
 3701 1b90 03D1     		bne	.L179
 457:.\LCD.c       ****                     }else{
 3702              		.loc 1 457 0 is_stmt 0 discriminator 1
 3703 1b92 7B7F     		ldrb	r3, [r7, #29]	@ zero_extendqisi2
 3704 1b94 002B     		cmp	r3, #0
 3705 1b96 00D1     		bne	.L179
 457:.\LCD.c       ****                     }else{
 3706              		.loc 1 457 0
 3707 1b98 18E0     		b	.L180
 3708              	.L179:
 459:.\LCD.c       ****                         flag=1;
 3709              		.loc 1 459 0 is_stmt 1
 3710 1b9a FB7F     		ldrb	r3, [r7, #31]	@ zero_extendqisi2
 3711 1b9c 324A     		ldr	r2, .L268+8
 3712 1b9e 1344     		add	r3, r3, r2
 3713 1ba0 93F88820 		ldrb	r2, [r3, #136]	@ zero_extendqisi2
 3714 1ba4 FB7F     		ldrb	r3, [r7, #31]	@ zero_extendqisi2
 3715 1ba6 9BB2     		uxth	r3, r3
 3716 1ba8 1033     		adds	r3, r3, #16
 3717 1baa 9CB2     		uxth	r4, r3
 3718 1bac F979     		ldrb	r1, [r7, #7]	@ zero_extendqisi2
 3719 1bae 0123     		movs	r3, #1
 3720 1bb0 0093     		str	r3, [sp]
 3721 1bb2 42F21013 		movw	r3, #8464
ARM GAS  C:\Users\RECEPC~1\AppData\Local\Temp\ccAuxgaT.s 			page 77


 3722 1bb6 0193     		str	r3, [sp, #4]
 3723 1bb8 5923     		movs	r3, #89
 3724 1bba 0293     		str	r3, [sp, #8]
 3725 1bbc 0846     		mov	r0, r1
 3726 1bbe 1146     		mov	r1, r2
 3727 1bc0 0422     		movs	r2, #4
 3728 1bc2 2346     		mov	r3, r4
 3729 1bc4 FFF7FEFF 		bl	write_LCD
 460:.\LCD.c       ****                     }
 3730              		.loc 1 460 0
 3731 1bc8 0123     		movs	r3, #1
 3732 1bca 7B77     		strb	r3, [r7, #29]
 3733              	.L180:
 456:.\LCD.c       ****                     if(bufferLCD2.presetValue[1][x]=='0' && flag==0){
 3734              		.loc 1 456 0 discriminator 2
 3735 1bcc FB7F     		ldrb	r3, [r7, #31]	@ zero_extendqisi2
 3736 1bce 0133     		adds	r3, r3, #1
 3737 1bd0 FB77     		strb	r3, [r7, #31]
 3738              	.L178:
 456:.\LCD.c       ****                     if(bufferLCD2.presetValue[1][x]=='0' && flag==0){
 3739              		.loc 1 456 0 is_stmt 0 discriminator 1
 3740 1bd2 254B     		ldr	r3, .L268+8
 3741 1bd4 93F88830 		ldrb	r3, [r3, #136]	@ zero_extendqisi2
 3742 1bd8 FA7F     		ldrb	r2, [r7, #31]	@ zero_extendqisi2
 3743 1bda 9A42     		cmp	r2, r3
 3744 1bdc D2D9     		bls	.L181
 3745              		.loc 1 464 0 is_stmt 1 discriminator 13
 3746 1bde 01F0C0BB 		b	.L16
 3747              	.L27:
 465:.\LCD.c       ****             
 466:.\LCD.c       ****         case '3'://Teclado Placa
 467:.\LCD.c       ****             for(x=0;x<8;x++){
 3748              		.loc 1 467 0
 3749 1be2 0023     		movs	r3, #0
 3750 1be4 FB77     		strb	r3, [r7, #31]
 3751 1be6 32E0     		b	.L182
 3752              	.L183:
 468:.\LCD.c       ****                 write_LCD(lcd,button[38][x],7,x+6,1,0x2110,'Y');   //Nombre de imagen Teclado Placa
 3753              		.loc 1 468 0 discriminator 3
 3754 1be8 FB7F     		ldrb	r3, [r7, #31]	@ zero_extendqisi2
 3755 1bea 1D4A     		ldr	r2, .L268
 3756 1bec 1344     		add	r3, r3, r2
 3757 1bee 93F83031 		ldrb	r3, [r3, #304]
 3758 1bf2 DAB2     		uxtb	r2, r3
 3759 1bf4 FB7F     		ldrb	r3, [r7, #31]	@ zero_extendqisi2
 3760 1bf6 9BB2     		uxth	r3, r3
 3761 1bf8 0633     		adds	r3, r3, #6
 3762 1bfa 9CB2     		uxth	r4, r3
 3763 1bfc F979     		ldrb	r1, [r7, #7]	@ zero_extendqisi2
 3764 1bfe 0123     		movs	r3, #1
 3765 1c00 0093     		str	r3, [sp]
 3766 1c02 42F21013 		movw	r3, #8464
 3767 1c06 0193     		str	r3, [sp, #4]
 3768 1c08 5923     		movs	r3, #89
 3769 1c0a 0293     		str	r3, [sp, #8]
 3770 1c0c 0846     		mov	r0, r1
 3771 1c0e 1146     		mov	r1, r2
ARM GAS  C:\Users\RECEPC~1\AppData\Local\Temp\ccAuxgaT.s 			page 78


 3772 1c10 0722     		movs	r2, #7
 3773 1c12 2346     		mov	r3, r4
 3774 1c14 FFF7FEFF 		bl	write_LCD
 469:.\LCD.c       ****                 write_LCD(lcd,button[39][x],7,x+14,1,0x2110,'Y');   //Nombre de imagen Teclado Plac
 3775              		.loc 1 469 0 discriminator 3
 3776 1c18 FB7F     		ldrb	r3, [r7, #31]	@ zero_extendqisi2
 3777 1c1a 114A     		ldr	r2, .L268
 3778 1c1c 1344     		add	r3, r3, r2
 3779 1c1e 93F83831 		ldrb	r3, [r3, #312]
 3780 1c22 DAB2     		uxtb	r2, r3
 3781 1c24 FB7F     		ldrb	r3, [r7, #31]	@ zero_extendqisi2
 3782 1c26 9BB2     		uxth	r3, r3
 3783 1c28 0E33     		adds	r3, r3, #14
 3784 1c2a 9CB2     		uxth	r4, r3
 3785 1c2c F979     		ldrb	r1, [r7, #7]	@ zero_extendqisi2
 3786 1c2e 0123     		movs	r3, #1
 3787 1c30 0093     		str	r3, [sp]
 3788 1c32 42F21013 		movw	r3, #8464
 3789 1c36 0193     		str	r3, [sp, #4]
 3790 1c38 5923     		movs	r3, #89
 3791 1c3a 0293     		str	r3, [sp, #8]
 3792 1c3c 0846     		mov	r0, r1
 3793 1c3e 1146     		mov	r1, r2
 3794 1c40 0722     		movs	r2, #7
 3795 1c42 2346     		mov	r3, r4
 3796 1c44 FFF7FEFF 		bl	write_LCD
 467:.\LCD.c       ****                 write_LCD(lcd,button[38][x],7,x+6,1,0x2110,'Y');   //Nombre de imagen Teclado Placa
 3797              		.loc 1 467 0 discriminator 3
 3798 1c48 FB7F     		ldrb	r3, [r7, #31]	@ zero_extendqisi2
 3799 1c4a 0133     		adds	r3, r3, #1
 3800 1c4c FB77     		strb	r3, [r7, #31]
 3801              	.L182:
 467:.\LCD.c       ****                 write_LCD(lcd,button[38][x],7,x+6,1,0x2110,'Y');   //Nombre de imagen Teclado Placa
 3802              		.loc 1 467 0 is_stmt 0 discriminator 1
 3803 1c4e FB7F     		ldrb	r3, [r7, #31]	@ zero_extendqisi2
 3804 1c50 072B     		cmp	r3, #7
 3805 1c52 C9D9     		bls	.L183
 470:.\LCD.c       ****             }
 471:.\LCD.c       ****         break;
 3806              		.loc 1 471 0 is_stmt 1 discriminator 15
 3807 1c54 01F085BB 		b	.L16
 3808              	.L28:
 472:.\LCD.c       ****             
 473:.\LCD.c       ****         case '4'://Teclado Kilometraje
 474:.\LCD.c       ****             for(x=0;x<8;x++){
 3809              		.loc 1 474 0
 3810 1c58 0023     		movs	r3, #0
 3811 1c5a FB77     		strb	r3, [r7, #31]
 3812 1c5c 51E0     		b	.L184
 3813              	.L269:
 3814 1c5e 00BF     		.align	2
 3815              	.L268:
 3816 1c60 00000000 		.word	button
 3817 1c64 00000000 		.word	symbols
 3818 1c68 00000000 		.word	bufferLCD2
 3819              	.L185:
 475:.\LCD.c       ****                 write_LCD(lcd,button[40][x],14,x+1,2,0x2110,'Y');   //Nombre de imagen Teclado Kilo
ARM GAS  C:\Users\RECEPC~1\AppData\Local\Temp\ccAuxgaT.s 			page 79


 3820              		.loc 1 475 0 discriminator 3
 3821 1c6c FB7F     		ldrb	r3, [r7, #31]	@ zero_extendqisi2
 3822 1c6e 9F4A     		ldr	r2, .L270
 3823 1c70 1344     		add	r3, r3, r2
 3824 1c72 93F84031 		ldrb	r3, [r3, #320]
 3825 1c76 DAB2     		uxtb	r2, r3
 3826 1c78 FB7F     		ldrb	r3, [r7, #31]	@ zero_extendqisi2
 3827 1c7a 9BB2     		uxth	r3, r3
 3828 1c7c 0133     		adds	r3, r3, #1
 3829 1c7e 9CB2     		uxth	r4, r3
 3830 1c80 F979     		ldrb	r1, [r7, #7]	@ zero_extendqisi2
 3831 1c82 0223     		movs	r3, #2
 3832 1c84 0093     		str	r3, [sp]
 3833 1c86 42F21013 		movw	r3, #8464
 3834 1c8a 0193     		str	r3, [sp, #4]
 3835 1c8c 5923     		movs	r3, #89
 3836 1c8e 0293     		str	r3, [sp, #8]
 3837 1c90 0846     		mov	r0, r1
 3838 1c92 1146     		mov	r1, r2
 3839 1c94 0E22     		movs	r2, #14
 3840 1c96 2346     		mov	r3, r4
 3841 1c98 FFF7FEFF 		bl	write_LCD
 476:.\LCD.c       ****                 write_LCD(lcd,button[41][x],18,x+1,2,0x2110,'Y');   //Nombre de imagen Teclado Kilo
 3842              		.loc 1 476 0 discriminator 3
 3843 1c9c FB7F     		ldrb	r3, [r7, #31]	@ zero_extendqisi2
 3844 1c9e 934A     		ldr	r2, .L270
 3845 1ca0 1344     		add	r3, r3, r2
 3846 1ca2 93F84831 		ldrb	r3, [r3, #328]
 3847 1ca6 DAB2     		uxtb	r2, r3
 3848 1ca8 FB7F     		ldrb	r3, [r7, #31]	@ zero_extendqisi2
 3849 1caa 9BB2     		uxth	r3, r3
 3850 1cac 0133     		adds	r3, r3, #1
 3851 1cae 9CB2     		uxth	r4, r3
 3852 1cb0 F979     		ldrb	r1, [r7, #7]	@ zero_extendqisi2
 3853 1cb2 0223     		movs	r3, #2
 3854 1cb4 0093     		str	r3, [sp]
 3855 1cb6 42F21013 		movw	r3, #8464
 3856 1cba 0193     		str	r3, [sp, #4]
 3857 1cbc 5923     		movs	r3, #89
 3858 1cbe 0293     		str	r3, [sp, #8]
 3859 1cc0 0846     		mov	r0, r1
 3860 1cc2 1146     		mov	r1, r2
 3861 1cc4 1222     		movs	r2, #18
 3862 1cc6 2346     		mov	r3, r4
 3863 1cc8 FFF7FEFF 		bl	write_LCD
 477:.\LCD.c       ****                 write_LCD(lcd,token[x],22,x+1,2,0x2110,'Y');   //Nombre de imagen Teclado Kilometra
 3864              		.loc 1 477 0 discriminator 3
 3865 1ccc FB7F     		ldrb	r3, [r7, #31]	@ zero_extendqisi2
 3866 1cce 07F12002 		add	r2, r7, #32
 3867 1cd2 1344     		add	r3, r3, r2
 3868 1cd4 13F8142C 		ldrb	r2, [r3, #-20]	@ zero_extendqisi2
 3869 1cd8 FB7F     		ldrb	r3, [r7, #31]	@ zero_extendqisi2
 3870 1cda 9BB2     		uxth	r3, r3
 3871 1cdc 0133     		adds	r3, r3, #1
 3872 1cde 9CB2     		uxth	r4, r3
 3873 1ce0 F979     		ldrb	r1, [r7, #7]	@ zero_extendqisi2
 3874 1ce2 0223     		movs	r3, #2
ARM GAS  C:\Users\RECEPC~1\AppData\Local\Temp\ccAuxgaT.s 			page 80


 3875 1ce4 0093     		str	r3, [sp]
 3876 1ce6 42F21013 		movw	r3, #8464
 3877 1cea 0193     		str	r3, [sp, #4]
 3878 1cec 5923     		movs	r3, #89
 3879 1cee 0293     		str	r3, [sp, #8]
 3880 1cf0 0846     		mov	r0, r1
 3881 1cf2 1146     		mov	r1, r2
 3882 1cf4 1622     		movs	r2, #22
 3883 1cf6 2346     		mov	r3, r4
 3884 1cf8 FFF7FEFF 		bl	write_LCD
 474:.\LCD.c       ****                 write_LCD(lcd,button[40][x],14,x+1,2,0x2110,'Y');   //Nombre de imagen Teclado Kilo
 3885              		.loc 1 474 0 discriminator 3
 3886 1cfc FB7F     		ldrb	r3, [r7, #31]	@ zero_extendqisi2
 3887 1cfe 0133     		adds	r3, r3, #1
 3888 1d00 FB77     		strb	r3, [r7, #31]
 3889              	.L184:
 474:.\LCD.c       ****                 write_LCD(lcd,button[40][x],14,x+1,2,0x2110,'Y');   //Nombre de imagen Teclado Kilo
 3890              		.loc 1 474 0 is_stmt 0 discriminator 1
 3891 1d02 FB7F     		ldrb	r3, [r7, #31]	@ zero_extendqisi2
 3892 1d04 072B     		cmp	r3, #7
 3893 1d06 B1D9     		bls	.L185
 478:.\LCD.c       ****             }
 479:.\LCD.c       ****         break;
 3894              		.loc 1 479 0 is_stmt 1 discriminator 16
 3895 1d08 01F02BBB 		b	.L16
 3896              	.L29:
 480:.\LCD.c       ****             
 481:.\LCD.c       ****         case '5'://Teclado Nit/CC
 482:.\LCD.c       ****             for(x=0;x<8;x++){
 3897              		.loc 1 482 0
 3898 1d0c 0023     		movs	r3, #0
 3899 1d0e FB77     		strb	r3, [r7, #31]
 3900 1d10 32E0     		b	.L186
 3901              	.L187:
 483:.\LCD.c       ****                 write_LCD(lcd,button[42][x],14,x+1,2,0x2110,'Y');   //Nombre de imagen Teclado Nit/
 3902              		.loc 1 483 0 discriminator 3
 3903 1d12 FB7F     		ldrb	r3, [r7, #31]	@ zero_extendqisi2
 3904 1d14 754A     		ldr	r2, .L270
 3905 1d16 1344     		add	r3, r3, r2
 3906 1d18 93F85031 		ldrb	r3, [r3, #336]
 3907 1d1c DAB2     		uxtb	r2, r3
 3908 1d1e FB7F     		ldrb	r3, [r7, #31]	@ zero_extendqisi2
 3909 1d20 9BB2     		uxth	r3, r3
 3910 1d22 0133     		adds	r3, r3, #1
 3911 1d24 9CB2     		uxth	r4, r3
 3912 1d26 F979     		ldrb	r1, [r7, #7]	@ zero_extendqisi2
 3913 1d28 0223     		movs	r3, #2
 3914 1d2a 0093     		str	r3, [sp]
 3915 1d2c 42F21013 		movw	r3, #8464
 3916 1d30 0193     		str	r3, [sp, #4]
 3917 1d32 5923     		movs	r3, #89
 3918 1d34 0293     		str	r3, [sp, #8]
 3919 1d36 0846     		mov	r0, r1
 3920 1d38 1146     		mov	r1, r2
 3921 1d3a 0E22     		movs	r2, #14
 3922 1d3c 2346     		mov	r3, r4
 3923 1d3e FFF7FEFF 		bl	write_LCD
ARM GAS  C:\Users\RECEPC~1\AppData\Local\Temp\ccAuxgaT.s 			page 81


 484:.\LCD.c       ****                 write_LCD(lcd,button[43][x],18,x+1,2,0x2110,'Y');   //Nombre de imagen Teclado Nit/
 3924              		.loc 1 484 0 discriminator 3
 3925 1d42 FB7F     		ldrb	r3, [r7, #31]	@ zero_extendqisi2
 3926 1d44 694A     		ldr	r2, .L270
 3927 1d46 1344     		add	r3, r3, r2
 3928 1d48 93F85831 		ldrb	r3, [r3, #344]
 3929 1d4c DAB2     		uxtb	r2, r3
 3930 1d4e FB7F     		ldrb	r3, [r7, #31]	@ zero_extendqisi2
 3931 1d50 9BB2     		uxth	r3, r3
 3932 1d52 0133     		adds	r3, r3, #1
 3933 1d54 9CB2     		uxth	r4, r3
 3934 1d56 F979     		ldrb	r1, [r7, #7]	@ zero_extendqisi2
 3935 1d58 0223     		movs	r3, #2
 3936 1d5a 0093     		str	r3, [sp]
 3937 1d5c 42F21013 		movw	r3, #8464
 3938 1d60 0193     		str	r3, [sp, #4]
 3939 1d62 5923     		movs	r3, #89
 3940 1d64 0293     		str	r3, [sp, #8]
 3941 1d66 0846     		mov	r0, r1
 3942 1d68 1146     		mov	r1, r2
 3943 1d6a 1222     		movs	r2, #18
 3944 1d6c 2346     		mov	r3, r4
 3945 1d6e FFF7FEFF 		bl	write_LCD
 482:.\LCD.c       ****                 write_LCD(lcd,button[42][x],14,x+1,2,0x2110,'Y');   //Nombre de imagen Teclado Nit/
 3946              		.loc 1 482 0 discriminator 3
 3947 1d72 FB7F     		ldrb	r3, [r7, #31]	@ zero_extendqisi2
 3948 1d74 0133     		adds	r3, r3, #1
 3949 1d76 FB77     		strb	r3, [r7, #31]
 3950              	.L186:
 482:.\LCD.c       ****                 write_LCD(lcd,button[42][x],14,x+1,2,0x2110,'Y');   //Nombre de imagen Teclado Nit/
 3951              		.loc 1 482 0 is_stmt 0 discriminator 1
 3952 1d78 FB7F     		ldrb	r3, [r7, #31]	@ zero_extendqisi2
 3953 1d7a 072B     		cmp	r3, #7
 3954 1d7c C9D9     		bls	.L187
 485:.\LCD.c       ****             }
 486:.\LCD.c       ****         break;
 3955              		.loc 1 486 0 is_stmt 1 discriminator 17
 3956 1d7e 01F0F0BA 		b	.L16
 3957              	.L30:
 487:.\LCD.c       ****         
 488:.\LCD.c       ****         case '6'://Teclado N Venta F. de pago
 489:.\LCD.c       ****             for(x=0;x<8;x++){
 3958              		.loc 1 489 0
 3959 1d82 0023     		movs	r3, #0
 3960 1d84 FB77     		strb	r3, [r7, #31]
 3961 1d86 32E0     		b	.L188
 3962              	.L189:
 490:.\LCD.c       ****                 write_LCD(lcd,button[84][x],14,x+1,2,0x2110,'Y');   //Nombre de imagen Teclado Vent
 3963              		.loc 1 490 0 discriminator 3
 3964 1d88 FB7F     		ldrb	r3, [r7, #31]	@ zero_extendqisi2
 3965 1d8a 584A     		ldr	r2, .L270
 3966 1d8c 1344     		add	r3, r3, r2
 3967 1d8e 93F8A032 		ldrb	r3, [r3, #672]
 3968 1d92 DAB2     		uxtb	r2, r3
 3969 1d94 FB7F     		ldrb	r3, [r7, #31]	@ zero_extendqisi2
 3970 1d96 9BB2     		uxth	r3, r3
 3971 1d98 0133     		adds	r3, r3, #1
ARM GAS  C:\Users\RECEPC~1\AppData\Local\Temp\ccAuxgaT.s 			page 82


 3972 1d9a 9CB2     		uxth	r4, r3
 3973 1d9c F979     		ldrb	r1, [r7, #7]	@ zero_extendqisi2
 3974 1d9e 0223     		movs	r3, #2
 3975 1da0 0093     		str	r3, [sp]
 3976 1da2 42F21013 		movw	r3, #8464
 3977 1da6 0193     		str	r3, [sp, #4]
 3978 1da8 5923     		movs	r3, #89
 3979 1daa 0293     		str	r3, [sp, #8]
 3980 1dac 0846     		mov	r0, r1
 3981 1dae 1146     		mov	r1, r2
 3982 1db0 0E22     		movs	r2, #14
 3983 1db2 2346     		mov	r3, r4
 3984 1db4 FFF7FEFF 		bl	write_LCD
 491:.\LCD.c       ****                 write_LCD(lcd,button[85][x],18,x+1,2,0x2110,'Y');   //Nombre de imagen Teclado Vent
 3985              		.loc 1 491 0 discriminator 3
 3986 1db8 FB7F     		ldrb	r3, [r7, #31]	@ zero_extendqisi2
 3987 1dba 4C4A     		ldr	r2, .L270
 3988 1dbc 1344     		add	r3, r3, r2
 3989 1dbe 93F8A832 		ldrb	r3, [r3, #680]
 3990 1dc2 DAB2     		uxtb	r2, r3
 3991 1dc4 FB7F     		ldrb	r3, [r7, #31]	@ zero_extendqisi2
 3992 1dc6 9BB2     		uxth	r3, r3
 3993 1dc8 0133     		adds	r3, r3, #1
 3994 1dca 9CB2     		uxth	r4, r3
 3995 1dcc F979     		ldrb	r1, [r7, #7]	@ zero_extendqisi2
 3996 1dce 0223     		movs	r3, #2
 3997 1dd0 0093     		str	r3, [sp]
 3998 1dd2 42F21013 		movw	r3, #8464
 3999 1dd6 0193     		str	r3, [sp, #4]
 4000 1dd8 5923     		movs	r3, #89
 4001 1dda 0293     		str	r3, [sp, #8]
 4002 1ddc 0846     		mov	r0, r1
 4003 1dde 1146     		mov	r1, r2
 4004 1de0 1222     		movs	r2, #18
 4005 1de2 2346     		mov	r3, r4
 4006 1de4 FFF7FEFF 		bl	write_LCD
 489:.\LCD.c       ****                 write_LCD(lcd,button[84][x],14,x+1,2,0x2110,'Y');   //Nombre de imagen Teclado Vent
 4007              		.loc 1 489 0 discriminator 3
 4008 1de8 FB7F     		ldrb	r3, [r7, #31]	@ zero_extendqisi2
 4009 1dea 0133     		adds	r3, r3, #1
 4010 1dec FB77     		strb	r3, [r7, #31]
 4011              	.L188:
 489:.\LCD.c       ****                 write_LCD(lcd,button[84][x],14,x+1,2,0x2110,'Y');   //Nombre de imagen Teclado Vent
 4012              		.loc 1 489 0 is_stmt 0 discriminator 1
 4013 1dee FB7F     		ldrb	r3, [r7, #31]	@ zero_extendqisi2
 4014 1df0 072B     		cmp	r3, #7
 4015 1df2 C9D9     		bls	.L189
 492:.\LCD.c       ****             }
 493:.\LCD.c       ****         break;
 4016              		.loc 1 493 0 is_stmt 1 discriminator 18
 4017 1df4 01F0B5BA 		b	.L16
 4018              	.L31:
 494:.\LCD.c       ****             
 495:.\LCD.c       ****         case '7'://Teclado Dinero Venta F. de pago
 496:.\LCD.c       ****             for(x=0;x<8;x++){
 4019              		.loc 1 496 0
 4020 1df8 0023     		movs	r3, #0
ARM GAS  C:\Users\RECEPC~1\AppData\Local\Temp\ccAuxgaT.s 			page 83


 4021 1dfa FB77     		strb	r3, [r7, #31]
 4022 1dfc 32E0     		b	.L190
 4023              	.L191:
 497:.\LCD.c       ****                 write_LCD(lcd,button[86][x],14,x+1,2,0x2110,'Y');   //Nombre de imagen Teclado Vent
 4024              		.loc 1 497 0 discriminator 3
 4025 1dfe FB7F     		ldrb	r3, [r7, #31]	@ zero_extendqisi2
 4026 1e00 3A4A     		ldr	r2, .L270
 4027 1e02 1344     		add	r3, r3, r2
 4028 1e04 93F8B032 		ldrb	r3, [r3, #688]
 4029 1e08 DAB2     		uxtb	r2, r3
 4030 1e0a FB7F     		ldrb	r3, [r7, #31]	@ zero_extendqisi2
 4031 1e0c 9BB2     		uxth	r3, r3
 4032 1e0e 0133     		adds	r3, r3, #1
 4033 1e10 9CB2     		uxth	r4, r3
 4034 1e12 F979     		ldrb	r1, [r7, #7]	@ zero_extendqisi2
 4035 1e14 0223     		movs	r3, #2
 4036 1e16 0093     		str	r3, [sp]
 4037 1e18 42F21013 		movw	r3, #8464
 4038 1e1c 0193     		str	r3, [sp, #4]
 4039 1e1e 5923     		movs	r3, #89
 4040 1e20 0293     		str	r3, [sp, #8]
 4041 1e22 0846     		mov	r0, r1
 4042 1e24 1146     		mov	r1, r2
 4043 1e26 0E22     		movs	r2, #14
 4044 1e28 2346     		mov	r3, r4
 4045 1e2a FFF7FEFF 		bl	write_LCD
 498:.\LCD.c       ****                 write_LCD(lcd,button[87][x],18,x+1,2,0x2110,'Y');   //Nombre de imagen Teclado Vent
 4046              		.loc 1 498 0 discriminator 3
 4047 1e2e FB7F     		ldrb	r3, [r7, #31]	@ zero_extendqisi2
 4048 1e30 2E4A     		ldr	r2, .L270
 4049 1e32 1344     		add	r3, r3, r2
 4050 1e34 93F8B832 		ldrb	r3, [r3, #696]
 4051 1e38 DAB2     		uxtb	r2, r3
 4052 1e3a FB7F     		ldrb	r3, [r7, #31]	@ zero_extendqisi2
 4053 1e3c 9BB2     		uxth	r3, r3
 4054 1e3e 0133     		adds	r3, r3, #1
 4055 1e40 9CB2     		uxth	r4, r3
 4056 1e42 F979     		ldrb	r1, [r7, #7]	@ zero_extendqisi2
 4057 1e44 0223     		movs	r3, #2
 4058 1e46 0093     		str	r3, [sp]
 4059 1e48 42F21013 		movw	r3, #8464
 4060 1e4c 0193     		str	r3, [sp, #4]
 4061 1e4e 5923     		movs	r3, #89
 4062 1e50 0293     		str	r3, [sp, #8]
 4063 1e52 0846     		mov	r0, r1
 4064 1e54 1146     		mov	r1, r2
 4065 1e56 1222     		movs	r2, #18
 4066 1e58 2346     		mov	r3, r4
 4067 1e5a FFF7FEFF 		bl	write_LCD
 496:.\LCD.c       ****                 write_LCD(lcd,button[86][x],14,x+1,2,0x2110,'Y');   //Nombre de imagen Teclado Vent
 4068              		.loc 1 496 0 discriminator 3
 4069 1e5e FB7F     		ldrb	r3, [r7, #31]	@ zero_extendqisi2
 4070 1e60 0133     		adds	r3, r3, #1
 4071 1e62 FB77     		strb	r3, [r7, #31]
 4072              	.L190:
 496:.\LCD.c       ****                 write_LCD(lcd,button[86][x],14,x+1,2,0x2110,'Y');   //Nombre de imagen Teclado Vent
 4073              		.loc 1 496 0 is_stmt 0 discriminator 1
ARM GAS  C:\Users\RECEPC~1\AppData\Local\Temp\ccAuxgaT.s 			page 84


 4074 1e64 FB7F     		ldrb	r3, [r7, #31]	@ zero_extendqisi2
 4075 1e66 072B     		cmp	r3, #7
 4076 1e68 C9D9     		bls	.L191
 499:.\LCD.c       ****             }
 500:.\LCD.c       ****         break;
 4077              		.loc 1 500 0 is_stmt 1 discriminator 19
 4078 1e6a 01F07ABA 		b	.L16
 4079              	.L32:
 501:.\LCD.c       ****         
 502:.\LCD.c       ****         case '8'://Teclado Serial
 503:.\LCD.c       ****             for(x=0;x<8;x++){
 4080              		.loc 1 503 0
 4081 1e6e 0023     		movs	r3, #0
 4082 1e70 FB77     		strb	r3, [r7, #31]
 4083 1e72 32E0     		b	.L192
 4084              	.L193:
 504:.\LCD.c       ****                 write_LCD(lcd,button[38][x],7,x+6,1,0x2110,'Y');   //Nombre de imagen Teclado Seria
 4085              		.loc 1 504 0 discriminator 3
 4086 1e74 FB7F     		ldrb	r3, [r7, #31]	@ zero_extendqisi2
 4087 1e76 1D4A     		ldr	r2, .L270
 4088 1e78 1344     		add	r3, r3, r2
 4089 1e7a 93F83031 		ldrb	r3, [r3, #304]
 4090 1e7e DAB2     		uxtb	r2, r3
 4091 1e80 FB7F     		ldrb	r3, [r7, #31]	@ zero_extendqisi2
 4092 1e82 9BB2     		uxth	r3, r3
 4093 1e84 0633     		adds	r3, r3, #6
 4094 1e86 9CB2     		uxth	r4, r3
 4095 1e88 F979     		ldrb	r1, [r7, #7]	@ zero_extendqisi2
 4096 1e8a 0123     		movs	r3, #1
 4097 1e8c 0093     		str	r3, [sp]
 4098 1e8e 42F21013 		movw	r3, #8464
 4099 1e92 0193     		str	r3, [sp, #4]
 4100 1e94 5923     		movs	r3, #89
 4101 1e96 0293     		str	r3, [sp, #8]
 4102 1e98 0846     		mov	r0, r1
 4103 1e9a 1146     		mov	r1, r2
 4104 1e9c 0722     		movs	r2, #7
 4105 1e9e 2346     		mov	r3, r4
 4106 1ea0 FFF7FEFF 		bl	write_LCD
 505:.\LCD.c       ****                 write_LCD(lcd,button[81][x],7,x+14,1,0x2110,'Y');   //Nombre de imagen Teclado Seri
 4107              		.loc 1 505 0 discriminator 3
 4108 1ea4 FB7F     		ldrb	r3, [r7, #31]	@ zero_extendqisi2
 4109 1ea6 114A     		ldr	r2, .L270
 4110 1ea8 1344     		add	r3, r3, r2
 4111 1eaa 93F88832 		ldrb	r3, [r3, #648]
 4112 1eae DAB2     		uxtb	r2, r3
 4113 1eb0 FB7F     		ldrb	r3, [r7, #31]	@ zero_extendqisi2
 4114 1eb2 9BB2     		uxth	r3, r3
 4115 1eb4 0E33     		adds	r3, r3, #14
 4116 1eb6 9CB2     		uxth	r4, r3
 4117 1eb8 F979     		ldrb	r1, [r7, #7]	@ zero_extendqisi2
 4118 1eba 0123     		movs	r3, #1
 4119 1ebc 0093     		str	r3, [sp]
 4120 1ebe 42F21013 		movw	r3, #8464
 4121 1ec2 0193     		str	r3, [sp, #4]
 4122 1ec4 5923     		movs	r3, #89
 4123 1ec6 0293     		str	r3, [sp, #8]
ARM GAS  C:\Users\RECEPC~1\AppData\Local\Temp\ccAuxgaT.s 			page 85


 4124 1ec8 0846     		mov	r0, r1
 4125 1eca 1146     		mov	r1, r2
 4126 1ecc 0722     		movs	r2, #7
 4127 1ece 2346     		mov	r3, r4
 4128 1ed0 FFF7FEFF 		bl	write_LCD
 503:.\LCD.c       ****                 write_LCD(lcd,button[38][x],7,x+6,1,0x2110,'Y');   //Nombre de imagen Teclado Seria
 4129              		.loc 1 503 0 discriminator 3
 4130 1ed4 FB7F     		ldrb	r3, [r7, #31]	@ zero_extendqisi2
 4131 1ed6 0133     		adds	r3, r3, #1
 4132 1ed8 FB77     		strb	r3, [r7, #31]
 4133              	.L192:
 503:.\LCD.c       ****                 write_LCD(lcd,button[38][x],7,x+6,1,0x2110,'Y');   //Nombre de imagen Teclado Seria
 4134              		.loc 1 503 0 is_stmt 0 discriminator 1
 4135 1eda FB7F     		ldrb	r3, [r7, #31]	@ zero_extendqisi2
 4136 1edc 072B     		cmp	r3, #7
 4137 1ede C9D9     		bls	.L193
 506:.\LCD.c       ****             }
 507:.\LCD.c       ****         break;
 4138              		.loc 1 507 0 is_stmt 1 discriminator 20
 4139 1ee0 01F03FBA 		b	.L16
 4140              	.L33:
 508:.\LCD.c       ****             
 509:.\LCD.c       ****         case '9'://Teclado Codigo de barras
 510:.\LCD.c       ****             for(x=0;x<8;x++){
 4141              		.loc 1 510 0
 4142 1ee4 0023     		movs	r3, #0
 4143 1ee6 FB77     		strb	r3, [r7, #31]
 4144 1ee8 35E0     		b	.L194
 4145              	.L271:
 4146 1eea 00BF     		.align	2
 4147              	.L270:
 4148 1eec 00000000 		.word	button
 4149              	.L195:
 511:.\LCD.c       ****                 write_LCD(lcd,button[104][x],7,x+6,1,0x2110,'Y');   //Nombre de imagen Codigo de ba
 4150              		.loc 1 511 0 discriminator 3
 4151 1ef0 FB7F     		ldrb	r3, [r7, #31]	@ zero_extendqisi2
 4152 1ef2 754A     		ldr	r2, .L272
 4153 1ef4 1344     		add	r3, r3, r2
 4154 1ef6 93F84033 		ldrb	r3, [r3, #832]
 4155 1efa DAB2     		uxtb	r2, r3
 4156 1efc FB7F     		ldrb	r3, [r7, #31]	@ zero_extendqisi2
 4157 1efe 9BB2     		uxth	r3, r3
 4158 1f00 0633     		adds	r3, r3, #6
 4159 1f02 9CB2     		uxth	r4, r3
 4160 1f04 F979     		ldrb	r1, [r7, #7]	@ zero_extendqisi2
 4161 1f06 0123     		movs	r3, #1
 4162 1f08 0093     		str	r3, [sp]
 4163 1f0a 42F21013 		movw	r3, #8464
 4164 1f0e 0193     		str	r3, [sp, #4]
 4165 1f10 5923     		movs	r3, #89
 4166 1f12 0293     		str	r3, [sp, #8]
 4167 1f14 0846     		mov	r0, r1
 4168 1f16 1146     		mov	r1, r2
 4169 1f18 0722     		movs	r2, #7
 4170 1f1a 2346     		mov	r3, r4
 4171 1f1c FFF7FEFF 		bl	write_LCD
 512:.\LCD.c       ****                 write_LCD(lcd,button[105][x],7,x+14,1,0x2110,'Y');   //Nombre de imagen Codigo de b
ARM GAS  C:\Users\RECEPC~1\AppData\Local\Temp\ccAuxgaT.s 			page 86


 4172              		.loc 1 512 0 discriminator 3
 4173 1f20 FB7F     		ldrb	r3, [r7, #31]	@ zero_extendqisi2
 4174 1f22 694A     		ldr	r2, .L272
 4175 1f24 1344     		add	r3, r3, r2
 4176 1f26 93F84833 		ldrb	r3, [r3, #840]
 4177 1f2a DAB2     		uxtb	r2, r3
 4178 1f2c FB7F     		ldrb	r3, [r7, #31]	@ zero_extendqisi2
 4179 1f2e 9BB2     		uxth	r3, r3
 4180 1f30 0E33     		adds	r3, r3, #14
 4181 1f32 9CB2     		uxth	r4, r3
 4182 1f34 F979     		ldrb	r1, [r7, #7]	@ zero_extendqisi2
 4183 1f36 0123     		movs	r3, #1
 4184 1f38 0093     		str	r3, [sp]
 4185 1f3a 42F21013 		movw	r3, #8464
 4186 1f3e 0193     		str	r3, [sp, #4]
 4187 1f40 5923     		movs	r3, #89
 4188 1f42 0293     		str	r3, [sp, #8]
 4189 1f44 0846     		mov	r0, r1
 4190 1f46 1146     		mov	r1, r2
 4191 1f48 0722     		movs	r2, #7
 4192 1f4a 2346     		mov	r3, r4
 4193 1f4c FFF7FEFF 		bl	write_LCD
 510:.\LCD.c       ****                 write_LCD(lcd,button[104][x],7,x+6,1,0x2110,'Y');   //Nombre de imagen Codigo de ba
 4194              		.loc 1 510 0 discriminator 3
 4195 1f50 FB7F     		ldrb	r3, [r7, #31]	@ zero_extendqisi2
 4196 1f52 0133     		adds	r3, r3, #1
 4197 1f54 FB77     		strb	r3, [r7, #31]
 4198              	.L194:
 510:.\LCD.c       ****                 write_LCD(lcd,button[104][x],7,x+6,1,0x2110,'Y');   //Nombre de imagen Codigo de ba
 4199              		.loc 1 510 0 is_stmt 0 discriminator 1
 4200 1f56 FB7F     		ldrb	r3, [r7, #31]	@ zero_extendqisi2
 4201 1f58 072B     		cmp	r3, #7
 4202 1f5a C9D9     		bls	.L195
 513:.\LCD.c       ****             }
 514:.\LCD.c       ****         break;
 4203              		.loc 1 514 0 is_stmt 1 discriminator 21
 4204 1f5c 01F001BA 		b	.L16
 4205              	.L24:
 515:.\LCD.c       ****             
 516:.\LCD.c       ****         case '0'://Teclado cantidad canasta
 517:.\LCD.c       ****             for(x=0;x<8;x++){
 4206              		.loc 1 517 0
 4207 1f60 0023     		movs	r3, #0
 4208 1f62 FB77     		strb	r3, [r7, #31]
 4209 1f64 32E0     		b	.L196
 4210              	.L197:
 518:.\LCD.c       ****                 write_LCD(lcd,button[104][x],14,x+1,2,0x2110,'Y');   //Nombre de imagen Teclado Ven
 4211              		.loc 1 518 0 discriminator 3
 4212 1f66 FB7F     		ldrb	r3, [r7, #31]	@ zero_extendqisi2
 4213 1f68 574A     		ldr	r2, .L272
 4214 1f6a 1344     		add	r3, r3, r2
 4215 1f6c 93F84033 		ldrb	r3, [r3, #832]
 4216 1f70 DAB2     		uxtb	r2, r3
 4217 1f72 FB7F     		ldrb	r3, [r7, #31]	@ zero_extendqisi2
 4218 1f74 9BB2     		uxth	r3, r3
 4219 1f76 0133     		adds	r3, r3, #1
 4220 1f78 9CB2     		uxth	r4, r3
ARM GAS  C:\Users\RECEPC~1\AppData\Local\Temp\ccAuxgaT.s 			page 87


 4221 1f7a F979     		ldrb	r1, [r7, #7]	@ zero_extendqisi2
 4222 1f7c 0223     		movs	r3, #2
 4223 1f7e 0093     		str	r3, [sp]
 4224 1f80 42F21013 		movw	r3, #8464
 4225 1f84 0193     		str	r3, [sp, #4]
 4226 1f86 5923     		movs	r3, #89
 4227 1f88 0293     		str	r3, [sp, #8]
 4228 1f8a 0846     		mov	r0, r1
 4229 1f8c 1146     		mov	r1, r2
 4230 1f8e 0E22     		movs	r2, #14
 4231 1f90 2346     		mov	r3, r4
 4232 1f92 FFF7FEFF 		bl	write_LCD
 519:.\LCD.c       ****                 write_LCD(lcd,button[101][x],18,x+1,2,0x2110,'Y');   //Nombre de imagen Teclado Ven
 4233              		.loc 1 519 0 discriminator 3
 4234 1f96 FB7F     		ldrb	r3, [r7, #31]	@ zero_extendqisi2
 4235 1f98 4B4A     		ldr	r2, .L272
 4236 1f9a 1344     		add	r3, r3, r2
 4237 1f9c 93F82833 		ldrb	r3, [r3, #808]
 4238 1fa0 DAB2     		uxtb	r2, r3
 4239 1fa2 FB7F     		ldrb	r3, [r7, #31]	@ zero_extendqisi2
 4240 1fa4 9BB2     		uxth	r3, r3
 4241 1fa6 0133     		adds	r3, r3, #1
 4242 1fa8 9CB2     		uxth	r4, r3
 4243 1faa F979     		ldrb	r1, [r7, #7]	@ zero_extendqisi2
 4244 1fac 0223     		movs	r3, #2
 4245 1fae 0093     		str	r3, [sp]
 4246 1fb0 42F21013 		movw	r3, #8464
 4247 1fb4 0193     		str	r3, [sp, #4]
 4248 1fb6 5923     		movs	r3, #89
 4249 1fb8 0293     		str	r3, [sp, #8]
 4250 1fba 0846     		mov	r0, r1
 4251 1fbc 1146     		mov	r1, r2
 4252 1fbe 1222     		movs	r2, #18
 4253 1fc0 2346     		mov	r3, r4
 4254 1fc2 FFF7FEFF 		bl	write_LCD
 517:.\LCD.c       ****                 write_LCD(lcd,button[104][x],14,x+1,2,0x2110,'Y');   //Nombre de imagen Teclado Ven
 4255              		.loc 1 517 0 discriminator 3
 4256 1fc6 FB7F     		ldrb	r3, [r7, #31]	@ zero_extendqisi2
 4257 1fc8 0133     		adds	r3, r3, #1
 4258 1fca FB77     		strb	r3, [r7, #31]
 4259              	.L196:
 517:.\LCD.c       ****                 write_LCD(lcd,button[104][x],14,x+1,2,0x2110,'Y');   //Nombre de imagen Teclado Ven
 4260              		.loc 1 517 0 is_stmt 0 discriminator 1
 4261 1fcc FB7F     		ldrb	r3, [r7, #31]	@ zero_extendqisi2
 4262 1fce 072B     		cmp	r3, #7
 4263 1fd0 C9D9     		bls	.L197
 520:.\LCD.c       ****             }
 521:.\LCD.c       ****         break;
 4264              		.loc 1 521 0 is_stmt 1 discriminator 22
 4265 1fd2 01F0C6B9 		b	.L16
 4266              	.L23:
 522:.\LCD.c       ****             
 523:.\LCD.c       ****         case '*'://Teclado contrasea
 524:.\LCD.c       ****             for(x=0;x<8;x++){
 4267              		.loc 1 524 0
 4268 1fd6 0023     		movs	r3, #0
 4269 1fd8 FB77     		strb	r3, [r7, #31]
ARM GAS  C:\Users\RECEPC~1\AppData\Local\Temp\ccAuxgaT.s 			page 88


 4270 1fda 32E0     		b	.L198
 4271              	.L199:
 525:.\LCD.c       ****                 write_LCD(lcd,button[112][x],14,x+1,2,0x2110,'Y');   //Nombre de imagen Teclado Con
 4272              		.loc 1 525 0 discriminator 3
 4273 1fdc FB7F     		ldrb	r3, [r7, #31]	@ zero_extendqisi2
 4274 1fde 3A4A     		ldr	r2, .L272
 4275 1fe0 1344     		add	r3, r3, r2
 4276 1fe2 93F88033 		ldrb	r3, [r3, #896]
 4277 1fe6 DAB2     		uxtb	r2, r3
 4278 1fe8 FB7F     		ldrb	r3, [r7, #31]	@ zero_extendqisi2
 4279 1fea 9BB2     		uxth	r3, r3
 4280 1fec 0133     		adds	r3, r3, #1
 4281 1fee 9CB2     		uxth	r4, r3
 4282 1ff0 F979     		ldrb	r1, [r7, #7]	@ zero_extendqisi2
 4283 1ff2 0223     		movs	r3, #2
 4284 1ff4 0093     		str	r3, [sp]
 4285 1ff6 42F21013 		movw	r3, #8464
 4286 1ffa 0193     		str	r3, [sp, #4]
 4287 1ffc 5923     		movs	r3, #89
 4288 1ffe 0293     		str	r3, [sp, #8]
 4289 2000 0846     		mov	r0, r1
 4290 2002 1146     		mov	r1, r2
 4291 2004 0E22     		movs	r2, #14
 4292 2006 2346     		mov	r3, r4
 4293 2008 FFF7FEFF 		bl	write_LCD
 526:.\LCD.c       ****                 write_LCD(lcd,button[113][x],18,x+1,2,0x2110,'Y');   //Nombre de imagen Teclado Con
 4294              		.loc 1 526 0 discriminator 3
 4295 200c FB7F     		ldrb	r3, [r7, #31]	@ zero_extendqisi2
 4296 200e 2E4A     		ldr	r2, .L272
 4297 2010 1344     		add	r3, r3, r2
 4298 2012 93F88833 		ldrb	r3, [r3, #904]
 4299 2016 DAB2     		uxtb	r2, r3
 4300 2018 FB7F     		ldrb	r3, [r7, #31]	@ zero_extendqisi2
 4301 201a 9BB2     		uxth	r3, r3
 4302 201c 0133     		adds	r3, r3, #1
 4303 201e 9CB2     		uxth	r4, r3
 4304 2020 F979     		ldrb	r1, [r7, #7]	@ zero_extendqisi2
 4305 2022 0223     		movs	r3, #2
 4306 2024 0093     		str	r3, [sp]
 4307 2026 42F21013 		movw	r3, #8464
 4308 202a 0193     		str	r3, [sp, #4]
 4309 202c 5923     		movs	r3, #89
 4310 202e 0293     		str	r3, [sp, #8]
 4311 2030 0846     		mov	r0, r1
 4312 2032 1146     		mov	r1, r2
 4313 2034 1222     		movs	r2, #18
 4314 2036 2346     		mov	r3, r4
 4315 2038 FFF7FEFF 		bl	write_LCD
 524:.\LCD.c       ****                 write_LCD(lcd,button[112][x],14,x+1,2,0x2110,'Y');   //Nombre de imagen Teclado Con
 4316              		.loc 1 524 0 discriminator 3
 4317 203c FB7F     		ldrb	r3, [r7, #31]	@ zero_extendqisi2
 4318 203e 0133     		adds	r3, r3, #1
 4319 2040 FB77     		strb	r3, [r7, #31]
 4320              	.L198:
 524:.\LCD.c       ****                 write_LCD(lcd,button[112][x],14,x+1,2,0x2110,'Y');   //Nombre de imagen Teclado Con
 4321              		.loc 1 524 0 is_stmt 0 discriminator 1
 4322 2042 FB7F     		ldrb	r3, [r7, #31]	@ zero_extendqisi2
ARM GAS  C:\Users\RECEPC~1\AppData\Local\Temp\ccAuxgaT.s 			page 89


 4323 2044 072B     		cmp	r3, #7
 4324 2046 C9D9     		bls	.L199
 527:.\LCD.c       ****             }
 528:.\LCD.c       ****         break;
 4325              		.loc 1 528 0 is_stmt 1 discriminator 23
 4326 2048 01F08BB9 		b	.L16
 4327              	.L37:
 529:.\LCD.c       ****             
 530:.\LCD.c       ****         case 'F'://Formas de pago
 531:.\LCD.c       ****             for(x=0;x<8;x++){
 4328              		.loc 1 531 0
 4329 204c 0023     		movs	r3, #0
 4330 204e FB77     		strb	r3, [r7, #31]
 4331 2050 32E0     		b	.L200
 4332              	.L201:
 532:.\LCD.c       ****                 write_LCD(lcd,button[44][x],2,x+1,2,0x2110,'Y');   //Nombre de imagen Formas de pag
 4333              		.loc 1 532 0 discriminator 3
 4334 2052 FB7F     		ldrb	r3, [r7, #31]	@ zero_extendqisi2
 4335 2054 1C4A     		ldr	r2, .L272
 4336 2056 1344     		add	r3, r3, r2
 4337 2058 93F86031 		ldrb	r3, [r3, #352]
 4338 205c DAB2     		uxtb	r2, r3
 4339 205e FB7F     		ldrb	r3, [r7, #31]	@ zero_extendqisi2
 4340 2060 9BB2     		uxth	r3, r3
 4341 2062 0133     		adds	r3, r3, #1
 4342 2064 9CB2     		uxth	r4, r3
 4343 2066 F979     		ldrb	r1, [r7, #7]	@ zero_extendqisi2
 4344 2068 0223     		movs	r3, #2
 4345 206a 0093     		str	r3, [sp]
 4346 206c 42F21013 		movw	r3, #8464
 4347 2070 0193     		str	r3, [sp, #4]
 4348 2072 5923     		movs	r3, #89
 4349 2074 0293     		str	r3, [sp, #8]
 4350 2076 0846     		mov	r0, r1
 4351 2078 1146     		mov	r1, r2
 4352 207a 0222     		movs	r2, #2
 4353 207c 2346     		mov	r3, r4
 4354 207e FFF7FEFF 		bl	write_LCD
 533:.\LCD.c       ****                 write_LCD(lcd,button[45][x],2,x+9,2,0x2110,'Y');   //Nombre de imagen Formas de pag
 4355              		.loc 1 533 0 discriminator 3
 4356 2082 FB7F     		ldrb	r3, [r7, #31]	@ zero_extendqisi2
 4357 2084 104A     		ldr	r2, .L272
 4358 2086 1344     		add	r3, r3, r2
 4359 2088 93F86831 		ldrb	r3, [r3, #360]
 4360 208c DAB2     		uxtb	r2, r3
 4361 208e FB7F     		ldrb	r3, [r7, #31]	@ zero_extendqisi2
 4362 2090 9BB2     		uxth	r3, r3
 4363 2092 0933     		adds	r3, r3, #9
 4364 2094 9CB2     		uxth	r4, r3
 4365 2096 F979     		ldrb	r1, [r7, #7]	@ zero_extendqisi2
 4366 2098 0223     		movs	r3, #2
 4367 209a 0093     		str	r3, [sp]
 4368 209c 42F21013 		movw	r3, #8464
 4369 20a0 0193     		str	r3, [sp, #4]
 4370 20a2 5923     		movs	r3, #89
 4371 20a4 0293     		str	r3, [sp, #8]
 4372 20a6 0846     		mov	r0, r1
ARM GAS  C:\Users\RECEPC~1\AppData\Local\Temp\ccAuxgaT.s 			page 90


 4373 20a8 1146     		mov	r1, r2
 4374 20aa 0222     		movs	r2, #2
 4375 20ac 2346     		mov	r3, r4
 4376 20ae FFF7FEFF 		bl	write_LCD
 531:.\LCD.c       ****                 write_LCD(lcd,button[44][x],2,x+1,2,0x2110,'Y');   //Nombre de imagen Formas de pag
 4377              		.loc 1 531 0 discriminator 3
 4378 20b2 FB7F     		ldrb	r3, [r7, #31]	@ zero_extendqisi2
 4379 20b4 0133     		adds	r3, r3, #1
 4380 20b6 FB77     		strb	r3, [r7, #31]
 4381              	.L200:
 531:.\LCD.c       ****                 write_LCD(lcd,button[44][x],2,x+1,2,0x2110,'Y');   //Nombre de imagen Formas de pag
 4382              		.loc 1 531 0 is_stmt 0 discriminator 1
 4383 20b8 FB7F     		ldrb	r3, [r7, #31]	@ zero_extendqisi2
 4384 20ba 072B     		cmp	r3, #7
 4385 20bc C9D9     		bls	.L201
 534:.\LCD.c       ****             }
 535:.\LCD.c       ****         break;
 4386              		.loc 1 535 0 is_stmt 1 discriminator 24
 4387 20be 01F050B9 		b	.L16
 4388              	.L18:
 536:.\LCD.c       ****             
 537:.\LCD.c       ****         case 1://Nombres a Formas de pago pagina 1
 538:.\LCD.c       ****             for(x=0;x<8;x++){
 4389              		.loc 1 538 0
 4390 20c2 0023     		movs	r3, #0
 4391 20c4 FB77     		strb	r3, [r7, #31]
 4392 20c6 94E0     		b	.L202
 4393              	.L273:
 4394              		.align	2
 4395              	.L272:
 4396 20c8 00000000 		.word	button
 4397              	.L203:
 539:.\LCD.c       ****                 write_LCD(lcd,button[46][x],9,x+4,1,0xFFFF,'Y');     //Nombre Forma de pago 1
 4398              		.loc 1 539 0 discriminator 3
 4399 20cc FB7F     		ldrb	r3, [r7, #31]	@ zero_extendqisi2
 4400 20ce 9B4A     		ldr	r2, .L274
 4401 20d0 1344     		add	r3, r3, r2
 4402 20d2 93F87031 		ldrb	r3, [r3, #368]
 4403 20d6 DAB2     		uxtb	r2, r3
 4404 20d8 FB7F     		ldrb	r3, [r7, #31]	@ zero_extendqisi2
 4405 20da 9BB2     		uxth	r3, r3
 4406 20dc 0433     		adds	r3, r3, #4
 4407 20de 9CB2     		uxth	r4, r3
 4408 20e0 F979     		ldrb	r1, [r7, #7]	@ zero_extendqisi2
 4409 20e2 0123     		movs	r3, #1
 4410 20e4 0093     		str	r3, [sp]
 4411 20e6 4FF6FF73 		movw	r3, #65535
 4412 20ea 0193     		str	r3, [sp, #4]
 4413 20ec 5923     		movs	r3, #89
 4414 20ee 0293     		str	r3, [sp, #8]
 4415 20f0 0846     		mov	r0, r1
 4416 20f2 1146     		mov	r1, r2
 4417 20f4 0922     		movs	r2, #9
 4418 20f6 2346     		mov	r3, r4
 4419 20f8 FFF7FEFF 		bl	write_LCD
 540:.\LCD.c       ****                 write_LCD(lcd,button[47][x],9,x+15,1,0xFFFF,'Y');    //Nombre Forma de pago 2
 4420              		.loc 1 540 0 discriminator 3
ARM GAS  C:\Users\RECEPC~1\AppData\Local\Temp\ccAuxgaT.s 			page 91


 4421 20fc FB7F     		ldrb	r3, [r7, #31]	@ zero_extendqisi2
 4422 20fe 8F4A     		ldr	r2, .L274
 4423 2100 1344     		add	r3, r3, r2
 4424 2102 93F87831 		ldrb	r3, [r3, #376]
 4425 2106 DAB2     		uxtb	r2, r3
 4426 2108 FB7F     		ldrb	r3, [r7, #31]	@ zero_extendqisi2
 4427 210a 9BB2     		uxth	r3, r3
 4428 210c 0F33     		adds	r3, r3, #15
 4429 210e 9CB2     		uxth	r4, r3
 4430 2110 F979     		ldrb	r1, [r7, #7]	@ zero_extendqisi2
 4431 2112 0123     		movs	r3, #1
 4432 2114 0093     		str	r3, [sp]
 4433 2116 4FF6FF73 		movw	r3, #65535
 4434 211a 0193     		str	r3, [sp, #4]
 4435 211c 5923     		movs	r3, #89
 4436 211e 0293     		str	r3, [sp, #8]
 4437 2120 0846     		mov	r0, r1
 4438 2122 1146     		mov	r1, r2
 4439 2124 0922     		movs	r2, #9
 4440 2126 2346     		mov	r3, r4
 4441 2128 FFF7FEFF 		bl	write_LCD
 541:.\LCD.c       ****                 write_LCD(lcd,button[48][x],15,x+4,1,0xFFFF,'Y');    //Nombre Forma de pago 3
 4442              		.loc 1 541 0 discriminator 3
 4443 212c FB7F     		ldrb	r3, [r7, #31]	@ zero_extendqisi2
 4444 212e 834A     		ldr	r2, .L274
 4445 2130 1344     		add	r3, r3, r2
 4446 2132 93F88031 		ldrb	r3, [r3, #384]
 4447 2136 DAB2     		uxtb	r2, r3
 4448 2138 FB7F     		ldrb	r3, [r7, #31]	@ zero_extendqisi2
 4449 213a 9BB2     		uxth	r3, r3
 4450 213c 0433     		adds	r3, r3, #4
 4451 213e 9CB2     		uxth	r4, r3
 4452 2140 F979     		ldrb	r1, [r7, #7]	@ zero_extendqisi2
 4453 2142 0123     		movs	r3, #1
 4454 2144 0093     		str	r3, [sp]
 4455 2146 4FF6FF73 		movw	r3, #65535
 4456 214a 0193     		str	r3, [sp, #4]
 4457 214c 5923     		movs	r3, #89
 4458 214e 0293     		str	r3, [sp, #8]
 4459 2150 0846     		mov	r0, r1
 4460 2152 1146     		mov	r1, r2
 4461 2154 0F22     		movs	r2, #15
 4462 2156 2346     		mov	r3, r4
 4463 2158 FFF7FEFF 		bl	write_LCD
 542:.\LCD.c       ****                 write_LCD(lcd,button[49][x],15,x+15,1,0xFFFF,'Y');   //Nombre Forma de pago 4
 4464              		.loc 1 542 0 discriminator 3
 4465 215c FB7F     		ldrb	r3, [r7, #31]	@ zero_extendqisi2
 4466 215e 774A     		ldr	r2, .L274
 4467 2160 1344     		add	r3, r3, r2
 4468 2162 93F88831 		ldrb	r3, [r3, #392]
 4469 2166 DAB2     		uxtb	r2, r3
 4470 2168 FB7F     		ldrb	r3, [r7, #31]	@ zero_extendqisi2
 4471 216a 9BB2     		uxth	r3, r3
 4472 216c 0F33     		adds	r3, r3, #15
 4473 216e 9CB2     		uxth	r4, r3
 4474 2170 F979     		ldrb	r1, [r7, #7]	@ zero_extendqisi2
 4475 2172 0123     		movs	r3, #1
ARM GAS  C:\Users\RECEPC~1\AppData\Local\Temp\ccAuxgaT.s 			page 92


 4476 2174 0093     		str	r3, [sp]
 4477 2176 4FF6FF73 		movw	r3, #65535
 4478 217a 0193     		str	r3, [sp, #4]
 4479 217c 5923     		movs	r3, #89
 4480 217e 0293     		str	r3, [sp, #8]
 4481 2180 0846     		mov	r0, r1
 4482 2182 1146     		mov	r1, r2
 4483 2184 0F22     		movs	r2, #15
 4484 2186 2346     		mov	r3, r4
 4485 2188 FFF7FEFF 		bl	write_LCD
 543:.\LCD.c       ****                 write_LCD(lcd,button[50][x],21,x+4,1,0xFFFF,'Y');    //Nombre Forma de pago 5
 4486              		.loc 1 543 0 discriminator 3
 4487 218c FB7F     		ldrb	r3, [r7, #31]	@ zero_extendqisi2
 4488 218e 6B4A     		ldr	r2, .L274
 4489 2190 1344     		add	r3, r3, r2
 4490 2192 93F89031 		ldrb	r3, [r3, #400]
 4491 2196 DAB2     		uxtb	r2, r3
 4492 2198 FB7F     		ldrb	r3, [r7, #31]	@ zero_extendqisi2
 4493 219a 9BB2     		uxth	r3, r3
 4494 219c 0433     		adds	r3, r3, #4
 4495 219e 9CB2     		uxth	r4, r3
 4496 21a0 F979     		ldrb	r1, [r7, #7]	@ zero_extendqisi2
 4497 21a2 0123     		movs	r3, #1
 4498 21a4 0093     		str	r3, [sp]
 4499 21a6 4FF6FF73 		movw	r3, #65535
 4500 21aa 0193     		str	r3, [sp, #4]
 4501 21ac 5923     		movs	r3, #89
 4502 21ae 0293     		str	r3, [sp, #8]
 4503 21b0 0846     		mov	r0, r1
 4504 21b2 1146     		mov	r1, r2
 4505 21b4 1522     		movs	r2, #21
 4506 21b6 2346     		mov	r3, r4
 4507 21b8 FFF7FEFF 		bl	write_LCD
 544:.\LCD.c       ****                 write_LCD(lcd,button[51][x],21,x+15,1,0xFFFF,'Y');   //Nombre Forma de pago 6
 4508              		.loc 1 544 0 discriminator 3
 4509 21bc FB7F     		ldrb	r3, [r7, #31]	@ zero_extendqisi2
 4510 21be 5F4A     		ldr	r2, .L274
 4511 21c0 1344     		add	r3, r3, r2
 4512 21c2 93F89831 		ldrb	r3, [r3, #408]
 4513 21c6 DAB2     		uxtb	r2, r3
 4514 21c8 FB7F     		ldrb	r3, [r7, #31]	@ zero_extendqisi2
 4515 21ca 9BB2     		uxth	r3, r3
 4516 21cc 0F33     		adds	r3, r3, #15
 4517 21ce 9CB2     		uxth	r4, r3
 4518 21d0 F979     		ldrb	r1, [r7, #7]	@ zero_extendqisi2
 4519 21d2 0123     		movs	r3, #1
 4520 21d4 0093     		str	r3, [sp]
 4521 21d6 4FF6FF73 		movw	r3, #65535
 4522 21da 0193     		str	r3, [sp, #4]
 4523 21dc 5923     		movs	r3, #89
 4524 21de 0293     		str	r3, [sp, #8]
 4525 21e0 0846     		mov	r0, r1
 4526 21e2 1146     		mov	r1, r2
 4527 21e4 1522     		movs	r2, #21
 4528 21e6 2346     		mov	r3, r4
 4529 21e8 FFF7FEFF 		bl	write_LCD
 538:.\LCD.c       ****                 write_LCD(lcd,button[46][x],9,x+4,1,0xFFFF,'Y');     //Nombre Forma de pago 1
ARM GAS  C:\Users\RECEPC~1\AppData\Local\Temp\ccAuxgaT.s 			page 93


 4530              		.loc 1 538 0 discriminator 3
 4531 21ec FB7F     		ldrb	r3, [r7, #31]	@ zero_extendqisi2
 4532 21ee 0133     		adds	r3, r3, #1
 4533 21f0 FB77     		strb	r3, [r7, #31]
 4534              	.L202:
 538:.\LCD.c       ****                 write_LCD(lcd,button[46][x],9,x+4,1,0xFFFF,'Y');     //Nombre Forma de pago 1
 4535              		.loc 1 538 0 is_stmt 0 discriminator 1
 4536 21f2 FB7F     		ldrb	r3, [r7, #31]	@ zero_extendqisi2
 4537 21f4 072B     		cmp	r3, #7
 4538 21f6 7FF669AF 		bls	.L203
 545:.\LCD.c       ****             }
 546:.\LCD.c       ****         break;
 4539              		.loc 1 546 0 is_stmt 1 discriminator 25
 4540 21fa 01F0B2B8 		b	.L16
 4541              	.L20:
 547:.\LCD.c       ****             
 548:.\LCD.c       ****         case 2://Nombres a Formas de pago pagina 2
 549:.\LCD.c       ****             for(x=0;x<8;x++){
 4542              		.loc 1 549 0
 4543 21fe 0023     		movs	r3, #0
 4544 2200 FB77     		strb	r3, [r7, #31]
 4545 2202 92E0     		b	.L204
 4546              	.L205:
 550:.\LCD.c       ****                 write_LCD(lcd,button[52][x],9,x+4,1,0xFFFF,'Y');     //Nombre Forma de pago 7
 4547              		.loc 1 550 0 discriminator 3
 4548 2204 FB7F     		ldrb	r3, [r7, #31]	@ zero_extendqisi2
 4549 2206 4D4A     		ldr	r2, .L274
 4550 2208 1344     		add	r3, r3, r2
 4551 220a 93F8A031 		ldrb	r3, [r3, #416]
 4552 220e DAB2     		uxtb	r2, r3
 4553 2210 FB7F     		ldrb	r3, [r7, #31]	@ zero_extendqisi2
 4554 2212 9BB2     		uxth	r3, r3
 4555 2214 0433     		adds	r3, r3, #4
 4556 2216 9CB2     		uxth	r4, r3
 4557 2218 F979     		ldrb	r1, [r7, #7]	@ zero_extendqisi2
 4558 221a 0123     		movs	r3, #1
 4559 221c 0093     		str	r3, [sp]
 4560 221e 4FF6FF73 		movw	r3, #65535
 4561 2222 0193     		str	r3, [sp, #4]
 4562 2224 5923     		movs	r3, #89
 4563 2226 0293     		str	r3, [sp, #8]
 4564 2228 0846     		mov	r0, r1
 4565 222a 1146     		mov	r1, r2
 4566 222c 0922     		movs	r2, #9
 4567 222e 2346     		mov	r3, r4
 4568 2230 FFF7FEFF 		bl	write_LCD
 551:.\LCD.c       ****                 write_LCD(lcd,button[53][x],9,x+15,1,0xFFFF,'Y');    //Nombre Forma de pago 8
 4569              		.loc 1 551 0 discriminator 3
 4570 2234 FB7F     		ldrb	r3, [r7, #31]	@ zero_extendqisi2
 4571 2236 414A     		ldr	r2, .L274
 4572 2238 1344     		add	r3, r3, r2
 4573 223a 93F8A831 		ldrb	r3, [r3, #424]
 4574 223e DAB2     		uxtb	r2, r3
 4575 2240 FB7F     		ldrb	r3, [r7, #31]	@ zero_extendqisi2
 4576 2242 9BB2     		uxth	r3, r3
 4577 2244 0F33     		adds	r3, r3, #15
 4578 2246 9CB2     		uxth	r4, r3
ARM GAS  C:\Users\RECEPC~1\AppData\Local\Temp\ccAuxgaT.s 			page 94


 4579 2248 F979     		ldrb	r1, [r7, #7]	@ zero_extendqisi2
 4580 224a 0123     		movs	r3, #1
 4581 224c 0093     		str	r3, [sp]
 4582 224e 4FF6FF73 		movw	r3, #65535
 4583 2252 0193     		str	r3, [sp, #4]
 4584 2254 5923     		movs	r3, #89
 4585 2256 0293     		str	r3, [sp, #8]
 4586 2258 0846     		mov	r0, r1
 4587 225a 1146     		mov	r1, r2
 4588 225c 0922     		movs	r2, #9
 4589 225e 2346     		mov	r3, r4
 4590 2260 FFF7FEFF 		bl	write_LCD
 552:.\LCD.c       ****                 write_LCD(lcd,button[54][x],15,x+4,1,0xFFFF,'Y');    //Nombre Forma de pago 9
 4591              		.loc 1 552 0 discriminator 3
 4592 2264 FB7F     		ldrb	r3, [r7, #31]	@ zero_extendqisi2
 4593 2266 354A     		ldr	r2, .L274
 4594 2268 1344     		add	r3, r3, r2
 4595 226a 93F8B031 		ldrb	r3, [r3, #432]
 4596 226e DAB2     		uxtb	r2, r3
 4597 2270 FB7F     		ldrb	r3, [r7, #31]	@ zero_extendqisi2
 4598 2272 9BB2     		uxth	r3, r3
 4599 2274 0433     		adds	r3, r3, #4
 4600 2276 9CB2     		uxth	r4, r3
 4601 2278 F979     		ldrb	r1, [r7, #7]	@ zero_extendqisi2
 4602 227a 0123     		movs	r3, #1
 4603 227c 0093     		str	r3, [sp]
 4604 227e 4FF6FF73 		movw	r3, #65535
 4605 2282 0193     		str	r3, [sp, #4]
 4606 2284 5923     		movs	r3, #89
 4607 2286 0293     		str	r3, [sp, #8]
 4608 2288 0846     		mov	r0, r1
 4609 228a 1146     		mov	r1, r2
 4610 228c 0F22     		movs	r2, #15
 4611 228e 2346     		mov	r3, r4
 4612 2290 FFF7FEFF 		bl	write_LCD
 553:.\LCD.c       ****                 write_LCD(lcd,button[55][x],15,x+15,1,0xFFFF,'Y');   //Nombre Forma de pago 10
 4613              		.loc 1 553 0 discriminator 3
 4614 2294 FB7F     		ldrb	r3, [r7, #31]	@ zero_extendqisi2
 4615 2296 294A     		ldr	r2, .L274
 4616 2298 1344     		add	r3, r3, r2
 4617 229a 93F8B831 		ldrb	r3, [r3, #440]
 4618 229e DAB2     		uxtb	r2, r3
 4619 22a0 FB7F     		ldrb	r3, [r7, #31]	@ zero_extendqisi2
 4620 22a2 9BB2     		uxth	r3, r3
 4621 22a4 0F33     		adds	r3, r3, #15
 4622 22a6 9CB2     		uxth	r4, r3
 4623 22a8 F979     		ldrb	r1, [r7, #7]	@ zero_extendqisi2
 4624 22aa 0123     		movs	r3, #1
 4625 22ac 0093     		str	r3, [sp]
 4626 22ae 4FF6FF73 		movw	r3, #65535
 4627 22b2 0193     		str	r3, [sp, #4]
 4628 22b4 5923     		movs	r3, #89
 4629 22b6 0293     		str	r3, [sp, #8]
 4630 22b8 0846     		mov	r0, r1
 4631 22ba 1146     		mov	r1, r2
 4632 22bc 0F22     		movs	r2, #15
 4633 22be 2346     		mov	r3, r4
ARM GAS  C:\Users\RECEPC~1\AppData\Local\Temp\ccAuxgaT.s 			page 95


 4634 22c0 FFF7FEFF 		bl	write_LCD
 554:.\LCD.c       ****                 write_LCD(lcd,button[56][x],21,x+4,1,0xFFFF,'Y');    //Nombre Forma de pago 11
 4635              		.loc 1 554 0 discriminator 3
 4636 22c4 FB7F     		ldrb	r3, [r7, #31]	@ zero_extendqisi2
 4637 22c6 1D4A     		ldr	r2, .L274
 4638 22c8 1344     		add	r3, r3, r2
 4639 22ca 93F8C031 		ldrb	r3, [r3, #448]
 4640 22ce DAB2     		uxtb	r2, r3
 4641 22d0 FB7F     		ldrb	r3, [r7, #31]	@ zero_extendqisi2
 4642 22d2 9BB2     		uxth	r3, r3
 4643 22d4 0433     		adds	r3, r3, #4
 4644 22d6 9CB2     		uxth	r4, r3
 4645 22d8 F979     		ldrb	r1, [r7, #7]	@ zero_extendqisi2
 4646 22da 0123     		movs	r3, #1
 4647 22dc 0093     		str	r3, [sp]
 4648 22de 4FF6FF73 		movw	r3, #65535
 4649 22e2 0193     		str	r3, [sp, #4]
 4650 22e4 5923     		movs	r3, #89
 4651 22e6 0293     		str	r3, [sp, #8]
 4652 22e8 0846     		mov	r0, r1
 4653 22ea 1146     		mov	r1, r2
 4654 22ec 1522     		movs	r2, #21
 4655 22ee 2346     		mov	r3, r4
 4656 22f0 FFF7FEFF 		bl	write_LCD
 555:.\LCD.c       ****                 write_LCD(lcd,button[57][x],21,x+15,1,0xFFFF,'Y');   //Nombre Forma de pago 12
 4657              		.loc 1 555 0 discriminator 3
 4658 22f4 FB7F     		ldrb	r3, [r7, #31]	@ zero_extendqisi2
 4659 22f6 114A     		ldr	r2, .L274
 4660 22f8 1344     		add	r3, r3, r2
 4661 22fa 93F8C831 		ldrb	r3, [r3, #456]
 4662 22fe DAB2     		uxtb	r2, r3
 4663 2300 FB7F     		ldrb	r3, [r7, #31]	@ zero_extendqisi2
 4664 2302 9BB2     		uxth	r3, r3
 4665 2304 0F33     		adds	r3, r3, #15
 4666 2306 9CB2     		uxth	r4, r3
 4667 2308 F979     		ldrb	r1, [r7, #7]	@ zero_extendqisi2
 4668 230a 0123     		movs	r3, #1
 4669 230c 0093     		str	r3, [sp]
 4670 230e 4FF6FF73 		movw	r3, #65535
 4671 2312 0193     		str	r3, [sp, #4]
 4672 2314 5923     		movs	r3, #89
 4673 2316 0293     		str	r3, [sp, #8]
 4674 2318 0846     		mov	r0, r1
 4675 231a 1146     		mov	r1, r2
 4676 231c 1522     		movs	r2, #21
 4677 231e 2346     		mov	r3, r4
 4678 2320 FFF7FEFF 		bl	write_LCD
 549:.\LCD.c       ****                 write_LCD(lcd,button[52][x],9,x+4,1,0xFFFF,'Y');     //Nombre Forma de pago 7
 4679              		.loc 1 549 0 discriminator 3
 4680 2324 FB7F     		ldrb	r3, [r7, #31]	@ zero_extendqisi2
 4681 2326 0133     		adds	r3, r3, #1
 4682 2328 FB77     		strb	r3, [r7, #31]
 4683              	.L204:
 549:.\LCD.c       ****                 write_LCD(lcd,button[52][x],9,x+4,1,0xFFFF,'Y');     //Nombre Forma de pago 7
 4684              		.loc 1 549 0 is_stmt 0 discriminator 1
 4685 232a FB7F     		ldrb	r3, [r7, #31]	@ zero_extendqisi2
 4686 232c 072B     		cmp	r3, #7
ARM GAS  C:\Users\RECEPC~1\AppData\Local\Temp\ccAuxgaT.s 			page 96


 4687 232e 7FF669AF 		bls	.L205
 556:.\LCD.c       ****             }
 557:.\LCD.c       ****         break;
 4688              		.loc 1 557 0 is_stmt 1 discriminator 26
 4689 2332 01F016B8 		b	.L16
 4690              	.L21:
 558:.\LCD.c       ****             
 559:.\LCD.c       ****         case 3://Nombres a Formas de pago pagina 3
 560:.\LCD.c       ****             for(x=0;x<8;x++){
 4691              		.loc 1 560 0
 4692 2336 0023     		movs	r3, #0
 4693 2338 FB77     		strb	r3, [r7, #31]
 4694 233a 94E0     		b	.L206
 4695              	.L275:
 4696              		.align	2
 4697              	.L274:
 4698 233c 00000000 		.word	button
 4699              	.L207:
 561:.\LCD.c       ****                 write_LCD(lcd,button[58][x],9,x+4,1,0xFFFF,'Y');     //Nombre Forma de pago 13
 4700              		.loc 1 561 0 discriminator 3
 4701 2340 FB7F     		ldrb	r3, [r7, #31]	@ zero_extendqisi2
 4702 2342 9B4A     		ldr	r2, .L276
 4703 2344 1344     		add	r3, r3, r2
 4704 2346 93F8D031 		ldrb	r3, [r3, #464]
 4705 234a DAB2     		uxtb	r2, r3
 4706 234c FB7F     		ldrb	r3, [r7, #31]	@ zero_extendqisi2
 4707 234e 9BB2     		uxth	r3, r3
 4708 2350 0433     		adds	r3, r3, #4
 4709 2352 9CB2     		uxth	r4, r3
 4710 2354 F979     		ldrb	r1, [r7, #7]	@ zero_extendqisi2
 4711 2356 0123     		movs	r3, #1
 4712 2358 0093     		str	r3, [sp]
 4713 235a 4FF6FF73 		movw	r3, #65535
 4714 235e 0193     		str	r3, [sp, #4]
 4715 2360 5923     		movs	r3, #89
 4716 2362 0293     		str	r3, [sp, #8]
 4717 2364 0846     		mov	r0, r1
 4718 2366 1146     		mov	r1, r2
 4719 2368 0922     		movs	r2, #9
 4720 236a 2346     		mov	r3, r4
 4721 236c FFF7FEFF 		bl	write_LCD
 562:.\LCD.c       ****                 write_LCD(lcd,button[59][x],9,x+15,1,0xFFFF,'Y');    //Nombre Forma de pago 14
 4722              		.loc 1 562 0 discriminator 3
 4723 2370 FB7F     		ldrb	r3, [r7, #31]	@ zero_extendqisi2
 4724 2372 8F4A     		ldr	r2, .L276
 4725 2374 1344     		add	r3, r3, r2
 4726 2376 93F8D831 		ldrb	r3, [r3, #472]
 4727 237a DAB2     		uxtb	r2, r3
 4728 237c FB7F     		ldrb	r3, [r7, #31]	@ zero_extendqisi2
 4729 237e 9BB2     		uxth	r3, r3
 4730 2380 0F33     		adds	r3, r3, #15
 4731 2382 9CB2     		uxth	r4, r3
 4732 2384 F979     		ldrb	r1, [r7, #7]	@ zero_extendqisi2
 4733 2386 0123     		movs	r3, #1
 4734 2388 0093     		str	r3, [sp]
 4735 238a 4FF6FF73 		movw	r3, #65535
 4736 238e 0193     		str	r3, [sp, #4]
ARM GAS  C:\Users\RECEPC~1\AppData\Local\Temp\ccAuxgaT.s 			page 97


 4737 2390 5923     		movs	r3, #89
 4738 2392 0293     		str	r3, [sp, #8]
 4739 2394 0846     		mov	r0, r1
 4740 2396 1146     		mov	r1, r2
 4741 2398 0922     		movs	r2, #9
 4742 239a 2346     		mov	r3, r4
 4743 239c FFF7FEFF 		bl	write_LCD
 563:.\LCD.c       ****                 write_LCD(lcd,button[60][x],15,x+4,1,0xFFFF,'Y');    //Nombre Forma de pago 15
 4744              		.loc 1 563 0 discriminator 3
 4745 23a0 FB7F     		ldrb	r3, [r7, #31]	@ zero_extendqisi2
 4746 23a2 834A     		ldr	r2, .L276
 4747 23a4 1344     		add	r3, r3, r2
 4748 23a6 93F8E031 		ldrb	r3, [r3, #480]
 4749 23aa DAB2     		uxtb	r2, r3
 4750 23ac FB7F     		ldrb	r3, [r7, #31]	@ zero_extendqisi2
 4751 23ae 9BB2     		uxth	r3, r3
 4752 23b0 0433     		adds	r3, r3, #4
 4753 23b2 9CB2     		uxth	r4, r3
 4754 23b4 F979     		ldrb	r1, [r7, #7]	@ zero_extendqisi2
 4755 23b6 0123     		movs	r3, #1
 4756 23b8 0093     		str	r3, [sp]
 4757 23ba 4FF6FF73 		movw	r3, #65535
 4758 23be 0193     		str	r3, [sp, #4]
 4759 23c0 5923     		movs	r3, #89
 4760 23c2 0293     		str	r3, [sp, #8]
 4761 23c4 0846     		mov	r0, r1
 4762 23c6 1146     		mov	r1, r2
 4763 23c8 0F22     		movs	r2, #15
 4764 23ca 2346     		mov	r3, r4
 4765 23cc FFF7FEFF 		bl	write_LCD
 564:.\LCD.c       ****                 write_LCD(lcd,button[61][x],15,x+15,1,0xFFFF,'Y');   //Nombre Forma de pago 16
 4766              		.loc 1 564 0 discriminator 3
 4767 23d0 FB7F     		ldrb	r3, [r7, #31]	@ zero_extendqisi2
 4768 23d2 774A     		ldr	r2, .L276
 4769 23d4 1344     		add	r3, r3, r2
 4770 23d6 93F8E831 		ldrb	r3, [r3, #488]
 4771 23da DAB2     		uxtb	r2, r3
 4772 23dc FB7F     		ldrb	r3, [r7, #31]	@ zero_extendqisi2
 4773 23de 9BB2     		uxth	r3, r3
 4774 23e0 0F33     		adds	r3, r3, #15
 4775 23e2 9CB2     		uxth	r4, r3
 4776 23e4 F979     		ldrb	r1, [r7, #7]	@ zero_extendqisi2
 4777 23e6 0123     		movs	r3, #1
 4778 23e8 0093     		str	r3, [sp]
 4779 23ea 4FF6FF73 		movw	r3, #65535
 4780 23ee 0193     		str	r3, [sp, #4]
 4781 23f0 5923     		movs	r3, #89
 4782 23f2 0293     		str	r3, [sp, #8]
 4783 23f4 0846     		mov	r0, r1
 4784 23f6 1146     		mov	r1, r2
 4785 23f8 0F22     		movs	r2, #15
 4786 23fa 2346     		mov	r3, r4
 4787 23fc FFF7FEFF 		bl	write_LCD
 565:.\LCD.c       ****                 write_LCD(lcd,button[62][x],21,x+4,1,0xFFFF,'Y');    //Nombre Forma de pago 17
 4788              		.loc 1 565 0 discriminator 3
 4789 2400 FB7F     		ldrb	r3, [r7, #31]	@ zero_extendqisi2
 4790 2402 6B4A     		ldr	r2, .L276
ARM GAS  C:\Users\RECEPC~1\AppData\Local\Temp\ccAuxgaT.s 			page 98


 4791 2404 1344     		add	r3, r3, r2
 4792 2406 93F8F031 		ldrb	r3, [r3, #496]
 4793 240a DAB2     		uxtb	r2, r3
 4794 240c FB7F     		ldrb	r3, [r7, #31]	@ zero_extendqisi2
 4795 240e 9BB2     		uxth	r3, r3
 4796 2410 0433     		adds	r3, r3, #4
 4797 2412 9CB2     		uxth	r4, r3
 4798 2414 F979     		ldrb	r1, [r7, #7]	@ zero_extendqisi2
 4799 2416 0123     		movs	r3, #1
 4800 2418 0093     		str	r3, [sp]
 4801 241a 4FF6FF73 		movw	r3, #65535
 4802 241e 0193     		str	r3, [sp, #4]
 4803 2420 5923     		movs	r3, #89
 4804 2422 0293     		str	r3, [sp, #8]
 4805 2424 0846     		mov	r0, r1
 4806 2426 1146     		mov	r1, r2
 4807 2428 1522     		movs	r2, #21
 4808 242a 2346     		mov	r3, r4
 4809 242c FFF7FEFF 		bl	write_LCD
 566:.\LCD.c       ****                 write_LCD(lcd,button[63][x],21,x+15,1,0xFFFF,'Y');   //Nombre Forma de pago 18
 4810              		.loc 1 566 0 discriminator 3
 4811 2430 FB7F     		ldrb	r3, [r7, #31]	@ zero_extendqisi2
 4812 2432 5F4A     		ldr	r2, .L276
 4813 2434 1344     		add	r3, r3, r2
 4814 2436 93F8F831 		ldrb	r3, [r3, #504]
 4815 243a DAB2     		uxtb	r2, r3
 4816 243c FB7F     		ldrb	r3, [r7, #31]	@ zero_extendqisi2
 4817 243e 9BB2     		uxth	r3, r3
 4818 2440 0F33     		adds	r3, r3, #15
 4819 2442 9CB2     		uxth	r4, r3
 4820 2444 F979     		ldrb	r1, [r7, #7]	@ zero_extendqisi2
 4821 2446 0123     		movs	r3, #1
 4822 2448 0093     		str	r3, [sp]
 4823 244a 4FF6FF73 		movw	r3, #65535
 4824 244e 0193     		str	r3, [sp, #4]
 4825 2450 5923     		movs	r3, #89
 4826 2452 0293     		str	r3, [sp, #8]
 4827 2454 0846     		mov	r0, r1
 4828 2456 1146     		mov	r1, r2
 4829 2458 1522     		movs	r2, #21
 4830 245a 2346     		mov	r3, r4
 4831 245c FFF7FEFF 		bl	write_LCD
 560:.\LCD.c       ****                 write_LCD(lcd,button[58][x],9,x+4,1,0xFFFF,'Y');     //Nombre Forma de pago 13
 4832              		.loc 1 560 0 discriminator 3
 4833 2460 FB7F     		ldrb	r3, [r7, #31]	@ zero_extendqisi2
 4834 2462 0133     		adds	r3, r3, #1
 4835 2464 FB77     		strb	r3, [r7, #31]
 4836              	.L206:
 560:.\LCD.c       ****                 write_LCD(lcd,button[58][x],9,x+4,1,0xFFFF,'Y');     //Nombre Forma de pago 13
 4837              		.loc 1 560 0 is_stmt 0 discriminator 1
 4838 2466 FB7F     		ldrb	r3, [r7, #31]	@ zero_extendqisi2
 4839 2468 072B     		cmp	r3, #7
 4840 246a 7FF669AF 		bls	.L207
 567:.\LCD.c       ****             }
 568:.\LCD.c       ****         break;
 4841              		.loc 1 568 0 is_stmt 1 discriminator 27
 4842 246e 00F078BF 		b	.L16
ARM GAS  C:\Users\RECEPC~1\AppData\Local\Temp\ccAuxgaT.s 			page 99


 4843              	.L22:
 569:.\LCD.c       ****             
 570:.\LCD.c       ****         case 4://Nombres a Formas de pago pagina 4
 571:.\LCD.c       ****             for(x=0;x<8;x++){
 4844              		.loc 1 571 0
 4845 2472 0023     		movs	r3, #0
 4846 2474 FB77     		strb	r3, [r7, #31]
 4847 2476 92E0     		b	.L208
 4848              	.L209:
 572:.\LCD.c       ****                 write_LCD(lcd,button[64][x],9,x+4,1,0xFFFF,'Y');     //Nombre Forma de pago 19
 4849              		.loc 1 572 0 discriminator 3
 4850 2478 FB7F     		ldrb	r3, [r7, #31]	@ zero_extendqisi2
 4851 247a 4D4A     		ldr	r2, .L276
 4852 247c 1344     		add	r3, r3, r2
 4853 247e 93F80032 		ldrb	r3, [r3, #512]
 4854 2482 DAB2     		uxtb	r2, r3
 4855 2484 FB7F     		ldrb	r3, [r7, #31]	@ zero_extendqisi2
 4856 2486 9BB2     		uxth	r3, r3
 4857 2488 0433     		adds	r3, r3, #4
 4858 248a 9CB2     		uxth	r4, r3
 4859 248c F979     		ldrb	r1, [r7, #7]	@ zero_extendqisi2
 4860 248e 0123     		movs	r3, #1
 4861 2490 0093     		str	r3, [sp]
 4862 2492 4FF6FF73 		movw	r3, #65535
 4863 2496 0193     		str	r3, [sp, #4]
 4864 2498 5923     		movs	r3, #89
 4865 249a 0293     		str	r3, [sp, #8]
 4866 249c 0846     		mov	r0, r1
 4867 249e 1146     		mov	r1, r2
 4868 24a0 0922     		movs	r2, #9
 4869 24a2 2346     		mov	r3, r4
 4870 24a4 FFF7FEFF 		bl	write_LCD
 573:.\LCD.c       ****                 write_LCD(lcd,button[65][x],9,x+15,1,0xFFFF,'Y');    //Nombre Forma de pago 20
 4871              		.loc 1 573 0 discriminator 3
 4872 24a8 FB7F     		ldrb	r3, [r7, #31]	@ zero_extendqisi2
 4873 24aa 414A     		ldr	r2, .L276
 4874 24ac 1344     		add	r3, r3, r2
 4875 24ae 93F80832 		ldrb	r3, [r3, #520]
 4876 24b2 DAB2     		uxtb	r2, r3
 4877 24b4 FB7F     		ldrb	r3, [r7, #31]	@ zero_extendqisi2
 4878 24b6 9BB2     		uxth	r3, r3
 4879 24b8 0F33     		adds	r3, r3, #15
 4880 24ba 9CB2     		uxth	r4, r3
 4881 24bc F979     		ldrb	r1, [r7, #7]	@ zero_extendqisi2
 4882 24be 0123     		movs	r3, #1
 4883 24c0 0093     		str	r3, [sp]
 4884 24c2 4FF6FF73 		movw	r3, #65535
 4885 24c6 0193     		str	r3, [sp, #4]
 4886 24c8 5923     		movs	r3, #89
 4887 24ca 0293     		str	r3, [sp, #8]
 4888 24cc 0846     		mov	r0, r1
 4889 24ce 1146     		mov	r1, r2
 4890 24d0 0922     		movs	r2, #9
 4891 24d2 2346     		mov	r3, r4
 4892 24d4 FFF7FEFF 		bl	write_LCD
 574:.\LCD.c       ****                 write_LCD(lcd,button[66][x],15,x+4,1,0xFFFF,'Y');    //Nombre Forma de pago 21
 4893              		.loc 1 574 0 discriminator 3
ARM GAS  C:\Users\RECEPC~1\AppData\Local\Temp\ccAuxgaT.s 			page 100


 4894 24d8 FB7F     		ldrb	r3, [r7, #31]	@ zero_extendqisi2
 4895 24da 354A     		ldr	r2, .L276
 4896 24dc 1344     		add	r3, r3, r2
 4897 24de 93F81032 		ldrb	r3, [r3, #528]
 4898 24e2 DAB2     		uxtb	r2, r3
 4899 24e4 FB7F     		ldrb	r3, [r7, #31]	@ zero_extendqisi2
 4900 24e6 9BB2     		uxth	r3, r3
 4901 24e8 0433     		adds	r3, r3, #4
 4902 24ea 9CB2     		uxth	r4, r3
 4903 24ec F979     		ldrb	r1, [r7, #7]	@ zero_extendqisi2
 4904 24ee 0123     		movs	r3, #1
 4905 24f0 0093     		str	r3, [sp]
 4906 24f2 4FF6FF73 		movw	r3, #65535
 4907 24f6 0193     		str	r3, [sp, #4]
 4908 24f8 5923     		movs	r3, #89
 4909 24fa 0293     		str	r3, [sp, #8]
 4910 24fc 0846     		mov	r0, r1
 4911 24fe 1146     		mov	r1, r2
 4912 2500 0F22     		movs	r2, #15
 4913 2502 2346     		mov	r3, r4
 4914 2504 FFF7FEFF 		bl	write_LCD
 575:.\LCD.c       ****                 write_LCD(lcd,button[67][x],15,x+15,1,0xFFFF,'Y');   //Nombre Forma de pago 22
 4915              		.loc 1 575 0 discriminator 3
 4916 2508 FB7F     		ldrb	r3, [r7, #31]	@ zero_extendqisi2
 4917 250a 294A     		ldr	r2, .L276
 4918 250c 1344     		add	r3, r3, r2
 4919 250e 93F81832 		ldrb	r3, [r3, #536]
 4920 2512 DAB2     		uxtb	r2, r3
 4921 2514 FB7F     		ldrb	r3, [r7, #31]	@ zero_extendqisi2
 4922 2516 9BB2     		uxth	r3, r3
 4923 2518 0F33     		adds	r3, r3, #15
 4924 251a 9CB2     		uxth	r4, r3
 4925 251c F979     		ldrb	r1, [r7, #7]	@ zero_extendqisi2
 4926 251e 0123     		movs	r3, #1
 4927 2520 0093     		str	r3, [sp]
 4928 2522 4FF6FF73 		movw	r3, #65535
 4929 2526 0193     		str	r3, [sp, #4]
 4930 2528 5923     		movs	r3, #89
 4931 252a 0293     		str	r3, [sp, #8]
 4932 252c 0846     		mov	r0, r1
 4933 252e 1146     		mov	r1, r2
 4934 2530 0F22     		movs	r2, #15
 4935 2532 2346     		mov	r3, r4
 4936 2534 FFF7FEFF 		bl	write_LCD
 576:.\LCD.c       ****                 write_LCD(lcd,button[68][x],21,x+4,1,0xFFFF,'Y');    //Nombre Forma de pago 23
 4937              		.loc 1 576 0 discriminator 3
 4938 2538 FB7F     		ldrb	r3, [r7, #31]	@ zero_extendqisi2
 4939 253a 1D4A     		ldr	r2, .L276
 4940 253c 1344     		add	r3, r3, r2
 4941 253e 93F82032 		ldrb	r3, [r3, #544]
 4942 2542 DAB2     		uxtb	r2, r3
 4943 2544 FB7F     		ldrb	r3, [r7, #31]	@ zero_extendqisi2
 4944 2546 9BB2     		uxth	r3, r3
 4945 2548 0433     		adds	r3, r3, #4
 4946 254a 9CB2     		uxth	r4, r3
 4947 254c F979     		ldrb	r1, [r7, #7]	@ zero_extendqisi2
 4948 254e 0123     		movs	r3, #1
ARM GAS  C:\Users\RECEPC~1\AppData\Local\Temp\ccAuxgaT.s 			page 101


 4949 2550 0093     		str	r3, [sp]
 4950 2552 4FF6FF73 		movw	r3, #65535
 4951 2556 0193     		str	r3, [sp, #4]
 4952 2558 5923     		movs	r3, #89
 4953 255a 0293     		str	r3, [sp, #8]
 4954 255c 0846     		mov	r0, r1
 4955 255e 1146     		mov	r1, r2
 4956 2560 1522     		movs	r2, #21
 4957 2562 2346     		mov	r3, r4
 4958 2564 FFF7FEFF 		bl	write_LCD
 577:.\LCD.c       ****                 write_LCD(lcd,button[69][x],21,x+15,1,0xFFFF,'Y');   //Nombre Forma de pago 24
 4959              		.loc 1 577 0 discriminator 3
 4960 2568 FB7F     		ldrb	r3, [r7, #31]	@ zero_extendqisi2
 4961 256a 114A     		ldr	r2, .L276
 4962 256c 1344     		add	r3, r3, r2
 4963 256e 93F82832 		ldrb	r3, [r3, #552]
 4964 2572 DAB2     		uxtb	r2, r3
 4965 2574 FB7F     		ldrb	r3, [r7, #31]	@ zero_extendqisi2
 4966 2576 9BB2     		uxth	r3, r3
 4967 2578 0F33     		adds	r3, r3, #15
 4968 257a 9CB2     		uxth	r4, r3
 4969 257c F979     		ldrb	r1, [r7, #7]	@ zero_extendqisi2
 4970 257e 0123     		movs	r3, #1
 4971 2580 0093     		str	r3, [sp]
 4972 2582 4FF6FF73 		movw	r3, #65535
 4973 2586 0193     		str	r3, [sp, #4]
 4974 2588 5923     		movs	r3, #89
 4975 258a 0293     		str	r3, [sp, #8]
 4976 258c 0846     		mov	r0, r1
 4977 258e 1146     		mov	r1, r2
 4978 2590 1522     		movs	r2, #21
 4979 2592 2346     		mov	r3, r4
 4980 2594 FFF7FEFF 		bl	write_LCD
 571:.\LCD.c       ****                 write_LCD(lcd,button[64][x],9,x+4,1,0xFFFF,'Y');     //Nombre Forma de pago 19
 4981              		.loc 1 571 0 discriminator 3
 4982 2598 FB7F     		ldrb	r3, [r7, #31]	@ zero_extendqisi2
 4983 259a 0133     		adds	r3, r3, #1
 4984 259c FB77     		strb	r3, [r7, #31]
 4985              	.L208:
 571:.\LCD.c       ****                 write_LCD(lcd,button[64][x],9,x+4,1,0xFFFF,'Y');     //Nombre Forma de pago 19
 4986              		.loc 1 571 0 is_stmt 0 discriminator 1
 4987 259e FB7F     		ldrb	r3, [r7, #31]	@ zero_extendqisi2
 4988 25a0 072B     		cmp	r3, #7
 4989 25a2 7FF669AF 		bls	.L209
 578:.\LCD.c       ****             }
 579:.\LCD.c       ****         break;  
 4990              		.loc 1 579 0 is_stmt 1 discriminator 28
 4991 25a6 00F0DCBE 		b	.L16
 4992              	.L47:
 580:.\LCD.c       ****             
 581:.\LCD.c       ****         case 'V'://Tipo de vehiculo
 582:.\LCD.c       ****             for(x=0;x<8;x++){
 4993              		.loc 1 582 0
 4994 25aa 0023     		movs	r3, #0
 4995 25ac FB77     		strb	r3, [r7, #31]
 4996 25ae C4E0     		b	.L210
 4997              	.L277:
ARM GAS  C:\Users\RECEPC~1\AppData\Local\Temp\ccAuxgaT.s 			page 102


 4998              		.align	2
 4999              	.L276:
 5000 25b0 00000000 		.word	button
 5001              	.L211:
 583:.\LCD.c       ****                 write_LCD(lcd,button[72][x],2,x+1,2,0x2110,'Y');   //Nombre de imagen Tipo de vehic
 5002              		.loc 1 583 0 discriminator 3
 5003 25b4 FB7F     		ldrb	r3, [r7, #31]	@ zero_extendqisi2
 5004 25b6 AC4A     		ldr	r2, .L278
 5005 25b8 1344     		add	r3, r3, r2
 5006 25ba 93F84032 		ldrb	r3, [r3, #576]
 5007 25be DAB2     		uxtb	r2, r3
 5008 25c0 FB7F     		ldrb	r3, [r7, #31]	@ zero_extendqisi2
 5009 25c2 9BB2     		uxth	r3, r3
 5010 25c4 0133     		adds	r3, r3, #1
 5011 25c6 9CB2     		uxth	r4, r3
 5012 25c8 F979     		ldrb	r1, [r7, #7]	@ zero_extendqisi2
 5013 25ca 0223     		movs	r3, #2
 5014 25cc 0093     		str	r3, [sp]
 5015 25ce 42F21013 		movw	r3, #8464
 5016 25d2 0193     		str	r3, [sp, #4]
 5017 25d4 5923     		movs	r3, #89
 5018 25d6 0293     		str	r3, [sp, #8]
 5019 25d8 0846     		mov	r0, r1
 5020 25da 1146     		mov	r1, r2
 5021 25dc 0222     		movs	r2, #2
 5022 25de 2346     		mov	r3, r4
 5023 25e0 FFF7FEFF 		bl	write_LCD
 584:.\LCD.c       ****                 write_LCD(lcd,button[73][x],2,x+9,2,0x2110,'Y');   //Nombre de imagen Tipo de vehic
 5024              		.loc 1 584 0 discriminator 3
 5025 25e4 FB7F     		ldrb	r3, [r7, #31]	@ zero_extendqisi2
 5026 25e6 A04A     		ldr	r2, .L278
 5027 25e8 1344     		add	r3, r3, r2
 5028 25ea 93F84832 		ldrb	r3, [r3, #584]
 5029 25ee DAB2     		uxtb	r2, r3
 5030 25f0 FB7F     		ldrb	r3, [r7, #31]	@ zero_extendqisi2
 5031 25f2 9BB2     		uxth	r3, r3
 5032 25f4 0933     		adds	r3, r3, #9
 5033 25f6 9CB2     		uxth	r4, r3
 5034 25f8 F979     		ldrb	r1, [r7, #7]	@ zero_extendqisi2
 5035 25fa 0223     		movs	r3, #2
 5036 25fc 0093     		str	r3, [sp]
 5037 25fe 42F21013 		movw	r3, #8464
 5038 2602 0193     		str	r3, [sp, #4]
 5039 2604 5923     		movs	r3, #89
 5040 2606 0293     		str	r3, [sp, #8]
 5041 2608 0846     		mov	r0, r1
 5042 260a 1146     		mov	r1, r2
 5043 260c 0222     		movs	r2, #2
 5044 260e 2346     		mov	r3, r4
 5045 2610 FFF7FEFF 		bl	write_LCD
 585:.\LCD.c       ****                 write_LCD(lcd,button[74][x],9,x+4,1,0xFFFF,'Y');     //Nombre Tipo de vehiculo 1
 5046              		.loc 1 585 0 discriminator 3
 5047 2614 FB7F     		ldrb	r3, [r7, #31]	@ zero_extendqisi2
 5048 2616 944A     		ldr	r2, .L278
 5049 2618 1344     		add	r3, r3, r2
 5050 261a 93F85032 		ldrb	r3, [r3, #592]
 5051 261e DAB2     		uxtb	r2, r3
ARM GAS  C:\Users\RECEPC~1\AppData\Local\Temp\ccAuxgaT.s 			page 103


 5052 2620 FB7F     		ldrb	r3, [r7, #31]	@ zero_extendqisi2
 5053 2622 9BB2     		uxth	r3, r3
 5054 2624 0433     		adds	r3, r3, #4
 5055 2626 9CB2     		uxth	r4, r3
 5056 2628 F979     		ldrb	r1, [r7, #7]	@ zero_extendqisi2
 5057 262a 0123     		movs	r3, #1
 5058 262c 0093     		str	r3, [sp]
 5059 262e 4FF6FF73 		movw	r3, #65535
 5060 2632 0193     		str	r3, [sp, #4]
 5061 2634 5923     		movs	r3, #89
 5062 2636 0293     		str	r3, [sp, #8]
 5063 2638 0846     		mov	r0, r1
 5064 263a 1146     		mov	r1, r2
 5065 263c 0922     		movs	r2, #9
 5066 263e 2346     		mov	r3, r4
 5067 2640 FFF7FEFF 		bl	write_LCD
 586:.\LCD.c       ****                 write_LCD(lcd,button[75][x],9,x+15,1,0xFFFF,'Y');    //Nombre Tipo de vehiculo 2
 5068              		.loc 1 586 0 discriminator 3
 5069 2644 FB7F     		ldrb	r3, [r7, #31]	@ zero_extendqisi2
 5070 2646 884A     		ldr	r2, .L278
 5071 2648 1344     		add	r3, r3, r2
 5072 264a 93F85832 		ldrb	r3, [r3, #600]
 5073 264e DAB2     		uxtb	r2, r3
 5074 2650 FB7F     		ldrb	r3, [r7, #31]	@ zero_extendqisi2
 5075 2652 9BB2     		uxth	r3, r3
 5076 2654 0F33     		adds	r3, r3, #15
 5077 2656 9CB2     		uxth	r4, r3
 5078 2658 F979     		ldrb	r1, [r7, #7]	@ zero_extendqisi2
 5079 265a 0123     		movs	r3, #1
 5080 265c 0093     		str	r3, [sp]
 5081 265e 4FF6FF73 		movw	r3, #65535
 5082 2662 0193     		str	r3, [sp, #4]
 5083 2664 5923     		movs	r3, #89
 5084 2666 0293     		str	r3, [sp, #8]
 5085 2668 0846     		mov	r0, r1
 5086 266a 1146     		mov	r1, r2
 5087 266c 0922     		movs	r2, #9
 5088 266e 2346     		mov	r3, r4
 5089 2670 FFF7FEFF 		bl	write_LCD
 587:.\LCD.c       ****                 write_LCD(lcd,button[76][x],15,x+4,1,0xFFFF,'Y');    //Nombre Tipo de vehiculo 3
 5090              		.loc 1 587 0 discriminator 3
 5091 2674 FB7F     		ldrb	r3, [r7, #31]	@ zero_extendqisi2
 5092 2676 7C4A     		ldr	r2, .L278
 5093 2678 1344     		add	r3, r3, r2
 5094 267a 93F86032 		ldrb	r3, [r3, #608]
 5095 267e DAB2     		uxtb	r2, r3
 5096 2680 FB7F     		ldrb	r3, [r7, #31]	@ zero_extendqisi2
 5097 2682 9BB2     		uxth	r3, r3
 5098 2684 0433     		adds	r3, r3, #4
 5099 2686 9CB2     		uxth	r4, r3
 5100 2688 F979     		ldrb	r1, [r7, #7]	@ zero_extendqisi2
 5101 268a 0123     		movs	r3, #1
 5102 268c 0093     		str	r3, [sp]
 5103 268e 4FF6FF73 		movw	r3, #65535
 5104 2692 0193     		str	r3, [sp, #4]
 5105 2694 5923     		movs	r3, #89
 5106 2696 0293     		str	r3, [sp, #8]
ARM GAS  C:\Users\RECEPC~1\AppData\Local\Temp\ccAuxgaT.s 			page 104


 5107 2698 0846     		mov	r0, r1
 5108 269a 1146     		mov	r1, r2
 5109 269c 0F22     		movs	r2, #15
 5110 269e 2346     		mov	r3, r4
 5111 26a0 FFF7FEFF 		bl	write_LCD
 588:.\LCD.c       ****                 write_LCD(lcd,button[77][x],15,x+15,1,0xFFFF,'Y');   //Nombre Tipo de vehiculo 4
 5112              		.loc 1 588 0 discriminator 3
 5113 26a4 FB7F     		ldrb	r3, [r7, #31]	@ zero_extendqisi2
 5114 26a6 704A     		ldr	r2, .L278
 5115 26a8 1344     		add	r3, r3, r2
 5116 26aa 93F86832 		ldrb	r3, [r3, #616]
 5117 26ae DAB2     		uxtb	r2, r3
 5118 26b0 FB7F     		ldrb	r3, [r7, #31]	@ zero_extendqisi2
 5119 26b2 9BB2     		uxth	r3, r3
 5120 26b4 0F33     		adds	r3, r3, #15
 5121 26b6 9CB2     		uxth	r4, r3
 5122 26b8 F979     		ldrb	r1, [r7, #7]	@ zero_extendqisi2
 5123 26ba 0123     		movs	r3, #1
 5124 26bc 0093     		str	r3, [sp]
 5125 26be 4FF6FF73 		movw	r3, #65535
 5126 26c2 0193     		str	r3, [sp, #4]
 5127 26c4 5923     		movs	r3, #89
 5128 26c6 0293     		str	r3, [sp, #8]
 5129 26c8 0846     		mov	r0, r1
 5130 26ca 1146     		mov	r1, r2
 5131 26cc 0F22     		movs	r2, #15
 5132 26ce 2346     		mov	r3, r4
 5133 26d0 FFF7FEFF 		bl	write_LCD
 589:.\LCD.c       ****                 write_LCD(lcd,button[78][x],21,x+4,1,0xFFFF,'Y');    //Nombre Tipo de vehiculo 5
 5134              		.loc 1 589 0 discriminator 3
 5135 26d4 FB7F     		ldrb	r3, [r7, #31]	@ zero_extendqisi2
 5136 26d6 644A     		ldr	r2, .L278
 5137 26d8 1344     		add	r3, r3, r2
 5138 26da 93F87032 		ldrb	r3, [r3, #624]
 5139 26de DAB2     		uxtb	r2, r3
 5140 26e0 FB7F     		ldrb	r3, [r7, #31]	@ zero_extendqisi2
 5141 26e2 9BB2     		uxth	r3, r3
 5142 26e4 0433     		adds	r3, r3, #4
 5143 26e6 9CB2     		uxth	r4, r3
 5144 26e8 F979     		ldrb	r1, [r7, #7]	@ zero_extendqisi2
 5145 26ea 0123     		movs	r3, #1
 5146 26ec 0093     		str	r3, [sp]
 5147 26ee 4FF6FF73 		movw	r3, #65535
 5148 26f2 0193     		str	r3, [sp, #4]
 5149 26f4 5923     		movs	r3, #89
 5150 26f6 0293     		str	r3, [sp, #8]
 5151 26f8 0846     		mov	r0, r1
 5152 26fa 1146     		mov	r1, r2
 5153 26fc 1522     		movs	r2, #21
 5154 26fe 2346     		mov	r3, r4
 5155 2700 FFF7FEFF 		bl	write_LCD
 590:.\LCD.c       ****                 write_LCD(lcd,button[79][x],21,x+15,1,0xFFFF,'Y');   //Nombre Tipo de vehiculo 6
 5156              		.loc 1 590 0 discriminator 3
 5157 2704 FB7F     		ldrb	r3, [r7, #31]	@ zero_extendqisi2
 5158 2706 584A     		ldr	r2, .L278
 5159 2708 1344     		add	r3, r3, r2
 5160 270a 93F87832 		ldrb	r3, [r3, #632]
ARM GAS  C:\Users\RECEPC~1\AppData\Local\Temp\ccAuxgaT.s 			page 105


 5161 270e DAB2     		uxtb	r2, r3
 5162 2710 FB7F     		ldrb	r3, [r7, #31]	@ zero_extendqisi2
 5163 2712 9BB2     		uxth	r3, r3
 5164 2714 0F33     		adds	r3, r3, #15
 5165 2716 9CB2     		uxth	r4, r3
 5166 2718 F979     		ldrb	r1, [r7, #7]	@ zero_extendqisi2
 5167 271a 0123     		movs	r3, #1
 5168 271c 0093     		str	r3, [sp]
 5169 271e 4FF6FF73 		movw	r3, #65535
 5170 2722 0193     		str	r3, [sp, #4]
 5171 2724 5923     		movs	r3, #89
 5172 2726 0293     		str	r3, [sp, #8]
 5173 2728 0846     		mov	r0, r1
 5174 272a 1146     		mov	r1, r2
 5175 272c 1522     		movs	r2, #21
 5176 272e 2346     		mov	r3, r4
 5177 2730 FFF7FEFF 		bl	write_LCD
 582:.\LCD.c       ****                 write_LCD(lcd,button[72][x],2,x+1,2,0x2110,'Y');   //Nombre de imagen Tipo de vehic
 5178              		.loc 1 582 0 discriminator 3
 5179 2734 FB7F     		ldrb	r3, [r7, #31]	@ zero_extendqisi2
 5180 2736 0133     		adds	r3, r3, #1
 5181 2738 FB77     		strb	r3, [r7, #31]
 5182              	.L210:
 582:.\LCD.c       ****                 write_LCD(lcd,button[72][x],2,x+1,2,0x2110,'Y');   //Nombre de imagen Tipo de vehic
 5183              		.loc 1 582 0 is_stmt 0 discriminator 1
 5184 273a FB7F     		ldrb	r3, [r7, #31]	@ zero_extendqisi2
 5185 273c 072B     		cmp	r3, #7
 5186 273e 7FF639AF 		bls	.L211
 591:.\LCD.c       ****             }
 592:.\LCD.c       ****         break;
 5187              		.loc 1 592 0 is_stmt 1 discriminator 29
 5188 2742 00F00EBE 		b	.L16
 5189              	.L38:
 593:.\LCD.c       ****             
 594:.\LCD.c       ****         case 'G'://Gracias
 595:.\LCD.c       ****             for(x=0;x<8;x++){
 5190              		.loc 1 595 0
 5191 2746 0023     		movs	r3, #0
 5192 2748 FB77     		strb	r3, [r7, #31]
 5193 274a 4AE0     		b	.L212
 5194              	.L213:
 596:.\LCD.c       ****                 write_LCD(lcd,button[80][x],2,x+3,3,0x2110,'Y');   //Nombre de imagen Gracias Rengl
 5195              		.loc 1 596 0 discriminator 3
 5196 274c FB7F     		ldrb	r3, [r7, #31]	@ zero_extendqisi2
 5197 274e 464A     		ldr	r2, .L278
 5198 2750 1344     		add	r3, r3, r2
 5199 2752 93F88032 		ldrb	r3, [r3, #640]
 5200 2756 DAB2     		uxtb	r2, r3
 5201 2758 FB7F     		ldrb	r3, [r7, #31]	@ zero_extendqisi2
 5202 275a 9BB2     		uxth	r3, r3
 5203 275c 0333     		adds	r3, r3, #3
 5204 275e 9CB2     		uxth	r4, r3
 5205 2760 F979     		ldrb	r1, [r7, #7]	@ zero_extendqisi2
 5206 2762 0323     		movs	r3, #3
 5207 2764 0093     		str	r3, [sp]
 5208 2766 42F21013 		movw	r3, #8464
 5209 276a 0193     		str	r3, [sp, #4]
ARM GAS  C:\Users\RECEPC~1\AppData\Local\Temp\ccAuxgaT.s 			page 106


 5210 276c 5923     		movs	r3, #89
 5211 276e 0293     		str	r3, [sp, #8]
 5212 2770 0846     		mov	r0, r1
 5213 2772 1146     		mov	r1, r2
 5214 2774 0222     		movs	r2, #2
 5215 2776 2346     		mov	r3, r4
 5216 2778 FFF7FEFF 		bl	write_LCD
 597:.\LCD.c       ****                 write_LCD(lcd,button[82][x],8,x+1,2,0x2110,'Y');   //Nombre de imagen Gracias Rengl
 5217              		.loc 1 597 0 discriminator 3
 5218 277c FB7F     		ldrb	r3, [r7, #31]	@ zero_extendqisi2
 5219 277e 3A4A     		ldr	r2, .L278
 5220 2780 1344     		add	r3, r3, r2
 5221 2782 93F89032 		ldrb	r3, [r3, #656]
 5222 2786 DAB2     		uxtb	r2, r3
 5223 2788 FB7F     		ldrb	r3, [r7, #31]	@ zero_extendqisi2
 5224 278a 9BB2     		uxth	r3, r3
 5225 278c 0133     		adds	r3, r3, #1
 5226 278e 9CB2     		uxth	r4, r3
 5227 2790 F979     		ldrb	r1, [r7, #7]	@ zero_extendqisi2
 5228 2792 0223     		movs	r3, #2
 5229 2794 0093     		str	r3, [sp]
 5230 2796 42F21013 		movw	r3, #8464
 5231 279a 0193     		str	r3, [sp, #4]
 5232 279c 5923     		movs	r3, #89
 5233 279e 0293     		str	r3, [sp, #8]
 5234 27a0 0846     		mov	r0, r1
 5235 27a2 1146     		mov	r1, r2
 5236 27a4 0822     		movs	r2, #8
 5237 27a6 2346     		mov	r3, r4
 5238 27a8 FFF7FEFF 		bl	write_LCD
 598:.\LCD.c       ****                 write_LCD(lcd,button[83][x],8,x+9,2,0x2110,'Y');   //Nombre de imagen Gracias Rengl
 5239              		.loc 1 598 0 discriminator 3
 5240 27ac FB7F     		ldrb	r3, [r7, #31]	@ zero_extendqisi2
 5241 27ae 2E4A     		ldr	r2, .L278
 5242 27b0 1344     		add	r3, r3, r2
 5243 27b2 93F89832 		ldrb	r3, [r3, #664]
 5244 27b6 DAB2     		uxtb	r2, r3
 5245 27b8 FB7F     		ldrb	r3, [r7, #31]	@ zero_extendqisi2
 5246 27ba 9BB2     		uxth	r3, r3
 5247 27bc 0933     		adds	r3, r3, #9
 5248 27be 9CB2     		uxth	r4, r3
 5249 27c0 F979     		ldrb	r1, [r7, #7]	@ zero_extendqisi2
 5250 27c2 0223     		movs	r3, #2
 5251 27c4 0093     		str	r3, [sp]
 5252 27c6 42F21013 		movw	r3, #8464
 5253 27ca 0193     		str	r3, [sp, #4]
 5254 27cc 5923     		movs	r3, #89
 5255 27ce 0293     		str	r3, [sp, #8]
 5256 27d0 0846     		mov	r0, r1
 5257 27d2 1146     		mov	r1, r2
 5258 27d4 0822     		movs	r2, #8
 5259 27d6 2346     		mov	r3, r4
 5260 27d8 FFF7FEFF 		bl	write_LCD
 595:.\LCD.c       ****                 write_LCD(lcd,button[80][x],2,x+3,3,0x2110,'Y');   //Nombre de imagen Gracias Rengl
 5261              		.loc 1 595 0 discriminator 3
 5262 27dc FB7F     		ldrb	r3, [r7, #31]	@ zero_extendqisi2
 5263 27de 0133     		adds	r3, r3, #1
ARM GAS  C:\Users\RECEPC~1\AppData\Local\Temp\ccAuxgaT.s 			page 107


 5264 27e0 FB77     		strb	r3, [r7, #31]
 5265              	.L212:
 595:.\LCD.c       ****                 write_LCD(lcd,button[80][x],2,x+3,3,0x2110,'Y');   //Nombre de imagen Gracias Rengl
 5266              		.loc 1 595 0 is_stmt 0 discriminator 1
 5267 27e2 FB7F     		ldrb	r3, [r7, #31]	@ zero_extendqisi2
 5268 27e4 072B     		cmp	r3, #7
 5269 27e6 B1D9     		bls	.L213
 599:.\LCD.c       ****             }
 600:.\LCD.c       ****         break;
 5270              		.loc 1 600 0 is_stmt 1 discriminator 30
 5271 27e8 00F0BBBD 		b	.L16
 5272              	.L34:
 601:.\LCD.c       ****             
 602:.\LCD.c       ****         case 'A'://Accion Anulada
 603:.\LCD.c       ****             for(x=0;x<8;x++){
 5273              		.loc 1 603 0
 5274 27ec 0023     		movs	r3, #0
 5275 27ee FB77     		strb	r3, [r7, #31]
 5276 27f0 32E0     		b	.L214
 5277              	.L215:
 604:.\LCD.c       ****                 write_LCD(lcd,button[88][x],1,x+3,3,0x2110,'Y');   //Nombre de imagen Error de sist
 5278              		.loc 1 604 0 discriminator 3
 5279 27f2 FB7F     		ldrb	r3, [r7, #31]	@ zero_extendqisi2
 5280 27f4 1C4A     		ldr	r2, .L278
 5281 27f6 1344     		add	r3, r3, r2
 5282 27f8 93F8C032 		ldrb	r3, [r3, #704]
 5283 27fc DAB2     		uxtb	r2, r3
 5284 27fe FB7F     		ldrb	r3, [r7, #31]	@ zero_extendqisi2
 5285 2800 9BB2     		uxth	r3, r3
 5286 2802 0333     		adds	r3, r3, #3
 5287 2804 9CB2     		uxth	r4, r3
 5288 2806 F979     		ldrb	r1, [r7, #7]	@ zero_extendqisi2
 5289 2808 0323     		movs	r3, #3
 5290 280a 0093     		str	r3, [sp]
 5291 280c 42F21013 		movw	r3, #8464
 5292 2810 0193     		str	r3, [sp, #4]
 5293 2812 5923     		movs	r3, #89
 5294 2814 0293     		str	r3, [sp, #8]
 5295 2816 0846     		mov	r0, r1
 5296 2818 1146     		mov	r1, r2
 5297 281a 0122     		movs	r2, #1
 5298 281c 2346     		mov	r3, r4
 5299 281e FFF7FEFF 		bl	write_LCD
 605:.\LCD.c       ****                 write_LCD(lcd,button[89][x],7,x+3,3,0x2110,'Y');   //Nombre de imagen Error de sist
 5300              		.loc 1 605 0 discriminator 3
 5301 2822 FB7F     		ldrb	r3, [r7, #31]	@ zero_extendqisi2
 5302 2824 104A     		ldr	r2, .L278
 5303 2826 1344     		add	r3, r3, r2
 5304 2828 93F8C832 		ldrb	r3, [r3, #712]
 5305 282c DAB2     		uxtb	r2, r3
 5306 282e FB7F     		ldrb	r3, [r7, #31]	@ zero_extendqisi2
 5307 2830 9BB2     		uxth	r3, r3
 5308 2832 0333     		adds	r3, r3, #3
 5309 2834 9CB2     		uxth	r4, r3
 5310 2836 F979     		ldrb	r1, [r7, #7]	@ zero_extendqisi2
 5311 2838 0323     		movs	r3, #3
 5312 283a 0093     		str	r3, [sp]
ARM GAS  C:\Users\RECEPC~1\AppData\Local\Temp\ccAuxgaT.s 			page 108


 5313 283c 42F21013 		movw	r3, #8464
 5314 2840 0193     		str	r3, [sp, #4]
 5315 2842 5923     		movs	r3, #89
 5316 2844 0293     		str	r3, [sp, #8]
 5317 2846 0846     		mov	r0, r1
 5318 2848 1146     		mov	r1, r2
 5319 284a 0722     		movs	r2, #7
 5320 284c 2346     		mov	r3, r4
 5321 284e FFF7FEFF 		bl	write_LCD
 603:.\LCD.c       ****                 write_LCD(lcd,button[88][x],1,x+3,3,0x2110,'Y');   //Nombre de imagen Error de sist
 5322              		.loc 1 603 0 discriminator 3
 5323 2852 FB7F     		ldrb	r3, [r7, #31]	@ zero_extendqisi2
 5324 2854 0133     		adds	r3, r3, #1
 5325 2856 FB77     		strb	r3, [r7, #31]
 5326              	.L214:
 603:.\LCD.c       ****                 write_LCD(lcd,button[88][x],1,x+3,3,0x2110,'Y');   //Nombre de imagen Error de sist
 5327              		.loc 1 603 0 is_stmt 0 discriminator 1
 5328 2858 FB7F     		ldrb	r3, [r7, #31]	@ zero_extendqisi2
 5329 285a 072B     		cmp	r3, #7
 5330 285c C9D9     		bls	.L215
 606:.\LCD.c       ****             }
 607:.\LCD.c       ****         break;
 5331              		.loc 1 607 0 is_stmt 1 discriminator 31
 5332 285e 00F080BD 		b	.L16
 5333              	.L55:
 608:.\LCD.c       ****             
 609:.\LCD.c       ****         case 'm'://Metodos ID
 610:.\LCD.c       ****             for(x=0;x<8;x++){
 5334              		.loc 1 610 0
 5335 2862 0023     		movs	r3, #0
 5336 2864 FB77     		strb	r3, [r7, #31]
 5337 2866 C4E0     		b	.L216
 5338              	.L279:
 5339              		.align	2
 5340              	.L278:
 5341 2868 00000000 		.word	button
 5342              	.L217:
 611:.\LCD.c       ****                 write_LCD(lcd,button[90][x],2,x+1,2,0x2110,'Y');   //Nombre de imagen Tipo de vehic
 5343              		.loc 1 611 0 discriminator 3
 5344 286c FB7F     		ldrb	r3, [r7, #31]	@ zero_extendqisi2
 5345 286e A04A     		ldr	r2, .L280
 5346 2870 1344     		add	r3, r3, r2
 5347 2872 93F8D032 		ldrb	r3, [r3, #720]
 5348 2876 DAB2     		uxtb	r2, r3
 5349 2878 FB7F     		ldrb	r3, [r7, #31]	@ zero_extendqisi2
 5350 287a 9BB2     		uxth	r3, r3
 5351 287c 0133     		adds	r3, r3, #1
 5352 287e 9CB2     		uxth	r4, r3
 5353 2880 F979     		ldrb	r1, [r7, #7]	@ zero_extendqisi2
 5354 2882 0223     		movs	r3, #2
 5355 2884 0093     		str	r3, [sp]
 5356 2886 42F21013 		movw	r3, #8464
 5357 288a 0193     		str	r3, [sp, #4]
 5358 288c 5923     		movs	r3, #89
 5359 288e 0293     		str	r3, [sp, #8]
 5360 2890 0846     		mov	r0, r1
 5361 2892 1146     		mov	r1, r2
ARM GAS  C:\Users\RECEPC~1\AppData\Local\Temp\ccAuxgaT.s 			page 109


 5362 2894 0222     		movs	r2, #2
 5363 2896 2346     		mov	r3, r4
 5364 2898 FFF7FEFF 		bl	write_LCD
 612:.\LCD.c       ****                 write_LCD(lcd,button[91][x],2,x+9,2,0x2110,'Y');   //Nombre de imagen Tipo de vehic
 5365              		.loc 1 612 0 discriminator 3
 5366 289c FB7F     		ldrb	r3, [r7, #31]	@ zero_extendqisi2
 5367 289e 944A     		ldr	r2, .L280
 5368 28a0 1344     		add	r3, r3, r2
 5369 28a2 93F8D832 		ldrb	r3, [r3, #728]
 5370 28a6 DAB2     		uxtb	r2, r3
 5371 28a8 FB7F     		ldrb	r3, [r7, #31]	@ zero_extendqisi2
 5372 28aa 9BB2     		uxth	r3, r3
 5373 28ac 0933     		adds	r3, r3, #9
 5374 28ae 9CB2     		uxth	r4, r3
 5375 28b0 F979     		ldrb	r1, [r7, #7]	@ zero_extendqisi2
 5376 28b2 0223     		movs	r3, #2
 5377 28b4 0093     		str	r3, [sp]
 5378 28b6 42F21013 		movw	r3, #8464
 5379 28ba 0193     		str	r3, [sp, #4]
 5380 28bc 5923     		movs	r3, #89
 5381 28be 0293     		str	r3, [sp, #8]
 5382 28c0 0846     		mov	r0, r1
 5383 28c2 1146     		mov	r1, r2
 5384 28c4 0222     		movs	r2, #2
 5385 28c6 2346     		mov	r3, r4
 5386 28c8 FFF7FEFF 		bl	write_LCD
 613:.\LCD.c       ****                 write_LCD(lcd,button[92][x],9,x+4,1,0xFFFF,'Y');     //Nombre Tipo de vehiculo 1
 5387              		.loc 1 613 0 discriminator 3
 5388 28cc FB7F     		ldrb	r3, [r7, #31]	@ zero_extendqisi2
 5389 28ce 884A     		ldr	r2, .L280
 5390 28d0 1344     		add	r3, r3, r2
 5391 28d2 93F8E032 		ldrb	r3, [r3, #736]
 5392 28d6 DAB2     		uxtb	r2, r3
 5393 28d8 FB7F     		ldrb	r3, [r7, #31]	@ zero_extendqisi2
 5394 28da 9BB2     		uxth	r3, r3
 5395 28dc 0433     		adds	r3, r3, #4
 5396 28de 9CB2     		uxth	r4, r3
 5397 28e0 F979     		ldrb	r1, [r7, #7]	@ zero_extendqisi2
 5398 28e2 0123     		movs	r3, #1
 5399 28e4 0093     		str	r3, [sp]
 5400 28e6 4FF6FF73 		movw	r3, #65535
 5401 28ea 0193     		str	r3, [sp, #4]
 5402 28ec 5923     		movs	r3, #89
 5403 28ee 0293     		str	r3, [sp, #8]
 5404 28f0 0846     		mov	r0, r1
 5405 28f2 1146     		mov	r1, r2
 5406 28f4 0922     		movs	r2, #9
 5407 28f6 2346     		mov	r3, r4
 5408 28f8 FFF7FEFF 		bl	write_LCD
 614:.\LCD.c       ****                 write_LCD(lcd,button[95][x],9,x+15,1,0xFFFF,'Y');    //Nombre Tipo de vehiculo 2
 5409              		.loc 1 614 0 discriminator 3
 5410 28fc FB7F     		ldrb	r3, [r7, #31]	@ zero_extendqisi2
 5411 28fe 7C4A     		ldr	r2, .L280
 5412 2900 1344     		add	r3, r3, r2
 5413 2902 93F8F832 		ldrb	r3, [r3, #760]
 5414 2906 DAB2     		uxtb	r2, r3
 5415 2908 FB7F     		ldrb	r3, [r7, #31]	@ zero_extendqisi2
ARM GAS  C:\Users\RECEPC~1\AppData\Local\Temp\ccAuxgaT.s 			page 110


 5416 290a 9BB2     		uxth	r3, r3
 5417 290c 0F33     		adds	r3, r3, #15
 5418 290e 9CB2     		uxth	r4, r3
 5419 2910 F979     		ldrb	r1, [r7, #7]	@ zero_extendqisi2
 5420 2912 0123     		movs	r3, #1
 5421 2914 0093     		str	r3, [sp]
 5422 2916 4FF6FF73 		movw	r3, #65535
 5423 291a 0193     		str	r3, [sp, #4]
 5424 291c 5923     		movs	r3, #89
 5425 291e 0293     		str	r3, [sp, #8]
 5426 2920 0846     		mov	r0, r1
 5427 2922 1146     		mov	r1, r2
 5428 2924 0922     		movs	r2, #9
 5429 2926 2346     		mov	r3, r4
 5430 2928 FFF7FEFF 		bl	write_LCD
 615:.\LCD.c       ****                 write_LCD(lcd,button[93][x],15,x+4,1,0xFFFF,'Y');    //Nombre Tipo de vehiculo 3
 5431              		.loc 1 615 0 discriminator 3
 5432 292c FB7F     		ldrb	r3, [r7, #31]	@ zero_extendqisi2
 5433 292e 704A     		ldr	r2, .L280
 5434 2930 1344     		add	r3, r3, r2
 5435 2932 93F8E832 		ldrb	r3, [r3, #744]
 5436 2936 DAB2     		uxtb	r2, r3
 5437 2938 FB7F     		ldrb	r3, [r7, #31]	@ zero_extendqisi2
 5438 293a 9BB2     		uxth	r3, r3
 5439 293c 0433     		adds	r3, r3, #4
 5440 293e 9CB2     		uxth	r4, r3
 5441 2940 F979     		ldrb	r1, [r7, #7]	@ zero_extendqisi2
 5442 2942 0123     		movs	r3, #1
 5443 2944 0093     		str	r3, [sp]
 5444 2946 4FF6FF73 		movw	r3, #65535
 5445 294a 0193     		str	r3, [sp, #4]
 5446 294c 5923     		movs	r3, #89
 5447 294e 0293     		str	r3, [sp, #8]
 5448 2950 0846     		mov	r0, r1
 5449 2952 1146     		mov	r1, r2
 5450 2954 0F22     		movs	r2, #15
 5451 2956 2346     		mov	r3, r4
 5452 2958 FFF7FEFF 		bl	write_LCD
 616:.\LCD.c       ****                 write_LCD(lcd,button[96][x],15,x+15,1,0xFFFF,'Y');   //Nombre Tipo de vehiculo 4
 5453              		.loc 1 616 0 discriminator 3
 5454 295c FB7F     		ldrb	r3, [r7, #31]	@ zero_extendqisi2
 5455 295e 644A     		ldr	r2, .L280
 5456 2960 1344     		add	r3, r3, r2
 5457 2962 93F80033 		ldrb	r3, [r3, #768]
 5458 2966 DAB2     		uxtb	r2, r3
 5459 2968 FB7F     		ldrb	r3, [r7, #31]	@ zero_extendqisi2
 5460 296a 9BB2     		uxth	r3, r3
 5461 296c 0F33     		adds	r3, r3, #15
 5462 296e 9CB2     		uxth	r4, r3
 5463 2970 F979     		ldrb	r1, [r7, #7]	@ zero_extendqisi2
 5464 2972 0123     		movs	r3, #1
 5465 2974 0093     		str	r3, [sp]
 5466 2976 4FF6FF73 		movw	r3, #65535
 5467 297a 0193     		str	r3, [sp, #4]
 5468 297c 5923     		movs	r3, #89
 5469 297e 0293     		str	r3, [sp, #8]
 5470 2980 0846     		mov	r0, r1
ARM GAS  C:\Users\RECEPC~1\AppData\Local\Temp\ccAuxgaT.s 			page 111


 5471 2982 1146     		mov	r1, r2
 5472 2984 0F22     		movs	r2, #15
 5473 2986 2346     		mov	r3, r4
 5474 2988 FFF7FEFF 		bl	write_LCD
 617:.\LCD.c       ****                 write_LCD(lcd,button[94][x],21,x+4,1,0xFFFF,'Y');    //Nombre Tipo de vehiculo 5
 5475              		.loc 1 617 0 discriminator 3
 5476 298c FB7F     		ldrb	r3, [r7, #31]	@ zero_extendqisi2
 5477 298e 584A     		ldr	r2, .L280
 5478 2990 1344     		add	r3, r3, r2
 5479 2992 93F8F032 		ldrb	r3, [r3, #752]
 5480 2996 DAB2     		uxtb	r2, r3
 5481 2998 FB7F     		ldrb	r3, [r7, #31]	@ zero_extendqisi2
 5482 299a 9BB2     		uxth	r3, r3
 5483 299c 0433     		adds	r3, r3, #4
 5484 299e 9CB2     		uxth	r4, r3
 5485 29a0 F979     		ldrb	r1, [r7, #7]	@ zero_extendqisi2
 5486 29a2 0123     		movs	r3, #1
 5487 29a4 0093     		str	r3, [sp]
 5488 29a6 4FF6FF73 		movw	r3, #65535
 5489 29aa 0193     		str	r3, [sp, #4]
 5490 29ac 5923     		movs	r3, #89
 5491 29ae 0293     		str	r3, [sp, #8]
 5492 29b0 0846     		mov	r0, r1
 5493 29b2 1146     		mov	r1, r2
 5494 29b4 1522     		movs	r2, #21
 5495 29b6 2346     		mov	r3, r4
 5496 29b8 FFF7FEFF 		bl	write_LCD
 618:.\LCD.c       ****                 write_LCD(lcd,button[97][x],21,x+15,1,0xFFFF,'Y');   //Nombre Tipo de vehiculo 6
 5497              		.loc 1 618 0 discriminator 3
 5498 29bc FB7F     		ldrb	r3, [r7, #31]	@ zero_extendqisi2
 5499 29be 4C4A     		ldr	r2, .L280
 5500 29c0 1344     		add	r3, r3, r2
 5501 29c2 93F80833 		ldrb	r3, [r3, #776]
 5502 29c6 DAB2     		uxtb	r2, r3
 5503 29c8 FB7F     		ldrb	r3, [r7, #31]	@ zero_extendqisi2
 5504 29ca 9BB2     		uxth	r3, r3
 5505 29cc 0F33     		adds	r3, r3, #15
 5506 29ce 9CB2     		uxth	r4, r3
 5507 29d0 F979     		ldrb	r1, [r7, #7]	@ zero_extendqisi2
 5508 29d2 0123     		movs	r3, #1
 5509 29d4 0093     		str	r3, [sp]
 5510 29d6 4FF6FF73 		movw	r3, #65535
 5511 29da 0193     		str	r3, [sp, #4]
 5512 29dc 5923     		movs	r3, #89
 5513 29de 0293     		str	r3, [sp, #8]
 5514 29e0 0846     		mov	r0, r1
 5515 29e2 1146     		mov	r1, r2
 5516 29e4 1522     		movs	r2, #21
 5517 29e6 2346     		mov	r3, r4
 5518 29e8 FFF7FEFF 		bl	write_LCD
 610:.\LCD.c       ****                 write_LCD(lcd,button[90][x],2,x+1,2,0x2110,'Y');   //Nombre de imagen Tipo de vehic
 5519              		.loc 1 610 0 discriminator 3
 5520 29ec FB7F     		ldrb	r3, [r7, #31]	@ zero_extendqisi2
 5521 29ee 0133     		adds	r3, r3, #1
 5522 29f0 FB77     		strb	r3, [r7, #31]
 5523              	.L216:
 610:.\LCD.c       ****                 write_LCD(lcd,button[90][x],2,x+1,2,0x2110,'Y');   //Nombre de imagen Tipo de vehic
ARM GAS  C:\Users\RECEPC~1\AppData\Local\Temp\ccAuxgaT.s 			page 112


 5524              		.loc 1 610 0 is_stmt 0 discriminator 1
 5525 29f2 FB7F     		ldrb	r3, [r7, #31]	@ zero_extendqisi2
 5526 29f4 072B     		cmp	r3, #7
 5527 29f6 7FF639AF 		bls	.L217
 619:.\LCD.c       ****             }
 620:.\LCD.c       ****         break;
 5528              		.loc 1 620 0 is_stmt 1 discriminator 32
 5529 29fa 00F0B2BC 		b	.L16
 5530              	.L51:
 621:.\LCD.c       ****             
 622:.\LCD.c       ****         case 'i'://Metodo 1
 623:.\LCD.c       ****             for(x=0;x<8;x++){
 5531              		.loc 1 623 0
 5532 29fe 0023     		movs	r3, #0
 5533 2a00 FB77     		strb	r3, [r7, #31]
 5534 2a02 32E0     		b	.L218
 5535              	.L219:
 624:.\LCD.c       ****                 write_LCD(lcd,button[98][x],1,x+3,3,0x2110,'Y');   //Nombre de imagen Esperando
 5536              		.loc 1 624 0 discriminator 3
 5537 2a04 FB7F     		ldrb	r3, [r7, #31]	@ zero_extendqisi2
 5538 2a06 3A4A     		ldr	r2, .L280
 5539 2a08 1344     		add	r3, r3, r2
 5540 2a0a 93F81033 		ldrb	r3, [r3, #784]
 5541 2a0e DAB2     		uxtb	r2, r3
 5542 2a10 FB7F     		ldrb	r3, [r7, #31]	@ zero_extendqisi2
 5543 2a12 9BB2     		uxth	r3, r3
 5544 2a14 0333     		adds	r3, r3, #3
 5545 2a16 9CB2     		uxth	r4, r3
 5546 2a18 F979     		ldrb	r1, [r7, #7]	@ zero_extendqisi2
 5547 2a1a 0323     		movs	r3, #3
 5548 2a1c 0093     		str	r3, [sp]
 5549 2a1e 42F21013 		movw	r3, #8464
 5550 2a22 0193     		str	r3, [sp, #4]
 5551 2a24 5923     		movs	r3, #89
 5552 2a26 0293     		str	r3, [sp, #8]
 5553 2a28 0846     		mov	r0, r1
 5554 2a2a 1146     		mov	r1, r2
 5555 2a2c 0122     		movs	r2, #1
 5556 2a2e 2346     		mov	r3, r4
 5557 2a30 FFF7FEFF 		bl	write_LCD
 625:.\LCD.c       ****                 write_LCD(lcd,button[92][x],7,x+3,3,0x2110,'Y');   //Nombre de boton metodo 1 
 5558              		.loc 1 625 0 discriminator 3
 5559 2a34 FB7F     		ldrb	r3, [r7, #31]	@ zero_extendqisi2
 5560 2a36 2E4A     		ldr	r2, .L280
 5561 2a38 1344     		add	r3, r3, r2
 5562 2a3a 93F8E032 		ldrb	r3, [r3, #736]
 5563 2a3e DAB2     		uxtb	r2, r3
 5564 2a40 FB7F     		ldrb	r3, [r7, #31]	@ zero_extendqisi2
 5565 2a42 9BB2     		uxth	r3, r3
 5566 2a44 0333     		adds	r3, r3, #3
 5567 2a46 9CB2     		uxth	r4, r3
 5568 2a48 F979     		ldrb	r1, [r7, #7]	@ zero_extendqisi2
 5569 2a4a 0323     		movs	r3, #3
 5570 2a4c 0093     		str	r3, [sp]
 5571 2a4e 42F21013 		movw	r3, #8464
 5572 2a52 0193     		str	r3, [sp, #4]
 5573 2a54 5923     		movs	r3, #89
ARM GAS  C:\Users\RECEPC~1\AppData\Local\Temp\ccAuxgaT.s 			page 113


 5574 2a56 0293     		str	r3, [sp, #8]
 5575 2a58 0846     		mov	r0, r1
 5576 2a5a 1146     		mov	r1, r2
 5577 2a5c 0722     		movs	r2, #7
 5578 2a5e 2346     		mov	r3, r4
 5579 2a60 FFF7FEFF 		bl	write_LCD
 623:.\LCD.c       ****                 write_LCD(lcd,button[98][x],1,x+3,3,0x2110,'Y');   //Nombre de imagen Esperando
 5580              		.loc 1 623 0 discriminator 3
 5581 2a64 FB7F     		ldrb	r3, [r7, #31]	@ zero_extendqisi2
 5582 2a66 0133     		adds	r3, r3, #1
 5583 2a68 FB77     		strb	r3, [r7, #31]
 5584              	.L218:
 623:.\LCD.c       ****                 write_LCD(lcd,button[98][x],1,x+3,3,0x2110,'Y');   //Nombre de imagen Esperando
 5585              		.loc 1 623 0 is_stmt 0 discriminator 1
 5586 2a6a FB7F     		ldrb	r3, [r7, #31]	@ zero_extendqisi2
 5587 2a6c 072B     		cmp	r3, #7
 5588 2a6e C9D9     		bls	.L219
 626:.\LCD.c       ****             }
 627:.\LCD.c       ****         break;
 5589              		.loc 1 627 0 is_stmt 1 discriminator 33
 5590 2a70 00F077BC 		b	.L16
 5591              	.L52:
 628:.\LCD.c       ****             
 629:.\LCD.c       ****         case 'j'://Metodo 2
 630:.\LCD.c       ****             for(x=0;x<8;x++){
 5592              		.loc 1 630 0
 5593 2a74 0023     		movs	r3, #0
 5594 2a76 FB77     		strb	r3, [r7, #31]
 5595 2a78 32E0     		b	.L220
 5596              	.L221:
 631:.\LCD.c       ****                 write_LCD(lcd,button[98][x],1,x+3,3,0x2110,'Y');   //Nombre de imagen Esperando
 5597              		.loc 1 631 0 discriminator 3
 5598 2a7a FB7F     		ldrb	r3, [r7, #31]	@ zero_extendqisi2
 5599 2a7c 1C4A     		ldr	r2, .L280
 5600 2a7e 1344     		add	r3, r3, r2
 5601 2a80 93F81033 		ldrb	r3, [r3, #784]
 5602 2a84 DAB2     		uxtb	r2, r3
 5603 2a86 FB7F     		ldrb	r3, [r7, #31]	@ zero_extendqisi2
 5604 2a88 9BB2     		uxth	r3, r3
 5605 2a8a 0333     		adds	r3, r3, #3
 5606 2a8c 9CB2     		uxth	r4, r3
 5607 2a8e F979     		ldrb	r1, [r7, #7]	@ zero_extendqisi2
 5608 2a90 0323     		movs	r3, #3
 5609 2a92 0093     		str	r3, [sp]
 5610 2a94 42F21013 		movw	r3, #8464
 5611 2a98 0193     		str	r3, [sp, #4]
 5612 2a9a 5923     		movs	r3, #89
 5613 2a9c 0293     		str	r3, [sp, #8]
 5614 2a9e 0846     		mov	r0, r1
 5615 2aa0 1146     		mov	r1, r2
 5616 2aa2 0122     		movs	r2, #1
 5617 2aa4 2346     		mov	r3, r4
 5618 2aa6 FFF7FEFF 		bl	write_LCD
 632:.\LCD.c       ****                 write_LCD(lcd,button[93][x],7,x+3,3,0x2110,'Y');   //Nombre de boton metodo 2 
 5619              		.loc 1 632 0 discriminator 3
 5620 2aaa FB7F     		ldrb	r3, [r7, #31]	@ zero_extendqisi2
 5621 2aac 104A     		ldr	r2, .L280
ARM GAS  C:\Users\RECEPC~1\AppData\Local\Temp\ccAuxgaT.s 			page 114


 5622 2aae 1344     		add	r3, r3, r2
 5623 2ab0 93F8E832 		ldrb	r3, [r3, #744]
 5624 2ab4 DAB2     		uxtb	r2, r3
 5625 2ab6 FB7F     		ldrb	r3, [r7, #31]	@ zero_extendqisi2
 5626 2ab8 9BB2     		uxth	r3, r3
 5627 2aba 0333     		adds	r3, r3, #3
 5628 2abc 9CB2     		uxth	r4, r3
 5629 2abe F979     		ldrb	r1, [r7, #7]	@ zero_extendqisi2
 5630 2ac0 0323     		movs	r3, #3
 5631 2ac2 0093     		str	r3, [sp]
 5632 2ac4 42F21013 		movw	r3, #8464
 5633 2ac8 0193     		str	r3, [sp, #4]
 5634 2aca 5923     		movs	r3, #89
 5635 2acc 0293     		str	r3, [sp, #8]
 5636 2ace 0846     		mov	r0, r1
 5637 2ad0 1146     		mov	r1, r2
 5638 2ad2 0722     		movs	r2, #7
 5639 2ad4 2346     		mov	r3, r4
 5640 2ad6 FFF7FEFF 		bl	write_LCD
 630:.\LCD.c       ****                 write_LCD(lcd,button[98][x],1,x+3,3,0x2110,'Y');   //Nombre de imagen Esperando
 5641              		.loc 1 630 0 discriminator 3
 5642 2ada FB7F     		ldrb	r3, [r7, #31]	@ zero_extendqisi2
 5643 2adc 0133     		adds	r3, r3, #1
 5644 2ade FB77     		strb	r3, [r7, #31]
 5645              	.L220:
 630:.\LCD.c       ****                 write_LCD(lcd,button[98][x],1,x+3,3,0x2110,'Y');   //Nombre de imagen Esperando
 5646              		.loc 1 630 0 is_stmt 0 discriminator 1
 5647 2ae0 FB7F     		ldrb	r3, [r7, #31]	@ zero_extendqisi2
 5648 2ae2 072B     		cmp	r3, #7
 5649 2ae4 C9D9     		bls	.L221
 633:.\LCD.c       ****             }
 634:.\LCD.c       ****         break;
 5650              		.loc 1 634 0 is_stmt 1 discriminator 34
 5651 2ae6 00F03CBC 		b	.L16
 5652              	.L53:
 635:.\LCD.c       ****             
 636:.\LCD.c       ****         case 'k'://Metodo 3
 637:.\LCD.c       ****             for(x=0;x<8;x++){
 5653              		.loc 1 637 0
 5654 2aea 0023     		movs	r3, #0
 5655 2aec FB77     		strb	r3, [r7, #31]
 5656 2aee 34E0     		b	.L222
 5657              	.L281:
 5658              		.align	2
 5659              	.L280:
 5660 2af0 00000000 		.word	button
 5661              	.L223:
 638:.\LCD.c       ****                 write_LCD(lcd,button[20][x],14,x+1,2,0x2110,'Y');   //Nombre de imagen Teclado Dine
 5662              		.loc 1 638 0 discriminator 3
 5663 2af4 FB7F     		ldrb	r3, [r7, #31]	@ zero_extendqisi2
 5664 2af6 674A     		ldr	r2, .L282
 5665 2af8 1344     		add	r3, r3, r2
 5666 2afa 93F8A030 		ldrb	r3, [r3, #160]
 5667 2afe DAB2     		uxtb	r2, r3
 5668 2b00 FB7F     		ldrb	r3, [r7, #31]	@ zero_extendqisi2
 5669 2b02 9BB2     		uxth	r3, r3
 5670 2b04 0133     		adds	r3, r3, #1
ARM GAS  C:\Users\RECEPC~1\AppData\Local\Temp\ccAuxgaT.s 			page 115


 5671 2b06 9CB2     		uxth	r4, r3
 5672 2b08 F979     		ldrb	r1, [r7, #7]	@ zero_extendqisi2
 5673 2b0a 0223     		movs	r3, #2
 5674 2b0c 0093     		str	r3, [sp]
 5675 2b0e 42F21013 		movw	r3, #8464
 5676 2b12 0193     		str	r3, [sp, #4]
 5677 2b14 5923     		movs	r3, #89
 5678 2b16 0293     		str	r3, [sp, #8]
 5679 2b18 0846     		mov	r0, r1
 5680 2b1a 1146     		mov	r1, r2
 5681 2b1c 0E22     		movs	r2, #14
 5682 2b1e 2346     		mov	r3, r4
 5683 2b20 FFF7FEFF 		bl	write_LCD
 639:.\LCD.c       ****                 write_LCD(lcd,button[94][x],18,x+1,2,0x2110,'Y');   //Nombre de boton metodo 3
 5684              		.loc 1 639 0 discriminator 3
 5685 2b24 FB7F     		ldrb	r3, [r7, #31]	@ zero_extendqisi2
 5686 2b26 5B4A     		ldr	r2, .L282
 5687 2b28 1344     		add	r3, r3, r2
 5688 2b2a 93F8F032 		ldrb	r3, [r3, #752]
 5689 2b2e DAB2     		uxtb	r2, r3
 5690 2b30 FB7F     		ldrb	r3, [r7, #31]	@ zero_extendqisi2
 5691 2b32 9BB2     		uxth	r3, r3
 5692 2b34 0133     		adds	r3, r3, #1
 5693 2b36 9CB2     		uxth	r4, r3
 5694 2b38 F979     		ldrb	r1, [r7, #7]	@ zero_extendqisi2
 5695 2b3a 0223     		movs	r3, #2
 5696 2b3c 0093     		str	r3, [sp]
 5697 2b3e 42F21013 		movw	r3, #8464
 5698 2b42 0193     		str	r3, [sp, #4]
 5699 2b44 5923     		movs	r3, #89
 5700 2b46 0293     		str	r3, [sp, #8]
 5701 2b48 0846     		mov	r0, r1
 5702 2b4a 1146     		mov	r1, r2
 5703 2b4c 1222     		movs	r2, #18
 5704 2b4e 2346     		mov	r3, r4
 5705 2b50 FFF7FEFF 		bl	write_LCD
 637:.\LCD.c       ****                 write_LCD(lcd,button[20][x],14,x+1,2,0x2110,'Y');   //Nombre de imagen Teclado Dine
 5706              		.loc 1 637 0 discriminator 3
 5707 2b54 FB7F     		ldrb	r3, [r7, #31]	@ zero_extendqisi2
 5708 2b56 0133     		adds	r3, r3, #1
 5709 2b58 FB77     		strb	r3, [r7, #31]
 5710              	.L222:
 637:.\LCD.c       ****                 write_LCD(lcd,button[20][x],14,x+1,2,0x2110,'Y');   //Nombre de imagen Teclado Dine
 5711              		.loc 1 637 0 is_stmt 0 discriminator 1
 5712 2b5a FB7F     		ldrb	r3, [r7, #31]	@ zero_extendqisi2
 5713 2b5c 072B     		cmp	r3, #7
 5714 2b5e C9D9     		bls	.L223
 640:.\LCD.c       ****             }
 641:.\LCD.c       ****         break;
 5715              		.loc 1 641 0 is_stmt 1 discriminator 35
 5716 2b60 FFE3     		b	.L16
 5717              	.L54:
 642:.\LCD.c       ****             
 643:.\LCD.c       ****         case 'l'://Metodo 4
 644:.\LCD.c       ****             for(x=0;x<8;x++){
 5718              		.loc 1 644 0
 5719 2b62 0023     		movs	r3, #0
ARM GAS  C:\Users\RECEPC~1\AppData\Local\Temp\ccAuxgaT.s 			page 116


 5720 2b64 FB77     		strb	r3, [r7, #31]
 5721 2b66 32E0     		b	.L224
 5722              	.L225:
 645:.\LCD.c       ****                 write_LCD(lcd,button[38][x],7,x+6,1,0x2110,'Y');   //Nombre de imagen Teclado Placa
 5723              		.loc 1 645 0 discriminator 3
 5724 2b68 FB7F     		ldrb	r3, [r7, #31]	@ zero_extendqisi2
 5725 2b6a 4A4A     		ldr	r2, .L282
 5726 2b6c 1344     		add	r3, r3, r2
 5727 2b6e 93F83031 		ldrb	r3, [r3, #304]
 5728 2b72 DAB2     		uxtb	r2, r3
 5729 2b74 FB7F     		ldrb	r3, [r7, #31]	@ zero_extendqisi2
 5730 2b76 9BB2     		uxth	r3, r3
 5731 2b78 0633     		adds	r3, r3, #6
 5732 2b7a 9CB2     		uxth	r4, r3
 5733 2b7c F979     		ldrb	r1, [r7, #7]	@ zero_extendqisi2
 5734 2b7e 0123     		movs	r3, #1
 5735 2b80 0093     		str	r3, [sp]
 5736 2b82 42F21013 		movw	r3, #8464
 5737 2b86 0193     		str	r3, [sp, #4]
 5738 2b88 5923     		movs	r3, #89
 5739 2b8a 0293     		str	r3, [sp, #8]
 5740 2b8c 0846     		mov	r0, r1
 5741 2b8e 1146     		mov	r1, r2
 5742 2b90 0722     		movs	r2, #7
 5743 2b92 2346     		mov	r3, r4
 5744 2b94 FFF7FEFF 		bl	write_LCD
 646:.\LCD.c       ****                 write_LCD(lcd,button[95][x],7,x+14,1,0x2110,'Y');   //Nombre de boton metodo 3
 5745              		.loc 1 646 0 discriminator 3
 5746 2b98 FB7F     		ldrb	r3, [r7, #31]	@ zero_extendqisi2
 5747 2b9a 3E4A     		ldr	r2, .L282
 5748 2b9c 1344     		add	r3, r3, r2
 5749 2b9e 93F8F832 		ldrb	r3, [r3, #760]
 5750 2ba2 DAB2     		uxtb	r2, r3
 5751 2ba4 FB7F     		ldrb	r3, [r7, #31]	@ zero_extendqisi2
 5752 2ba6 9BB2     		uxth	r3, r3
 5753 2ba8 0E33     		adds	r3, r3, #14
 5754 2baa 9CB2     		uxth	r4, r3
 5755 2bac F979     		ldrb	r1, [r7, #7]	@ zero_extendqisi2
 5756 2bae 0123     		movs	r3, #1
 5757 2bb0 0093     		str	r3, [sp]
 5758 2bb2 42F21013 		movw	r3, #8464
 5759 2bb6 0193     		str	r3, [sp, #4]
 5760 2bb8 5923     		movs	r3, #89
 5761 2bba 0293     		str	r3, [sp, #8]
 5762 2bbc 0846     		mov	r0, r1
 5763 2bbe 1146     		mov	r1, r2
 5764 2bc0 0722     		movs	r2, #7
 5765 2bc2 2346     		mov	r3, r4
 5766 2bc4 FFF7FEFF 		bl	write_LCD
 644:.\LCD.c       ****                 write_LCD(lcd,button[38][x],7,x+6,1,0x2110,'Y');   //Nombre de imagen Teclado Placa
 5767              		.loc 1 644 0 discriminator 3
 5768 2bc8 FB7F     		ldrb	r3, [r7, #31]	@ zero_extendqisi2
 5769 2bca 0133     		adds	r3, r3, #1
 5770 2bcc FB77     		strb	r3, [r7, #31]
 5771              	.L224:
 644:.\LCD.c       ****                 write_LCD(lcd,button[38][x],7,x+6,1,0x2110,'Y');   //Nombre de imagen Teclado Placa
 5772              		.loc 1 644 0 is_stmt 0 discriminator 1
ARM GAS  C:\Users\RECEPC~1\AppData\Local\Temp\ccAuxgaT.s 			page 117


 5773 2bce FB7F     		ldrb	r3, [r7, #31]	@ zero_extendqisi2
 5774 2bd0 072B     		cmp	r3, #7
 5775 2bd2 C9D9     		bls	.L225
 647:.\LCD.c       ****             }
 648:.\LCD.c       ****         break;
 5776              		.loc 1 648 0 is_stmt 1 discriminator 36
 5777 2bd4 C5E3     		b	.L16
 5778              	.L56:
 649:.\LCD.c       ****             
 650:.\LCD.c       ****         case 'n'://Metodo 5
 651:.\LCD.c       ****             for(x=0;x<8;x++){
 5779              		.loc 1 651 0
 5780 2bd6 0023     		movs	r3, #0
 5781 2bd8 FB77     		strb	r3, [r7, #31]
 5782 2bda 32E0     		b	.L226
 5783              	.L227:
 652:.\LCD.c       ****                 write_LCD(lcd,button[98][x],1,x+3,3,0x2110,'Y');   //Nombre de imagen Esperando
 5784              		.loc 1 652 0 discriminator 3
 5785 2bdc FB7F     		ldrb	r3, [r7, #31]	@ zero_extendqisi2
 5786 2bde 2D4A     		ldr	r2, .L282
 5787 2be0 1344     		add	r3, r3, r2
 5788 2be2 93F81033 		ldrb	r3, [r3, #784]
 5789 2be6 DAB2     		uxtb	r2, r3
 5790 2be8 FB7F     		ldrb	r3, [r7, #31]	@ zero_extendqisi2
 5791 2bea 9BB2     		uxth	r3, r3
 5792 2bec 0333     		adds	r3, r3, #3
 5793 2bee 9CB2     		uxth	r4, r3
 5794 2bf0 F979     		ldrb	r1, [r7, #7]	@ zero_extendqisi2
 5795 2bf2 0323     		movs	r3, #3
 5796 2bf4 0093     		str	r3, [sp]
 5797 2bf6 42F21013 		movw	r3, #8464
 5798 2bfa 0193     		str	r3, [sp, #4]
 5799 2bfc 5923     		movs	r3, #89
 5800 2bfe 0293     		str	r3, [sp, #8]
 5801 2c00 0846     		mov	r0, r1
 5802 2c02 1146     		mov	r1, r2
 5803 2c04 0122     		movs	r2, #1
 5804 2c06 2346     		mov	r3, r4
 5805 2c08 FFF7FEFF 		bl	write_LCD
 653:.\LCD.c       ****                 write_LCD(lcd,button[96][x],7,x+3,3,0x2110,'Y');   //Nombre de boton metodo 5
 5806              		.loc 1 653 0 discriminator 3
 5807 2c0c FB7F     		ldrb	r3, [r7, #31]	@ zero_extendqisi2
 5808 2c0e 214A     		ldr	r2, .L282
 5809 2c10 1344     		add	r3, r3, r2
 5810 2c12 93F80033 		ldrb	r3, [r3, #768]
 5811 2c16 DAB2     		uxtb	r2, r3
 5812 2c18 FB7F     		ldrb	r3, [r7, #31]	@ zero_extendqisi2
 5813 2c1a 9BB2     		uxth	r3, r3
 5814 2c1c 0333     		adds	r3, r3, #3
 5815 2c1e 9CB2     		uxth	r4, r3
 5816 2c20 F979     		ldrb	r1, [r7, #7]	@ zero_extendqisi2
 5817 2c22 0323     		movs	r3, #3
 5818 2c24 0093     		str	r3, [sp]
 5819 2c26 42F21013 		movw	r3, #8464
 5820 2c2a 0193     		str	r3, [sp, #4]
 5821 2c2c 5923     		movs	r3, #89
 5822 2c2e 0293     		str	r3, [sp, #8]
ARM GAS  C:\Users\RECEPC~1\AppData\Local\Temp\ccAuxgaT.s 			page 118


 5823 2c30 0846     		mov	r0, r1
 5824 2c32 1146     		mov	r1, r2
 5825 2c34 0722     		movs	r2, #7
 5826 2c36 2346     		mov	r3, r4
 5827 2c38 FFF7FEFF 		bl	write_LCD
 651:.\LCD.c       ****                 write_LCD(lcd,button[98][x],1,x+3,3,0x2110,'Y');   //Nombre de imagen Esperando
 5828              		.loc 1 651 0 discriminator 3
 5829 2c3c FB7F     		ldrb	r3, [r7, #31]	@ zero_extendqisi2
 5830 2c3e 0133     		adds	r3, r3, #1
 5831 2c40 FB77     		strb	r3, [r7, #31]
 5832              	.L226:
 651:.\LCD.c       ****                 write_LCD(lcd,button[98][x],1,x+3,3,0x2110,'Y');   //Nombre de imagen Esperando
 5833              		.loc 1 651 0 is_stmt 0 discriminator 1
 5834 2c42 FB7F     		ldrb	r3, [r7, #31]	@ zero_extendqisi2
 5835 2c44 072B     		cmp	r3, #7
 5836 2c46 C9D9     		bls	.L227
 654:.\LCD.c       ****             }
 655:.\LCD.c       ****         break;
 5837              		.loc 1 655 0 is_stmt 1 discriminator 37
 5838 2c48 8BE3     		b	.L16
 5839              	.L57:
 656:.\LCD.c       ****             
 657:.\LCD.c       ****         case 'o'://Continuar
 658:.\LCD.c       ****             for(x=0;x<8;x++){
 5840              		.loc 1 658 0
 5841 2c4a 0023     		movs	r3, #0
 5842 2c4c FB77     		strb	r3, [r7, #31]
 5843 2c4e 1AE0     		b	.L228
 5844              	.L229:
 659:.\LCD.c       ****                 write_LCD(lcd,button[99][x],21,x+11,1,0xFFFF,'Y');  //Nombre de boton Continuar
 5845              		.loc 1 659 0 discriminator 3
 5846 2c50 FB7F     		ldrb	r3, [r7, #31]	@ zero_extendqisi2
 5847 2c52 104A     		ldr	r2, .L282
 5848 2c54 1344     		add	r3, r3, r2
 5849 2c56 93F81833 		ldrb	r3, [r3, #792]
 5850 2c5a DAB2     		uxtb	r2, r3
 5851 2c5c FB7F     		ldrb	r3, [r7, #31]	@ zero_extendqisi2
 5852 2c5e 9BB2     		uxth	r3, r3
 5853 2c60 0B33     		adds	r3, r3, #11
 5854 2c62 9CB2     		uxth	r4, r3
 5855 2c64 F979     		ldrb	r1, [r7, #7]	@ zero_extendqisi2
 5856 2c66 0123     		movs	r3, #1
 5857 2c68 0093     		str	r3, [sp]
 5858 2c6a 4FF6FF73 		movw	r3, #65535
 5859 2c6e 0193     		str	r3, [sp, #4]
 5860 2c70 5923     		movs	r3, #89
 5861 2c72 0293     		str	r3, [sp, #8]
 5862 2c74 0846     		mov	r0, r1
 5863 2c76 1146     		mov	r1, r2
 5864 2c78 1522     		movs	r2, #21
 5865 2c7a 2346     		mov	r3, r4
 5866 2c7c FFF7FEFF 		bl	write_LCD
 658:.\LCD.c       ****                 write_LCD(lcd,button[99][x],21,x+11,1,0xFFFF,'Y');  //Nombre de boton Continuar
 5867              		.loc 1 658 0 discriminator 3
 5868 2c80 FB7F     		ldrb	r3, [r7, #31]	@ zero_extendqisi2
 5869 2c82 0133     		adds	r3, r3, #1
 5870 2c84 FB77     		strb	r3, [r7, #31]
ARM GAS  C:\Users\RECEPC~1\AppData\Local\Temp\ccAuxgaT.s 			page 119


 5871              	.L228:
 658:.\LCD.c       ****                 write_LCD(lcd,button[99][x],21,x+11,1,0xFFFF,'Y');  //Nombre de boton Continuar
 5872              		.loc 1 658 0 is_stmt 0 discriminator 1
 5873 2c86 FB7F     		ldrb	r3, [r7, #31]	@ zero_extendqisi2
 5874 2c88 072B     		cmp	r3, #7
 5875 2c8a E1D9     		bls	.L229
 660:.\LCD.c       ****             }
 661:.\LCD.c       ****         break;
 5876              		.loc 1 661 0 is_stmt 1 discriminator 38
 5877 2c8c 69E3     		b	.L16
 5878              	.L50:
 662:.\LCD.c       ****             
 663:.\LCD.c       ****         case 'c'://Canasta
 664:.\LCD.c       ****             for(x=0;x<8;x++){
 5879              		.loc 1 664 0
 5880 2c8e 0023     		movs	r3, #0
 5881 2c90 FB77     		strb	r3, [r7, #31]
 5882 2c92 F4E0     		b	.L230
 5883              	.L283:
 5884              		.align	2
 5885              	.L282:
 5886 2c94 00000000 		.word	button
 5887              	.L231:
 665:.\LCD.c       ****                 write_LCD(lcd,button[100][x],1,x+8,0,0x2110,'Y');     //Nombre caja Producto 1
 5888              		.loc 1 665 0 discriminator 3
 5889 2c98 FB7F     		ldrb	r3, [r7, #31]	@ zero_extendqisi2
 5890 2c9a 9D4A     		ldr	r2, .L284
 5891 2c9c 1344     		add	r3, r3, r2
 5892 2c9e 93F82033 		ldrb	r3, [r3, #800]
 5893 2ca2 DAB2     		uxtb	r2, r3
 5894 2ca4 FB7F     		ldrb	r3, [r7, #31]	@ zero_extendqisi2
 5895 2ca6 9BB2     		uxth	r3, r3
 5896 2ca8 0833     		adds	r3, r3, #8
 5897 2caa 9CB2     		uxth	r4, r3
 5898 2cac F979     		ldrb	r1, [r7, #7]	@ zero_extendqisi2
 5899 2cae 0023     		movs	r3, #0
 5900 2cb0 0093     		str	r3, [sp]
 5901 2cb2 42F21013 		movw	r3, #8464
 5902 2cb6 0193     		str	r3, [sp, #4]
 5903 2cb8 5923     		movs	r3, #89
 5904 2cba 0293     		str	r3, [sp, #8]
 5905 2cbc 0846     		mov	r0, r1
 5906 2cbe 1146     		mov	r1, r2
 5907 2cc0 0122     		movs	r2, #1
 5908 2cc2 2346     		mov	r3, r4
 5909 2cc4 FFF7FEFF 		bl	write_LCD
 666:.\LCD.c       ****                 write_LCD(lcd,button[101][x],1,x+23,0,0x2110,'Y');    //Nombre caja Cantidad 1
 5910              		.loc 1 666 0 discriminator 3
 5911 2cc8 FB7F     		ldrb	r3, [r7, #31]	@ zero_extendqisi2
 5912 2cca 914A     		ldr	r2, .L284
 5913 2ccc 1344     		add	r3, r3, r2
 5914 2cce 93F82833 		ldrb	r3, [r3, #808]
 5915 2cd2 DAB2     		uxtb	r2, r3
 5916 2cd4 FB7F     		ldrb	r3, [r7, #31]	@ zero_extendqisi2
 5917 2cd6 9BB2     		uxth	r3, r3
 5918 2cd8 1733     		adds	r3, r3, #23
 5919 2cda 9CB2     		uxth	r4, r3
ARM GAS  C:\Users\RECEPC~1\AppData\Local\Temp\ccAuxgaT.s 			page 120


 5920 2cdc F979     		ldrb	r1, [r7, #7]	@ zero_extendqisi2
 5921 2cde 0023     		movs	r3, #0
 5922 2ce0 0093     		str	r3, [sp]
 5923 2ce2 42F21013 		movw	r3, #8464
 5924 2ce6 0193     		str	r3, [sp, #4]
 5925 2ce8 5923     		movs	r3, #89
 5926 2cea 0293     		str	r3, [sp, #8]
 5927 2cec 0846     		mov	r0, r1
 5928 2cee 1146     		mov	r1, r2
 5929 2cf0 0122     		movs	r2, #1
 5930 2cf2 2346     		mov	r3, r4
 5931 2cf4 FFF7FEFF 		bl	write_LCD
 667:.\LCD.c       ****                 write_LCD(lcd,button[102][x],1,x+35,0,0x2110,'Y');     //Nombre caja Precio 1
 5932              		.loc 1 667 0 discriminator 3
 5933 2cf8 FB7F     		ldrb	r3, [r7, #31]	@ zero_extendqisi2
 5934 2cfa 854A     		ldr	r2, .L284
 5935 2cfc 1344     		add	r3, r3, r2
 5936 2cfe 93F83033 		ldrb	r3, [r3, #816]
 5937 2d02 DAB2     		uxtb	r2, r3
 5938 2d04 FB7F     		ldrb	r3, [r7, #31]	@ zero_extendqisi2
 5939 2d06 9BB2     		uxth	r3, r3
 5940 2d08 2333     		adds	r3, r3, #35
 5941 2d0a 9CB2     		uxth	r4, r3
 5942 2d0c F979     		ldrb	r1, [r7, #7]	@ zero_extendqisi2
 5943 2d0e 0023     		movs	r3, #0
 5944 2d10 0093     		str	r3, [sp]
 5945 2d12 42F21013 		movw	r3, #8464
 5946 2d16 0193     		str	r3, [sp, #4]
 5947 2d18 5923     		movs	r3, #89
 5948 2d1a 0293     		str	r3, [sp, #8]
 5949 2d1c 0846     		mov	r0, r1
 5950 2d1e 1146     		mov	r1, r2
 5951 2d20 0122     		movs	r2, #1
 5952 2d22 2346     		mov	r3, r4
 5953 2d24 FFF7FEFF 		bl	write_LCD
 668:.\LCD.c       ****                 write_LCD(lcd,button[100][x],9,x+8,0,0x2110,'Y');     //Nombre caja Producto 2
 5954              		.loc 1 668 0 discriminator 3
 5955 2d28 FB7F     		ldrb	r3, [r7, #31]	@ zero_extendqisi2
 5956 2d2a 794A     		ldr	r2, .L284
 5957 2d2c 1344     		add	r3, r3, r2
 5958 2d2e 93F82033 		ldrb	r3, [r3, #800]
 5959 2d32 DAB2     		uxtb	r2, r3
 5960 2d34 FB7F     		ldrb	r3, [r7, #31]	@ zero_extendqisi2
 5961 2d36 9BB2     		uxth	r3, r3
 5962 2d38 0833     		adds	r3, r3, #8
 5963 2d3a 9CB2     		uxth	r4, r3
 5964 2d3c F979     		ldrb	r1, [r7, #7]	@ zero_extendqisi2
 5965 2d3e 0023     		movs	r3, #0
 5966 2d40 0093     		str	r3, [sp]
 5967 2d42 42F21013 		movw	r3, #8464
 5968 2d46 0193     		str	r3, [sp, #4]
 5969 2d48 5923     		movs	r3, #89
 5970 2d4a 0293     		str	r3, [sp, #8]
 5971 2d4c 0846     		mov	r0, r1
 5972 2d4e 1146     		mov	r1, r2
 5973 2d50 0922     		movs	r2, #9
 5974 2d52 2346     		mov	r3, r4
ARM GAS  C:\Users\RECEPC~1\AppData\Local\Temp\ccAuxgaT.s 			page 121


 5975 2d54 FFF7FEFF 		bl	write_LCD
 669:.\LCD.c       ****                 write_LCD(lcd,button[101][x],9,x+23,0,0x2110,'Y');    //Nombre caja Cantidad 2
 5976              		.loc 1 669 0 discriminator 3
 5977 2d58 FB7F     		ldrb	r3, [r7, #31]	@ zero_extendqisi2
 5978 2d5a 6D4A     		ldr	r2, .L284
 5979 2d5c 1344     		add	r3, r3, r2
 5980 2d5e 93F82833 		ldrb	r3, [r3, #808]
 5981 2d62 DAB2     		uxtb	r2, r3
 5982 2d64 FB7F     		ldrb	r3, [r7, #31]	@ zero_extendqisi2
 5983 2d66 9BB2     		uxth	r3, r3
 5984 2d68 1733     		adds	r3, r3, #23
 5985 2d6a 9CB2     		uxth	r4, r3
 5986 2d6c F979     		ldrb	r1, [r7, #7]	@ zero_extendqisi2
 5987 2d6e 0023     		movs	r3, #0
 5988 2d70 0093     		str	r3, [sp]
 5989 2d72 42F21013 		movw	r3, #8464
 5990 2d76 0193     		str	r3, [sp, #4]
 5991 2d78 5923     		movs	r3, #89
 5992 2d7a 0293     		str	r3, [sp, #8]
 5993 2d7c 0846     		mov	r0, r1
 5994 2d7e 1146     		mov	r1, r2
 5995 2d80 0922     		movs	r2, #9
 5996 2d82 2346     		mov	r3, r4
 5997 2d84 FFF7FEFF 		bl	write_LCD
 670:.\LCD.c       ****                 write_LCD(lcd,button[102][x],9,x+35,0,0x2110,'Y');     //Nombre caja Precio 2
 5998              		.loc 1 670 0 discriminator 3
 5999 2d88 FB7F     		ldrb	r3, [r7, #31]	@ zero_extendqisi2
 6000 2d8a 614A     		ldr	r2, .L284
 6001 2d8c 1344     		add	r3, r3, r2
 6002 2d8e 93F83033 		ldrb	r3, [r3, #816]
 6003 2d92 DAB2     		uxtb	r2, r3
 6004 2d94 FB7F     		ldrb	r3, [r7, #31]	@ zero_extendqisi2
 6005 2d96 9BB2     		uxth	r3, r3
 6006 2d98 2333     		adds	r3, r3, #35
 6007 2d9a 9CB2     		uxth	r4, r3
 6008 2d9c F979     		ldrb	r1, [r7, #7]	@ zero_extendqisi2
 6009 2d9e 0023     		movs	r3, #0
 6010 2da0 0093     		str	r3, [sp]
 6011 2da2 42F21013 		movw	r3, #8464
 6012 2da6 0193     		str	r3, [sp, #4]
 6013 2da8 5923     		movs	r3, #89
 6014 2daa 0293     		str	r3, [sp, #8]
 6015 2dac 0846     		mov	r0, r1
 6016 2dae 1146     		mov	r1, r2
 6017 2db0 0922     		movs	r2, #9
 6018 2db2 2346     		mov	r3, r4
 6019 2db4 FFF7FEFF 		bl	write_LCD
 671:.\LCD.c       ****                 write_LCD(lcd,button[100][x],17,x+8,0,0x2110,'Y');     //Nombre caja Producto 3
 6020              		.loc 1 671 0 discriminator 3
 6021 2db8 FB7F     		ldrb	r3, [r7, #31]	@ zero_extendqisi2
 6022 2dba 554A     		ldr	r2, .L284
 6023 2dbc 1344     		add	r3, r3, r2
 6024 2dbe 93F82033 		ldrb	r3, [r3, #800]
 6025 2dc2 DAB2     		uxtb	r2, r3
 6026 2dc4 FB7F     		ldrb	r3, [r7, #31]	@ zero_extendqisi2
 6027 2dc6 9BB2     		uxth	r3, r3
 6028 2dc8 0833     		adds	r3, r3, #8
ARM GAS  C:\Users\RECEPC~1\AppData\Local\Temp\ccAuxgaT.s 			page 122


 6029 2dca 9CB2     		uxth	r4, r3
 6030 2dcc F979     		ldrb	r1, [r7, #7]	@ zero_extendqisi2
 6031 2dce 0023     		movs	r3, #0
 6032 2dd0 0093     		str	r3, [sp]
 6033 2dd2 42F21013 		movw	r3, #8464
 6034 2dd6 0193     		str	r3, [sp, #4]
 6035 2dd8 5923     		movs	r3, #89
 6036 2dda 0293     		str	r3, [sp, #8]
 6037 2ddc 0846     		mov	r0, r1
 6038 2dde 1146     		mov	r1, r2
 6039 2de0 1122     		movs	r2, #17
 6040 2de2 2346     		mov	r3, r4
 6041 2de4 FFF7FEFF 		bl	write_LCD
 672:.\LCD.c       ****                 write_LCD(lcd,button[101][x],17,x+23,0,0x2110,'Y');    //Nombre caja Cantidad 3
 6042              		.loc 1 672 0 discriminator 3
 6043 2de8 FB7F     		ldrb	r3, [r7, #31]	@ zero_extendqisi2
 6044 2dea 494A     		ldr	r2, .L284
 6045 2dec 1344     		add	r3, r3, r2
 6046 2dee 93F82833 		ldrb	r3, [r3, #808]
 6047 2df2 DAB2     		uxtb	r2, r3
 6048 2df4 FB7F     		ldrb	r3, [r7, #31]	@ zero_extendqisi2
 6049 2df6 9BB2     		uxth	r3, r3
 6050 2df8 1733     		adds	r3, r3, #23
 6051 2dfa 9CB2     		uxth	r4, r3
 6052 2dfc F979     		ldrb	r1, [r7, #7]	@ zero_extendqisi2
 6053 2dfe 0023     		movs	r3, #0
 6054 2e00 0093     		str	r3, [sp]
 6055 2e02 42F21013 		movw	r3, #8464
 6056 2e06 0193     		str	r3, [sp, #4]
 6057 2e08 5923     		movs	r3, #89
 6058 2e0a 0293     		str	r3, [sp, #8]
 6059 2e0c 0846     		mov	r0, r1
 6060 2e0e 1146     		mov	r1, r2
 6061 2e10 1122     		movs	r2, #17
 6062 2e12 2346     		mov	r3, r4
 6063 2e14 FFF7FEFF 		bl	write_LCD
 673:.\LCD.c       ****                 write_LCD(lcd,button[102][x],17,x+35,0,0x2110,'Y');     //Nombre caja Precio 3
 6064              		.loc 1 673 0 discriminator 3
 6065 2e18 FB7F     		ldrb	r3, [r7, #31]	@ zero_extendqisi2
 6066 2e1a 3D4A     		ldr	r2, .L284
 6067 2e1c 1344     		add	r3, r3, r2
 6068 2e1e 93F83033 		ldrb	r3, [r3, #816]
 6069 2e22 DAB2     		uxtb	r2, r3
 6070 2e24 FB7F     		ldrb	r3, [r7, #31]	@ zero_extendqisi2
 6071 2e26 9BB2     		uxth	r3, r3
 6072 2e28 2333     		adds	r3, r3, #35
 6073 2e2a 9CB2     		uxth	r4, r3
 6074 2e2c F979     		ldrb	r1, [r7, #7]	@ zero_extendqisi2
 6075 2e2e 0023     		movs	r3, #0
 6076 2e30 0093     		str	r3, [sp]
 6077 2e32 42F21013 		movw	r3, #8464
 6078 2e36 0193     		str	r3, [sp, #4]
 6079 2e38 5923     		movs	r3, #89
 6080 2e3a 0293     		str	r3, [sp, #8]
 6081 2e3c 0846     		mov	r0, r1
 6082 2e3e 1146     		mov	r1, r2
 6083 2e40 1122     		movs	r2, #17
ARM GAS  C:\Users\RECEPC~1\AppData\Local\Temp\ccAuxgaT.s 			page 123


 6084 2e42 2346     		mov	r3, r4
 6085 2e44 FFF7FEFF 		bl	write_LCD
 674:.\LCD.c       ****                 write_LCD(lcd,button[103][x],25,x+15,1,0x2110,'Y');    //Nombre caja Total
 6086              		.loc 1 674 0 discriminator 3
 6087 2e48 FB7F     		ldrb	r3, [r7, #31]	@ zero_extendqisi2
 6088 2e4a 314A     		ldr	r2, .L284
 6089 2e4c 1344     		add	r3, r3, r2
 6090 2e4e 93F83833 		ldrb	r3, [r3, #824]
 6091 2e52 DAB2     		uxtb	r2, r3
 6092 2e54 FB7F     		ldrb	r3, [r7, #31]	@ zero_extendqisi2
 6093 2e56 9BB2     		uxth	r3, r3
 6094 2e58 0F33     		adds	r3, r3, #15
 6095 2e5a 9CB2     		uxth	r4, r3
 6096 2e5c F979     		ldrb	r1, [r7, #7]	@ zero_extendqisi2
 6097 2e5e 0123     		movs	r3, #1
 6098 2e60 0093     		str	r3, [sp]
 6099 2e62 42F21013 		movw	r3, #8464
 6100 2e66 0193     		str	r3, [sp, #4]
 6101 2e68 5923     		movs	r3, #89
 6102 2e6a 0293     		str	r3, [sp, #8]
 6103 2e6c 0846     		mov	r0, r1
 6104 2e6e 1146     		mov	r1, r2
 6105 2e70 1922     		movs	r2, #25
 6106 2e72 2346     		mov	r3, r4
 6107 2e74 FFF7FEFF 		bl	write_LCD
 664:.\LCD.c       ****                 write_LCD(lcd,button[100][x],1,x+8,0,0x2110,'Y');     //Nombre caja Producto 1
 6108              		.loc 1 664 0 discriminator 3
 6109 2e78 FB7F     		ldrb	r3, [r7, #31]	@ zero_extendqisi2
 6110 2e7a 0133     		adds	r3, r3, #1
 6111 2e7c FB77     		strb	r3, [r7, #31]
 6112              	.L230:
 664:.\LCD.c       ****                 write_LCD(lcd,button[100][x],1,x+8,0,0x2110,'Y');     //Nombre caja Producto 1
 6113              		.loc 1 664 0 is_stmt 0 discriminator 1
 6114 2e7e FB7F     		ldrb	r3, [r7, #31]	@ zero_extendqisi2
 6115 2e80 072B     		cmp	r3, #7
 6116 2e82 7FF609AF 		bls	.L231
 675:.\LCD.c       ****             }
 676:.\LCD.c       ****             write_LCD(lcd,symbols[0],5,34,0,0x0000,'Y');
 6117              		.loc 1 676 0 is_stmt 1
 6118 2e86 234B     		ldr	r3, .L284+4
 6119 2e88 1B78     		ldrb	r3, [r3]
 6120 2e8a DAB2     		uxtb	r2, r3
 6121 2e8c F979     		ldrb	r1, [r7, #7]	@ zero_extendqisi2
 6122 2e8e 0023     		movs	r3, #0
 6123 2e90 0093     		str	r3, [sp]
 6124 2e92 0023     		movs	r3, #0
 6125 2e94 0193     		str	r3, [sp, #4]
 6126 2e96 5923     		movs	r3, #89
 6127 2e98 0293     		str	r3, [sp, #8]
 6128 2e9a 0846     		mov	r0, r1
 6129 2e9c 1146     		mov	r1, r2
 6130 2e9e 0522     		movs	r2, #5
 6131 2ea0 2223     		movs	r3, #34
 6132 2ea2 FFF7FEFF 		bl	write_LCD
 677:.\LCD.c       ****             write_LCD(lcd,symbols[0],13,34,0,0x0000,'Y');
 6133              		.loc 1 677 0
 6134 2ea6 1B4B     		ldr	r3, .L284+4
ARM GAS  C:\Users\RECEPC~1\AppData\Local\Temp\ccAuxgaT.s 			page 124


 6135 2ea8 1B78     		ldrb	r3, [r3]
 6136 2eaa DAB2     		uxtb	r2, r3
 6137 2eac F979     		ldrb	r1, [r7, #7]	@ zero_extendqisi2
 6138 2eae 0023     		movs	r3, #0
 6139 2eb0 0093     		str	r3, [sp]
 6140 2eb2 0023     		movs	r3, #0
 6141 2eb4 0193     		str	r3, [sp, #4]
 6142 2eb6 5923     		movs	r3, #89
 6143 2eb8 0293     		str	r3, [sp, #8]
 6144 2eba 0846     		mov	r0, r1
 6145 2ebc 1146     		mov	r1, r2
 6146 2ebe 0D22     		movs	r2, #13
 6147 2ec0 2223     		movs	r3, #34
 6148 2ec2 FFF7FEFF 		bl	write_LCD
 678:.\LCD.c       ****             write_LCD(lcd,symbols[0],21,34,0,0x0000,'Y');
 6149              		.loc 1 678 0
 6150 2ec6 134B     		ldr	r3, .L284+4
 6151 2ec8 1B78     		ldrb	r3, [r3]
 6152 2eca DAB2     		uxtb	r2, r3
 6153 2ecc F979     		ldrb	r1, [r7, #7]	@ zero_extendqisi2
 6154 2ece 0023     		movs	r3, #0
 6155 2ed0 0093     		str	r3, [sp]
 6156 2ed2 0023     		movs	r3, #0
 6157 2ed4 0193     		str	r3, [sp, #4]
 6158 2ed6 5923     		movs	r3, #89
 6159 2ed8 0293     		str	r3, [sp, #8]
 6160 2eda 0846     		mov	r0, r1
 6161 2edc 1146     		mov	r1, r2
 6162 2ede 1522     		movs	r2, #21
 6163 2ee0 2223     		movs	r3, #34
 6164 2ee2 FFF7FEFF 		bl	write_LCD
 679:.\LCD.c       ****             write_LCD(lcd,symbols[0],29,13,1,0x0000,'Y');
 6165              		.loc 1 679 0
 6166 2ee6 0B4B     		ldr	r3, .L284+4
 6167 2ee8 1B78     		ldrb	r3, [r3]
 6168 2eea DAB2     		uxtb	r2, r3
 6169 2eec F979     		ldrb	r1, [r7, #7]	@ zero_extendqisi2
 6170 2eee 0123     		movs	r3, #1
 6171 2ef0 0093     		str	r3, [sp]
 6172 2ef2 0023     		movs	r3, #0
 6173 2ef4 0193     		str	r3, [sp, #4]
 6174 2ef6 5923     		movs	r3, #89
 6175 2ef8 0293     		str	r3, [sp, #8]
 6176 2efa 0846     		mov	r0, r1
 6177 2efc 1146     		mov	r1, r2
 6178 2efe 1D22     		movs	r2, #29
 6179 2f00 0D23     		movs	r3, #13
 6180 2f02 FFF7FEFF 		bl	write_LCD
 680:.\LCD.c       ****         break;
 6181              		.loc 1 680 0
 6182 2f06 2CE2     		b	.L16
 6183              	.L60:
 681:.\LCD.c       ****             
 682:.\LCD.c       ****         case 'u'://Mantenimiento
 683:.\LCD.c       ****             for(x=0;x<8;x++){
 6184              		.loc 1 683 0
 6185 2f08 0023     		movs	r3, #0
ARM GAS  C:\Users\RECEPC~1\AppData\Local\Temp\ccAuxgaT.s 			page 125


 6186 2f0a FB77     		strb	r3, [r7, #31]
 6187 2f0c 4FE0     		b	.L232
 6188              	.L285:
 6189 2f0e 00BF     		.align	2
 6190              	.L284:
 6191 2f10 00000000 		.word	button
 6192 2f14 00000000 		.word	symbols
 6193              	.L233:
 684:.\LCD.c       ****                 write_LCD(lcd,button[106][x],9,x+11,1,0xFFFF,'Y');  //Nombre de boton Calibrar
 6194              		.loc 1 684 0 discriminator 3
 6195 2f18 FB7F     		ldrb	r3, [r7, #31]	@ zero_extendqisi2
 6196 2f1a A74A     		ldr	r2, .L286
 6197 2f1c 1344     		add	r3, r3, r2
 6198 2f1e 93F85033 		ldrb	r3, [r3, #848]
 6199 2f22 DAB2     		uxtb	r2, r3
 6200 2f24 FB7F     		ldrb	r3, [r7, #31]	@ zero_extendqisi2
 6201 2f26 9BB2     		uxth	r3, r3
 6202 2f28 0B33     		adds	r3, r3, #11
 6203 2f2a 9CB2     		uxth	r4, r3
 6204 2f2c F979     		ldrb	r1, [r7, #7]	@ zero_extendqisi2
 6205 2f2e 0123     		movs	r3, #1
 6206 2f30 0093     		str	r3, [sp]
 6207 2f32 4FF6FF73 		movw	r3, #65535
 6208 2f36 0193     		str	r3, [sp, #4]
 6209 2f38 5923     		movs	r3, #89
 6210 2f3a 0293     		str	r3, [sp, #8]
 6211 2f3c 0846     		mov	r0, r1
 6212 2f3e 1146     		mov	r1, r2
 6213 2f40 0922     		movs	r2, #9
 6214 2f42 2346     		mov	r3, r4
 6215 2f44 FFF7FEFF 		bl	write_LCD
 685:.\LCD.c       ****                 write_LCD(lcd,button[107][x],15,x+11,1,0xFFFF,'Y');  //Nombre de boton Imprimir
 6216              		.loc 1 685 0 discriminator 3
 6217 2f48 FB7F     		ldrb	r3, [r7, #31]	@ zero_extendqisi2
 6218 2f4a 9B4A     		ldr	r2, .L286
 6219 2f4c 1344     		add	r3, r3, r2
 6220 2f4e 93F85833 		ldrb	r3, [r3, #856]
 6221 2f52 DAB2     		uxtb	r2, r3
 6222 2f54 FB7F     		ldrb	r3, [r7, #31]	@ zero_extendqisi2
 6223 2f56 9BB2     		uxth	r3, r3
 6224 2f58 0B33     		adds	r3, r3, #11
 6225 2f5a 9CB2     		uxth	r4, r3
 6226 2f5c F979     		ldrb	r1, [r7, #7]	@ zero_extendqisi2
 6227 2f5e 0123     		movs	r3, #1
 6228 2f60 0093     		str	r3, [sp]
 6229 2f62 4FF6FF73 		movw	r3, #65535
 6230 2f66 0193     		str	r3, [sp, #4]
 6231 2f68 5923     		movs	r3, #89
 6232 2f6a 0293     		str	r3, [sp, #8]
 6233 2f6c 0846     		mov	r0, r1
 6234 2f6e 1146     		mov	r1, r2
 6235 2f70 0F22     		movs	r2, #15
 6236 2f72 2346     		mov	r3, r4
 6237 2f74 FFF7FEFF 		bl	write_LCD
 686:.\LCD.c       ****                 write_LCD(lcd,button[18][x],21,x+11,1,0xFFFF,'Y');  //Nombre de boton Surtidor
 6238              		.loc 1 686 0 discriminator 3
 6239 2f78 FB7F     		ldrb	r3, [r7, #31]	@ zero_extendqisi2
ARM GAS  C:\Users\RECEPC~1\AppData\Local\Temp\ccAuxgaT.s 			page 126


 6240 2f7a 8F4A     		ldr	r2, .L286
 6241 2f7c 1344     		add	r3, r3, r2
 6242 2f7e 93F89030 		ldrb	r3, [r3, #144]
 6243 2f82 DAB2     		uxtb	r2, r3
 6244 2f84 FB7F     		ldrb	r3, [r7, #31]	@ zero_extendqisi2
 6245 2f86 9BB2     		uxth	r3, r3
 6246 2f88 0B33     		adds	r3, r3, #11
 6247 2f8a 9CB2     		uxth	r4, r3
 6248 2f8c F979     		ldrb	r1, [r7, #7]	@ zero_extendqisi2
 6249 2f8e 0123     		movs	r3, #1
 6250 2f90 0093     		str	r3, [sp]
 6251 2f92 4FF6FF73 		movw	r3, #65535
 6252 2f96 0193     		str	r3, [sp, #4]
 6253 2f98 5923     		movs	r3, #89
 6254 2f9a 0293     		str	r3, [sp, #8]
 6255 2f9c 0846     		mov	r0, r1
 6256 2f9e 1146     		mov	r1, r2
 6257 2fa0 1522     		movs	r2, #21
 6258 2fa2 2346     		mov	r3, r4
 6259 2fa4 FFF7FEFF 		bl	write_LCD
 683:.\LCD.c       ****                 write_LCD(lcd,button[106][x],9,x+11,1,0xFFFF,'Y');  //Nombre de boton Calibrar
 6260              		.loc 1 683 0 discriminator 3
 6261 2fa8 FB7F     		ldrb	r3, [r7, #31]	@ zero_extendqisi2
 6262 2faa 0133     		adds	r3, r3, #1
 6263 2fac FB77     		strb	r3, [r7, #31]
 6264              	.L232:
 683:.\LCD.c       ****                 write_LCD(lcd,button[106][x],9,x+11,1,0xFFFF,'Y');  //Nombre de boton Calibrar
 6265              		.loc 1 683 0 is_stmt 0 discriminator 1
 6266 2fae FB7F     		ldrb	r3, [r7, #31]	@ zero_extendqisi2
 6267 2fb0 072B     		cmp	r3, #7
 6268 2fb2 B1D9     		bls	.L233
 687:.\LCD.c       ****             }
 688:.\LCD.c       ****         break;
 6269              		.loc 1 688 0 is_stmt 1 discriminator 39
 6270 2fb4 D5E1     		b	.L16
 6271              	.L58:
 689:.\LCD.c       ****             
 690:.\LCD.c       ****         case 'p'://impresoras
 691:.\LCD.c       ****             for(x=0;x<8;x++){
 6272              		.loc 1 691 0
 6273 2fb6 0023     		movs	r3, #0
 6274 2fb8 FB77     		strb	r3, [r7, #31]
 6275 2fba 4AE0     		b	.L234
 6276              	.L235:
 692:.\LCD.c       ****                 write_LCD(lcd,button[108][x],6,x+1,2,0x2110,'Y');  //Nombre de boton Calibrar
 6277              		.loc 1 692 0 discriminator 3
 6278 2fbc FB7F     		ldrb	r3, [r7, #31]	@ zero_extendqisi2
 6279 2fbe 7E4A     		ldr	r2, .L286
 6280 2fc0 1344     		add	r3, r3, r2
 6281 2fc2 93F86033 		ldrb	r3, [r3, #864]
 6282 2fc6 DAB2     		uxtb	r2, r3
 6283 2fc8 FB7F     		ldrb	r3, [r7, #31]	@ zero_extendqisi2
 6284 2fca 9BB2     		uxth	r3, r3
 6285 2fcc 0133     		adds	r3, r3, #1
 6286 2fce 9CB2     		uxth	r4, r3
 6287 2fd0 F979     		ldrb	r1, [r7, #7]	@ zero_extendqisi2
 6288 2fd2 0223     		movs	r3, #2
ARM GAS  C:\Users\RECEPC~1\AppData\Local\Temp\ccAuxgaT.s 			page 127


 6289 2fd4 0093     		str	r3, [sp]
 6290 2fd6 42F21013 		movw	r3, #8464
 6291 2fda 0193     		str	r3, [sp, #4]
 6292 2fdc 5923     		movs	r3, #89
 6293 2fde 0293     		str	r3, [sp, #8]
 6294 2fe0 0846     		mov	r0, r1
 6295 2fe2 1146     		mov	r1, r2
 6296 2fe4 0622     		movs	r2, #6
 6297 2fe6 2346     		mov	r3, r4
 6298 2fe8 FFF7FEFF 		bl	write_LCD
 693:.\LCD.c       ****                 write_LCD(lcd,button[109][x],6,x+9,2,0x2110,'Y');  //Nombre de boton Imprimir
 6299              		.loc 1 693 0 discriminator 3
 6300 2fec FB7F     		ldrb	r3, [r7, #31]	@ zero_extendqisi2
 6301 2fee 724A     		ldr	r2, .L286
 6302 2ff0 1344     		add	r3, r3, r2
 6303 2ff2 93F86833 		ldrb	r3, [r3, #872]
 6304 2ff6 DAB2     		uxtb	r2, r3
 6305 2ff8 FB7F     		ldrb	r3, [r7, #31]	@ zero_extendqisi2
 6306 2ffa 9BB2     		uxth	r3, r3
 6307 2ffc 0933     		adds	r3, r3, #9
 6308 2ffe 9CB2     		uxth	r4, r3
 6309 3000 F979     		ldrb	r1, [r7, #7]	@ zero_extendqisi2
 6310 3002 0223     		movs	r3, #2
 6311 3004 0093     		str	r3, [sp]
 6312 3006 42F21013 		movw	r3, #8464
 6313 300a 0193     		str	r3, [sp, #4]
 6314 300c 5923     		movs	r3, #89
 6315 300e 0293     		str	r3, [sp, #8]
 6316 3010 0846     		mov	r0, r1
 6317 3012 1146     		mov	r1, r2
 6318 3014 0622     		movs	r2, #6
 6319 3016 2346     		mov	r3, r4
 6320 3018 FFF7FEFF 		bl	write_LCD
 694:.\LCD.c       ****                 write_LCD(lcd,button[99][x],21,x+11,1,0xFFFF,'Y');  //Nombre de boton Continuar
 6321              		.loc 1 694 0 discriminator 3
 6322 301c FB7F     		ldrb	r3, [r7, #31]	@ zero_extendqisi2
 6323 301e 664A     		ldr	r2, .L286
 6324 3020 1344     		add	r3, r3, r2
 6325 3022 93F81833 		ldrb	r3, [r3, #792]
 6326 3026 DAB2     		uxtb	r2, r3
 6327 3028 FB7F     		ldrb	r3, [r7, #31]	@ zero_extendqisi2
 6328 302a 9BB2     		uxth	r3, r3
 6329 302c 0B33     		adds	r3, r3, #11
 6330 302e 9CB2     		uxth	r4, r3
 6331 3030 F979     		ldrb	r1, [r7, #7]	@ zero_extendqisi2
 6332 3032 0123     		movs	r3, #1
 6333 3034 0093     		str	r3, [sp]
 6334 3036 4FF6FF73 		movw	r3, #65535
 6335 303a 0193     		str	r3, [sp, #4]
 6336 303c 5923     		movs	r3, #89
 6337 303e 0293     		str	r3, [sp, #8]
 6338 3040 0846     		mov	r0, r1
 6339 3042 1146     		mov	r1, r2
 6340 3044 1522     		movs	r2, #21
 6341 3046 2346     		mov	r3, r4
 6342 3048 FFF7FEFF 		bl	write_LCD
 691:.\LCD.c       ****                 write_LCD(lcd,button[108][x],6,x+1,2,0x2110,'Y');  //Nombre de boton Calibrar
ARM GAS  C:\Users\RECEPC~1\AppData\Local\Temp\ccAuxgaT.s 			page 128


 6343              		.loc 1 691 0 discriminator 3
 6344 304c FB7F     		ldrb	r3, [r7, #31]	@ zero_extendqisi2
 6345 304e 0133     		adds	r3, r3, #1
 6346 3050 FB77     		strb	r3, [r7, #31]
 6347              	.L234:
 691:.\LCD.c       ****                 write_LCD(lcd,button[108][x],6,x+1,2,0x2110,'Y');  //Nombre de boton Calibrar
 6348              		.loc 1 691 0 is_stmt 0 discriminator 1
 6349 3052 FB7F     		ldrb	r3, [r7, #31]	@ zero_extendqisi2
 6350 3054 072B     		cmp	r3, #7
 6351 3056 B1D9     		bls	.L235
 695:.\LCD.c       ****             }
 696:.\LCD.c       ****         break;
 6352              		.loc 1 696 0 is_stmt 1 discriminator 40
 6353 3058 83E1     		b	.L16
 6354              	.L63:
 697:.\LCD.c       ****             
 698:.\LCD.c       ****         case 'y'://Abrir Turno
 699:.\LCD.c       ****             for(x=0;x<8;x++){
 6355              		.loc 1 699 0
 6356 305a 0023     		movs	r3, #0
 6357 305c FB77     		strb	r3, [r7, #31]
 6358 305e 31E0     		b	.L236
 6359              	.L237:
 700:.\LCD.c       ****                 write_LCD(lcd,button[1][x],10,x+1,3,0x2110,'Y');    //Nombre de boton Turnos
 6360              		.loc 1 700 0 discriminator 3
 6361 3060 FB7F     		ldrb	r3, [r7, #31]	@ zero_extendqisi2
 6362 3062 554A     		ldr	r2, .L286
 6363 3064 1344     		add	r3, r3, r2
 6364 3066 1B7A     		ldrb	r3, [r3, #8]
 6365 3068 DAB2     		uxtb	r2, r3
 6366 306a FB7F     		ldrb	r3, [r7, #31]	@ zero_extendqisi2
 6367 306c 9BB2     		uxth	r3, r3
 6368 306e 0133     		adds	r3, r3, #1
 6369 3070 9CB2     		uxth	r4, r3
 6370 3072 F979     		ldrb	r1, [r7, #7]	@ zero_extendqisi2
 6371 3074 0323     		movs	r3, #3
 6372 3076 0093     		str	r3, [sp]
 6373 3078 42F21013 		movw	r3, #8464
 6374 307c 0193     		str	r3, [sp, #4]
 6375 307e 5923     		movs	r3, #89
 6376 3080 0293     		str	r3, [sp, #8]
 6377 3082 0846     		mov	r0, r1
 6378 3084 1146     		mov	r1, r2
 6379 3086 0A22     		movs	r2, #10
 6380 3088 2346     		mov	r3, r4
 6381 308a FFF7FEFF 		bl	write_LCD
 701:.\LCD.c       ****                 write_LCD(lcd,button[110][x],21,x+11,1,0xFFFF,'Y');  //Nombre de boton Abrir
 6382              		.loc 1 701 0 discriminator 3
 6383 308e FB7F     		ldrb	r3, [r7, #31]	@ zero_extendqisi2
 6384 3090 494A     		ldr	r2, .L286
 6385 3092 1344     		add	r3, r3, r2
 6386 3094 93F87033 		ldrb	r3, [r3, #880]
 6387 3098 DAB2     		uxtb	r2, r3
 6388 309a FB7F     		ldrb	r3, [r7, #31]	@ zero_extendqisi2
 6389 309c 9BB2     		uxth	r3, r3
 6390 309e 0B33     		adds	r3, r3, #11
 6391 30a0 9CB2     		uxth	r4, r3
ARM GAS  C:\Users\RECEPC~1\AppData\Local\Temp\ccAuxgaT.s 			page 129


 6392 30a2 F979     		ldrb	r1, [r7, #7]	@ zero_extendqisi2
 6393 30a4 0123     		movs	r3, #1
 6394 30a6 0093     		str	r3, [sp]
 6395 30a8 4FF6FF73 		movw	r3, #65535
 6396 30ac 0193     		str	r3, [sp, #4]
 6397 30ae 5923     		movs	r3, #89
 6398 30b0 0293     		str	r3, [sp, #8]
 6399 30b2 0846     		mov	r0, r1
 6400 30b4 1146     		mov	r1, r2
 6401 30b6 1522     		movs	r2, #21
 6402 30b8 2346     		mov	r3, r4
 6403 30ba FFF7FEFF 		bl	write_LCD
 699:.\LCD.c       ****                 write_LCD(lcd,button[1][x],10,x+1,3,0x2110,'Y');    //Nombre de boton Turnos
 6404              		.loc 1 699 0 discriminator 3
 6405 30be FB7F     		ldrb	r3, [r7, #31]	@ zero_extendqisi2
 6406 30c0 0133     		adds	r3, r3, #1
 6407 30c2 FB77     		strb	r3, [r7, #31]
 6408              	.L236:
 699:.\LCD.c       ****                 write_LCD(lcd,button[1][x],10,x+1,3,0x2110,'Y');    //Nombre de boton Turnos
 6409              		.loc 1 699 0 is_stmt 0 discriminator 1
 6410 30c4 FB7F     		ldrb	r3, [r7, #31]	@ zero_extendqisi2
 6411 30c6 072B     		cmp	r3, #7
 6412 30c8 CAD9     		bls	.L237
 702:.\LCD.c       ****             }
 703:.\LCD.c       ****         break;
 6413              		.loc 1 703 0 is_stmt 1 discriminator 41
 6414 30ca 4AE1     		b	.L16
 6415              	.L62:
 704:.\LCD.c       ****             
 705:.\LCD.c       ****         case 'x'://Cerrar Turno
 706:.\LCD.c       ****             for(x=0;x<8;x++){
 6416              		.loc 1 706 0
 6417 30cc 0023     		movs	r3, #0
 6418 30ce FB77     		strb	r3, [r7, #31]
 6419 30d0 31E0     		b	.L238
 6420              	.L239:
 707:.\LCD.c       ****                 write_LCD(lcd,button[1][x],10,x+1,3,0x2110,'Y');    //Nombre de boton Turnos
 6421              		.loc 1 707 0 discriminator 3
 6422 30d2 FB7F     		ldrb	r3, [r7, #31]	@ zero_extendqisi2
 6423 30d4 384A     		ldr	r2, .L286
 6424 30d6 1344     		add	r3, r3, r2
 6425 30d8 1B7A     		ldrb	r3, [r3, #8]
 6426 30da DAB2     		uxtb	r2, r3
 6427 30dc FB7F     		ldrb	r3, [r7, #31]	@ zero_extendqisi2
 6428 30de 9BB2     		uxth	r3, r3
 6429 30e0 0133     		adds	r3, r3, #1
 6430 30e2 9CB2     		uxth	r4, r3
 6431 30e4 F979     		ldrb	r1, [r7, #7]	@ zero_extendqisi2
 6432 30e6 0323     		movs	r3, #3
 6433 30e8 0093     		str	r3, [sp]
 6434 30ea 42F21013 		movw	r3, #8464
 6435 30ee 0193     		str	r3, [sp, #4]
 6436 30f0 5923     		movs	r3, #89
 6437 30f2 0293     		str	r3, [sp, #8]
 6438 30f4 0846     		mov	r0, r1
 6439 30f6 1146     		mov	r1, r2
 6440 30f8 0A22     		movs	r2, #10
ARM GAS  C:\Users\RECEPC~1\AppData\Local\Temp\ccAuxgaT.s 			page 130


 6441 30fa 2346     		mov	r3, r4
 6442 30fc FFF7FEFF 		bl	write_LCD
 708:.\LCD.c       ****                 write_LCD(lcd,button[111][x],21,x+11,1,0xFFFF,'Y');  //Nombre de boton Cerrar
 6443              		.loc 1 708 0 discriminator 3
 6444 3100 FB7F     		ldrb	r3, [r7, #31]	@ zero_extendqisi2
 6445 3102 2D4A     		ldr	r2, .L286
 6446 3104 1344     		add	r3, r3, r2
 6447 3106 93F87833 		ldrb	r3, [r3, #888]
 6448 310a DAB2     		uxtb	r2, r3
 6449 310c FB7F     		ldrb	r3, [r7, #31]	@ zero_extendqisi2
 6450 310e 9BB2     		uxth	r3, r3
 6451 3110 0B33     		adds	r3, r3, #11
 6452 3112 9CB2     		uxth	r4, r3
 6453 3114 F979     		ldrb	r1, [r7, #7]	@ zero_extendqisi2
 6454 3116 0123     		movs	r3, #1
 6455 3118 0093     		str	r3, [sp]
 6456 311a 4FF6FF73 		movw	r3, #65535
 6457 311e 0193     		str	r3, [sp, #4]
 6458 3120 5923     		movs	r3, #89
 6459 3122 0293     		str	r3, [sp, #8]
 6460 3124 0846     		mov	r0, r1
 6461 3126 1146     		mov	r1, r2
 6462 3128 1522     		movs	r2, #21
 6463 312a 2346     		mov	r3, r4
 6464 312c FFF7FEFF 		bl	write_LCD
 706:.\LCD.c       ****                 write_LCD(lcd,button[1][x],10,x+1,3,0x2110,'Y');    //Nombre de boton Turnos
 6465              		.loc 1 706 0 discriminator 3
 6466 3130 FB7F     		ldrb	r3, [r7, #31]	@ zero_extendqisi2
 6467 3132 0133     		adds	r3, r3, #1
 6468 3134 FB77     		strb	r3, [r7, #31]
 6469              	.L238:
 706:.\LCD.c       ****                 write_LCD(lcd,button[1][x],10,x+1,3,0x2110,'Y');    //Nombre de boton Turnos
 6470              		.loc 1 706 0 is_stmt 0 discriminator 1
 6471 3136 FB7F     		ldrb	r3, [r7, #31]	@ zero_extendqisi2
 6472 3138 072B     		cmp	r3, #7
 6473 313a CAD9     		bls	.L239
 709:.\LCD.c       ****             }
 710:.\LCD.c       ****         break;
 6474              		.loc 1 710 0 is_stmt 1 discriminator 42
 6475 313c 11E1     		b	.L16
 6476              	.L49:
 711:.\LCD.c       ****        
 712:.\LCD.c       ****         case 'a': //Error abrir Turno
 713:.\LCD.c       ****             for(x=0;x<8;x++){
 6477              		.loc 1 713 0
 6478 313e 0023     		movs	r3, #0
 6479 3140 FB77     		strb	r3, [r7, #31]
 6480 3142 31E0     		b	.L240
 6481              	.L241:
 714:.\LCD.c       ****                 write_LCD(lcd,button[110][x],1,x+3,3,0x2110,'Y');   //Nombre de imagen Error de sur
 6482              		.loc 1 714 0 discriminator 3
 6483 3144 FB7F     		ldrb	r3, [r7, #31]	@ zero_extendqisi2
 6484 3146 1C4A     		ldr	r2, .L286
 6485 3148 1344     		add	r3, r3, r2
 6486 314a 93F87033 		ldrb	r3, [r3, #880]
 6487 314e DAB2     		uxtb	r2, r3
 6488 3150 FB7F     		ldrb	r3, [r7, #31]	@ zero_extendqisi2
ARM GAS  C:\Users\RECEPC~1\AppData\Local\Temp\ccAuxgaT.s 			page 131


 6489 3152 9BB2     		uxth	r3, r3
 6490 3154 0333     		adds	r3, r3, #3
 6491 3156 9CB2     		uxth	r4, r3
 6492 3158 F979     		ldrb	r1, [r7, #7]	@ zero_extendqisi2
 6493 315a 0323     		movs	r3, #3
 6494 315c 0093     		str	r3, [sp]
 6495 315e 42F21013 		movw	r3, #8464
 6496 3162 0193     		str	r3, [sp, #4]
 6497 3164 5923     		movs	r3, #89
 6498 3166 0293     		str	r3, [sp, #8]
 6499 3168 0846     		mov	r0, r1
 6500 316a 1146     		mov	r1, r2
 6501 316c 0122     		movs	r2, #1
 6502 316e 2346     		mov	r3, r4
 6503 3170 FFF7FEFF 		bl	write_LCD
 715:.\LCD.c       ****                 write_LCD(lcd,button[1][x],7,x+3,3,0x2110,'Y');   //Nombre de imagen Error de surti
 6504              		.loc 1 715 0 discriminator 3
 6505 3174 FB7F     		ldrb	r3, [r7, #31]	@ zero_extendqisi2
 6506 3176 104A     		ldr	r2, .L286
 6507 3178 1344     		add	r3, r3, r2
 6508 317a 1B7A     		ldrb	r3, [r3, #8]
 6509 317c DAB2     		uxtb	r2, r3
 6510 317e FB7F     		ldrb	r3, [r7, #31]	@ zero_extendqisi2
 6511 3180 9BB2     		uxth	r3, r3
 6512 3182 0333     		adds	r3, r3, #3
 6513 3184 9CB2     		uxth	r4, r3
 6514 3186 F979     		ldrb	r1, [r7, #7]	@ zero_extendqisi2
 6515 3188 0323     		movs	r3, #3
 6516 318a 0093     		str	r3, [sp]
 6517 318c 42F21013 		movw	r3, #8464
 6518 3190 0193     		str	r3, [sp, #4]
 6519 3192 5923     		movs	r3, #89
 6520 3194 0293     		str	r3, [sp, #8]
 6521 3196 0846     		mov	r0, r1
 6522 3198 1146     		mov	r1, r2
 6523 319a 0722     		movs	r2, #7
 6524 319c 2346     		mov	r3, r4
 6525 319e FFF7FEFF 		bl	write_LCD
 713:.\LCD.c       ****                 write_LCD(lcd,button[110][x],1,x+3,3,0x2110,'Y');   //Nombre de imagen Error de sur
 6526              		.loc 1 713 0 discriminator 3
 6527 31a2 FB7F     		ldrb	r3, [r7, #31]	@ zero_extendqisi2
 6528 31a4 0133     		adds	r3, r3, #1
 6529 31a6 FB77     		strb	r3, [r7, #31]
 6530              	.L240:
 713:.\LCD.c       ****                 write_LCD(lcd,button[110][x],1,x+3,3,0x2110,'Y');   //Nombre de imagen Error de sur
 6531              		.loc 1 713 0 is_stmt 0 discriminator 1
 6532 31a8 FB7F     		ldrb	r3, [r7, #31]	@ zero_extendqisi2
 6533 31aa 072B     		cmp	r3, #7
 6534 31ac CAD9     		bls	.L241
 716:.\LCD.c       ****             }
 717:.\LCD.c       ****         break;    
 6535              		.loc 1 717 0 is_stmt 1 discriminator 43
 6536 31ae D8E0     		b	.L16
 6537              	.L43:
 718:.\LCD.c       ****             
 719:.\LCD.c       ****         case 'Q'://Error de Surtidor
 720:.\LCD.c       ****             for(x=0;x<8;x++){
ARM GAS  C:\Users\RECEPC~1\AppData\Local\Temp\ccAuxgaT.s 			page 132


 6538              		.loc 1 720 0
 6539 31b0 0023     		movs	r3, #0
 6540 31b2 FB77     		strb	r3, [r7, #31]
 6541 31b4 35E0     		b	.L242
 6542              	.L287:
 6543 31b6 00BF     		.align	2
 6544              	.L286:
 6545 31b8 00000000 		.word	button
 6546              	.L243:
 721:.\LCD.c       ****                 write_LCD(lcd,button[17][x],1,x+3,3,0x2110,'Y');   //Nombre de imagen Error de surt
 6547              		.loc 1 721 0 discriminator 3
 6548 31bc FB7F     		ldrb	r3, [r7, #31]	@ zero_extendqisi2
 6549 31be 6A4A     		ldr	r2, .L288
 6550 31c0 1344     		add	r3, r3, r2
 6551 31c2 93F88830 		ldrb	r3, [r3, #136]
 6552 31c6 DAB2     		uxtb	r2, r3
 6553 31c8 FB7F     		ldrb	r3, [r7, #31]	@ zero_extendqisi2
 6554 31ca 9BB2     		uxth	r3, r3
 6555 31cc 0333     		adds	r3, r3, #3
 6556 31ce 9CB2     		uxth	r4, r3
 6557 31d0 F979     		ldrb	r1, [r7, #7]	@ zero_extendqisi2
 6558 31d2 0323     		movs	r3, #3
 6559 31d4 0093     		str	r3, [sp]
 6560 31d6 42F21013 		movw	r3, #8464
 6561 31da 0193     		str	r3, [sp, #4]
 6562 31dc 5923     		movs	r3, #89
 6563 31de 0293     		str	r3, [sp, #8]
 6564 31e0 0846     		mov	r0, r1
 6565 31e2 1146     		mov	r1, r2
 6566 31e4 0122     		movs	r2, #1
 6567 31e6 2346     		mov	r3, r4
 6568 31e8 FFF7FEFF 		bl	write_LCD
 722:.\LCD.c       ****                 write_LCD(lcd,button[18][x],7,x+3,3,0x2110,'Y');   //Nombre de imagen Error de surt
 6569              		.loc 1 722 0 discriminator 3
 6570 31ec FB7F     		ldrb	r3, [r7, #31]	@ zero_extendqisi2
 6571 31ee 5E4A     		ldr	r2, .L288
 6572 31f0 1344     		add	r3, r3, r2
 6573 31f2 93F89030 		ldrb	r3, [r3, #144]
 6574 31f6 DAB2     		uxtb	r2, r3
 6575 31f8 FB7F     		ldrb	r3, [r7, #31]	@ zero_extendqisi2
 6576 31fa 9BB2     		uxth	r3, r3
 6577 31fc 0333     		adds	r3, r3, #3
 6578 31fe 9CB2     		uxth	r4, r3
 6579 3200 F979     		ldrb	r1, [r7, #7]	@ zero_extendqisi2
 6580 3202 0323     		movs	r3, #3
 6581 3204 0093     		str	r3, [sp]
 6582 3206 42F21013 		movw	r3, #8464
 6583 320a 0193     		str	r3, [sp, #4]
 6584 320c 5923     		movs	r3, #89
 6585 320e 0293     		str	r3, [sp, #8]
 6586 3210 0846     		mov	r0, r1
 6587 3212 1146     		mov	r1, r2
 6588 3214 0722     		movs	r2, #7
 6589 3216 2346     		mov	r3, r4
 6590 3218 FFF7FEFF 		bl	write_LCD
 720:.\LCD.c       ****                 write_LCD(lcd,button[17][x],1,x+3,3,0x2110,'Y');   //Nombre de imagen Error de surt
 6591              		.loc 1 720 0 discriminator 3
ARM GAS  C:\Users\RECEPC~1\AppData\Local\Temp\ccAuxgaT.s 			page 133


 6592 321c FB7F     		ldrb	r3, [r7, #31]	@ zero_extendqisi2
 6593 321e 0133     		adds	r3, r3, #1
 6594 3220 FB77     		strb	r3, [r7, #31]
 6595              	.L242:
 720:.\LCD.c       ****                 write_LCD(lcd,button[17][x],1,x+3,3,0x2110,'Y');   //Nombre de imagen Error de surt
 6596              		.loc 1 720 0 is_stmt 0 discriminator 1
 6597 3222 FB7F     		ldrb	r3, [r7, #31]	@ zero_extendqisi2
 6598 3224 072B     		cmp	r3, #7
 6599 3226 C9D9     		bls	.L243
 723:.\LCD.c       ****             }
 724:.\LCD.c       ****         break;
 6600              		.loc 1 724 0 is_stmt 1 discriminator 44
 6601 3228 9BE0     		b	.L16
 6602              	.L40:
 725:.\LCD.c       ****             
 726:.\LCD.c       ****         case 'K'://Corte 
 727:.\LCD.c       ****             for(x=0;x<8;x++){
 6603              		.loc 1 727 0
 6604 322a 0023     		movs	r3, #0
 6605 322c FB77     		strb	r3, [r7, #31]
 6606 322e 4AE0     		b	.L244
 6607              	.L245:
 728:.\LCD.c       ****                 write_LCD(lcd,button[19][x],15,x+5,2,0x2110,'Y');   //Nombre de imagen Corte Renglo
 6608              		.loc 1 728 0 discriminator 3
 6609 3230 FB7F     		ldrb	r3, [r7, #31]	@ zero_extendqisi2
 6610 3232 4D4A     		ldr	r2, .L288
 6611 3234 1344     		add	r3, r3, r2
 6612 3236 93F89830 		ldrb	r3, [r3, #152]
 6613 323a DAB2     		uxtb	r2, r3
 6614 323c FB7F     		ldrb	r3, [r7, #31]	@ zero_extendqisi2
 6615 323e 9BB2     		uxth	r3, r3
 6616 3240 0533     		adds	r3, r3, #5
 6617 3242 9CB2     		uxth	r4, r3
 6618 3244 F979     		ldrb	r1, [r7, #7]	@ zero_extendqisi2
 6619 3246 0223     		movs	r3, #2
 6620 3248 0093     		str	r3, [sp]
 6621 324a 42F21013 		movw	r3, #8464
 6622 324e 0193     		str	r3, [sp, #4]
 6623 3250 5923     		movs	r3, #89
 6624 3252 0293     		str	r3, [sp, #8]
 6625 3254 0846     		mov	r0, r1
 6626 3256 1146     		mov	r1, r2
 6627 3258 0F22     		movs	r2, #15
 6628 325a 2346     		mov	r3, r4
 6629 325c FFF7FEFF 		bl	write_LCD
 729:.\LCD.c       ****                 write_LCD(lcd,button[32][x],19,x+5,2,0x2110,'Y');   //Nombre de imagen Corte Renglo
 6630              		.loc 1 729 0 discriminator 3
 6631 3260 FB7F     		ldrb	r3, [r7, #31]	@ zero_extendqisi2
 6632 3262 414A     		ldr	r2, .L288
 6633 3264 1344     		add	r3, r3, r2
 6634 3266 93F80031 		ldrb	r3, [r3, #256]
 6635 326a DAB2     		uxtb	r2, r3
 6636 326c FB7F     		ldrb	r3, [r7, #31]	@ zero_extendqisi2
 6637 326e 9BB2     		uxth	r3, r3
 6638 3270 0533     		adds	r3, r3, #5
 6639 3272 9CB2     		uxth	r4, r3
 6640 3274 F979     		ldrb	r1, [r7, #7]	@ zero_extendqisi2
ARM GAS  C:\Users\RECEPC~1\AppData\Local\Temp\ccAuxgaT.s 			page 134


 6641 3276 0223     		movs	r3, #2
 6642 3278 0093     		str	r3, [sp]
 6643 327a 42F21013 		movw	r3, #8464
 6644 327e 0193     		str	r3, [sp, #4]
 6645 3280 5923     		movs	r3, #89
 6646 3282 0293     		str	r3, [sp, #8]
 6647 3284 0846     		mov	r0, r1
 6648 3286 1146     		mov	r1, r2
 6649 3288 1322     		movs	r2, #19
 6650 328a 2346     		mov	r3, r4
 6651 328c FFF7FEFF 		bl	write_LCD
 730:.\LCD.c       ****                 write_LCD(lcd,button[33][x],21,x+5,2,0x2110,'Y');   //Nombre de imagen Corte Renglo
 6652              		.loc 1 730 0 discriminator 3
 6653 3290 FB7F     		ldrb	r3, [r7, #31]	@ zero_extendqisi2
 6654 3292 354A     		ldr	r2, .L288
 6655 3294 1344     		add	r3, r3, r2
 6656 3296 93F80831 		ldrb	r3, [r3, #264]
 6657 329a DAB2     		uxtb	r2, r3
 6658 329c FB7F     		ldrb	r3, [r7, #31]	@ zero_extendqisi2
 6659 329e 9BB2     		uxth	r3, r3
 6660 32a0 0533     		adds	r3, r3, #5
 6661 32a2 9CB2     		uxth	r4, r3
 6662 32a4 F979     		ldrb	r1, [r7, #7]	@ zero_extendqisi2
 6663 32a6 0223     		movs	r3, #2
 6664 32a8 0093     		str	r3, [sp]
 6665 32aa 42F21013 		movw	r3, #8464
 6666 32ae 0193     		str	r3, [sp, #4]
 6667 32b0 5923     		movs	r3, #89
 6668 32b2 0293     		str	r3, [sp, #8]
 6669 32b4 0846     		mov	r0, r1
 6670 32b6 1146     		mov	r1, r2
 6671 32b8 1522     		movs	r2, #21
 6672 32ba 2346     		mov	r3, r4
 6673 32bc FFF7FEFF 		bl	write_LCD
 727:.\LCD.c       ****                 write_LCD(lcd,button[19][x],15,x+5,2,0x2110,'Y');   //Nombre de imagen Corte Renglo
 6674              		.loc 1 727 0 discriminator 3
 6675 32c0 FB7F     		ldrb	r3, [r7, #31]	@ zero_extendqisi2
 6676 32c2 0133     		adds	r3, r3, #1
 6677 32c4 FB77     		strb	r3, [r7, #31]
 6678              	.L244:
 727:.\LCD.c       ****                 write_LCD(lcd,button[19][x],15,x+5,2,0x2110,'Y');   //Nombre de imagen Corte Renglo
 6679              		.loc 1 727 0 is_stmt 0 discriminator 1
 6680 32c6 FB7F     		ldrb	r3, [r7, #31]	@ zero_extendqisi2
 6681 32c8 072B     		cmp	r3, #7
 6682 32ca B1D9     		bls	.L245
 731:.\LCD.c       ****             }
 732:.\LCD.c       ****         break; 
 6683              		.loc 1 732 0 is_stmt 1 discriminator 45
 6684 32cc 49E0     		b	.L16
 6685              	.L61:
 733:.\LCD.c       ****             
 734:.\LCD.c       ****         case 'v'://ID Vendedor
 735:.\LCD.c       ****             flag=0;
 6686              		.loc 1 735 0
 6687 32ce 0023     		movs	r3, #0
 6688 32d0 7B77     		strb	r3, [r7, #29]
 736:.\LCD.c       ****             y=5;
ARM GAS  C:\Users\RECEPC~1\AppData\Local\Temp\ccAuxgaT.s 			page 135


 6689              		.loc 1 736 0
 6690 32d2 0523     		movs	r3, #5
 6691 32d4 BB77     		strb	r3, [r7, #30]
 737:.\LCD.c       ****             write_LCD(lcd,'I',4,2,1,0x0000,'Y');
 6692              		.loc 1 737 0
 6693 32d6 FA79     		ldrb	r2, [r7, #7]	@ zero_extendqisi2
 6694 32d8 0123     		movs	r3, #1
 6695 32da 0093     		str	r3, [sp]
 6696 32dc 0023     		movs	r3, #0
 6697 32de 0193     		str	r3, [sp, #4]
 6698 32e0 5923     		movs	r3, #89
 6699 32e2 0293     		str	r3, [sp, #8]
 6700 32e4 1046     		mov	r0, r2
 6701 32e6 4921     		movs	r1, #73
 6702 32e8 0422     		movs	r2, #4
 6703 32ea 0223     		movs	r3, #2
 6704 32ec FFF7FEFF 		bl	write_LCD
 738:.\LCD.c       ****             write_LCD(lcd,'D',4,3,1,0x0000,'Y');
 6705              		.loc 1 738 0
 6706 32f0 FA79     		ldrb	r2, [r7, #7]	@ zero_extendqisi2
 6707 32f2 0123     		movs	r3, #1
 6708 32f4 0093     		str	r3, [sp]
 6709 32f6 0023     		movs	r3, #0
 6710 32f8 0193     		str	r3, [sp, #4]
 6711 32fa 5923     		movs	r3, #89
 6712 32fc 0293     		str	r3, [sp, #8]
 6713 32fe 1046     		mov	r0, r2
 6714 3300 4421     		movs	r1, #68
 6715 3302 0422     		movs	r2, #4
 6716 3304 0323     		movs	r3, #3
 6717 3306 FFF7FEFF 		bl	write_LCD
 739:.\LCD.c       ****             for(x=1;x<=20;x++){
 6718              		.loc 1 739 0
 6719 330a 0123     		movs	r3, #1
 6720 330c FB77     		strb	r3, [r7, #31]
 6721 330e 24E0     		b	.L246
 6722              	.L249:
 740:.\LCD.c       ****                 if(idSeller[x]=='0' && flag==0){
 6723              		.loc 1 740 0
 6724 3310 FB7F     		ldrb	r3, [r7, #31]	@ zero_extendqisi2
 6725 3312 164A     		ldr	r2, .L288+4
 6726 3314 D35C     		ldrb	r3, [r2, r3]
 6727 3316 DBB2     		uxtb	r3, r3
 6728 3318 302B     		cmp	r3, #48
 6729 331a 03D1     		bne	.L247
 6730              		.loc 1 740 0 is_stmt 0 discriminator 1
 6731 331c 7B7F     		ldrb	r3, [r7, #29]	@ zero_extendqisi2
 6732 331e 002B     		cmp	r3, #0
 6733 3320 00D1     		bne	.L247
 6734              		.loc 1 740 0
 6735 3322 17E0     		b	.L248
 6736              	.L247:
 741:.\LCD.c       ****                 }else{
 742:.\LCD.c       ****                     write_LCD(lcd,idSeller[x],4,y,1,0x0000,'Y');  //Numero de identificacion del ve
 6737              		.loc 1 742 0 is_stmt 1
 6738 3324 FB7F     		ldrb	r3, [r7, #31]	@ zero_extendqisi2
 6739 3326 114A     		ldr	r2, .L288+4
ARM GAS  C:\Users\RECEPC~1\AppData\Local\Temp\ccAuxgaT.s 			page 136


 6740 3328 D35C     		ldrb	r3, [r2, r3]
 6741 332a DAB2     		uxtb	r2, r3
 6742 332c BB7F     		ldrb	r3, [r7, #30]	@ zero_extendqisi2
 6743 332e 9CB2     		uxth	r4, r3
 6744 3330 F979     		ldrb	r1, [r7, #7]	@ zero_extendqisi2
 6745 3332 0123     		movs	r3, #1
 6746 3334 0093     		str	r3, [sp]
 6747 3336 0023     		movs	r3, #0
 6748 3338 0193     		str	r3, [sp, #4]
 6749 333a 5923     		movs	r3, #89
 6750 333c 0293     		str	r3, [sp, #8]
 6751 333e 0846     		mov	r0, r1
 6752 3340 1146     		mov	r1, r2
 6753 3342 0422     		movs	r2, #4
 6754 3344 2346     		mov	r3, r4
 6755 3346 FFF7FEFF 		bl	write_LCD
 743:.\LCD.c       ****                     flag=1;
 6756              		.loc 1 743 0
 6757 334a 0123     		movs	r3, #1
 6758 334c 7B77     		strb	r3, [r7, #29]
 744:.\LCD.c       ****                     y++;
 6759              		.loc 1 744 0
 6760 334e BB7F     		ldrb	r3, [r7, #30]	@ zero_extendqisi2
 6761 3350 0133     		adds	r3, r3, #1
 6762 3352 BB77     		strb	r3, [r7, #30]
 6763              	.L248:
 739:.\LCD.c       ****                 if(idSeller[x]=='0' && flag==0){
 6764              		.loc 1 739 0 discriminator 2
 6765 3354 FB7F     		ldrb	r3, [r7, #31]	@ zero_extendqisi2
 6766 3356 0133     		adds	r3, r3, #1
 6767 3358 FB77     		strb	r3, [r7, #31]
 6768              	.L246:
 739:.\LCD.c       ****                 if(idSeller[x]=='0' && flag==0){
 6769              		.loc 1 739 0 is_stmt 0 discriminator 1
 6770 335a FB7F     		ldrb	r3, [r7, #31]	@ zero_extendqisi2
 6771 335c 142B     		cmp	r3, #20
 6772 335e D7D9     		bls	.L249
 745:.\LCD.c       ****                 }
 746:.\LCD.c       ****             }
 747:.\LCD.c       ****         break;
 6773              		.loc 1 747 0 is_stmt 1 discriminator 46
 6774 3360 00BF     		nop
 6775              	.L16:
 748:.\LCD.c       ****     }
 749:.\LCD.c       **** }
 6776              		.loc 1 749 0
 6777 3362 2437     		adds	r7, r7, #36
 6778              		.cfi_def_cfa_offset 12
 6779 3364 BD46     		mov	sp, r7
 6780              		.cfi_def_cfa_register 13
 6781              		@ sp needed
 6782 3366 90BD     		pop	{r4, r7, pc}
 6783              	.L289:
 6784              		.align	2
 6785              	.L288:
 6786 3368 00000000 		.word	button
 6787 336c 00000000 		.word	idSeller
ARM GAS  C:\Users\RECEPC~1\AppData\Local\Temp\ccAuxgaT.s 			page 137


 6788              		.cfi_endproc
 6789              	.LFE58:
 6790              		.size	write_button, .-write_button
 6791              		.section	.text.show_time_date,"ax",%progbits
 6792              		.align	2
 6793              		.global	show_time_date
 6794              		.thumb
 6795              		.thumb_func
 6796              		.type	show_time_date, %function
 6797              	show_time_date:
 6798              	.LFB59:
 750:.\LCD.c       **** 
 751:.\LCD.c       **** /*
 752:.\LCD.c       **** ***************************************************************************************************
 753:.\LCD.c       **** *                                    void show_time_date(uint8 lcd)
 754:.\LCD.c       **** *
 755:.\LCD.c       **** * Description : 
 756:.\LCD.c       **** *               
 757:.\LCD.c       **** *
 758:.\LCD.c       **** * Argument(s) : none
 759:.\LCD.c       **** *
 760:.\LCD.c       **** * Return(s)   : none
 761:.\LCD.c       **** *
 762:.\LCD.c       **** * Caller(s)   :  
 763:.\LCD.c       **** *
 764:.\LCD.c       **** * Note(s)     : none.
 765:.\LCD.c       **** ***************************************************************************************************
 766:.\LCD.c       **** */
 767:.\LCD.c       **** 
 768:.\LCD.c       **** void show_time_date(uint8 lcd){
 6799              		.loc 1 768 0
 6800              		.cfi_startproc
 6801              		@ args = 0, pretend = 0, frame = 16
 6802              		@ frame_needed = 1, uses_anonymous_args = 0
 6803 0000 90B5     		push	{r4, r7, lr}
 6804              		.cfi_def_cfa_offset 12
 6805              		.cfi_offset 4, -12
 6806              		.cfi_offset 7, -8
 6807              		.cfi_offset 14, -4
 6808 0002 89B0     		sub	sp, sp, #36
 6809              		.cfi_def_cfa_offset 48
 6810 0004 04AF     		add	r7, sp, #16
 6811              		.cfi_def_cfa 7, 32
 6812 0006 0346     		mov	r3, r0
 6813 0008 FB71     		strb	r3, [r7, #7]
 769:.\LCD.c       ****     uint8 x;
 770:.\LCD.c       ****     read_time();
 6814              		.loc 1 770 0
 6815 000a FFF7FEFF 		bl	read_time
 771:.\LCD.c       ****     read_date();
 6816              		.loc 1 771 0
 6817 000e FFF7FEFF 		bl	read_date
 772:.\LCD.c       ****     for(x=0;x<=2;x++){
 6818              		.loc 1 772 0
 6819 0012 0023     		movs	r3, #0
 6820 0014 FB73     		strb	r3, [r7, #15]
 6821 0016 7FE0     		b	.L291
ARM GAS  C:\Users\RECEPC~1\AppData\Local\Temp\ccAuxgaT.s 			page 138


 6822              	.L292:
 773:.\LCD.c       ****         write_LCD(lcd,((time[2-x]&0xF0)>>4)+48,13,3+(3*x),1,0x0000,'N');
 6823              		.loc 1 773 0 discriminator 3
 6824 0018 FB7B     		ldrb	r3, [r7, #15]	@ zero_extendqisi2
 6825 001a C3F10203 		rsb	r3, r3, #2
 6826 001e 694A     		ldr	r2, .L293
 6827 0020 D35C     		ldrb	r3, [r2, r3]
 6828 0022 DBB2     		uxtb	r3, r3
 6829 0024 1B09     		lsrs	r3, r3, #4
 6830 0026 DBB2     		uxtb	r3, r3
 6831 0028 3033     		adds	r3, r3, #48
 6832 002a DAB2     		uxtb	r2, r3
 6833 002c FB7B     		ldrb	r3, [r7, #15]	@ zero_extendqisi2
 6834 002e 0133     		adds	r3, r3, #1
 6835 0030 9BB2     		uxth	r3, r3
 6836 0032 1946     		mov	r1, r3	@ movhi
 6837 0034 4900     		lsls	r1, r1, #1
 6838 0036 0B44     		add	r3, r3, r1
 6839 0038 9CB2     		uxth	r4, r3
 6840 003a F979     		ldrb	r1, [r7, #7]	@ zero_extendqisi2
 6841 003c 0123     		movs	r3, #1
 6842 003e 0093     		str	r3, [sp]
 6843 0040 0023     		movs	r3, #0
 6844 0042 0193     		str	r3, [sp, #4]
 6845 0044 4E23     		movs	r3, #78
 6846 0046 0293     		str	r3, [sp, #8]
 6847 0048 0846     		mov	r0, r1
 6848 004a 1146     		mov	r1, r2
 6849 004c 0D22     		movs	r2, #13
 6850 004e 2346     		mov	r3, r4
 6851 0050 FFF7FEFF 		bl	write_LCD
 774:.\LCD.c       ****         write_LCD(lcd,(time[2-x]&0x0F)+48,13,4+(3*x),1,0x0000,'N');
 6852              		.loc 1 774 0 discriminator 3
 6853 0054 FB7B     		ldrb	r3, [r7, #15]	@ zero_extendqisi2
 6854 0056 C3F10203 		rsb	r3, r3, #2
 6855 005a 5A4A     		ldr	r2, .L293
 6856 005c D35C     		ldrb	r3, [r2, r3]
 6857 005e DBB2     		uxtb	r3, r3
 6858 0060 03F00F03 		and	r3, r3, #15
 6859 0064 DBB2     		uxtb	r3, r3
 6860 0066 3033     		adds	r3, r3, #48
 6861 0068 DAB2     		uxtb	r2, r3
 6862 006a FB7B     		ldrb	r3, [r7, #15]	@ zero_extendqisi2
 6863 006c 9BB2     		uxth	r3, r3
 6864 006e 1946     		mov	r1, r3	@ movhi
 6865 0070 4900     		lsls	r1, r1, #1
 6866 0072 0B44     		add	r3, r3, r1
 6867 0074 9BB2     		uxth	r3, r3
 6868 0076 0433     		adds	r3, r3, #4
 6869 0078 9CB2     		uxth	r4, r3
 6870 007a F979     		ldrb	r1, [r7, #7]	@ zero_extendqisi2
 6871 007c 0123     		movs	r3, #1
 6872 007e 0093     		str	r3, [sp]
 6873 0080 0023     		movs	r3, #0
 6874 0082 0193     		str	r3, [sp, #4]
 6875 0084 4E23     		movs	r3, #78
 6876 0086 0293     		str	r3, [sp, #8]
ARM GAS  C:\Users\RECEPC~1\AppData\Local\Temp\ccAuxgaT.s 			page 139


 6877 0088 0846     		mov	r0, r1
 6878 008a 1146     		mov	r1, r2
 6879 008c 0D22     		movs	r2, #13
 6880 008e 2346     		mov	r3, r4
 6881 0090 FFF7FEFF 		bl	write_LCD
 775:.\LCD.c       ****         write_LCD(lcd,((date[2-x]&0xF0)>>4)+48,13,17+(3*x),1,0x0000,'N');
 6882              		.loc 1 775 0 discriminator 3
 6883 0094 FB7B     		ldrb	r3, [r7, #15]	@ zero_extendqisi2
 6884 0096 C3F10203 		rsb	r3, r3, #2
 6885 009a 4B4A     		ldr	r2, .L293+4
 6886 009c D35C     		ldrb	r3, [r2, r3]
 6887 009e DBB2     		uxtb	r3, r3
 6888 00a0 1B09     		lsrs	r3, r3, #4
 6889 00a2 DBB2     		uxtb	r3, r3
 6890 00a4 3033     		adds	r3, r3, #48
 6891 00a6 DAB2     		uxtb	r2, r3
 6892 00a8 FB7B     		ldrb	r3, [r7, #15]	@ zero_extendqisi2
 6893 00aa 9BB2     		uxth	r3, r3
 6894 00ac 1946     		mov	r1, r3	@ movhi
 6895 00ae 4900     		lsls	r1, r1, #1
 6896 00b0 0B44     		add	r3, r3, r1
 6897 00b2 9BB2     		uxth	r3, r3
 6898 00b4 1133     		adds	r3, r3, #17
 6899 00b6 9CB2     		uxth	r4, r3
 6900 00b8 F979     		ldrb	r1, [r7, #7]	@ zero_extendqisi2
 6901 00ba 0123     		movs	r3, #1
 6902 00bc 0093     		str	r3, [sp]
 6903 00be 0023     		movs	r3, #0
 6904 00c0 0193     		str	r3, [sp, #4]
 6905 00c2 4E23     		movs	r3, #78
 6906 00c4 0293     		str	r3, [sp, #8]
 6907 00c6 0846     		mov	r0, r1
 6908 00c8 1146     		mov	r1, r2
 6909 00ca 0D22     		movs	r2, #13
 6910 00cc 2346     		mov	r3, r4
 6911 00ce FFF7FEFF 		bl	write_LCD
 776:.\LCD.c       ****         write_LCD(lcd,(date[2-x]&0x0F)+48,13,18+(3*x),1,0x0000,'N');
 6912              		.loc 1 776 0 discriminator 3
 6913 00d2 FB7B     		ldrb	r3, [r7, #15]	@ zero_extendqisi2
 6914 00d4 C3F10203 		rsb	r3, r3, #2
 6915 00d8 3B4A     		ldr	r2, .L293+4
 6916 00da D35C     		ldrb	r3, [r2, r3]
 6917 00dc DBB2     		uxtb	r3, r3
 6918 00de 03F00F03 		and	r3, r3, #15
 6919 00e2 DBB2     		uxtb	r3, r3
 6920 00e4 3033     		adds	r3, r3, #48
 6921 00e6 DAB2     		uxtb	r2, r3
 6922 00e8 FB7B     		ldrb	r3, [r7, #15]	@ zero_extendqisi2
 6923 00ea 9BB2     		uxth	r3, r3
 6924 00ec 1946     		mov	r1, r3	@ movhi
 6925 00ee 4900     		lsls	r1, r1, #1
 6926 00f0 0B44     		add	r3, r3, r1
 6927 00f2 9BB2     		uxth	r3, r3
 6928 00f4 1233     		adds	r3, r3, #18
 6929 00f6 9CB2     		uxth	r4, r3
 6930 00f8 F979     		ldrb	r1, [r7, #7]	@ zero_extendqisi2
 6931 00fa 0123     		movs	r3, #1
ARM GAS  C:\Users\RECEPC~1\AppData\Local\Temp\ccAuxgaT.s 			page 140


 6932 00fc 0093     		str	r3, [sp]
 6933 00fe 0023     		movs	r3, #0
 6934 0100 0193     		str	r3, [sp, #4]
 6935 0102 4E23     		movs	r3, #78
 6936 0104 0293     		str	r3, [sp, #8]
 6937 0106 0846     		mov	r0, r1
 6938 0108 1146     		mov	r1, r2
 6939 010a 0D22     		movs	r2, #13
 6940 010c 2346     		mov	r3, r4
 6941 010e FFF7FEFF 		bl	write_LCD
 772:.\LCD.c       ****         write_LCD(lcd,((time[2-x]&0xF0)>>4)+48,13,3+(3*x),1,0x0000,'N');
 6942              		.loc 1 772 0 discriminator 3
 6943 0112 FB7B     		ldrb	r3, [r7, #15]	@ zero_extendqisi2
 6944 0114 0133     		adds	r3, r3, #1
 6945 0116 FB73     		strb	r3, [r7, #15]
 6946              	.L291:
 772:.\LCD.c       ****         write_LCD(lcd,((time[2-x]&0xF0)>>4)+48,13,3+(3*x),1,0x0000,'N');
 6947              		.loc 1 772 0 is_stmt 0 discriminator 1
 6948 0118 FB7B     		ldrb	r3, [r7, #15]	@ zero_extendqisi2
 6949 011a 022B     		cmp	r3, #2
 6950 011c 7FF67CAF 		bls	.L292
 777:.\LCD.c       ****     }
 778:.\LCD.c       ****     write_LCD(lcd,'2',13,15,1,0x0000,'N');
 6951              		.loc 1 778 0 is_stmt 1
 6952 0120 FA79     		ldrb	r2, [r7, #7]	@ zero_extendqisi2
 6953 0122 0123     		movs	r3, #1
 6954 0124 0093     		str	r3, [sp]
 6955 0126 0023     		movs	r3, #0
 6956 0128 0193     		str	r3, [sp, #4]
 6957 012a 4E23     		movs	r3, #78
 6958 012c 0293     		str	r3, [sp, #8]
 6959 012e 1046     		mov	r0, r2
 6960 0130 3221     		movs	r1, #50
 6961 0132 0D22     		movs	r2, #13
 6962 0134 0F23     		movs	r3, #15
 6963 0136 FFF7FEFF 		bl	write_LCD
 779:.\LCD.c       ****     write_LCD(lcd,'0',13,16,1,0x0000,'N');
 6964              		.loc 1 779 0
 6965 013a FA79     		ldrb	r2, [r7, #7]	@ zero_extendqisi2
 6966 013c 0123     		movs	r3, #1
 6967 013e 0093     		str	r3, [sp]
 6968 0140 0023     		movs	r3, #0
 6969 0142 0193     		str	r3, [sp, #4]
 6970 0144 4E23     		movs	r3, #78
 6971 0146 0293     		str	r3, [sp, #8]
 6972 0148 1046     		mov	r0, r2
 6973 014a 3021     		movs	r1, #48
 6974 014c 0D22     		movs	r2, #13
 6975 014e 1023     		movs	r3, #16
 6976 0150 FFF7FEFF 		bl	write_LCD
 780:.\LCD.c       ****     write_LCD(lcd,':',13,5,1,0x0000,'N');
 6977              		.loc 1 780 0
 6978 0154 FA79     		ldrb	r2, [r7, #7]	@ zero_extendqisi2
 6979 0156 0123     		movs	r3, #1
 6980 0158 0093     		str	r3, [sp]
 6981 015a 0023     		movs	r3, #0
 6982 015c 0193     		str	r3, [sp, #4]
ARM GAS  C:\Users\RECEPC~1\AppData\Local\Temp\ccAuxgaT.s 			page 141


 6983 015e 4E23     		movs	r3, #78
 6984 0160 0293     		str	r3, [sp, #8]
 6985 0162 1046     		mov	r0, r2
 6986 0164 3A21     		movs	r1, #58
 6987 0166 0D22     		movs	r2, #13
 6988 0168 0523     		movs	r3, #5
 6989 016a FFF7FEFF 		bl	write_LCD
 781:.\LCD.c       ****     write_LCD(lcd,':',13,8,1,0x0000,'N');
 6990              		.loc 1 781 0
 6991 016e FA79     		ldrb	r2, [r7, #7]	@ zero_extendqisi2
 6992 0170 0123     		movs	r3, #1
 6993 0172 0093     		str	r3, [sp]
 6994 0174 0023     		movs	r3, #0
 6995 0176 0193     		str	r3, [sp, #4]
 6996 0178 4E23     		movs	r3, #78
 6997 017a 0293     		str	r3, [sp, #8]
 6998 017c 1046     		mov	r0, r2
 6999 017e 3A21     		movs	r1, #58
 7000 0180 0D22     		movs	r2, #13
 7001 0182 0823     		movs	r3, #8
 7002 0184 FFF7FEFF 		bl	write_LCD
 782:.\LCD.c       ****     write_LCD(lcd,'/',13,19,1,0x0000,'N');
 7003              		.loc 1 782 0
 7004 0188 FA79     		ldrb	r2, [r7, #7]	@ zero_extendqisi2
 7005 018a 0123     		movs	r3, #1
 7006 018c 0093     		str	r3, [sp]
 7007 018e 0023     		movs	r3, #0
 7008 0190 0193     		str	r3, [sp, #4]
 7009 0192 4E23     		movs	r3, #78
 7010 0194 0293     		str	r3, [sp, #8]
 7011 0196 1046     		mov	r0, r2
 7012 0198 2F21     		movs	r1, #47
 7013 019a 0D22     		movs	r2, #13
 7014 019c 1323     		movs	r3, #19
 7015 019e FFF7FEFF 		bl	write_LCD
 783:.\LCD.c       ****     write_LCD(lcd,'/',13,22,1,0x0000,'N');
 7016              		.loc 1 783 0
 7017 01a2 FA79     		ldrb	r2, [r7, #7]	@ zero_extendqisi2
 7018 01a4 0123     		movs	r3, #1
 7019 01a6 0093     		str	r3, [sp]
 7020 01a8 0023     		movs	r3, #0
 7021 01aa 0193     		str	r3, [sp, #4]
 7022 01ac 4E23     		movs	r3, #78
 7023 01ae 0293     		str	r3, [sp, #8]
 7024 01b0 1046     		mov	r0, r2
 7025 01b2 2F21     		movs	r1, #47
 7026 01b4 0D22     		movs	r2, #13
 7027 01b6 1623     		movs	r3, #22
 7028 01b8 FFF7FEFF 		bl	write_LCD
 784:.\LCD.c       **** }
 7029              		.loc 1 784 0
 7030 01bc 1437     		adds	r7, r7, #20
 7031              		.cfi_def_cfa_offset 12
 7032 01be BD46     		mov	sp, r7
 7033              		.cfi_def_cfa_register 13
 7034              		@ sp needed
 7035 01c0 90BD     		pop	{r4, r7, pc}
ARM GAS  C:\Users\RECEPC~1\AppData\Local\Temp\ccAuxgaT.s 			page 142


 7036              	.L294:
 7037 01c2 00BF     		.align	2
 7038              	.L293:
 7039 01c4 00000000 		.word	time
 7040 01c8 00000000 		.word	date
 7041              		.cfi_endproc
 7042              	.LFE59:
 7043              		.size	show_time_date, .-show_time_date
 7044              		.section	.text.show_info,"ax",%progbits
 7045              		.align	2
 7046              		.global	show_info
 7047              		.thumb
 7048              		.thumb_func
 7049              		.type	show_info, %function
 7050              	show_info:
 7051              	.LFB60:
 785:.\LCD.c       **** 
 786:.\LCD.c       **** /*
 787:.\LCD.c       **** ***************************************************************************************************
 788:.\LCD.c       **** *                                    void show_info(uint8 lcd)
 789:.\LCD.c       **** *
 790:.\LCD.c       **** * Description : 
 791:.\LCD.c       **** *               
 792:.\LCD.c       **** *
 793:.\LCD.c       **** * Argument(s) : none
 794:.\LCD.c       **** *
 795:.\LCD.c       **** * Return(s)   : none
 796:.\LCD.c       **** *
 797:.\LCD.c       **** * Caller(s)   :  
 798:.\LCD.c       **** *
 799:.\LCD.c       **** * Note(s)     : none.
 800:.\LCD.c       **** ***************************************************************************************************
 801:.\LCD.c       **** */
 802:.\LCD.c       **** 
 803:.\LCD.c       **** void show_info(uint8 lcd,uint8 *version){
 7052              		.loc 1 803 0
 7053              		.cfi_startproc
 7054              		@ args = 0, pretend = 0, frame = 16
 7055              		@ frame_needed = 1, uses_anonymous_args = 0
 7056 0000 90B5     		push	{r4, r7, lr}
 7057              		.cfi_def_cfa_offset 12
 7058              		.cfi_offset 4, -12
 7059              		.cfi_offset 7, -8
 7060              		.cfi_offset 14, -4
 7061 0002 89B0     		sub	sp, sp, #36
 7062              		.cfi_def_cfa_offset 48
 7063 0004 04AF     		add	r7, sp, #16
 7064              		.cfi_def_cfa 7, 32
 7065 0006 0346     		mov	r3, r0
 7066 0008 3960     		str	r1, [r7]
 7067 000a FB71     		strb	r3, [r7, #7]
 804:.\LCD.c       ****     uint8 x,y=0;
 7068              		.loc 1 804 0
 7069 000c 0023     		movs	r3, #0
 7070 000e BB73     		strb	r3, [r7, #14]
 805:.\LCD.c       ****     for(x=0;x<10;x++){
 7071              		.loc 1 805 0
ARM GAS  C:\Users\RECEPC~1\AppData\Local\Temp\ccAuxgaT.s 			page 143


 7072 0010 0023     		movs	r3, #0
 7073 0012 FB73     		strb	r3, [r7, #15]
 7074 0014 17E0     		b	.L296
 7075              	.L297:
 806:.\LCD.c       ****         write_LCD(lcd,version[x],4,2+x,1,0x0000,'Y');
 7076              		.loc 1 806 0 discriminator 3
 7077 0016 FB7B     		ldrb	r3, [r7, #15]	@ zero_extendqisi2
 7078 0018 3A68     		ldr	r2, [r7]
 7079 001a 1344     		add	r3, r3, r2
 7080 001c 1A78     		ldrb	r2, [r3]	@ zero_extendqisi2
 7081 001e FB7B     		ldrb	r3, [r7, #15]	@ zero_extendqisi2
 7082 0020 9BB2     		uxth	r3, r3
 7083 0022 0233     		adds	r3, r3, #2
 7084 0024 9CB2     		uxth	r4, r3
 7085 0026 F979     		ldrb	r1, [r7, #7]	@ zero_extendqisi2
 7086 0028 0123     		movs	r3, #1
 7087 002a 0093     		str	r3, [sp]
 7088 002c 0023     		movs	r3, #0
 7089 002e 0193     		str	r3, [sp, #4]
 7090 0030 5923     		movs	r3, #89
 7091 0032 0293     		str	r3, [sp, #8]
 7092 0034 0846     		mov	r0, r1
 7093 0036 1146     		mov	r1, r2
 7094 0038 0422     		movs	r2, #4
 7095 003a 2346     		mov	r3, r4
 7096 003c FFF7FEFF 		bl	write_LCD
 805:.\LCD.c       ****     for(x=0;x<10;x++){
 7097              		.loc 1 805 0 discriminator 3
 7098 0040 FB7B     		ldrb	r3, [r7, #15]	@ zero_extendqisi2
 7099 0042 0133     		adds	r3, r3, #1
 7100 0044 FB73     		strb	r3, [r7, #15]
 7101              	.L296:
 805:.\LCD.c       ****     for(x=0;x<10;x++){
 7102              		.loc 1 805 0 is_stmt 0 discriminator 1
 7103 0046 FB7B     		ldrb	r3, [r7, #15]	@ zero_extendqisi2
 7104 0048 092B     		cmp	r3, #9
 7105 004a E4D9     		bls	.L297
 807:.\LCD.c       ****     }
 808:.\LCD.c       ****     if(lcd==1){
 7106              		.loc 1 808 0 is_stmt 1
 7107 004c FB79     		ldrb	r3, [r7, #7]	@ zero_extendqisi2
 7108 004e 012B     		cmp	r3, #1
 7109 0050 31D1     		bne	.L298
 809:.\LCD.c       ****         write_LCD(lcd,(side.a.dir/10)+48,4,19,1,0x0000,'Y');
 7110              		.loc 1 809 0
 7111 0052 574B     		ldr	r3, .L306
 7112 0054 1B78     		ldrb	r3, [r3]	@ zero_extendqisi2
 7113 0056 574A     		ldr	r2, .L306+4
 7114 0058 A2FB0323 		umull	r2, r3, r2, r3
 7115 005c DB08     		lsrs	r3, r3, #3
 7116 005e DBB2     		uxtb	r3, r3
 7117 0060 3033     		adds	r3, r3, #48
 7118 0062 DAB2     		uxtb	r2, r3
 7119 0064 F979     		ldrb	r1, [r7, #7]	@ zero_extendqisi2
 7120 0066 0123     		movs	r3, #1
 7121 0068 0093     		str	r3, [sp]
 7122 006a 0023     		movs	r3, #0
ARM GAS  C:\Users\RECEPC~1\AppData\Local\Temp\ccAuxgaT.s 			page 144


 7123 006c 0193     		str	r3, [sp, #4]
 7124 006e 5923     		movs	r3, #89
 7125 0070 0293     		str	r3, [sp, #8]
 7126 0072 0846     		mov	r0, r1
 7127 0074 1146     		mov	r1, r2
 7128 0076 0422     		movs	r2, #4
 7129 0078 1323     		movs	r3, #19
 7130 007a FFF7FEFF 		bl	write_LCD
 810:.\LCD.c       ****         write_LCD(lcd,(side.a.dir%10)+48,4,20,1,0x0000,'Y');
 7131              		.loc 1 810 0
 7132 007e 4C4B     		ldr	r3, .L306
 7133 0080 1A78     		ldrb	r2, [r3]	@ zero_extendqisi2
 7134 0082 4C4B     		ldr	r3, .L306+4
 7135 0084 A3FB0213 		umull	r1, r3, r3, r2
 7136 0088 D908     		lsrs	r1, r3, #3
 7137 008a 0B46     		mov	r3, r1
 7138 008c 9B00     		lsls	r3, r3, #2
 7139 008e 0B44     		add	r3, r3, r1
 7140 0090 5B00     		lsls	r3, r3, #1
 7141 0092 D31A     		subs	r3, r2, r3
 7142 0094 DBB2     		uxtb	r3, r3
 7143 0096 3033     		adds	r3, r3, #48
 7144 0098 DAB2     		uxtb	r2, r3
 7145 009a F979     		ldrb	r1, [r7, #7]	@ zero_extendqisi2
 7146 009c 0123     		movs	r3, #1
 7147 009e 0093     		str	r3, [sp]
 7148 00a0 0023     		movs	r3, #0
 7149 00a2 0193     		str	r3, [sp, #4]
 7150 00a4 5923     		movs	r3, #89
 7151 00a6 0293     		str	r3, [sp, #8]
 7152 00a8 0846     		mov	r0, r1
 7153 00aa 1146     		mov	r1, r2
 7154 00ac 0422     		movs	r2, #4
 7155 00ae 1423     		movs	r3, #20
 7156 00b0 FFF7FEFF 		bl	write_LCD
 7157 00b4 32E0     		b	.L299
 7158              	.L298:
 811:.\LCD.c       ****     }else{
 812:.\LCD.c       ****         write_LCD(lcd,(side.b.dir/10)+48,4,19,1,0x0000,'Y');
 7159              		.loc 1 812 0
 7160 00b6 3E4B     		ldr	r3, .L306
 7161 00b8 93F80031 		ldrb	r3, [r3, #256]	@ zero_extendqisi2
 7162 00bc 3D4A     		ldr	r2, .L306+4
 7163 00be A2FB0323 		umull	r2, r3, r2, r3
 7164 00c2 DB08     		lsrs	r3, r3, #3
 7165 00c4 DBB2     		uxtb	r3, r3
 7166 00c6 3033     		adds	r3, r3, #48
 7167 00c8 DAB2     		uxtb	r2, r3
 7168 00ca F979     		ldrb	r1, [r7, #7]	@ zero_extendqisi2
 7169 00cc 0123     		movs	r3, #1
 7170 00ce 0093     		str	r3, [sp]
 7171 00d0 0023     		movs	r3, #0
 7172 00d2 0193     		str	r3, [sp, #4]
 7173 00d4 5923     		movs	r3, #89
 7174 00d6 0293     		str	r3, [sp, #8]
 7175 00d8 0846     		mov	r0, r1
 7176 00da 1146     		mov	r1, r2
ARM GAS  C:\Users\RECEPC~1\AppData\Local\Temp\ccAuxgaT.s 			page 145


 7177 00dc 0422     		movs	r2, #4
 7178 00de 1323     		movs	r3, #19
 7179 00e0 FFF7FEFF 		bl	write_LCD
 813:.\LCD.c       ****         write_LCD(lcd,(side.b.dir%10)+48,4,20,1,0x0000,'Y');
 7180              		.loc 1 813 0
 7181 00e4 324B     		ldr	r3, .L306
 7182 00e6 93F80021 		ldrb	r2, [r3, #256]	@ zero_extendqisi2
 7183 00ea 324B     		ldr	r3, .L306+4
 7184 00ec A3FB0213 		umull	r1, r3, r3, r2
 7185 00f0 D908     		lsrs	r1, r3, #3
 7186 00f2 0B46     		mov	r3, r1
 7187 00f4 9B00     		lsls	r3, r3, #2
 7188 00f6 0B44     		add	r3, r3, r1
 7189 00f8 5B00     		lsls	r3, r3, #1
 7190 00fa D31A     		subs	r3, r2, r3
 7191 00fc DBB2     		uxtb	r3, r3
 7192 00fe 3033     		adds	r3, r3, #48
 7193 0100 DAB2     		uxtb	r2, r3
 7194 0102 F979     		ldrb	r1, [r7, #7]	@ zero_extendqisi2
 7195 0104 0123     		movs	r3, #1
 7196 0106 0093     		str	r3, [sp]
 7197 0108 0023     		movs	r3, #0
 7198 010a 0193     		str	r3, [sp, #4]
 7199 010c 5923     		movs	r3, #89
 7200 010e 0293     		str	r3, [sp, #8]
 7201 0110 0846     		mov	r0, r1
 7202 0112 1146     		mov	r1, r2
 7203 0114 0422     		movs	r2, #4
 7204 0116 1423     		movs	r3, #20
 7205 0118 FFF7FEFF 		bl	write_LCD
 7206              	.L299:
 814:.\LCD.c       ****     }
 815:.\LCD.c       ****     for(x=0;x<12;x++){
 7207              		.loc 1 815 0
 7208 011c 0023     		movs	r3, #0
 7209 011e FB73     		strb	r3, [r7, #15]
 7210 0120 40E0     		b	.L300
 7211              	.L303:
 816:.\LCD.c       ****         write_LCD(lcd,(ipAdress[x]&0x0f)+48,22,6+x+y,0,0x0000,'Y');
 7212              		.loc 1 816 0
 7213 0122 FB7B     		ldrb	r3, [r7, #15]	@ zero_extendqisi2
 7214 0124 244A     		ldr	r2, .L306+8
 7215 0126 D35C     		ldrb	r3, [r2, r3]
 7216 0128 DBB2     		uxtb	r3, r3
 7217 012a 03F00F03 		and	r3, r3, #15
 7218 012e DBB2     		uxtb	r3, r3
 7219 0130 3033     		adds	r3, r3, #48
 7220 0132 D9B2     		uxtb	r1, r3
 7221 0134 FB7B     		ldrb	r3, [r7, #15]	@ zero_extendqisi2
 7222 0136 9AB2     		uxth	r2, r3
 7223 0138 BB7B     		ldrb	r3, [r7, #14]	@ zero_extendqisi2
 7224 013a 9BB2     		uxth	r3, r3
 7225 013c 1344     		add	r3, r3, r2
 7226 013e 9BB2     		uxth	r3, r3
 7227 0140 0633     		adds	r3, r3, #6
 7228 0142 9CB2     		uxth	r4, r3
 7229 0144 FA79     		ldrb	r2, [r7, #7]	@ zero_extendqisi2
ARM GAS  C:\Users\RECEPC~1\AppData\Local\Temp\ccAuxgaT.s 			page 146


 7230 0146 0023     		movs	r3, #0
 7231 0148 0093     		str	r3, [sp]
 7232 014a 0023     		movs	r3, #0
 7233 014c 0193     		str	r3, [sp, #4]
 7234 014e 5923     		movs	r3, #89
 7235 0150 0293     		str	r3, [sp, #8]
 7236 0152 1046     		mov	r0, r2
 7237 0154 1622     		movs	r2, #22
 7238 0156 2346     		mov	r3, r4
 7239 0158 FFF7FEFF 		bl	write_LCD
 817:.\LCD.c       ****         if(x==2 || x==5 || x==8){
 7240              		.loc 1 817 0
 7241 015c FB7B     		ldrb	r3, [r7, #15]	@ zero_extendqisi2
 7242 015e 022B     		cmp	r3, #2
 7243 0160 05D0     		beq	.L301
 7244              		.loc 1 817 0 is_stmt 0 discriminator 1
 7245 0162 FB7B     		ldrb	r3, [r7, #15]	@ zero_extendqisi2
 7246 0164 052B     		cmp	r3, #5
 7247 0166 02D0     		beq	.L301
 7248              		.loc 1 817 0 discriminator 2
 7249 0168 FB7B     		ldrb	r3, [r7, #15]	@ zero_extendqisi2
 7250 016a 082B     		cmp	r3, #8
 7251 016c 17D1     		bne	.L302
 7252              	.L301:
 818:.\LCD.c       ****             write_LCD(lcd,'.',22,7+x+y,0,0x0000,'Y');
 7253              		.loc 1 818 0 is_stmt 1
 7254 016e FB7B     		ldrb	r3, [r7, #15]	@ zero_extendqisi2
 7255 0170 9AB2     		uxth	r2, r3
 7256 0172 BB7B     		ldrb	r3, [r7, #14]	@ zero_extendqisi2
 7257 0174 9BB2     		uxth	r3, r3
 7258 0176 1344     		add	r3, r3, r2
 7259 0178 9BB2     		uxth	r3, r3
 7260 017a 0733     		adds	r3, r3, #7
 7261 017c 9CB2     		uxth	r4, r3
 7262 017e FA79     		ldrb	r2, [r7, #7]	@ zero_extendqisi2
 7263 0180 0023     		movs	r3, #0
 7264 0182 0093     		str	r3, [sp]
 7265 0184 0023     		movs	r3, #0
 7266 0186 0193     		str	r3, [sp, #4]
 7267 0188 5923     		movs	r3, #89
 7268 018a 0293     		str	r3, [sp, #8]
 7269 018c 1046     		mov	r0, r2
 7270 018e 2E21     		movs	r1, #46
 7271 0190 1622     		movs	r2, #22
 7272 0192 2346     		mov	r3, r4
 7273 0194 FFF7FEFF 		bl	write_LCD
 819:.\LCD.c       ****             y++;
 7274              		.loc 1 819 0
 7275 0198 BB7B     		ldrb	r3, [r7, #14]	@ zero_extendqisi2
 7276 019a 0133     		adds	r3, r3, #1
 7277 019c BB73     		strb	r3, [r7, #14]
 7278              	.L302:
 815:.\LCD.c       ****         write_LCD(lcd,(ipAdress[x]&0x0f)+48,22,6+x+y,0,0x0000,'Y');
 7279              		.loc 1 815 0 discriminator 2
 7280 019e FB7B     		ldrb	r3, [r7, #15]	@ zero_extendqisi2
 7281 01a0 0133     		adds	r3, r3, #1
 7282 01a2 FB73     		strb	r3, [r7, #15]
ARM GAS  C:\Users\RECEPC~1\AppData\Local\Temp\ccAuxgaT.s 			page 147


 7283              	.L300:
 815:.\LCD.c       ****         write_LCD(lcd,(ipAdress[x]&0x0f)+48,22,6+x+y,0,0x0000,'Y');
 7284              		.loc 1 815 0 is_stmt 0 discriminator 1
 7285 01a4 FB7B     		ldrb	r3, [r7, #15]	@ zero_extendqisi2
 7286 01a6 0B2B     		cmp	r3, #11
 7287 01a8 BBD9     		bls	.L303
 820:.\LCD.c       ****         }
 821:.\LCD.c       ****     }
 822:.\LCD.c       ****     for(x=1;x<=11;x++){
 7288              		.loc 1 822 0 is_stmt 1
 7289 01aa 0123     		movs	r3, #1
 7290 01ac FB73     		strb	r3, [r7, #15]
 7291 01ae 1BE0     		b	.L304
 7292              	.L307:
 7293              		.align	2
 7294              	.L306:
 7295 01b0 00000000 		.word	side
 7296 01b4 CDCCCCCC 		.word	-858993459
 7297 01b8 00000000 		.word	ipAdress
 7298              	.L305:
 823:.\LCD.c       ****         write_LCD(lcd,'|',22,(x*2)+27,0,0x0000,'Y');
 7299              		.loc 1 823 0 discriminator 3
 7300 01bc FB7B     		ldrb	r3, [r7, #15]	@ zero_extendqisi2
 7301 01be 9BB2     		uxth	r3, r3
 7302 01c0 5B00     		lsls	r3, r3, #1
 7303 01c2 9BB2     		uxth	r3, r3
 7304 01c4 1B33     		adds	r3, r3, #27
 7305 01c6 9CB2     		uxth	r4, r3
 7306 01c8 FA79     		ldrb	r2, [r7, #7]	@ zero_extendqisi2
 7307 01ca 0023     		movs	r3, #0
 7308 01cc 0093     		str	r3, [sp]
 7309 01ce 0023     		movs	r3, #0
 7310 01d0 0193     		str	r3, [sp, #4]
 7311 01d2 5923     		movs	r3, #89
 7312 01d4 0293     		str	r3, [sp, #8]
 7313 01d6 1046     		mov	r0, r2
 7314 01d8 7C21     		movs	r1, #124
 7315 01da 1622     		movs	r2, #22
 7316 01dc 2346     		mov	r3, r4
 7317 01de FFF7FEFF 		bl	write_LCD
 822:.\LCD.c       ****         write_LCD(lcd,'|',22,(x*2)+27,0,0x0000,'Y');
 7318              		.loc 1 822 0 discriminator 3
 7319 01e2 FB7B     		ldrb	r3, [r7, #15]	@ zero_extendqisi2
 7320 01e4 0133     		adds	r3, r3, #1
 7321 01e6 FB73     		strb	r3, [r7, #15]
 7322              	.L304:
 822:.\LCD.c       ****         write_LCD(lcd,'|',22,(x*2)+27,0,0x0000,'Y');
 7323              		.loc 1 822 0 is_stmt 0 discriminator 1
 7324 01e8 FB7B     		ldrb	r3, [r7, #15]	@ zero_extendqisi2
 7325 01ea 0B2B     		cmp	r3, #11
 7326 01ec E6D9     		bls	.L305
 824:.\LCD.c       ****     }
 825:.\LCD.c       ****     write_LCD(lcd,digits+48,22,30,0,0x0000,'Y');
 7327              		.loc 1 825 0 is_stmt 1
 7328 01ee 574B     		ldr	r3, .L308
 7329 01f0 1B78     		ldrb	r3, [r3]
 7330 01f2 DBB2     		uxtb	r3, r3
ARM GAS  C:\Users\RECEPC~1\AppData\Local\Temp\ccAuxgaT.s 			page 148


 7331 01f4 3033     		adds	r3, r3, #48
 7332 01f6 DAB2     		uxtb	r2, r3
 7333 01f8 F979     		ldrb	r1, [r7, #7]	@ zero_extendqisi2
 7334 01fa 0023     		movs	r3, #0
 7335 01fc 0093     		str	r3, [sp]
 7336 01fe 0023     		movs	r3, #0
 7337 0200 0193     		str	r3, [sp, #4]
 7338 0202 5923     		movs	r3, #89
 7339 0204 0293     		str	r3, [sp, #8]
 7340 0206 0846     		mov	r0, r1
 7341 0208 1146     		mov	r1, r2
 7342 020a 1622     		movs	r2, #22
 7343 020c 1E23     		movs	r3, #30
 7344 020e FFF7FEFF 		bl	write_LCD
 826:.\LCD.c       ****     write_LCD(lcd,decimalMoney+48,22,32,0,0x0000,'Y');
 7345              		.loc 1 826 0
 7346 0212 4F4B     		ldr	r3, .L308+4
 7347 0214 1B78     		ldrb	r3, [r3]
 7348 0216 DBB2     		uxtb	r3, r3
 7349 0218 3033     		adds	r3, r3, #48
 7350 021a DAB2     		uxtb	r2, r3
 7351 021c F979     		ldrb	r1, [r7, #7]	@ zero_extendqisi2
 7352 021e 0023     		movs	r3, #0
 7353 0220 0093     		str	r3, [sp]
 7354 0222 0023     		movs	r3, #0
 7355 0224 0193     		str	r3, [sp, #4]
 7356 0226 5923     		movs	r3, #89
 7357 0228 0293     		str	r3, [sp, #8]
 7358 022a 0846     		mov	r0, r1
 7359 022c 1146     		mov	r1, r2
 7360 022e 1622     		movs	r2, #22
 7361 0230 2023     		movs	r3, #32
 7362 0232 FFF7FEFF 		bl	write_LCD
 827:.\LCD.c       ****     write_LCD(lcd,decimalVolume+48,22,34,0,0x0000,'Y');
 7363              		.loc 1 827 0
 7364 0236 474B     		ldr	r3, .L308+8
 7365 0238 1B78     		ldrb	r3, [r3]
 7366 023a DBB2     		uxtb	r3, r3
 7367 023c 3033     		adds	r3, r3, #48
 7368 023e DAB2     		uxtb	r2, r3
 7369 0240 F979     		ldrb	r1, [r7, #7]	@ zero_extendqisi2
 7370 0242 0023     		movs	r3, #0
 7371 0244 0093     		str	r3, [sp]
 7372 0246 0023     		movs	r3, #0
 7373 0248 0193     		str	r3, [sp, #4]
 7374 024a 5923     		movs	r3, #89
 7375 024c 0293     		str	r3, [sp, #8]
 7376 024e 0846     		mov	r0, r1
 7377 0250 1146     		mov	r1, r2
 7378 0252 1622     		movs	r2, #22
 7379 0254 2223     		movs	r3, #34
 7380 0256 FFF7FEFF 		bl	write_LCD
 828:.\LCD.c       ****     write_LCD(lcd,ppux10+48,22,36,0,0x0000,'Y');
 7381              		.loc 1 828 0
 7382 025a 3F4B     		ldr	r3, .L308+12
 7383 025c 1B78     		ldrb	r3, [r3]
 7384 025e DBB2     		uxtb	r3, r3
ARM GAS  C:\Users\RECEPC~1\AppData\Local\Temp\ccAuxgaT.s 			page 149


 7385 0260 3033     		adds	r3, r3, #48
 7386 0262 DAB2     		uxtb	r2, r3
 7387 0264 F979     		ldrb	r1, [r7, #7]	@ zero_extendqisi2
 7388 0266 0023     		movs	r3, #0
 7389 0268 0093     		str	r3, [sp]
 7390 026a 0023     		movs	r3, #0
 7391 026c 0193     		str	r3, [sp, #4]
 7392 026e 5923     		movs	r3, #89
 7393 0270 0293     		str	r3, [sp, #8]
 7394 0272 0846     		mov	r0, r1
 7395 0274 1146     		mov	r1, r2
 7396 0276 1622     		movs	r2, #22
 7397 0278 2423     		movs	r3, #36
 7398 027a FFF7FEFF 		bl	write_LCD
 829:.\LCD.c       ****     write_LCD(lcd,productNumber+48,22,38,0,0x0000,'Y');
 7399              		.loc 1 829 0
 7400 027e 374B     		ldr	r3, .L308+16
 7401 0280 1B78     		ldrb	r3, [r3]
 7402 0282 DBB2     		uxtb	r3, r3
 7403 0284 3033     		adds	r3, r3, #48
 7404 0286 DAB2     		uxtb	r2, r3
 7405 0288 F979     		ldrb	r1, [r7, #7]	@ zero_extendqisi2
 7406 028a 0023     		movs	r3, #0
 7407 028c 0093     		str	r3, [sp]
 7408 028e 0023     		movs	r3, #0
 7409 0290 0193     		str	r3, [sp, #4]
 7410 0292 5923     		movs	r3, #89
 7411 0294 0293     		str	r3, [sp, #8]
 7412 0296 0846     		mov	r0, r1
 7413 0298 1146     		mov	r1, r2
 7414 029a 1622     		movs	r2, #22
 7415 029c 2623     		movs	r3, #38
 7416 029e FFF7FEFF 		bl	write_LCD
 830:.\LCD.c       ****     write_LCD(lcd,symbols[0],22,40,0,0x0000,'Y');
 7417              		.loc 1 830 0
 7418 02a2 2F4B     		ldr	r3, .L308+20
 7419 02a4 1B78     		ldrb	r3, [r3]
 7420 02a6 DAB2     		uxtb	r2, r3
 7421 02a8 F979     		ldrb	r1, [r7, #7]	@ zero_extendqisi2
 7422 02aa 0023     		movs	r3, #0
 7423 02ac 0093     		str	r3, [sp]
 7424 02ae 0023     		movs	r3, #0
 7425 02b0 0193     		str	r3, [sp, #4]
 7426 02b2 5923     		movs	r3, #89
 7427 02b4 0293     		str	r3, [sp, #8]
 7428 02b6 0846     		mov	r0, r1
 7429 02b8 1146     		mov	r1, r2
 7430 02ba 1622     		movs	r2, #22
 7431 02bc 2823     		movs	r3, #40
 7432 02be FFF7FEFF 		bl	write_LCD
 831:.\LCD.c       ****     write_LCD(lcd,symbols[1],22,42,0,0x0000,'Y');
 7433              		.loc 1 831 0
 7434 02c2 274B     		ldr	r3, .L308+20
 7435 02c4 5B78     		ldrb	r3, [r3, #1]
 7436 02c6 DAB2     		uxtb	r2, r3
 7437 02c8 F979     		ldrb	r1, [r7, #7]	@ zero_extendqisi2
 7438 02ca 0023     		movs	r3, #0
ARM GAS  C:\Users\RECEPC~1\AppData\Local\Temp\ccAuxgaT.s 			page 150


 7439 02cc 0093     		str	r3, [sp]
 7440 02ce 0023     		movs	r3, #0
 7441 02d0 0193     		str	r3, [sp, #4]
 7442 02d2 5923     		movs	r3, #89
 7443 02d4 0293     		str	r3, [sp, #8]
 7444 02d6 0846     		mov	r0, r1
 7445 02d8 1146     		mov	r1, r2
 7446 02da 1622     		movs	r2, #22
 7447 02dc 2A23     		movs	r3, #42
 7448 02de FFF7FEFF 		bl	write_LCD
 832:.\LCD.c       ****     write_LCD(lcd,screen[0],22,44,0,0x0000,'Y');
 7449              		.loc 1 832 0
 7450 02e2 204B     		ldr	r3, .L308+24
 7451 02e4 1B78     		ldrb	r3, [r3]
 7452 02e6 DAB2     		uxtb	r2, r3
 7453 02e8 F979     		ldrb	r1, [r7, #7]	@ zero_extendqisi2
 7454 02ea 0023     		movs	r3, #0
 7455 02ec 0093     		str	r3, [sp]
 7456 02ee 0023     		movs	r3, #0
 7457 02f0 0193     		str	r3, [sp, #4]
 7458 02f2 5923     		movs	r3, #89
 7459 02f4 0293     		str	r3, [sp, #8]
 7460 02f6 0846     		mov	r0, r1
 7461 02f8 1146     		mov	r1, r2
 7462 02fa 1622     		movs	r2, #22
 7463 02fc 2C23     		movs	r3, #44
 7464 02fe FFF7FEFF 		bl	write_LCD
 833:.\LCD.c       ****     write_LCD(lcd,screen[1],22,46,0,0x0000,'Y');
 7465              		.loc 1 833 0
 7466 0302 184B     		ldr	r3, .L308+24
 7467 0304 5B78     		ldrb	r3, [r3, #1]
 7468 0306 DAB2     		uxtb	r2, r3
 7469 0308 F979     		ldrb	r1, [r7, #7]	@ zero_extendqisi2
 7470 030a 0023     		movs	r3, #0
 7471 030c 0093     		str	r3, [sp]
 7472 030e 0023     		movs	r3, #0
 7473 0310 0193     		str	r3, [sp, #4]
 7474 0312 5923     		movs	r3, #89
 7475 0314 0293     		str	r3, [sp, #8]
 7476 0316 0846     		mov	r0, r1
 7477 0318 1146     		mov	r1, r2
 7478 031a 1622     		movs	r2, #22
 7479 031c 2E23     		movs	r3, #46
 7480 031e FFF7FEFF 		bl	write_LCD
 834:.\LCD.c       ****     write_LCD(lcd,turn+48,22,48,0,0x0000,'Y');
 7481              		.loc 1 834 0
 7482 0322 114B     		ldr	r3, .L308+28
 7483 0324 1B78     		ldrb	r3, [r3]
 7484 0326 DBB2     		uxtb	r3, r3
 7485 0328 3033     		adds	r3, r3, #48
 7486 032a DAB2     		uxtb	r2, r3
 7487 032c F979     		ldrb	r1, [r7, #7]	@ zero_extendqisi2
 7488 032e 0023     		movs	r3, #0
 7489 0330 0093     		str	r3, [sp]
 7490 0332 0023     		movs	r3, #0
 7491 0334 0193     		str	r3, [sp, #4]
 7492 0336 5923     		movs	r3, #89
ARM GAS  C:\Users\RECEPC~1\AppData\Local\Temp\ccAuxgaT.s 			page 151


 7493 0338 0293     		str	r3, [sp, #8]
 7494 033a 0846     		mov	r0, r1
 7495 033c 1146     		mov	r1, r2
 7496 033e 1622     		movs	r2, #22
 7497 0340 3023     		movs	r3, #48
 7498 0342 FFF7FEFF 		bl	write_LCD
 835:.\LCD.c       ****     
 836:.\LCD.c       **** }
 7499              		.loc 1 836 0
 7500 0346 1437     		adds	r7, r7, #20
 7501              		.cfi_def_cfa_offset 12
 7502 0348 BD46     		mov	sp, r7
 7503              		.cfi_def_cfa_register 13
 7504              		@ sp needed
 7505 034a 90BD     		pop	{r4, r7, pc}
 7506              	.L309:
 7507              		.align	2
 7508              	.L308:
 7509 034c 00000000 		.word	digits
 7510 0350 00000000 		.word	decimalMoney
 7511 0354 00000000 		.word	decimalVolume
 7512 0358 00000000 		.word	ppux10
 7513 035c 00000000 		.word	productNumber
 7514 0360 00000000 		.word	symbols
 7515 0364 00000000 		.word	screen
 7516 0368 00000000 		.word	turn
 7517              		.cfi_endproc
 7518              	.LFE60:
 7519              		.size	show_info, .-show_info
 7520              		.section	.text.show_message,"ax",%progbits
 7521              		.align	2
 7522              		.global	show_message
 7523              		.thumb
 7524              		.thumb_func
 7525              		.type	show_message, %function
 7526              	show_message:
 7527              	.LFB61:
 837:.\LCD.c       **** 
 838:.\LCD.c       **** /*
 839:.\LCD.c       **** ***************************************************************************************************
 840:.\LCD.c       **** *                             void show_message(uint8 lcd,uint8 *msg)
 841:.\LCD.c       **** *
 842:.\LCD.c       **** * Description : 
 843:.\LCD.c       **** *               
 844:.\LCD.c       **** *
 845:.\LCD.c       **** * Argument(s) : none
 846:.\LCD.c       **** *
 847:.\LCD.c       **** * Return(s)   : none
 848:.\LCD.c       **** *
 849:.\LCD.c       **** * Caller(s)   :  
 850:.\LCD.c       **** *
 851:.\LCD.c       **** * Note(s)     : none.
 852:.\LCD.c       **** ***************************************************************************************************
 853:.\LCD.c       **** */
 854:.\LCD.c       **** 
 855:.\LCD.c       **** void show_message(uint8 lcd,uint8 *msg){
 7528              		.loc 1 855 0
ARM GAS  C:\Users\RECEPC~1\AppData\Local\Temp\ccAuxgaT.s 			page 152


 7529              		.cfi_startproc
 7530              		@ args = 0, pretend = 0, frame = 16
 7531              		@ frame_needed = 1, uses_anonymous_args = 0
 7532 0000 90B5     		push	{r4, r7, lr}
 7533              		.cfi_def_cfa_offset 12
 7534              		.cfi_offset 4, -12
 7535              		.cfi_offset 7, -8
 7536              		.cfi_offset 14, -4
 7537 0002 89B0     		sub	sp, sp, #36
 7538              		.cfi_def_cfa_offset 48
 7539 0004 04AF     		add	r7, sp, #16
 7540              		.cfi_def_cfa 7, 32
 7541 0006 0346     		mov	r3, r0
 7542 0008 3960     		str	r1, [r7]
 7543 000a FB71     		strb	r3, [r7, #7]
 856:.\LCD.c       ****     uint8 x;
 857:.\LCD.c       ****     for(x=0;x<20;x++){
 7544              		.loc 1 857 0
 7545 000c 0023     		movs	r3, #0
 7546 000e FB73     		strb	r3, [r7, #15]
 7547 0010 43E0     		b	.L311
 7548              	.L312:
 858:.\LCD.c       ****         write_LCD(lcd,msg[x],7,x+3,1,0x0000,'Y');
 7549              		.loc 1 858 0 discriminator 3
 7550 0012 FB7B     		ldrb	r3, [r7, #15]	@ zero_extendqisi2
 7551 0014 3A68     		ldr	r2, [r7]
 7552 0016 1344     		add	r3, r3, r2
 7553 0018 1A78     		ldrb	r2, [r3]	@ zero_extendqisi2
 7554 001a FB7B     		ldrb	r3, [r7, #15]	@ zero_extendqisi2
 7555 001c 9BB2     		uxth	r3, r3
 7556 001e 0333     		adds	r3, r3, #3
 7557 0020 9CB2     		uxth	r4, r3
 7558 0022 F979     		ldrb	r1, [r7, #7]	@ zero_extendqisi2
 7559 0024 0123     		movs	r3, #1
 7560 0026 0093     		str	r3, [sp]
 7561 0028 0023     		movs	r3, #0
 7562 002a 0193     		str	r3, [sp, #4]
 7563 002c 5923     		movs	r3, #89
 7564 002e 0293     		str	r3, [sp, #8]
 7565 0030 0846     		mov	r0, r1
 7566 0032 1146     		mov	r1, r2
 7567 0034 0722     		movs	r2, #7
 7568 0036 2346     		mov	r3, r4
 7569 0038 FFF7FEFF 		bl	write_LCD
 859:.\LCD.c       ****         write_LCD(lcd,msg[x+20],11,x+3,1,0x0000,'Y');
 7570              		.loc 1 859 0 discriminator 3
 7571 003c FB7B     		ldrb	r3, [r7, #15]	@ zero_extendqisi2
 7572 003e 1433     		adds	r3, r3, #20
 7573 0040 3A68     		ldr	r2, [r7]
 7574 0042 1344     		add	r3, r3, r2
 7575 0044 1A78     		ldrb	r2, [r3]	@ zero_extendqisi2
 7576 0046 FB7B     		ldrb	r3, [r7, #15]	@ zero_extendqisi2
 7577 0048 9BB2     		uxth	r3, r3
 7578 004a 0333     		adds	r3, r3, #3
 7579 004c 9CB2     		uxth	r4, r3
 7580 004e F979     		ldrb	r1, [r7, #7]	@ zero_extendqisi2
 7581 0050 0123     		movs	r3, #1
ARM GAS  C:\Users\RECEPC~1\AppData\Local\Temp\ccAuxgaT.s 			page 153


 7582 0052 0093     		str	r3, [sp]
 7583 0054 0023     		movs	r3, #0
 7584 0056 0193     		str	r3, [sp, #4]
 7585 0058 5923     		movs	r3, #89
 7586 005a 0293     		str	r3, [sp, #8]
 7587 005c 0846     		mov	r0, r1
 7588 005e 1146     		mov	r1, r2
 7589 0060 0B22     		movs	r2, #11
 7590 0062 2346     		mov	r3, r4
 7591 0064 FFF7FEFF 		bl	write_LCD
 860:.\LCD.c       ****         write_LCD(lcd,msg[x+40],15,x+3,1,0x0000,'Y');
 7592              		.loc 1 860 0 discriminator 3
 7593 0068 FB7B     		ldrb	r3, [r7, #15]	@ zero_extendqisi2
 7594 006a 2833     		adds	r3, r3, #40
 7595 006c 3A68     		ldr	r2, [r7]
 7596 006e 1344     		add	r3, r3, r2
 7597 0070 1A78     		ldrb	r2, [r3]	@ zero_extendqisi2
 7598 0072 FB7B     		ldrb	r3, [r7, #15]	@ zero_extendqisi2
 7599 0074 9BB2     		uxth	r3, r3
 7600 0076 0333     		adds	r3, r3, #3
 7601 0078 9CB2     		uxth	r4, r3
 7602 007a F979     		ldrb	r1, [r7, #7]	@ zero_extendqisi2
 7603 007c 0123     		movs	r3, #1
 7604 007e 0093     		str	r3, [sp]
 7605 0080 0023     		movs	r3, #0
 7606 0082 0193     		str	r3, [sp, #4]
 7607 0084 5923     		movs	r3, #89
 7608 0086 0293     		str	r3, [sp, #8]
 7609 0088 0846     		mov	r0, r1
 7610 008a 1146     		mov	r1, r2
 7611 008c 0F22     		movs	r2, #15
 7612 008e 2346     		mov	r3, r4
 7613 0090 FFF7FEFF 		bl	write_LCD
 857:.\LCD.c       ****         write_LCD(lcd,msg[x],7,x+3,1,0x0000,'Y');
 7614              		.loc 1 857 0 discriminator 3
 7615 0094 FB7B     		ldrb	r3, [r7, #15]	@ zero_extendqisi2
 7616 0096 0133     		adds	r3, r3, #1
 7617 0098 FB73     		strb	r3, [r7, #15]
 7618              	.L311:
 857:.\LCD.c       ****         write_LCD(lcd,msg[x],7,x+3,1,0x0000,'Y');
 7619              		.loc 1 857 0 is_stmt 0 discriminator 1
 7620 009a FB7B     		ldrb	r3, [r7, #15]	@ zero_extendqisi2
 7621 009c 132B     		cmp	r3, #19
 7622 009e B8D9     		bls	.L312
 861:.\LCD.c       ****     }
 862:.\LCD.c       **** }
 7623              		.loc 1 862 0 is_stmt 1
 7624 00a0 1437     		adds	r7, r7, #20
 7625              		.cfi_def_cfa_offset 12
 7626 00a2 BD46     		mov	sp, r7
 7627              		.cfi_def_cfa_register 13
 7628              		@ sp needed
 7629 00a4 90BD     		pop	{r4, r7, pc}
 7630              		.cfi_endproc
 7631              	.LFE61:
 7632              		.size	show_message, .-show_message
 7633 00a6 00BF     		.section	.text.show_market,"ax",%progbits
ARM GAS  C:\Users\RECEPC~1\AppData\Local\Temp\ccAuxgaT.s 			page 154


 7634              		.align	2
 7635              		.global	show_market
 7636              		.thumb
 7637              		.thumb_func
 7638              		.type	show_market, %function
 7639              	show_market:
 7640              	.LFB62:
 863:.\LCD.c       **** 
 864:.\LCD.c       **** /*
 865:.\LCD.c       **** ***************************************************************************************************
 866:.\LCD.c       **** *                             void show_market(uint8 lcd)
 867:.\LCD.c       **** *
 868:.\LCD.c       **** * Description : 
 869:.\LCD.c       **** *               
 870:.\LCD.c       **** *
 871:.\LCD.c       **** * Argument(s) : none
 872:.\LCD.c       **** *
 873:.\LCD.c       **** * Return(s)   : none
 874:.\LCD.c       **** *
 875:.\LCD.c       **** * Caller(s)   :  
 876:.\LCD.c       **** *
 877:.\LCD.c       **** * Note(s)     : none.
 878:.\LCD.c       **** ***************************************************************************************************
 879:.\LCD.c       **** */
 880:.\LCD.c       **** 
 881:.\LCD.c       **** void show_market(uint8 lcd){
 7641              		.loc 1 881 0
 7642              		.cfi_startproc
 7643              		@ args = 0, pretend = 0, frame = 16
 7644              		@ frame_needed = 1, uses_anonymous_args = 0
 7645 0000 90B5     		push	{r4, r7, lr}
 7646              		.cfi_def_cfa_offset 12
 7647              		.cfi_offset 4, -12
 7648              		.cfi_offset 7, -8
 7649              		.cfi_offset 14, -4
 7650 0002 89B0     		sub	sp, sp, #36
 7651              		.cfi_def_cfa_offset 48
 7652 0004 04AF     		add	r7, sp, #16
 7653              		.cfi_def_cfa 7, 32
 7654 0006 0346     		mov	r3, r0
 7655 0008 FB71     		strb	r3, [r7, #7]
 882:.\LCD.c       ****     uint8 x,y,flag;
 883:.\LCD.c       ****     if(lcd==1){
 7656              		.loc 1 883 0
 7657 000a FB79     		ldrb	r3, [r7, #7]	@ zero_extendqisi2
 7658 000c 012B     		cmp	r3, #1
 7659 000e 40F04881 		bne	.L314
 884:.\LCD.c       ****         for(y=0;y<=2;y++){    
 7660              		.loc 1 884 0
 7661 0012 0023     		movs	r3, #0
 7662 0014 BB73     		strb	r3, [r7, #14]
 7663 0016 2CE0     		b	.L315
 7664              	.L318:
 885:.\LCD.c       ****             for(x=1;x<=20;x++){
 7665              		.loc 1 885 0
 7666 0018 0123     		movs	r3, #1
 7667 001a FB73     		strb	r3, [r7, #15]
ARM GAS  C:\Users\RECEPC~1\AppData\Local\Temp\ccAuxgaT.s 			page 155


 7668 001c 23E0     		b	.L316
 7669              	.L317:
 886:.\LCD.c       ****                 write_LCD(lcd,bufferLCD1.productMarket[y][x],(y*8)+5,x+1,0,0x0000,'Y');
 7670              		.loc 1 886 0 discriminator 3
 7671 001e BA7B     		ldrb	r2, [r7, #14]	@ zero_extendqisi2
 7672 0020 F97B     		ldrb	r1, [r7, #15]	@ zero_extendqisi2
 7673 0022 A348     		ldr	r0, .L368
 7674 0024 1346     		mov	r3, r2
 7675 0026 9B00     		lsls	r3, r3, #2
 7676 0028 1344     		add	r3, r3, r2
 7677 002a 9A00     		lsls	r2, r3, #2
 7678 002c 1344     		add	r3, r3, r2
 7679 002e 0344     		add	r3, r3, r0
 7680 0030 0B44     		add	r3, r3, r1
 7681 0032 03F5E873 		add	r3, r3, #464
 7682 0036 D978     		ldrb	r1, [r3, #3]	@ zero_extendqisi2
 7683 0038 BB7B     		ldrb	r3, [r7, #14]	@ zero_extendqisi2
 7684 003a 9BB2     		uxth	r3, r3
 7685 003c DB00     		lsls	r3, r3, #3
 7686 003e 9BB2     		uxth	r3, r3
 7687 0040 0533     		adds	r3, r3, #5
 7688 0042 9AB2     		uxth	r2, r3
 7689 0044 FB7B     		ldrb	r3, [r7, #15]	@ zero_extendqisi2
 7690 0046 9BB2     		uxth	r3, r3
 7691 0048 0133     		adds	r3, r3, #1
 7692 004a 9CB2     		uxth	r4, r3
 7693 004c F879     		ldrb	r0, [r7, #7]	@ zero_extendqisi2
 7694 004e 0023     		movs	r3, #0
 7695 0050 0093     		str	r3, [sp]
 7696 0052 0023     		movs	r3, #0
 7697 0054 0193     		str	r3, [sp, #4]
 7698 0056 5923     		movs	r3, #89
 7699 0058 0293     		str	r3, [sp, #8]
 7700 005a 2346     		mov	r3, r4
 7701 005c FFF7FEFF 		bl	write_LCD
 885:.\LCD.c       ****             for(x=1;x<=20;x++){
 7702              		.loc 1 885 0 discriminator 3
 7703 0060 FB7B     		ldrb	r3, [r7, #15]	@ zero_extendqisi2
 7704 0062 0133     		adds	r3, r3, #1
 7705 0064 FB73     		strb	r3, [r7, #15]
 7706              	.L316:
 885:.\LCD.c       ****             for(x=1;x<=20;x++){
 7707              		.loc 1 885 0 is_stmt 0 discriminator 1
 7708 0066 FB7B     		ldrb	r3, [r7, #15]	@ zero_extendqisi2
 7709 0068 142B     		cmp	r3, #20
 7710 006a D8D9     		bls	.L317
 884:.\LCD.c       ****         for(y=0;y<=2;y++){    
 7711              		.loc 1 884 0 is_stmt 1 discriminator 2
 7712 006c BB7B     		ldrb	r3, [r7, #14]	@ zero_extendqisi2
 7713 006e 0133     		adds	r3, r3, #1
 7714 0070 BB73     		strb	r3, [r7, #14]
 7715              	.L315:
 884:.\LCD.c       ****         for(y=0;y<=2;y++){    
 7716              		.loc 1 884 0 is_stmt 0 discriminator 1
 7717 0072 BB7B     		ldrb	r3, [r7, #14]	@ zero_extendqisi2
 7718 0074 022B     		cmp	r3, #2
 7719 0076 CFD9     		bls	.L318
ARM GAS  C:\Users\RECEPC~1\AppData\Local\Temp\ccAuxgaT.s 			page 156


 887:.\LCD.c       ****             }
 888:.\LCD.c       ****         }
 889:.\LCD.c       ****         flag=0;
 7720              		.loc 1 889 0 is_stmt 1
 7721 0078 0023     		movs	r3, #0
 7722 007a 7B73     		strb	r3, [r7, #13]
 890:.\LCD.c       ****         for(y=0;y<=2;y++){
 7723              		.loc 1 890 0
 7724 007c 0023     		movs	r3, #0
 7725 007e BB73     		strb	r3, [r7, #14]
 7726 0080 3FE0     		b	.L319
 7727              	.L324:
 891:.\LCD.c       ****             for(x=1;x<=3;x++){
 7728              		.loc 1 891 0
 7729 0082 0123     		movs	r3, #1
 7730 0084 FB73     		strb	r3, [r7, #15]
 7731 0086 34E0     		b	.L320
 7732              	.L323:
 892:.\LCD.c       ****                 if(bufferLCD1.quantityMarket[y][x]=='0' && flag==0){
 7733              		.loc 1 892 0
 7734 0088 BA7B     		ldrb	r2, [r7, #14]	@ zero_extendqisi2
 7735 008a F97B     		ldrb	r1, [r7, #15]	@ zero_extendqisi2
 7736 008c 8848     		ldr	r0, .L368
 7737 008e 1346     		mov	r3, r2
 7738 0090 9B00     		lsls	r3, r3, #2
 7739 0092 1344     		add	r3, r3, r2
 7740 0094 0344     		add	r3, r3, r0
 7741 0096 0B44     		add	r3, r3, r1
 7742 0098 03F50673 		add	r3, r3, #536
 7743 009c 9B79     		ldrb	r3, [r3, #6]	@ zero_extendqisi2
 7744 009e 302B     		cmp	r3, #48
 7745 00a0 03D1     		bne	.L321
 7746              		.loc 1 892 0 is_stmt 0 discriminator 1
 7747 00a2 7B7B     		ldrb	r3, [r7, #13]	@ zero_extendqisi2
 7748 00a4 002B     		cmp	r3, #0
 7749 00a6 00D1     		bne	.L321
 7750              		.loc 1 892 0
 7751 00a8 20E0     		b	.L322
 7752              	.L321:
 893:.\LCD.c       ****                 }else{
 894:.\LCD.c       ****                     write_LCD(lcd,bufferLCD1.quantityMarket[y][x],(y*8)+5,x+25,0,0x0000,'Y');
 7753              		.loc 1 894 0 is_stmt 1
 7754 00aa BA7B     		ldrb	r2, [r7, #14]	@ zero_extendqisi2
 7755 00ac F97B     		ldrb	r1, [r7, #15]	@ zero_extendqisi2
 7756 00ae 8048     		ldr	r0, .L368
 7757 00b0 1346     		mov	r3, r2
 7758 00b2 9B00     		lsls	r3, r3, #2
 7759 00b4 1344     		add	r3, r3, r2
 7760 00b6 0344     		add	r3, r3, r0
 7761 00b8 0B44     		add	r3, r3, r1
 7762 00ba 03F50673 		add	r3, r3, #536
 7763 00be 9979     		ldrb	r1, [r3, #6]	@ zero_extendqisi2
 7764 00c0 BB7B     		ldrb	r3, [r7, #14]	@ zero_extendqisi2
 7765 00c2 9BB2     		uxth	r3, r3
 7766 00c4 DB00     		lsls	r3, r3, #3
 7767 00c6 9BB2     		uxth	r3, r3
 7768 00c8 0533     		adds	r3, r3, #5
ARM GAS  C:\Users\RECEPC~1\AppData\Local\Temp\ccAuxgaT.s 			page 157


 7769 00ca 9AB2     		uxth	r2, r3
 7770 00cc FB7B     		ldrb	r3, [r7, #15]	@ zero_extendqisi2
 7771 00ce 9BB2     		uxth	r3, r3
 7772 00d0 1933     		adds	r3, r3, #25
 7773 00d2 9CB2     		uxth	r4, r3
 7774 00d4 F879     		ldrb	r0, [r7, #7]	@ zero_extendqisi2
 7775 00d6 0023     		movs	r3, #0
 7776 00d8 0093     		str	r3, [sp]
 7777 00da 0023     		movs	r3, #0
 7778 00dc 0193     		str	r3, [sp, #4]
 7779 00de 5923     		movs	r3, #89
 7780 00e0 0293     		str	r3, [sp, #8]
 7781 00e2 2346     		mov	r3, r4
 7782 00e4 FFF7FEFF 		bl	write_LCD
 895:.\LCD.c       ****                     flag=1;
 7783              		.loc 1 895 0
 7784 00e8 0123     		movs	r3, #1
 7785 00ea 7B73     		strb	r3, [r7, #13]
 7786              	.L322:
 891:.\LCD.c       ****                 if(bufferLCD1.quantityMarket[y][x]=='0' && flag==0){
 7787              		.loc 1 891 0 discriminator 2
 7788 00ec FB7B     		ldrb	r3, [r7, #15]	@ zero_extendqisi2
 7789 00ee 0133     		adds	r3, r3, #1
 7790 00f0 FB73     		strb	r3, [r7, #15]
 7791              	.L320:
 891:.\LCD.c       ****                 if(bufferLCD1.quantityMarket[y][x]=='0' && flag==0){
 7792              		.loc 1 891 0 is_stmt 0 discriminator 1
 7793 00f2 FB7B     		ldrb	r3, [r7, #15]	@ zero_extendqisi2
 7794 00f4 032B     		cmp	r3, #3
 7795 00f6 C7D9     		bls	.L323
 896:.\LCD.c       ****                 }
 897:.\LCD.c       ****             }
 898:.\LCD.c       ****             flag=0;
 7796              		.loc 1 898 0 is_stmt 1 discriminator 2
 7797 00f8 0023     		movs	r3, #0
 7798 00fa 7B73     		strb	r3, [r7, #13]
 890:.\LCD.c       ****             for(x=1;x<=3;x++){
 7799              		.loc 1 890 0 discriminator 2
 7800 00fc BB7B     		ldrb	r3, [r7, #14]	@ zero_extendqisi2
 7801 00fe 0133     		adds	r3, r3, #1
 7802 0100 BB73     		strb	r3, [r7, #14]
 7803              	.L319:
 890:.\LCD.c       ****             for(x=1;x<=3;x++){
 7804              		.loc 1 890 0 is_stmt 0 discriminator 1
 7805 0102 BB7B     		ldrb	r3, [r7, #14]	@ zero_extendqisi2
 7806 0104 022B     		cmp	r3, #2
 7807 0106 BCD9     		bls	.L324
 899:.\LCD.c       ****         }
 900:.\LCD.c       ****         for(y=0;y<=2;y++){
 7808              		.loc 1 900 0 is_stmt 1
 7809 0108 0023     		movs	r3, #0
 7810 010a BB73     		strb	r3, [r7, #14]
 7811 010c 34E0     		b	.L325
 7812              	.L328:
 901:.\LCD.c       ****             multiplication_market(bufferLCD1.quantityMarket[y],bufferLCD1.priceUnitMarket[y]);
 7813              		.loc 1 901 0
 7814 010e BA7B     		ldrb	r2, [r7, #14]	@ zero_extendqisi2
ARM GAS  C:\Users\RECEPC~1\AppData\Local\Temp\ccAuxgaT.s 			page 158


 7815 0110 1346     		mov	r3, r2
 7816 0112 9B00     		lsls	r3, r3, #2
 7817 0114 1344     		add	r3, r3, r2
 7818 0116 03F50673 		add	r3, r3, #536
 7819 011a 654A     		ldr	r2, .L368
 7820 011c 1344     		add	r3, r3, r2
 7821 011e 991D     		adds	r1, r3, #6
 7822 0120 BA7B     		ldrb	r2, [r7, #14]	@ zero_extendqisi2
 7823 0122 1346     		mov	r3, r2
 7824 0124 9B00     		lsls	r3, r3, #2
 7825 0126 1344     		add	r3, r3, r2
 7826 0128 5B00     		lsls	r3, r3, #1
 7827 012a 03F51673 		add	r3, r3, #600
 7828 012e 604A     		ldr	r2, .L368
 7829 0130 1344     		add	r3, r3, r2
 7830 0132 0233     		adds	r3, r3, #2
 7831 0134 0846     		mov	r0, r1
 7832 0136 1946     		mov	r1, r3
 7833 0138 FFF7FEFF 		bl	multiplication_market
 902:.\LCD.c       ****             for(x=0;x<=temporal[0];x++){
 7834              		.loc 1 902 0
 7835 013c 0023     		movs	r3, #0
 7836 013e FB73     		strb	r3, [r7, #15]
 7837 0140 12E0     		b	.L326
 7838              	.L327:
 903:.\LCD.c       ****                 bufferLCD1.priceTotalMarket[y][x]=temporal[x];
 7839              		.loc 1 903 0 discriminator 3
 7840 0142 BA7B     		ldrb	r2, [r7, #14]	@ zero_extendqisi2
 7841 0144 F97B     		ldrb	r1, [r7, #15]	@ zero_extendqisi2
 7842 0146 FB7B     		ldrb	r3, [r7, #15]	@ zero_extendqisi2
 7843 0148 5A48     		ldr	r0, .L368+4
 7844 014a C45C     		ldrb	r4, [r0, r3]	@ zero_extendqisi2
 7845 014c 5848     		ldr	r0, .L368
 7846 014e 1346     		mov	r3, r2
 7847 0150 9B00     		lsls	r3, r3, #2
 7848 0152 1344     		add	r3, r3, r2
 7849 0154 5B00     		lsls	r3, r3, #1
 7850 0156 0344     		add	r3, r3, r0
 7851 0158 0B44     		add	r3, r3, r1
 7852 015a 03F50E73 		add	r3, r3, #568
 7853 015e 2246     		mov	r2, r4
 7854 0160 1A71     		strb	r2, [r3, #4]
 902:.\LCD.c       ****             for(x=0;x<=temporal[0];x++){
 7855              		.loc 1 902 0 discriminator 3
 7856 0162 FB7B     		ldrb	r3, [r7, #15]	@ zero_extendqisi2
 7857 0164 0133     		adds	r3, r3, #1
 7858 0166 FB73     		strb	r3, [r7, #15]
 7859              	.L326:
 902:.\LCD.c       ****             for(x=0;x<=temporal[0];x++){
 7860              		.loc 1 902 0 is_stmt 0 discriminator 1
 7861 0168 524B     		ldr	r3, .L368+4
 7862 016a 1B78     		ldrb	r3, [r3]	@ zero_extendqisi2
 7863 016c FA7B     		ldrb	r2, [r7, #15]	@ zero_extendqisi2
 7864 016e 9A42     		cmp	r2, r3
 7865 0170 E7D9     		bls	.L327
 900:.\LCD.c       ****             multiplication_market(bufferLCD1.quantityMarket[y],bufferLCD1.priceUnitMarket[y]);
 7866              		.loc 1 900 0 is_stmt 1 discriminator 2
ARM GAS  C:\Users\RECEPC~1\AppData\Local\Temp\ccAuxgaT.s 			page 159


 7867 0172 BB7B     		ldrb	r3, [r7, #14]	@ zero_extendqisi2
 7868 0174 0133     		adds	r3, r3, #1
 7869 0176 BB73     		strb	r3, [r7, #14]
 7870              	.L325:
 900:.\LCD.c       ****             multiplication_market(bufferLCD1.quantityMarket[y],bufferLCD1.priceUnitMarket[y]);
 7871              		.loc 1 900 0 is_stmt 0 discriminator 1
 7872 0178 BB7B     		ldrb	r3, [r7, #14]	@ zero_extendqisi2
 7873 017a 022B     		cmp	r3, #2
 7874 017c C7D9     		bls	.L328
 904:.\LCD.c       ****             }
 905:.\LCD.c       ****         }
 906:.\LCD.c       ****         flag=0;
 7875              		.loc 1 906 0 is_stmt 1
 7876 017e 0023     		movs	r3, #0
 7877 0180 7B73     		strb	r3, [r7, #13]
 907:.\LCD.c       ****         for(y=0;y<=2;y++){
 7878              		.loc 1 907 0
 7879 0182 0023     		movs	r3, #0
 7880 0184 BB73     		strb	r3, [r7, #14]
 7881 0186 41E0     		b	.L329
 7882              	.L334:
 908:.\LCD.c       ****             for(x=1;x<=8;x++){
 7883              		.loc 1 908 0
 7884 0188 0123     		movs	r3, #1
 7885 018a FB73     		strb	r3, [r7, #15]
 7886 018c 36E0     		b	.L330
 7887              	.L333:
 909:.\LCD.c       ****                 if(bufferLCD1.priceTotalMarket[y][x]=='0' && flag==0){
 7888              		.loc 1 909 0
 7889 018e BA7B     		ldrb	r2, [r7, #14]	@ zero_extendqisi2
 7890 0190 F97B     		ldrb	r1, [r7, #15]	@ zero_extendqisi2
 7891 0192 4748     		ldr	r0, .L368
 7892 0194 1346     		mov	r3, r2
 7893 0196 9B00     		lsls	r3, r3, #2
 7894 0198 1344     		add	r3, r3, r2
 7895 019a 5B00     		lsls	r3, r3, #1
 7896 019c 0344     		add	r3, r3, r0
 7897 019e 0B44     		add	r3, r3, r1
 7898 01a0 03F50E73 		add	r3, r3, #568
 7899 01a4 1B79     		ldrb	r3, [r3, #4]	@ zero_extendqisi2
 7900 01a6 302B     		cmp	r3, #48
 7901 01a8 03D1     		bne	.L331
 7902              		.loc 1 909 0 is_stmt 0 discriminator 1
 7903 01aa 7B7B     		ldrb	r3, [r7, #13]	@ zero_extendqisi2
 7904 01ac 002B     		cmp	r3, #0
 7905 01ae 00D1     		bne	.L331
 7906              		.loc 1 909 0
 7907 01b0 21E0     		b	.L332
 7908              	.L331:
 910:.\LCD.c       ****                 }else{
 911:.\LCD.c       ****                     write_LCD(lcd,bufferLCD1.priceTotalMarket[y][x],(y*8)+5,x+35,0,0x0000,'Y');
 7909              		.loc 1 911 0 is_stmt 1
 7910 01b2 BA7B     		ldrb	r2, [r7, #14]	@ zero_extendqisi2
 7911 01b4 F97B     		ldrb	r1, [r7, #15]	@ zero_extendqisi2
 7912 01b6 3E48     		ldr	r0, .L368
 7913 01b8 1346     		mov	r3, r2
 7914 01ba 9B00     		lsls	r3, r3, #2
ARM GAS  C:\Users\RECEPC~1\AppData\Local\Temp\ccAuxgaT.s 			page 160


 7915 01bc 1344     		add	r3, r3, r2
 7916 01be 5B00     		lsls	r3, r3, #1
 7917 01c0 0344     		add	r3, r3, r0
 7918 01c2 0B44     		add	r3, r3, r1
 7919 01c4 03F50E73 		add	r3, r3, #568
 7920 01c8 1979     		ldrb	r1, [r3, #4]	@ zero_extendqisi2
 7921 01ca BB7B     		ldrb	r3, [r7, #14]	@ zero_extendqisi2
 7922 01cc 9BB2     		uxth	r3, r3
 7923 01ce DB00     		lsls	r3, r3, #3
 7924 01d0 9BB2     		uxth	r3, r3
 7925 01d2 0533     		adds	r3, r3, #5
 7926 01d4 9AB2     		uxth	r2, r3
 7927 01d6 FB7B     		ldrb	r3, [r7, #15]	@ zero_extendqisi2
 7928 01d8 9BB2     		uxth	r3, r3
 7929 01da 2333     		adds	r3, r3, #35
 7930 01dc 9CB2     		uxth	r4, r3
 7931 01de F879     		ldrb	r0, [r7, #7]	@ zero_extendqisi2
 7932 01e0 0023     		movs	r3, #0
 7933 01e2 0093     		str	r3, [sp]
 7934 01e4 0023     		movs	r3, #0
 7935 01e6 0193     		str	r3, [sp, #4]
 7936 01e8 5923     		movs	r3, #89
 7937 01ea 0293     		str	r3, [sp, #8]
 7938 01ec 2346     		mov	r3, r4
 7939 01ee FFF7FEFF 		bl	write_LCD
 912:.\LCD.c       ****                     flag=1;
 7940              		.loc 1 912 0
 7941 01f2 0123     		movs	r3, #1
 7942 01f4 7B73     		strb	r3, [r7, #13]
 7943              	.L332:
 908:.\LCD.c       ****                 if(bufferLCD1.priceTotalMarket[y][x]=='0' && flag==0){
 7944              		.loc 1 908 0 discriminator 2
 7945 01f6 FB7B     		ldrb	r3, [r7, #15]	@ zero_extendqisi2
 7946 01f8 0133     		adds	r3, r3, #1
 7947 01fa FB73     		strb	r3, [r7, #15]
 7948              	.L330:
 908:.\LCD.c       ****                 if(bufferLCD1.priceTotalMarket[y][x]=='0' && flag==0){
 7949              		.loc 1 908 0 is_stmt 0 discriminator 1
 7950 01fc FB7B     		ldrb	r3, [r7, #15]	@ zero_extendqisi2
 7951 01fe 082B     		cmp	r3, #8
 7952 0200 C5D9     		bls	.L333
 913:.\LCD.c       ****                 }
 914:.\LCD.c       ****             }
 915:.\LCD.c       ****             flag=0;
 7953              		.loc 1 915 0 is_stmt 1 discriminator 2
 7954 0202 0023     		movs	r3, #0
 7955 0204 7B73     		strb	r3, [r7, #13]
 907:.\LCD.c       ****             for(x=1;x<=8;x++){
 7956              		.loc 1 907 0 discriminator 2
 7957 0206 BB7B     		ldrb	r3, [r7, #14]	@ zero_extendqisi2
 7958 0208 0133     		adds	r3, r3, #1
 7959 020a BB73     		strb	r3, [r7, #14]
 7960              	.L329:
 907:.\LCD.c       ****             for(x=1;x<=8;x++){
 7961              		.loc 1 907 0 is_stmt 0 discriminator 1
 7962 020c BB7B     		ldrb	r3, [r7, #14]	@ zero_extendqisi2
 7963 020e 022B     		cmp	r3, #2
ARM GAS  C:\Users\RECEPC~1\AppData\Local\Temp\ccAuxgaT.s 			page 161


 7964 0210 BAD9     		bls	.L334
 916:.\LCD.c       ****         }
 917:.\LCD.c       ****         addition_market(bufferLCD1.priceTotalMarket[0],bufferLCD1.priceTotalMarket[1],bufferLCD1.pr
 7965              		.loc 1 917 0 is_stmt 1
 7966 0212 2948     		ldr	r0, .L368+8
 7967 0214 2949     		ldr	r1, .L368+12
 7968 0216 2A4A     		ldr	r2, .L368+16
 7969 0218 FFF7FEFF 		bl	addition_market
 918:.\LCD.c       ****         for(x=0;x<=temporal[0];x++){
 7970              		.loc 1 918 0
 7971 021c 0023     		movs	r3, #0
 7972 021e FB73     		strb	r3, [r7, #15]
 7973 0220 0BE0     		b	.L335
 7974              	.L336:
 919:.\LCD.c       ****             bufferLCD1.totalMarket[x]=temporal[x];
 7975              		.loc 1 919 0 discriminator 3
 7976 0222 FB7B     		ldrb	r3, [r7, #15]	@ zero_extendqisi2
 7977 0224 FA7B     		ldrb	r2, [r7, #15]	@ zero_extendqisi2
 7978 0226 2349     		ldr	r1, .L368+4
 7979 0228 895C     		ldrb	r1, [r1, r2]	@ zero_extendqisi2
 7980 022a 214A     		ldr	r2, .L368
 7981 022c 1344     		add	r3, r3, r2
 7982 022e 0A46     		mov	r2, r1
 7983 0230 83F87822 		strb	r2, [r3, #632]
 918:.\LCD.c       ****         for(x=0;x<=temporal[0];x++){
 7984              		.loc 1 918 0 discriminator 3
 7985 0234 FB7B     		ldrb	r3, [r7, #15]	@ zero_extendqisi2
 7986 0236 0133     		adds	r3, r3, #1
 7987 0238 FB73     		strb	r3, [r7, #15]
 7988              	.L335:
 918:.\LCD.c       ****         for(x=0;x<=temporal[0];x++){
 7989              		.loc 1 918 0 is_stmt 0 discriminator 1
 7990 023a 1E4B     		ldr	r3, .L368+4
 7991 023c 1B78     		ldrb	r3, [r3]	@ zero_extendqisi2
 7992 023e FA7B     		ldrb	r2, [r7, #15]	@ zero_extendqisi2
 7993 0240 9A42     		cmp	r2, r3
 7994 0242 EED9     		bls	.L336
 920:.\LCD.c       ****         }
 921:.\LCD.c       ****         flag=0;
 7995              		.loc 1 921 0 is_stmt 1
 7996 0244 0023     		movs	r3, #0
 7997 0246 7B73     		strb	r3, [r7, #13]
 922:.\LCD.c       ****         for(x=1;x<=9;x++){
 7998              		.loc 1 922 0
 7999 0248 0123     		movs	r3, #1
 8000 024a FB73     		strb	r3, [r7, #15]
 8001 024c 25E0     		b	.L337
 8002              	.L340:
 923:.\LCD.c       ****             if(bufferLCD1.totalMarket[x]=='0' && flag==0){
 8003              		.loc 1 923 0
 8004 024e FB7B     		ldrb	r3, [r7, #15]	@ zero_extendqisi2
 8005 0250 174A     		ldr	r2, .L368
 8006 0252 1344     		add	r3, r3, r2
 8007 0254 93F87832 		ldrb	r3, [r3, #632]	@ zero_extendqisi2
 8008 0258 302B     		cmp	r3, #48
 8009 025a 03D1     		bne	.L338
 8010              		.loc 1 923 0 is_stmt 0 discriminator 1
ARM GAS  C:\Users\RECEPC~1\AppData\Local\Temp\ccAuxgaT.s 			page 162


 8011 025c 7B7B     		ldrb	r3, [r7, #13]	@ zero_extendqisi2
 8012 025e 002B     		cmp	r3, #0
 8013 0260 00D1     		bne	.L338
 8014              		.loc 1 923 0
 8015 0262 17E0     		b	.L339
 8016              	.L338:
 924:.\LCD.c       ****             }else{
 925:.\LCD.c       ****                 write_LCD(lcd,bufferLCD1.totalMarket[x],29,x+13,1,0x0000,'Y');
 8017              		.loc 1 925 0 is_stmt 1
 8018 0264 FB7B     		ldrb	r3, [r7, #15]	@ zero_extendqisi2
 8019 0266 124A     		ldr	r2, .L368
 8020 0268 1344     		add	r3, r3, r2
 8021 026a 93F87822 		ldrb	r2, [r3, #632]	@ zero_extendqisi2
 8022 026e FB7B     		ldrb	r3, [r7, #15]	@ zero_extendqisi2
 8023 0270 9BB2     		uxth	r3, r3
 8024 0272 0D33     		adds	r3, r3, #13
 8025 0274 9CB2     		uxth	r4, r3
 8026 0276 F979     		ldrb	r1, [r7, #7]	@ zero_extendqisi2
 8027 0278 0123     		movs	r3, #1
 8028 027a 0093     		str	r3, [sp]
 8029 027c 0023     		movs	r3, #0
 8030 027e 0193     		str	r3, [sp, #4]
 8031 0280 5923     		movs	r3, #89
 8032 0282 0293     		str	r3, [sp, #8]
 8033 0284 0846     		mov	r0, r1
 8034 0286 1146     		mov	r1, r2
 8035 0288 1D22     		movs	r2, #29
 8036 028a 2346     		mov	r3, r4
 8037 028c FFF7FEFF 		bl	write_LCD
 926:.\LCD.c       ****                 flag=1;
 8038              		.loc 1 926 0
 8039 0290 0123     		movs	r3, #1
 8040 0292 7B73     		strb	r3, [r7, #13]
 8041              	.L339:
 922:.\LCD.c       ****             if(bufferLCD1.totalMarket[x]=='0' && flag==0){
 8042              		.loc 1 922 0 discriminator 2
 8043 0294 FB7B     		ldrb	r3, [r7, #15]	@ zero_extendqisi2
 8044 0296 0133     		adds	r3, r3, #1
 8045 0298 FB73     		strb	r3, [r7, #15]
 8046              	.L337:
 922:.\LCD.c       ****             if(bufferLCD1.totalMarket[x]=='0' && flag==0){
 8047              		.loc 1 922 0 is_stmt 0 discriminator 1
 8048 029a FB7B     		ldrb	r3, [r7, #15]	@ zero_extendqisi2
 8049 029c 092B     		cmp	r3, #9
 8050 029e D6D9     		bls	.L340
 8051 02a0 51E1     		b	.L313
 8052              	.L314:
 927:.\LCD.c       ****             }
 928:.\LCD.c       ****         }
 929:.\LCD.c       ****     }else{
 930:.\LCD.c       ****         for(y=0;y<=2;y++){    
 8053              		.loc 1 930 0 is_stmt 1
 8054 02a2 0023     		movs	r3, #0
 8055 02a4 BB73     		strb	r3, [r7, #14]
 8056 02a6 37E0     		b	.L342
 8057              	.L345:
 931:.\LCD.c       ****             for(x=1;x<=20;x++){
ARM GAS  C:\Users\RECEPC~1\AppData\Local\Temp\ccAuxgaT.s 			page 163


 8058              		.loc 1 931 0
 8059 02a8 0123     		movs	r3, #1
 8060 02aa FB73     		strb	r3, [r7, #15]
 8061 02ac 2EE0     		b	.L343
 8062              	.L369:
 8063 02ae 00BF     		.align	2
 8064              	.L368:
 8065 02b0 00000000 		.word	bufferLCD1
 8066 02b4 00000000 		.word	temporal
 8067 02b8 3C020000 		.word	bufferLCD1+572
 8068 02bc 46020000 		.word	bufferLCD1+582
 8069 02c0 50020000 		.word	bufferLCD1+592
 8070              	.L344:
 932:.\LCD.c       ****                 write_LCD(lcd,bufferLCD2.productMarket[y][x],(y*8)+5,x+1,0,0x0000,'Y');
 8071              		.loc 1 932 0 discriminator 3
 8072 02c4 BA7B     		ldrb	r2, [r7, #14]	@ zero_extendqisi2
 8073 02c6 F97B     		ldrb	r1, [r7, #15]	@ zero_extendqisi2
 8074 02c8 A048     		ldr	r0, .L370
 8075 02ca 1346     		mov	r3, r2
 8076 02cc 9B00     		lsls	r3, r3, #2
 8077 02ce 1344     		add	r3, r3, r2
 8078 02d0 9A00     		lsls	r2, r3, #2
 8079 02d2 1344     		add	r3, r3, r2
 8080 02d4 0344     		add	r3, r3, r0
 8081 02d6 0B44     		add	r3, r3, r1
 8082 02d8 03F5E873 		add	r3, r3, #464
 8083 02dc D978     		ldrb	r1, [r3, #3]	@ zero_extendqisi2
 8084 02de BB7B     		ldrb	r3, [r7, #14]	@ zero_extendqisi2
 8085 02e0 9BB2     		uxth	r3, r3
 8086 02e2 DB00     		lsls	r3, r3, #3
 8087 02e4 9BB2     		uxth	r3, r3
 8088 02e6 0533     		adds	r3, r3, #5
 8089 02e8 9AB2     		uxth	r2, r3
 8090 02ea FB7B     		ldrb	r3, [r7, #15]	@ zero_extendqisi2
 8091 02ec 9BB2     		uxth	r3, r3
 8092 02ee 0133     		adds	r3, r3, #1
 8093 02f0 9CB2     		uxth	r4, r3
 8094 02f2 F879     		ldrb	r0, [r7, #7]	@ zero_extendqisi2
 8095 02f4 0023     		movs	r3, #0
 8096 02f6 0093     		str	r3, [sp]
 8097 02f8 0023     		movs	r3, #0
 8098 02fa 0193     		str	r3, [sp, #4]
 8099 02fc 5923     		movs	r3, #89
 8100 02fe 0293     		str	r3, [sp, #8]
 8101 0300 2346     		mov	r3, r4
 8102 0302 FFF7FEFF 		bl	write_LCD
 931:.\LCD.c       ****             for(x=1;x<=20;x++){
 8103              		.loc 1 931 0 discriminator 3
 8104 0306 FB7B     		ldrb	r3, [r7, #15]	@ zero_extendqisi2
 8105 0308 0133     		adds	r3, r3, #1
 8106 030a FB73     		strb	r3, [r7, #15]
 8107              	.L343:
 931:.\LCD.c       ****             for(x=1;x<=20;x++){
 8108              		.loc 1 931 0 is_stmt 0 discriminator 1
 8109 030c FB7B     		ldrb	r3, [r7, #15]	@ zero_extendqisi2
 8110 030e 142B     		cmp	r3, #20
 8111 0310 D8D9     		bls	.L344
ARM GAS  C:\Users\RECEPC~1\AppData\Local\Temp\ccAuxgaT.s 			page 164


 930:.\LCD.c       ****             for(x=1;x<=20;x++){
 8112              		.loc 1 930 0 is_stmt 1 discriminator 2
 8113 0312 BB7B     		ldrb	r3, [r7, #14]	@ zero_extendqisi2
 8114 0314 0133     		adds	r3, r3, #1
 8115 0316 BB73     		strb	r3, [r7, #14]
 8116              	.L342:
 930:.\LCD.c       ****             for(x=1;x<=20;x++){
 8117              		.loc 1 930 0 is_stmt 0 discriminator 1
 8118 0318 BB7B     		ldrb	r3, [r7, #14]	@ zero_extendqisi2
 8119 031a 022B     		cmp	r3, #2
 8120 031c C4D9     		bls	.L345
 933:.\LCD.c       ****             }
 934:.\LCD.c       ****         }
 935:.\LCD.c       ****         flag=0;
 8121              		.loc 1 935 0 is_stmt 1
 8122 031e 0023     		movs	r3, #0
 8123 0320 7B73     		strb	r3, [r7, #13]
 936:.\LCD.c       ****         for(y=0;y<=2;y++){
 8124              		.loc 1 936 0
 8125 0322 0023     		movs	r3, #0
 8126 0324 BB73     		strb	r3, [r7, #14]
 8127 0326 3FE0     		b	.L346
 8128              	.L351:
 937:.\LCD.c       ****             for(x=1;x<=3;x++){
 8129              		.loc 1 937 0
 8130 0328 0123     		movs	r3, #1
 8131 032a FB73     		strb	r3, [r7, #15]
 8132 032c 34E0     		b	.L347
 8133              	.L350:
 938:.\LCD.c       ****                 if(bufferLCD2.quantityMarket[y][x]=='0' && flag==0){
 8134              		.loc 1 938 0
 8135 032e BA7B     		ldrb	r2, [r7, #14]	@ zero_extendqisi2
 8136 0330 F97B     		ldrb	r1, [r7, #15]	@ zero_extendqisi2
 8137 0332 8648     		ldr	r0, .L370
 8138 0334 1346     		mov	r3, r2
 8139 0336 9B00     		lsls	r3, r3, #2
 8140 0338 1344     		add	r3, r3, r2
 8141 033a 0344     		add	r3, r3, r0
 8142 033c 0B44     		add	r3, r3, r1
 8143 033e 03F50673 		add	r3, r3, #536
 8144 0342 9B79     		ldrb	r3, [r3, #6]	@ zero_extendqisi2
 8145 0344 302B     		cmp	r3, #48
 8146 0346 03D1     		bne	.L348
 8147              		.loc 1 938 0 is_stmt 0 discriminator 1
 8148 0348 7B7B     		ldrb	r3, [r7, #13]	@ zero_extendqisi2
 8149 034a 002B     		cmp	r3, #0
 8150 034c 00D1     		bne	.L348
 8151              		.loc 1 938 0
 8152 034e 20E0     		b	.L349
 8153              	.L348:
 939:.\LCD.c       ****                 }else{
 940:.\LCD.c       ****                     write_LCD(lcd,bufferLCD2.quantityMarket[y][x],(y*8)+5,x+25,0,0x0000,'Y');
 8154              		.loc 1 940 0 is_stmt 1
 8155 0350 BA7B     		ldrb	r2, [r7, #14]	@ zero_extendqisi2
 8156 0352 F97B     		ldrb	r1, [r7, #15]	@ zero_extendqisi2
 8157 0354 7D48     		ldr	r0, .L370
 8158 0356 1346     		mov	r3, r2
ARM GAS  C:\Users\RECEPC~1\AppData\Local\Temp\ccAuxgaT.s 			page 165


 8159 0358 9B00     		lsls	r3, r3, #2
 8160 035a 1344     		add	r3, r3, r2
 8161 035c 0344     		add	r3, r3, r0
 8162 035e 0B44     		add	r3, r3, r1
 8163 0360 03F50673 		add	r3, r3, #536
 8164 0364 9979     		ldrb	r1, [r3, #6]	@ zero_extendqisi2
 8165 0366 BB7B     		ldrb	r3, [r7, #14]	@ zero_extendqisi2
 8166 0368 9BB2     		uxth	r3, r3
 8167 036a DB00     		lsls	r3, r3, #3
 8168 036c 9BB2     		uxth	r3, r3
 8169 036e 0533     		adds	r3, r3, #5
 8170 0370 9AB2     		uxth	r2, r3
 8171 0372 FB7B     		ldrb	r3, [r7, #15]	@ zero_extendqisi2
 8172 0374 9BB2     		uxth	r3, r3
 8173 0376 1933     		adds	r3, r3, #25
 8174 0378 9CB2     		uxth	r4, r3
 8175 037a F879     		ldrb	r0, [r7, #7]	@ zero_extendqisi2
 8176 037c 0023     		movs	r3, #0
 8177 037e 0093     		str	r3, [sp]
 8178 0380 0023     		movs	r3, #0
 8179 0382 0193     		str	r3, [sp, #4]
 8180 0384 5923     		movs	r3, #89
 8181 0386 0293     		str	r3, [sp, #8]
 8182 0388 2346     		mov	r3, r4
 8183 038a FFF7FEFF 		bl	write_LCD
 941:.\LCD.c       ****                     flag=1;
 8184              		.loc 1 941 0
 8185 038e 0123     		movs	r3, #1
 8186 0390 7B73     		strb	r3, [r7, #13]
 8187              	.L349:
 937:.\LCD.c       ****                 if(bufferLCD2.quantityMarket[y][x]=='0' && flag==0){
 8188              		.loc 1 937 0 discriminator 2
 8189 0392 FB7B     		ldrb	r3, [r7, #15]	@ zero_extendqisi2
 8190 0394 0133     		adds	r3, r3, #1
 8191 0396 FB73     		strb	r3, [r7, #15]
 8192              	.L347:
 937:.\LCD.c       ****                 if(bufferLCD2.quantityMarket[y][x]=='0' && flag==0){
 8193              		.loc 1 937 0 is_stmt 0 discriminator 1
 8194 0398 FB7B     		ldrb	r3, [r7, #15]	@ zero_extendqisi2
 8195 039a 032B     		cmp	r3, #3
 8196 039c C7D9     		bls	.L350
 942:.\LCD.c       ****                 }
 943:.\LCD.c       ****             }
 944:.\LCD.c       ****             flag=0;
 8197              		.loc 1 944 0 is_stmt 1 discriminator 2
 8198 039e 0023     		movs	r3, #0
 8199 03a0 7B73     		strb	r3, [r7, #13]
 936:.\LCD.c       ****             for(x=1;x<=3;x++){
 8200              		.loc 1 936 0 discriminator 2
 8201 03a2 BB7B     		ldrb	r3, [r7, #14]	@ zero_extendqisi2
 8202 03a4 0133     		adds	r3, r3, #1
 8203 03a6 BB73     		strb	r3, [r7, #14]
 8204              	.L346:
 936:.\LCD.c       ****             for(x=1;x<=3;x++){
 8205              		.loc 1 936 0 is_stmt 0 discriminator 1
 8206 03a8 BB7B     		ldrb	r3, [r7, #14]	@ zero_extendqisi2
 8207 03aa 022B     		cmp	r3, #2
ARM GAS  C:\Users\RECEPC~1\AppData\Local\Temp\ccAuxgaT.s 			page 166


 8208 03ac BCD9     		bls	.L351
 945:.\LCD.c       ****         }
 946:.\LCD.c       ****         for(y=0;y<=2;y++){
 8209              		.loc 1 946 0 is_stmt 1
 8210 03ae 0023     		movs	r3, #0
 8211 03b0 BB73     		strb	r3, [r7, #14]
 8212 03b2 34E0     		b	.L352
 8213              	.L355:
 947:.\LCD.c       ****             multiplication_market(bufferLCD2.quantityMarket[y],bufferLCD2.priceUnitMarket[y]);
 8214              		.loc 1 947 0
 8215 03b4 BA7B     		ldrb	r2, [r7, #14]	@ zero_extendqisi2
 8216 03b6 1346     		mov	r3, r2
 8217 03b8 9B00     		lsls	r3, r3, #2
 8218 03ba 1344     		add	r3, r3, r2
 8219 03bc 03F50673 		add	r3, r3, #536
 8220 03c0 624A     		ldr	r2, .L370
 8221 03c2 1344     		add	r3, r3, r2
 8222 03c4 991D     		adds	r1, r3, #6
 8223 03c6 BA7B     		ldrb	r2, [r7, #14]	@ zero_extendqisi2
 8224 03c8 1346     		mov	r3, r2
 8225 03ca 9B00     		lsls	r3, r3, #2
 8226 03cc 1344     		add	r3, r3, r2
 8227 03ce 5B00     		lsls	r3, r3, #1
 8228 03d0 03F51673 		add	r3, r3, #600
 8229 03d4 5D4A     		ldr	r2, .L370
 8230 03d6 1344     		add	r3, r3, r2
 8231 03d8 0233     		adds	r3, r3, #2
 8232 03da 0846     		mov	r0, r1
 8233 03dc 1946     		mov	r1, r3
 8234 03de FFF7FEFF 		bl	multiplication_market
 948:.\LCD.c       ****             for(x=0;x<=temporal[0];x++){
 8235              		.loc 1 948 0
 8236 03e2 0023     		movs	r3, #0
 8237 03e4 FB73     		strb	r3, [r7, #15]
 8238 03e6 12E0     		b	.L353
 8239              	.L354:
 949:.\LCD.c       ****                 bufferLCD2.priceTotalMarket[y][x]=temporal[x];
 8240              		.loc 1 949 0 discriminator 3
 8241 03e8 BA7B     		ldrb	r2, [r7, #14]	@ zero_extendqisi2
 8242 03ea F97B     		ldrb	r1, [r7, #15]	@ zero_extendqisi2
 8243 03ec FB7B     		ldrb	r3, [r7, #15]	@ zero_extendqisi2
 8244 03ee 5848     		ldr	r0, .L370+4
 8245 03f0 C45C     		ldrb	r4, [r0, r3]	@ zero_extendqisi2
 8246 03f2 5648     		ldr	r0, .L370
 8247 03f4 1346     		mov	r3, r2
 8248 03f6 9B00     		lsls	r3, r3, #2
 8249 03f8 1344     		add	r3, r3, r2
 8250 03fa 5B00     		lsls	r3, r3, #1
 8251 03fc 0344     		add	r3, r3, r0
 8252 03fe 0B44     		add	r3, r3, r1
 8253 0400 03F50E73 		add	r3, r3, #568
 8254 0404 2246     		mov	r2, r4
 8255 0406 1A71     		strb	r2, [r3, #4]
 948:.\LCD.c       ****             for(x=0;x<=temporal[0];x++){
 8256              		.loc 1 948 0 discriminator 3
 8257 0408 FB7B     		ldrb	r3, [r7, #15]	@ zero_extendqisi2
 8258 040a 0133     		adds	r3, r3, #1
ARM GAS  C:\Users\RECEPC~1\AppData\Local\Temp\ccAuxgaT.s 			page 167


 8259 040c FB73     		strb	r3, [r7, #15]
 8260              	.L353:
 948:.\LCD.c       ****             for(x=0;x<=temporal[0];x++){
 8261              		.loc 1 948 0 is_stmt 0 discriminator 1
 8262 040e 504B     		ldr	r3, .L370+4
 8263 0410 1B78     		ldrb	r3, [r3]	@ zero_extendqisi2
 8264 0412 FA7B     		ldrb	r2, [r7, #15]	@ zero_extendqisi2
 8265 0414 9A42     		cmp	r2, r3
 8266 0416 E7D9     		bls	.L354
 946:.\LCD.c       ****             multiplication_market(bufferLCD2.quantityMarket[y],bufferLCD2.priceUnitMarket[y]);
 8267              		.loc 1 946 0 is_stmt 1 discriminator 2
 8268 0418 BB7B     		ldrb	r3, [r7, #14]	@ zero_extendqisi2
 8269 041a 0133     		adds	r3, r3, #1
 8270 041c BB73     		strb	r3, [r7, #14]
 8271              	.L352:
 946:.\LCD.c       ****             multiplication_market(bufferLCD2.quantityMarket[y],bufferLCD2.priceUnitMarket[y]);
 8272              		.loc 1 946 0 is_stmt 0 discriminator 1
 8273 041e BB7B     		ldrb	r3, [r7, #14]	@ zero_extendqisi2
 8274 0420 022B     		cmp	r3, #2
 8275 0422 C7D9     		bls	.L355
 950:.\LCD.c       ****             }
 951:.\LCD.c       ****         }
 952:.\LCD.c       ****         flag=0;
 8276              		.loc 1 952 0 is_stmt 1
 8277 0424 0023     		movs	r3, #0
 8278 0426 7B73     		strb	r3, [r7, #13]
 953:.\LCD.c       ****         for(y=0;y<=2;y++){
 8279              		.loc 1 953 0
 8280 0428 0023     		movs	r3, #0
 8281 042a BB73     		strb	r3, [r7, #14]
 8282 042c 41E0     		b	.L356
 8283              	.L361:
 954:.\LCD.c       ****             for(x=1;x<=8;x++){
 8284              		.loc 1 954 0
 8285 042e 0123     		movs	r3, #1
 8286 0430 FB73     		strb	r3, [r7, #15]
 8287 0432 36E0     		b	.L357
 8288              	.L360:
 955:.\LCD.c       ****                 if(bufferLCD2.priceTotalMarket[y][x]=='0' && flag==0){
 8289              		.loc 1 955 0
 8290 0434 BA7B     		ldrb	r2, [r7, #14]	@ zero_extendqisi2
 8291 0436 F97B     		ldrb	r1, [r7, #15]	@ zero_extendqisi2
 8292 0438 4448     		ldr	r0, .L370
 8293 043a 1346     		mov	r3, r2
 8294 043c 9B00     		lsls	r3, r3, #2
 8295 043e 1344     		add	r3, r3, r2
 8296 0440 5B00     		lsls	r3, r3, #1
 8297 0442 0344     		add	r3, r3, r0
 8298 0444 0B44     		add	r3, r3, r1
 8299 0446 03F50E73 		add	r3, r3, #568
 8300 044a 1B79     		ldrb	r3, [r3, #4]	@ zero_extendqisi2
 8301 044c 302B     		cmp	r3, #48
 8302 044e 03D1     		bne	.L358
 8303              		.loc 1 955 0 is_stmt 0 discriminator 1
 8304 0450 7B7B     		ldrb	r3, [r7, #13]	@ zero_extendqisi2
 8305 0452 002B     		cmp	r3, #0
 8306 0454 00D1     		bne	.L358
ARM GAS  C:\Users\RECEPC~1\AppData\Local\Temp\ccAuxgaT.s 			page 168


 8307              		.loc 1 955 0
 8308 0456 21E0     		b	.L359
 8309              	.L358:
 956:.\LCD.c       ****                 }else{
 957:.\LCD.c       ****                     write_LCD(lcd,bufferLCD2.priceTotalMarket[y][x],(y*8)+5,x+35,0,0x0000,'Y');
 8310              		.loc 1 957 0 is_stmt 1
 8311 0458 BA7B     		ldrb	r2, [r7, #14]	@ zero_extendqisi2
 8312 045a F97B     		ldrb	r1, [r7, #15]	@ zero_extendqisi2
 8313 045c 3B48     		ldr	r0, .L370
 8314 045e 1346     		mov	r3, r2
 8315 0460 9B00     		lsls	r3, r3, #2
 8316 0462 1344     		add	r3, r3, r2
 8317 0464 5B00     		lsls	r3, r3, #1
 8318 0466 0344     		add	r3, r3, r0
 8319 0468 0B44     		add	r3, r3, r1
 8320 046a 03F50E73 		add	r3, r3, #568
 8321 046e 1979     		ldrb	r1, [r3, #4]	@ zero_extendqisi2
 8322 0470 BB7B     		ldrb	r3, [r7, #14]	@ zero_extendqisi2
 8323 0472 9BB2     		uxth	r3, r3
 8324 0474 DB00     		lsls	r3, r3, #3
 8325 0476 9BB2     		uxth	r3, r3
 8326 0478 0533     		adds	r3, r3, #5
 8327 047a 9AB2     		uxth	r2, r3
 8328 047c FB7B     		ldrb	r3, [r7, #15]	@ zero_extendqisi2
 8329 047e 9BB2     		uxth	r3, r3
 8330 0480 2333     		adds	r3, r3, #35
 8331 0482 9CB2     		uxth	r4, r3
 8332 0484 F879     		ldrb	r0, [r7, #7]	@ zero_extendqisi2
 8333 0486 0023     		movs	r3, #0
 8334 0488 0093     		str	r3, [sp]
 8335 048a 0023     		movs	r3, #0
 8336 048c 0193     		str	r3, [sp, #4]
 8337 048e 5923     		movs	r3, #89
 8338 0490 0293     		str	r3, [sp, #8]
 8339 0492 2346     		mov	r3, r4
 8340 0494 FFF7FEFF 		bl	write_LCD
 958:.\LCD.c       ****                     flag=1;
 8341              		.loc 1 958 0
 8342 0498 0123     		movs	r3, #1
 8343 049a 7B73     		strb	r3, [r7, #13]
 8344              	.L359:
 954:.\LCD.c       ****                 if(bufferLCD2.priceTotalMarket[y][x]=='0' && flag==0){
 8345              		.loc 1 954 0 discriminator 2
 8346 049c FB7B     		ldrb	r3, [r7, #15]	@ zero_extendqisi2
 8347 049e 0133     		adds	r3, r3, #1
 8348 04a0 FB73     		strb	r3, [r7, #15]
 8349              	.L357:
 954:.\LCD.c       ****                 if(bufferLCD2.priceTotalMarket[y][x]=='0' && flag==0){
 8350              		.loc 1 954 0 is_stmt 0 discriminator 1
 8351 04a2 FB7B     		ldrb	r3, [r7, #15]	@ zero_extendqisi2
 8352 04a4 082B     		cmp	r3, #8
 8353 04a6 C5D9     		bls	.L360
 959:.\LCD.c       ****                 }
 960:.\LCD.c       ****             }
 961:.\LCD.c       ****             flag=0;
 8354              		.loc 1 961 0 is_stmt 1 discriminator 2
 8355 04a8 0023     		movs	r3, #0
ARM GAS  C:\Users\RECEPC~1\AppData\Local\Temp\ccAuxgaT.s 			page 169


 8356 04aa 7B73     		strb	r3, [r7, #13]
 953:.\LCD.c       ****             for(x=1;x<=8;x++){
 8357              		.loc 1 953 0 discriminator 2
 8358 04ac BB7B     		ldrb	r3, [r7, #14]	@ zero_extendqisi2
 8359 04ae 0133     		adds	r3, r3, #1
 8360 04b0 BB73     		strb	r3, [r7, #14]
 8361              	.L356:
 953:.\LCD.c       ****             for(x=1;x<=8;x++){
 8362              		.loc 1 953 0 is_stmt 0 discriminator 1
 8363 04b2 BB7B     		ldrb	r3, [r7, #14]	@ zero_extendqisi2
 8364 04b4 022B     		cmp	r3, #2
 8365 04b6 BAD9     		bls	.L361
 962:.\LCD.c       ****         }
 963:.\LCD.c       ****         addition_market(bufferLCD2.priceTotalMarket[0],bufferLCD2.priceTotalMarket[1],bufferLCD2.pr
 8366              		.loc 1 963 0 is_stmt 1
 8367 04b8 2648     		ldr	r0, .L370+8
 8368 04ba 2749     		ldr	r1, .L370+12
 8369 04bc 274A     		ldr	r2, .L370+16
 8370 04be FFF7FEFF 		bl	addition_market
 964:.\LCD.c       ****         for(x=0;x<=temporal[0];x++){
 8371              		.loc 1 964 0
 8372 04c2 0023     		movs	r3, #0
 8373 04c4 FB73     		strb	r3, [r7, #15]
 8374 04c6 0BE0     		b	.L362
 8375              	.L363:
 965:.\LCD.c       ****             bufferLCD2.totalMarket[x]=temporal[x];
 8376              		.loc 1 965 0 discriminator 3
 8377 04c8 FB7B     		ldrb	r3, [r7, #15]	@ zero_extendqisi2
 8378 04ca FA7B     		ldrb	r2, [r7, #15]	@ zero_extendqisi2
 8379 04cc 2049     		ldr	r1, .L370+4
 8380 04ce 895C     		ldrb	r1, [r1, r2]	@ zero_extendqisi2
 8381 04d0 1E4A     		ldr	r2, .L370
 8382 04d2 1344     		add	r3, r3, r2
 8383 04d4 0A46     		mov	r2, r1
 8384 04d6 83F87822 		strb	r2, [r3, #632]
 964:.\LCD.c       ****         for(x=0;x<=temporal[0];x++){
 8385              		.loc 1 964 0 discriminator 3
 8386 04da FB7B     		ldrb	r3, [r7, #15]	@ zero_extendqisi2
 8387 04dc 0133     		adds	r3, r3, #1
 8388 04de FB73     		strb	r3, [r7, #15]
 8389              	.L362:
 964:.\LCD.c       ****         for(x=0;x<=temporal[0];x++){
 8390              		.loc 1 964 0 is_stmt 0 discriminator 1
 8391 04e0 1B4B     		ldr	r3, .L370+4
 8392 04e2 1B78     		ldrb	r3, [r3]	@ zero_extendqisi2
 8393 04e4 FA7B     		ldrb	r2, [r7, #15]	@ zero_extendqisi2
 8394 04e6 9A42     		cmp	r2, r3
 8395 04e8 EED9     		bls	.L363
 966:.\LCD.c       ****         }
 967:.\LCD.c       ****         flag=0;
 8396              		.loc 1 967 0 is_stmt 1
 8397 04ea 0023     		movs	r3, #0
 8398 04ec 7B73     		strb	r3, [r7, #13]
 968:.\LCD.c       ****         for(x=1;x<=9;x++){
 8399              		.loc 1 968 0
 8400 04ee 0123     		movs	r3, #1
 8401 04f0 FB73     		strb	r3, [r7, #15]
ARM GAS  C:\Users\RECEPC~1\AppData\Local\Temp\ccAuxgaT.s 			page 170


 8402 04f2 25E0     		b	.L364
 8403              	.L367:
 969:.\LCD.c       ****             if(bufferLCD2.totalMarket[x]=='0' && flag==0){
 8404              		.loc 1 969 0
 8405 04f4 FB7B     		ldrb	r3, [r7, #15]	@ zero_extendqisi2
 8406 04f6 154A     		ldr	r2, .L370
 8407 04f8 1344     		add	r3, r3, r2
 8408 04fa 93F87832 		ldrb	r3, [r3, #632]	@ zero_extendqisi2
 8409 04fe 302B     		cmp	r3, #48
 8410 0500 03D1     		bne	.L365
 8411              		.loc 1 969 0 is_stmt 0 discriminator 1
 8412 0502 7B7B     		ldrb	r3, [r7, #13]	@ zero_extendqisi2
 8413 0504 002B     		cmp	r3, #0
 8414 0506 00D1     		bne	.L365
 8415              		.loc 1 969 0
 8416 0508 17E0     		b	.L366
 8417              	.L365:
 970:.\LCD.c       ****             }else{
 971:.\LCD.c       ****                 write_LCD(lcd,bufferLCD2.totalMarket[x],29,x+13,1,0x0000,'Y');
 8418              		.loc 1 971 0 is_stmt 1
 8419 050a FB7B     		ldrb	r3, [r7, #15]	@ zero_extendqisi2
 8420 050c 0F4A     		ldr	r2, .L370
 8421 050e 1344     		add	r3, r3, r2
 8422 0510 93F87822 		ldrb	r2, [r3, #632]	@ zero_extendqisi2
 8423 0514 FB7B     		ldrb	r3, [r7, #15]	@ zero_extendqisi2
 8424 0516 9BB2     		uxth	r3, r3
 8425 0518 0D33     		adds	r3, r3, #13
 8426 051a 9CB2     		uxth	r4, r3
 8427 051c F979     		ldrb	r1, [r7, #7]	@ zero_extendqisi2
 8428 051e 0123     		movs	r3, #1
 8429 0520 0093     		str	r3, [sp]
 8430 0522 0023     		movs	r3, #0
 8431 0524 0193     		str	r3, [sp, #4]
 8432 0526 5923     		movs	r3, #89
 8433 0528 0293     		str	r3, [sp, #8]
 8434 052a 0846     		mov	r0, r1
 8435 052c 1146     		mov	r1, r2
 8436 052e 1D22     		movs	r2, #29
 8437 0530 2346     		mov	r3, r4
 8438 0532 FFF7FEFF 		bl	write_LCD
 972:.\LCD.c       ****                 flag=1;
 8439              		.loc 1 972 0
 8440 0536 0123     		movs	r3, #1
 8441 0538 7B73     		strb	r3, [r7, #13]
 8442              	.L366:
 968:.\LCD.c       ****             if(bufferLCD2.totalMarket[x]=='0' && flag==0){
 8443              		.loc 1 968 0 discriminator 2
 8444 053a FB7B     		ldrb	r3, [r7, #15]	@ zero_extendqisi2
 8445 053c 0133     		adds	r3, r3, #1
 8446 053e FB73     		strb	r3, [r7, #15]
 8447              	.L364:
 968:.\LCD.c       ****             if(bufferLCD2.totalMarket[x]=='0' && flag==0){
 8448              		.loc 1 968 0 is_stmt 0 discriminator 1
 8449 0540 FB7B     		ldrb	r3, [r7, #15]	@ zero_extendqisi2
 8450 0542 092B     		cmp	r3, #9
 8451 0544 D6D9     		bls	.L367
 8452              	.L313:
ARM GAS  C:\Users\RECEPC~1\AppData\Local\Temp\ccAuxgaT.s 			page 171


 973:.\LCD.c       ****             }
 974:.\LCD.c       ****         }
 975:.\LCD.c       ****     }
 976:.\LCD.c       **** }...
 8453              		.loc 1 976 0 is_stmt 1
 8454 0546 1437     		adds	r7, r7, #20
 8455              		.cfi_def_cfa_offset 12
 8456 0548 BD46     		mov	sp, r7
 8457              		.cfi_def_cfa_register 13
 8458              		@ sp needed
 8459 054a 90BD     		pop	{r4, r7, pc}
 8460              	.L371:
 8461              		.align	2
 8462              	.L370:
 8463 054c 00000000 		.word	bufferLCD2
 8464 0550 00000000 		.word	temporal
 8465 0554 3C020000 		.word	bufferLCD2+572
 8466 0558 46020000 		.word	bufferLCD2+582
 8467 055c 50020000 		.word	bufferLCD2+592
 8468              		.cfi_endproc
 8469              	.LFE62:
 8470              		.size	show_market, .-show_market
 8471              		.text
 8472              	.Letext0:
 8473              		.file 2 "c:\\program files (x86)\\cypress\\psoc creator\\3.3\\psoc creator\\import\\gnu\\arm\\4.9.
 8474              		.file 3 "c:\\program files (x86)\\cypress\\psoc creator\\3.3\\psoc creator\\import\\gnu\\arm\\4.9.
 8475              		.file 4 "Generated_Source\\PSoC5/cytypes.h"
 8476              		.file 5 ".\\variables.h"
 8477              		.file 6 "Generated_Source\\PSoC5/core_cm3.h"
 8478              		.section	.debug_info,"",%progbits
 8479              	.Ldebug_info0:
 8480 0000 B00A0000 		.4byte	0xab0
 8481 0004 0400     		.2byte	0x4
 8482 0006 00000000 		.4byte	.Ldebug_abbrev0
 8483 000a 04       		.byte	0x4
 8484 000b 01       		.uleb128 0x1
 8485 000c 79030000 		.4byte	.LASF138
 8486 0010 01       		.byte	0x1
 8487 0011 2F000000 		.4byte	.LASF139
 8488 0015 54000000 		.4byte	.LASF140
 8489 0019 00000000 		.4byte	.Ldebug_ranges0+0
 8490 001d 00000000 		.4byte	0
 8491 0021 00000000 		.4byte	.Ldebug_line0
 8492 0025 02       		.uleb128 0x2
 8493 0026 01       		.byte	0x1
 8494 0027 06       		.byte	0x6
 8495 0028 96060000 		.4byte	.LASF0
 8496 002c 03       		.uleb128 0x3
 8497 002d 4E050000 		.4byte	.LASF3
 8498 0031 02       		.byte	0x2
 8499 0032 1D       		.byte	0x1d
 8500 0033 37000000 		.4byte	0x37
 8501 0037 02       		.uleb128 0x2
 8502 0038 01       		.byte	0x1
 8503 0039 08       		.byte	0x8
 8504 003a 0B060000 		.4byte	.LASF1
 8505 003e 02       		.uleb128 0x2
ARM GAS  C:\Users\RECEPC~1\AppData\Local\Temp\ccAuxgaT.s 			page 172


 8506 003f 02       		.byte	0x2
 8507 0040 05       		.byte	0x5
 8508 0041 F9040000 		.4byte	.LASF2
 8509 0045 03       		.uleb128 0x3
 8510 0046 8A010000 		.4byte	.LASF4
 8511 004a 02       		.byte	0x2
 8512 004b 2B       		.byte	0x2b
 8513 004c 50000000 		.4byte	0x50
 8514 0050 02       		.uleb128 0x2
 8515 0051 02       		.byte	0x2
 8516 0052 07       		.byte	0x7
 8517 0053 A2060000 		.4byte	.LASF5
 8518 0057 03       		.uleb128 0x3
 8519 0058 E6000000 		.4byte	.LASF6
 8520 005c 02       		.byte	0x2
 8521 005d 3F       		.byte	0x3f
 8522 005e 62000000 		.4byte	0x62
 8523 0062 02       		.uleb128 0x2
 8524 0063 04       		.byte	0x4
 8525 0064 05       		.byte	0x5
 8526 0065 03050000 		.4byte	.LASF7
 8527 0069 02       		.uleb128 0x2
 8528 006a 04       		.byte	0x4
 8529 006b 07       		.byte	0x7
 8530 006c AD050000 		.4byte	.LASF8
 8531 0070 02       		.uleb128 0x2
 8532 0071 08       		.byte	0x8
 8533 0072 05       		.byte	0x5
 8534 0073 16030000 		.4byte	.LASF9
 8535 0077 02       		.uleb128 0x2
 8536 0078 08       		.byte	0x8
 8537 0079 07       		.byte	0x7
 8538 007a 5F010000 		.4byte	.LASF10
 8539 007e 04       		.uleb128 0x4
 8540 007f 04       		.byte	0x4
 8541 0080 05       		.byte	0x5
 8542 0081 696E7400 		.ascii	"int\000"
 8543 0085 02       		.uleb128 0x2
 8544 0086 04       		.byte	0x4
 8545 0087 07       		.byte	0x7
 8546 0088 C3000000 		.4byte	.LASF11
 8547 008c 03       		.uleb128 0x3
 8548 008d B4020000 		.4byte	.LASF12
 8549 0091 03       		.byte	0x3
 8550 0092 15       		.byte	0x15
 8551 0093 2C000000 		.4byte	0x2c
 8552 0097 03       		.uleb128 0x3
 8553 0098 68040000 		.4byte	.LASF13
 8554 009c 03       		.byte	0x3
 8555 009d 21       		.byte	0x21
 8556 009e 45000000 		.4byte	0x45
 8557 00a2 03       		.uleb128 0x3
 8558 00a3 DE050000 		.4byte	.LASF14
 8559 00a7 03       		.byte	0x3
 8560 00a8 2C       		.byte	0x2c
 8561 00a9 57000000 		.4byte	0x57
 8562 00ad 03       		.uleb128 0x3
ARM GAS  C:\Users\RECEPC~1\AppData\Local\Temp\ccAuxgaT.s 			page 173


 8563 00ae CB060000 		.4byte	.LASF15
 8564 00b2 04       		.byte	0x4
 8565 00b3 A1       		.byte	0xa1
 8566 00b4 37000000 		.4byte	0x37
 8567 00b8 03       		.uleb128 0x3
 8568 00b9 9B020000 		.4byte	.LASF16
 8569 00bd 04       		.byte	0x4
 8570 00be A2       		.byte	0xa2
 8571 00bf 50000000 		.4byte	0x50
 8572 00c3 03       		.uleb128 0x3
 8573 00c4 3E040000 		.4byte	.LASF17
 8574 00c8 04       		.byte	0x4
 8575 00c9 A3       		.byte	0xa3
 8576 00ca 69000000 		.4byte	0x69
 8577 00ce 02       		.uleb128 0x2
 8578 00cf 04       		.byte	0x4
 8579 00d0 04       		.byte	0x4
 8580 00d1 59010000 		.4byte	.LASF18
 8581 00d5 02       		.uleb128 0x2
 8582 00d6 08       		.byte	0x8
 8583 00d7 04       		.byte	0x4
 8584 00d8 D1060000 		.4byte	.LASF19
 8585 00dc 03       		.uleb128 0x3
 8586 00dd 78050000 		.4byte	.LASF20
 8587 00e1 04       		.byte	0x4
 8588 00e2 AD       		.byte	0xad
 8589 00e3 77000000 		.4byte	0x77
 8590 00e7 02       		.uleb128 0x2
 8591 00e8 01       		.byte	0x1
 8592 00e9 08       		.byte	0x8
 8593 00ea 70020000 		.4byte	.LASF21
 8594 00ee 05       		.uleb128 0x5
 8595 00ef AD000000 		.4byte	0xad
 8596 00f3 05       		.uleb128 0x5
 8597 00f4 C3000000 		.4byte	0xc3
 8598 00f8 02       		.uleb128 0x2
 8599 00f9 04       		.byte	0x4
 8600 00fa 07       		.byte	0x7
 8601 00fb A4050000 		.4byte	.LASF22
 8602 00ff 06       		.uleb128 0x6
 8603 0100 37000000 		.4byte	.LASF73
 8604 0104 9502     		.2byte	0x295
 8605 0106 05       		.byte	0x5
 8606 0107 56       		.byte	0x56
 8607 0108 7B030000 		.4byte	0x37b
 8608 010c 07       		.uleb128 0x7
 8609 010d 13010000 		.4byte	.LASF23
 8610 0111 05       		.byte	0x5
 8611 0112 57       		.byte	0x57
 8612 0113 AD000000 		.4byte	0xad
 8613 0117 00       		.byte	0
 8614 0118 07       		.uleb128 0x7
 8615 0119 CA010000 		.4byte	.LASF24
 8616 011d 05       		.byte	0x5
 8617 011e 58       		.byte	0x58
 8618 011f 7B030000 		.4byte	0x37b
 8619 0123 01       		.byte	0x1
ARM GAS  C:\Users\RECEPC~1\AppData\Local\Temp\ccAuxgaT.s 			page 174


 8620 0124 07       		.uleb128 0x7
 8621 0125 C8020000 		.4byte	.LASF25
 8622 0129 05       		.byte	0x5
 8623 012a 59       		.byte	0x59
 8624 012b 7B030000 		.4byte	0x37b
 8625 012f 1A       		.byte	0x1a
 8626 0130 07       		.uleb128 0x7
 8627 0131 D8060000 		.4byte	.LASF26
 8628 0135 05       		.byte	0x5
 8629 0136 5A       		.byte	0x5a
 8630 0137 AD000000 		.4byte	0xad
 8631 013b 33       		.byte	0x33
 8632 013c 07       		.uleb128 0x7
 8633 013d F9050000 		.4byte	.LASF27
 8634 0141 05       		.byte	0x5
 8635 0142 5B       		.byte	0x5b
 8636 0143 AD000000 		.4byte	0xad
 8637 0147 34       		.byte	0x34
 8638 0148 07       		.uleb128 0x7
 8639 0149 1F010000 		.4byte	.LASF28
 8640 014d 05       		.byte	0x5
 8641 014e 5C       		.byte	0x5c
 8642 014f 8B030000 		.4byte	0x38b
 8643 0153 35       		.byte	0x35
 8644 0154 07       		.uleb128 0x7
 8645 0155 AD040000 		.4byte	.LASF29
 8646 0159 05       		.byte	0x5
 8647 015a 5D       		.byte	0x5d
 8648 015b 8B030000 		.4byte	0x38b
 8649 015f 3F       		.byte	0x3f
 8650 0160 07       		.uleb128 0x7
 8651 0161 FE060000 		.4byte	.LASF30
 8652 0165 05       		.byte	0x5
 8653 0166 5E       		.byte	0x5e
 8654 0167 7B030000 		.4byte	0x37b
 8655 016b 49       		.byte	0x49
 8656 016c 07       		.uleb128 0x7
 8657 016d 77040000 		.4byte	.LASF31
 8658 0171 05       		.byte	0x5
 8659 0172 5F       		.byte	0x5f
 8660 0173 AD000000 		.4byte	0xad
 8661 0177 62       		.byte	0x62
 8662 0178 07       		.uleb128 0x7
 8663 0179 19060000 		.4byte	.LASF32
 8664 017d 05       		.byte	0x5
 8665 017e 60       		.byte	0x60
 8666 017f AD000000 		.4byte	0xad
 8667 0183 63       		.byte	0x63
 8668 0184 07       		.uleb128 0x7
 8669 0185 66020000 		.4byte	.LASF33
 8670 0189 05       		.byte	0x5
 8671 018a 61       		.byte	0x61
 8672 018b 9B030000 		.4byte	0x39b
 8673 018f 64       		.byte	0x64
 8674 0190 07       		.uleb128 0x7
 8675 0191 16040000 		.4byte	.LASF34
 8676 0195 05       		.byte	0x5
ARM GAS  C:\Users\RECEPC~1\AppData\Local\Temp\ccAuxgaT.s 			page 175


 8677 0196 62       		.byte	0x62
 8678 0197 AD000000 		.4byte	0xad
 8679 019b 79       		.byte	0x79
 8680 019c 07       		.uleb128 0x7
 8681 019d 5D020000 		.4byte	.LASF35
 8682 01a1 05       		.byte	0x5
 8683 01a2 63       		.byte	0x63
 8684 01a3 AD000000 		.4byte	0xad
 8685 01a7 7A       		.byte	0x7a
 8686 01a8 07       		.uleb128 0x7
 8687 01a9 B7000000 		.4byte	.LASF36
 8688 01ad 05       		.byte	0x5
 8689 01ae 64       		.byte	0x64
 8690 01af AD000000 		.4byte	0xad
 8691 01b3 7B       		.byte	0x7b
 8692 01b4 07       		.uleb128 0x7
 8693 01b5 59060000 		.4byte	.LASF37
 8694 01b9 05       		.byte	0x5
 8695 01ba 65       		.byte	0x65
 8696 01bb AB030000 		.4byte	0x3ab
 8697 01bf 7C       		.byte	0x7c
 8698 01c0 07       		.uleb128 0x7
 8699 01c1 2F020000 		.4byte	.LASF38
 8700 01c5 05       		.byte	0x5
 8701 01c6 66       		.byte	0x66
 8702 01c7 BB030000 		.4byte	0x3bb
 8703 01cb 7E       		.byte	0x7e
 8704 01cc 07       		.uleb128 0x7
 8705 01cd A1010000 		.4byte	.LASF39
 8706 01d1 05       		.byte	0x5
 8707 01d2 67       		.byte	0x67
 8708 01d3 AD000000 		.4byte	0xad
 8709 01d7 92       		.byte	0x92
 8710 01d8 07       		.uleb128 0x7
 8711 01d9 9B050000 		.4byte	.LASF40
 8712 01dd 05       		.byte	0x5
 8713 01de 68       		.byte	0x68
 8714 01df D1030000 		.4byte	0x3d1
 8715 01e3 93       		.byte	0x93
 8716 01e4 07       		.uleb128 0x7
 8717 01e5 33050000 		.4byte	.LASF41
 8718 01e9 05       		.byte	0x5
 8719 01ea 69       		.byte	0x69
 8720 01eb E1030000 		.4byte	0x3e1
 8721 01ef 98       		.byte	0x98
 8722 01f0 07       		.uleb128 0x7
 8723 01f1 BB010000 		.4byte	.LASF42
 8724 01f5 05       		.byte	0x5
 8725 01f6 6A       		.byte	0x6a
 8726 01f7 E1030000 		.4byte	0x3e1
 8727 01fb 9E       		.byte	0x9e
 8728 01fc 07       		.uleb128 0x7
 8729 01fd E1060000 		.4byte	.LASF43
 8730 0201 05       		.byte	0x5
 8731 0202 6B       		.byte	0x6b
 8732 0203 E1030000 		.4byte	0x3e1
 8733 0207 A4       		.byte	0xa4
ARM GAS  C:\Users\RECEPC~1\AppData\Local\Temp\ccAuxgaT.s 			page 176


 8734 0208 07       		.uleb128 0x7
 8735 0209 07040000 		.4byte	.LASF44
 8736 020d 05       		.byte	0x5
 8737 020e 6C       		.byte	0x6c
 8738 020f E1030000 		.4byte	0x3e1
 8739 0213 AA       		.byte	0xaa
 8740 0214 07       		.uleb128 0x7
 8741 0215 8F040000 		.4byte	.LASF45
 8742 0219 05       		.byte	0x5
 8743 021a 6D       		.byte	0x6d
 8744 021b F1030000 		.4byte	0x3f1
 8745 021f B0       		.byte	0xb0
 8746 0220 07       		.uleb128 0x7
 8747 0221 76010000 		.4byte	.LASF46
 8748 0225 05       		.byte	0x5
 8749 0226 6E       		.byte	0x6e
 8750 0227 F1030000 		.4byte	0x3f1
 8751 022b BE       		.byte	0xbe
 8752 022c 07       		.uleb128 0x7
 8753 022d 4C030000 		.4byte	.LASF47
 8754 0231 05       		.byte	0x5
 8755 0232 6F       		.byte	0x6f
 8756 0233 F1030000 		.4byte	0x3f1
 8757 0237 CC       		.byte	0xcc
 8758 0238 07       		.uleb128 0x7
 8759 0239 DD020000 		.4byte	.LASF48
 8760 023d 05       		.byte	0x5
 8761 023e 70       		.byte	0x70
 8762 023f F1030000 		.4byte	0x3f1
 8763 0243 DA       		.byte	0xda
 8764 0244 07       		.uleb128 0x7
 8765 0245 67050000 		.4byte	.LASF49
 8766 0249 05       		.byte	0x5
 8767 024a 71       		.byte	0x71
 8768 024b F1030000 		.4byte	0x3f1
 8769 024f E8       		.byte	0xe8
 8770 0250 07       		.uleb128 0x7
 8771 0251 5A040000 		.4byte	.LASF50
 8772 0255 05       		.byte	0x5
 8773 0256 72       		.byte	0x72
 8774 0257 F1030000 		.4byte	0x3f1
 8775 025b F6       		.byte	0xf6
 8776 025c 08       		.uleb128 0x8
 8777 025d E0040000 		.4byte	.LASF51
 8778 0261 05       		.byte	0x5
 8779 0262 73       		.byte	0x73
 8780 0263 01040000 		.4byte	0x401
 8781 0267 0401     		.2byte	0x104
 8782 0269 08       		.uleb128 0x8
 8783 026a E9010000 		.4byte	.LASF52
 8784 026e 05       		.byte	0x5
 8785 026f 74       		.byte	0x74
 8786 0270 01040000 		.4byte	0x401
 8787 0274 0F01     		.2byte	0x10f
 8788 0276 08       		.uleb128 0x8
 8789 0277 40020000 		.4byte	.LASF53
 8790 027b 05       		.byte	0x5
ARM GAS  C:\Users\RECEPC~1\AppData\Local\Temp\ccAuxgaT.s 			page 177


 8791 027c 75       		.byte	0x75
 8792 027d 01040000 		.4byte	0x401
 8793 0281 1A01     		.2byte	0x11a
 8794 0283 08       		.uleb128 0x8
 8795 0284 22040000 		.4byte	.LASF54
 8796 0288 05       		.byte	0x5
 8797 0289 76       		.byte	0x76
 8798 028a AD000000 		.4byte	0xad
 8799 028e 2501     		.2byte	0x125
 8800 0290 08       		.uleb128 0x8
 8801 0291 BC020000 		.4byte	.LASF55
 8802 0295 05       		.byte	0x5
 8803 0296 77       		.byte	0x77
 8804 0297 AD000000 		.4byte	0xad
 8805 029b 2601     		.2byte	0x126
 8806 029d 08       		.uleb128 0x8
 8807 029e F0000000 		.4byte	.LASF56
 8808 02a2 05       		.byte	0x5
 8809 02a3 78       		.byte	0x78
 8810 02a4 AD000000 		.4byte	0xad
 8811 02a8 2701     		.2byte	0x127
 8812 02aa 08       		.uleb128 0x8
 8813 02ab 27050000 		.4byte	.LASF57
 8814 02af 05       		.byte	0x5
 8815 02b0 79       		.byte	0x79
 8816 02b1 AD000000 		.4byte	0xad
 8817 02b5 2801     		.2byte	0x128
 8818 02b7 08       		.uleb128 0x8
 8819 02b8 27000000 		.4byte	.LASF58
 8820 02bc 05       		.byte	0x5
 8821 02bd 7A       		.byte	0x7a
 8822 02be 11040000 		.4byte	0x411
 8823 02c2 2901     		.2byte	0x129
 8824 02c4 08       		.uleb128 0x8
 8825 02c5 ED020000 		.4byte	.LASF59
 8826 02c9 05       		.byte	0x5
 8827 02ca 7B       		.byte	0x7b
 8828 02cb 8B030000 		.4byte	0x38b
 8829 02cf 6A01     		.2byte	0x16a
 8830 02d1 08       		.uleb128 0x8
 8831 02d2 4D010000 		.4byte	.LASF60
 8832 02d6 05       		.byte	0x5
 8833 02d7 7C       		.byte	0x7c
 8834 02d8 8B030000 		.4byte	0x38b
 8835 02dc 7401     		.2byte	0x174
 8836 02de 08       		.uleb128 0x8
 8837 02df D4020000 		.4byte	.LASF61
 8838 02e3 05       		.byte	0x5
 8839 02e4 7D       		.byte	0x7d
 8840 02e5 8B030000 		.4byte	0x38b
 8841 02e9 7E01     		.2byte	0x17e
 8842 02eb 08       		.uleb128 0x8
 8843 02ec 15020000 		.4byte	.LASF62
 8844 02f0 05       		.byte	0x5
 8845 02f1 7E       		.byte	0x7e
 8846 02f2 21040000 		.4byte	0x421
 8847 02f6 8801     		.2byte	0x188
ARM GAS  C:\Users\RECEPC~1\AppData\Local\Temp\ccAuxgaT.s 			page 178


 8848 02f8 08       		.uleb128 0x8
 8849 02f9 D8000000 		.4byte	.LASF63
 8850 02fd 05       		.byte	0x5
 8851 02fe 7F       		.byte	0x7f
 8852 02ff 21040000 		.4byte	0x421
 8853 0303 D301     		.2byte	0x1d3
 8854 0305 08       		.uleb128 0x8
 8855 0306 2C010000 		.4byte	.LASF64
 8856 030a 05       		.byte	0x5
 8857 030b 80       		.byte	0x80
 8858 030c 37040000 		.4byte	0x437
 8859 0310 1E02     		.2byte	0x21e
 8860 0312 08       		.uleb128 0x8
 8861 0313 E6050000 		.4byte	.LASF65
 8862 0317 05       		.byte	0x5
 8863 0318 81       		.byte	0x81
 8864 0319 37040000 		.4byte	0x437
 8865 031d 2D02     		.2byte	0x22d
 8866 031f 08       		.uleb128 0x8
 8867 0320 2B060000 		.4byte	.LASF66
 8868 0324 05       		.byte	0x5
 8869 0325 82       		.byte	0x82
 8870 0326 4D040000 		.4byte	0x44d
 8871 032a 3C02     		.2byte	0x23c
 8872 032c 08       		.uleb128 0x8
 8873 032d 6E060000 		.4byte	.LASF67
 8874 0331 05       		.byte	0x5
 8875 0332 83       		.byte	0x83
 8876 0333 4D040000 		.4byte	0x44d
 8877 0337 5A02     		.2byte	0x25a
 8878 0339 08       		.uleb128 0x8
 8879 033a 6D030000 		.4byte	.LASF68
 8880 033e 05       		.byte	0x5
 8881 033f 84       		.byte	0x84
 8882 0340 8B030000 		.4byte	0x38b
 8883 0344 7802     		.2byte	0x278
 8884 0346 08       		.uleb128 0x8
 8885 0347 CC050000 		.4byte	.LASF69
 8886 034b 05       		.byte	0x5
 8887 034c 85       		.byte	0x85
 8888 034d AD000000 		.4byte	0xad
 8889 0351 8202     		.2byte	0x282
 8890 0353 08       		.uleb128 0x8
 8891 0354 EC040000 		.4byte	.LASF70
 8892 0358 05       		.byte	0x5
 8893 0359 86       		.byte	0x86
 8894 035a 63040000 		.4byte	0x463
 8895 035e 8302     		.2byte	0x283
 8896 0360 08       		.uleb128 0x8
 8897 0361 F8020000 		.4byte	.LASF71
 8898 0365 05       		.byte	0x5
 8899 0366 87       		.byte	0x87
 8900 0367 AB030000 		.4byte	0x3ab
 8901 036b 9202     		.2byte	0x292
 8902 036d 08       		.uleb128 0x8
 8903 036e F5010000 		.4byte	.LASF72
 8904 0372 05       		.byte	0x5
ARM GAS  C:\Users\RECEPC~1\AppData\Local\Temp\ccAuxgaT.s 			page 179


 8905 0373 88       		.byte	0x88
 8906 0374 AD000000 		.4byte	0xad
 8907 0378 9402     		.2byte	0x294
 8908 037a 00       		.byte	0
 8909 037b 09       		.uleb128 0x9
 8910 037c AD000000 		.4byte	0xad
 8911 0380 8B030000 		.4byte	0x38b
 8912 0384 0A       		.uleb128 0xa
 8913 0385 F8000000 		.4byte	0xf8
 8914 0389 18       		.byte	0x18
 8915 038a 00       		.byte	0
 8916 038b 09       		.uleb128 0x9
 8917 038c AD000000 		.4byte	0xad
 8918 0390 9B030000 		.4byte	0x39b
 8919 0394 0A       		.uleb128 0xa
 8920 0395 F8000000 		.4byte	0xf8
 8921 0399 09       		.byte	0x9
 8922 039a 00       		.byte	0
 8923 039b 09       		.uleb128 0x9
 8924 039c AD000000 		.4byte	0xad
 8925 03a0 AB030000 		.4byte	0x3ab
 8926 03a4 0A       		.uleb128 0xa
 8927 03a5 F8000000 		.4byte	0xf8
 8928 03a9 14       		.byte	0x14
 8929 03aa 00       		.byte	0
 8930 03ab 09       		.uleb128 0x9
 8931 03ac AD000000 		.4byte	0xad
 8932 03b0 BB030000 		.4byte	0x3bb
 8933 03b4 0A       		.uleb128 0xa
 8934 03b5 F8000000 		.4byte	0xf8
 8935 03b9 01       		.byte	0x1
 8936 03ba 00       		.byte	0
 8937 03bb 09       		.uleb128 0x9
 8938 03bc AD000000 		.4byte	0xad
 8939 03c0 D1030000 		.4byte	0x3d1
 8940 03c4 0A       		.uleb128 0xa
 8941 03c5 F8000000 		.4byte	0xf8
 8942 03c9 01       		.byte	0x1
 8943 03ca 0A       		.uleb128 0xa
 8944 03cb F8000000 		.4byte	0xf8
 8945 03cf 09       		.byte	0x9
 8946 03d0 00       		.byte	0
 8947 03d1 09       		.uleb128 0x9
 8948 03d2 AD000000 		.4byte	0xad
 8949 03d6 E1030000 		.4byte	0x3e1
 8950 03da 0A       		.uleb128 0xa
 8951 03db F8000000 		.4byte	0xf8
 8952 03df 04       		.byte	0x4
 8953 03e0 00       		.byte	0
 8954 03e1 09       		.uleb128 0x9
 8955 03e2 AD000000 		.4byte	0xad
 8956 03e6 F1030000 		.4byte	0x3f1
 8957 03ea 0A       		.uleb128 0xa
 8958 03eb F8000000 		.4byte	0xf8
 8959 03ef 05       		.byte	0x5
 8960 03f0 00       		.byte	0
 8961 03f1 09       		.uleb128 0x9
ARM GAS  C:\Users\RECEPC~1\AppData\Local\Temp\ccAuxgaT.s 			page 180


 8962 03f2 AD000000 		.4byte	0xad
 8963 03f6 01040000 		.4byte	0x401
 8964 03fa 0A       		.uleb128 0xa
 8965 03fb F8000000 		.4byte	0xf8
 8966 03ff 0D       		.byte	0xd
 8967 0400 00       		.byte	0
 8968 0401 09       		.uleb128 0x9
 8969 0402 AD000000 		.4byte	0xad
 8970 0406 11040000 		.4byte	0x411
 8971 040a 0A       		.uleb128 0xa
 8972 040b F8000000 		.4byte	0xf8
 8973 040f 0A       		.byte	0xa
 8974 0410 00       		.byte	0
 8975 0411 09       		.uleb128 0x9
 8976 0412 AD000000 		.4byte	0xad
 8977 0416 21040000 		.4byte	0x421
 8978 041a 0A       		.uleb128 0xa
 8979 041b F8000000 		.4byte	0xf8
 8980 041f 40       		.byte	0x40
 8981 0420 00       		.byte	0
 8982 0421 09       		.uleb128 0x9
 8983 0422 AD000000 		.4byte	0xad
 8984 0426 37040000 		.4byte	0x437
 8985 042a 0A       		.uleb128 0xa
 8986 042b F8000000 		.4byte	0xf8
 8987 042f 02       		.byte	0x2
 8988 0430 0A       		.uleb128 0xa
 8989 0431 F8000000 		.4byte	0xf8
 8990 0435 18       		.byte	0x18
 8991 0436 00       		.byte	0
 8992 0437 09       		.uleb128 0x9
 8993 0438 AD000000 		.4byte	0xad
 8994 043c 4D040000 		.4byte	0x44d
 8995 0440 0A       		.uleb128 0xa
 8996 0441 F8000000 		.4byte	0xf8
 8997 0445 02       		.byte	0x2
 8998 0446 0A       		.uleb128 0xa
 8999 0447 F8000000 		.4byte	0xf8
 9000 044b 04       		.byte	0x4
 9001 044c 00       		.byte	0
 9002 044d 09       		.uleb128 0x9
 9003 044e AD000000 		.4byte	0xad
 9004 0452 63040000 		.4byte	0x463
 9005 0456 0A       		.uleb128 0xa
 9006 0457 F8000000 		.4byte	0xf8
 9007 045b 02       		.byte	0x2
 9008 045c 0A       		.uleb128 0xa
 9009 045d F8000000 		.4byte	0xf8
 9010 0461 09       		.byte	0x9
 9011 0462 00       		.byte	0
 9012 0463 09       		.uleb128 0x9
 9013 0464 AD000000 		.4byte	0xad
 9014 0468 73040000 		.4byte	0x473
 9015 046c 0A       		.uleb128 0xa
 9016 046d F8000000 		.4byte	0xf8
 9017 0471 0E       		.byte	0xe
 9018 0472 00       		.byte	0
ARM GAS  C:\Users\RECEPC~1\AppData\Local\Temp\ccAuxgaT.s 			page 181


 9019 0473 06       		.uleb128 0x6
 9020 0474 11070000 		.4byte	.LASF74
 9021 0478 0001     		.2byte	0x100
 9022 047a 05       		.byte	0x5
 9023 047b 96       		.byte	0x96
 9024 047c D5040000 		.4byte	0x4d5
 9025 0480 0B       		.uleb128 0xb
 9026 0481 64697200 		.ascii	"dir\000"
 9027 0485 05       		.byte	0x5
 9028 0486 97       		.byte	0x97
 9029 0487 AD000000 		.4byte	0xad
 9030 048b 00       		.byte	0
 9031 048c 07       		.uleb128 0x7
 9032 048d 22020000 		.4byte	.LASF75
 9033 0491 05       		.byte	0x5
 9034 0492 98       		.byte	0x98
 9035 0493 D5040000 		.4byte	0x4d5
 9036 0497 01       		.byte	0x1
 9037 0498 07       		.uleb128 0x7
 9038 0499 F0060000 		.4byte	.LASF76
 9039 049d 05       		.byte	0x5
 9040 049e 99       		.byte	0x99
 9041 049f F1040000 		.4byte	0x4f1
 9042 04a3 B5       		.byte	0xb5
 9043 04a4 07       		.uleb128 0x7
 9044 04a5 0C030000 		.4byte	.LASF77
 9045 04a9 05       		.byte	0x5
 9046 04aa 9A       		.byte	0x9a
 9047 04ab F1030000 		.4byte	0x3f1
 9048 04af D5       		.byte	0xd5
 9049 04b0 07       		.uleb128 0x7
 9050 04b1 8B060000 		.4byte	.LASF78
 9051 04b5 05       		.byte	0x5
 9052 04b6 9B       		.byte	0x9b
 9053 04b7 F1030000 		.4byte	0x3f1
 9054 04bb E3       		.byte	0xe3
 9055 04bc 07       		.uleb128 0x7
 9056 04bd 24030000 		.4byte	.LASF79
 9057 04c1 05       		.byte	0x5
 9058 04c2 9C       		.byte	0x9c
 9059 04c3 F1030000 		.4byte	0x3f1
 9060 04c7 F1       		.byte	0xf1
 9061 04c8 07       		.uleb128 0x7
 9062 04c9 BF060000 		.4byte	.LASF80
 9063 04cd 05       		.byte	0x5
 9064 04ce 9D       		.byte	0x9d
 9065 04cf AD000000 		.4byte	0xad
 9066 04d3 FF       		.byte	0xff
 9067 04d4 00       		.byte	0
 9068 04d5 09       		.uleb128 0x9
 9069 04d6 AD000000 		.4byte	0xad
 9070 04da F1040000 		.4byte	0x4f1
 9071 04de 0A       		.uleb128 0xa
 9072 04df F8000000 		.4byte	0xf8
 9073 04e3 03       		.byte	0x3
 9074 04e4 0A       		.uleb128 0xa
 9075 04e5 F8000000 		.4byte	0xf8
ARM GAS  C:\Users\RECEPC~1\AppData\Local\Temp\ccAuxgaT.s 			page 182


 9076 04e9 02       		.byte	0x2
 9077 04ea 0A       		.uleb128 0xa
 9078 04eb F8000000 		.4byte	0xf8
 9079 04ef 0E       		.byte	0xe
 9080 04f0 00       		.byte	0
 9081 04f1 09       		.uleb128 0x9
 9082 04f2 AD000000 		.4byte	0xad
 9083 04f6 07050000 		.4byte	0x507
 9084 04fa 0A       		.uleb128 0xa
 9085 04fb F8000000 		.4byte	0xf8
 9086 04ff 03       		.byte	0x3
 9087 0500 0A       		.uleb128 0xa
 9088 0501 F8000000 		.4byte	0xf8
 9089 0505 07       		.byte	0x7
 9090 0506 00       		.byte	0
 9091 0507 06       		.uleb128 0x6
 9092 0508 45060000 		.4byte	.LASF81
 9093 050c 0002     		.2byte	0x200
 9094 050e 05       		.byte	0x5
 9095 050f A0       		.byte	0xa0
 9096 0510 2A050000 		.4byte	0x52a
 9097 0514 0B       		.uleb128 0xb
 9098 0515 6100     		.ascii	"a\000"
 9099 0517 05       		.byte	0x5
 9100 0518 A1       		.byte	0xa1
 9101 0519 73040000 		.4byte	0x473
 9102 051d 00       		.byte	0
 9103 051e 0C       		.uleb128 0xc
 9104 051f 6200     		.ascii	"b\000"
 9105 0521 05       		.byte	0x5
 9106 0522 A2       		.byte	0xa2
 9107 0523 73040000 		.4byte	0x473
 9108 0527 0001     		.2byte	0x100
 9109 0529 00       		.byte	0
 9110 052a 0D       		.uleb128 0xd
 9111 052b FF000000 		.4byte	.LASF83
 9112 052f 01       		.byte	0x1
 9113 0530 3C       		.byte	0x3c
 9114 0531 00000000 		.4byte	.LFB56
 9115 0535 74000000 		.4byte	.LFE56-.LFB56
 9116 0539 01       		.uleb128 0x1
 9117 053a 9C       		.byte	0x9c
 9118 053b 76050000 		.4byte	0x576
 9119 053f 0E       		.uleb128 0xe
 9120 0540 6C636400 		.ascii	"lcd\000"
 9121 0544 01       		.byte	0x1
 9122 0545 3C       		.byte	0x3c
 9123 0546 AD000000 		.4byte	0xad
 9124 054a 02       		.uleb128 0x2
 9125 054b 91       		.byte	0x91
 9126 054c 67       		.sleb128 -25
 9127 054d 0F       		.uleb128 0xf
 9128 054e 52040000 		.4byte	.LASF82
 9129 0552 01       		.byte	0x1
 9130 0553 3C       		.byte	0x3c
 9131 0554 B8000000 		.4byte	0xb8
 9132 0558 02       		.uleb128 0x2
ARM GAS  C:\Users\RECEPC~1\AppData\Local\Temp\ccAuxgaT.s 			page 183


 9133 0559 91       		.byte	0x91
 9134 055a 64       		.sleb128 -28
 9135 055b 10       		.uleb128 0x10
 9136 055c 37000000 		.4byte	.LASF73
 9137 0560 01       		.byte	0x1
 9138 0561 3D       		.byte	0x3d
 9139 0562 76050000 		.4byte	0x576
 9140 0566 02       		.uleb128 0x2
 9141 0567 91       		.byte	0x91
 9142 0568 6C       		.sleb128 -20
 9143 0569 11       		.uleb128 0x11
 9144 056a 7800     		.ascii	"x\000"
 9145 056c 01       		.byte	0x1
 9146 056d 3D       		.byte	0x3d
 9147 056e AD000000 		.4byte	0xad
 9148 0572 02       		.uleb128 0x2
 9149 0573 91       		.byte	0x91
 9150 0574 77       		.sleb128 -9
 9151 0575 00       		.byte	0
 9152 0576 09       		.uleb128 0x9
 9153 0577 AD000000 		.4byte	0xad
 9154 057b 86050000 		.4byte	0x586
 9155 057f 0A       		.uleb128 0xa
 9156 0580 F8000000 		.4byte	0xf8
 9157 0584 07       		.byte	0x7
 9158 0585 00       		.byte	0
 9159 0586 0D       		.uleb128 0xd
 9160 0587 34040000 		.4byte	.LASF84
 9161 058b 01       		.byte	0x1
 9162 058c 5A       		.byte	0x5a
 9163 058d 00000000 		.4byte	.LFB57
 9164 0591 00010000 		.4byte	.LFE57-.LFB57
 9165 0595 01       		.uleb128 0x1
 9166 0596 9C       		.byte	0x9c
 9167 0597 18060000 		.4byte	0x618
 9168 059b 0E       		.uleb128 0xe
 9169 059c 6C636400 		.ascii	"lcd\000"
 9170 05a0 01       		.byte	0x1
 9171 05a1 5A       		.byte	0x5a
 9172 05a2 8C000000 		.4byte	0x8c
 9173 05a6 02       		.uleb128 0x2
 9174 05a7 91       		.byte	0x91
 9175 05a8 57       		.sleb128 -41
 9176 05a9 0F       		.uleb128 0xf
 9177 05aa A2020000 		.4byte	.LASF85
 9178 05ae 01       		.byte	0x1
 9179 05af 5A       		.byte	0x5a
 9180 05b0 8C000000 		.4byte	0x8c
 9181 05b4 02       		.uleb128 0x2
 9182 05b5 91       		.byte	0x91
 9183 05b6 56       		.sleb128 -42
 9184 05b7 0F       		.uleb128 0xf
 9185 05b8 69060000 		.4byte	.LASF86
 9186 05bc 01       		.byte	0x1
 9187 05bd 5A       		.byte	0x5a
 9188 05be 97000000 		.4byte	0x97
 9189 05c2 02       		.uleb128 0x2
ARM GAS  C:\Users\RECEPC~1\AppData\Local\Temp\ccAuxgaT.s 			page 184


 9190 05c3 91       		.byte	0x91
 9191 05c4 54       		.sleb128 -44
 9192 05c5 0F       		.uleb128 0xf
 9193 05c6 64060000 		.4byte	.LASF87
 9194 05ca 01       		.byte	0x1
 9195 05cb 5A       		.byte	0x5a
 9196 05cc 97000000 		.4byte	0x97
 9197 05d0 02       		.uleb128 0x2
 9198 05d1 91       		.byte	0x91
 9199 05d2 52       		.sleb128 -46
 9200 05d3 0F       		.uleb128 0xf
 9201 05d4 2F040000 		.4byte	.LASF88
 9202 05d8 01       		.byte	0x1
 9203 05d9 5A       		.byte	0x5a
 9204 05da 8C000000 		.4byte	0x8c
 9205 05de 02       		.uleb128 0x2
 9206 05df 91       		.byte	0x91
 9207 05e0 00       		.sleb128 0
 9208 05e1 0F       		.uleb128 0xf
 9209 05e2 AC020000 		.4byte	.LASF89
 9210 05e6 01       		.byte	0x1
 9211 05e7 5A       		.byte	0x5a
 9212 05e8 97000000 		.4byte	0x97
 9213 05ec 02       		.uleb128 0x2
 9214 05ed 91       		.byte	0x91
 9215 05ee 04       		.sleb128 4
 9216 05ef 0F       		.uleb128 0xf
 9217 05f0 03020000 		.4byte	.LASF90
 9218 05f4 01       		.byte	0x1
 9219 05f5 5A       		.byte	0x5a
 9220 05f6 8C000000 		.4byte	0x8c
 9221 05fa 02       		.uleb128 0x2
 9222 05fb 91       		.byte	0x91
 9223 05fc 08       		.sleb128 8
 9224 05fd 10       		.uleb128 0x10
 9225 05fe 37000000 		.4byte	.LASF73
 9226 0602 01       		.byte	0x1
 9227 0603 5B       		.byte	0x5b
 9228 0604 18060000 		.4byte	0x618
 9229 0608 02       		.uleb128 0x2
 9230 0609 91       		.byte	0x91
 9231 060a 5C       		.sleb128 -36
 9232 060b 11       		.uleb128 0x11
 9233 060c 7800     		.ascii	"x\000"
 9234 060e 01       		.byte	0x1
 9235 060f 5B       		.byte	0x5b
 9236 0610 8C000000 		.4byte	0x8c
 9237 0614 02       		.uleb128 0x2
 9238 0615 91       		.byte	0x91
 9239 0616 6F       		.sleb128 -17
 9240 0617 00       		.byte	0
 9241 0618 09       		.uleb128 0x9
 9242 0619 8C000000 		.4byte	0x8c
 9243 061d 28060000 		.4byte	0x628
 9244 0621 0A       		.uleb128 0xa
 9245 0622 F8000000 		.4byte	0xf8
 9246 0626 11       		.byte	0x11
ARM GAS  C:\Users\RECEPC~1\AppData\Local\Temp\ccAuxgaT.s 			page 185


 9247 0627 00       		.byte	0
 9248 0628 0D       		.uleb128 0xd
 9249 0629 7E060000 		.4byte	.LASF91
 9250 062d 01       		.byte	0x1
 9251 062e 82       		.byte	0x82
 9252 062f 00000000 		.4byte	.LFB58
 9253 0633 70330000 		.4byte	.LFE58-.LFB58
 9254 0637 01       		.uleb128 0x1
 9255 0638 9C       		.byte	0x9c
 9256 0639 9C060000 		.4byte	0x69c
 9257 063d 0E       		.uleb128 0xe
 9258 063e 6C636400 		.ascii	"lcd\000"
 9259 0642 01       		.byte	0x1
 9260 0643 82       		.byte	0x82
 9261 0644 AD000000 		.4byte	0xad
 9262 0648 02       		.uleb128 0x2
 9263 0649 91       		.byte	0x91
 9264 064a 57       		.sleb128 -41
 9265 064b 0F       		.uleb128 0xf
 9266 064c 46010000 		.4byte	.LASF92
 9267 0650 01       		.byte	0x1
 9268 0651 82       		.byte	0x82
 9269 0652 AD000000 		.4byte	0xad
 9270 0656 02       		.uleb128 0x2
 9271 0657 91       		.byte	0x91
 9272 0658 56       		.sleb128 -42
 9273 0659 11       		.uleb128 0x11
 9274 065a 7800     		.ascii	"x\000"
 9275 065c 01       		.byte	0x1
 9276 065d 83       		.byte	0x83
 9277 065e AD000000 		.4byte	0xad
 9278 0662 02       		.uleb128 0x2
 9279 0663 91       		.byte	0x91
 9280 0664 6F       		.sleb128 -17
 9281 0665 11       		.uleb128 0x11
 9282 0666 7900     		.ascii	"y\000"
 9283 0668 01       		.byte	0x1
 9284 0669 83       		.byte	0x83
 9285 066a AD000000 		.4byte	0xad
 9286 066e 02       		.uleb128 0x2
 9287 066f 91       		.byte	0x91
 9288 0670 6E       		.sleb128 -18
 9289 0671 10       		.uleb128 0x10
 9290 0672 22050000 		.4byte	.LASF93
 9291 0676 01       		.byte	0x1
 9292 0677 83       		.byte	0x83
 9293 0678 AD000000 		.4byte	0xad
 9294 067c 02       		.uleb128 0x2
 9295 067d 91       		.byte	0x91
 9296 067e 6D       		.sleb128 -19
 9297 067f 10       		.uleb128 0x10
 9298 0680 4A060000 		.4byte	.LASF94
 9299 0684 01       		.byte	0x1
 9300 0685 83       		.byte	0x83
 9301 0686 76050000 		.4byte	0x576
 9302 068a 02       		.uleb128 0x2
 9303 068b 91       		.byte	0x91
ARM GAS  C:\Users\RECEPC~1\AppData\Local\Temp\ccAuxgaT.s 			page 186


 9304 068c 64       		.sleb128 -28
 9305 068d 10       		.uleb128 0x10
 9306 068e 71040000 		.4byte	.LASF95
 9307 0692 01       		.byte	0x1
 9308 0693 84       		.byte	0x84
 9309 0694 76050000 		.4byte	0x576
 9310 0698 02       		.uleb128 0x2
 9311 0699 91       		.byte	0x91
 9312 069a 5C       		.sleb128 -36
 9313 069b 00       		.byte	0
 9314 069c 12       		.uleb128 0x12
 9315 069d BF040000 		.4byte	.LASF96
 9316 06a1 01       		.byte	0x1
 9317 06a2 0003     		.2byte	0x300
 9318 06a4 00000000 		.4byte	.LFB59
 9319 06a8 CC010000 		.4byte	.LFE59-.LFB59
 9320 06ac 01       		.uleb128 0x1
 9321 06ad 9C       		.byte	0x9c
 9322 06ae CF060000 		.4byte	0x6cf
 9323 06b2 13       		.uleb128 0x13
 9324 06b3 6C636400 		.ascii	"lcd\000"
 9325 06b7 01       		.byte	0x1
 9326 06b8 0003     		.2byte	0x300
 9327 06ba AD000000 		.4byte	0xad
 9328 06be 02       		.uleb128 0x2
 9329 06bf 91       		.byte	0x91
 9330 06c0 67       		.sleb128 -25
 9331 06c1 14       		.uleb128 0x14
 9332 06c2 7800     		.ascii	"x\000"
 9333 06c4 01       		.byte	0x1
 9334 06c5 0103     		.2byte	0x301
 9335 06c7 AD000000 		.4byte	0xad
 9336 06cb 02       		.uleb128 0x2
 9337 06cc 91       		.byte	0x91
 9338 06cd 6F       		.sleb128 -17
 9339 06ce 00       		.byte	0
 9340 06cf 12       		.uleb128 0x12
 9341 06d0 D6040000 		.4byte	.LASF97
 9342 06d4 01       		.byte	0x1
 9343 06d5 2303     		.2byte	0x323
 9344 06d7 00000000 		.4byte	.LFB60
 9345 06db 6C030000 		.4byte	.LFE60-.LFB60
 9346 06df 01       		.uleb128 0x1
 9347 06e0 9C       		.byte	0x9c
 9348 06e1 1E070000 		.4byte	0x71e
 9349 06e5 13       		.uleb128 0x13
 9350 06e6 6C636400 		.ascii	"lcd\000"
 9351 06ea 01       		.byte	0x1
 9352 06eb 2303     		.2byte	0x323
 9353 06ed AD000000 		.4byte	0xad
 9354 06f1 02       		.uleb128 0x2
 9355 06f2 91       		.byte	0x91
 9356 06f3 67       		.sleb128 -25
 9357 06f4 15       		.uleb128 0x15
 9358 06f5 D0000000 		.4byte	.LASF98
 9359 06f9 01       		.byte	0x1
 9360 06fa 2303     		.2byte	0x323
ARM GAS  C:\Users\RECEPC~1\AppData\Local\Temp\ccAuxgaT.s 			page 187


 9361 06fc 1E070000 		.4byte	0x71e
 9362 0700 02       		.uleb128 0x2
 9363 0701 91       		.byte	0x91
 9364 0702 60       		.sleb128 -32
 9365 0703 14       		.uleb128 0x14
 9366 0704 7800     		.ascii	"x\000"
 9367 0706 01       		.byte	0x1
 9368 0707 2403     		.2byte	0x324
 9369 0709 AD000000 		.4byte	0xad
 9370 070d 02       		.uleb128 0x2
 9371 070e 91       		.byte	0x91
 9372 070f 6F       		.sleb128 -17
 9373 0710 14       		.uleb128 0x14
 9374 0711 7900     		.ascii	"y\000"
 9375 0713 01       		.byte	0x1
 9376 0714 2403     		.2byte	0x324
 9377 0716 AD000000 		.4byte	0xad
 9378 071a 02       		.uleb128 0x2
 9379 071b 91       		.byte	0x91
 9380 071c 6E       		.sleb128 -18
 9381 071d 00       		.byte	0
 9382 071e 16       		.uleb128 0x16
 9383 071f 04       		.byte	0x4
 9384 0720 AD000000 		.4byte	0xad
 9385 0724 12       		.uleb128 0x12
 9386 0725 00000000 		.4byte	.LASF99
 9387 0729 01       		.byte	0x1
 9388 072a 5703     		.2byte	0x357
 9389 072c 00000000 		.4byte	.LFB61
 9390 0730 A6000000 		.4byte	.LFE61-.LFB61
 9391 0734 01       		.uleb128 0x1
 9392 0735 9C       		.byte	0x9c
 9393 0736 66070000 		.4byte	0x766
 9394 073a 13       		.uleb128 0x13
 9395 073b 6C636400 		.ascii	"lcd\000"
 9396 073f 01       		.byte	0x1
 9397 0740 5703     		.2byte	0x357
 9398 0742 AD000000 		.4byte	0xad
 9399 0746 02       		.uleb128 0x2
 9400 0747 91       		.byte	0x91
 9401 0748 67       		.sleb128 -25
 9402 0749 13       		.uleb128 0x13
 9403 074a 6D736700 		.ascii	"msg\000"
 9404 074e 01       		.byte	0x1
 9405 074f 5703     		.2byte	0x357
 9406 0751 1E070000 		.4byte	0x71e
 9407 0755 02       		.uleb128 0x2
 9408 0756 91       		.byte	0x91
 9409 0757 60       		.sleb128 -32
 9410 0758 14       		.uleb128 0x14
 9411 0759 7800     		.ascii	"x\000"
 9412 075b 01       		.byte	0x1
 9413 075c 5803     		.2byte	0x358
 9414 075e AD000000 		.4byte	0xad
 9415 0762 02       		.uleb128 0x2
 9416 0763 91       		.byte	0x91
 9417 0764 6F       		.sleb128 -17
ARM GAS  C:\Users\RECEPC~1\AppData\Local\Temp\ccAuxgaT.s 			page 188


 9418 0765 00       		.byte	0
 9419 0766 12       		.uleb128 0x12
 9420 0767 42050000 		.4byte	.LASF100
 9421 076b 01       		.byte	0x1
 9422 076c 7103     		.2byte	0x371
 9423 076e 00000000 		.4byte	.LFB62
 9424 0772 60050000 		.4byte	.LFE62-.LFB62
 9425 0776 01       		.uleb128 0x1
 9426 0777 9C       		.byte	0x9c
 9427 0778 B5070000 		.4byte	0x7b5
 9428 077c 13       		.uleb128 0x13
 9429 077d 6C636400 		.ascii	"lcd\000"
 9430 0781 01       		.byte	0x1
 9431 0782 7103     		.2byte	0x371
 9432 0784 AD000000 		.4byte	0xad
 9433 0788 02       		.uleb128 0x2
 9434 0789 91       		.byte	0x91
 9435 078a 67       		.sleb128 -25
 9436 078b 14       		.uleb128 0x14
 9437 078c 7800     		.ascii	"x\000"
 9438 078e 01       		.byte	0x1
 9439 078f 7203     		.2byte	0x372
 9440 0791 AD000000 		.4byte	0xad
 9441 0795 02       		.uleb128 0x2
 9442 0796 91       		.byte	0x91
 9443 0797 6F       		.sleb128 -17
 9444 0798 14       		.uleb128 0x14
 9445 0799 7900     		.ascii	"y\000"
 9446 079b 01       		.byte	0x1
 9447 079c 7203     		.2byte	0x372
 9448 079e AD000000 		.4byte	0xad
 9449 07a2 02       		.uleb128 0x2
 9450 07a3 91       		.byte	0x91
 9451 07a4 6E       		.sleb128 -18
 9452 07a5 17       		.uleb128 0x17
 9453 07a6 22050000 		.4byte	.LASF93
 9454 07aa 01       		.byte	0x1
 9455 07ab 7203     		.2byte	0x372
 9456 07ad AD000000 		.4byte	0xad
 9457 07b1 02       		.uleb128 0x2
 9458 07b2 91       		.byte	0x91
 9459 07b3 6D       		.sleb128 -19
 9460 07b4 00       		.byte	0
 9461 07b5 18       		.uleb128 0x18
 9462 07b6 0C050000 		.4byte	.LASF101
 9463 07ba 06       		.byte	0x6
 9464 07bb 1606     		.2byte	0x616
 9465 07bd C1070000 		.4byte	0x7c1
 9466 07c1 05       		.uleb128 0x5
 9467 07c2 A2000000 		.4byte	0xa2
 9468 07c6 19       		.uleb128 0x19
 9469 07c7 2C030000 		.4byte	.LASF102
 9470 07cb 05       		.byte	0x5
 9471 07cc 2C       		.byte	0x2c
 9472 07cd D7070000 		.4byte	0x7d7
 9473 07d1 05       		.uleb128 0x5
 9474 07d2 03       		.byte	0x3
ARM GAS  C:\Users\RECEPC~1\AppData\Local\Temp\ccAuxgaT.s 			page 189


 9475 07d3 00000000 		.4byte	countAnimation1
 9476 07d7 05       		.uleb128 0x5
 9477 07d8 DC000000 		.4byte	0xdc
 9478 07dc 19       		.uleb128 0x19
 9479 07dd 5D030000 		.4byte	.LASF103
 9480 07e1 05       		.byte	0x5
 9481 07e2 2D       		.byte	0x2d
 9482 07e3 D7070000 		.4byte	0x7d7
 9483 07e7 05       		.uleb128 0x5
 9484 07e8 03       		.byte	0x3
 9485 07e9 00000000 		.4byte	countAnimation2
 9486 07ed 19       		.uleb128 0x19
 9487 07ee 8D020000 		.4byte	.LASF104
 9488 07f2 05       		.byte	0x5
 9489 07f3 2E       		.byte	0x2e
 9490 07f4 D7070000 		.4byte	0x7d7
 9491 07f8 05       		.uleb128 0x5
 9492 07f9 03       		.byte	0x3
 9493 07fa 00000000 		.4byte	countBeagleTX
 9494 07fe 19       		.uleb128 0x19
 9495 07ff B5060000 		.4byte	.LASF105
 9496 0803 05       		.byte	0x5
 9497 0804 2F       		.byte	0x2f
 9498 0805 D7070000 		.4byte	0x7d7
 9499 0809 05       		.uleb128 0x5
 9500 080a 03       		.byte	0x3
 9501 080b 00000000 		.4byte	countPump
 9502 080f 19       		.uleb128 0x19
 9503 0810 4B020000 		.4byte	.LASF106
 9504 0814 05       		.byte	0x5
 9505 0815 30       		.byte	0x30
 9506 0816 F3000000 		.4byte	0xf3
 9507 081a 05       		.uleb128 0x5
 9508 081b 03       		.byte	0x3
 9509 081c 00000000 		.4byte	flowLCD1
 9510 0820 19       		.uleb128 0x19
 9511 0821 54020000 		.4byte	.LASF107
 9512 0825 05       		.byte	0x5
 9513 0826 31       		.byte	0x31
 9514 0827 F3000000 		.4byte	0xf3
 9515 082b 05       		.uleb128 0x5
 9516 082c 03       		.byte	0x3
 9517 082d 00000000 		.4byte	flowLCD2
 9518 0831 19       		.uleb128 0x19
 9519 0832 95010000 		.4byte	.LASF108
 9520 0836 05       		.byte	0x5
 9521 0837 32       		.byte	0x32
 9522 0838 EE000000 		.4byte	0xee
 9523 083c 05       		.uleb128 0x5
 9524 083d 03       		.byte	0x3
 9525 083e 00000000 		.4byte	digits
 9526 0842 09       		.uleb128 0x9
 9527 0843 AD000000 		.4byte	0xad
 9528 0847 52080000 		.4byte	0x852
 9529 084b 0A       		.uleb128 0xa
 9530 084c F8000000 		.4byte	0xf8
 9531 0850 0B       		.byte	0xb
ARM GAS  C:\Users\RECEPC~1\AppData\Local\Temp\ccAuxgaT.s 			page 190


 9532 0851 00       		.byte	0
 9533 0852 19       		.uleb128 0x19
 9534 0853 3E000000 		.4byte	.LASF109
 9535 0857 05       		.byte	0x5
 9536 0858 33       		.byte	0x33
 9537 0859 63080000 		.4byte	0x863
 9538 085d 05       		.uleb128 0x5
 9539 085e 03       		.byte	0x3
 9540 085f 00000000 		.4byte	ipAdress
 9541 0863 05       		.uleb128 0x5
 9542 0864 42080000 		.4byte	0x842
 9543 0868 19       		.uleb128 0x19
 9544 0869 75020000 		.4byte	.LASF110
 9545 086d 05       		.byte	0x5
 9546 086e 34       		.byte	0x34
 9547 086f EE000000 		.4byte	0xee
 9548 0873 05       		.uleb128 0x5
 9549 0874 03       		.byte	0x3
 9550 0875 00000000 		.4byte	numberKeys1
 9551 0879 19       		.uleb128 0x19
 9552 087a 81020000 		.4byte	.LASF111
 9553 087e 05       		.byte	0x5
 9554 087f 35       		.byte	0x35
 9555 0880 EE000000 		.4byte	0xee
 9556 0884 05       		.uleb128 0x5
 9557 0885 03       		.byte	0x3
 9558 0886 00000000 		.4byte	numberKeys2
 9559 088a 19       		.uleb128 0x19
 9560 088b A2040000 		.4byte	.LASF112
 9561 088f 05       		.byte	0x5
 9562 0890 36       		.byte	0x36
 9563 0891 EE000000 		.4byte	0xee
 9564 0895 05       		.uleb128 0x5
 9565 0896 03       		.byte	0x3
 9566 0897 00000000 		.4byte	flagPoint1
 9567 089b 19       		.uleb128 0x19
 9568 089c 3B010000 		.4byte	.LASF113
 9569 08a0 05       		.byte	0x5
 9570 08a1 37       		.byte	0x37
 9571 08a2 EE000000 		.4byte	0xee
 9572 08a6 05       		.uleb128 0x5
 9573 08a7 03       		.byte	0x3
 9574 08a8 00000000 		.4byte	flagPoint2
 9575 08ac 09       		.uleb128 0x9
 9576 08ad AD000000 		.4byte	0xad
 9577 08b1 C2080000 		.4byte	0x8c2
 9578 08b5 0A       		.uleb128 0xa
 9579 08b6 F8000000 		.4byte	0xf8
 9580 08ba 77       		.byte	0x77
 9581 08bb 0A       		.uleb128 0xa
 9582 08bc F8000000 		.4byte	0xf8
 9583 08c0 07       		.byte	0x7
 9584 08c1 00       		.byte	0
 9585 08c2 19       		.uleb128 0x19
 9586 08c3 0E020000 		.4byte	.LASF114
 9587 08c7 05       		.byte	0x5
 9588 08c8 38       		.byte	0x38
ARM GAS  C:\Users\RECEPC~1\AppData\Local\Temp\ccAuxgaT.s 			page 191


 9589 08c9 D3080000 		.4byte	0x8d3
 9590 08cd 05       		.uleb128 0x5
 9591 08ce 03       		.byte	0x3
 9592 08cf 00000000 		.4byte	button
 9593 08d3 05       		.uleb128 0x5
 9594 08d4 AC080000 		.4byte	0x8ac
 9595 08d8 19       		.uleb128 0x19
 9596 08d9 AD010000 		.4byte	.LASF115
 9597 08dd 05       		.byte	0x5
 9598 08de 39       		.byte	0x39
 9599 08df EE000000 		.4byte	0xee
 9600 08e3 05       		.uleb128 0x5
 9601 08e4 03       		.byte	0x3
 9602 08e5 00000000 		.4byte	productNumber
 9603 08e9 19       		.uleb128 0x19
 9604 08ea 01030000 		.4byte	.LASF116
 9605 08ee 05       		.byte	0x5
 9606 08ef 3A       		.byte	0x3a
 9607 08f0 4D040000 		.4byte	0x44d
 9608 08f4 05       		.uleb128 0x5
 9609 08f5 03       		.byte	0x3
 9610 08f6 00000000 		.4byte	presetFast
 9611 08fa 19       		.uleb128 0x19
 9612 08fb 7F050000 		.4byte	.LASF117
 9613 08ff 05       		.byte	0x5
 9614 0900 3B       		.byte	0x3b
 9615 0901 F3000000 		.4byte	0xf3
 9616 0905 05       		.uleb128 0x5
 9617 0906 03       		.byte	0x3
 9618 0907 00000000 		.4byte	delayPicture1
 9619 090b 19       		.uleb128 0x19
 9620 090c 8D050000 		.4byte	.LASF118
 9621 0910 05       		.byte	0x5
 9622 0911 3C       		.byte	0x3c
 9623 0912 F3000000 		.4byte	0xf3
 9624 0916 05       		.uleb128 0x5
 9625 0917 03       		.byte	0x3
 9626 0918 00000000 		.4byte	delayPicture2
 9627 091c 19       		.uleb128 0x19
 9628 091d 88040000 		.4byte	.LASF119
 9629 0921 05       		.byte	0x5
 9630 0922 3D       		.byte	0x3d
 9631 0923 EE000000 		.4byte	0xee
 9632 0927 05       		.uleb128 0x5
 9633 0928 03       		.byte	0x3
 9634 0929 00000000 		.4byte	ppux10
 9635 092d 19       		.uleb128 0x19
 9636 092e 47000000 		.4byte	.LASF120
 9637 0932 05       		.byte	0x5
 9638 0933 3E       		.byte	0x3e
 9639 0934 EE000000 		.4byte	0xee
 9640 0938 05       		.uleb128 0x5
 9641 0939 03       		.byte	0x3
 9642 093a 00000000 		.4byte	decimalMoney
 9643 093e 19       		.uleb128 0x19
 9644 093f 0D000000 		.4byte	.LASF121
 9645 0943 05       		.byte	0x5
ARM GAS  C:\Users\RECEPC~1\AppData\Local\Temp\ccAuxgaT.s 			page 192


 9646 0944 3F       		.byte	0x3f
 9647 0945 EE000000 		.4byte	0xee
 9648 0949 05       		.uleb128 0x5
 9649 094a 03       		.byte	0x3
 9650 094b 00000000 		.4byte	decimalVolume
 9651 094f 19       		.uleb128 0x19
 9652 0950 CE040000 		.4byte	.LASF122
 9653 0954 05       		.byte	0x5
 9654 0955 40       		.byte	0x40
 9655 0956 60090000 		.4byte	0x960
 9656 095a 05       		.uleb128 0x5
 9657 095b 03       		.byte	0x3
 9658 095c 00000000 		.4byte	symbols
 9659 0960 05       		.uleb128 0x5
 9660 0961 AB030000 		.4byte	0x3ab
 9661 0965 09       		.uleb128 0x9
 9662 0966 AD000000 		.4byte	0xad
 9663 096a 75090000 		.4byte	0x975
 9664 096e 0A       		.uleb128 0xa
 9665 096f F8000000 		.4byte	0xf8
 9666 0973 02       		.byte	0x2
 9667 0974 00       		.byte	0
 9668 0975 19       		.uleb128 0x19
 9669 0976 9C010000 		.4byte	.LASF123
 9670 097a 05       		.byte	0x5
 9671 097b 41       		.byte	0x41
 9672 097c 86090000 		.4byte	0x986
 9673 0980 05       		.uleb128 0x5
 9674 0981 03       		.byte	0x3
 9675 0982 00000000 		.4byte	time
 9676 0986 05       		.uleb128 0x5
 9677 0987 65090000 		.4byte	0x965
 9678 098b 19       		.uleb128 0x19
 9679 098c A7020000 		.4byte	.LASF124
 9680 0990 05       		.byte	0x5
 9681 0991 42       		.byte	0x42
 9682 0992 9C090000 		.4byte	0x99c
 9683 0996 05       		.uleb128 0x5
 9684 0997 03       		.byte	0x3
 9685 0998 00000000 		.4byte	date
 9686 099c 05       		.uleb128 0x5
 9687 099d 65090000 		.4byte	0x965
 9688 09a1 19       		.uleb128 0x19
 9689 09a2 46010000 		.4byte	.LASF92
 9690 09a6 05       		.byte	0x5
 9691 09a7 43       		.byte	0x43
 9692 09a8 B2090000 		.4byte	0x9b2
 9693 09ac 05       		.uleb128 0x5
 9694 09ad 03       		.byte	0x3
 9695 09ae 00000000 		.4byte	screen
 9696 09b2 05       		.uleb128 0x5
 9697 09b3 AB030000 		.4byte	0x3ab
 9698 09b7 19       		.uleb128 0x19
 9699 09b8 0B010000 		.4byte	.LASF125
 9700 09bc 05       		.byte	0x5
 9701 09bd 44       		.byte	0x44
 9702 09be C8090000 		.4byte	0x9c8
ARM GAS  C:\Users\RECEPC~1\AppData\Local\Temp\ccAuxgaT.s 			page 193


 9703 09c2 05       		.uleb128 0x5
 9704 09c3 03       		.byte	0x3
 9705 09c4 00000000 		.4byte	residue
 9706 09c8 05       		.uleb128 0x5
 9707 09c9 F1030000 		.4byte	0x3f1
 9708 09cd 09       		.uleb128 0x9
 9709 09ce AD000000 		.4byte	0xad
 9710 09d2 DD090000 		.4byte	0x9dd
 9711 09d6 0A       		.uleb128 0xa
 9712 09d7 F8000000 		.4byte	0xf8
 9713 09db 1D       		.byte	0x1d
 9714 09dc 00       		.byte	0
 9715 09dd 19       		.uleb128 0x19
 9716 09de 50060000 		.4byte	.LASF126
 9717 09e2 05       		.byte	0x5
 9718 09e3 45       		.byte	0x45
 9719 09e4 CD090000 		.4byte	0x9cd
 9720 09e8 05       		.uleb128 0x5
 9721 09e9 03       		.byte	0x3
 9722 09ea 00000000 		.4byte	temporal
 9723 09ee 19       		.uleb128 0x19
 9724 09ef 1B000000 		.4byte	.LASF127
 9725 09f3 05       		.byte	0x5
 9726 09f4 46       		.byte	0x46
 9727 09f5 CD090000 		.4byte	0x9cd
 9728 09f9 05       		.uleb128 0x5
 9729 09fa 03       		.byte	0x3
 9730 09fb 00000000 		.4byte	temporalCom
 9731 09ff 19       		.uleb128 0x19
 9732 0a00 3B020000 		.4byte	.LASF128
 9733 0a04 05       		.byte	0x5
 9734 0a05 47       		.byte	0x47
 9735 0a06 EE000000 		.4byte	0xee
 9736 0a0a 05       		.uleb128 0x5
 9737 0a0b 03       		.byte	0x3
 9738 0a0c 00000000 		.4byte	turn
 9739 0a10 19       		.uleb128 0x19
 9740 0a11 19050000 		.4byte	.LASF129
 9741 0a15 05       		.byte	0x5
 9742 0a16 48       		.byte	0x48
 9743 0a17 EE000000 		.4byte	0xee
 9744 0a1b 05       		.uleb128 0x5
 9745 0a1c 03       		.byte	0x3
 9746 0a1d 00000000 		.4byte	lockTurn
 9747 0a21 19       		.uleb128 0x19
 9748 0a22 3C060000 		.4byte	.LASF130
 9749 0a26 05       		.byte	0x5
 9750 0a27 49       		.byte	0x49
 9751 0a28 320A0000 		.4byte	0xa32
 9752 0a2c 05       		.uleb128 0x5
 9753 0a2d 03       		.byte	0x3
 9754 0a2e 00000000 		.4byte	idSeller
 9755 0a32 05       		.uleb128 0x5
 9756 0a33 7B030000 		.4byte	0x37b
 9757 0a37 19       		.uleb128 0x19
 9758 0a38 BF050000 		.4byte	.LASF131
 9759 0a3c 05       		.byte	0x5
ARM GAS  C:\Users\RECEPC~1\AppData\Local\Temp\ccAuxgaT.s 			page 194


 9760 0a3d 4A       		.byte	0x4a
 9761 0a3e EE000000 		.4byte	0xee
 9762 0a42 05       		.uleb128 0x5
 9763 0a43 03       		.byte	0x3
 9764 0a44 00000000 		.4byte	typeIdSeller
 9765 0a48 19       		.uleb128 0x19
 9766 0a49 58050000 		.4byte	.LASF132
 9767 0a4d 05       		.byte	0x5
 9768 0a4e 4B       		.byte	0x4b
 9769 0a4f 590A0000 		.4byte	0xa59
 9770 0a53 05       		.uleb128 0x5
 9771 0a54 03       		.byte	0x3
 9772 0a55 00000000 		.4byte	passwordSeller
 9773 0a59 05       		.uleb128 0x5
 9774 0a5a 76050000 		.4byte	0x576
 9775 0a5e 19       		.uleb128 0x19
 9776 0a5f 45040000 		.4byte	.LASF133
 9777 0a63 05       		.byte	0x5
 9778 0a64 4C       		.byte	0x4c
 9779 0a65 EE000000 		.4byte	0xee
 9780 0a69 05       		.uleb128 0x5
 9781 0a6a 03       		.byte	0x3
 9782 0a6b 00000000 		.4byte	flagResetMux
 9783 0a6f 19       		.uleb128 0x19
 9784 0a70 3C030000 		.4byte	.LASF134
 9785 0a74 05       		.byte	0x5
 9786 0a75 4D       		.byte	0x4d
 9787 0a76 EE000000 		.4byte	0xee
 9788 0a7a 05       		.uleb128 0x5
 9789 0a7b 03       		.byte	0x3
 9790 0a7c 00000000 		.4byte	stateBeagleSoft
 9791 0a80 19       		.uleb128 0x19
 9792 0a81 D3010000 		.4byte	.LASF135
 9793 0a85 05       		.byte	0x5
 9794 0a86 8B       		.byte	0x8b
 9795 0a87 FF000000 		.4byte	0xff
 9796 0a8b 05       		.uleb128 0x5
 9797 0a8c 03       		.byte	0x3
 9798 0a8d 00000000 		.4byte	bufferLCD1
 9799 0a91 19       		.uleb128 0x19
 9800 0a92 DE010000 		.4byte	.LASF136
 9801 0a96 05       		.byte	0x5
 9802 0a97 8C       		.byte	0x8c
 9803 0a98 FF000000 		.4byte	0xff
 9804 0a9c 05       		.uleb128 0x5
 9805 0a9d 03       		.byte	0x3
 9806 0a9e 00000000 		.4byte	bufferLCD2
 9807 0aa2 19       		.uleb128 0x19
 9808 0aa3 1A010000 		.4byte	.LASF137
 9809 0aa7 05       		.byte	0x5
 9810 0aa8 A5       		.byte	0xa5
 9811 0aa9 07050000 		.4byte	0x507
 9812 0aad 05       		.uleb128 0x5
 9813 0aae 03       		.byte	0x3
 9814 0aaf 00000000 		.4byte	side
 9815 0ab3 00       		.byte	0
 9816              		.section	.debug_abbrev,"",%progbits
ARM GAS  C:\Users\RECEPC~1\AppData\Local\Temp\ccAuxgaT.s 			page 195


 9817              	.Ldebug_abbrev0:
 9818 0000 01       		.uleb128 0x1
 9819 0001 11       		.uleb128 0x11
 9820 0002 01       		.byte	0x1
 9821 0003 25       		.uleb128 0x25
 9822 0004 0E       		.uleb128 0xe
 9823 0005 13       		.uleb128 0x13
 9824 0006 0B       		.uleb128 0xb
 9825 0007 03       		.uleb128 0x3
 9826 0008 0E       		.uleb128 0xe
 9827 0009 1B       		.uleb128 0x1b
 9828 000a 0E       		.uleb128 0xe
 9829 000b 55       		.uleb128 0x55
 9830 000c 17       		.uleb128 0x17
 9831 000d 11       		.uleb128 0x11
 9832 000e 01       		.uleb128 0x1
 9833 000f 10       		.uleb128 0x10
 9834 0010 17       		.uleb128 0x17
 9835 0011 00       		.byte	0
 9836 0012 00       		.byte	0
 9837 0013 02       		.uleb128 0x2
 9838 0014 24       		.uleb128 0x24
 9839 0015 00       		.byte	0
 9840 0016 0B       		.uleb128 0xb
 9841 0017 0B       		.uleb128 0xb
 9842 0018 3E       		.uleb128 0x3e
 9843 0019 0B       		.uleb128 0xb
 9844 001a 03       		.uleb128 0x3
 9845 001b 0E       		.uleb128 0xe
 9846 001c 00       		.byte	0
 9847 001d 00       		.byte	0
 9848 001e 03       		.uleb128 0x3
 9849 001f 16       		.uleb128 0x16
 9850 0020 00       		.byte	0
 9851 0021 03       		.uleb128 0x3
 9852 0022 0E       		.uleb128 0xe
 9853 0023 3A       		.uleb128 0x3a
 9854 0024 0B       		.uleb128 0xb
 9855 0025 3B       		.uleb128 0x3b
 9856 0026 0B       		.uleb128 0xb
 9857 0027 49       		.uleb128 0x49
 9858 0028 13       		.uleb128 0x13
 9859 0029 00       		.byte	0
 9860 002a 00       		.byte	0
 9861 002b 04       		.uleb128 0x4
 9862 002c 24       		.uleb128 0x24
 9863 002d 00       		.byte	0
 9864 002e 0B       		.uleb128 0xb
 9865 002f 0B       		.uleb128 0xb
 9866 0030 3E       		.uleb128 0x3e
 9867 0031 0B       		.uleb128 0xb
 9868 0032 03       		.uleb128 0x3
 9869 0033 08       		.uleb128 0x8
 9870 0034 00       		.byte	0
 9871 0035 00       		.byte	0
 9872 0036 05       		.uleb128 0x5
 9873 0037 35       		.uleb128 0x35
ARM GAS  C:\Users\RECEPC~1\AppData\Local\Temp\ccAuxgaT.s 			page 196


 9874 0038 00       		.byte	0
 9875 0039 49       		.uleb128 0x49
 9876 003a 13       		.uleb128 0x13
 9877 003b 00       		.byte	0
 9878 003c 00       		.byte	0
 9879 003d 06       		.uleb128 0x6
 9880 003e 13       		.uleb128 0x13
 9881 003f 01       		.byte	0x1
 9882 0040 03       		.uleb128 0x3
 9883 0041 0E       		.uleb128 0xe
 9884 0042 0B       		.uleb128 0xb
 9885 0043 05       		.uleb128 0x5
 9886 0044 3A       		.uleb128 0x3a
 9887 0045 0B       		.uleb128 0xb
 9888 0046 3B       		.uleb128 0x3b
 9889 0047 0B       		.uleb128 0xb
 9890 0048 01       		.uleb128 0x1
 9891 0049 13       		.uleb128 0x13
 9892 004a 00       		.byte	0
 9893 004b 00       		.byte	0
 9894 004c 07       		.uleb128 0x7
 9895 004d 0D       		.uleb128 0xd
 9896 004e 00       		.byte	0
 9897 004f 03       		.uleb128 0x3
 9898 0050 0E       		.uleb128 0xe
 9899 0051 3A       		.uleb128 0x3a
 9900 0052 0B       		.uleb128 0xb
 9901 0053 3B       		.uleb128 0x3b
 9902 0054 0B       		.uleb128 0xb
 9903 0055 49       		.uleb128 0x49
 9904 0056 13       		.uleb128 0x13
 9905 0057 38       		.uleb128 0x38
 9906 0058 0B       		.uleb128 0xb
 9907 0059 00       		.byte	0
 9908 005a 00       		.byte	0
 9909 005b 08       		.uleb128 0x8
 9910 005c 0D       		.uleb128 0xd
 9911 005d 00       		.byte	0
 9912 005e 03       		.uleb128 0x3
 9913 005f 0E       		.uleb128 0xe
 9914 0060 3A       		.uleb128 0x3a
 9915 0061 0B       		.uleb128 0xb
 9916 0062 3B       		.uleb128 0x3b
 9917 0063 0B       		.uleb128 0xb
 9918 0064 49       		.uleb128 0x49
 9919 0065 13       		.uleb128 0x13
 9920 0066 38       		.uleb128 0x38
 9921 0067 05       		.uleb128 0x5
 9922 0068 00       		.byte	0
 9923 0069 00       		.byte	0
 9924 006a 09       		.uleb128 0x9
 9925 006b 01       		.uleb128 0x1
 9926 006c 01       		.byte	0x1
 9927 006d 49       		.uleb128 0x49
 9928 006e 13       		.uleb128 0x13
 9929 006f 01       		.uleb128 0x1
 9930 0070 13       		.uleb128 0x13
ARM GAS  C:\Users\RECEPC~1\AppData\Local\Temp\ccAuxgaT.s 			page 197


 9931 0071 00       		.byte	0
 9932 0072 00       		.byte	0
 9933 0073 0A       		.uleb128 0xa
 9934 0074 21       		.uleb128 0x21
 9935 0075 00       		.byte	0
 9936 0076 49       		.uleb128 0x49
 9937 0077 13       		.uleb128 0x13
 9938 0078 2F       		.uleb128 0x2f
 9939 0079 0B       		.uleb128 0xb
 9940 007a 00       		.byte	0
 9941 007b 00       		.byte	0
 9942 007c 0B       		.uleb128 0xb
 9943 007d 0D       		.uleb128 0xd
 9944 007e 00       		.byte	0
 9945 007f 03       		.uleb128 0x3
 9946 0080 08       		.uleb128 0x8
 9947 0081 3A       		.uleb128 0x3a
 9948 0082 0B       		.uleb128 0xb
 9949 0083 3B       		.uleb128 0x3b
 9950 0084 0B       		.uleb128 0xb
 9951 0085 49       		.uleb128 0x49
 9952 0086 13       		.uleb128 0x13
 9953 0087 38       		.uleb128 0x38
 9954 0088 0B       		.uleb128 0xb
 9955 0089 00       		.byte	0
 9956 008a 00       		.byte	0
 9957 008b 0C       		.uleb128 0xc
 9958 008c 0D       		.uleb128 0xd
 9959 008d 00       		.byte	0
 9960 008e 03       		.uleb128 0x3
 9961 008f 08       		.uleb128 0x8
 9962 0090 3A       		.uleb128 0x3a
 9963 0091 0B       		.uleb128 0xb
 9964 0092 3B       		.uleb128 0x3b
 9965 0093 0B       		.uleb128 0xb
 9966 0094 49       		.uleb128 0x49
 9967 0095 13       		.uleb128 0x13
 9968 0096 38       		.uleb128 0x38
 9969 0097 05       		.uleb128 0x5
 9970 0098 00       		.byte	0
 9971 0099 00       		.byte	0
 9972 009a 0D       		.uleb128 0xd
 9973 009b 2E       		.uleb128 0x2e
 9974 009c 01       		.byte	0x1
 9975 009d 3F       		.uleb128 0x3f
 9976 009e 19       		.uleb128 0x19
 9977 009f 03       		.uleb128 0x3
 9978 00a0 0E       		.uleb128 0xe
 9979 00a1 3A       		.uleb128 0x3a
 9980 00a2 0B       		.uleb128 0xb
 9981 00a3 3B       		.uleb128 0x3b
 9982 00a4 0B       		.uleb128 0xb
 9983 00a5 27       		.uleb128 0x27
 9984 00a6 19       		.uleb128 0x19
 9985 00a7 11       		.uleb128 0x11
 9986 00a8 01       		.uleb128 0x1
 9987 00a9 12       		.uleb128 0x12
ARM GAS  C:\Users\RECEPC~1\AppData\Local\Temp\ccAuxgaT.s 			page 198


 9988 00aa 06       		.uleb128 0x6
 9989 00ab 40       		.uleb128 0x40
 9990 00ac 18       		.uleb128 0x18
 9991 00ad 9642     		.uleb128 0x2116
 9992 00af 19       		.uleb128 0x19
 9993 00b0 01       		.uleb128 0x1
 9994 00b1 13       		.uleb128 0x13
 9995 00b2 00       		.byte	0
 9996 00b3 00       		.byte	0
 9997 00b4 0E       		.uleb128 0xe
 9998 00b5 05       		.uleb128 0x5
 9999 00b6 00       		.byte	0
 10000 00b7 03       		.uleb128 0x3
 10001 00b8 08       		.uleb128 0x8
 10002 00b9 3A       		.uleb128 0x3a
 10003 00ba 0B       		.uleb128 0xb
 10004 00bb 3B       		.uleb128 0x3b
 10005 00bc 0B       		.uleb128 0xb
 10006 00bd 49       		.uleb128 0x49
 10007 00be 13       		.uleb128 0x13
 10008 00bf 02       		.uleb128 0x2
 10009 00c0 18       		.uleb128 0x18
 10010 00c1 00       		.byte	0
 10011 00c2 00       		.byte	0
 10012 00c3 0F       		.uleb128 0xf
 10013 00c4 05       		.uleb128 0x5
 10014 00c5 00       		.byte	0
 10015 00c6 03       		.uleb128 0x3
 10016 00c7 0E       		.uleb128 0xe
 10017 00c8 3A       		.uleb128 0x3a
 10018 00c9 0B       		.uleb128 0xb
 10019 00ca 3B       		.uleb128 0x3b
 10020 00cb 0B       		.uleb128 0xb
 10021 00cc 49       		.uleb128 0x49
 10022 00cd 13       		.uleb128 0x13
 10023 00ce 02       		.uleb128 0x2
 10024 00cf 18       		.uleb128 0x18
 10025 00d0 00       		.byte	0
 10026 00d1 00       		.byte	0
 10027 00d2 10       		.uleb128 0x10
 10028 00d3 34       		.uleb128 0x34
 10029 00d4 00       		.byte	0
 10030 00d5 03       		.uleb128 0x3
 10031 00d6 0E       		.uleb128 0xe
 10032 00d7 3A       		.uleb128 0x3a
 10033 00d8 0B       		.uleb128 0xb
 10034 00d9 3B       		.uleb128 0x3b
 10035 00da 0B       		.uleb128 0xb
 10036 00db 49       		.uleb128 0x49
 10037 00dc 13       		.uleb128 0x13
 10038 00dd 02       		.uleb128 0x2
 10039 00de 18       		.uleb128 0x18
 10040 00df 00       		.byte	0
 10041 00e0 00       		.byte	0
 10042 00e1 11       		.uleb128 0x11
 10043 00e2 34       		.uleb128 0x34
 10044 00e3 00       		.byte	0
ARM GAS  C:\Users\RECEPC~1\AppData\Local\Temp\ccAuxgaT.s 			page 199


 10045 00e4 03       		.uleb128 0x3
 10046 00e5 08       		.uleb128 0x8
 10047 00e6 3A       		.uleb128 0x3a
 10048 00e7 0B       		.uleb128 0xb
 10049 00e8 3B       		.uleb128 0x3b
 10050 00e9 0B       		.uleb128 0xb
 10051 00ea 49       		.uleb128 0x49
 10052 00eb 13       		.uleb128 0x13
 10053 00ec 02       		.uleb128 0x2
 10054 00ed 18       		.uleb128 0x18
 10055 00ee 00       		.byte	0
 10056 00ef 00       		.byte	0
 10057 00f0 12       		.uleb128 0x12
 10058 00f1 2E       		.uleb128 0x2e
 10059 00f2 01       		.byte	0x1
 10060 00f3 3F       		.uleb128 0x3f
 10061 00f4 19       		.uleb128 0x19
 10062 00f5 03       		.uleb128 0x3
 10063 00f6 0E       		.uleb128 0xe
 10064 00f7 3A       		.uleb128 0x3a
 10065 00f8 0B       		.uleb128 0xb
 10066 00f9 3B       		.uleb128 0x3b
 10067 00fa 05       		.uleb128 0x5
 10068 00fb 27       		.uleb128 0x27
 10069 00fc 19       		.uleb128 0x19
 10070 00fd 11       		.uleb128 0x11
 10071 00fe 01       		.uleb128 0x1
 10072 00ff 12       		.uleb128 0x12
 10073 0100 06       		.uleb128 0x6
 10074 0101 40       		.uleb128 0x40
 10075 0102 18       		.uleb128 0x18
 10076 0103 9642     		.uleb128 0x2116
 10077 0105 19       		.uleb128 0x19
 10078 0106 01       		.uleb128 0x1
 10079 0107 13       		.uleb128 0x13
 10080 0108 00       		.byte	0
 10081 0109 00       		.byte	0
 10082 010a 13       		.uleb128 0x13
 10083 010b 05       		.uleb128 0x5
 10084 010c 00       		.byte	0
 10085 010d 03       		.uleb128 0x3
 10086 010e 08       		.uleb128 0x8
 10087 010f 3A       		.uleb128 0x3a
 10088 0110 0B       		.uleb128 0xb
 10089 0111 3B       		.uleb128 0x3b
 10090 0112 05       		.uleb128 0x5
 10091 0113 49       		.uleb128 0x49
 10092 0114 13       		.uleb128 0x13
 10093 0115 02       		.uleb128 0x2
 10094 0116 18       		.uleb128 0x18
 10095 0117 00       		.byte	0
 10096 0118 00       		.byte	0
 10097 0119 14       		.uleb128 0x14
 10098 011a 34       		.uleb128 0x34
 10099 011b 00       		.byte	0
 10100 011c 03       		.uleb128 0x3
 10101 011d 08       		.uleb128 0x8
ARM GAS  C:\Users\RECEPC~1\AppData\Local\Temp\ccAuxgaT.s 			page 200


 10102 011e 3A       		.uleb128 0x3a
 10103 011f 0B       		.uleb128 0xb
 10104 0120 3B       		.uleb128 0x3b
 10105 0121 05       		.uleb128 0x5
 10106 0122 49       		.uleb128 0x49
 10107 0123 13       		.uleb128 0x13
 10108 0124 02       		.uleb128 0x2
 10109 0125 18       		.uleb128 0x18
 10110 0126 00       		.byte	0
 10111 0127 00       		.byte	0
 10112 0128 15       		.uleb128 0x15
 10113 0129 05       		.uleb128 0x5
 10114 012a 00       		.byte	0
 10115 012b 03       		.uleb128 0x3
 10116 012c 0E       		.uleb128 0xe
 10117 012d 3A       		.uleb128 0x3a
 10118 012e 0B       		.uleb128 0xb
 10119 012f 3B       		.uleb128 0x3b
 10120 0130 05       		.uleb128 0x5
 10121 0131 49       		.uleb128 0x49
 10122 0132 13       		.uleb128 0x13
 10123 0133 02       		.uleb128 0x2
 10124 0134 18       		.uleb128 0x18
 10125 0135 00       		.byte	0
 10126 0136 00       		.byte	0
 10127 0137 16       		.uleb128 0x16
 10128 0138 0F       		.uleb128 0xf
 10129 0139 00       		.byte	0
 10130 013a 0B       		.uleb128 0xb
 10131 013b 0B       		.uleb128 0xb
 10132 013c 49       		.uleb128 0x49
 10133 013d 13       		.uleb128 0x13
 10134 013e 00       		.byte	0
 10135 013f 00       		.byte	0
 10136 0140 17       		.uleb128 0x17
 10137 0141 34       		.uleb128 0x34
 10138 0142 00       		.byte	0
 10139 0143 03       		.uleb128 0x3
 10140 0144 0E       		.uleb128 0xe
 10141 0145 3A       		.uleb128 0x3a
 10142 0146 0B       		.uleb128 0xb
 10143 0147 3B       		.uleb128 0x3b
 10144 0148 05       		.uleb128 0x5
 10145 0149 49       		.uleb128 0x49
 10146 014a 13       		.uleb128 0x13
 10147 014b 02       		.uleb128 0x2
 10148 014c 18       		.uleb128 0x18
 10149 014d 00       		.byte	0
 10150 014e 00       		.byte	0
 10151 014f 18       		.uleb128 0x18
 10152 0150 34       		.uleb128 0x34
 10153 0151 00       		.byte	0
 10154 0152 03       		.uleb128 0x3
 10155 0153 0E       		.uleb128 0xe
 10156 0154 3A       		.uleb128 0x3a
 10157 0155 0B       		.uleb128 0xb
 10158 0156 3B       		.uleb128 0x3b
ARM GAS  C:\Users\RECEPC~1\AppData\Local\Temp\ccAuxgaT.s 			page 201


 10159 0157 05       		.uleb128 0x5
 10160 0158 49       		.uleb128 0x49
 10161 0159 13       		.uleb128 0x13
 10162 015a 3F       		.uleb128 0x3f
 10163 015b 19       		.uleb128 0x19
 10164 015c 3C       		.uleb128 0x3c
 10165 015d 19       		.uleb128 0x19
 10166 015e 00       		.byte	0
 10167 015f 00       		.byte	0
 10168 0160 19       		.uleb128 0x19
 10169 0161 34       		.uleb128 0x34
 10170 0162 00       		.byte	0
 10171 0163 03       		.uleb128 0x3
 10172 0164 0E       		.uleb128 0xe
 10173 0165 3A       		.uleb128 0x3a
 10174 0166 0B       		.uleb128 0xb
 10175 0167 3B       		.uleb128 0x3b
 10176 0168 0B       		.uleb128 0xb
 10177 0169 49       		.uleb128 0x49
 10178 016a 13       		.uleb128 0x13
 10179 016b 3F       		.uleb128 0x3f
 10180 016c 19       		.uleb128 0x19
 10181 016d 02       		.uleb128 0x2
 10182 016e 18       		.uleb128 0x18
 10183 016f 00       		.byte	0
 10184 0170 00       		.byte	0
 10185 0171 00       		.byte	0
 10186              		.section	.debug_aranges,"",%progbits
 10187 0000 4C000000 		.4byte	0x4c
 10188 0004 0200     		.2byte	0x2
 10189 0006 00000000 		.4byte	.Ldebug_info0
 10190 000a 04       		.byte	0x4
 10191 000b 00       		.byte	0
 10192 000c 0000     		.2byte	0
 10193 000e 0000     		.2byte	0
 10194 0010 00000000 		.4byte	.LFB56
 10195 0014 74000000 		.4byte	.LFE56-.LFB56
 10196 0018 00000000 		.4byte	.LFB57
 10197 001c 00010000 		.4byte	.LFE57-.LFB57
 10198 0020 00000000 		.4byte	.LFB58
 10199 0024 70330000 		.4byte	.LFE58-.LFB58
 10200 0028 00000000 		.4byte	.LFB59
 10201 002c CC010000 		.4byte	.LFE59-.LFB59
 10202 0030 00000000 		.4byte	.LFB60
 10203 0034 6C030000 		.4byte	.LFE60-.LFB60
 10204 0038 00000000 		.4byte	.LFB61
 10205 003c A6000000 		.4byte	.LFE61-.LFB61
 10206 0040 00000000 		.4byte	.LFB62
 10207 0044 60050000 		.4byte	.LFE62-.LFB62
 10208 0048 00000000 		.4byte	0
 10209 004c 00000000 		.4byte	0
 10210              		.section	.debug_ranges,"",%progbits
 10211              	.Ldebug_ranges0:
 10212 0000 00000000 		.4byte	.LFB56
 10213 0004 74000000 		.4byte	.LFE56
 10214 0008 00000000 		.4byte	.LFB57
 10215 000c 00010000 		.4byte	.LFE57
ARM GAS  C:\Users\RECEPC~1\AppData\Local\Temp\ccAuxgaT.s 			page 202


 10216 0010 00000000 		.4byte	.LFB58
 10217 0014 70330000 		.4byte	.LFE58
 10218 0018 00000000 		.4byte	.LFB59
 10219 001c CC010000 		.4byte	.LFE59
 10220 0020 00000000 		.4byte	.LFB60
 10221 0024 6C030000 		.4byte	.LFE60
 10222 0028 00000000 		.4byte	.LFB61
 10223 002c A6000000 		.4byte	.LFE61
 10224 0030 00000000 		.4byte	.LFB62
 10225 0034 60050000 		.4byte	.LFE62
 10226 0038 00000000 		.4byte	0
 10227 003c 00000000 		.4byte	0
 10228              		.section	.debug_line,"",%progbits
 10229              	.Ldebug_line0:
 10230 0000 850D0000 		.section	.debug_str,"MS",%progbits,1
 10230      02005901 
 10230      00000201 
 10230      FB0E0D00 
 10230      01010101 
 10231              	.LASF99:
 10232 0000 73686F77 		.ascii	"show_message\000"
 10232      5F6D6573 
 10232      73616765 
 10232      00
 10233              	.LASF121:
 10234 000d 64656369 		.ascii	"decimalVolume\000"
 10234      6D616C56 
 10234      6F6C756D 
 10234      6500
 10235              	.LASF127:
 10236 001b 74656D70 		.ascii	"temporalCom\000"
 10236      6F72616C 
 10236      436F6D00 
 10237              	.LASF58:
 10238 0027 6D657373 		.ascii	"message\000"
 10238      61676500 
 10239              	.LASF139:
 10240 002f 2E5C4C43 		.ascii	".\\LCD.c\000"
 10240      442E6300 
 10241              	.LASF73:
 10242 0037 62756666 		.ascii	"buffer\000"
 10242      657200
 10243              	.LASF109:
 10244 003e 69704164 		.ascii	"ipAdress\000"
 10244      72657373 
 10244      00
 10245              	.LASF120:
 10246 0047 64656369 		.ascii	"decimalMoney\000"
 10246      6D616C4D 
 10246      6F6E6579 
 10246      00
 10247              	.LASF140:
 10248 0054 433A5C54 		.ascii	"C:\\TeamInsepet\\Gnesys\\Hardware\\Software Mux\\Mu"
 10248      65616D49 
 10248      6E736570 
 10248      65745C47 
 10248      6E657379 
ARM GAS  C:\Users\RECEPC~1\AppData\Local\Temp\ccAuxgaT.s 			page 203


 10249 0082 78204164 		.ascii	"x Advance Encore\\Mux-Advance-Encore\\MuxAdvance.cy"
 10249      76616E63 
 10249      6520456E 
 10249      636F7265 
 10249      5C4D7578 
 10250 00b3 64736E00 		.ascii	"dsn\000"
 10251              	.LASF36:
 10252 00b7 73616C65 		.ascii	"salePerform\000"
 10252      50657266 
 10252      6F726D00 
 10253              	.LASF11:
 10254 00c3 756E7369 		.ascii	"unsigned int\000"
 10254      676E6564 
 10254      20696E74 
 10254      00
 10255              	.LASF98:
 10256 00d0 76657273 		.ascii	"version\000"
 10256      696F6E00 
 10257              	.LASF63:
 10258 00d8 70726F64 		.ascii	"productMarket\000"
 10258      7563744D 
 10258      61726B65 
 10258      7400
 10259              	.LASF6:
 10260 00e6 5F5F696E 		.ascii	"__int32_t\000"
 10260      7433325F 
 10260      7400
 10261              	.LASF56:
 10262 00f0 666C6167 		.ascii	"flagLiftHandle\000"
 10262      4C696674 
 10262      48616E64 
 10262      6C6500
 10263              	.LASF83:
 10264 00ff 7365745F 		.ascii	"set_picture\000"
 10264      70696374 
 10264      75726500 
 10265              	.LASF125:
 10266 010b 72657369 		.ascii	"residue\000"
 10266      64756500 
 10267              	.LASF23:
 10268 0113 69645479 		.ascii	"idType\000"
 10268      706500
 10269              	.LASF137:
 10270 011a 73696465 		.ascii	"side\000"
 10270      00
 10271              	.LASF28:
 10272 011f 73656C65 		.ascii	"selectedSale\000"
 10272      63746564 
 10272      53616C65 
 10272      00
 10273              	.LASF64:
 10274 012c 7175616E 		.ascii	"quantityMarket\000"
 10274      74697479 
 10274      4D61726B 
 10274      657400
 10275              	.LASF113:
 10276 013b 666C6167 		.ascii	"flagPoint2\000"
ARM GAS  C:\Users\RECEPC~1\AppData\Local\Temp\ccAuxgaT.s 			page 204


 10276      506F696E 
 10276      743200
 10277              	.LASF92:
 10278 0146 73637265 		.ascii	"screen\000"
 10278      656E00
 10279              	.LASF60:
 10280 014d 766F6C75 		.ascii	"volumeQuota\000"
 10280      6D655175 
 10280      6F746100 
 10281              	.LASF18:
 10282 0159 666C6F61 		.ascii	"float\000"
 10282      7400
 10283              	.LASF10:
 10284 015f 6C6F6E67 		.ascii	"long long unsigned int\000"
 10284      206C6F6E 
 10284      6720756E 
 10284      7369676E 
 10284      65642069 
 10285              	.LASF46:
 10286 0176 746F7461 		.ascii	"totalVolumePrevious\000"
 10286      6C566F6C 
 10286      756D6550 
 10286      72657669 
 10286      6F757300 
 10287              	.LASF4:
 10288 018a 5F5F7569 		.ascii	"__uint16_t\000"
 10288      6E743136 
 10288      5F7400
 10289              	.LASF108:
 10290 0195 64696769 		.ascii	"digits\000"
 10290      747300
 10291              	.LASF123:
 10292 019c 74696D65 		.ascii	"time\000"
 10292      00
 10293              	.LASF39:
 10294 01a1 70726F64 		.ascii	"productType\000"
 10294      75637454 
 10294      79706500 
 10295              	.LASF115:
 10296 01ad 70726F64 		.ascii	"productNumber\000"
 10296      7563744E 
 10296      756D6265 
 10296      7200
 10297              	.LASF42:
 10298 01bb 64617465 		.ascii	"dateDownHandle\000"
 10298      446F776E 
 10298      48616E64 
 10298      6C6500
 10299              	.LASF24:
 10300 01ca 69645365 		.ascii	"idSerial\000"
 10300      7269616C 
 10300      00
 10301              	.LASF135:
 10302 01d3 62756666 		.ascii	"bufferLCD1\000"
 10302      65724C43 
 10302      443100
 10303              	.LASF136:
ARM GAS  C:\Users\RECEPC~1\AppData\Local\Temp\ccAuxgaT.s 			page 205


 10304 01de 62756666 		.ascii	"bufferLCD2\000"
 10304      65724C43 
 10304      443200
 10305              	.LASF52:
 10306 01e9 6D696C65 		.ascii	"mileageSale\000"
 10306      61676553 
 10306      616C6500 
 10307              	.LASF72:
 10308 01f5 666C6167 		.ascii	"flagChangePPU\000"
 10308      4368616E 
 10308      67655050 
 10308      5500
 10309              	.LASF90:
 10310 0203 626F7474 		.ascii	"bottomless\000"
 10310      6F6D6C65 
 10310      737300
 10311              	.LASF114:
 10312 020e 62757474 		.ascii	"button\000"
 10312      6F6E00
 10313              	.LASF62:
 10314 0215 73657269 		.ascii	"serialMarket\000"
 10314      616C4D61 
 10314      726B6574 
 10314      00
 10315              	.LASF75:
 10316 0222 746F7461 		.ascii	"totalsHandle\000"
 10316      6C734861 
 10316      6E646C65 
 10316      00
 10317              	.LASF38:
 10318 022f 70726573 		.ascii	"presetValue\000"
 10318      65745661 
 10318      6C756500 
 10319              	.LASF128:
 10320 023b 7475726E 		.ascii	"turn\000"
 10320      00
 10321              	.LASF53:
 10322 0240 6964656E 		.ascii	"identySale\000"
 10322      74795361 
 10322      6C6500
 10323              	.LASF106:
 10324 024b 666C6F77 		.ascii	"flowLCD1\000"
 10324      4C434431 
 10324      00
 10325              	.LASF107:
 10326 0254 666C6F77 		.ascii	"flowLCD2\000"
 10326      4C434432 
 10326      00
 10327              	.LASF35:
 10328 025d 73616C65 		.ascii	"saleType\000"
 10328      54797065 
 10328      00
 10329              	.LASF33:
 10330 0266 76616C75 		.ascii	"valueKeys\000"
 10330      654B6579 
 10330      7300
 10331              	.LASF21:
ARM GAS  C:\Users\RECEPC~1\AppData\Local\Temp\ccAuxgaT.s 			page 206


 10332 0270 63686172 		.ascii	"char\000"
 10332      00
 10333              	.LASF110:
 10334 0275 6E756D62 		.ascii	"numberKeys1\000"
 10334      65724B65 
 10334      79733100 
 10335              	.LASF111:
 10336 0281 6E756D62 		.ascii	"numberKeys2\000"
 10336      65724B65 
 10336      79733200 
 10337              	.LASF104:
 10338 028d 636F756E 		.ascii	"countBeagleTX\000"
 10338      74426561 
 10338      676C6554 
 10338      5800
 10339              	.LASF16:
 10340 029b 75696E74 		.ascii	"uint16\000"
 10340      313600
 10341              	.LASF85:
 10342 02a2 64617461 		.ascii	"data\000"
 10342      00
 10343              	.LASF124:
 10344 02a7 64617465 		.ascii	"date\000"
 10344      00
 10345              	.LASF89:
 10346 02ac 6667636F 		.ascii	"fgcolor\000"
 10346      6C6F7200 
 10347              	.LASF12:
 10348 02b4 75696E74 		.ascii	"uint8_t\000"
 10348      385F7400 
 10349              	.LASF55:
 10350 02bc 666C6167 		.ascii	"flagPayment\000"
 10350      5061796D 
 10350      656E7400 
 10351              	.LASF25:
 10352 02c8 69645365 		.ascii	"idSerialCom\000"
 10352      7269616C 
 10352      436F6D00 
 10353              	.LASF61:
 10354 02d4 70707551 		.ascii	"ppuQuota\000"
 10354      756F7461 
 10354      00
 10355              	.LASF48:
 10356 02dd 746F7461 		.ascii	"totalMoneyAfter\000"
 10356      6C4D6F6E 
 10356      65794166 
 10356      74657200 
 10357              	.LASF59:
 10358 02ed 6D6F6E65 		.ascii	"moneyQuota\000"
 10358      7951756F 
 10358      746100
 10359              	.LASF71:
 10360 02f8 7072696E 		.ascii	"printers\000"
 10360      74657273 
 10360      00
 10361              	.LASF116:
 10362 0301 70726573 		.ascii	"presetFast\000"
ARM GAS  C:\Users\RECEPC~1\AppData\Local\Temp\ccAuxgaT.s 			page 207


 10362      65744661 
 10362      737400
 10363              	.LASF77:
 10364 030c 6D6F6E65 		.ascii	"moneySale\000"
 10364      7953616C 
 10364      6500
 10365              	.LASF9:
 10366 0316 6C6F6E67 		.ascii	"long long int\000"
 10366      206C6F6E 
 10366      6720696E 
 10366      7400
 10367              	.LASF79:
 10368 0324 70707553 		.ascii	"ppuSale\000"
 10368      616C6500 
 10369              	.LASF102:
 10370 032c 636F756E 		.ascii	"countAnimation1\000"
 10370      74416E69 
 10370      6D617469 
 10370      6F6E3100 
 10371              	.LASF134:
 10372 033c 73746174 		.ascii	"stateBeagleSoft\000"
 10372      65426561 
 10372      676C6553 
 10372      6F667400 
 10373              	.LASF47:
 10374 034c 746F7461 		.ascii	"totalPPUPrevious\000"
 10374      6C505055 
 10374      50726576 
 10374      696F7573 
 10374      00
 10375              	.LASF103:
 10376 035d 636F756E 		.ascii	"countAnimation2\000"
 10376      74416E69 
 10376      6D617469 
 10376      6F6E3200 
 10377              	.LASF68:
 10378 036d 746F7461 		.ascii	"totalMarket\000"
 10378      6C4D6172 
 10378      6B657400 
 10379              	.LASF138:
 10380 0379 474E5520 		.ascii	"GNU C 4.9.3 20150303 (release) [ARM/embedded-4_9-br"
 10380      4320342E 
 10380      392E3320 
 10380      32303135 
 10380      30333033 
 10381 03ac 616E6368 		.ascii	"anch revision 221220] -mcpu=cortex-m3 -mthumb -g -O"
 10381      20726576 
 10381      6973696F 
 10381      6E203232 
 10381      31323230 
 10382 03df 30202D66 		.ascii	"0 -ffunction-sections -ffat-lto-objects\000"
 10382      66756E63 
 10382      74696F6E 
 10382      2D736563 
 10382      74696F6E 
 10383              	.LASF44:
 10384 0407 74696D65 		.ascii	"timeDownHandle\000"
ARM GAS  C:\Users\RECEPC~1\AppData\Local\Temp\ccAuxgaT.s 			page 208


 10384      446F776E 
 10384      48616E64 
 10384      6C6500
 10385              	.LASF34:
 10386 0416 76656869 		.ascii	"vehicleType\000"
 10386      636C6554 
 10386      79706500 
 10387              	.LASF54:
 10388 0422 666C6167 		.ascii	"flagKeyboard\000"
 10388      4B657962 
 10388      6F617264 
 10388      00
 10389              	.LASF88:
 10390 042f 73697A65 		.ascii	"size\000"
 10390      00
 10391              	.LASF84:
 10392 0434 77726974 		.ascii	"write_LCD\000"
 10392      655F4C43 
 10392      4400
 10393              	.LASF17:
 10394 043e 75696E74 		.ascii	"uint32\000"
 10394      333200
 10395              	.LASF133:
 10396 0445 666C6167 		.ascii	"flagResetMux\000"
 10396      52657365 
 10396      744D7578 
 10396      00
 10397              	.LASF82:
 10398 0452 70696374 		.ascii	"picture\000"
 10398      75726500 
 10399              	.LASF50:
 10400 045a 746F7461 		.ascii	"totalPPUAfter\000"
 10400      6C505055 
 10400      41667465 
 10400      7200
 10401              	.LASF13:
 10402 0468 75696E74 		.ascii	"uint16_t\000"
 10402      31365F74 
 10402      00
 10403              	.LASF95:
 10404 0471 746F6B65 		.ascii	"token\000"
 10404      6E00
 10405              	.LASF31:
 10406 0477 6B657962 		.ascii	"keyboardWayToPay\000"
 10406      6F617264 
 10406      57617954 
 10406      6F506179 
 10406      00
 10407              	.LASF119:
 10408 0488 70707578 		.ascii	"ppux10\000"
 10408      313000
 10409              	.LASF45:
 10410 048f 746F7461 		.ascii	"totalMoneyPrevious\000"
 10410      6C4D6F6E 
 10410      65795072 
 10410      6576696F 
 10410      757300
ARM GAS  C:\Users\RECEPC~1\AppData\Local\Temp\ccAuxgaT.s 			page 209


 10411              	.LASF112:
 10412 04a2 666C6167 		.ascii	"flagPoint1\000"
 10412      506F696E 
 10412      743100
 10413              	.LASF29:
 10414 04ad 6D6F6E65 		.ascii	"moneySelectedSale\000"
 10414      7953656C 
 10414      65637465 
 10414      6453616C 
 10414      6500
 10415              	.LASF96:
 10416 04bf 73686F77 		.ascii	"show_time_date\000"
 10416      5F74696D 
 10416      655F6461 
 10416      746500
 10417              	.LASF122:
 10418 04ce 73796D62 		.ascii	"symbols\000"
 10418      6F6C7300 
 10419              	.LASF97:
 10420 04d6 73686F77 		.ascii	"show_info\000"
 10420      5F696E66 
 10420      6F00
 10421              	.LASF51:
 10422 04e0 6C696365 		.ascii	"licenceSale\000"
 10422      6E636553 
 10422      616C6500 
 10423              	.LASF70:
 10424 04ec 70726963 		.ascii	"priceConsign\000"
 10424      65436F6E 
 10424      7369676E 
 10424      00
 10425              	.LASF2:
 10426 04f9 73686F72 		.ascii	"short int\000"
 10426      7420696E 
 10426      7400
 10427              	.LASF7:
 10428 0503 6C6F6E67 		.ascii	"long int\000"
 10428      20696E74 
 10428      00
 10429              	.LASF101:
 10430 050c 49544D5F 		.ascii	"ITM_RxBuffer\000"
 10430      52784275 
 10430      66666572 
 10430      00
 10431              	.LASF129:
 10432 0519 6C6F636B 		.ascii	"lockTurn\000"
 10432      5475726E 
 10432      00
 10433              	.LASF93:
 10434 0522 666C6167 		.ascii	"flag\000"
 10434      00
 10435              	.LASF57:
 10436 0527 666C6167 		.ascii	"flagEndSale\000"
 10436      456E6453 
 10436      616C6500 
 10437              	.LASF41:
 10438 0533 64617465 		.ascii	"dateLiftHandle\000"
ARM GAS  C:\Users\RECEPC~1\AppData\Local\Temp\ccAuxgaT.s 			page 210


 10438      4C696674 
 10438      48616E64 
 10438      6C6500
 10439              	.LASF100:
 10440 0542 73686F77 		.ascii	"show_market\000"
 10440      5F6D6172 
 10440      6B657400 
 10441              	.LASF3:
 10442 054e 5F5F7569 		.ascii	"__uint8_t\000"
 10442      6E74385F 
 10442      7400
 10443              	.LASF132:
 10444 0558 70617373 		.ascii	"passwordSeller\000"
 10444      776F7264 
 10444      53656C6C 
 10444      657200
 10445              	.LASF49:
 10446 0567 746F7461 		.ascii	"totalVolumeAfter\000"
 10446      6C566F6C 
 10446      756D6541 
 10446      66746572 
 10446      00
 10447              	.LASF20:
 10448 0578 75696E74 		.ascii	"uint64\000"
 10448      363400
 10449              	.LASF117:
 10450 057f 64656C61 		.ascii	"delayPicture1\000"
 10450      79506963 
 10450      74757265 
 10450      3100
 10451              	.LASF118:
 10452 058d 64656C61 		.ascii	"delayPicture2\000"
 10452      79506963 
 10452      74757265 
 10452      3200
 10453              	.LASF40:
 10454 059b 73746174 		.ascii	"stateMux\000"
 10454      654D7578 
 10454      00
 10455              	.LASF22:
 10456 05a4 73697A65 		.ascii	"sizetype\000"
 10456      74797065 
 10456      00
 10457              	.LASF8:
 10458 05ad 6C6F6E67 		.ascii	"long unsigned int\000"
 10458      20756E73 
 10458      69676E65 
 10458      6420696E 
 10458      7400
 10459              	.LASF131:
 10460 05bf 74797065 		.ascii	"typeIdSeller\000"
 10460      49645365 
 10460      6C6C6572 
 10460      00
 10461              	.LASF69:
 10462 05cc 666C6167 		.ascii	"flagProductmarket\000"
 10462      50726F64 
ARM GAS  C:\Users\RECEPC~1\AppData\Local\Temp\ccAuxgaT.s 			page 211


 10462      7563746D 
 10462      61726B65 
 10462      7400
 10463              	.LASF14:
 10464 05de 696E7433 		.ascii	"int32_t\000"
 10464      325F7400 
 10465              	.LASF65:
 10466 05e6 7175616E 		.ascii	"quantAvailableMark\000"
 10466      74417661 
 10466      696C6162 
 10466      6C654D61 
 10466      726B00
 10467              	.LASF27:
 10468 05f9 666C6167 		.ascii	"flagWayToPayMixed\000"
 10468      57617954 
 10468      6F506179 
 10468      4D697865 
 10468      6400
 10469              	.LASF1:
 10470 060b 756E7369 		.ascii	"unsigned char\000"
 10470      676E6564 
 10470      20636861 
 10470      7200
 10471              	.LASF32:
 10472 0619 61757468 		.ascii	"authorizationFlag\000"
 10472      6F72697A 
 10472      6174696F 
 10472      6E466C61 
 10472      6700
 10473              	.LASF66:
 10474 062b 70726963 		.ascii	"priceTotalMarket\000"
 10474      65546F74 
 10474      616C4D61 
 10474      726B6574 
 10474      00
 10475              	.LASF130:
 10476 063c 69645365 		.ascii	"idSeller\000"
 10476      6C6C6572 
 10476      00
 10477              	.LASF81:
 10478 0645 70756D70 		.ascii	"pump\000"
 10478      00
 10479              	.LASF94:
 10480 064a 6D697874 		.ascii	"mixto\000"
 10480      6F00
 10481              	.LASF126:
 10482 0650 74656D70 		.ascii	"temporal\000"
 10482      6F72616C 
 10482      00
 10483              	.LASF37:
 10484 0659 70726573 		.ascii	"presetType\000"
 10484      65745479 
 10484      706500
 10485              	.LASF87:
 10486 0664 706F7378 		.ascii	"posx\000"
 10486      00
 10487              	.LASF86:
ARM GAS  C:\Users\RECEPC~1\AppData\Local\Temp\ccAuxgaT.s 			page 212


 10488 0669 706F7379 		.ascii	"posy\000"
 10488      00
 10489              	.LASF67:
 10490 066e 70726963 		.ascii	"priceUnitMarket\000"
 10490      65556E69 
 10490      744D6172 
 10490      6B657400 
 10491              	.LASF91:
 10492 067e 77726974 		.ascii	"write_button\000"
 10492      655F6275 
 10492      74746F6E 
 10492      00
 10493              	.LASF78:
 10494 068b 766F6C75 		.ascii	"volumeSale\000"
 10494      6D655361 
 10494      6C6500
 10495              	.LASF0:
 10496 0696 7369676E 		.ascii	"signed char\000"
 10496      65642063 
 10496      68617200 
 10497              	.LASF5:
 10498 06a2 73686F72 		.ascii	"short unsigned int\000"
 10498      7420756E 
 10498      7369676E 
 10498      65642069 
 10498      6E7400
 10499              	.LASF105:
 10500 06b5 636F756E 		.ascii	"countPump\000"
 10500      7450756D 
 10500      7000
 10501              	.LASF80:
 10502 06bf 70726F64 		.ascii	"productSale\000"
 10502      75637453 
 10502      616C6500 
 10503              	.LASF15:
 10504 06cb 75696E74 		.ascii	"uint8\000"
 10504      3800
 10505              	.LASF19:
 10506 06d1 646F7562 		.ascii	"double\000"
 10506      6C6500
 10507              	.LASF26:
 10508 06d8 77617954 		.ascii	"wayToPay\000"
 10508      6F506179 
 10508      00
 10509              	.LASF43:
 10510 06e1 74696D65 		.ascii	"timeLiftHandle\000"
 10510      4C696674 
 10510      48616E64 
 10510      6C6500
 10511              	.LASF76:
 10512 06f0 70707541 		.ascii	"ppuAuthorized\000"
 10512      7574686F 
 10512      72697A65 
 10512      6400
 10513              	.LASF30:
 10514 06fe 73657269 		.ascii	"serialSelectedSale\000"
 10514      616C5365 
ARM GAS  C:\Users\RECEPC~1\AppData\Local\Temp\ccAuxgaT.s 			page 213


 10514      6C656374 
 10514      65645361 
 10514      6C6500
 10515              	.LASF74:
 10516 0711 706F7369 		.ascii	"position\000"
 10516      74696F6E 
 10516      00
 10517              		.ident	"GCC: (GNU Tools for ARM Embedded Processors) 4.9.3 20150303 (release) [ARM/embedded-4_9-br
