ARM GAS  C:\Users\PROYEC~1\AppData\Local\Temp\ccMsBWpv.s 			page 1


   1              		.syntax unified
   2              		.cpu cortex-m3
   3              		.fpu softvfp
   4              		.eabi_attribute 20, 1
   5              		.eabi_attribute 21, 1
   6              		.eabi_attribute 23, 3
   7              		.eabi_attribute 24, 1
   8              		.eabi_attribute 25, 1
   9              		.eabi_attribute 26, 1
  10              		.eabi_attribute 30, 6
  11              		.eabi_attribute 34, 1
  12              		.eabi_attribute 18, 4
  13              		.thumb
  14              		.file	"LCD.c"
  15              		.text
  16              	.Ltext0:
  17              		.cfi_sections	.debug_frame
  18              		.comm	countAnimation1,8,8
  19              		.comm	countAnimation2,8,8
  20              		.comm	countBeagleTX,8,8
  21              		.comm	flowLCD1,4,4
  22              		.comm	flowLCD2,4,4
  23              		.comm	digits,1,1
  24              		.comm	ipAdress,12,4
  25              		.comm	numberKeys1,1,1
  26              		.comm	numberKeys2,1,1
  27              		.comm	flagPoint1,1,1
  28              		.comm	flagPoint2,1,1
  29              		.comm	button,960,4
  30              		.comm	productNumber,1,1
  31              		.comm	presetFast,30,4
  32              		.comm	delayPicture1,4,4
  33              		.comm	delayPicture2,4,4
  34              		.comm	ppux10,1,1
  35              		.comm	decimalMoney,1,1
  36              		.comm	decimalVolume,1,1
  37              		.comm	symbols,2,4
  38              		.comm	time,3,4
  39              		.comm	date,3,4
  40              		.comm	screen,2,4
  41              		.comm	residue,14,4
  42              		.comm	temporal,30,4
  43              		.comm	turn,1,1
  44              		.comm	idSeller,25,4
  45              		.comm	typeIdSeller,1,1
  46              		.comm	passwordSeller,8,4
  47              		.comm	flagResetMux,1,1
  48              		.comm	bufferLCD1,635,4
  49              		.comm	bufferLCD2,635,4
  50              		.comm	side,512,4
  51              		.section	.rodata
  52              		.align	2
  53              	.LC0:
  54 0000 AA       		.byte	-86
  55 0001 70       		.byte	112
  56 0002 00       		.byte	0
  57 0003 00       		.byte	0
ARM GAS  C:\Users\PROYEC~1\AppData\Local\Temp\ccMsBWpv.s 			page 2


  58 0004 CC       		.byte	-52
  59 0005 33       		.byte	51
  60 0006 C3       		.byte	-61
  61 0007 3C       		.byte	60
  62              		.section	.text.set_picture,"ax",%progbits
  63              		.align	2
  64              		.global	set_picture
  65              		.thumb
  66              		.thumb_func
  67              		.type	set_picture, %function
  68              	set_picture:
  69              	.LFB56:
  70              		.file 1 ".\\LCD.c"
   1:.\LCD.c       **** /*
   2:.\LCD.c       **** ***************************************************************************************************
   3:.\LCD.c       **** *                                         MUX ADVANCE CODE
   4:.\LCD.c       **** *
   5:.\LCD.c       **** *                             (c) Copyright 2016; Sistemas Insepet LTDA
   6:.\LCD.c       **** *
   7:.\LCD.c       **** *               All rights reserved.  Protected by international copyright laws.
   8:.\LCD.c       **** *               Knowledge of the source code may NOT be used to develop a similar product.
   9:.\LCD.c       **** *               Please help us continue to provide the Embedded community with the finest
  10:.\LCD.c       **** *               software available.  Your honesty is greatly appreciated.
  11:.\LCD.c       **** ***************************************************************************************************
  12:.\LCD.c       **** */
  13:.\LCD.c       **** 
  14:.\LCD.c       **** /*
  15:.\LCD.c       **** ***************************************************************************************************
  16:.\LCD.c       **** *
  17:.\LCD.c       **** *                                            MUX ADVANCE CODE
  18:.\LCD.c       **** *
  19:.\LCD.c       **** *                                             CYPRESS PSoC5LP
  20:.\LCD.c       **** *                                                with the
  21:.\LCD.c       **** *                                            CY8C5969AXI-LP035
  22:.\LCD.c       **** *
  23:.\LCD.c       **** * Filename      : LCD.c
  24:.\LCD.c       **** * Version       : V1.00
  25:.\LCD.c       **** * Programmer(s) : 
  26:.\LCD.c       ****                   
  27:.\LCD.c       **** ***************************************************************************************************
  28:.\LCD.c       **** */
  29:.\LCD.c       **** 
  30:.\LCD.c       **** /*
  31:.\LCD.c       **** ***************************************************************************************************
  32:.\LCD.c       **** *                                             INCLUDE FILES
  33:.\LCD.c       **** ***************************************************************************************************
  34:.\LCD.c       **** */
  35:.\LCD.c       **** 
  36:.\LCD.c       **** #include <device.h>
  37:.\LCD.c       **** #include "variables.h"
  38:.\LCD.c       **** #include "operations.h"
  39:.\LCD.c       **** #include "I2C.h"
  40:.\LCD.c       **** #include "LCD.h"
  41:.\LCD.c       **** 
  42:.\LCD.c       **** 
  43:.\LCD.c       **** /*
  44:.\LCD.c       **** ***************************************************************************************************
ARM GAS  C:\Users\PROYEC~1\AppData\Local\Temp\ccMsBWpv.s 			page 3


  45:.\LCD.c       **** *                                        void set_picture(uint8 lcd, uint16 picture)
  46:.\LCD.c       **** *
  47:.\LCD.c       **** * Description : 
  48:.\LCD.c       **** *               
  49:.\LCD.c       **** *
  50:.\LCD.c       **** * Argument(s) : none
  51:.\LCD.c       **** *
  52:.\LCD.c       **** * Return(s)   : none
  53:.\LCD.c       **** *
  54:.\LCD.c       **** * Caller(s)   :  
  55:.\LCD.c       **** *
  56:.\LCD.c       **** * Note(s)     : none.
  57:.\LCD.c       **** ***************************************************************************************************
  58:.\LCD.c       **** */
  59:.\LCD.c       **** 
  60:.\LCD.c       **** void set_picture(uint8 lcd, uint16 picture){
  71              		.loc 1 60 0
  72              		.cfi_startproc
  73              		@ args = 0, pretend = 0, frame = 24
  74              		@ frame_needed = 1, uses_anonymous_args = 0
  75 0000 80B5     		push	{r7, lr}
  76              		.cfi_def_cfa_offset 8
  77              		.cfi_offset 7, -8
  78              		.cfi_offset 14, -4
  79 0002 86B0     		sub	sp, sp, #24
  80              		.cfi_def_cfa_offset 32
  81 0004 00AF     		add	r7, sp, #0
  82              		.cfi_def_cfa_register 7
  83 0006 0346     		mov	r3, r0
  84 0008 0A46     		mov	r2, r1
  85 000a FB71     		strb	r3, [r7, #7]
  86 000c 1346     		mov	r3, r2	@ movhi
  87 000e BB80     		strh	r3, [r7, #4]	@ movhi
  61:.\LCD.c       ****     uint8 buffer[8]={0xAA,0x70,0x00,0x00,0xCC,0x33,0xC3,0x3C},x;
  88              		.loc 1 61 0
  89 0010 174A     		ldr	r2, .L6
  90 0012 07F10C03 		add	r3, r7, #12
  91 0016 1068     		ldr	r0, [r2]	@ unaligned
  92 0018 5168     		ldr	r1, [r2, #4]	@ unaligned
  93 001a 03C3     		stmia	r3!, {r0, r1}
  62:.\LCD.c       ****     buffer[2]=(picture>>8)&0xFF;
  94              		.loc 1 62 0
  95 001c BB88     		ldrh	r3, [r7, #4]
  96 001e 1B0A     		lsrs	r3, r3, #8
  97 0020 9BB2     		uxth	r3, r3
  98 0022 DBB2     		uxtb	r3, r3
  99 0024 BB73     		strb	r3, [r7, #14]
  63:.\LCD.c       ****     buffer[3]=picture&0xFF;
 100              		.loc 1 63 0
 101 0026 BB88     		ldrh	r3, [r7, #4]	@ movhi
 102 0028 DBB2     		uxtb	r3, r3
 103 002a FB73     		strb	r3, [r7, #15]
  64:.\LCD.c       ****     for(x=0;x<8;x++){
 104              		.loc 1 64 0
 105 002c 0023     		movs	r3, #0
 106 002e FB75     		strb	r3, [r7, #23]
 107 0030 18E0     		b	.L2
ARM GAS  C:\Users\PROYEC~1\AppData\Local\Temp\ccMsBWpv.s 			page 4


 108              	.L5:
  65:.\LCD.c       ****         if(lcd==1){
 109              		.loc 1 65 0
 110 0032 FB79     		ldrb	r3, [r7, #7]	@ zero_extendqisi2
 111 0034 012B     		cmp	r3, #1
 112 0036 09D1     		bne	.L3
  66:.\LCD.c       ****             LCD1_PutChar(buffer[x]);
 113              		.loc 1 66 0
 114 0038 FB7D     		ldrb	r3, [r7, #23]	@ zero_extendqisi2
 115 003a 07F11802 		add	r2, r7, #24
 116 003e 1344     		add	r3, r3, r2
 117 0040 13F80C3C 		ldrb	r3, [r3, #-12]	@ zero_extendqisi2
 118 0044 1846     		mov	r0, r3
 119 0046 FFF7FEFF 		bl	LCD1_PutChar
 120 004a 08E0     		b	.L4
 121              	.L3:
  67:.\LCD.c       ****         }else{
  68:.\LCD.c       ****             LCD2_PutChar(buffer[x]);
 122              		.loc 1 68 0
 123 004c FB7D     		ldrb	r3, [r7, #23]	@ zero_extendqisi2
 124 004e 07F11802 		add	r2, r7, #24
 125 0052 1344     		add	r3, r3, r2
 126 0054 13F80C3C 		ldrb	r3, [r3, #-12]	@ zero_extendqisi2
 127 0058 1846     		mov	r0, r3
 128 005a FFF7FEFF 		bl	LCD2_PutChar
 129              	.L4:
  64:.\LCD.c       ****         if(lcd==1){
 130              		.loc 1 64 0 discriminator 2
 131 005e FB7D     		ldrb	r3, [r7, #23]	@ zero_extendqisi2
 132 0060 0133     		adds	r3, r3, #1
 133 0062 FB75     		strb	r3, [r7, #23]
 134              	.L2:
  64:.\LCD.c       ****         if(lcd==1){
 135              		.loc 1 64 0 is_stmt 0 discriminator 1
 136 0064 FB7D     		ldrb	r3, [r7, #23]	@ zero_extendqisi2
 137 0066 072B     		cmp	r3, #7
 138 0068 E3D9     		bls	.L5
  69:.\LCD.c       ****         }
  70:.\LCD.c       ****     }
  71:.\LCD.c       **** }
 139              		.loc 1 71 0 is_stmt 1
 140 006a 1837     		adds	r7, r7, #24
 141              		.cfi_def_cfa_offset 8
 142 006c BD46     		mov	sp, r7
 143              		.cfi_def_cfa_register 13
 144              		@ sp needed
 145 006e 80BD     		pop	{r7, pc}
 146              	.L7:
 147              		.align	2
 148              	.L6:
 149 0070 00000000 		.word	.LC0
 150              		.cfi_endproc
 151              	.LFE56:
 152              		.size	set_picture, .-set_picture
 153              		.section	.rodata
 154              		.align	2
 155              	.LC1:
ARM GAS  C:\Users\PROYEC~1\AppData\Local\Temp\ccMsBWpv.s 			page 5


 156 0008 AA       		.byte	-86
 157 0009 98       		.byte	-104
 158 000a 00       		.byte	0
 159 000b 00       		.byte	0
 160 000c 01       		.byte	1
 161 000d 39       		.byte	57
 162 000e 23       		.byte	35
 163 000f C5       		.byte	-59
 164 0010 02       		.byte	2
 165 0011 00       		.byte	0
 166 0012 00       		.byte	0
 167 0013 FF       		.byte	-1
 168 0014 FF       		.byte	-1
 169 0015 00       		.byte	0
 170 0016 CC       		.byte	-52
 171 0017 33       		.byte	51
 172 0018 C3       		.byte	-61
 173 0019 3C       		.byte	60
 174 001a 0000     		.section	.text.write_LCD,"ax",%progbits
 175              		.align	2
 176              		.global	write_LCD
 177              		.thumb
 178              		.thumb_func
 179              		.type	write_LCD, %function
 180              	write_LCD:
 181              	.LFB57:
  72:.\LCD.c       **** 
  73:.\LCD.c       **** /*
  74:.\LCD.c       **** ***************************************************************************************************
  75:.\LCD.c       **** *          void write_LCD(uint8_t lcd, uint8_t data, uint16_t posy, uint16_t posx,uint8_t size)
  76:.\LCD.c       **** *
  77:.\LCD.c       **** * Description : 
  78:.\LCD.c       **** *               
  79:.\LCD.c       **** *
  80:.\LCD.c       **** * Argument(s) : none
  81:.\LCD.c       **** *
  82:.\LCD.c       **** * Return(s)   : none
  83:.\LCD.c       **** *
  84:.\LCD.c       **** * Caller(s)   :  
  85:.\LCD.c       **** *
  86:.\LCD.c       **** * Note(s)     : none.
  87:.\LCD.c       **** ***************************************************************************************************
  88:.\LCD.c       **** */
  89:.\LCD.c       **** 
  90:.\LCD.c       **** void write_LCD(uint8_t lcd,uint8_t data, uint16_t posy, uint16_t posx,uint8_t size, uint16_t fgcolo
 182              		.loc 1 90 0
 183              		.cfi_startproc
 184              		@ args = 12, pretend = 0, frame = 32
 185              		@ frame_needed = 1, uses_anonymous_args = 0
 186 0000 B0B5     		push	{r4, r5, r7, lr}
 187              		.cfi_def_cfa_offset 16
 188              		.cfi_offset 4, -16
 189              		.cfi_offset 5, -12
 190              		.cfi_offset 7, -8
 191              		.cfi_offset 14, -4
 192 0002 88B0     		sub	sp, sp, #32
 193              		.cfi_def_cfa_offset 48
ARM GAS  C:\Users\PROYEC~1\AppData\Local\Temp\ccMsBWpv.s 			page 6


 194 0004 00AF     		add	r7, sp, #0
 195              		.cfi_def_cfa_register 7
 196 0006 0446     		mov	r4, r0
 197 0008 0846     		mov	r0, r1
 198 000a 1146     		mov	r1, r2
 199 000c 1A46     		mov	r2, r3
 200 000e 2346     		mov	r3, r4
 201 0010 FB71     		strb	r3, [r7, #7]
 202 0012 0346     		mov	r3, r0
 203 0014 BB71     		strb	r3, [r7, #6]
 204 0016 0B46     		mov	r3, r1	@ movhi
 205 0018 BB80     		strh	r3, [r7, #4]	@ movhi
 206 001a 1346     		mov	r3, r2	@ movhi
 207 001c 7B80     		strh	r3, [r7, #2]	@ movhi
  91:.\LCD.c       **** uint8_t buffer[18]={0xAA,0x98,0,0,0x01,0x39,0x23,0xC5,0x02,0x00,0x00,0xFF,0xFF,0,0xCC,0x33,0xC3,0x3
 208              		.loc 1 91 0
 209 001e 374B     		ldr	r3, .L14
 210 0020 07F10C04 		add	r4, r7, #12
 211 0024 1D46     		mov	r5, r3
 212 0026 2868     		ldr	r0, [r5]	@ unaligned
 213 0028 6968     		ldr	r1, [r5, #4]	@ unaligned
 214 002a AA68     		ldr	r2, [r5, #8]	@ unaligned
 215 002c EB68     		ldr	r3, [r5, #12]	@ unaligned
 216 002e 0FC4     		stmia	r4!, {r0, r1, r2, r3}
 217 0030 2B8A     		ldrh	r3, [r5, #16]	@ unaligned
 218 0032 2380     		strh	r3, [r4]	@ unaligned
  92:.\LCD.c       **** 	buffer[2] =(0x0C*(posx*(size+1)))>>8;
 219              		.loc 1 92 0
 220 0034 7B88     		ldrh	r3, [r7, #2]
 221 0036 97F83020 		ldrb	r2, [r7, #48]	@ zero_extendqisi2
 222 003a 0132     		adds	r2, r2, #1
 223 003c 02FB03F2 		mul	r2, r2, r3
 224 0040 1346     		mov	r3, r2
 225 0042 5B00     		lsls	r3, r3, #1
 226 0044 1344     		add	r3, r3, r2
 227 0046 9B00     		lsls	r3, r3, #2
 228 0048 1B12     		asrs	r3, r3, #8
 229 004a DBB2     		uxtb	r3, r3
 230 004c BB73     		strb	r3, [r7, #14]
  93:.\LCD.c       **** 	buffer[3] =(0x0C*(posx*(size+1)))&0xFF;
 231              		.loc 1 93 0
 232 004e 7B88     		ldrh	r3, [r7, #2]	@ movhi
 233 0050 DBB2     		uxtb	r3, r3
 234 0052 97F83020 		ldrb	r2, [r7, #48]	@ zero_extendqisi2
 235 0056 0132     		adds	r2, r2, #1
 236 0058 D2B2     		uxtb	r2, r2
 237 005a 02FB03F3 		mul	r3, r2, r3
 238 005e DBB2     		uxtb	r3, r3
 239 0060 1A46     		mov	r2, r3
 240 0062 5200     		lsls	r2, r2, #1
 241 0064 1344     		add	r3, r3, r2
 242 0066 9B00     		lsls	r3, r3, #2
 243 0068 DBB2     		uxtb	r3, r3
 244 006a FB73     		strb	r3, [r7, #15]
  94:.\LCD.c       **** 	buffer[4] =(0x0E*posy)>>8;
 245              		.loc 1 94 0
 246 006c BA88     		ldrh	r2, [r7, #4]
ARM GAS  C:\Users\PROYEC~1\AppData\Local\Temp\ccMsBWpv.s 			page 7


 247 006e 1346     		mov	r3, r2
 248 0070 DB00     		lsls	r3, r3, #3
 249 0072 9B1A     		subs	r3, r3, r2
 250 0074 5B00     		lsls	r3, r3, #1
 251 0076 1B12     		asrs	r3, r3, #8
 252 0078 DBB2     		uxtb	r3, r3
 253 007a 3B74     		strb	r3, [r7, #16]
  95:.\LCD.c       **** 	buffer[5] =(0x0E*posy)&0xFF;
 254              		.loc 1 95 0
 255 007c BB88     		ldrh	r3, [r7, #4]	@ movhi
 256 007e DBB2     		uxtb	r3, r3
 257 0080 1A46     		mov	r2, r3
 258 0082 D200     		lsls	r2, r2, #3
 259 0084 D31A     		subs	r3, r2, r3
 260 0086 5B00     		lsls	r3, r3, #1
 261 0088 DBB2     		uxtb	r3, r3
 262 008a 7B74     		strb	r3, [r7, #17]
  96:.\LCD.c       **** 	buffer[6] =0x23+size;
 263              		.loc 1 96 0
 264 008c 97F83030 		ldrb	r3, [r7, #48]
 265 0090 2333     		adds	r3, r3, #35
 266 0092 DBB2     		uxtb	r3, r3
 267 0094 BB74     		strb	r3, [r7, #18]
  97:.\LCD.c       ****     if(bottomless=='Y'){
 268              		.loc 1 97 0
 269 0096 97F83830 		ldrb	r3, [r7, #56]	@ zero_extendqisi2
 270 009a 592B     		cmp	r3, #89
 271 009c 01D1     		bne	.L9
  98:.\LCD.c       ****          buffer[7]=0x85;
 272              		.loc 1 98 0
 273 009e 8523     		movs	r3, #133
 274 00a0 FB74     		strb	r3, [r7, #19]
 275              	.L9:
  99:.\LCD.c       ****     }
 100:.\LCD.c       ****     buffer[9] =(fgcolor&0xFF00)>>8;
 276              		.loc 1 100 0
 277 00a2 BB8E     		ldrh	r3, [r7, #52]
 278 00a4 1B0A     		lsrs	r3, r3, #8
 279 00a6 9BB2     		uxth	r3, r3
 280 00a8 DBB2     		uxtb	r3, r3
 281 00aa 7B75     		strb	r3, [r7, #21]
 101:.\LCD.c       ****     buffer[10]=(fgcolor&0x00FF);
 282              		.loc 1 101 0
 283 00ac BB8E     		ldrh	r3, [r7, #52]	@ movhi
 284 00ae DBB2     		uxtb	r3, r3
 285 00b0 BB75     		strb	r3, [r7, #22]
 102:.\LCD.c       **** 	buffer[13]=data;
 286              		.loc 1 102 0
 287 00b2 BB79     		ldrb	r3, [r7, #6]
 288 00b4 7B76     		strb	r3, [r7, #25]
 103:.\LCD.c       **** 	for(x=0;x<=17;x++){
 289              		.loc 1 103 0
 290 00b6 0023     		movs	r3, #0
 291 00b8 FB77     		strb	r3, [r7, #31]
 292 00ba 18E0     		b	.L10
 293              	.L13:
 104:.\LCD.c       **** 		if(lcd==1){
ARM GAS  C:\Users\PROYEC~1\AppData\Local\Temp\ccMsBWpv.s 			page 8


 294              		.loc 1 104 0
 295 00bc FB79     		ldrb	r3, [r7, #7]	@ zero_extendqisi2
 296 00be 012B     		cmp	r3, #1
 297 00c0 09D1     		bne	.L11
 105:.\LCD.c       **** 			LCD1_PutChar(buffer[x]);
 298              		.loc 1 105 0
 299 00c2 FB7F     		ldrb	r3, [r7, #31]	@ zero_extendqisi2
 300 00c4 07F12002 		add	r2, r7, #32
 301 00c8 1344     		add	r3, r3, r2
 302 00ca 13F8143C 		ldrb	r3, [r3, #-20]	@ zero_extendqisi2
 303 00ce 1846     		mov	r0, r3
 304 00d0 FFF7FEFF 		bl	LCD1_PutChar
 305 00d4 08E0     		b	.L12
 306              	.L11:
 106:.\LCD.c       **** 		}
 107:.\LCD.c       **** 		else{
 108:.\LCD.c       **** 			LCD2_PutChar(buffer[x]);
 307              		.loc 1 108 0
 308 00d6 FB7F     		ldrb	r3, [r7, #31]	@ zero_extendqisi2
 309 00d8 07F12002 		add	r2, r7, #32
 310 00dc 1344     		add	r3, r3, r2
 311 00de 13F8143C 		ldrb	r3, [r3, #-20]	@ zero_extendqisi2
 312 00e2 1846     		mov	r0, r3
 313 00e4 FFF7FEFF 		bl	LCD2_PutChar
 314              	.L12:
 103:.\LCD.c       **** 		if(lcd==1){
 315              		.loc 1 103 0 discriminator 2
 316 00e8 FB7F     		ldrb	r3, [r7, #31]	@ zero_extendqisi2
 317 00ea 0133     		adds	r3, r3, #1
 318 00ec FB77     		strb	r3, [r7, #31]
 319              	.L10:
 103:.\LCD.c       **** 		if(lcd==1){
 320              		.loc 1 103 0 is_stmt 0 discriminator 1
 321 00ee FB7F     		ldrb	r3, [r7, #31]	@ zero_extendqisi2
 322 00f0 112B     		cmp	r3, #17
 323 00f2 E3D9     		bls	.L13
 109:.\LCD.c       **** 		}	
 110:.\LCD.c       **** 	}	
 111:.\LCD.c       **** }
 324              		.loc 1 111 0 is_stmt 1
 325 00f4 2037     		adds	r7, r7, #32
 326              		.cfi_def_cfa_offset 16
 327 00f6 BD46     		mov	sp, r7
 328              		.cfi_def_cfa_register 13
 329              		@ sp needed
 330 00f8 B0BD     		pop	{r4, r5, r7, pc}
 331              	.L15:
 332 00fa 00BF     		.align	2
 333              	.L14:
 334 00fc 08000000 		.word	.LC1
 335              		.cfi_endproc
 336              	.LFE57:
 337              		.size	write_LCD, .-write_LCD
 338              		.section	.text.write_button,"ax",%progbits
 339              		.align	2
 340              		.global	write_button
 341              		.thumb
ARM GAS  C:\Users\PROYEC~1\AppData\Local\Temp\ccMsBWpv.s 			page 9


 342              		.thumb_func
 343              		.type	write_button, %function
 344              	write_button:
 345              	.LFB58:
 112:.\LCD.c       **** 
 113:.\LCD.c       **** /*
 114:.\LCD.c       **** ***************************************************************************************************
 115:.\LCD.c       **** *                                    void write_button(uint8 lcd, uint8 screen)
 116:.\LCD.c       **** *
 117:.\LCD.c       **** * Description : 
 118:.\LCD.c       **** *               
 119:.\LCD.c       **** *
 120:.\LCD.c       **** * Argument(s) : none
 121:.\LCD.c       **** *
 122:.\LCD.c       **** * Return(s)   : none
 123:.\LCD.c       **** *
 124:.\LCD.c       **** * Caller(s)   :  
 125:.\LCD.c       **** *
 126:.\LCD.c       **** * Note(s)     : none.
 127:.\LCD.c       **** ***************************************************************************************************
 128:.\LCD.c       **** */
 129:.\LCD.c       **** 
 130:.\LCD.c       **** void write_button(uint8 lcd, uint8 screen){
 346              		.loc 1 130 0
 347              		.cfi_startproc
 348              		@ args = 0, pretend = 0, frame = 16
 349              		@ frame_needed = 1, uses_anonymous_args = 0
 350 0000 90B5     		push	{r4, r7, lr}
 351              		.cfi_def_cfa_offset 12
 352              		.cfi_offset 4, -12
 353              		.cfi_offset 7, -8
 354              		.cfi_offset 14, -4
 355 0002 89B0     		sub	sp, sp, #36
 356              		.cfi_def_cfa_offset 48
 357 0004 04AF     		add	r7, sp, #16
 358              		.cfi_def_cfa 7, 32
 359 0006 0346     		mov	r3, r0
 360 0008 0A46     		mov	r2, r1
 361 000a FB71     		strb	r3, [r7, #7]
 362 000c 1346     		mov	r3, r2
 363 000e BB71     		strb	r3, [r7, #6]
 131:.\LCD.c       ****     uint8 x,y,flag;
 132:.\LCD.c       ****     switch(screen){
 364              		.loc 1 132 0
 365 0010 BB79     		ldrb	r3, [r7, #6]	@ zero_extendqisi2
 366 0012 013B     		subs	r3, r3, #1
 367 0014 782B     		cmp	r3, #120
 368 0016 03F21681 		bhi	.L16
 369 001a 01A2     		adr	r2, .L19
 370 001c 52F823F0 		ldr	pc, [r2, r3, lsl #2]
 371              		.p2align 2
 372              	.L19:
 373 0020 3B200000 		.word	.L18+1
 374 0024 77210000 		.word	.L20+1
 375 0028 AF220000 		.word	.L21+1
 376 002c EB230000 		.word	.L22+1
 377 0030 47320000 		.word	.L16+1
ARM GAS  C:\Users\PROYEC~1\AppData\Local\Temp\ccMsBWpv.s 			page 10


 378 0034 47320000 		.word	.L16+1
 379 0038 47320000 		.word	.L16+1
 380 003c 47320000 		.word	.L16+1
 381 0040 47320000 		.word	.L16+1
 382 0044 47320000 		.word	.L16+1
 383 0048 47320000 		.word	.L16+1
 384 004c 47320000 		.word	.L16+1
 385 0050 47320000 		.word	.L16+1
 386 0054 47320000 		.word	.L16+1
 387 0058 47320000 		.word	.L16+1
 388 005c 47320000 		.word	.L16+1
 389 0060 47320000 		.word	.L16+1
 390 0064 47320000 		.word	.L16+1
 391 0068 47320000 		.word	.L16+1
 392 006c 47320000 		.word	.L16+1
 393 0070 47320000 		.word	.L16+1
 394 0074 47320000 		.word	.L16+1
 395 0078 47320000 		.word	.L16+1
 396 007c 47320000 		.word	.L16+1
 397 0080 47320000 		.word	.L16+1
 398 0084 47320000 		.word	.L16+1
 399 0088 47320000 		.word	.L16+1
 400 008c 47320000 		.word	.L16+1
 401 0090 47320000 		.word	.L16+1
 402 0094 47320000 		.word	.L16+1
 403 0098 47320000 		.word	.L16+1
 404 009c 47320000 		.word	.L16+1
 405 00a0 47320000 		.word	.L16+1
 406 00a4 47320000 		.word	.L16+1
 407 00a8 47320000 		.word	.L16+1
 408 00ac 47320000 		.word	.L16+1
 409 00b0 47320000 		.word	.L16+1
 410 00b4 47320000 		.word	.L16+1
 411 00b8 47320000 		.word	.L16+1
 412 00bc 47320000 		.word	.L16+1
 413 00c0 47320000 		.word	.L16+1
 414 00c4 4F1F0000 		.word	.L23+1
 415 00c8 47320000 		.word	.L16+1
 416 00cc 47320000 		.word	.L16+1
 417 00d0 47320000 		.word	.L16+1
 418 00d4 47320000 		.word	.L16+1
 419 00d8 47320000 		.word	.L16+1
 420 00dc D91E0000 		.word	.L24+1
 421 00e0 B9060000 		.word	.L25+1
 422 00e4 2F070000 		.word	.L26+1
 423 00e8 911B0000 		.word	.L27+1
 424 00ec 071C0000 		.word	.L28+1
 425 00f0 7D1C0000 		.word	.L29+1
 426 00f4 F31C0000 		.word	.L30+1
 427 00f8 691D0000 		.word	.L31+1
 428 00fc ED1D0000 		.word	.L32+1
 429 0100 631E0000 		.word	.L33+1
 430 0104 47320000 		.word	.L16+1
 431 0108 47320000 		.word	.L16+1
 432 010c 47320000 		.word	.L16+1
 433 0110 47320000 		.word	.L16+1
 434 0114 47320000 		.word	.L16+1
ARM GAS  C:\Users\PROYEC~1\AppData\Local\Temp\ccMsBWpv.s 			page 11


 435 0118 47320000 		.word	.L16+1
 436 011c 47320000 		.word	.L16+1
 437 0120 65270000 		.word	.L34+1
 438 0124 47320000 		.word	.L16+1
 439 0128 15050000 		.word	.L35+1
 440 012c 47320000 		.word	.L16+1
 441 0130 D5090000 		.word	.L36+1
 442 0134 C51F0000 		.word	.L37+1
 443 0138 BF260000 		.word	.L38+1
 444 013c 47320000 		.word	.L16+1
 445 0140 33030000 		.word	.L39+1
 446 0144 47320000 		.word	.L16+1
 447 0148 A3310000 		.word	.L40+1
 448 014c 47320000 		.word	.L16+1
 449 0150 05020000 		.word	.L41+1
 450 0154 47320000 		.word	.L16+1
 451 0158 47320000 		.word	.L16+1
 452 015c B1070000 		.word	.L42+1
 453 0160 29310000 		.word	.L43+1
 454 0164 47320000 		.word	.L16+1
 455 0168 6B040000 		.word	.L44+1
 456 016c 510A0000 		.word	.L45+1
 457 0170 E9080000 		.word	.L46+1
 458 0174 23250000 		.word	.L47+1
 459 0178 5F090000 		.word	.L48+1
 460 017c 47320000 		.word	.L16+1
 461 0180 47320000 		.word	.L16+1
 462 0184 47320000 		.word	.L16+1
 463 0188 47320000 		.word	.L16+1
 464 018c 47320000 		.word	.L16+1
 465 0190 47320000 		.word	.L16+1
 466 0194 47320000 		.word	.L16+1
 467 0198 47320000 		.word	.L16+1
 468 019c 47320000 		.word	.L16+1
 469 01a0 B7300000 		.word	.L49+1
 470 01a4 47320000 		.word	.L16+1
 471 01a8 072C0000 		.word	.L50+1
 472 01ac 47320000 		.word	.L16+1
 473 01b0 47320000 		.word	.L16+1
 474 01b4 47320000 		.word	.L16+1
 475 01b8 47320000 		.word	.L16+1
 476 01bc 47320000 		.word	.L16+1
 477 01c0 77290000 		.word	.L51+1
 478 01c4 ED290000 		.word	.L52+1
 479 01c8 612A0000 		.word	.L53+1
 480 01cc DB2A0000 		.word	.L54+1
 481 01d0 DB270000 		.word	.L55+1
 482 01d4 4F2B0000 		.word	.L56+1
 483 01d8 C32B0000 		.word	.L57+1
 484 01dc 2F2F0000 		.word	.L58+1
 485 01e0 47320000 		.word	.L16+1
 486 01e4 47320000 		.word	.L16+1
 487 01e8 47320000 		.word	.L16+1
 488 01ec D1110000 		.word	.L59+1
 489 01f0 812E0000 		.word	.L60+1
 490 01f4 47320000 		.word	.L16+1
 491 01f8 47320000 		.word	.L16+1
ARM GAS  C:\Users\PROYEC~1\AppData\Local\Temp\ccMsBWpv.s 			page 12


 492 01fc 45300000 		.word	.L61+1
 493 0200 D32F0000 		.word	.L62+1
 494              		.p2align 1
 495              	.L41:
 133:.\LCD.c       ****         case 'M'://Menu
 134:.\LCD.c       ****             for(x=0;x<8;x++){
 496              		.loc 1 134 0
 497 0204 0023     		movs	r3, #0
 498 0206 FB73     		strb	r3, [r7, #15]
 499 0208 8DE0     		b	.L63
 500              	.L64:
 135:.\LCD.c       ****                 write_LCD(lcd,button[0][x],9,x+4,1,0xFFFF,'Y');     //Nombre de boton Ventas
 501              		.loc 1 135 0 discriminator 3
 502 020a FB7B     		ldrb	r3, [r7, #15]	@ zero_extendqisi2
 503 020c 984A     		ldr	r2, .L245
 504 020e D35C     		ldrb	r3, [r2, r3]
 505 0210 DAB2     		uxtb	r2, r3
 506 0212 FB7B     		ldrb	r3, [r7, #15]	@ zero_extendqisi2
 507 0214 9BB2     		uxth	r3, r3
 508 0216 0433     		adds	r3, r3, #4
 509 0218 9CB2     		uxth	r4, r3
 510 021a F979     		ldrb	r1, [r7, #7]	@ zero_extendqisi2
 511 021c 0123     		movs	r3, #1
 512 021e 0093     		str	r3, [sp]
 513 0220 4FF6FF73 		movw	r3, #65535
 514 0224 0193     		str	r3, [sp, #4]
 515 0226 5923     		movs	r3, #89
 516 0228 0293     		str	r3, [sp, #8]
 517 022a 0846     		mov	r0, r1
 518 022c 1146     		mov	r1, r2
 519 022e 0922     		movs	r2, #9
 520 0230 2346     		mov	r3, r4
 521 0232 FFF7FEFF 		bl	write_LCD
 136:.\LCD.c       ****                 write_LCD(lcd,button[1][x],9,x+15,1,0xFFFF,'Y');    //Nombre de boton Turnos
 522              		.loc 1 136 0 discriminator 3
 523 0236 FB7B     		ldrb	r3, [r7, #15]	@ zero_extendqisi2
 524 0238 8D4A     		ldr	r2, .L245
 525 023a 1344     		add	r3, r3, r2
 526 023c 1B7A     		ldrb	r3, [r3, #8]
 527 023e DAB2     		uxtb	r2, r3
 528 0240 FB7B     		ldrb	r3, [r7, #15]	@ zero_extendqisi2
 529 0242 9BB2     		uxth	r3, r3
 530 0244 0F33     		adds	r3, r3, #15
 531 0246 9CB2     		uxth	r4, r3
 532 0248 F979     		ldrb	r1, [r7, #7]	@ zero_extendqisi2
 533 024a 0123     		movs	r3, #1
 534 024c 0093     		str	r3, [sp]
 535 024e 4FF6FF73 		movw	r3, #65535
 536 0252 0193     		str	r3, [sp, #4]
 537 0254 5923     		movs	r3, #89
 538 0256 0293     		str	r3, [sp, #8]
 539 0258 0846     		mov	r0, r1
 540 025a 1146     		mov	r1, r2
 541 025c 0922     		movs	r2, #9
 542 025e 2346     		mov	r3, r4
 543 0260 FFF7FEFF 		bl	write_LCD
 137:.\LCD.c       ****                 write_LCD(lcd,button[2][x],15,x+4,1,0xFFFF,'Y');    //Nombre de boton Canasta
ARM GAS  C:\Users\PROYEC~1\AppData\Local\Temp\ccMsBWpv.s 			page 13


 544              		.loc 1 137 0 discriminator 3
 545 0264 FB7B     		ldrb	r3, [r7, #15]	@ zero_extendqisi2
 546 0266 824A     		ldr	r2, .L245
 547 0268 1344     		add	r3, r3, r2
 548 026a 1B7C     		ldrb	r3, [r3, #16]
 549 026c DAB2     		uxtb	r2, r3
 550 026e FB7B     		ldrb	r3, [r7, #15]	@ zero_extendqisi2
 551 0270 9BB2     		uxth	r3, r3
 552 0272 0433     		adds	r3, r3, #4
 553 0274 9CB2     		uxth	r4, r3
 554 0276 F979     		ldrb	r1, [r7, #7]	@ zero_extendqisi2
 555 0278 0123     		movs	r3, #1
 556 027a 0093     		str	r3, [sp]
 557 027c 4FF6FF73 		movw	r3, #65535
 558 0280 0193     		str	r3, [sp, #4]
 559 0282 5923     		movs	r3, #89
 560 0284 0293     		str	r3, [sp, #8]
 561 0286 0846     		mov	r0, r1
 562 0288 1146     		mov	r1, r2
 563 028a 0F22     		movs	r2, #15
 564 028c 2346     		mov	r3, r4
 565 028e FFF7FEFF 		bl	write_LCD
 138:.\LCD.c       ****                 write_LCD(lcd,button[3][x],15,x+15,1,0xFFFF,'Y');   //Nombre de boton Consignacione
 566              		.loc 1 138 0 discriminator 3
 567 0292 FB7B     		ldrb	r3, [r7, #15]	@ zero_extendqisi2
 568 0294 764A     		ldr	r2, .L245
 569 0296 1344     		add	r3, r3, r2
 570 0298 1B7E     		ldrb	r3, [r3, #24]
 571 029a DAB2     		uxtb	r2, r3
 572 029c FB7B     		ldrb	r3, [r7, #15]	@ zero_extendqisi2
 573 029e 9BB2     		uxth	r3, r3
 574 02a0 0F33     		adds	r3, r3, #15
 575 02a2 9CB2     		uxth	r4, r3
 576 02a4 F979     		ldrb	r1, [r7, #7]	@ zero_extendqisi2
 577 02a6 0123     		movs	r3, #1
 578 02a8 0093     		str	r3, [sp]
 579 02aa 4FF6FF73 		movw	r3, #65535
 580 02ae 0193     		str	r3, [sp, #4]
 581 02b0 5923     		movs	r3, #89
 582 02b2 0293     		str	r3, [sp, #8]
 583 02b4 0846     		mov	r0, r1
 584 02b6 1146     		mov	r1, r2
 585 02b8 0F22     		movs	r2, #15
 586 02ba 2346     		mov	r3, r4
 587 02bc FFF7FEFF 		bl	write_LCD
 139:.\LCD.c       ****                 write_LCD(lcd,button[4][x],21,x+4,1,0xFFFF,'Y');    //Nombre de boton Mantenimiento
 588              		.loc 1 139 0 discriminator 3
 589 02c0 FB7B     		ldrb	r3, [r7, #15]	@ zero_extendqisi2
 590 02c2 6B4A     		ldr	r2, .L245
 591 02c4 1344     		add	r3, r3, r2
 592 02c6 93F82030 		ldrb	r3, [r3, #32]
 593 02ca DAB2     		uxtb	r2, r3
 594 02cc FB7B     		ldrb	r3, [r7, #15]	@ zero_extendqisi2
 595 02ce 9BB2     		uxth	r3, r3
 596 02d0 0433     		adds	r3, r3, #4
 597 02d2 9CB2     		uxth	r4, r3
 598 02d4 F979     		ldrb	r1, [r7, #7]	@ zero_extendqisi2
ARM GAS  C:\Users\PROYEC~1\AppData\Local\Temp\ccMsBWpv.s 			page 14


 599 02d6 0123     		movs	r3, #1
 600 02d8 0093     		str	r3, [sp]
 601 02da 4FF6FF73 		movw	r3, #65535
 602 02de 0193     		str	r3, [sp, #4]
 603 02e0 5923     		movs	r3, #89
 604 02e2 0293     		str	r3, [sp, #8]
 605 02e4 0846     		mov	r0, r1
 606 02e6 1146     		mov	r1, r2
 607 02e8 1522     		movs	r2, #21
 608 02ea 2346     		mov	r3, r4
 609 02ec FFF7FEFF 		bl	write_LCD
 140:.\LCD.c       ****                 write_LCD(lcd,button[5][x],21,x+15,1,0xFFFF,'Y');   //Nombre de boton Copia de Reci
 610              		.loc 1 140 0 discriminator 3
 611 02f0 FB7B     		ldrb	r3, [r7, #15]	@ zero_extendqisi2
 612 02f2 5F4A     		ldr	r2, .L245
 613 02f4 1344     		add	r3, r3, r2
 614 02f6 93F82830 		ldrb	r3, [r3, #40]
 615 02fa DAB2     		uxtb	r2, r3
 616 02fc FB7B     		ldrb	r3, [r7, #15]	@ zero_extendqisi2
 617 02fe 9BB2     		uxth	r3, r3
 618 0300 0F33     		adds	r3, r3, #15
 619 0302 9CB2     		uxth	r4, r3
 620 0304 F979     		ldrb	r1, [r7, #7]	@ zero_extendqisi2
 621 0306 0123     		movs	r3, #1
 622 0308 0093     		str	r3, [sp]
 623 030a 4FF6FF73 		movw	r3, #65535
 624 030e 0193     		str	r3, [sp, #4]
 625 0310 5923     		movs	r3, #89
 626 0312 0293     		str	r3, [sp, #8]
 627 0314 0846     		mov	r0, r1
 628 0316 1146     		mov	r1, r2
 629 0318 1522     		movs	r2, #21
 630 031a 2346     		mov	r3, r4
 631 031c FFF7FEFF 		bl	write_LCD
 134:.\LCD.c       ****                 write_LCD(lcd,button[0][x],9,x+4,1,0xFFFF,'Y');     //Nombre de boton Ventas
 632              		.loc 1 134 0 discriminator 3
 633 0320 FB7B     		ldrb	r3, [r7, #15]	@ zero_extendqisi2
 634 0322 0133     		adds	r3, r3, #1
 635 0324 FB73     		strb	r3, [r7, #15]
 636              	.L63:
 134:.\LCD.c       ****                 write_LCD(lcd,button[0][x],9,x+4,1,0xFFFF,'Y');     //Nombre de boton Ventas
 637              		.loc 1 134 0 is_stmt 0 discriminator 1
 638 0326 FB7B     		ldrb	r3, [r7, #15]	@ zero_extendqisi2
 639 0328 072B     		cmp	r3, #7
 640 032a 7FF66EAF 		bls	.L64
 141:.\LCD.c       ****             }
 142:.\LCD.c       ****         break;
 641              		.loc 1 142 0 is_stmt 1
 642 032e 02F08ABF 		b	.L16
 643              	.L39:
 143:.\LCD.c       ****             
 144:.\LCD.c       ****         case 'I'://Informacion
 145:.\LCD.c       ****             for(x=0;x<8;x++){
 644              		.loc 1 145 0
 645 0332 0023     		movs	r3, #0
 646 0334 FB73     		strb	r3, [r7, #15]
 647 0336 92E0     		b	.L65
ARM GAS  C:\Users\PROYEC~1\AppData\Local\Temp\ccMsBWpv.s 			page 15


 648              	.L66:
 146:.\LCD.c       ****                 write_LCD(lcd,button[6][x],0,x+4,0,0x2110,'Y');     //Nombre caja Version
 649              		.loc 1 146 0 discriminator 3
 650 0338 FB7B     		ldrb	r3, [r7, #15]	@ zero_extendqisi2
 651 033a 4D4A     		ldr	r2, .L245
 652 033c 1344     		add	r3, r3, r2
 653 033e 93F83030 		ldrb	r3, [r3, #48]
 654 0342 DAB2     		uxtb	r2, r3
 655 0344 FB7B     		ldrb	r3, [r7, #15]	@ zero_extendqisi2
 656 0346 9BB2     		uxth	r3, r3
 657 0348 0433     		adds	r3, r3, #4
 658 034a 9CB2     		uxth	r4, r3
 659 034c F979     		ldrb	r1, [r7, #7]	@ zero_extendqisi2
 660 034e 0023     		movs	r3, #0
 661 0350 0093     		str	r3, [sp]
 662 0352 42F21013 		movw	r3, #8464
 663 0356 0193     		str	r3, [sp, #4]
 664 0358 5923     		movs	r3, #89
 665 035a 0293     		str	r3, [sp, #8]
 666 035c 0846     		mov	r0, r1
 667 035e 1146     		mov	r1, r2
 668 0360 0022     		movs	r2, #0
 669 0362 2346     		mov	r3, r4
 670 0364 FFF7FEFF 		bl	write_LCD
 147:.\LCD.c       ****                 write_LCD(lcd,button[7][x],0,x+29,0,0x2110,'Y');    //Nombre caja Posicion
 671              		.loc 1 147 0 discriminator 3
 672 0368 FB7B     		ldrb	r3, [r7, #15]	@ zero_extendqisi2
 673 036a 414A     		ldr	r2, .L245
 674 036c 1344     		add	r3, r3, r2
 675 036e 93F83830 		ldrb	r3, [r3, #56]
 676 0372 DAB2     		uxtb	r2, r3
 677 0374 FB7B     		ldrb	r3, [r7, #15]	@ zero_extendqisi2
 678 0376 9BB2     		uxth	r3, r3
 679 0378 1D33     		adds	r3, r3, #29
 680 037a 9CB2     		uxth	r4, r3
 681 037c F979     		ldrb	r1, [r7, #7]	@ zero_extendqisi2
 682 037e 0023     		movs	r3, #0
 683 0380 0093     		str	r3, [sp]
 684 0382 42F21013 		movw	r3, #8464
 685 0386 0193     		str	r3, [sp, #4]
 686 0388 5923     		movs	r3, #89
 687 038a 0293     		str	r3, [sp, #8]
 688 038c 0846     		mov	r0, r1
 689 038e 1146     		mov	r1, r2
 690 0390 0022     		movs	r2, #0
 691 0392 2346     		mov	r3, r4
 692 0394 FFF7FEFF 		bl	write_LCD
 148:.\LCD.c       ****                 write_LCD(lcd,button[8][x],9,x+4,0,0x2110,'Y');     //Nombre caja Hora
 693              		.loc 1 148 0 discriminator 3
 694 0398 FB7B     		ldrb	r3, [r7, #15]	@ zero_extendqisi2
 695 039a 354A     		ldr	r2, .L245
 696 039c 1344     		add	r3, r3, r2
 697 039e 93F84030 		ldrb	r3, [r3, #64]
 698 03a2 DAB2     		uxtb	r2, r3
 699 03a4 FB7B     		ldrb	r3, [r7, #15]	@ zero_extendqisi2
 700 03a6 9BB2     		uxth	r3, r3
 701 03a8 0433     		adds	r3, r3, #4
ARM GAS  C:\Users\PROYEC~1\AppData\Local\Temp\ccMsBWpv.s 			page 16


 702 03aa 9CB2     		uxth	r4, r3
 703 03ac F979     		ldrb	r1, [r7, #7]	@ zero_extendqisi2
 704 03ae 0023     		movs	r3, #0
 705 03b0 0093     		str	r3, [sp]
 706 03b2 42F21013 		movw	r3, #8464
 707 03b6 0193     		str	r3, [sp, #4]
 708 03b8 5923     		movs	r3, #89
 709 03ba 0293     		str	r3, [sp, #8]
 710 03bc 0846     		mov	r0, r1
 711 03be 1146     		mov	r1, r2
 712 03c0 0922     		movs	r2, #9
 713 03c2 2346     		mov	r3, r4
 714 03c4 FFF7FEFF 		bl	write_LCD
 149:.\LCD.c       ****                 write_LCD(lcd,button[9][x],9,x+29,0,0x2110,'Y');    //Nombre caja Fecha
 715              		.loc 1 149 0 discriminator 3
 716 03c8 FB7B     		ldrb	r3, [r7, #15]	@ zero_extendqisi2
 717 03ca 294A     		ldr	r2, .L245
 718 03cc 1344     		add	r3, r3, r2
 719 03ce 93F84830 		ldrb	r3, [r3, #72]
 720 03d2 DAB2     		uxtb	r2, r3
 721 03d4 FB7B     		ldrb	r3, [r7, #15]	@ zero_extendqisi2
 722 03d6 9BB2     		uxth	r3, r3
 723 03d8 1D33     		adds	r3, r3, #29
 724 03da 9CB2     		uxth	r4, r3
 725 03dc F979     		ldrb	r1, [r7, #7]	@ zero_extendqisi2
 726 03de 0023     		movs	r3, #0
 727 03e0 0093     		str	r3, [sp]
 728 03e2 42F21013 		movw	r3, #8464
 729 03e6 0193     		str	r3, [sp, #4]
 730 03e8 5923     		movs	r3, #89
 731 03ea 0293     		str	r3, [sp, #8]
 732 03ec 0846     		mov	r0, r1
 733 03ee 1146     		mov	r1, r2
 734 03f0 0922     		movs	r2, #9
 735 03f2 2346     		mov	r3, r4
 736 03f4 FFF7FEFF 		bl	write_LCD
 150:.\LCD.c       ****                 write_LCD(lcd,button[10][x],18,x+4,0,0x2110,'Y');   //Nombre caja Direccion IP
 737              		.loc 1 150 0 discriminator 3
 738 03f8 FB7B     		ldrb	r3, [r7, #15]	@ zero_extendqisi2
 739 03fa 1D4A     		ldr	r2, .L245
 740 03fc 1344     		add	r3, r3, r2
 741 03fe 93F85030 		ldrb	r3, [r3, #80]
 742 0402 DAB2     		uxtb	r2, r3
 743 0404 FB7B     		ldrb	r3, [r7, #15]	@ zero_extendqisi2
 744 0406 9BB2     		uxth	r3, r3
 745 0408 0433     		adds	r3, r3, #4
 746 040a 9CB2     		uxth	r4, r3
 747 040c F979     		ldrb	r1, [r7, #7]	@ zero_extendqisi2
 748 040e 0023     		movs	r3, #0
 749 0410 0093     		str	r3, [sp]
 750 0412 42F21013 		movw	r3, #8464
 751 0416 0193     		str	r3, [sp, #4]
 752 0418 5923     		movs	r3, #89
 753 041a 0293     		str	r3, [sp, #8]
 754 041c 0846     		mov	r0, r1
 755 041e 1146     		mov	r1, r2
 756 0420 1222     		movs	r2, #18
ARM GAS  C:\Users\PROYEC~1\AppData\Local\Temp\ccMsBWpv.s 			page 17


 757 0422 2346     		mov	r3, r4
 758 0424 FFF7FEFF 		bl	write_LCD
 151:.\LCD.c       ****                 write_LCD(lcd,button[11][x],18,x+29,0,0x2110,'Y');  //Nombre caja Digitos Surtidor
 759              		.loc 1 151 0 discriminator 3
 760 0428 FB7B     		ldrb	r3, [r7, #15]	@ zero_extendqisi2
 761 042a 114A     		ldr	r2, .L245
 762 042c 1344     		add	r3, r3, r2
 763 042e 93F85830 		ldrb	r3, [r3, #88]
 764 0432 DAB2     		uxtb	r2, r3
 765 0434 FB7B     		ldrb	r3, [r7, #15]	@ zero_extendqisi2
 766 0436 9BB2     		uxth	r3, r3
 767 0438 1D33     		adds	r3, r3, #29
 768 043a 9CB2     		uxth	r4, r3
 769 043c F979     		ldrb	r1, [r7, #7]	@ zero_extendqisi2
 770 043e 0023     		movs	r3, #0
 771 0440 0093     		str	r3, [sp]
 772 0442 42F21013 		movw	r3, #8464
 773 0446 0193     		str	r3, [sp, #4]
 774 0448 5923     		movs	r3, #89
 775 044a 0293     		str	r3, [sp, #8]
 776 044c 0846     		mov	r0, r1
 777 044e 1146     		mov	r1, r2
 778 0450 1222     		movs	r2, #18
 779 0452 2346     		mov	r3, r4
 780 0454 FFF7FEFF 		bl	write_LCD
 145:.\LCD.c       ****                 write_LCD(lcd,button[6][x],0,x+4,0,0x2110,'Y');     //Nombre caja Version
 781              		.loc 1 145 0 discriminator 3
 782 0458 FB7B     		ldrb	r3, [r7, #15]	@ zero_extendqisi2
 783 045a 0133     		adds	r3, r3, #1
 784 045c FB73     		strb	r3, [r7, #15]
 785              	.L65:
 145:.\LCD.c       ****                 write_LCD(lcd,button[6][x],0,x+4,0,0x2110,'Y');     //Nombre caja Version
 786              		.loc 1 145 0 is_stmt 0 discriminator 1
 787 045e FB7B     		ldrb	r3, [r7, #15]	@ zero_extendqisi2
 788 0460 072B     		cmp	r3, #7
 789 0462 7FF669AF 		bls	.L66
 152:.\LCD.c       ****             }
 153:.\LCD.c       ****         break;
 790              		.loc 1 153 0 is_stmt 1
 791 0466 02F0EEBE 		b	.L16
 792              	.L44:
 154:.\LCD.c       ****             
 155:.\LCD.c       ****         case 'S'://Venta
 156:.\LCD.c       ****             for(x=0;x<8;x++){
 793              		.loc 1 156 0
 794 046a 0023     		movs	r3, #0
 795 046c FB73     		strb	r3, [r7, #15]
 796 046e 4CE0     		b	.L67
 797              	.L246:
 798              		.align	2
 799              	.L245:
 800 0470 00000000 		.word	button
 801              	.L68:
 157:.\LCD.c       ****                 write_LCD(lcd,button[12][x],9,x+11,1,0xFFFF,'Y');  //Nombre de boton Contado
 802              		.loc 1 157 0 discriminator 3
 803 0474 FB7B     		ldrb	r3, [r7, #15]	@ zero_extendqisi2
 804 0476 AF4A     		ldr	r2, .L247
ARM GAS  C:\Users\PROYEC~1\AppData\Local\Temp\ccMsBWpv.s 			page 18


 805 0478 1344     		add	r3, r3, r2
 806 047a 93F86030 		ldrb	r3, [r3, #96]
 807 047e DAB2     		uxtb	r2, r3
 808 0480 FB7B     		ldrb	r3, [r7, #15]	@ zero_extendqisi2
 809 0482 9BB2     		uxth	r3, r3
 810 0484 0B33     		adds	r3, r3, #11
 811 0486 9CB2     		uxth	r4, r3
 812 0488 F979     		ldrb	r1, [r7, #7]	@ zero_extendqisi2
 813 048a 0123     		movs	r3, #1
 814 048c 0093     		str	r3, [sp]
 815 048e 4FF6FF73 		movw	r3, #65535
 816 0492 0193     		str	r3, [sp, #4]
 817 0494 5923     		movs	r3, #89
 818 0496 0293     		str	r3, [sp, #8]
 819 0498 0846     		mov	r0, r1
 820 049a 1146     		mov	r1, r2
 821 049c 0922     		movs	r2, #9
 822 049e 2346     		mov	r3, r4
 823 04a0 FFF7FEFF 		bl	write_LCD
 158:.\LCD.c       ****                 write_LCD(lcd,button[13][x],15,x+11,1,0xFFFF,'Y');  //Nombre de boton Credito
 824              		.loc 1 158 0 discriminator 3
 825 04a4 FB7B     		ldrb	r3, [r7, #15]	@ zero_extendqisi2
 826 04a6 A34A     		ldr	r2, .L247
 827 04a8 1344     		add	r3, r3, r2
 828 04aa 93F86830 		ldrb	r3, [r3, #104]
 829 04ae DAB2     		uxtb	r2, r3
 830 04b0 FB7B     		ldrb	r3, [r7, #15]	@ zero_extendqisi2
 831 04b2 9BB2     		uxth	r3, r3
 832 04b4 0B33     		adds	r3, r3, #11
 833 04b6 9CB2     		uxth	r4, r3
 834 04b8 F979     		ldrb	r1, [r7, #7]	@ zero_extendqisi2
 835 04ba 0123     		movs	r3, #1
 836 04bc 0093     		str	r3, [sp]
 837 04be 4FF6FF73 		movw	r3, #65535
 838 04c2 0193     		str	r3, [sp, #4]
 839 04c4 5923     		movs	r3, #89
 840 04c6 0293     		str	r3, [sp, #8]
 841 04c8 0846     		mov	r0, r1
 842 04ca 1146     		mov	r1, r2
 843 04cc 0F22     		movs	r2, #15
 844 04ce 2346     		mov	r3, r4
 845 04d0 FFF7FEFF 		bl	write_LCD
 159:.\LCD.c       ****                 write_LCD(lcd,button[70][x],21,x+11,1,0xFFFF,'Y');  //Nombre de boton Forma de pago
 846              		.loc 1 159 0 discriminator 3
 847 04d4 FB7B     		ldrb	r3, [r7, #15]	@ zero_extendqisi2
 848 04d6 974A     		ldr	r2, .L247
 849 04d8 1344     		add	r3, r3, r2
 850 04da 93F83032 		ldrb	r3, [r3, #560]
 851 04de DAB2     		uxtb	r2, r3
 852 04e0 FB7B     		ldrb	r3, [r7, #15]	@ zero_extendqisi2
 853 04e2 9BB2     		uxth	r3, r3
 854 04e4 0B33     		adds	r3, r3, #11
 855 04e6 9CB2     		uxth	r4, r3
 856 04e8 F979     		ldrb	r1, [r7, #7]	@ zero_extendqisi2
 857 04ea 0123     		movs	r3, #1
 858 04ec 0093     		str	r3, [sp]
 859 04ee 4FF6FF73 		movw	r3, #65535
ARM GAS  C:\Users\PROYEC~1\AppData\Local\Temp\ccMsBWpv.s 			page 19


 860 04f2 0193     		str	r3, [sp, #4]
 861 04f4 5923     		movs	r3, #89
 862 04f6 0293     		str	r3, [sp, #8]
 863 04f8 0846     		mov	r0, r1
 864 04fa 1146     		mov	r1, r2
 865 04fc 1522     		movs	r2, #21
 866 04fe 2346     		mov	r3, r4
 867 0500 FFF7FEFF 		bl	write_LCD
 156:.\LCD.c       ****                 write_LCD(lcd,button[12][x],9,x+11,1,0xFFFF,'Y');  //Nombre de boton Contado
 868              		.loc 1 156 0 discriminator 3
 869 0504 FB7B     		ldrb	r3, [r7, #15]	@ zero_extendqisi2
 870 0506 0133     		adds	r3, r3, #1
 871 0508 FB73     		strb	r3, [r7, #15]
 872              	.L67:
 156:.\LCD.c       ****                 write_LCD(lcd,button[12][x],9,x+11,1,0xFFFF,'Y');  //Nombre de boton Contado
 873              		.loc 1 156 0 is_stmt 0 discriminator 1
 874 050a FB7B     		ldrb	r3, [r7, #15]	@ zero_extendqisi2
 875 050c 072B     		cmp	r3, #7
 876 050e B1D9     		bls	.L68
 160:.\LCD.c       ****             }
 161:.\LCD.c       ****         break;
 877              		.loc 1 161 0 is_stmt 1
 878 0510 02F099BE 		b	.L16
 879              	.L35:
 162:.\LCD.c       ****             
 163:.\LCD.c       ****         case 'C'://Contado
 164:.\LCD.c       ****             for(x=0;x<8;x++){
 880              		.loc 1 164 0
 881 0514 0023     		movs	r3, #0
 882 0516 FB73     		strb	r3, [r7, #15]
 883 0518 62E0     		b	.L69
 884              	.L70:
 165:.\LCD.c       ****                 write_LCD(lcd,button[71][x],2,x+5,2,0x2110,'Y');    //Nombre de boton Preset
 885              		.loc 1 165 0 discriminator 3
 886 051a FB7B     		ldrb	r3, [r7, #15]	@ zero_extendqisi2
 887 051c 854A     		ldr	r2, .L247
 888 051e 1344     		add	r3, r3, r2
 889 0520 93F83832 		ldrb	r3, [r3, #568]
 890 0524 DAB2     		uxtb	r2, r3
 891 0526 FB7B     		ldrb	r3, [r7, #15]	@ zero_extendqisi2
 892 0528 9BB2     		uxth	r3, r3
 893 052a 0533     		adds	r3, r3, #5
 894 052c 9CB2     		uxth	r4, r3
 895 052e F979     		ldrb	r1, [r7, #7]	@ zero_extendqisi2
 896 0530 0223     		movs	r3, #2
 897 0532 0093     		str	r3, [sp]
 898 0534 42F21013 		movw	r3, #8464
 899 0538 0193     		str	r3, [sp, #4]
 900 053a 5923     		movs	r3, #89
 901 053c 0293     		str	r3, [sp, #8]
 902 053e 0846     		mov	r0, r1
 903 0540 1146     		mov	r1, r2
 904 0542 0222     		movs	r2, #2
 905 0544 2346     		mov	r3, r4
 906 0546 FFF7FEFF 		bl	write_LCD
 166:.\LCD.c       ****                 write_LCD(lcd,button[14][x],9,x+4,1,0xFFFF,'Y');    //Nombre de boton Dinero
 907              		.loc 1 166 0 discriminator 3
ARM GAS  C:\Users\PROYEC~1\AppData\Local\Temp\ccMsBWpv.s 			page 20


 908 054a FB7B     		ldrb	r3, [r7, #15]	@ zero_extendqisi2
 909 054c 794A     		ldr	r2, .L247
 910 054e 1344     		add	r3, r3, r2
 911 0550 93F87030 		ldrb	r3, [r3, #112]
 912 0554 DAB2     		uxtb	r2, r3
 913 0556 FB7B     		ldrb	r3, [r7, #15]	@ zero_extendqisi2
 914 0558 9BB2     		uxth	r3, r3
 915 055a 0433     		adds	r3, r3, #4
 916 055c 9CB2     		uxth	r4, r3
 917 055e F979     		ldrb	r1, [r7, #7]	@ zero_extendqisi2
 918 0560 0123     		movs	r3, #1
 919 0562 0093     		str	r3, [sp]
 920 0564 4FF6FF73 		movw	r3, #65535
 921 0568 0193     		str	r3, [sp, #4]
 922 056a 5923     		movs	r3, #89
 923 056c 0293     		str	r3, [sp, #8]
 924 056e 0846     		mov	r0, r1
 925 0570 1146     		mov	r1, r2
 926 0572 0922     		movs	r2, #9
 927 0574 2346     		mov	r3, r4
 928 0576 FFF7FEFF 		bl	write_LCD
 167:.\LCD.c       ****                 write_LCD(lcd,button[15][x],15,x+4,1,0xFFFF,'Y');   //Nombre de boton Volumen
 929              		.loc 1 167 0 discriminator 3
 930 057a FB7B     		ldrb	r3, [r7, #15]	@ zero_extendqisi2
 931 057c 6D4A     		ldr	r2, .L247
 932 057e 1344     		add	r3, r3, r2
 933 0580 93F87830 		ldrb	r3, [r3, #120]
 934 0584 DAB2     		uxtb	r2, r3
 935 0586 FB7B     		ldrb	r3, [r7, #15]	@ zero_extendqisi2
 936 0588 9BB2     		uxth	r3, r3
 937 058a 0433     		adds	r3, r3, #4
 938 058c 9CB2     		uxth	r4, r3
 939 058e F979     		ldrb	r1, [r7, #7]	@ zero_extendqisi2
 940 0590 0123     		movs	r3, #1
 941 0592 0093     		str	r3, [sp]
 942 0594 4FF6FF73 		movw	r3, #65535
 943 0598 0193     		str	r3, [sp, #4]
 944 059a 5923     		movs	r3, #89
 945 059c 0293     		str	r3, [sp, #8]
 946 059e 0846     		mov	r0, r1
 947 05a0 1146     		mov	r1, r2
 948 05a2 0F22     		movs	r2, #15
 949 05a4 2346     		mov	r3, r4
 950 05a6 FFF7FEFF 		bl	write_LCD
 168:.\LCD.c       ****                 write_LCD(lcd,button[16][x],21,x+4,1,0xFFFF,'Y');   //Nombre de boton Lleno
 951              		.loc 1 168 0 discriminator 3
 952 05aa FB7B     		ldrb	r3, [r7, #15]	@ zero_extendqisi2
 953 05ac 614A     		ldr	r2, .L247
 954 05ae 1344     		add	r3, r3, r2
 955 05b0 93F88030 		ldrb	r3, [r3, #128]
 956 05b4 DAB2     		uxtb	r2, r3
 957 05b6 FB7B     		ldrb	r3, [r7, #15]	@ zero_extendqisi2
 958 05b8 9BB2     		uxth	r3, r3
 959 05ba 0433     		adds	r3, r3, #4
 960 05bc 9CB2     		uxth	r4, r3
 961 05be F979     		ldrb	r1, [r7, #7]	@ zero_extendqisi2
 962 05c0 0123     		movs	r3, #1
ARM GAS  C:\Users\PROYEC~1\AppData\Local\Temp\ccMsBWpv.s 			page 21


 963 05c2 0093     		str	r3, [sp]
 964 05c4 4FF6FF73 		movw	r3, #65535
 965 05c8 0193     		str	r3, [sp, #4]
 966 05ca 5923     		movs	r3, #89
 967 05cc 0293     		str	r3, [sp, #8]
 968 05ce 0846     		mov	r0, r1
 969 05d0 1146     		mov	r1, r2
 970 05d2 1522     		movs	r2, #21
 971 05d4 2346     		mov	r3, r4
 972 05d6 FFF7FEFF 		bl	write_LCD
 164:.\LCD.c       ****                 write_LCD(lcd,button[71][x],2,x+5,2,0x2110,'Y');    //Nombre de boton Preset
 973              		.loc 1 164 0 discriminator 3
 974 05da FB7B     		ldrb	r3, [r7, #15]	@ zero_extendqisi2
 975 05dc 0133     		adds	r3, r3, #1
 976 05de FB73     		strb	r3, [r7, #15]
 977              	.L69:
 164:.\LCD.c       ****                 write_LCD(lcd,button[71][x],2,x+5,2,0x2110,'Y');    //Nombre de boton Preset
 978              		.loc 1 164 0 is_stmt 0 discriminator 1
 979 05e0 FB7B     		ldrb	r3, [r7, #15]	@ zero_extendqisi2
 980 05e2 072B     		cmp	r3, #7
 981 05e4 99D9     		bls	.L70
 169:.\LCD.c       ****             }
 170:.\LCD.c       ****             for(y=0;y<=2;y++){
 982              		.loc 1 170 0 is_stmt 1
 983 05e6 0023     		movs	r3, #0
 984 05e8 BB73     		strb	r3, [r7, #14]
 985 05ea 60E0     		b	.L71
 986              	.L76:
 171:.\LCD.c       ****                 write_LCD(lcd,symbols[0],9+(6*y),15,1,0xFFFF,'Y');
 987              		.loc 1 171 0
 988 05ec 524B     		ldr	r3, .L247+4
 989 05ee 1B78     		ldrb	r3, [r3]
 990 05f0 D9B2     		uxtb	r1, r3
 991 05f2 BB7B     		ldrb	r3, [r7, #14]	@ zero_extendqisi2
 992 05f4 9BB2     		uxth	r3, r3
 993 05f6 1A46     		mov	r2, r3	@ movhi
 994 05f8 5200     		lsls	r2, r2, #1
 995 05fa 1344     		add	r3, r3, r2
 996 05fc 5B00     		lsls	r3, r3, #1
 997 05fe 9BB2     		uxth	r3, r3
 998 0600 0933     		adds	r3, r3, #9
 999 0602 9AB2     		uxth	r2, r3
 1000 0604 F879     		ldrb	r0, [r7, #7]	@ zero_extendqisi2
 1001 0606 0123     		movs	r3, #1
 1002 0608 0093     		str	r3, [sp]
 1003 060a 4FF6FF73 		movw	r3, #65535
 1004 060e 0193     		str	r3, [sp, #4]
 1005 0610 5923     		movs	r3, #89
 1006 0612 0293     		str	r3, [sp, #8]
 1007 0614 0F23     		movs	r3, #15
 1008 0616 FFF7FEFF 		bl	write_LCD
 172:.\LCD.c       ****                 flag=0;
 1009              		.loc 1 172 0
 1010 061a 0023     		movs	r3, #0
 1011 061c 7B73     		strb	r3, [r7, #13]
 173:.\LCD.c       ****                 for(x=1;x<=presetFast[y][0];x++){
 1012              		.loc 1 173 0
ARM GAS  C:\Users\PROYEC~1\AppData\Local\Temp\ccMsBWpv.s 			page 22


 1013 061e 0123     		movs	r3, #1
 1014 0620 FB73     		strb	r3, [r7, #15]
 1015 0622 36E0     		b	.L72
 1016              	.L75:
 174:.\LCD.c       ****                     if(presetFast[y][x]=='0' && flag==0){
 1017              		.loc 1 174 0
 1018 0624 BA7B     		ldrb	r2, [r7, #14]	@ zero_extendqisi2
 1019 0626 F97B     		ldrb	r1, [r7, #15]	@ zero_extendqisi2
 1020 0628 4448     		ldr	r0, .L247+8
 1021 062a 1346     		mov	r3, r2
 1022 062c 9B00     		lsls	r3, r3, #2
 1023 062e 1344     		add	r3, r3, r2
 1024 0630 5B00     		lsls	r3, r3, #1
 1025 0632 0B44     		add	r3, r3, r1
 1026 0634 0344     		add	r3, r3, r0
 1027 0636 1B78     		ldrb	r3, [r3]	@ zero_extendqisi2
 1028 0638 302B     		cmp	r3, #48
 1029 063a 03D1     		bne	.L73
 1030              		.loc 1 174 0 is_stmt 0 discriminator 1
 1031 063c 7B7B     		ldrb	r3, [r7, #13]	@ zero_extendqisi2
 1032 063e 002B     		cmp	r3, #0
 1033 0640 00D1     		bne	.L73
 1034              		.loc 1 174 0
 1035 0642 23E0     		b	.L74
 1036              	.L73:
 175:.\LCD.c       ****                     }else{
 176:.\LCD.c       ****                         write_LCD(lcd,presetFast[y][x],9+(6*y),x+15,1,0xFFFF,'Y');
 1037              		.loc 1 176 0 is_stmt 1
 1038 0644 BA7B     		ldrb	r2, [r7, #14]	@ zero_extendqisi2
 1039 0646 F97B     		ldrb	r1, [r7, #15]	@ zero_extendqisi2
 1040 0648 3C48     		ldr	r0, .L247+8
 1041 064a 1346     		mov	r3, r2
 1042 064c 9B00     		lsls	r3, r3, #2
 1043 064e 1344     		add	r3, r3, r2
 1044 0650 5B00     		lsls	r3, r3, #1
 1045 0652 0B44     		add	r3, r3, r1
 1046 0654 0344     		add	r3, r3, r0
 1047 0656 1978     		ldrb	r1, [r3]	@ zero_extendqisi2
 1048 0658 BB7B     		ldrb	r3, [r7, #14]	@ zero_extendqisi2
 1049 065a 9BB2     		uxth	r3, r3
 1050 065c 1A46     		mov	r2, r3	@ movhi
 1051 065e 5200     		lsls	r2, r2, #1
 1052 0660 1344     		add	r3, r3, r2
 1053 0662 5B00     		lsls	r3, r3, #1
 1054 0664 9BB2     		uxth	r3, r3
 1055 0666 0933     		adds	r3, r3, #9
 1056 0668 9AB2     		uxth	r2, r3
 1057 066a FB7B     		ldrb	r3, [r7, #15]	@ zero_extendqisi2
 1058 066c 9BB2     		uxth	r3, r3
 1059 066e 0F33     		adds	r3, r3, #15
 1060 0670 9CB2     		uxth	r4, r3
 1061 0672 F879     		ldrb	r0, [r7, #7]	@ zero_extendqisi2
 1062 0674 0123     		movs	r3, #1
 1063 0676 0093     		str	r3, [sp]
 1064 0678 4FF6FF73 		movw	r3, #65535
 1065 067c 0193     		str	r3, [sp, #4]
 1066 067e 5923     		movs	r3, #89
ARM GAS  C:\Users\PROYEC~1\AppData\Local\Temp\ccMsBWpv.s 			page 23


 1067 0680 0293     		str	r3, [sp, #8]
 1068 0682 2346     		mov	r3, r4
 1069 0684 FFF7FEFF 		bl	write_LCD
 177:.\LCD.c       ****                         flag=1;
 1070              		.loc 1 177 0
 1071 0688 0123     		movs	r3, #1
 1072 068a 7B73     		strb	r3, [r7, #13]
 1073              	.L74:
 173:.\LCD.c       ****                     if(presetFast[y][x]=='0' && flag==0){
 1074              		.loc 1 173 0 discriminator 2
 1075 068c FB7B     		ldrb	r3, [r7, #15]	@ zero_extendqisi2
 1076 068e 0133     		adds	r3, r3, #1
 1077 0690 FB73     		strb	r3, [r7, #15]
 1078              	.L72:
 173:.\LCD.c       ****                     if(presetFast[y][x]=='0' && flag==0){
 1079              		.loc 1 173 0 is_stmt 0 discriminator 1
 1080 0692 BA7B     		ldrb	r2, [r7, #14]	@ zero_extendqisi2
 1081 0694 2949     		ldr	r1, .L247+8
 1082 0696 1346     		mov	r3, r2
 1083 0698 9B00     		lsls	r3, r3, #2
 1084 069a 1344     		add	r3, r3, r2
 1085 069c 5B00     		lsls	r3, r3, #1
 1086 069e 0B44     		add	r3, r3, r1
 1087 06a0 1B78     		ldrb	r3, [r3]	@ zero_extendqisi2
 1088 06a2 FA7B     		ldrb	r2, [r7, #15]	@ zero_extendqisi2
 1089 06a4 9A42     		cmp	r2, r3
 1090 06a6 BDD9     		bls	.L75
 170:.\LCD.c       ****                 write_LCD(lcd,symbols[0],9+(6*y),15,1,0xFFFF,'Y');
 1091              		.loc 1 170 0 is_stmt 1 discriminator 2
 1092 06a8 BB7B     		ldrb	r3, [r7, #14]	@ zero_extendqisi2
 1093 06aa 0133     		adds	r3, r3, #1
 1094 06ac BB73     		strb	r3, [r7, #14]
 1095              	.L71:
 170:.\LCD.c       ****                 write_LCD(lcd,symbols[0],9+(6*y),15,1,0xFFFF,'Y');
 1096              		.loc 1 170 0 is_stmt 0 discriminator 1
 1097 06ae BB7B     		ldrb	r3, [r7, #14]	@ zero_extendqisi2
 1098 06b0 022B     		cmp	r3, #2
 1099 06b2 9BD9     		bls	.L76
 178:.\LCD.c       ****                     }
 179:.\LCD.c       ****                 }
 180:.\LCD.c       ****             }
 181:.\LCD.c       ****         break;
 1100              		.loc 1 181 0 is_stmt 1
 1101 06b4 02F0C7BD 		b	.L16
 1102              	.L25:
 182:.\LCD.c       ****             
 183:.\LCD.c       ****         case '1'://Teclado Dinero
 184:.\LCD.c       ****             for(x=0;x<8;x++){
 1103              		.loc 1 184 0
 1104 06b8 0023     		movs	r3, #0
 1105 06ba FB73     		strb	r3, [r7, #15]
 1106 06bc 32E0     		b	.L77
 1107              	.L78:
 185:.\LCD.c       ****                 write_LCD(lcd,button[20][x],14,x+1,2,0x2110,'Y');   //Nombre de imagen Teclado Dine
 1108              		.loc 1 185 0 discriminator 3
 1109 06be FB7B     		ldrb	r3, [r7, #15]	@ zero_extendqisi2
 1110 06c0 1C4A     		ldr	r2, .L247
ARM GAS  C:\Users\PROYEC~1\AppData\Local\Temp\ccMsBWpv.s 			page 24


 1111 06c2 1344     		add	r3, r3, r2
 1112 06c4 93F8A030 		ldrb	r3, [r3, #160]
 1113 06c8 DAB2     		uxtb	r2, r3
 1114 06ca FB7B     		ldrb	r3, [r7, #15]	@ zero_extendqisi2
 1115 06cc 9BB2     		uxth	r3, r3
 1116 06ce 0133     		adds	r3, r3, #1
 1117 06d0 9CB2     		uxth	r4, r3
 1118 06d2 F979     		ldrb	r1, [r7, #7]	@ zero_extendqisi2
 1119 06d4 0223     		movs	r3, #2
 1120 06d6 0093     		str	r3, [sp]
 1121 06d8 42F21013 		movw	r3, #8464
 1122 06dc 0193     		str	r3, [sp, #4]
 1123 06de 5923     		movs	r3, #89
 1124 06e0 0293     		str	r3, [sp, #8]
 1125 06e2 0846     		mov	r0, r1
 1126 06e4 1146     		mov	r1, r2
 1127 06e6 0E22     		movs	r2, #14
 1128 06e8 2346     		mov	r3, r4
 1129 06ea FFF7FEFF 		bl	write_LCD
 186:.\LCD.c       ****                 write_LCD(lcd,button[21][x],18,x+1,2,0x2110,'Y');   //Nombre de imagen Teclado Dine
 1130              		.loc 1 186 0 discriminator 3
 1131 06ee FB7B     		ldrb	r3, [r7, #15]	@ zero_extendqisi2
 1132 06f0 104A     		ldr	r2, .L247
 1133 06f2 1344     		add	r3, r3, r2
 1134 06f4 93F8A830 		ldrb	r3, [r3, #168]
 1135 06f8 DAB2     		uxtb	r2, r3
 1136 06fa FB7B     		ldrb	r3, [r7, #15]	@ zero_extendqisi2
 1137 06fc 9BB2     		uxth	r3, r3
 1138 06fe 0133     		adds	r3, r3, #1
 1139 0700 9CB2     		uxth	r4, r3
 1140 0702 F979     		ldrb	r1, [r7, #7]	@ zero_extendqisi2
 1141 0704 0223     		movs	r3, #2
 1142 0706 0093     		str	r3, [sp]
 1143 0708 42F21013 		movw	r3, #8464
 1144 070c 0193     		str	r3, [sp, #4]
 1145 070e 5923     		movs	r3, #89
 1146 0710 0293     		str	r3, [sp, #8]
 1147 0712 0846     		mov	r0, r1
 1148 0714 1146     		mov	r1, r2
 1149 0716 1222     		movs	r2, #18
 1150 0718 2346     		mov	r3, r4
 1151 071a FFF7FEFF 		bl	write_LCD
 184:.\LCD.c       ****                 write_LCD(lcd,button[20][x],14,x+1,2,0x2110,'Y');   //Nombre de imagen Teclado Dine
 1152              		.loc 1 184 0 discriminator 3
 1153 071e FB7B     		ldrb	r3, [r7, #15]	@ zero_extendqisi2
 1154 0720 0133     		adds	r3, r3, #1
 1155 0722 FB73     		strb	r3, [r7, #15]
 1156              	.L77:
 184:.\LCD.c       ****                 write_LCD(lcd,button[20][x],14,x+1,2,0x2110,'Y');   //Nombre de imagen Teclado Dine
 1157              		.loc 1 184 0 is_stmt 0 discriminator 1
 1158 0724 FB7B     		ldrb	r3, [r7, #15]	@ zero_extendqisi2
 1159 0726 072B     		cmp	r3, #7
 1160 0728 C9D9     		bls	.L78
 187:.\LCD.c       ****             }
 188:.\LCD.c       ****         break;
 1161              		.loc 1 188 0 is_stmt 1
 1162 072a 02F08CBD 		b	.L16
ARM GAS  C:\Users\PROYEC~1\AppData\Local\Temp\ccMsBWpv.s 			page 25


 1163              	.L26:
 189:.\LCD.c       ****             
 190:.\LCD.c       ****         case '2'://Teclado Volumen
 191:.\LCD.c       ****             for(x=0;x<8;x++){
 1164              		.loc 1 191 0
 1165 072e 0023     		movs	r3, #0
 1166 0730 FB73     		strb	r3, [r7, #15]
 1167 0732 38E0     		b	.L79
 1168              	.L248:
 1169              		.align	2
 1170              	.L247:
 1171 0734 00000000 		.word	button
 1172 0738 00000000 		.word	symbols
 1173 073c 00000000 		.word	presetFast
 1174              	.L80:
 192:.\LCD.c       ****                 write_LCD(lcd,button[22][x],14,x+1,2,0x2110,'Y');   //Nombre de imagen Teclado Volu
 1175              		.loc 1 192 0 discriminator 3
 1176 0740 FB7B     		ldrb	r3, [r7, #15]	@ zero_extendqisi2
 1177 0742 A64A     		ldr	r2, .L249
 1178 0744 1344     		add	r3, r3, r2
 1179 0746 93F8B030 		ldrb	r3, [r3, #176]
 1180 074a DAB2     		uxtb	r2, r3
 1181 074c FB7B     		ldrb	r3, [r7, #15]	@ zero_extendqisi2
 1182 074e 9BB2     		uxth	r3, r3
 1183 0750 0133     		adds	r3, r3, #1
 1184 0752 9CB2     		uxth	r4, r3
 1185 0754 F979     		ldrb	r1, [r7, #7]	@ zero_extendqisi2
 1186 0756 0223     		movs	r3, #2
 1187 0758 0093     		str	r3, [sp]
 1188 075a 42F21013 		movw	r3, #8464
 1189 075e 0193     		str	r3, [sp, #4]
 1190 0760 5923     		movs	r3, #89
 1191 0762 0293     		str	r3, [sp, #8]
 1192 0764 0846     		mov	r0, r1
 1193 0766 1146     		mov	r1, r2
 1194 0768 0E22     		movs	r2, #14
 1195 076a 2346     		mov	r3, r4
 1196 076c FFF7FEFF 		bl	write_LCD
 193:.\LCD.c       ****                 write_LCD(lcd,button[23][x],18,x+1,2,0x2110,'Y');   //Nombre de imagen Teclado Volu
 1197              		.loc 1 193 0 discriminator 3
 1198 0770 FB7B     		ldrb	r3, [r7, #15]	@ zero_extendqisi2
 1199 0772 9A4A     		ldr	r2, .L249
 1200 0774 1344     		add	r3, r3, r2
 1201 0776 93F8B830 		ldrb	r3, [r3, #184]
 1202 077a DAB2     		uxtb	r2, r3
 1203 077c FB7B     		ldrb	r3, [r7, #15]	@ zero_extendqisi2
 1204 077e 9BB2     		uxth	r3, r3
 1205 0780 0133     		adds	r3, r3, #1
 1206 0782 9CB2     		uxth	r4, r3
 1207 0784 F979     		ldrb	r1, [r7, #7]	@ zero_extendqisi2
 1208 0786 0223     		movs	r3, #2
 1209 0788 0093     		str	r3, [sp]
 1210 078a 42F21013 		movw	r3, #8464
 1211 078e 0193     		str	r3, [sp, #4]
 1212 0790 5923     		movs	r3, #89
 1213 0792 0293     		str	r3, [sp, #8]
 1214 0794 0846     		mov	r0, r1
ARM GAS  C:\Users\PROYEC~1\AppData\Local\Temp\ccMsBWpv.s 			page 26


 1215 0796 1146     		mov	r1, r2
 1216 0798 1222     		movs	r2, #18
 1217 079a 2346     		mov	r3, r4
 1218 079c FFF7FEFF 		bl	write_LCD
 191:.\LCD.c       ****                 write_LCD(lcd,button[22][x],14,x+1,2,0x2110,'Y');   //Nombre de imagen Teclado Volu
 1219              		.loc 1 191 0 discriminator 3
 1220 07a0 FB7B     		ldrb	r3, [r7, #15]	@ zero_extendqisi2
 1221 07a2 0133     		adds	r3, r3, #1
 1222 07a4 FB73     		strb	r3, [r7, #15]
 1223              	.L79:
 191:.\LCD.c       ****                 write_LCD(lcd,button[22][x],14,x+1,2,0x2110,'Y');   //Nombre de imagen Teclado Volu
 1224              		.loc 1 191 0 is_stmt 0 discriminator 1
 1225 07a6 FB7B     		ldrb	r3, [r7, #15]	@ zero_extendqisi2
 1226 07a8 072B     		cmp	r3, #7
 1227 07aa C9D9     		bls	.L80
 194:.\LCD.c       ****             }
 195:.\LCD.c       ****         break;
 1228              		.loc 1 195 0 is_stmt 1
 1229 07ac 02F04BBD 		b	.L16
 1230              	.L42:
 196:.\LCD.c       ****             
 197:.\LCD.c       ****         case 'P'://Escoja producto
 198:.\LCD.c       ****             for(x=0;x<8;x++){
 1231              		.loc 1 198 0
 1232 07b0 0023     		movs	r3, #0
 1233 07b2 FB73     		strb	r3, [r7, #15]
 1234 07b4 92E0     		b	.L81
 1235              	.L82:
 199:.\LCD.c       ****                 write_LCD(lcd,button[24][x],0,x+9,2,0x2110,'Y');   //Nombre de imagen Escoja produc
 1236              		.loc 1 199 0 discriminator 3
 1237 07b6 FB7B     		ldrb	r3, [r7, #15]	@ zero_extendqisi2
 1238 07b8 884A     		ldr	r2, .L249
 1239 07ba 1344     		add	r3, r3, r2
 1240 07bc 93F8C030 		ldrb	r3, [r3, #192]
 1241 07c0 DAB2     		uxtb	r2, r3
 1242 07c2 FB7B     		ldrb	r3, [r7, #15]	@ zero_extendqisi2
 1243 07c4 9BB2     		uxth	r3, r3
 1244 07c6 0933     		adds	r3, r3, #9
 1245 07c8 9CB2     		uxth	r4, r3
 1246 07ca F979     		ldrb	r1, [r7, #7]	@ zero_extendqisi2
 1247 07cc 0223     		movs	r3, #2
 1248 07ce 0093     		str	r3, [sp]
 1249 07d0 42F21013 		movw	r3, #8464
 1250 07d4 0193     		str	r3, [sp, #4]
 1251 07d6 5923     		movs	r3, #89
 1252 07d8 0293     		str	r3, [sp, #8]
 1253 07da 0846     		mov	r0, r1
 1254 07dc 1146     		mov	r1, r2
 1255 07de 0022     		movs	r2, #0
 1256 07e0 2346     		mov	r3, r4
 1257 07e2 FFF7FEFF 		bl	write_LCD
 200:.\LCD.c       ****                 write_LCD(lcd,button[25][x],4,x+9,2,0x2110,'Y');   //Nombre de imagen Escoja produc
 1258              		.loc 1 200 0 discriminator 3
 1259 07e6 FB7B     		ldrb	r3, [r7, #15]	@ zero_extendqisi2
 1260 07e8 7C4A     		ldr	r2, .L249
 1261 07ea 1344     		add	r3, r3, r2
 1262 07ec 93F8C830 		ldrb	r3, [r3, #200]
ARM GAS  C:\Users\PROYEC~1\AppData\Local\Temp\ccMsBWpv.s 			page 27


 1263 07f0 DAB2     		uxtb	r2, r3
 1264 07f2 FB7B     		ldrb	r3, [r7, #15]	@ zero_extendqisi2
 1265 07f4 9BB2     		uxth	r3, r3
 1266 07f6 0933     		adds	r3, r3, #9
 1267 07f8 9CB2     		uxth	r4, r3
 1268 07fa F979     		ldrb	r1, [r7, #7]	@ zero_extendqisi2
 1269 07fc 0223     		movs	r3, #2
 1270 07fe 0093     		str	r3, [sp]
 1271 0800 42F21013 		movw	r3, #8464
 1272 0804 0193     		str	r3, [sp, #4]
 1273 0806 5923     		movs	r3, #89
 1274 0808 0293     		str	r3, [sp, #8]
 1275 080a 0846     		mov	r0, r1
 1276 080c 1146     		mov	r1, r2
 1277 080e 0422     		movs	r2, #4
 1278 0810 2346     		mov	r3, r4
 1279 0812 FFF7FEFF 		bl	write_LCD
 201:.\LCD.c       ****                 write_LCD(lcd,button[26][x],10,x+15,1,0xFFFF,'Y');   //Nombre de boton Producto 1
 1280              		.loc 1 201 0 discriminator 3
 1281 0816 FB7B     		ldrb	r3, [r7, #15]	@ zero_extendqisi2
 1282 0818 704A     		ldr	r2, .L249
 1283 081a 1344     		add	r3, r3, r2
 1284 081c 93F8D030 		ldrb	r3, [r3, #208]
 1285 0820 DAB2     		uxtb	r2, r3
 1286 0822 FB7B     		ldrb	r3, [r7, #15]	@ zero_extendqisi2
 1287 0824 9BB2     		uxth	r3, r3
 1288 0826 0F33     		adds	r3, r3, #15
 1289 0828 9CB2     		uxth	r4, r3
 1290 082a F979     		ldrb	r1, [r7, #7]	@ zero_extendqisi2
 1291 082c 0123     		movs	r3, #1
 1292 082e 0093     		str	r3, [sp]
 1293 0830 4FF6FF73 		movw	r3, #65535
 1294 0834 0193     		str	r3, [sp, #4]
 1295 0836 5923     		movs	r3, #89
 1296 0838 0293     		str	r3, [sp, #8]
 1297 083a 0846     		mov	r0, r1
 1298 083c 1146     		mov	r1, r2
 1299 083e 0A22     		movs	r2, #10
 1300 0840 2346     		mov	r3, r4
 1301 0842 FFF7FEFF 		bl	write_LCD
 202:.\LCD.c       ****                 write_LCD(lcd,button[27][x],16,x+15,1,0xFFFF,'Y');   //Nombre de boton Producto 2  
 1302              		.loc 1 202 0 discriminator 3
 1303 0846 FB7B     		ldrb	r3, [r7, #15]	@ zero_extendqisi2
 1304 0848 644A     		ldr	r2, .L249
 1305 084a 1344     		add	r3, r3, r2
 1306 084c 93F8D830 		ldrb	r3, [r3, #216]
 1307 0850 DAB2     		uxtb	r2, r3
 1308 0852 FB7B     		ldrb	r3, [r7, #15]	@ zero_extendqisi2
 1309 0854 9BB2     		uxth	r3, r3
 1310 0856 0F33     		adds	r3, r3, #15
 1311 0858 9CB2     		uxth	r4, r3
 1312 085a F979     		ldrb	r1, [r7, #7]	@ zero_extendqisi2
 1313 085c 0123     		movs	r3, #1
 1314 085e 0093     		str	r3, [sp]
 1315 0860 4FF6FF73 		movw	r3, #65535
 1316 0864 0193     		str	r3, [sp, #4]
 1317 0866 5923     		movs	r3, #89
ARM GAS  C:\Users\PROYEC~1\AppData\Local\Temp\ccMsBWpv.s 			page 28


 1318 0868 0293     		str	r3, [sp, #8]
 1319 086a 0846     		mov	r0, r1
 1320 086c 1146     		mov	r1, r2
 1321 086e 1022     		movs	r2, #16
 1322 0870 2346     		mov	r3, r4
 1323 0872 FFF7FEFF 		bl	write_LCD
 203:.\LCD.c       ****                 write_LCD(lcd,button[28][x],22,x+15,1,0xFFFF,'Y');   //Nombre de boton Producto 3
 1324              		.loc 1 203 0 discriminator 3
 1325 0876 FB7B     		ldrb	r3, [r7, #15]	@ zero_extendqisi2
 1326 0878 584A     		ldr	r2, .L249
 1327 087a 1344     		add	r3, r3, r2
 1328 087c 93F8E030 		ldrb	r3, [r3, #224]
 1329 0880 DAB2     		uxtb	r2, r3
 1330 0882 FB7B     		ldrb	r3, [r7, #15]	@ zero_extendqisi2
 1331 0884 9BB2     		uxth	r3, r3
 1332 0886 0F33     		adds	r3, r3, #15
 1333 0888 9CB2     		uxth	r4, r3
 1334 088a F979     		ldrb	r1, [r7, #7]	@ zero_extendqisi2
 1335 088c 0123     		movs	r3, #1
 1336 088e 0093     		str	r3, [sp]
 1337 0890 4FF6FF73 		movw	r3, #65535
 1338 0894 0193     		str	r3, [sp, #4]
 1339 0896 5923     		movs	r3, #89
 1340 0898 0293     		str	r3, [sp, #8]
 1341 089a 0846     		mov	r0, r1
 1342 089c 1146     		mov	r1, r2
 1343 089e 1622     		movs	r2, #22
 1344 08a0 2346     		mov	r3, r4
 1345 08a2 FFF7FEFF 		bl	write_LCD
 204:.\LCD.c       ****                 write_LCD(lcd,button[29][x],28,x+15,1,0xFFFF,'Y');   //Nombre de boton Producto 4
 1346              		.loc 1 204 0 discriminator 3
 1347 08a6 FB7B     		ldrb	r3, [r7, #15]	@ zero_extendqisi2
 1348 08a8 4C4A     		ldr	r2, .L249
 1349 08aa 1344     		add	r3, r3, r2
 1350 08ac 93F8E830 		ldrb	r3, [r3, #232]
 1351 08b0 DAB2     		uxtb	r2, r3
 1352 08b2 FB7B     		ldrb	r3, [r7, #15]	@ zero_extendqisi2
 1353 08b4 9BB2     		uxth	r3, r3
 1354 08b6 0F33     		adds	r3, r3, #15
 1355 08b8 9CB2     		uxth	r4, r3
 1356 08ba F979     		ldrb	r1, [r7, #7]	@ zero_extendqisi2
 1357 08bc 0123     		movs	r3, #1
 1358 08be 0093     		str	r3, [sp]
 1359 08c0 4FF6FF73 		movw	r3, #65535
 1360 08c4 0193     		str	r3, [sp, #4]
 1361 08c6 5923     		movs	r3, #89
 1362 08c8 0293     		str	r3, [sp, #8]
 1363 08ca 0846     		mov	r0, r1
 1364 08cc 1146     		mov	r1, r2
 1365 08ce 1C22     		movs	r2, #28
 1366 08d0 2346     		mov	r3, r4
 1367 08d2 FFF7FEFF 		bl	write_LCD
 198:.\LCD.c       ****                 write_LCD(lcd,button[24][x],0,x+9,2,0x2110,'Y');   //Nombre de imagen Escoja produc
 1368              		.loc 1 198 0 discriminator 3
 1369 08d6 FB7B     		ldrb	r3, [r7, #15]	@ zero_extendqisi2
 1370 08d8 0133     		adds	r3, r3, #1
 1371 08da FB73     		strb	r3, [r7, #15]
ARM GAS  C:\Users\PROYEC~1\AppData\Local\Temp\ccMsBWpv.s 			page 29


 1372              	.L81:
 198:.\LCD.c       ****                 write_LCD(lcd,button[24][x],0,x+9,2,0x2110,'Y');   //Nombre de imagen Escoja produc
 1373              		.loc 1 198 0 is_stmt 0 discriminator 1
 1374 08dc FB7B     		ldrb	r3, [r7, #15]	@ zero_extendqisi2
 1375 08de 072B     		cmp	r3, #7
 1376 08e0 7FF669AF 		bls	.L82
 205:.\LCD.c       ****             }
 206:.\LCD.c       ****         break;
 1377              		.loc 1 206 0 is_stmt 1
 1378 08e4 02F0AFBC 		b	.L16
 1379              	.L46:
 207:.\LCD.c       ****             
 208:.\LCD.c       ****         case 'U'://Suba la manija
 209:.\LCD.c       ****             for(x=0;x<8;x++){
 1380              		.loc 1 209 0
 1381 08e8 0023     		movs	r3, #0
 1382 08ea FB73     		strb	r3, [r7, #15]
 1383 08ec 32E0     		b	.L83
 1384              	.L84:
 210:.\LCD.c       ****                 write_LCD(lcd,button[30][x],18,x+5,2,0x2110,'Y');   //Nombre de imagen Suba la mani
 1385              		.loc 1 210 0 discriminator 3
 1386 08ee FB7B     		ldrb	r3, [r7, #15]	@ zero_extendqisi2
 1387 08f0 3A4A     		ldr	r2, .L249
 1388 08f2 1344     		add	r3, r3, r2
 1389 08f4 93F8F030 		ldrb	r3, [r3, #240]
 1390 08f8 DAB2     		uxtb	r2, r3
 1391 08fa FB7B     		ldrb	r3, [r7, #15]	@ zero_extendqisi2
 1392 08fc 9BB2     		uxth	r3, r3
 1393 08fe 0533     		adds	r3, r3, #5
 1394 0900 9CB2     		uxth	r4, r3
 1395 0902 F979     		ldrb	r1, [r7, #7]	@ zero_extendqisi2
 1396 0904 0223     		movs	r3, #2
 1397 0906 0093     		str	r3, [sp]
 1398 0908 42F21013 		movw	r3, #8464
 1399 090c 0193     		str	r3, [sp, #4]
 1400 090e 5923     		movs	r3, #89
 1401 0910 0293     		str	r3, [sp, #8]
 1402 0912 0846     		mov	r0, r1
 1403 0914 1146     		mov	r1, r2
 1404 0916 1222     		movs	r2, #18
 1405 0918 2346     		mov	r3, r4
 1406 091a FFF7FEFF 		bl	write_LCD
 211:.\LCD.c       ****                 write_LCD(lcd,button[31][x],22,x+5,2,0x2110,'Y');   //Nombre de imagen Suba la mani
 1407              		.loc 1 211 0 discriminator 3
 1408 091e FB7B     		ldrb	r3, [r7, #15]	@ zero_extendqisi2
 1409 0920 2E4A     		ldr	r2, .L249
 1410 0922 1344     		add	r3, r3, r2
 1411 0924 93F8F830 		ldrb	r3, [r3, #248]
 1412 0928 DAB2     		uxtb	r2, r3
 1413 092a FB7B     		ldrb	r3, [r7, #15]	@ zero_extendqisi2
 1414 092c 9BB2     		uxth	r3, r3
 1415 092e 0533     		adds	r3, r3, #5
 1416 0930 9CB2     		uxth	r4, r3
 1417 0932 F979     		ldrb	r1, [r7, #7]	@ zero_extendqisi2
 1418 0934 0223     		movs	r3, #2
 1419 0936 0093     		str	r3, [sp]
 1420 0938 42F21013 		movw	r3, #8464
ARM GAS  C:\Users\PROYEC~1\AppData\Local\Temp\ccMsBWpv.s 			page 30


 1421 093c 0193     		str	r3, [sp, #4]
 1422 093e 5923     		movs	r3, #89
 1423 0940 0293     		str	r3, [sp, #8]
 1424 0942 0846     		mov	r0, r1
 1425 0944 1146     		mov	r1, r2
 1426 0946 1622     		movs	r2, #22
 1427 0948 2346     		mov	r3, r4
 1428 094a FFF7FEFF 		bl	write_LCD
 209:.\LCD.c       ****                 write_LCD(lcd,button[30][x],18,x+5,2,0x2110,'Y');   //Nombre de imagen Suba la mani
 1429              		.loc 1 209 0 discriminator 3
 1430 094e FB7B     		ldrb	r3, [r7, #15]	@ zero_extendqisi2
 1431 0950 0133     		adds	r3, r3, #1
 1432 0952 FB73     		strb	r3, [r7, #15]
 1433              	.L83:
 209:.\LCD.c       ****                 write_LCD(lcd,button[30][x],18,x+5,2,0x2110,'Y');   //Nombre de imagen Suba la mani
 1434              		.loc 1 209 0 is_stmt 0 discriminator 1
 1435 0954 FB7B     		ldrb	r3, [r7, #15]	@ zero_extendqisi2
 1436 0956 072B     		cmp	r3, #7
 1437 0958 C9D9     		bls	.L84
 212:.\LCD.c       ****             }
 213:.\LCD.c       ****         break;
 1438              		.loc 1 213 0 is_stmt 1
 1439 095a 02F074BC 		b	.L16
 1440              	.L48:
 214:.\LCD.c       ****             
 215:.\LCD.c       ****         case 'W'://Espere 1 momento
 216:.\LCD.c       ****             for(x=0;x<8;x++){
 1441              		.loc 1 216 0
 1442 095e 0023     		movs	r3, #0
 1443 0960 FB73     		strb	r3, [r7, #15]
 1444 0962 32E0     		b	.L85
 1445              	.L86:
 217:.\LCD.c       ****                 write_LCD(lcd,button[32][x],18,x+5,2,0x2110,'Y');   //Nombre de imagen Esperando Re
 1446              		.loc 1 217 0 discriminator 3
 1447 0964 FB7B     		ldrb	r3, [r7, #15]	@ zero_extendqisi2
 1448 0966 1D4A     		ldr	r2, .L249
 1449 0968 1344     		add	r3, r3, r2
 1450 096a 93F80031 		ldrb	r3, [r3, #256]
 1451 096e DAB2     		uxtb	r2, r3
 1452 0970 FB7B     		ldrb	r3, [r7, #15]	@ zero_extendqisi2
 1453 0972 9BB2     		uxth	r3, r3
 1454 0974 0533     		adds	r3, r3, #5
 1455 0976 9CB2     		uxth	r4, r3
 1456 0978 F979     		ldrb	r1, [r7, #7]	@ zero_extendqisi2
 1457 097a 0223     		movs	r3, #2
 1458 097c 0093     		str	r3, [sp]
 1459 097e 42F21013 		movw	r3, #8464
 1460 0982 0193     		str	r3, [sp, #4]
 1461 0984 5923     		movs	r3, #89
 1462 0986 0293     		str	r3, [sp, #8]
 1463 0988 0846     		mov	r0, r1
 1464 098a 1146     		mov	r1, r2
 1465 098c 1222     		movs	r2, #18
 1466 098e 2346     		mov	r3, r4
 1467 0990 FFF7FEFF 		bl	write_LCD
 218:.\LCD.c       ****                 write_LCD(lcd,button[33][x],22,x+5,2,0x2110,'Y');   //Nombre de imagen Esperando Re
 1468              		.loc 1 218 0 discriminator 3
ARM GAS  C:\Users\PROYEC~1\AppData\Local\Temp\ccMsBWpv.s 			page 31


 1469 0994 FB7B     		ldrb	r3, [r7, #15]	@ zero_extendqisi2
 1470 0996 114A     		ldr	r2, .L249
 1471 0998 1344     		add	r3, r3, r2
 1472 099a 93F80831 		ldrb	r3, [r3, #264]
 1473 099e DAB2     		uxtb	r2, r3
 1474 09a0 FB7B     		ldrb	r3, [r7, #15]	@ zero_extendqisi2
 1475 09a2 9BB2     		uxth	r3, r3
 1476 09a4 0533     		adds	r3, r3, #5
 1477 09a6 9CB2     		uxth	r4, r3
 1478 09a8 F979     		ldrb	r1, [r7, #7]	@ zero_extendqisi2
 1479 09aa 0223     		movs	r3, #2
 1480 09ac 0093     		str	r3, [sp]
 1481 09ae 42F21013 		movw	r3, #8464
 1482 09b2 0193     		str	r3, [sp, #4]
 1483 09b4 5923     		movs	r3, #89
 1484 09b6 0293     		str	r3, [sp, #8]
 1485 09b8 0846     		mov	r0, r1
 1486 09ba 1146     		mov	r1, r2
 1487 09bc 1622     		movs	r2, #22
 1488 09be 2346     		mov	r3, r4
 1489 09c0 FFF7FEFF 		bl	write_LCD
 216:.\LCD.c       ****                 write_LCD(lcd,button[32][x],18,x+5,2,0x2110,'Y');   //Nombre de imagen Esperando Re
 1490              		.loc 1 216 0 discriminator 3
 1491 09c4 FB7B     		ldrb	r3, [r7, #15]	@ zero_extendqisi2
 1492 09c6 0133     		adds	r3, r3, #1
 1493 09c8 FB73     		strb	r3, [r7, #15]
 1494              	.L85:
 216:.\LCD.c       ****                 write_LCD(lcd,button[32][x],18,x+5,2,0x2110,'Y');   //Nombre de imagen Esperando Re
 1495              		.loc 1 216 0 is_stmt 0 discriminator 1
 1496 09ca FB7B     		ldrb	r3, [r7, #15]	@ zero_extendqisi2
 1497 09cc 072B     		cmp	r3, #7
 1498 09ce C9D9     		bls	.L86
 219:.\LCD.c       ****             }
 220:.\LCD.c       ****         break;
 1499              		.loc 1 220 0 is_stmt 1
 1500 09d0 02F039BC 		b	.L16
 1501              	.L36:
 221:.\LCD.c       ****           
 222:.\LCD.c       ****         case 'E'://Error de sistema
 223:.\LCD.c       ****             for(x=0;x<8;x++){
 1502              		.loc 1 223 0
 1503 09d4 0023     		movs	r3, #0
 1504 09d6 FB73     		strb	r3, [r7, #15]
 1505 09d8 35E0     		b	.L87
 1506              	.L250:
 1507 09da 00BF     		.align	2
 1508              	.L249:
 1509 09dc 00000000 		.word	button
 1510              	.L88:
 224:.\LCD.c       ****                 write_LCD(lcd,button[34][x],1,x+3,3,0x2110,'Y');   //Nombre de imagen Error de sist
 1511              		.loc 1 224 0 discriminator 3
 1512 09e0 FB7B     		ldrb	r3, [r7, #15]	@ zero_extendqisi2
 1513 09e2 BE4A     		ldr	r2, .L251
 1514 09e4 1344     		add	r3, r3, r2
 1515 09e6 93F81031 		ldrb	r3, [r3, #272]
 1516 09ea DAB2     		uxtb	r2, r3
 1517 09ec FB7B     		ldrb	r3, [r7, #15]	@ zero_extendqisi2
ARM GAS  C:\Users\PROYEC~1\AppData\Local\Temp\ccMsBWpv.s 			page 32


 1518 09ee 9BB2     		uxth	r3, r3
 1519 09f0 0333     		adds	r3, r3, #3
 1520 09f2 9CB2     		uxth	r4, r3
 1521 09f4 F979     		ldrb	r1, [r7, #7]	@ zero_extendqisi2
 1522 09f6 0323     		movs	r3, #3
 1523 09f8 0093     		str	r3, [sp]
 1524 09fa 42F21013 		movw	r3, #8464
 1525 09fe 0193     		str	r3, [sp, #4]
 1526 0a00 5923     		movs	r3, #89
 1527 0a02 0293     		str	r3, [sp, #8]
 1528 0a04 0846     		mov	r0, r1
 1529 0a06 1146     		mov	r1, r2
 1530 0a08 0122     		movs	r2, #1
 1531 0a0a 2346     		mov	r3, r4
 1532 0a0c FFF7FEFF 		bl	write_LCD
 225:.\LCD.c       ****                 write_LCD(lcd,button[35][x],7,x+3,3,0x2110,'Y');   //Nombre de imagen Error de sist
 1533              		.loc 1 225 0 discriminator 3
 1534 0a10 FB7B     		ldrb	r3, [r7, #15]	@ zero_extendqisi2
 1535 0a12 B24A     		ldr	r2, .L251
 1536 0a14 1344     		add	r3, r3, r2
 1537 0a16 93F81831 		ldrb	r3, [r3, #280]
 1538 0a1a DAB2     		uxtb	r2, r3
 1539 0a1c FB7B     		ldrb	r3, [r7, #15]	@ zero_extendqisi2
 1540 0a1e 9BB2     		uxth	r3, r3
 1541 0a20 0333     		adds	r3, r3, #3
 1542 0a22 9CB2     		uxth	r4, r3
 1543 0a24 F979     		ldrb	r1, [r7, #7]	@ zero_extendqisi2
 1544 0a26 0323     		movs	r3, #3
 1545 0a28 0093     		str	r3, [sp]
 1546 0a2a 42F21013 		movw	r3, #8464
 1547 0a2e 0193     		str	r3, [sp, #4]
 1548 0a30 5923     		movs	r3, #89
 1549 0a32 0293     		str	r3, [sp, #8]
 1550 0a34 0846     		mov	r0, r1
 1551 0a36 1146     		mov	r1, r2
 1552 0a38 0722     		movs	r2, #7
 1553 0a3a 2346     		mov	r3, r4
 1554 0a3c FFF7FEFF 		bl	write_LCD
 223:.\LCD.c       ****                 write_LCD(lcd,button[34][x],1,x+3,3,0x2110,'Y');   //Nombre de imagen Error de sist
 1555              		.loc 1 223 0 discriminator 3
 1556 0a40 FB7B     		ldrb	r3, [r7, #15]	@ zero_extendqisi2
 1557 0a42 0133     		adds	r3, r3, #1
 1558 0a44 FB73     		strb	r3, [r7, #15]
 1559              	.L87:
 223:.\LCD.c       ****                 write_LCD(lcd,button[34][x],1,x+3,3,0x2110,'Y');   //Nombre de imagen Error de sist
 1560              		.loc 1 223 0 is_stmt 0 discriminator 1
 1561 0a46 FB7B     		ldrb	r3, [r7, #15]	@ zero_extendqisi2
 1562 0a48 072B     		cmp	r3, #7
 1563 0a4a C9D9     		bls	.L88
 226:.\LCD.c       ****             }
 227:.\LCD.c       ****         break;
 1564              		.loc 1 227 0 is_stmt 1
 1565 0a4c 02F0FBBB 		b	.L16
 1566              	.L45:
 228:.\LCD.c       ****             
 229:.\LCD.c       ****         case 'T'://Tanqueando
 230:.\LCD.c       ****             for(x=0;x<8;x++){
ARM GAS  C:\Users\PROYEC~1\AppData\Local\Temp\ccMsBWpv.s 			page 33


 1567              		.loc 1 230 0
 1568 0a50 0023     		movs	r3, #0
 1569 0a52 FB73     		strb	r3, [r7, #15]
 1570 0a54 4AE0     		b	.L89
 1571              	.L90:
 231:.\LCD.c       ****                 write_LCD(lcd,button[36][x],16,x+3,3,0x2110,'Y');   //Nombre de imagen Tanqueando R
 1572              		.loc 1 231 0 discriminator 3
 1573 0a56 FB7B     		ldrb	r3, [r7, #15]	@ zero_extendqisi2
 1574 0a58 A04A     		ldr	r2, .L251
 1575 0a5a 1344     		add	r3, r3, r2
 1576 0a5c 93F82031 		ldrb	r3, [r3, #288]
 1577 0a60 DAB2     		uxtb	r2, r3
 1578 0a62 FB7B     		ldrb	r3, [r7, #15]	@ zero_extendqisi2
 1579 0a64 9BB2     		uxth	r3, r3
 1580 0a66 0333     		adds	r3, r3, #3
 1581 0a68 9CB2     		uxth	r4, r3
 1582 0a6a F979     		ldrb	r1, [r7, #7]	@ zero_extendqisi2
 1583 0a6c 0323     		movs	r3, #3
 1584 0a6e 0093     		str	r3, [sp]
 1585 0a70 42F21013 		movw	r3, #8464
 1586 0a74 0193     		str	r3, [sp, #4]
 1587 0a76 5923     		movs	r3, #89
 1588 0a78 0293     		str	r3, [sp, #8]
 1589 0a7a 0846     		mov	r0, r1
 1590 0a7c 1146     		mov	r1, r2
 1591 0a7e 1022     		movs	r2, #16
 1592 0a80 2346     		mov	r3, r4
 1593 0a82 FFF7FEFF 		bl	write_LCD
 232:.\LCD.c       ****                 write_LCD(lcd,button[37][x],22,x+3,3,0x2110,'Y');   //Nombre de imagen Tanqueando R
 1594              		.loc 1 232 0 discriminator 3
 1595 0a86 FB7B     		ldrb	r3, [r7, #15]	@ zero_extendqisi2
 1596 0a88 944A     		ldr	r2, .L251
 1597 0a8a 1344     		add	r3, r3, r2
 1598 0a8c 93F82831 		ldrb	r3, [r3, #296]
 1599 0a90 DAB2     		uxtb	r2, r3
 1600 0a92 FB7B     		ldrb	r3, [r7, #15]	@ zero_extendqisi2
 1601 0a94 9BB2     		uxth	r3, r3
 1602 0a96 0333     		adds	r3, r3, #3
 1603 0a98 9CB2     		uxth	r4, r3
 1604 0a9a F979     		ldrb	r1, [r7, #7]	@ zero_extendqisi2
 1605 0a9c 0323     		movs	r3, #3
 1606 0a9e 0093     		str	r3, [sp]
 1607 0aa0 42F21013 		movw	r3, #8464
 1608 0aa4 0193     		str	r3, [sp, #4]
 1609 0aa6 5923     		movs	r3, #89
 1610 0aa8 0293     		str	r3, [sp, #8]
 1611 0aaa 0846     		mov	r0, r1
 1612 0aac 1146     		mov	r1, r2
 1613 0aae 1622     		movs	r2, #22
 1614 0ab0 2346     		mov	r3, r4
 1615 0ab2 FFF7FEFF 		bl	write_LCD
 233:.\LCD.c       ****                 write_LCD(lcd,button[71][x],2,x+3,0,0xD000,'Y');   //Nombre de boton preset
 1616              		.loc 1 233 0 discriminator 3
 1617 0ab6 FB7B     		ldrb	r3, [r7, #15]	@ zero_extendqisi2
 1618 0ab8 884A     		ldr	r2, .L251
 1619 0aba 1344     		add	r3, r3, r2
 1620 0abc 93F83832 		ldrb	r3, [r3, #568]
ARM GAS  C:\Users\PROYEC~1\AppData\Local\Temp\ccMsBWpv.s 			page 34


 1621 0ac0 DAB2     		uxtb	r2, r3
 1622 0ac2 FB7B     		ldrb	r3, [r7, #15]	@ zero_extendqisi2
 1623 0ac4 9BB2     		uxth	r3, r3
 1624 0ac6 0333     		adds	r3, r3, #3
 1625 0ac8 9CB2     		uxth	r4, r3
 1626 0aca F979     		ldrb	r1, [r7, #7]	@ zero_extendqisi2
 1627 0acc 0023     		movs	r3, #0
 1628 0ace 0093     		str	r3, [sp]
 1629 0ad0 4FF45043 		mov	r3, #53248
 1630 0ad4 0193     		str	r3, [sp, #4]
 1631 0ad6 5923     		movs	r3, #89
 1632 0ad8 0293     		str	r3, [sp, #8]
 1633 0ada 0846     		mov	r0, r1
 1634 0adc 1146     		mov	r1, r2
 1635 0ade 0222     		movs	r2, #2
 1636 0ae0 2346     		mov	r3, r4
 1637 0ae2 FFF7FEFF 		bl	write_LCD
 230:.\LCD.c       ****                 write_LCD(lcd,button[36][x],16,x+3,3,0x2110,'Y');   //Nombre de imagen Tanqueando R
 1638              		.loc 1 230 0 discriminator 3
 1639 0ae6 FB7B     		ldrb	r3, [r7, #15]	@ zero_extendqisi2
 1640 0ae8 0133     		adds	r3, r3, #1
 1641 0aea FB73     		strb	r3, [r7, #15]
 1642              	.L89:
 230:.\LCD.c       ****                 write_LCD(lcd,button[36][x],16,x+3,3,0x2110,'Y');   //Nombre de imagen Tanqueando R
 1643              		.loc 1 230 0 is_stmt 0 discriminator 1
 1644 0aec FB7B     		ldrb	r3, [r7, #15]	@ zero_extendqisi2
 1645 0aee 072B     		cmp	r3, #7
 1646 0af0 B1D9     		bls	.L90
 234:.\LCD.c       ****             }
 235:.\LCD.c       ****             if(lcd==1){
 1647              		.loc 1 235 0 is_stmt 1
 1648 0af2 FB79     		ldrb	r3, [r7, #7]	@ zero_extendqisi2
 1649 0af4 012B     		cmp	r3, #1
 1650 0af6 40F0B581 		bne	.L91
 236:.\LCD.c       ****                 switch (bufferLCD1.presetType[1]){
 1651              		.loc 1 236 0
 1652 0afa 794B     		ldr	r3, .L251+4
 1653 0afc 93F86330 		ldrb	r3, [r3, #99]	@ zero_extendqisi2
 1654 0b00 313B     		subs	r3, r3, #49
 1655 0b02 252B     		cmp	r3, #37
 1656 0b04 00F27A81 		bhi	.L92
 1657 0b08 01A2     		adr	r2, .L94
 1658 0b0a 52F823F0 		ldr	pc, [r2, r3, lsl #2]
 1659 0b0e 00BF     		.p2align 2
 1660              	.L94:
 1661 0b10 E90C0000 		.word	.L93+1
 1662 0b14 450D0000 		.word	.L95+1
 1663 0b18 A10D0000 		.word	.L96+1
 1664 0b1c FD0D0000 		.word	.L92+1
 1665 0b20 FD0D0000 		.word	.L92+1
 1666 0b24 FD0D0000 		.word	.L92+1
 1667 0b28 FD0D0000 		.word	.L92+1
 1668 0b2c FD0D0000 		.word	.L92+1
 1669 0b30 FD0D0000 		.word	.L92+1
 1670 0b34 FD0D0000 		.word	.L92+1
 1671 0b38 FD0D0000 		.word	.L92+1
 1672 0b3c FD0D0000 		.word	.L92+1
ARM GAS  C:\Users\PROYEC~1\AppData\Local\Temp\ccMsBWpv.s 			page 35


 1673 0b40 FD0D0000 		.word	.L92+1
 1674 0b44 FD0D0000 		.word	.L92+1
 1675 0b48 FD0D0000 		.word	.L92+1
 1676 0b4c FD0D0000 		.word	.L92+1
 1677 0b50 FD0D0000 		.word	.L92+1
 1678 0b54 FD0D0000 		.word	.L92+1
 1679 0b58 FD0D0000 		.word	.L92+1
 1680 0b5c A90B0000 		.word	.L97+1
 1681 0b60 FD0D0000 		.word	.L92+1
 1682 0b64 750C0000 		.word	.L98+1
 1683 0b68 FD0D0000 		.word	.L92+1
 1684 0b6c FD0D0000 		.word	.L92+1
 1685 0b70 FD0D0000 		.word	.L92+1
 1686 0b74 FD0D0000 		.word	.L92+1
 1687 0b78 FD0D0000 		.word	.L92+1
 1688 0b7c FD0D0000 		.word	.L92+1
 1689 0b80 FD0D0000 		.word	.L92+1
 1690 0b84 FD0D0000 		.word	.L92+1
 1691 0b88 FD0D0000 		.word	.L92+1
 1692 0b8c FD0D0000 		.word	.L92+1
 1693 0b90 FD0D0000 		.word	.L92+1
 1694 0b94 FD0D0000 		.word	.L92+1
 1695 0b98 FD0D0000 		.word	.L92+1
 1696 0b9c FD0D0000 		.word	.L92+1
 1697 0ba0 FD0D0000 		.word	.L92+1
 1698 0ba4 0F0C0000 		.word	.L99+1
 1699              		.p2align 1
 1700              	.L97:
 237:.\LCD.c       ****                     case 'D':
 238:.\LCD.c       ****                         for(x=0;x<8;x++){
 1701              		.loc 1 238 0
 1702 0ba8 0023     		movs	r3, #0
 1703 0baa FB73     		strb	r3, [r7, #15]
 1704 0bac 1AE0     		b	.L100
 1705              	.L101:
 239:.\LCD.c       ****                             write_LCD(lcd,button[14][x],2,x+12,0,0x2110,'Y');   //Nombre de boton D
 1706              		.loc 1 239 0 discriminator 3
 1707 0bae FB7B     		ldrb	r3, [r7, #15]	@ zero_extendqisi2
 1708 0bb0 4A4A     		ldr	r2, .L251
 1709 0bb2 1344     		add	r3, r3, r2
 1710 0bb4 93F87030 		ldrb	r3, [r3, #112]
 1711 0bb8 DAB2     		uxtb	r2, r3
 1712 0bba FB7B     		ldrb	r3, [r7, #15]	@ zero_extendqisi2
 1713 0bbc 9BB2     		uxth	r3, r3
 1714 0bbe 0C33     		adds	r3, r3, #12
 1715 0bc0 9CB2     		uxth	r4, r3
 1716 0bc2 F979     		ldrb	r1, [r7, #7]	@ zero_extendqisi2
 1717 0bc4 0023     		movs	r3, #0
 1718 0bc6 0093     		str	r3, [sp]
 1719 0bc8 42F21013 		movw	r3, #8464
 1720 0bcc 0193     		str	r3, [sp, #4]
 1721 0bce 5923     		movs	r3, #89
 1722 0bd0 0293     		str	r3, [sp, #8]
 1723 0bd2 0846     		mov	r0, r1
 1724 0bd4 1146     		mov	r1, r2
 1725 0bd6 0222     		movs	r2, #2
 1726 0bd8 2346     		mov	r3, r4
ARM GAS  C:\Users\PROYEC~1\AppData\Local\Temp\ccMsBWpv.s 			page 36


 1727 0bda FFF7FEFF 		bl	write_LCD
 238:.\LCD.c       ****                             write_LCD(lcd,button[14][x],2,x+12,0,0x2110,'Y');   //Nombre de boton D
 1728              		.loc 1 238 0 discriminator 3
 1729 0bde FB7B     		ldrb	r3, [r7, #15]	@ zero_extendqisi2
 1730 0be0 0133     		adds	r3, r3, #1
 1731 0be2 FB73     		strb	r3, [r7, #15]
 1732              	.L100:
 238:.\LCD.c       ****                             write_LCD(lcd,button[14][x],2,x+12,0,0x2110,'Y');   //Nombre de boton D
 1733              		.loc 1 238 0 is_stmt 0 discriminator 1
 1734 0be4 FB7B     		ldrb	r3, [r7, #15]	@ zero_extendqisi2
 1735 0be6 072B     		cmp	r3, #7
 1736 0be8 E1D9     		bls	.L101
 240:.\LCD.c       ****                         }
 241:.\LCD.c       ****                         write_LCD(lcd,symbols[0],4,2,1,0xD000,'Y');   //Simbolo de dinero
 1737              		.loc 1 241 0 is_stmt 1
 1738 0bea 3E4B     		ldr	r3, .L251+8
 1739 0bec 1B78     		ldrb	r3, [r3]
 1740 0bee DAB2     		uxtb	r2, r3
 1741 0bf0 F979     		ldrb	r1, [r7, #7]	@ zero_extendqisi2
 1742 0bf2 0123     		movs	r3, #1
 1743 0bf4 0093     		str	r3, [sp]
 1744 0bf6 4FF45043 		mov	r3, #53248
 1745 0bfa 0193     		str	r3, [sp, #4]
 1746 0bfc 5923     		movs	r3, #89
 1747 0bfe 0293     		str	r3, [sp, #8]
 1748 0c00 0846     		mov	r0, r1
 1749 0c02 1146     		mov	r1, r2
 1750 0c04 0422     		movs	r2, #4
 1751 0c06 0223     		movs	r3, #2
 1752 0c08 FFF7FEFF 		bl	write_LCD
 242:.\LCD.c       ****                     break;
 1753              		.loc 1 242 0
 1754 0c0c F6E0     		b	.L92
 1755              	.L99:
 243:.\LCD.c       ****                     
 244:.\LCD.c       ****                     case 'V':
 245:.\LCD.c       ****                         for(x=0;x<8;x++){
 1756              		.loc 1 245 0
 1757 0c0e 0023     		movs	r3, #0
 1758 0c10 FB73     		strb	r3, [r7, #15]
 1759 0c12 1AE0     		b	.L102
 1760              	.L103:
 246:.\LCD.c       ****                             write_LCD(lcd,button[15][x],2,x+12,0,0x2110,'Y');   //Nombre de boton V
 1761              		.loc 1 246 0 discriminator 3
 1762 0c14 FB7B     		ldrb	r3, [r7, #15]	@ zero_extendqisi2
 1763 0c16 314A     		ldr	r2, .L251
 1764 0c18 1344     		add	r3, r3, r2
 1765 0c1a 93F87830 		ldrb	r3, [r3, #120]
 1766 0c1e DAB2     		uxtb	r2, r3
 1767 0c20 FB7B     		ldrb	r3, [r7, #15]	@ zero_extendqisi2
 1768 0c22 9BB2     		uxth	r3, r3
 1769 0c24 0C33     		adds	r3, r3, #12
 1770 0c26 9CB2     		uxth	r4, r3
 1771 0c28 F979     		ldrb	r1, [r7, #7]	@ zero_extendqisi2
 1772 0c2a 0023     		movs	r3, #0
 1773 0c2c 0093     		str	r3, [sp]
 1774 0c2e 42F21013 		movw	r3, #8464
ARM GAS  C:\Users\PROYEC~1\AppData\Local\Temp\ccMsBWpv.s 			page 37


 1775 0c32 0193     		str	r3, [sp, #4]
 1776 0c34 5923     		movs	r3, #89
 1777 0c36 0293     		str	r3, [sp, #8]
 1778 0c38 0846     		mov	r0, r1
 1779 0c3a 1146     		mov	r1, r2
 1780 0c3c 0222     		movs	r2, #2
 1781 0c3e 2346     		mov	r3, r4
 1782 0c40 FFF7FEFF 		bl	write_LCD
 245:.\LCD.c       ****                             write_LCD(lcd,button[15][x],2,x+12,0,0x2110,'Y');   //Nombre de boton V
 1783              		.loc 1 245 0 discriminator 3
 1784 0c44 FB7B     		ldrb	r3, [r7, #15]	@ zero_extendqisi2
 1785 0c46 0133     		adds	r3, r3, #1
 1786 0c48 FB73     		strb	r3, [r7, #15]
 1787              	.L102:
 245:.\LCD.c       ****                             write_LCD(lcd,button[15][x],2,x+12,0,0x2110,'Y');   //Nombre de boton V
 1788              		.loc 1 245 0 is_stmt 0 discriminator 1
 1789 0c4a FB7B     		ldrb	r3, [r7, #15]	@ zero_extendqisi2
 1790 0c4c 072B     		cmp	r3, #7
 1791 0c4e E1D9     		bls	.L103
 247:.\LCD.c       ****                         }
 248:.\LCD.c       ****                         write_LCD(lcd,symbols[1],4,2,1,0xD000,'Y');   //Simbolo de Volumen
 1792              		.loc 1 248 0 is_stmt 1
 1793 0c50 244B     		ldr	r3, .L251+8
 1794 0c52 5B78     		ldrb	r3, [r3, #1]
 1795 0c54 DAB2     		uxtb	r2, r3
 1796 0c56 F979     		ldrb	r1, [r7, #7]	@ zero_extendqisi2
 1797 0c58 0123     		movs	r3, #1
 1798 0c5a 0093     		str	r3, [sp]
 1799 0c5c 4FF45043 		mov	r3, #53248
 1800 0c60 0193     		str	r3, [sp, #4]
 1801 0c62 5923     		movs	r3, #89
 1802 0c64 0293     		str	r3, [sp, #8]
 1803 0c66 0846     		mov	r0, r1
 1804 0c68 1146     		mov	r1, r2
 1805 0c6a 0422     		movs	r2, #4
 1806 0c6c 0223     		movs	r3, #2
 1807 0c6e FFF7FEFF 		bl	write_LCD
 249:.\LCD.c       ****                     break;
 1808              		.loc 1 249 0
 1809 0c72 C3E0     		b	.L92
 1810              	.L98:
 250:.\LCD.c       ****                         
 251:.\LCD.c       ****                     case 'F':
 252:.\LCD.c       ****                         for(x=0;x<8;x++){
 1811              		.loc 1 252 0
 1812 0c74 0023     		movs	r3, #0
 1813 0c76 FB73     		strb	r3, [r7, #15]
 1814 0c78 1AE0     		b	.L104
 1815              	.L105:
 253:.\LCD.c       ****                             write_LCD(lcd,button[16][x],2,x+12,0,0x2110,'Y');   //Nombre de boton L
 1816              		.loc 1 253 0 discriminator 3
 1817 0c7a FB7B     		ldrb	r3, [r7, #15]	@ zero_extendqisi2
 1818 0c7c 174A     		ldr	r2, .L251
 1819 0c7e 1344     		add	r3, r3, r2
 1820 0c80 93F88030 		ldrb	r3, [r3, #128]
 1821 0c84 DAB2     		uxtb	r2, r3
 1822 0c86 FB7B     		ldrb	r3, [r7, #15]	@ zero_extendqisi2
ARM GAS  C:\Users\PROYEC~1\AppData\Local\Temp\ccMsBWpv.s 			page 38


 1823 0c88 9BB2     		uxth	r3, r3
 1824 0c8a 0C33     		adds	r3, r3, #12
 1825 0c8c 9CB2     		uxth	r4, r3
 1826 0c8e F979     		ldrb	r1, [r7, #7]	@ zero_extendqisi2
 1827 0c90 0023     		movs	r3, #0
 1828 0c92 0093     		str	r3, [sp]
 1829 0c94 42F21013 		movw	r3, #8464
 1830 0c98 0193     		str	r3, [sp, #4]
 1831 0c9a 5923     		movs	r3, #89
 1832 0c9c 0293     		str	r3, [sp, #8]
 1833 0c9e 0846     		mov	r0, r1
 1834 0ca0 1146     		mov	r1, r2
 1835 0ca2 0222     		movs	r2, #2
 1836 0ca4 2346     		mov	r3, r4
 1837 0ca6 FFF7FEFF 		bl	write_LCD
 252:.\LCD.c       ****                             write_LCD(lcd,button[16][x],2,x+12,0,0x2110,'Y');   //Nombre de boton L
 1838              		.loc 1 252 0 discriminator 3
 1839 0caa FB7B     		ldrb	r3, [r7, #15]	@ zero_extendqisi2
 1840 0cac 0133     		adds	r3, r3, #1
 1841 0cae FB73     		strb	r3, [r7, #15]
 1842              	.L104:
 252:.\LCD.c       ****                             write_LCD(lcd,button[16][x],2,x+12,0,0x2110,'Y');   //Nombre de boton L
 1843              		.loc 1 252 0 is_stmt 0 discriminator 1
 1844 0cb0 FB7B     		ldrb	r3, [r7, #15]	@ zero_extendqisi2
 1845 0cb2 072B     		cmp	r3, #7
 1846 0cb4 E1D9     		bls	.L105
 254:.\LCD.c       ****                         }
 255:.\LCD.c       ****                         write_LCD(lcd,symbols[0],4,2,1,0xD000,'Y');   //Simbolo de dinero
 1847              		.loc 1 255 0 is_stmt 1
 1848 0cb6 0B4B     		ldr	r3, .L251+8
 1849 0cb8 1B78     		ldrb	r3, [r3]
 1850 0cba DAB2     		uxtb	r2, r3
 1851 0cbc F979     		ldrb	r1, [r7, #7]	@ zero_extendqisi2
 1852 0cbe 0123     		movs	r3, #1
 1853 0cc0 0093     		str	r3, [sp]
 1854 0cc2 4FF45043 		mov	r3, #53248
 1855 0cc6 0193     		str	r3, [sp, #4]
 1856 0cc8 5923     		movs	r3, #89
 1857 0cca 0293     		str	r3, [sp, #8]
 1858 0ccc 0846     		mov	r0, r1
 1859 0cce 1146     		mov	r1, r2
 1860 0cd0 0422     		movs	r2, #4
 1861 0cd2 0223     		movs	r3, #2
 1862 0cd4 FFF7FEFF 		bl	write_LCD
 256:.\LCD.c       ****                     break;
 1863              		.loc 1 256 0
 1864 0cd8 90E0     		b	.L92
 1865              	.L252:
 1866 0cda 00BF     		.align	2
 1867              	.L251:
 1868 0cdc 00000000 		.word	button
 1869 0ce0 00000000 		.word	bufferLCD1
 1870 0ce4 00000000 		.word	symbols
 1871              	.L93:
 257:.\LCD.c       ****                     
 258:.\LCD.c       ****                     case '1':
 259:.\LCD.c       ****                         write_LCD(lcd,'P',2,12,0,0x2110,'Y');   //Nombre de boton P1
ARM GAS  C:\Users\PROYEC~1\AppData\Local\Temp\ccMsBWpv.s 			page 39


 1872              		.loc 1 259 0
 1873 0ce8 FA79     		ldrb	r2, [r7, #7]	@ zero_extendqisi2
 1874 0cea 0023     		movs	r3, #0
 1875 0cec 0093     		str	r3, [sp]
 1876 0cee 42F21013 		movw	r3, #8464
 1877 0cf2 0193     		str	r3, [sp, #4]
 1878 0cf4 5923     		movs	r3, #89
 1879 0cf6 0293     		str	r3, [sp, #8]
 1880 0cf8 1046     		mov	r0, r2
 1881 0cfa 5021     		movs	r1, #80
 1882 0cfc 0222     		movs	r2, #2
 1883 0cfe 0C23     		movs	r3, #12
 1884 0d00 FFF7FEFF 		bl	write_LCD
 260:.\LCD.c       ****                         write_LCD(lcd,'1',2,13,0,0x2110,'Y');   //Nombre de boton P1
 1885              		.loc 1 260 0
 1886 0d04 FA79     		ldrb	r2, [r7, #7]	@ zero_extendqisi2
 1887 0d06 0023     		movs	r3, #0
 1888 0d08 0093     		str	r3, [sp]
 1889 0d0a 42F21013 		movw	r3, #8464
 1890 0d0e 0193     		str	r3, [sp, #4]
 1891 0d10 5923     		movs	r3, #89
 1892 0d12 0293     		str	r3, [sp, #8]
 1893 0d14 1046     		mov	r0, r2
 1894 0d16 3121     		movs	r1, #49
 1895 0d18 0222     		movs	r2, #2
 1896 0d1a 0D23     		movs	r3, #13
 1897 0d1c FFF7FEFF 		bl	write_LCD
 261:.\LCD.c       ****                         write_LCD(lcd,symbols[0],4,2,1,0xD000,'Y');   //Simbolo de dinero
 1898              		.loc 1 261 0
 1899 0d20 B04B     		ldr	r3, .L253
 1900 0d22 1B78     		ldrb	r3, [r3]
 1901 0d24 DAB2     		uxtb	r2, r3
 1902 0d26 F979     		ldrb	r1, [r7, #7]	@ zero_extendqisi2
 1903 0d28 0123     		movs	r3, #1
 1904 0d2a 0093     		str	r3, [sp]
 1905 0d2c 4FF45043 		mov	r3, #53248
 1906 0d30 0193     		str	r3, [sp, #4]
 1907 0d32 5923     		movs	r3, #89
 1908 0d34 0293     		str	r3, [sp, #8]
 1909 0d36 0846     		mov	r0, r1
 1910 0d38 1146     		mov	r1, r2
 1911 0d3a 0422     		movs	r2, #4
 1912 0d3c 0223     		movs	r3, #2
 1913 0d3e FFF7FEFF 		bl	write_LCD
 262:.\LCD.c       ****                     break;
 1914              		.loc 1 262 0
 1915 0d42 5BE0     		b	.L92
 1916              	.L95:
 263:.\LCD.c       ****                     
 264:.\LCD.c       ****                     case '2':
 265:.\LCD.c       ****                         write_LCD(lcd,'P',2,12,0,0x2110,'Y');   //Nombre de boton P1
 1917              		.loc 1 265 0
 1918 0d44 FA79     		ldrb	r2, [r7, #7]	@ zero_extendqisi2
 1919 0d46 0023     		movs	r3, #0
 1920 0d48 0093     		str	r3, [sp]
 1921 0d4a 42F21013 		movw	r3, #8464
 1922 0d4e 0193     		str	r3, [sp, #4]
ARM GAS  C:\Users\PROYEC~1\AppData\Local\Temp\ccMsBWpv.s 			page 40


 1923 0d50 5923     		movs	r3, #89
 1924 0d52 0293     		str	r3, [sp, #8]
 1925 0d54 1046     		mov	r0, r2
 1926 0d56 5021     		movs	r1, #80
 1927 0d58 0222     		movs	r2, #2
 1928 0d5a 0C23     		movs	r3, #12
 1929 0d5c FFF7FEFF 		bl	write_LCD
 266:.\LCD.c       ****                         write_LCD(lcd,'2',2,13,0,0x2110,'Y');   //Nombre de boton P1
 1930              		.loc 1 266 0
 1931 0d60 FA79     		ldrb	r2, [r7, #7]	@ zero_extendqisi2
 1932 0d62 0023     		movs	r3, #0
 1933 0d64 0093     		str	r3, [sp]
 1934 0d66 42F21013 		movw	r3, #8464
 1935 0d6a 0193     		str	r3, [sp, #4]
 1936 0d6c 5923     		movs	r3, #89
 1937 0d6e 0293     		str	r3, [sp, #8]
 1938 0d70 1046     		mov	r0, r2
 1939 0d72 3221     		movs	r1, #50
 1940 0d74 0222     		movs	r2, #2
 1941 0d76 0D23     		movs	r3, #13
 1942 0d78 FFF7FEFF 		bl	write_LCD
 267:.\LCD.c       ****                         write_LCD(lcd,symbols[0],4,2,1,0xD000,'Y');   //Simbolo de dinero
 1943              		.loc 1 267 0
 1944 0d7c 994B     		ldr	r3, .L253
 1945 0d7e 1B78     		ldrb	r3, [r3]
 1946 0d80 DAB2     		uxtb	r2, r3
 1947 0d82 F979     		ldrb	r1, [r7, #7]	@ zero_extendqisi2
 1948 0d84 0123     		movs	r3, #1
 1949 0d86 0093     		str	r3, [sp]
 1950 0d88 4FF45043 		mov	r3, #53248
 1951 0d8c 0193     		str	r3, [sp, #4]
 1952 0d8e 5923     		movs	r3, #89
 1953 0d90 0293     		str	r3, [sp, #8]
 1954 0d92 0846     		mov	r0, r1
 1955 0d94 1146     		mov	r1, r2
 1956 0d96 0422     		movs	r2, #4
 1957 0d98 0223     		movs	r3, #2
 1958 0d9a FFF7FEFF 		bl	write_LCD
 268:.\LCD.c       ****                     break;
 1959              		.loc 1 268 0
 1960 0d9e 2DE0     		b	.L92
 1961              	.L96:
 269:.\LCD.c       ****                     
 270:.\LCD.c       ****                     case '3':
 271:.\LCD.c       ****                         write_LCD(lcd,'P',2,12,0,0x2110,'Y');   //Nombre de boton P1
 1962              		.loc 1 271 0
 1963 0da0 FA79     		ldrb	r2, [r7, #7]	@ zero_extendqisi2
 1964 0da2 0023     		movs	r3, #0
 1965 0da4 0093     		str	r3, [sp]
 1966 0da6 42F21013 		movw	r3, #8464
 1967 0daa 0193     		str	r3, [sp, #4]
 1968 0dac 5923     		movs	r3, #89
 1969 0dae 0293     		str	r3, [sp, #8]
 1970 0db0 1046     		mov	r0, r2
 1971 0db2 5021     		movs	r1, #80
 1972 0db4 0222     		movs	r2, #2
 1973 0db6 0C23     		movs	r3, #12
ARM GAS  C:\Users\PROYEC~1\AppData\Local\Temp\ccMsBWpv.s 			page 41


 1974 0db8 FFF7FEFF 		bl	write_LCD
 272:.\LCD.c       ****                         write_LCD(lcd,'3',2,13,0,0x2110,'Y');   //Nombre de boton P1
 1975              		.loc 1 272 0
 1976 0dbc FA79     		ldrb	r2, [r7, #7]	@ zero_extendqisi2
 1977 0dbe 0023     		movs	r3, #0
 1978 0dc0 0093     		str	r3, [sp]
 1979 0dc2 42F21013 		movw	r3, #8464
 1980 0dc6 0193     		str	r3, [sp, #4]
 1981 0dc8 5923     		movs	r3, #89
 1982 0dca 0293     		str	r3, [sp, #8]
 1983 0dcc 1046     		mov	r0, r2
 1984 0dce 3321     		movs	r1, #51
 1985 0dd0 0222     		movs	r2, #2
 1986 0dd2 0D23     		movs	r3, #13
 1987 0dd4 FFF7FEFF 		bl	write_LCD
 273:.\LCD.c       ****                         write_LCD(lcd,symbols[0],4,2,1,0xD000,'Y');   //Simbolo de dinero
 1988              		.loc 1 273 0
 1989 0dd8 824B     		ldr	r3, .L253
 1990 0dda 1B78     		ldrb	r3, [r3]
 1991 0ddc DAB2     		uxtb	r2, r3
 1992 0dde F979     		ldrb	r1, [r7, #7]	@ zero_extendqisi2
 1993 0de0 0123     		movs	r3, #1
 1994 0de2 0093     		str	r3, [sp]
 1995 0de4 4FF45043 		mov	r3, #53248
 1996 0de8 0193     		str	r3, [sp, #4]
 1997 0dea 5923     		movs	r3, #89
 1998 0dec 0293     		str	r3, [sp, #8]
 1999 0dee 0846     		mov	r0, r1
 2000 0df0 1146     		mov	r1, r2
 2001 0df2 0422     		movs	r2, #4
 2002 0df4 0223     		movs	r3, #2
 2003 0df6 FFF7FEFF 		bl	write_LCD
 274:.\LCD.c       ****                     break;
 2004              		.loc 1 274 0
 2005 0dfa 00BF     		nop
 2006              	.L92:
 275:.\LCD.c       ****                 }
 276:.\LCD.c       ****                 flag=0;
 2007              		.loc 1 276 0
 2008 0dfc 0023     		movs	r3, #0
 2009 0dfe 7B73     		strb	r3, [r7, #13]
 277:.\LCD.c       ****                 for(x=1;x<=bufferLCD1.presetValue[1][0];x++){
 2010              		.loc 1 277 0
 2011 0e00 0123     		movs	r3, #1
 2012 0e02 FB73     		strb	r3, [r7, #15]
 2013 0e04 26E0     		b	.L106
 2014              	.L109:
 278:.\LCD.c       ****                     if(bufferLCD1.presetValue[1][x]=='0' && flag==0){
 2015              		.loc 1 278 0
 2016 0e06 FB7B     		ldrb	r3, [r7, #15]	@ zero_extendqisi2
 2017 0e08 774A     		ldr	r2, .L253+4
 2018 0e0a 1344     		add	r3, r3, r2
 2019 0e0c 93F86E30 		ldrb	r3, [r3, #110]	@ zero_extendqisi2
 2020 0e10 302B     		cmp	r3, #48
 2021 0e12 03D1     		bne	.L107
 2022              		.loc 1 278 0 is_stmt 0 discriminator 1
 2023 0e14 7B7B     		ldrb	r3, [r7, #13]	@ zero_extendqisi2
ARM GAS  C:\Users\PROYEC~1\AppData\Local\Temp\ccMsBWpv.s 			page 42


 2024 0e16 002B     		cmp	r3, #0
 2025 0e18 00D1     		bne	.L107
 2026              		.loc 1 278 0
 2027 0e1a 18E0     		b	.L108
 2028              	.L107:
 279:.\LCD.c       ****                     }else{
 280:.\LCD.c       ****                         write_LCD(lcd,bufferLCD1.presetValue[1][x],4,x+2,1,0x2110,'Y');
 2029              		.loc 1 280 0 is_stmt 1
 2030 0e1c FB7B     		ldrb	r3, [r7, #15]	@ zero_extendqisi2
 2031 0e1e 724A     		ldr	r2, .L253+4
 2032 0e20 1344     		add	r3, r3, r2
 2033 0e22 93F86E20 		ldrb	r2, [r3, #110]	@ zero_extendqisi2
 2034 0e26 FB7B     		ldrb	r3, [r7, #15]	@ zero_extendqisi2
 2035 0e28 9BB2     		uxth	r3, r3
 2036 0e2a 0233     		adds	r3, r3, #2
 2037 0e2c 9CB2     		uxth	r4, r3
 2038 0e2e F979     		ldrb	r1, [r7, #7]	@ zero_extendqisi2
 2039 0e30 0123     		movs	r3, #1
 2040 0e32 0093     		str	r3, [sp]
 2041 0e34 42F21013 		movw	r3, #8464
 2042 0e38 0193     		str	r3, [sp, #4]
 2043 0e3a 5923     		movs	r3, #89
 2044 0e3c 0293     		str	r3, [sp, #8]
 2045 0e3e 0846     		mov	r0, r1
 2046 0e40 1146     		mov	r1, r2
 2047 0e42 0422     		movs	r2, #4
 2048 0e44 2346     		mov	r3, r4
 2049 0e46 FFF7FEFF 		bl	write_LCD
 281:.\LCD.c       ****                         flag=1;
 2050              		.loc 1 281 0
 2051 0e4a 0123     		movs	r3, #1
 2052 0e4c 7B73     		strb	r3, [r7, #13]
 2053              	.L108:
 277:.\LCD.c       ****                     if(bufferLCD1.presetValue[1][x]=='0' && flag==0){
 2054              		.loc 1 277 0 discriminator 2
 2055 0e4e FB7B     		ldrb	r3, [r7, #15]	@ zero_extendqisi2
 2056 0e50 0133     		adds	r3, r3, #1
 2057 0e52 FB73     		strb	r3, [r7, #15]
 2058              	.L106:
 277:.\LCD.c       ****                     if(bufferLCD1.presetValue[1][x]=='0' && flag==0){
 2059              		.loc 1 277 0 is_stmt 0 discriminator 1
 2060 0e54 644B     		ldr	r3, .L253+4
 2061 0e56 93F86E30 		ldrb	r3, [r3, #110]	@ zero_extendqisi2
 2062 0e5a FA7B     		ldrb	r2, [r7, #15]	@ zero_extendqisi2
 2063 0e5c 9A42     		cmp	r2, r3
 2064 0e5e D2D9     		bls	.L109
 282:.\LCD.c       ****                     }
 283:.\LCD.c       ****                 }
 284:.\LCD.c       ****             }else{
 285:.\LCD.c       ****                 switch (bufferLCD2.presetType[1]){
 286:.\LCD.c       ****                     case 'D':
 287:.\LCD.c       ****                         for(x=0;x<8;x++){
 288:.\LCD.c       ****                             write_LCD(lcd,button[14][x],2,x+12,0,0x2110,'Y');   //Nombre de boton D
 289:.\LCD.c       ****                         }
 290:.\LCD.c       ****                         write_LCD(lcd,symbols[0],4,2,1,0xD000,'Y');   //Simbolo de dinero
 291:.\LCD.c       ****                     break;
 292:.\LCD.c       ****                     
ARM GAS  C:\Users\PROYEC~1\AppData\Local\Temp\ccMsBWpv.s 			page 43


 293:.\LCD.c       ****                     case 'V':
 294:.\LCD.c       ****                         for(x=0;x<8;x++){
 295:.\LCD.c       ****                             write_LCD(lcd,button[15][x],2,x+12,0,0x2110,'Y');   //Nombre de boton V
 296:.\LCD.c       ****                         }
 297:.\LCD.c       ****                         write_LCD(lcd,symbols[1],4,2,1,0xD000,'Y');   //Simbolo de Volumen
 298:.\LCD.c       ****                     break;
 299:.\LCD.c       ****                         
 300:.\LCD.c       ****                     case 'F':
 301:.\LCD.c       ****                         for(x=0;x<8;x++){
 302:.\LCD.c       ****                             write_LCD(lcd,button[16][x],2,x+12,0,0x2110,'Y');   //Nombre de boton L
 303:.\LCD.c       ****                         }
 304:.\LCD.c       ****                         write_LCD(lcd,symbols[0],4,2,1,0xD000,'Y');   //Simbolo de dinero
 305:.\LCD.c       ****                     break;
 306:.\LCD.c       ****                     
 307:.\LCD.c       ****                     case '1':
 308:.\LCD.c       ****                         write_LCD(lcd,'P',2,12,0,0x2110,'Y');   //Nombre de boton P1
 309:.\LCD.c       ****                         write_LCD(lcd,'1',2,13,0,0x2110,'Y');   //Nombre de boton P1
 310:.\LCD.c       ****                         write_LCD(lcd,symbols[0],4,2,1,0xD000,'Y');   //Simbolo de dinero
 311:.\LCD.c       ****                     break;
 312:.\LCD.c       ****                     
 313:.\LCD.c       ****                     case '2':
 314:.\LCD.c       ****                         write_LCD(lcd,'P',2,12,0,0x2110,'Y');   //Nombre de boton P1
 315:.\LCD.c       ****                         write_LCD(lcd,'2',2,13,0,0x2110,'Y');   //Nombre de boton P1
 316:.\LCD.c       ****                         write_LCD(lcd,symbols[0],4,2,1,0xD000,'Y');   //Simbolo de dinero
 317:.\LCD.c       ****                     break;
 318:.\LCD.c       ****                     
 319:.\LCD.c       ****                     case '3':
 320:.\LCD.c       ****                         write_LCD(lcd,'P',2,12,0,0x2110,'Y');   //Nombre de boton P1
 321:.\LCD.c       ****                         write_LCD(lcd,'3',2,13,0,0x2110,'Y');   //Nombre de boton P1
 322:.\LCD.c       ****                         write_LCD(lcd,symbols[0],4,2,1,0xD000,'Y');   //Simbolo de dinero
 323:.\LCD.c       ****                     break;
 324:.\LCD.c       ****                 }
 325:.\LCD.c       ****                 flag=0;
 326:.\LCD.c       ****                 for(x=1;x<=bufferLCD2.presetValue[1][0];x++){
 327:.\LCD.c       ****                     if(bufferLCD2.presetValue[1][x]=='0' && flag==0){
 328:.\LCD.c       ****                     }else{
 329:.\LCD.c       ****                         write_LCD(lcd,bufferLCD2.presetValue[1][x],4,x+2,1,0x2110,'Y');
 330:.\LCD.c       ****                         flag=1;
 331:.\LCD.c       ****                     }
 332:.\LCD.c       ****                 }
 333:.\LCD.c       ****             }
 334:.\LCD.c       ****         break;
 2065              		.loc 1 334 0 is_stmt 1
 2066 0e60 02F0F1B9 		b	.L16
 2067              	.L91:
 285:.\LCD.c       ****                     case 'D':
 2068              		.loc 1 285 0
 2069 0e64 614B     		ldr	r3, .L253+8
 2070 0e66 93F86330 		ldrb	r3, [r3, #99]	@ zero_extendqisi2
 2071 0e6a 313B     		subs	r3, r3, #49
 2072 0e6c 252B     		cmp	r3, #37
 2073 0e6e 00F27B81 		bhi	.L111
 2074 0e72 01A2     		adr	r2, .L113
 2075 0e74 52F823F0 		ldr	pc, [r2, r3, lsl #2]
 2076              		.p2align 2
 2077              	.L113:
 2078 0e78 55100000 		.word	.L112+1
ARM GAS  C:\Users\PROYEC~1\AppData\Local\Temp\ccMsBWpv.s 			page 44


 2079 0e7c B1100000 		.word	.L114+1
 2080 0e80 0D110000 		.word	.L115+1
 2081 0e84 69110000 		.word	.L111+1
 2082 0e88 69110000 		.word	.L111+1
 2083 0e8c 69110000 		.word	.L111+1
 2084 0e90 69110000 		.word	.L111+1
 2085 0e94 69110000 		.word	.L111+1
 2086 0e98 69110000 		.word	.L111+1
 2087 0e9c 69110000 		.word	.L111+1
 2088 0ea0 69110000 		.word	.L111+1
 2089 0ea4 69110000 		.word	.L111+1
 2090 0ea8 69110000 		.word	.L111+1
 2091 0eac 69110000 		.word	.L111+1
 2092 0eb0 69110000 		.word	.L111+1
 2093 0eb4 69110000 		.word	.L111+1
 2094 0eb8 69110000 		.word	.L111+1
 2095 0ebc 69110000 		.word	.L111+1
 2096 0ec0 69110000 		.word	.L111+1
 2097 0ec4 110F0000 		.word	.L116+1
 2098 0ec8 69110000 		.word	.L111+1
 2099 0ecc DD0F0000 		.word	.L117+1
 2100 0ed0 69110000 		.word	.L111+1
 2101 0ed4 69110000 		.word	.L111+1
 2102 0ed8 69110000 		.word	.L111+1
 2103 0edc 69110000 		.word	.L111+1
 2104 0ee0 69110000 		.word	.L111+1
 2105 0ee4 69110000 		.word	.L111+1
 2106 0ee8 69110000 		.word	.L111+1
 2107 0eec 69110000 		.word	.L111+1
 2108 0ef0 69110000 		.word	.L111+1
 2109 0ef4 69110000 		.word	.L111+1
 2110 0ef8 69110000 		.word	.L111+1
 2111 0efc 69110000 		.word	.L111+1
 2112 0f00 69110000 		.word	.L111+1
 2113 0f04 69110000 		.word	.L111+1
 2114 0f08 69110000 		.word	.L111+1
 2115 0f0c 770F0000 		.word	.L118+1
 2116              		.p2align 1
 2117              	.L116:
 287:.\LCD.c       ****                             write_LCD(lcd,button[14][x],2,x+12,0,0x2110,'Y');   //Nombre de boton D
 2118              		.loc 1 287 0
 2119 0f10 0023     		movs	r3, #0
 2120 0f12 FB73     		strb	r3, [r7, #15]
 2121 0f14 1AE0     		b	.L119
 2122              	.L120:
 288:.\LCD.c       ****                         }
 2123              		.loc 1 288 0 discriminator 3
 2124 0f16 FB7B     		ldrb	r3, [r7, #15]	@ zero_extendqisi2
 2125 0f18 354A     		ldr	r2, .L253+12
 2126 0f1a 1344     		add	r3, r3, r2
 2127 0f1c 93F87030 		ldrb	r3, [r3, #112]
 2128 0f20 DAB2     		uxtb	r2, r3
 2129 0f22 FB7B     		ldrb	r3, [r7, #15]	@ zero_extendqisi2
 2130 0f24 9BB2     		uxth	r3, r3
 2131 0f26 0C33     		adds	r3, r3, #12
 2132 0f28 9CB2     		uxth	r4, r3
 2133 0f2a F979     		ldrb	r1, [r7, #7]	@ zero_extendqisi2
ARM GAS  C:\Users\PROYEC~1\AppData\Local\Temp\ccMsBWpv.s 			page 45


 2134 0f2c 0023     		movs	r3, #0
 2135 0f2e 0093     		str	r3, [sp]
 2136 0f30 42F21013 		movw	r3, #8464
 2137 0f34 0193     		str	r3, [sp, #4]
 2138 0f36 5923     		movs	r3, #89
 2139 0f38 0293     		str	r3, [sp, #8]
 2140 0f3a 0846     		mov	r0, r1
 2141 0f3c 1146     		mov	r1, r2
 2142 0f3e 0222     		movs	r2, #2
 2143 0f40 2346     		mov	r3, r4
 2144 0f42 FFF7FEFF 		bl	write_LCD
 287:.\LCD.c       ****                             write_LCD(lcd,button[14][x],2,x+12,0,0x2110,'Y');   //Nombre de boton D
 2145              		.loc 1 287 0 discriminator 3
 2146 0f46 FB7B     		ldrb	r3, [r7, #15]	@ zero_extendqisi2
 2147 0f48 0133     		adds	r3, r3, #1
 2148 0f4a FB73     		strb	r3, [r7, #15]
 2149              	.L119:
 287:.\LCD.c       ****                             write_LCD(lcd,button[14][x],2,x+12,0,0x2110,'Y');   //Nombre de boton D
 2150              		.loc 1 287 0 is_stmt 0 discriminator 1
 2151 0f4c FB7B     		ldrb	r3, [r7, #15]	@ zero_extendqisi2
 2152 0f4e 072B     		cmp	r3, #7
 2153 0f50 E1D9     		bls	.L120
 290:.\LCD.c       ****                     break;
 2154              		.loc 1 290 0 is_stmt 1
 2155 0f52 244B     		ldr	r3, .L253
 2156 0f54 1B78     		ldrb	r3, [r3]
 2157 0f56 DAB2     		uxtb	r2, r3
 2158 0f58 F979     		ldrb	r1, [r7, #7]	@ zero_extendqisi2
 2159 0f5a 0123     		movs	r3, #1
 2160 0f5c 0093     		str	r3, [sp]
 2161 0f5e 4FF45043 		mov	r3, #53248
 2162 0f62 0193     		str	r3, [sp, #4]
 2163 0f64 5923     		movs	r3, #89
 2164 0f66 0293     		str	r3, [sp, #8]
 2165 0f68 0846     		mov	r0, r1
 2166 0f6a 1146     		mov	r1, r2
 2167 0f6c 0422     		movs	r2, #4
 2168 0f6e 0223     		movs	r3, #2
 2169 0f70 FFF7FEFF 		bl	write_LCD
 291:.\LCD.c       ****                     
 2170              		.loc 1 291 0
 2171 0f74 F8E0     		b	.L111
 2172              	.L118:
 294:.\LCD.c       ****                             write_LCD(lcd,button[15][x],2,x+12,0,0x2110,'Y');   //Nombre de boton V
 2173              		.loc 1 294 0
 2174 0f76 0023     		movs	r3, #0
 2175 0f78 FB73     		strb	r3, [r7, #15]
 2176 0f7a 1AE0     		b	.L121
 2177              	.L122:
 295:.\LCD.c       ****                         }
 2178              		.loc 1 295 0 discriminator 3
 2179 0f7c FB7B     		ldrb	r3, [r7, #15]	@ zero_extendqisi2
 2180 0f7e 1C4A     		ldr	r2, .L253+12
 2181 0f80 1344     		add	r3, r3, r2
 2182 0f82 93F87830 		ldrb	r3, [r3, #120]
 2183 0f86 DAB2     		uxtb	r2, r3
 2184 0f88 FB7B     		ldrb	r3, [r7, #15]	@ zero_extendqisi2
ARM GAS  C:\Users\PROYEC~1\AppData\Local\Temp\ccMsBWpv.s 			page 46


 2185 0f8a 9BB2     		uxth	r3, r3
 2186 0f8c 0C33     		adds	r3, r3, #12
 2187 0f8e 9CB2     		uxth	r4, r3
 2188 0f90 F979     		ldrb	r1, [r7, #7]	@ zero_extendqisi2
 2189 0f92 0023     		movs	r3, #0
 2190 0f94 0093     		str	r3, [sp]
 2191 0f96 42F21013 		movw	r3, #8464
 2192 0f9a 0193     		str	r3, [sp, #4]
 2193 0f9c 5923     		movs	r3, #89
 2194 0f9e 0293     		str	r3, [sp, #8]
 2195 0fa0 0846     		mov	r0, r1
 2196 0fa2 1146     		mov	r1, r2
 2197 0fa4 0222     		movs	r2, #2
 2198 0fa6 2346     		mov	r3, r4
 2199 0fa8 FFF7FEFF 		bl	write_LCD
 294:.\LCD.c       ****                             write_LCD(lcd,button[15][x],2,x+12,0,0x2110,'Y');   //Nombre de boton V
 2200              		.loc 1 294 0 discriminator 3
 2201 0fac FB7B     		ldrb	r3, [r7, #15]	@ zero_extendqisi2
 2202 0fae 0133     		adds	r3, r3, #1
 2203 0fb0 FB73     		strb	r3, [r7, #15]
 2204              	.L121:
 294:.\LCD.c       ****                             write_LCD(lcd,button[15][x],2,x+12,0,0x2110,'Y');   //Nombre de boton V
 2205              		.loc 1 294 0 is_stmt 0 discriminator 1
 2206 0fb2 FB7B     		ldrb	r3, [r7, #15]	@ zero_extendqisi2
 2207 0fb4 072B     		cmp	r3, #7
 2208 0fb6 E1D9     		bls	.L122
 297:.\LCD.c       ****                     break;
 2209              		.loc 1 297 0 is_stmt 1
 2210 0fb8 0A4B     		ldr	r3, .L253
 2211 0fba 5B78     		ldrb	r3, [r3, #1]
 2212 0fbc DAB2     		uxtb	r2, r3
 2213 0fbe F979     		ldrb	r1, [r7, #7]	@ zero_extendqisi2
 2214 0fc0 0123     		movs	r3, #1
 2215 0fc2 0093     		str	r3, [sp]
 2216 0fc4 4FF45043 		mov	r3, #53248
 2217 0fc8 0193     		str	r3, [sp, #4]
 2218 0fca 5923     		movs	r3, #89
 2219 0fcc 0293     		str	r3, [sp, #8]
 2220 0fce 0846     		mov	r0, r1
 2221 0fd0 1146     		mov	r1, r2
 2222 0fd2 0422     		movs	r2, #4
 2223 0fd4 0223     		movs	r3, #2
 2224 0fd6 FFF7FEFF 		bl	write_LCD
 298:.\LCD.c       ****                         
 2225              		.loc 1 298 0
 2226 0fda C5E0     		b	.L111
 2227              	.L117:
 301:.\LCD.c       ****                             write_LCD(lcd,button[16][x],2,x+12,0,0x2110,'Y');   //Nombre de boton L
 2228              		.loc 1 301 0
 2229 0fdc 0023     		movs	r3, #0
 2230 0fde FB73     		strb	r3, [r7, #15]
 2231 0fe0 23E0     		b	.L123
 2232              	.L254:
 2233 0fe2 00BF     		.align	2
 2234              	.L253:
 2235 0fe4 00000000 		.word	symbols
 2236 0fe8 00000000 		.word	bufferLCD1
ARM GAS  C:\Users\PROYEC~1\AppData\Local\Temp\ccMsBWpv.s 			page 47


 2237 0fec 00000000 		.word	bufferLCD2
 2238 0ff0 00000000 		.word	button
 2239              	.L124:
 302:.\LCD.c       ****                         }
 2240              		.loc 1 302 0 discriminator 3
 2241 0ff4 FB7B     		ldrb	r3, [r7, #15]	@ zero_extendqisi2
 2242 0ff6 784A     		ldr	r2, .L255
 2243 0ff8 1344     		add	r3, r3, r2
 2244 0ffa 93F88030 		ldrb	r3, [r3, #128]
 2245 0ffe DAB2     		uxtb	r2, r3
 2246 1000 FB7B     		ldrb	r3, [r7, #15]	@ zero_extendqisi2
 2247 1002 9BB2     		uxth	r3, r3
 2248 1004 0C33     		adds	r3, r3, #12
 2249 1006 9CB2     		uxth	r4, r3
 2250 1008 F979     		ldrb	r1, [r7, #7]	@ zero_extendqisi2
 2251 100a 0023     		movs	r3, #0
 2252 100c 0093     		str	r3, [sp]
 2253 100e 42F21013 		movw	r3, #8464
 2254 1012 0193     		str	r3, [sp, #4]
 2255 1014 5923     		movs	r3, #89
 2256 1016 0293     		str	r3, [sp, #8]
 2257 1018 0846     		mov	r0, r1
 2258 101a 1146     		mov	r1, r2
 2259 101c 0222     		movs	r2, #2
 2260 101e 2346     		mov	r3, r4
 2261 1020 FFF7FEFF 		bl	write_LCD
 301:.\LCD.c       ****                             write_LCD(lcd,button[16][x],2,x+12,0,0x2110,'Y');   //Nombre de boton L
 2262              		.loc 1 301 0 discriminator 3
 2263 1024 FB7B     		ldrb	r3, [r7, #15]	@ zero_extendqisi2
 2264 1026 0133     		adds	r3, r3, #1
 2265 1028 FB73     		strb	r3, [r7, #15]
 2266              	.L123:
 301:.\LCD.c       ****                             write_LCD(lcd,button[16][x],2,x+12,0,0x2110,'Y');   //Nombre de boton L
 2267              		.loc 1 301 0 is_stmt 0 discriminator 1
 2268 102a FB7B     		ldrb	r3, [r7, #15]	@ zero_extendqisi2
 2269 102c 072B     		cmp	r3, #7
 2270 102e E1D9     		bls	.L124
 304:.\LCD.c       ****                     break;
 2271              		.loc 1 304 0 is_stmt 1
 2272 1030 6A4B     		ldr	r3, .L255+4
 2273 1032 1B78     		ldrb	r3, [r3]
 2274 1034 DAB2     		uxtb	r2, r3
 2275 1036 F979     		ldrb	r1, [r7, #7]	@ zero_extendqisi2
 2276 1038 0123     		movs	r3, #1
 2277 103a 0093     		str	r3, [sp]
 2278 103c 4FF45043 		mov	r3, #53248
 2279 1040 0193     		str	r3, [sp, #4]
 2280 1042 5923     		movs	r3, #89
 2281 1044 0293     		str	r3, [sp, #8]
 2282 1046 0846     		mov	r0, r1
 2283 1048 1146     		mov	r1, r2
 2284 104a 0422     		movs	r2, #4
 2285 104c 0223     		movs	r3, #2
 2286 104e FFF7FEFF 		bl	write_LCD
 305:.\LCD.c       ****                     
 2287              		.loc 1 305 0
 2288 1052 89E0     		b	.L111
ARM GAS  C:\Users\PROYEC~1\AppData\Local\Temp\ccMsBWpv.s 			page 48


 2289              	.L112:
 308:.\LCD.c       ****                         write_LCD(lcd,'1',2,13,0,0x2110,'Y');   //Nombre de boton P1
 2290              		.loc 1 308 0
 2291 1054 FA79     		ldrb	r2, [r7, #7]	@ zero_extendqisi2
 2292 1056 0023     		movs	r3, #0
 2293 1058 0093     		str	r3, [sp]
 2294 105a 42F21013 		movw	r3, #8464
 2295 105e 0193     		str	r3, [sp, #4]
 2296 1060 5923     		movs	r3, #89
 2297 1062 0293     		str	r3, [sp, #8]
 2298 1064 1046     		mov	r0, r2
 2299 1066 5021     		movs	r1, #80
 2300 1068 0222     		movs	r2, #2
 2301 106a 0C23     		movs	r3, #12
 2302 106c FFF7FEFF 		bl	write_LCD
 309:.\LCD.c       ****                         write_LCD(lcd,symbols[0],4,2,1,0xD000,'Y');   //Simbolo de dinero
 2303              		.loc 1 309 0
 2304 1070 FA79     		ldrb	r2, [r7, #7]	@ zero_extendqisi2
 2305 1072 0023     		movs	r3, #0
 2306 1074 0093     		str	r3, [sp]
 2307 1076 42F21013 		movw	r3, #8464
 2308 107a 0193     		str	r3, [sp, #4]
 2309 107c 5923     		movs	r3, #89
 2310 107e 0293     		str	r3, [sp, #8]
 2311 1080 1046     		mov	r0, r2
 2312 1082 3121     		movs	r1, #49
 2313 1084 0222     		movs	r2, #2
 2314 1086 0D23     		movs	r3, #13
 2315 1088 FFF7FEFF 		bl	write_LCD
 310:.\LCD.c       ****                     break;
 2316              		.loc 1 310 0
 2317 108c 534B     		ldr	r3, .L255+4
 2318 108e 1B78     		ldrb	r3, [r3]
 2319 1090 DAB2     		uxtb	r2, r3
 2320 1092 F979     		ldrb	r1, [r7, #7]	@ zero_extendqisi2
 2321 1094 0123     		movs	r3, #1
 2322 1096 0093     		str	r3, [sp]
 2323 1098 4FF45043 		mov	r3, #53248
 2324 109c 0193     		str	r3, [sp, #4]
 2325 109e 5923     		movs	r3, #89
 2326 10a0 0293     		str	r3, [sp, #8]
 2327 10a2 0846     		mov	r0, r1
 2328 10a4 1146     		mov	r1, r2
 2329 10a6 0422     		movs	r2, #4
 2330 10a8 0223     		movs	r3, #2
 2331 10aa FFF7FEFF 		bl	write_LCD
 311:.\LCD.c       ****                     
 2332              		.loc 1 311 0
 2333 10ae 5BE0     		b	.L111
 2334              	.L114:
 314:.\LCD.c       ****                         write_LCD(lcd,'2',2,13,0,0x2110,'Y');   //Nombre de boton P1
 2335              		.loc 1 314 0
 2336 10b0 FA79     		ldrb	r2, [r7, #7]	@ zero_extendqisi2
 2337 10b2 0023     		movs	r3, #0
 2338 10b4 0093     		str	r3, [sp]
 2339 10b6 42F21013 		movw	r3, #8464
 2340 10ba 0193     		str	r3, [sp, #4]
ARM GAS  C:\Users\PROYEC~1\AppData\Local\Temp\ccMsBWpv.s 			page 49


 2341 10bc 5923     		movs	r3, #89
 2342 10be 0293     		str	r3, [sp, #8]
 2343 10c0 1046     		mov	r0, r2
 2344 10c2 5021     		movs	r1, #80
 2345 10c4 0222     		movs	r2, #2
 2346 10c6 0C23     		movs	r3, #12
 2347 10c8 FFF7FEFF 		bl	write_LCD
 315:.\LCD.c       ****                         write_LCD(lcd,symbols[0],4,2,1,0xD000,'Y');   //Simbolo de dinero
 2348              		.loc 1 315 0
 2349 10cc FA79     		ldrb	r2, [r7, #7]	@ zero_extendqisi2
 2350 10ce 0023     		movs	r3, #0
 2351 10d0 0093     		str	r3, [sp]
 2352 10d2 42F21013 		movw	r3, #8464
 2353 10d6 0193     		str	r3, [sp, #4]
 2354 10d8 5923     		movs	r3, #89
 2355 10da 0293     		str	r3, [sp, #8]
 2356 10dc 1046     		mov	r0, r2
 2357 10de 3221     		movs	r1, #50
 2358 10e0 0222     		movs	r2, #2
 2359 10e2 0D23     		movs	r3, #13
 2360 10e4 FFF7FEFF 		bl	write_LCD
 316:.\LCD.c       ****                     break;
 2361              		.loc 1 316 0
 2362 10e8 3C4B     		ldr	r3, .L255+4
 2363 10ea 1B78     		ldrb	r3, [r3]
 2364 10ec DAB2     		uxtb	r2, r3
 2365 10ee F979     		ldrb	r1, [r7, #7]	@ zero_extendqisi2
 2366 10f0 0123     		movs	r3, #1
 2367 10f2 0093     		str	r3, [sp]
 2368 10f4 4FF45043 		mov	r3, #53248
 2369 10f8 0193     		str	r3, [sp, #4]
 2370 10fa 5923     		movs	r3, #89
 2371 10fc 0293     		str	r3, [sp, #8]
 2372 10fe 0846     		mov	r0, r1
 2373 1100 1146     		mov	r1, r2
 2374 1102 0422     		movs	r2, #4
 2375 1104 0223     		movs	r3, #2
 2376 1106 FFF7FEFF 		bl	write_LCD
 317:.\LCD.c       ****                     
 2377              		.loc 1 317 0
 2378 110a 2DE0     		b	.L111
 2379              	.L115:
 320:.\LCD.c       ****                         write_LCD(lcd,'3',2,13,0,0x2110,'Y');   //Nombre de boton P1
 2380              		.loc 1 320 0
 2381 110c FA79     		ldrb	r2, [r7, #7]	@ zero_extendqisi2
 2382 110e 0023     		movs	r3, #0
 2383 1110 0093     		str	r3, [sp]
 2384 1112 42F21013 		movw	r3, #8464
 2385 1116 0193     		str	r3, [sp, #4]
 2386 1118 5923     		movs	r3, #89
 2387 111a 0293     		str	r3, [sp, #8]
 2388 111c 1046     		mov	r0, r2
 2389 111e 5021     		movs	r1, #80
 2390 1120 0222     		movs	r2, #2
 2391 1122 0C23     		movs	r3, #12
 2392 1124 FFF7FEFF 		bl	write_LCD
 321:.\LCD.c       ****                         write_LCD(lcd,symbols[0],4,2,1,0xD000,'Y');   //Simbolo de dinero
ARM GAS  C:\Users\PROYEC~1\AppData\Local\Temp\ccMsBWpv.s 			page 50


 2393              		.loc 1 321 0
 2394 1128 FA79     		ldrb	r2, [r7, #7]	@ zero_extendqisi2
 2395 112a 0023     		movs	r3, #0
 2396 112c 0093     		str	r3, [sp]
 2397 112e 42F21013 		movw	r3, #8464
 2398 1132 0193     		str	r3, [sp, #4]
 2399 1134 5923     		movs	r3, #89
 2400 1136 0293     		str	r3, [sp, #8]
 2401 1138 1046     		mov	r0, r2
 2402 113a 3321     		movs	r1, #51
 2403 113c 0222     		movs	r2, #2
 2404 113e 0D23     		movs	r3, #13
 2405 1140 FFF7FEFF 		bl	write_LCD
 322:.\LCD.c       ****                     break;
 2406              		.loc 1 322 0
 2407 1144 254B     		ldr	r3, .L255+4
 2408 1146 1B78     		ldrb	r3, [r3]
 2409 1148 DAB2     		uxtb	r2, r3
 2410 114a F979     		ldrb	r1, [r7, #7]	@ zero_extendqisi2
 2411 114c 0123     		movs	r3, #1
 2412 114e 0093     		str	r3, [sp]
 2413 1150 4FF45043 		mov	r3, #53248
 2414 1154 0193     		str	r3, [sp, #4]
 2415 1156 5923     		movs	r3, #89
 2416 1158 0293     		str	r3, [sp, #8]
 2417 115a 0846     		mov	r0, r1
 2418 115c 1146     		mov	r1, r2
 2419 115e 0422     		movs	r2, #4
 2420 1160 0223     		movs	r3, #2
 2421 1162 FFF7FEFF 		bl	write_LCD
 323:.\LCD.c       ****                 }
 2422              		.loc 1 323 0
 2423 1166 00BF     		nop
 2424              	.L111:
 325:.\LCD.c       ****                 for(x=1;x<=bufferLCD2.presetValue[1][0];x++){
 2425              		.loc 1 325 0
 2426 1168 0023     		movs	r3, #0
 2427 116a 7B73     		strb	r3, [r7, #13]
 326:.\LCD.c       ****                     if(bufferLCD2.presetValue[1][x]=='0' && flag==0){
 2428              		.loc 1 326 0
 2429 116c 0123     		movs	r3, #1
 2430 116e FB73     		strb	r3, [r7, #15]
 2431 1170 26E0     		b	.L125
 2432              	.L128:
 327:.\LCD.c       ****                     }else{
 2433              		.loc 1 327 0
 2434 1172 FB7B     		ldrb	r3, [r7, #15]	@ zero_extendqisi2
 2435 1174 1A4A     		ldr	r2, .L255+8
 2436 1176 1344     		add	r3, r3, r2
 2437 1178 93F86E30 		ldrb	r3, [r3, #110]	@ zero_extendqisi2
 2438 117c 302B     		cmp	r3, #48
 2439 117e 03D1     		bne	.L126
 327:.\LCD.c       ****                     }else{
 2440              		.loc 1 327 0 is_stmt 0 discriminator 1
 2441 1180 7B7B     		ldrb	r3, [r7, #13]	@ zero_extendqisi2
 2442 1182 002B     		cmp	r3, #0
 2443 1184 00D1     		bne	.L126
ARM GAS  C:\Users\PROYEC~1\AppData\Local\Temp\ccMsBWpv.s 			page 51


 327:.\LCD.c       ****                     }else{
 2444              		.loc 1 327 0
 2445 1186 18E0     		b	.L127
 2446              	.L126:
 329:.\LCD.c       ****                         flag=1;
 2447              		.loc 1 329 0 is_stmt 1
 2448 1188 FB7B     		ldrb	r3, [r7, #15]	@ zero_extendqisi2
 2449 118a 154A     		ldr	r2, .L255+8
 2450 118c 1344     		add	r3, r3, r2
 2451 118e 93F86E20 		ldrb	r2, [r3, #110]	@ zero_extendqisi2
 2452 1192 FB7B     		ldrb	r3, [r7, #15]	@ zero_extendqisi2
 2453 1194 9BB2     		uxth	r3, r3
 2454 1196 0233     		adds	r3, r3, #2
 2455 1198 9CB2     		uxth	r4, r3
 2456 119a F979     		ldrb	r1, [r7, #7]	@ zero_extendqisi2
 2457 119c 0123     		movs	r3, #1
 2458 119e 0093     		str	r3, [sp]
 2459 11a0 42F21013 		movw	r3, #8464
 2460 11a4 0193     		str	r3, [sp, #4]
 2461 11a6 5923     		movs	r3, #89
 2462 11a8 0293     		str	r3, [sp, #8]
 2463 11aa 0846     		mov	r0, r1
 2464 11ac 1146     		mov	r1, r2
 2465 11ae 0422     		movs	r2, #4
 2466 11b0 2346     		mov	r3, r4
 2467 11b2 FFF7FEFF 		bl	write_LCD
 330:.\LCD.c       ****                     }
 2468              		.loc 1 330 0
 2469 11b6 0123     		movs	r3, #1
 2470 11b8 7B73     		strb	r3, [r7, #13]
 2471              	.L127:
 326:.\LCD.c       ****                     if(bufferLCD2.presetValue[1][x]=='0' && flag==0){
 2472              		.loc 1 326 0 discriminator 2
 2473 11ba FB7B     		ldrb	r3, [r7, #15]	@ zero_extendqisi2
 2474 11bc 0133     		adds	r3, r3, #1
 2475 11be FB73     		strb	r3, [r7, #15]
 2476              	.L125:
 326:.\LCD.c       ****                     if(bufferLCD2.presetValue[1][x]=='0' && flag==0){
 2477              		.loc 1 326 0 is_stmt 0 discriminator 1
 2478 11c0 074B     		ldr	r3, .L255+8
 2479 11c2 93F86E30 		ldrb	r3, [r3, #110]	@ zero_extendqisi2
 2480 11c6 FA7B     		ldrb	r2, [r7, #15]	@ zero_extendqisi2
 2481 11c8 9A42     		cmp	r2, r3
 2482 11ca D2D9     		bls	.L128
 2483              		.loc 1 334 0 is_stmt 1 discriminator 1
 2484 11cc 02F03BB8 		b	.L16
 2485              	.L59:
 335:.\LCD.c       ****             
 336:.\LCD.c       ****         case 't'://Tanqueando con datos
 337:.\LCD.c       ****             for(x=0;x<8;x++){
 2486              		.loc 1 337 0
 2487 11d0 0023     		movs	r3, #0
 2488 11d2 FB73     		strb	r3, [r7, #15]
 2489 11d4 99E0     		b	.L129
 2490              	.L256:
 2491 11d6 00BF     		.align	2
 2492              	.L255:
ARM GAS  C:\Users\PROYEC~1\AppData\Local\Temp\ccMsBWpv.s 			page 52


 2493 11d8 00000000 		.word	button
 2494 11dc 00000000 		.word	symbols
 2495 11e0 00000000 		.word	bufferLCD2
 2496              	.L130:
 338:.\LCD.c       ****                 write_LCD(lcd,button[71][x],2,x+31,0,0xD000,'Y');   //Nombre de boton preset
 2497              		.loc 1 338 0 discriminator 3
 2498 11e4 FB7B     		ldrb	r3, [r7, #15]	@ zero_extendqisi2
 2499 11e6 AD4A     		ldr	r2, .L257
 2500 11e8 1344     		add	r3, r3, r2
 2501 11ea 93F83832 		ldrb	r3, [r3, #568]
 2502 11ee DAB2     		uxtb	r2, r3
 2503 11f0 FB7B     		ldrb	r3, [r7, #15]	@ zero_extendqisi2
 2504 11f2 9BB2     		uxth	r3, r3
 2505 11f4 1F33     		adds	r3, r3, #31
 2506 11f6 9CB2     		uxth	r4, r3
 2507 11f8 F979     		ldrb	r1, [r7, #7]	@ zero_extendqisi2
 2508 11fa 0023     		movs	r3, #0
 2509 11fc 0093     		str	r3, [sp]
 2510 11fe 4FF45043 		mov	r3, #53248
 2511 1202 0193     		str	r3, [sp, #4]
 2512 1204 5923     		movs	r3, #89
 2513 1206 0293     		str	r3, [sp, #8]
 2514 1208 0846     		mov	r0, r1
 2515 120a 1146     		mov	r1, r2
 2516 120c 0222     		movs	r2, #2
 2517 120e 2346     		mov	r3, r4
 2518 1210 FFF7FEFF 		bl	write_LCD
 339:.\LCD.c       ****                 write_LCD(lcd,button[36][x],1,x+1,2,0x2110,'Y');   //Nombre de imagen Tanqueando Re
 2519              		.loc 1 339 0 discriminator 3
 2520 1214 FB7B     		ldrb	r3, [r7, #15]	@ zero_extendqisi2
 2521 1216 A14A     		ldr	r2, .L257
 2522 1218 1344     		add	r3, r3, r2
 2523 121a 93F82031 		ldrb	r3, [r3, #288]
 2524 121e DAB2     		uxtb	r2, r3
 2525 1220 FB7B     		ldrb	r3, [r7, #15]	@ zero_extendqisi2
 2526 1222 9BB2     		uxth	r3, r3
 2527 1224 0133     		adds	r3, r3, #1
 2528 1226 9CB2     		uxth	r4, r3
 2529 1228 F979     		ldrb	r1, [r7, #7]	@ zero_extendqisi2
 2530 122a 0223     		movs	r3, #2
 2531 122c 0093     		str	r3, [sp]
 2532 122e 42F21013 		movw	r3, #8464
 2533 1232 0193     		str	r3, [sp, #4]
 2534 1234 5923     		movs	r3, #89
 2535 1236 0293     		str	r3, [sp, #8]
 2536 1238 0846     		mov	r0, r1
 2537 123a 1146     		mov	r1, r2
 2538 123c 0122     		movs	r2, #1
 2539 123e 2346     		mov	r3, r4
 2540 1240 FFF7FEFF 		bl	write_LCD
 340:.\LCD.c       ****                 write_LCD(lcd,button[37][x],5,x+1,2,0x2110,'Y');   //Nombre de imagen Tanqueando Re
 2541              		.loc 1 340 0 discriminator 3
 2542 1244 FB7B     		ldrb	r3, [r7, #15]	@ zero_extendqisi2
 2543 1246 954A     		ldr	r2, .L257
 2544 1248 1344     		add	r3, r3, r2
 2545 124a 93F82831 		ldrb	r3, [r3, #296]
 2546 124e DAB2     		uxtb	r2, r3
ARM GAS  C:\Users\PROYEC~1\AppData\Local\Temp\ccMsBWpv.s 			page 53


 2547 1250 FB7B     		ldrb	r3, [r7, #15]	@ zero_extendqisi2
 2548 1252 9BB2     		uxth	r3, r3
 2549 1254 0133     		adds	r3, r3, #1
 2550 1256 9CB2     		uxth	r4, r3
 2551 1258 F979     		ldrb	r1, [r7, #7]	@ zero_extendqisi2
 2552 125a 0223     		movs	r3, #2
 2553 125c 0093     		str	r3, [sp]
 2554 125e 42F21013 		movw	r3, #8464
 2555 1262 0193     		str	r3, [sp, #4]
 2556 1264 5923     		movs	r3, #89
 2557 1266 0293     		str	r3, [sp, #8]
 2558 1268 0846     		mov	r0, r1
 2559 126a 1146     		mov	r1, r2
 2560 126c 0522     		movs	r2, #5
 2561 126e 2346     		mov	r3, r4
 2562 1270 FFF7FEFF 		bl	write_LCD
 341:.\LCD.c       ****                 write_LCD(lcd,button[39][x],12,x+3,1,0xD000,'Y');   //Nombre de imagen Teclado Plac
 2563              		.loc 1 341 0 discriminator 3
 2564 1274 FB7B     		ldrb	r3, [r7, #15]	@ zero_extendqisi2
 2565 1276 894A     		ldr	r2, .L257
 2566 1278 1344     		add	r3, r3, r2
 2567 127a 93F83831 		ldrb	r3, [r3, #312]
 2568 127e DAB2     		uxtb	r2, r3
 2569 1280 FB7B     		ldrb	r3, [r7, #15]	@ zero_extendqisi2
 2570 1282 9BB2     		uxth	r3, r3
 2571 1284 0333     		adds	r3, r3, #3
 2572 1286 9CB2     		uxth	r4, r3
 2573 1288 F979     		ldrb	r1, [r7, #7]	@ zero_extendqisi2
 2574 128a 0123     		movs	r3, #1
 2575 128c 0093     		str	r3, [sp]
 2576 128e 4FF45043 		mov	r3, #53248
 2577 1292 0193     		str	r3, [sp, #4]
 2578 1294 5923     		movs	r3, #89
 2579 1296 0293     		str	r3, [sp, #8]
 2580 1298 0846     		mov	r0, r1
 2581 129a 1146     		mov	r1, r2
 2582 129c 0C22     		movs	r2, #12
 2583 129e 2346     		mov	r3, r4
 2584 12a0 FFF7FEFF 		bl	write_LCD
 342:.\LCD.c       ****                 write_LCD(lcd,button[41][x],20,x+3,1,0xD000,'Y');   //Nombre de imagen Teclado Kilo
 2585              		.loc 1 342 0 discriminator 3
 2586 12a4 FB7B     		ldrb	r3, [r7, #15]	@ zero_extendqisi2
 2587 12a6 7D4A     		ldr	r2, .L257
 2588 12a8 1344     		add	r3, r3, r2
 2589 12aa 93F84831 		ldrb	r3, [r3, #328]
 2590 12ae DAB2     		uxtb	r2, r3
 2591 12b0 FB7B     		ldrb	r3, [r7, #15]	@ zero_extendqisi2
 2592 12b2 9BB2     		uxth	r3, r3
 2593 12b4 0333     		adds	r3, r3, #3
 2594 12b6 9CB2     		uxth	r4, r3
 2595 12b8 F979     		ldrb	r1, [r7, #7]	@ zero_extendqisi2
 2596 12ba 0123     		movs	r3, #1
 2597 12bc 0093     		str	r3, [sp]
 2598 12be 4FF45043 		mov	r3, #53248
 2599 12c2 0193     		str	r3, [sp, #4]
 2600 12c4 5923     		movs	r3, #89
 2601 12c6 0293     		str	r3, [sp, #8]
ARM GAS  C:\Users\PROYEC~1\AppData\Local\Temp\ccMsBWpv.s 			page 54


 2602 12c8 0846     		mov	r0, r1
 2603 12ca 1146     		mov	r1, r2
 2604 12cc 1422     		movs	r2, #20
 2605 12ce 2346     		mov	r3, r4
 2606 12d0 FFF7FEFF 		bl	write_LCD
 343:.\LCD.c       ****                 write_LCD(lcd,button[43][x],28,x+3,1,0xD000,'Y');   //Nombre de imagen Teclado Nit/
 2607              		.loc 1 343 0 discriminator 3
 2608 12d4 FB7B     		ldrb	r3, [r7, #15]	@ zero_extendqisi2
 2609 12d6 714A     		ldr	r2, .L257
 2610 12d8 1344     		add	r3, r3, r2
 2611 12da 93F85831 		ldrb	r3, [r3, #344]
 2612 12de DAB2     		uxtb	r2, r3
 2613 12e0 FB7B     		ldrb	r3, [r7, #15]	@ zero_extendqisi2
 2614 12e2 9BB2     		uxth	r3, r3
 2615 12e4 0333     		adds	r3, r3, #3
 2616 12e6 9CB2     		uxth	r4, r3
 2617 12e8 F979     		ldrb	r1, [r7, #7]	@ zero_extendqisi2
 2618 12ea 0123     		movs	r3, #1
 2619 12ec 0093     		str	r3, [sp]
 2620 12ee 4FF45043 		mov	r3, #53248
 2621 12f2 0193     		str	r3, [sp, #4]
 2622 12f4 5923     		movs	r3, #89
 2623 12f6 0293     		str	r3, [sp, #8]
 2624 12f8 0846     		mov	r0, r1
 2625 12fa 1146     		mov	r1, r2
 2626 12fc 1C22     		movs	r2, #28
 2627 12fe 2346     		mov	r3, r4
 2628 1300 FFF7FEFF 		bl	write_LCD
 337:.\LCD.c       ****                 write_LCD(lcd,button[71][x],2,x+31,0,0xD000,'Y');   //Nombre de boton preset
 2629              		.loc 1 337 0 discriminator 3
 2630 1304 FB7B     		ldrb	r3, [r7, #15]	@ zero_extendqisi2
 2631 1306 0133     		adds	r3, r3, #1
 2632 1308 FB73     		strb	r3, [r7, #15]
 2633              	.L129:
 337:.\LCD.c       ****                 write_LCD(lcd,button[71][x],2,x+31,0,0xD000,'Y');   //Nombre de boton preset
 2634              		.loc 1 337 0 is_stmt 0 discriminator 1
 2635 130a FB7B     		ldrb	r3, [r7, #15]	@ zero_extendqisi2
 2636 130c 072B     		cmp	r3, #7
 2637 130e 7FF669AF 		bls	.L130
 344:.\LCD.c       ****             }
 345:.\LCD.c       ****             if(lcd==1){
 2638              		.loc 1 345 0 is_stmt 1
 2639 1312 FB79     		ldrb	r3, [r7, #7]	@ zero_extendqisi2
 2640 1314 012B     		cmp	r3, #1
 2641 1316 40F01982 		bne	.L131
 346:.\LCD.c       ****                 for(x=1;x<=bufferLCD1.licenceSale[0];x++){
 2642              		.loc 1 346 0
 2643 131a 0123     		movs	r3, #1
 2644 131c FB73     		strb	r3, [r7, #15]
 2645 131e 18E0     		b	.L132
 2646              	.L133:
 347:.\LCD.c       ****                     write_LCD(lcd,bufferLCD1.licenceSale[x],12,x+13,1,0x0000,'N');   //Placa
 2647              		.loc 1 347 0 discriminator 3
 2648 1320 FB7B     		ldrb	r3, [r7, #15]	@ zero_extendqisi2
 2649 1322 5F4A     		ldr	r2, .L257+4
 2650 1324 1344     		add	r3, r3, r2
 2651 1326 93F8EA20 		ldrb	r2, [r3, #234]	@ zero_extendqisi2
ARM GAS  C:\Users\PROYEC~1\AppData\Local\Temp\ccMsBWpv.s 			page 55


 2652 132a FB7B     		ldrb	r3, [r7, #15]	@ zero_extendqisi2
 2653 132c 9BB2     		uxth	r3, r3
 2654 132e 0D33     		adds	r3, r3, #13
 2655 1330 9CB2     		uxth	r4, r3
 2656 1332 F979     		ldrb	r1, [r7, #7]	@ zero_extendqisi2
 2657 1334 0123     		movs	r3, #1
 2658 1336 0093     		str	r3, [sp]
 2659 1338 0023     		movs	r3, #0
 2660 133a 0193     		str	r3, [sp, #4]
 2661 133c 4E23     		movs	r3, #78
 2662 133e 0293     		str	r3, [sp, #8]
 2663 1340 0846     		mov	r0, r1
 2664 1342 1146     		mov	r1, r2
 2665 1344 0C22     		movs	r2, #12
 2666 1346 2346     		mov	r3, r4
 2667 1348 FFF7FEFF 		bl	write_LCD
 346:.\LCD.c       ****                 for(x=1;x<=bufferLCD1.licenceSale[0];x++){
 2668              		.loc 1 346 0 discriminator 3
 2669 134c FB7B     		ldrb	r3, [r7, #15]	@ zero_extendqisi2
 2670 134e 0133     		adds	r3, r3, #1
 2671 1350 FB73     		strb	r3, [r7, #15]
 2672              	.L132:
 346:.\LCD.c       ****                 for(x=1;x<=bufferLCD1.licenceSale[0];x++){
 2673              		.loc 1 346 0 is_stmt 0 discriminator 1
 2674 1352 534B     		ldr	r3, .L257+4
 2675 1354 93F8EA30 		ldrb	r3, [r3, #234]	@ zero_extendqisi2
 2676 1358 FA7B     		ldrb	r2, [r7, #15]	@ zero_extendqisi2
 2677 135a 9A42     		cmp	r2, r3
 2678 135c E0D9     		bls	.L133
 348:.\LCD.c       ****                 }
 349:.\LCD.c       ****                 for(x=1;x<=bufferLCD1.mileageSale[0];x++){
 2679              		.loc 1 349 0 is_stmt 1
 2680 135e 0123     		movs	r3, #1
 2681 1360 FB73     		strb	r3, [r7, #15]
 2682 1362 18E0     		b	.L134
 2683              	.L135:
 350:.\LCD.c       ****                     write_LCD(lcd,bufferLCD1.mileageSale[x],20,x+13,1,0x0000,'N');   //Kilometraje
 2684              		.loc 1 350 0 discriminator 3
 2685 1364 FB7B     		ldrb	r3, [r7, #15]	@ zero_extendqisi2
 2686 1366 4E4A     		ldr	r2, .L257+4
 2687 1368 1344     		add	r3, r3, r2
 2688 136a 93F8F520 		ldrb	r2, [r3, #245]	@ zero_extendqisi2
 2689 136e FB7B     		ldrb	r3, [r7, #15]	@ zero_extendqisi2
 2690 1370 9BB2     		uxth	r3, r3
 2691 1372 0D33     		adds	r3, r3, #13
 2692 1374 9CB2     		uxth	r4, r3
 2693 1376 F979     		ldrb	r1, [r7, #7]	@ zero_extendqisi2
 2694 1378 0123     		movs	r3, #1
 2695 137a 0093     		str	r3, [sp]
 2696 137c 0023     		movs	r3, #0
 2697 137e 0193     		str	r3, [sp, #4]
 2698 1380 4E23     		movs	r3, #78
 2699 1382 0293     		str	r3, [sp, #8]
 2700 1384 0846     		mov	r0, r1
 2701 1386 1146     		mov	r1, r2
 2702 1388 1422     		movs	r2, #20
 2703 138a 2346     		mov	r3, r4
ARM GAS  C:\Users\PROYEC~1\AppData\Local\Temp\ccMsBWpv.s 			page 56


 2704 138c FFF7FEFF 		bl	write_LCD
 349:.\LCD.c       ****                     write_LCD(lcd,bufferLCD1.mileageSale[x],20,x+13,1,0x0000,'N');   //Kilometraje
 2705              		.loc 1 349 0 discriminator 3
 2706 1390 FB7B     		ldrb	r3, [r7, #15]	@ zero_extendqisi2
 2707 1392 0133     		adds	r3, r3, #1
 2708 1394 FB73     		strb	r3, [r7, #15]
 2709              	.L134:
 349:.\LCD.c       ****                     write_LCD(lcd,bufferLCD1.mileageSale[x],20,x+13,1,0x0000,'N');   //Kilometraje
 2710              		.loc 1 349 0 is_stmt 0 discriminator 1
 2711 1396 424B     		ldr	r3, .L257+4
 2712 1398 93F8F530 		ldrb	r3, [r3, #245]	@ zero_extendqisi2
 2713 139c FA7B     		ldrb	r2, [r7, #15]	@ zero_extendqisi2
 2714 139e 9A42     		cmp	r2, r3
 2715 13a0 E0D9     		bls	.L135
 351:.\LCD.c       ****                 }
 352:.\LCD.c       ****                 for(x=1;x<=bufferLCD1.identySale[0];x++){
 2716              		.loc 1 352 0 is_stmt 1
 2717 13a2 0123     		movs	r3, #1
 2718 13a4 FB73     		strb	r3, [r7, #15]
 2719 13a6 18E0     		b	.L136
 2720              	.L137:
 353:.\LCD.c       ****                     write_LCD(lcd,bufferLCD1.identySale[x],28,x+13,1,0x0000,'N');   //CC/NIT
 2721              		.loc 1 353 0 discriminator 3
 2722 13a8 FB7B     		ldrb	r3, [r7, #15]	@ zero_extendqisi2
 2723 13aa 3D4A     		ldr	r2, .L257+4
 2724 13ac 1344     		add	r3, r3, r2
 2725 13ae 93F80021 		ldrb	r2, [r3, #256]	@ zero_extendqisi2
 2726 13b2 FB7B     		ldrb	r3, [r7, #15]	@ zero_extendqisi2
 2727 13b4 9BB2     		uxth	r3, r3
 2728 13b6 0D33     		adds	r3, r3, #13
 2729 13b8 9CB2     		uxth	r4, r3
 2730 13ba F979     		ldrb	r1, [r7, #7]	@ zero_extendqisi2
 2731 13bc 0123     		movs	r3, #1
 2732 13be 0093     		str	r3, [sp]
 2733 13c0 0023     		movs	r3, #0
 2734 13c2 0193     		str	r3, [sp, #4]
 2735 13c4 4E23     		movs	r3, #78
 2736 13c6 0293     		str	r3, [sp, #8]
 2737 13c8 0846     		mov	r0, r1
 2738 13ca 1146     		mov	r1, r2
 2739 13cc 1C22     		movs	r2, #28
 2740 13ce 2346     		mov	r3, r4
 2741 13d0 FFF7FEFF 		bl	write_LCD
 352:.\LCD.c       ****                     write_LCD(lcd,bufferLCD1.identySale[x],28,x+13,1,0x0000,'N');   //CC/NIT
 2742              		.loc 1 352 0 discriminator 3
 2743 13d4 FB7B     		ldrb	r3, [r7, #15]	@ zero_extendqisi2
 2744 13d6 0133     		adds	r3, r3, #1
 2745 13d8 FB73     		strb	r3, [r7, #15]
 2746              	.L136:
 352:.\LCD.c       ****                     write_LCD(lcd,bufferLCD1.identySale[x],28,x+13,1,0x0000,'N');   //CC/NIT
 2747              		.loc 1 352 0 is_stmt 0 discriminator 1
 2748 13da 314B     		ldr	r3, .L257+4
 2749 13dc 93F80031 		ldrb	r3, [r3, #256]	@ zero_extendqisi2
 2750 13e0 FA7B     		ldrb	r2, [r7, #15]	@ zero_extendqisi2
 2751 13e2 9A42     		cmp	r2, r3
 2752 13e4 E0D9     		bls	.L137
 354:.\LCD.c       ****                 }
ARM GAS  C:\Users\PROYEC~1\AppData\Local\Temp\ccMsBWpv.s 			page 57


 355:.\LCD.c       ****                 switch (bufferLCD1.presetType[1]){
 2753              		.loc 1 355 0 is_stmt 1
 2754 13e6 2E4B     		ldr	r3, .L257+4
 2755 13e8 93F86330 		ldrb	r3, [r3, #99]	@ zero_extendqisi2
 2756 13ec 313B     		subs	r3, r3, #49
 2757 13ee 252B     		cmp	r3, #37
 2758 13f0 00F27881 		bhi	.L138
 2759 13f4 01A2     		adr	r2, .L140
 2760 13f6 52F823F0 		ldr	pc, [r2, r3, lsl #2]
 2761 13fa 00BF     		.p2align 2
 2762              	.L140:
 2763 13fc D1150000 		.word	.L139+1
 2764 1400 2D160000 		.word	.L141+1
 2765 1404 89160000 		.word	.L142+1
 2766 1408 E5160000 		.word	.L138+1
 2767 140c E5160000 		.word	.L138+1
 2768 1410 E5160000 		.word	.L138+1
 2769 1414 E5160000 		.word	.L138+1
 2770 1418 E5160000 		.word	.L138+1
 2771 141c E5160000 		.word	.L138+1
 2772 1420 E5160000 		.word	.L138+1
 2773 1424 E5160000 		.word	.L138+1
 2774 1428 E5160000 		.word	.L138+1
 2775 142c E5160000 		.word	.L138+1
 2776 1430 E5160000 		.word	.L138+1
 2777 1434 E5160000 		.word	.L138+1
 2778 1438 E5160000 		.word	.L138+1
 2779 143c E5160000 		.word	.L138+1
 2780 1440 E5160000 		.word	.L138+1
 2781 1444 E5160000 		.word	.L138+1
 2782 1448 95140000 		.word	.L143+1
 2783 144c E5160000 		.word	.L138+1
 2784 1450 6B150000 		.word	.L144+1
 2785 1454 E5160000 		.word	.L138+1
 2786 1458 E5160000 		.word	.L138+1
 2787 145c E5160000 		.word	.L138+1
 2788 1460 E5160000 		.word	.L138+1
 2789 1464 E5160000 		.word	.L138+1
 2790 1468 E5160000 		.word	.L138+1
 2791 146c E5160000 		.word	.L138+1
 2792 1470 E5160000 		.word	.L138+1
 2793 1474 E5160000 		.word	.L138+1
 2794 1478 E5160000 		.word	.L138+1
 2795 147c E5160000 		.word	.L138+1
 2796 1480 E5160000 		.word	.L138+1
 2797 1484 E5160000 		.word	.L138+1
 2798 1488 E5160000 		.word	.L138+1
 2799 148c E5160000 		.word	.L138+1
 2800 1490 05150000 		.word	.L145+1
 2801              		.p2align 1
 2802              	.L143:
 356:.\LCD.c       ****                     case 'D':
 357:.\LCD.c       ****                         for(x=0;x<8;x++){
 2803              		.loc 1 357 0
 2804 1494 0023     		movs	r3, #0
 2805 1496 FB73     		strb	r3, [r7, #15]
 2806 1498 1FE0     		b	.L146
ARM GAS  C:\Users\PROYEC~1\AppData\Local\Temp\ccMsBWpv.s 			page 58


 2807              	.L258:
 2808 149a 00BF     		.align	2
 2809              	.L257:
 2810 149c 00000000 		.word	button
 2811 14a0 00000000 		.word	bufferLCD1
 2812              	.L147:
 358:.\LCD.c       ****                             write_LCD(lcd,button[14][x],2,x+40,0,0x2110,'Y');   //Nombre de boton D
 2813              		.loc 1 358 0 discriminator 3
 2814 14a4 FB7B     		ldrb	r3, [r7, #15]	@ zero_extendqisi2
 2815 14a6 AB4A     		ldr	r2, .L259
 2816 14a8 1344     		add	r3, r3, r2
 2817 14aa 93F87030 		ldrb	r3, [r3, #112]
 2818 14ae DAB2     		uxtb	r2, r3
 2819 14b0 FB7B     		ldrb	r3, [r7, #15]	@ zero_extendqisi2
 2820 14b2 9BB2     		uxth	r3, r3
 2821 14b4 2833     		adds	r3, r3, #40
 2822 14b6 9CB2     		uxth	r4, r3
 2823 14b8 F979     		ldrb	r1, [r7, #7]	@ zero_extendqisi2
 2824 14ba 0023     		movs	r3, #0
 2825 14bc 0093     		str	r3, [sp]
 2826 14be 42F21013 		movw	r3, #8464
 2827 14c2 0193     		str	r3, [sp, #4]
 2828 14c4 5923     		movs	r3, #89
 2829 14c6 0293     		str	r3, [sp, #8]
 2830 14c8 0846     		mov	r0, r1
 2831 14ca 1146     		mov	r1, r2
 2832 14cc 0222     		movs	r2, #2
 2833 14ce 2346     		mov	r3, r4
 2834 14d0 FFF7FEFF 		bl	write_LCD
 357:.\LCD.c       ****                             write_LCD(lcd,button[14][x],2,x+40,0,0x2110,'Y');   //Nombre de boton D
 2835              		.loc 1 357 0 discriminator 3
 2836 14d4 FB7B     		ldrb	r3, [r7, #15]	@ zero_extendqisi2
 2837 14d6 0133     		adds	r3, r3, #1
 2838 14d8 FB73     		strb	r3, [r7, #15]
 2839              	.L146:
 357:.\LCD.c       ****                             write_LCD(lcd,button[14][x],2,x+40,0,0x2110,'Y');   //Nombre de boton D
 2840              		.loc 1 357 0 is_stmt 0 discriminator 1
 2841 14da FB7B     		ldrb	r3, [r7, #15]	@ zero_extendqisi2
 2842 14dc 072B     		cmp	r3, #7
 2843 14de E1D9     		bls	.L147
 359:.\LCD.c       ****                         }
 360:.\LCD.c       ****                         write_LCD(lcd,symbols[0],4,16,1,0xD000,'Y');   //Simbolo de dinero
 2844              		.loc 1 360 0 is_stmt 1
 2845 14e0 9D4B     		ldr	r3, .L259+4
 2846 14e2 1B78     		ldrb	r3, [r3]
 2847 14e4 DAB2     		uxtb	r2, r3
 2848 14e6 F979     		ldrb	r1, [r7, #7]	@ zero_extendqisi2
 2849 14e8 0123     		movs	r3, #1
 2850 14ea 0093     		str	r3, [sp]
 2851 14ec 4FF45043 		mov	r3, #53248
 2852 14f0 0193     		str	r3, [sp, #4]
 2853 14f2 5923     		movs	r3, #89
 2854 14f4 0293     		str	r3, [sp, #8]
 2855 14f6 0846     		mov	r0, r1
 2856 14f8 1146     		mov	r1, r2
 2857 14fa 0422     		movs	r2, #4
 2858 14fc 1023     		movs	r3, #16
ARM GAS  C:\Users\PROYEC~1\AppData\Local\Temp\ccMsBWpv.s 			page 59


 2859 14fe FFF7FEFF 		bl	write_LCD
 361:.\LCD.c       ****                     break;
 2860              		.loc 1 361 0
 2861 1502 EFE0     		b	.L138
 2862              	.L145:
 362:.\LCD.c       ****                     
 363:.\LCD.c       ****                     case 'V':
 364:.\LCD.c       ****                         for(x=0;x<8;x++){
 2863              		.loc 1 364 0
 2864 1504 0023     		movs	r3, #0
 2865 1506 FB73     		strb	r3, [r7, #15]
 2866 1508 1AE0     		b	.L148
 2867              	.L149:
 365:.\LCD.c       ****                             write_LCD(lcd,button[15][x],2,x+40,0,0x2110,'Y');   //Nombre de boton V
 2868              		.loc 1 365 0 discriminator 3
 2869 150a FB7B     		ldrb	r3, [r7, #15]	@ zero_extendqisi2
 2870 150c 914A     		ldr	r2, .L259
 2871 150e 1344     		add	r3, r3, r2
 2872 1510 93F87830 		ldrb	r3, [r3, #120]
 2873 1514 DAB2     		uxtb	r2, r3
 2874 1516 FB7B     		ldrb	r3, [r7, #15]	@ zero_extendqisi2
 2875 1518 9BB2     		uxth	r3, r3
 2876 151a 2833     		adds	r3, r3, #40
 2877 151c 9CB2     		uxth	r4, r3
 2878 151e F979     		ldrb	r1, [r7, #7]	@ zero_extendqisi2
 2879 1520 0023     		movs	r3, #0
 2880 1522 0093     		str	r3, [sp]
 2881 1524 42F21013 		movw	r3, #8464
 2882 1528 0193     		str	r3, [sp, #4]
 2883 152a 5923     		movs	r3, #89
 2884 152c 0293     		str	r3, [sp, #8]
 2885 152e 0846     		mov	r0, r1
 2886 1530 1146     		mov	r1, r2
 2887 1532 0222     		movs	r2, #2
 2888 1534 2346     		mov	r3, r4
 2889 1536 FFF7FEFF 		bl	write_LCD
 364:.\LCD.c       ****                             write_LCD(lcd,button[15][x],2,x+40,0,0x2110,'Y');   //Nombre de boton V
 2890              		.loc 1 364 0 discriminator 3
 2891 153a FB7B     		ldrb	r3, [r7, #15]	@ zero_extendqisi2
 2892 153c 0133     		adds	r3, r3, #1
 2893 153e FB73     		strb	r3, [r7, #15]
 2894              	.L148:
 364:.\LCD.c       ****                             write_LCD(lcd,button[15][x],2,x+40,0,0x2110,'Y');   //Nombre de boton V
 2895              		.loc 1 364 0 is_stmt 0 discriminator 1
 2896 1540 FB7B     		ldrb	r3, [r7, #15]	@ zero_extendqisi2
 2897 1542 072B     		cmp	r3, #7
 2898 1544 E1D9     		bls	.L149
 366:.\LCD.c       ****                         }
 367:.\LCD.c       ****                         write_LCD(lcd,symbols[1],4,16,1,0xD000,'Y');   //Simbolo de Volumen
 2899              		.loc 1 367 0 is_stmt 1
 2900 1546 844B     		ldr	r3, .L259+4
 2901 1548 5B78     		ldrb	r3, [r3, #1]
 2902 154a DAB2     		uxtb	r2, r3
 2903 154c F979     		ldrb	r1, [r7, #7]	@ zero_extendqisi2
 2904 154e 0123     		movs	r3, #1
 2905 1550 0093     		str	r3, [sp]
 2906 1552 4FF45043 		mov	r3, #53248
ARM GAS  C:\Users\PROYEC~1\AppData\Local\Temp\ccMsBWpv.s 			page 60


 2907 1556 0193     		str	r3, [sp, #4]
 2908 1558 5923     		movs	r3, #89
 2909 155a 0293     		str	r3, [sp, #8]
 2910 155c 0846     		mov	r0, r1
 2911 155e 1146     		mov	r1, r2
 2912 1560 0422     		movs	r2, #4
 2913 1562 1023     		movs	r3, #16
 2914 1564 FFF7FEFF 		bl	write_LCD
 368:.\LCD.c       ****                     break;
 2915              		.loc 1 368 0
 2916 1568 BCE0     		b	.L138
 2917              	.L144:
 369:.\LCD.c       ****                         
 370:.\LCD.c       ****                     case 'F':
 371:.\LCD.c       ****                         for(x=0;x<8;x++){
 2918              		.loc 1 371 0
 2919 156a 0023     		movs	r3, #0
 2920 156c FB73     		strb	r3, [r7, #15]
 2921 156e 1AE0     		b	.L150
 2922              	.L151:
 372:.\LCD.c       ****                             write_LCD(lcd,button[16][x],2,x+40,0,0x2110,'Y');   //Nombre de boton L
 2923              		.loc 1 372 0 discriminator 3
 2924 1570 FB7B     		ldrb	r3, [r7, #15]	@ zero_extendqisi2
 2925 1572 784A     		ldr	r2, .L259
 2926 1574 1344     		add	r3, r3, r2
 2927 1576 93F88030 		ldrb	r3, [r3, #128]
 2928 157a DAB2     		uxtb	r2, r3
 2929 157c FB7B     		ldrb	r3, [r7, #15]	@ zero_extendqisi2
 2930 157e 9BB2     		uxth	r3, r3
 2931 1580 2833     		adds	r3, r3, #40
 2932 1582 9CB2     		uxth	r4, r3
 2933 1584 F979     		ldrb	r1, [r7, #7]	@ zero_extendqisi2
 2934 1586 0023     		movs	r3, #0
 2935 1588 0093     		str	r3, [sp]
 2936 158a 42F21013 		movw	r3, #8464
 2937 158e 0193     		str	r3, [sp, #4]
 2938 1590 5923     		movs	r3, #89
 2939 1592 0293     		str	r3, [sp, #8]
 2940 1594 0846     		mov	r0, r1
 2941 1596 1146     		mov	r1, r2
 2942 1598 0222     		movs	r2, #2
 2943 159a 2346     		mov	r3, r4
 2944 159c FFF7FEFF 		bl	write_LCD
 371:.\LCD.c       ****                             write_LCD(lcd,button[16][x],2,x+40,0,0x2110,'Y');   //Nombre de boton L
 2945              		.loc 1 371 0 discriminator 3
 2946 15a0 FB7B     		ldrb	r3, [r7, #15]	@ zero_extendqisi2
 2947 15a2 0133     		adds	r3, r3, #1
 2948 15a4 FB73     		strb	r3, [r7, #15]
 2949              	.L150:
 371:.\LCD.c       ****                             write_LCD(lcd,button[16][x],2,x+40,0,0x2110,'Y');   //Nombre de boton L
 2950              		.loc 1 371 0 is_stmt 0 discriminator 1
 2951 15a6 FB7B     		ldrb	r3, [r7, #15]	@ zero_extendqisi2
 2952 15a8 072B     		cmp	r3, #7
 2953 15aa E1D9     		bls	.L151
 373:.\LCD.c       ****                         }
 374:.\LCD.c       ****                         write_LCD(lcd,symbols[0],4,16,1,0xD000,'Y');   //Simbolo de dinero
 2954              		.loc 1 374 0 is_stmt 1
ARM GAS  C:\Users\PROYEC~1\AppData\Local\Temp\ccMsBWpv.s 			page 61


 2955 15ac 6A4B     		ldr	r3, .L259+4
 2956 15ae 1B78     		ldrb	r3, [r3]
 2957 15b0 DAB2     		uxtb	r2, r3
 2958 15b2 F979     		ldrb	r1, [r7, #7]	@ zero_extendqisi2
 2959 15b4 0123     		movs	r3, #1
 2960 15b6 0093     		str	r3, [sp]
 2961 15b8 4FF45043 		mov	r3, #53248
 2962 15bc 0193     		str	r3, [sp, #4]
 2963 15be 5923     		movs	r3, #89
 2964 15c0 0293     		str	r3, [sp, #8]
 2965 15c2 0846     		mov	r0, r1
 2966 15c4 1146     		mov	r1, r2
 2967 15c6 0422     		movs	r2, #4
 2968 15c8 1023     		movs	r3, #16
 2969 15ca FFF7FEFF 		bl	write_LCD
 375:.\LCD.c       ****                     break;
 2970              		.loc 1 375 0
 2971 15ce 89E0     		b	.L138
 2972              	.L139:
 376:.\LCD.c       ****                     
 377:.\LCD.c       ****                     case '1':
 378:.\LCD.c       ****                         write_LCD(lcd,'P',2,40,0,0x2110,'Y');   //Nombre de boton P1
 2973              		.loc 1 378 0
 2974 15d0 FA79     		ldrb	r2, [r7, #7]	@ zero_extendqisi2
 2975 15d2 0023     		movs	r3, #0
 2976 15d4 0093     		str	r3, [sp]
 2977 15d6 42F21013 		movw	r3, #8464
 2978 15da 0193     		str	r3, [sp, #4]
 2979 15dc 5923     		movs	r3, #89
 2980 15de 0293     		str	r3, [sp, #8]
 2981 15e0 1046     		mov	r0, r2
 2982 15e2 5021     		movs	r1, #80
 2983 15e4 0222     		movs	r2, #2
 2984 15e6 2823     		movs	r3, #40
 2985 15e8 FFF7FEFF 		bl	write_LCD
 379:.\LCD.c       ****                         write_LCD(lcd,'1',2,41,0,0x2110,'Y');   //Nombre de boton P1
 2986              		.loc 1 379 0
 2987 15ec FA79     		ldrb	r2, [r7, #7]	@ zero_extendqisi2
 2988 15ee 0023     		movs	r3, #0
 2989 15f0 0093     		str	r3, [sp]
 2990 15f2 42F21013 		movw	r3, #8464
 2991 15f6 0193     		str	r3, [sp, #4]
 2992 15f8 5923     		movs	r3, #89
 2993 15fa 0293     		str	r3, [sp, #8]
 2994 15fc 1046     		mov	r0, r2
 2995 15fe 3121     		movs	r1, #49
 2996 1600 0222     		movs	r2, #2
 2997 1602 2923     		movs	r3, #41
 2998 1604 FFF7FEFF 		bl	write_LCD
 380:.\LCD.c       ****                         write_LCD(lcd,symbols[0],4,16,1,0xD000,'Y');   //Simbolo de dinero
 2999              		.loc 1 380 0
 3000 1608 534B     		ldr	r3, .L259+4
 3001 160a 1B78     		ldrb	r3, [r3]
 3002 160c DAB2     		uxtb	r2, r3
 3003 160e F979     		ldrb	r1, [r7, #7]	@ zero_extendqisi2
 3004 1610 0123     		movs	r3, #1
 3005 1612 0093     		str	r3, [sp]
ARM GAS  C:\Users\PROYEC~1\AppData\Local\Temp\ccMsBWpv.s 			page 62


 3006 1614 4FF45043 		mov	r3, #53248
 3007 1618 0193     		str	r3, [sp, #4]
 3008 161a 5923     		movs	r3, #89
 3009 161c 0293     		str	r3, [sp, #8]
 3010 161e 0846     		mov	r0, r1
 3011 1620 1146     		mov	r1, r2
 3012 1622 0422     		movs	r2, #4
 3013 1624 1023     		movs	r3, #16
 3014 1626 FFF7FEFF 		bl	write_LCD
 381:.\LCD.c       ****                     break;
 3015              		.loc 1 381 0
 3016 162a 5BE0     		b	.L138
 3017              	.L141:
 382:.\LCD.c       ****                     
 383:.\LCD.c       ****                     case '2':
 384:.\LCD.c       ****                         write_LCD(lcd,'P',2,40,0,0x2110,'Y');   //Nombre de boton P1
 3018              		.loc 1 384 0
 3019 162c FA79     		ldrb	r2, [r7, #7]	@ zero_extendqisi2
 3020 162e 0023     		movs	r3, #0
 3021 1630 0093     		str	r3, [sp]
 3022 1632 42F21013 		movw	r3, #8464
 3023 1636 0193     		str	r3, [sp, #4]
 3024 1638 5923     		movs	r3, #89
 3025 163a 0293     		str	r3, [sp, #8]
 3026 163c 1046     		mov	r0, r2
 3027 163e 5021     		movs	r1, #80
 3028 1640 0222     		movs	r2, #2
 3029 1642 2823     		movs	r3, #40
 3030 1644 FFF7FEFF 		bl	write_LCD
 385:.\LCD.c       ****                         write_LCD(lcd,'2',2,41,0,0x2110,'Y');   //Nombre de boton P1
 3031              		.loc 1 385 0
 3032 1648 FA79     		ldrb	r2, [r7, #7]	@ zero_extendqisi2
 3033 164a 0023     		movs	r3, #0
 3034 164c 0093     		str	r3, [sp]
 3035 164e 42F21013 		movw	r3, #8464
 3036 1652 0193     		str	r3, [sp, #4]
 3037 1654 5923     		movs	r3, #89
 3038 1656 0293     		str	r3, [sp, #8]
 3039 1658 1046     		mov	r0, r2
 3040 165a 3221     		movs	r1, #50
 3041 165c 0222     		movs	r2, #2
 3042 165e 2923     		movs	r3, #41
 3043 1660 FFF7FEFF 		bl	write_LCD
 386:.\LCD.c       ****                         write_LCD(lcd,symbols[0],4,16,1,0xD000,'Y');   //Simbolo de dinero
 3044              		.loc 1 386 0
 3045 1664 3C4B     		ldr	r3, .L259+4
 3046 1666 1B78     		ldrb	r3, [r3]
 3047 1668 DAB2     		uxtb	r2, r3
 3048 166a F979     		ldrb	r1, [r7, #7]	@ zero_extendqisi2
 3049 166c 0123     		movs	r3, #1
 3050 166e 0093     		str	r3, [sp]
 3051 1670 4FF45043 		mov	r3, #53248
 3052 1674 0193     		str	r3, [sp, #4]
 3053 1676 5923     		movs	r3, #89
 3054 1678 0293     		str	r3, [sp, #8]
 3055 167a 0846     		mov	r0, r1
 3056 167c 1146     		mov	r1, r2
ARM GAS  C:\Users\PROYEC~1\AppData\Local\Temp\ccMsBWpv.s 			page 63


 3057 167e 0422     		movs	r2, #4
 3058 1680 1023     		movs	r3, #16
 3059 1682 FFF7FEFF 		bl	write_LCD
 387:.\LCD.c       ****                     break;
 3060              		.loc 1 387 0
 3061 1686 2DE0     		b	.L138
 3062              	.L142:
 388:.\LCD.c       ****                     
 389:.\LCD.c       ****                     case '3':
 390:.\LCD.c       ****                         write_LCD(lcd,'P',2,40,0,0x2110,'Y');   //Nombre de boton P1
 3063              		.loc 1 390 0
 3064 1688 FA79     		ldrb	r2, [r7, #7]	@ zero_extendqisi2
 3065 168a 0023     		movs	r3, #0
 3066 168c 0093     		str	r3, [sp]
 3067 168e 42F21013 		movw	r3, #8464
 3068 1692 0193     		str	r3, [sp, #4]
 3069 1694 5923     		movs	r3, #89
 3070 1696 0293     		str	r3, [sp, #8]
 3071 1698 1046     		mov	r0, r2
 3072 169a 5021     		movs	r1, #80
 3073 169c 0222     		movs	r2, #2
 3074 169e 2823     		movs	r3, #40
 3075 16a0 FFF7FEFF 		bl	write_LCD
 391:.\LCD.c       ****                         write_LCD(lcd,'3',2,41,0,0x2110,'Y');   //Nombre de boton P1
 3076              		.loc 1 391 0
 3077 16a4 FA79     		ldrb	r2, [r7, #7]	@ zero_extendqisi2
 3078 16a6 0023     		movs	r3, #0
 3079 16a8 0093     		str	r3, [sp]
 3080 16aa 42F21013 		movw	r3, #8464
 3081 16ae 0193     		str	r3, [sp, #4]
 3082 16b0 5923     		movs	r3, #89
 3083 16b2 0293     		str	r3, [sp, #8]
 3084 16b4 1046     		mov	r0, r2
 3085 16b6 3321     		movs	r1, #51
 3086 16b8 0222     		movs	r2, #2
 3087 16ba 2923     		movs	r3, #41
 3088 16bc FFF7FEFF 		bl	write_LCD
 392:.\LCD.c       ****                         write_LCD(lcd,symbols[0],4,16,1,0xD000,'Y');   //Simbolo de dinero
 3089              		.loc 1 392 0
 3090 16c0 254B     		ldr	r3, .L259+4
 3091 16c2 1B78     		ldrb	r3, [r3]
 3092 16c4 DAB2     		uxtb	r2, r3
 3093 16c6 F979     		ldrb	r1, [r7, #7]	@ zero_extendqisi2
 3094 16c8 0123     		movs	r3, #1
 3095 16ca 0093     		str	r3, [sp]
 3096 16cc 4FF45043 		mov	r3, #53248
 3097 16d0 0193     		str	r3, [sp, #4]
 3098 16d2 5923     		movs	r3, #89
 3099 16d4 0293     		str	r3, [sp, #8]
 3100 16d6 0846     		mov	r0, r1
 3101 16d8 1146     		mov	r1, r2
 3102 16da 0422     		movs	r2, #4
 3103 16dc 1023     		movs	r3, #16
 3104 16de FFF7FEFF 		bl	write_LCD
 393:.\LCD.c       ****                     break;
 3105              		.loc 1 393 0
 3106 16e2 00BF     		nop
ARM GAS  C:\Users\PROYEC~1\AppData\Local\Temp\ccMsBWpv.s 			page 64


 3107              	.L138:
 394:.\LCD.c       ****                 }
 395:.\LCD.c       ****                 flag=0;
 3108              		.loc 1 395 0
 3109 16e4 0023     		movs	r3, #0
 3110 16e6 7B73     		strb	r3, [r7, #13]
 396:.\LCD.c       ****                 for(x=1;x<=bufferLCD1.presetValue[1][0];x++){
 3111              		.loc 1 396 0
 3112 16e8 0123     		movs	r3, #1
 3113 16ea FB73     		strb	r3, [r7, #15]
 3114 16ec 26E0     		b	.L152
 3115              	.L155:
 397:.\LCD.c       ****                     if(bufferLCD1.presetValue[1][x]=='0' && flag==0){
 3116              		.loc 1 397 0
 3117 16ee FB7B     		ldrb	r3, [r7, #15]	@ zero_extendqisi2
 3118 16f0 1A4A     		ldr	r2, .L259+8
 3119 16f2 1344     		add	r3, r3, r2
 3120 16f4 93F86E30 		ldrb	r3, [r3, #110]	@ zero_extendqisi2
 3121 16f8 302B     		cmp	r3, #48
 3122 16fa 03D1     		bne	.L153
 3123              		.loc 1 397 0 is_stmt 0 discriminator 1
 3124 16fc 7B7B     		ldrb	r3, [r7, #13]	@ zero_extendqisi2
 3125 16fe 002B     		cmp	r3, #0
 3126 1700 00D1     		bne	.L153
 3127              		.loc 1 397 0
 3128 1702 18E0     		b	.L154
 3129              	.L153:
 398:.\LCD.c       ****                     }else{
 399:.\LCD.c       ****                         write_LCD(lcd,bufferLCD1.presetValue[1][x],4,x+16,1,0x2110,'Y');
 3130              		.loc 1 399 0 is_stmt 1
 3131 1704 FB7B     		ldrb	r3, [r7, #15]	@ zero_extendqisi2
 3132 1706 154A     		ldr	r2, .L259+8
 3133 1708 1344     		add	r3, r3, r2
 3134 170a 93F86E20 		ldrb	r2, [r3, #110]	@ zero_extendqisi2
 3135 170e FB7B     		ldrb	r3, [r7, #15]	@ zero_extendqisi2
 3136 1710 9BB2     		uxth	r3, r3
 3137 1712 1033     		adds	r3, r3, #16
 3138 1714 9CB2     		uxth	r4, r3
 3139 1716 F979     		ldrb	r1, [r7, #7]	@ zero_extendqisi2
 3140 1718 0123     		movs	r3, #1
 3141 171a 0093     		str	r3, [sp]
 3142 171c 42F21013 		movw	r3, #8464
 3143 1720 0193     		str	r3, [sp, #4]
 3144 1722 5923     		movs	r3, #89
 3145 1724 0293     		str	r3, [sp, #8]
 3146 1726 0846     		mov	r0, r1
 3147 1728 1146     		mov	r1, r2
 3148 172a 0422     		movs	r2, #4
 3149 172c 2346     		mov	r3, r4
 3150 172e FFF7FEFF 		bl	write_LCD
 400:.\LCD.c       ****                         flag=1;
 3151              		.loc 1 400 0
 3152 1732 0123     		movs	r3, #1
 3153 1734 7B73     		strb	r3, [r7, #13]
 3154              	.L154:
 396:.\LCD.c       ****                     if(bufferLCD1.presetValue[1][x]=='0' && flag==0){
 3155              		.loc 1 396 0 discriminator 2
ARM GAS  C:\Users\PROYEC~1\AppData\Local\Temp\ccMsBWpv.s 			page 65


 3156 1736 FB7B     		ldrb	r3, [r7, #15]	@ zero_extendqisi2
 3157 1738 0133     		adds	r3, r3, #1
 3158 173a FB73     		strb	r3, [r7, #15]
 3159              	.L152:
 396:.\LCD.c       ****                     if(bufferLCD1.presetValue[1][x]=='0' && flag==0){
 3160              		.loc 1 396 0 is_stmt 0 discriminator 1
 3161 173c 074B     		ldr	r3, .L259+8
 3162 173e 93F86E30 		ldrb	r3, [r3, #110]	@ zero_extendqisi2
 3163 1742 FA7B     		ldrb	r2, [r7, #15]	@ zero_extendqisi2
 3164 1744 9A42     		cmp	r2, r3
 3165 1746 D2D9     		bls	.L155
 401:.\LCD.c       ****                     }
 402:.\LCD.c       ****                 }
 403:.\LCD.c       ****             }else{
 404:.\LCD.c       ****                 for(x=1;x<=bufferLCD2.licenceSale[0];x++){
 405:.\LCD.c       ****                     write_LCD(lcd,bufferLCD2.licenceSale[x],12,x+13,1,0x0000,'N');   //Placa
 406:.\LCD.c       ****                 }
 407:.\LCD.c       ****                 for(x=1;x<=bufferLCD2.mileageSale[0];x++){
 408:.\LCD.c       ****                     write_LCD(lcd,bufferLCD2.mileageSale[x],20,x+13,1,0x0000,'N');   //Kilometraje
 409:.\LCD.c       ****                 }
 410:.\LCD.c       ****                 for(x=1;x<=bufferLCD2.identySale[0];x++){
 411:.\LCD.c       ****                     write_LCD(lcd,bufferLCD2.identySale[x],28,x+13,1,0x0000,'N');   //CC/NIT
 412:.\LCD.c       ****                 }
 413:.\LCD.c       ****                 switch (bufferLCD2.presetType[1]){
 414:.\LCD.c       ****                     case 'D':
 415:.\LCD.c       ****                         for(x=0;x<8;x++){
 416:.\LCD.c       ****                             write_LCD(lcd,button[14][x],2,x+40,0,0x2110,'Y');   //Nombre de boton D
 417:.\LCD.c       ****                         }
 418:.\LCD.c       ****                         write_LCD(lcd,symbols[0],4,16,1,0xD000,'Y');   //Simbolo de dinero
 419:.\LCD.c       ****                     break;
 420:.\LCD.c       ****                     
 421:.\LCD.c       ****                     case 'V':
 422:.\LCD.c       ****                         for(x=0;x<8;x++){
 423:.\LCD.c       ****                             write_LCD(lcd,button[15][x],2,x+40,0,0x2110,'Y');   //Nombre de boton V
 424:.\LCD.c       ****                         }
 425:.\LCD.c       ****                         write_LCD(lcd,symbols[1],4,16,1,0xD000,'Y');   //Simbolo de Volumen
 426:.\LCD.c       ****                     break;
 427:.\LCD.c       ****                         
 428:.\LCD.c       ****                     case 'F':
 429:.\LCD.c       ****                         for(x=0;x<8;x++){
 430:.\LCD.c       ****                             write_LCD(lcd,button[16][x],2,x+40,0,0x2110,'Y');   //Nombre de boton L
 431:.\LCD.c       ****                         }
 432:.\LCD.c       ****                         write_LCD(lcd,symbols[0],4,16,1,0xD000,'Y');   //Simbolo de dinero
 433:.\LCD.c       ****                     break;
 434:.\LCD.c       ****                     
 435:.\LCD.c       ****                     case '1':
 436:.\LCD.c       ****                         write_LCD(lcd,'P',2,40,0,0x2110,'Y');   //Nombre de boton P1
 437:.\LCD.c       ****                         write_LCD(lcd,'1',2,41,0,0x2110,'Y');   //Nombre de boton P1
 438:.\LCD.c       ****                         write_LCD(lcd,symbols[0],4,16,1,0xD000,'Y');   //Simbolo de dinero
 439:.\LCD.c       ****                     break;
 440:.\LCD.c       ****                     
 441:.\LCD.c       ****                     case '2':
 442:.\LCD.c       ****                         write_LCD(lcd,'P',2,40,0,0x2110,'Y');   //Nombre de boton P1
 443:.\LCD.c       ****                         write_LCD(lcd,'2',2,41,0,0x2110,'Y');   //Nombre de boton P1
 444:.\LCD.c       ****                         write_LCD(lcd,symbols[0],4,16,1,0xD000,'Y');   //Simbolo de dinero
 445:.\LCD.c       ****                     break;
 446:.\LCD.c       ****                     
ARM GAS  C:\Users\PROYEC~1\AppData\Local\Temp\ccMsBWpv.s 			page 66


 447:.\LCD.c       ****                     case '3':
 448:.\LCD.c       ****                         write_LCD(lcd,'P',2,40,0,0x2110,'Y');   //Nombre de boton P1
 449:.\LCD.c       ****                         write_LCD(lcd,'3',2,41,0,0x2110,'Y');   //Nombre de boton P1
 450:.\LCD.c       ****                         write_LCD(lcd,symbols[0],4,16,1,0xD000,'Y');   //Simbolo de dinero
 451:.\LCD.c       ****                     break;
 452:.\LCD.c       ****                 }
 453:.\LCD.c       ****                 flag=0;
 454:.\LCD.c       ****                 for(x=1;x<=bufferLCD2.presetValue[1][0];x++){
 455:.\LCD.c       ****                     if(bufferLCD2.presetValue[1][x]=='0' && flag==0){
 456:.\LCD.c       ****                     }else{
 457:.\LCD.c       ****                         write_LCD(lcd,bufferLCD2.presetValue[1][x],4,x+16,1,0x2110,'Y');
 458:.\LCD.c       ****                         flag=1;
 459:.\LCD.c       ****                     }
 460:.\LCD.c       ****                 }
 461:.\LCD.c       ****             }
 462:.\LCD.c       ****         break;
 3166              		.loc 1 462 0 is_stmt 1
 3167 1748 01F07DBD 		b	.L16
 3168              	.L131:
 404:.\LCD.c       ****                     write_LCD(lcd,bufferLCD2.licenceSale[x],12,x+13,1,0x0000,'N');   //Placa
 3169              		.loc 1 404 0
 3170 174c 0123     		movs	r3, #1
 3171 174e FB73     		strb	r3, [r7, #15]
 3172 1750 1FE0     		b	.L157
 3173              	.L260:
 3174 1752 00BF     		.align	2
 3175              	.L259:
 3176 1754 00000000 		.word	button
 3177 1758 00000000 		.word	symbols
 3178 175c 00000000 		.word	bufferLCD1
 3179              	.L158:
 405:.\LCD.c       ****                 }
 3180              		.loc 1 405 0 discriminator 3
 3181 1760 FB7B     		ldrb	r3, [r7, #15]	@ zero_extendqisi2
 3182 1762 C04A     		ldr	r2, .L261
 3183 1764 1344     		add	r3, r3, r2
 3184 1766 93F8EA20 		ldrb	r2, [r3, #234]	@ zero_extendqisi2
 3185 176a FB7B     		ldrb	r3, [r7, #15]	@ zero_extendqisi2
 3186 176c 9BB2     		uxth	r3, r3
 3187 176e 0D33     		adds	r3, r3, #13
 3188 1770 9CB2     		uxth	r4, r3
 3189 1772 F979     		ldrb	r1, [r7, #7]	@ zero_extendqisi2
 3190 1774 0123     		movs	r3, #1
 3191 1776 0093     		str	r3, [sp]
 3192 1778 0023     		movs	r3, #0
 3193 177a 0193     		str	r3, [sp, #4]
 3194 177c 4E23     		movs	r3, #78
 3195 177e 0293     		str	r3, [sp, #8]
 3196 1780 0846     		mov	r0, r1
 3197 1782 1146     		mov	r1, r2
 3198 1784 0C22     		movs	r2, #12
 3199 1786 2346     		mov	r3, r4
 3200 1788 FFF7FEFF 		bl	write_LCD
 404:.\LCD.c       ****                     write_LCD(lcd,bufferLCD2.licenceSale[x],12,x+13,1,0x0000,'N');   //Placa
 3201              		.loc 1 404 0 discriminator 3
 3202 178c FB7B     		ldrb	r3, [r7, #15]	@ zero_extendqisi2
 3203 178e 0133     		adds	r3, r3, #1
ARM GAS  C:\Users\PROYEC~1\AppData\Local\Temp\ccMsBWpv.s 			page 67


 3204 1790 FB73     		strb	r3, [r7, #15]
 3205              	.L157:
 404:.\LCD.c       ****                     write_LCD(lcd,bufferLCD2.licenceSale[x],12,x+13,1,0x0000,'N');   //Placa
 3206              		.loc 1 404 0 is_stmt 0 discriminator 1
 3207 1792 B44B     		ldr	r3, .L261
 3208 1794 93F8EA30 		ldrb	r3, [r3, #234]	@ zero_extendqisi2
 3209 1798 FA7B     		ldrb	r2, [r7, #15]	@ zero_extendqisi2
 3210 179a 9A42     		cmp	r2, r3
 3211 179c E0D9     		bls	.L158
 407:.\LCD.c       ****                     write_LCD(lcd,bufferLCD2.mileageSale[x],20,x+13,1,0x0000,'N');   //Kilometraje
 3212              		.loc 1 407 0 is_stmt 1
 3213 179e 0123     		movs	r3, #1
 3214 17a0 FB73     		strb	r3, [r7, #15]
 3215 17a2 18E0     		b	.L159
 3216              	.L160:
 408:.\LCD.c       ****                 }
 3217              		.loc 1 408 0 discriminator 3
 3218 17a4 FB7B     		ldrb	r3, [r7, #15]	@ zero_extendqisi2
 3219 17a6 AF4A     		ldr	r2, .L261
 3220 17a8 1344     		add	r3, r3, r2
 3221 17aa 93F8F520 		ldrb	r2, [r3, #245]	@ zero_extendqisi2
 3222 17ae FB7B     		ldrb	r3, [r7, #15]	@ zero_extendqisi2
 3223 17b0 9BB2     		uxth	r3, r3
 3224 17b2 0D33     		adds	r3, r3, #13
 3225 17b4 9CB2     		uxth	r4, r3
 3226 17b6 F979     		ldrb	r1, [r7, #7]	@ zero_extendqisi2
 3227 17b8 0123     		movs	r3, #1
 3228 17ba 0093     		str	r3, [sp]
 3229 17bc 0023     		movs	r3, #0
 3230 17be 0193     		str	r3, [sp, #4]
 3231 17c0 4E23     		movs	r3, #78
 3232 17c2 0293     		str	r3, [sp, #8]
 3233 17c4 0846     		mov	r0, r1
 3234 17c6 1146     		mov	r1, r2
 3235 17c8 1422     		movs	r2, #20
 3236 17ca 2346     		mov	r3, r4
 3237 17cc FFF7FEFF 		bl	write_LCD
 407:.\LCD.c       ****                     write_LCD(lcd,bufferLCD2.mileageSale[x],20,x+13,1,0x0000,'N');   //Kilometraje
 3238              		.loc 1 407 0 discriminator 3
 3239 17d0 FB7B     		ldrb	r3, [r7, #15]	@ zero_extendqisi2
 3240 17d2 0133     		adds	r3, r3, #1
 3241 17d4 FB73     		strb	r3, [r7, #15]
 3242              	.L159:
 407:.\LCD.c       ****                     write_LCD(lcd,bufferLCD2.mileageSale[x],20,x+13,1,0x0000,'N');   //Kilometraje
 3243              		.loc 1 407 0 is_stmt 0 discriminator 1
 3244 17d6 A34B     		ldr	r3, .L261
 3245 17d8 93F8F530 		ldrb	r3, [r3, #245]	@ zero_extendqisi2
 3246 17dc FA7B     		ldrb	r2, [r7, #15]	@ zero_extendqisi2
 3247 17de 9A42     		cmp	r2, r3
 3248 17e0 E0D9     		bls	.L160
 410:.\LCD.c       ****                     write_LCD(lcd,bufferLCD2.identySale[x],28,x+13,1,0x0000,'N');   //CC/NIT
 3249              		.loc 1 410 0 is_stmt 1
 3250 17e2 0123     		movs	r3, #1
 3251 17e4 FB73     		strb	r3, [r7, #15]
 3252 17e6 18E0     		b	.L161
 3253              	.L162:
 411:.\LCD.c       ****                 }
ARM GAS  C:\Users\PROYEC~1\AppData\Local\Temp\ccMsBWpv.s 			page 68


 3254              		.loc 1 411 0 discriminator 3
 3255 17e8 FB7B     		ldrb	r3, [r7, #15]	@ zero_extendqisi2
 3256 17ea 9E4A     		ldr	r2, .L261
 3257 17ec 1344     		add	r3, r3, r2
 3258 17ee 93F80021 		ldrb	r2, [r3, #256]	@ zero_extendqisi2
 3259 17f2 FB7B     		ldrb	r3, [r7, #15]	@ zero_extendqisi2
 3260 17f4 9BB2     		uxth	r3, r3
 3261 17f6 0D33     		adds	r3, r3, #13
 3262 17f8 9CB2     		uxth	r4, r3
 3263 17fa F979     		ldrb	r1, [r7, #7]	@ zero_extendqisi2
 3264 17fc 0123     		movs	r3, #1
 3265 17fe 0093     		str	r3, [sp]
 3266 1800 0023     		movs	r3, #0
 3267 1802 0193     		str	r3, [sp, #4]
 3268 1804 4E23     		movs	r3, #78
 3269 1806 0293     		str	r3, [sp, #8]
 3270 1808 0846     		mov	r0, r1
 3271 180a 1146     		mov	r1, r2
 3272 180c 1C22     		movs	r2, #28
 3273 180e 2346     		mov	r3, r4
 3274 1810 FFF7FEFF 		bl	write_LCD
 410:.\LCD.c       ****                     write_LCD(lcd,bufferLCD2.identySale[x],28,x+13,1,0x0000,'N');   //CC/NIT
 3275              		.loc 1 410 0 discriminator 3
 3276 1814 FB7B     		ldrb	r3, [r7, #15]	@ zero_extendqisi2
 3277 1816 0133     		adds	r3, r3, #1
 3278 1818 FB73     		strb	r3, [r7, #15]
 3279              	.L161:
 410:.\LCD.c       ****                     write_LCD(lcd,bufferLCD2.identySale[x],28,x+13,1,0x0000,'N');   //CC/NIT
 3280              		.loc 1 410 0 is_stmt 0 discriminator 1
 3281 181a 924B     		ldr	r3, .L261
 3282 181c 93F80031 		ldrb	r3, [r3, #256]	@ zero_extendqisi2
 3283 1820 FA7B     		ldrb	r2, [r7, #15]	@ zero_extendqisi2
 3284 1822 9A42     		cmp	r2, r3
 3285 1824 E0D9     		bls	.L162
 413:.\LCD.c       ****                     case 'D':
 3286              		.loc 1 413 0 is_stmt 1
 3287 1826 8F4B     		ldr	r3, .L261
 3288 1828 93F86330 		ldrb	r3, [r3, #99]	@ zero_extendqisi2
 3289 182c 313B     		subs	r3, r3, #49
 3290 182e 252B     		cmp	r3, #37
 3291 1830 00F27A81 		bhi	.L163
 3292 1834 01A2     		adr	r2, .L165
 3293 1836 52F823F0 		ldr	pc, [r2, r3, lsl #2]
 3294 183a 00BF     		.p2align 2
 3295              	.L165:
 3296 183c 071A0000 		.word	.L164+1
 3297 1840 711A0000 		.word	.L166+1
 3298 1844 CD1A0000 		.word	.L167+1
 3299 1848 291B0000 		.word	.L163+1
 3300 184c 291B0000 		.word	.L163+1
 3301 1850 291B0000 		.word	.L163+1
 3302 1854 291B0000 		.word	.L163+1
 3303 1858 291B0000 		.word	.L163+1
 3304 185c 291B0000 		.word	.L163+1
 3305 1860 291B0000 		.word	.L163+1
 3306 1864 291B0000 		.word	.L163+1
 3307 1868 291B0000 		.word	.L163+1
ARM GAS  C:\Users\PROYEC~1\AppData\Local\Temp\ccMsBWpv.s 			page 69


 3308 186c 291B0000 		.word	.L163+1
 3309 1870 291B0000 		.word	.L163+1
 3310 1874 291B0000 		.word	.L163+1
 3311 1878 291B0000 		.word	.L163+1
 3312 187c 291B0000 		.word	.L163+1
 3313 1880 291B0000 		.word	.L163+1
 3314 1884 291B0000 		.word	.L163+1
 3315 1888 D5180000 		.word	.L168+1
 3316 188c 291B0000 		.word	.L163+1
 3317 1890 A1190000 		.word	.L169+1
 3318 1894 291B0000 		.word	.L163+1
 3319 1898 291B0000 		.word	.L163+1
 3320 189c 291B0000 		.word	.L163+1
 3321 18a0 291B0000 		.word	.L163+1
 3322 18a4 291B0000 		.word	.L163+1
 3323 18a8 291B0000 		.word	.L163+1
 3324 18ac 291B0000 		.word	.L163+1
 3325 18b0 291B0000 		.word	.L163+1
 3326 18b4 291B0000 		.word	.L163+1
 3327 18b8 291B0000 		.word	.L163+1
 3328 18bc 291B0000 		.word	.L163+1
 3329 18c0 291B0000 		.word	.L163+1
 3330 18c4 291B0000 		.word	.L163+1
 3331 18c8 291B0000 		.word	.L163+1
 3332 18cc 291B0000 		.word	.L163+1
 3333 18d0 3B190000 		.word	.L170+1
 3334              		.p2align 1
 3335              	.L168:
 415:.\LCD.c       ****                             write_LCD(lcd,button[14][x],2,x+40,0,0x2110,'Y');   //Nombre de boton D
 3336              		.loc 1 415 0
 3337 18d4 0023     		movs	r3, #0
 3338 18d6 FB73     		strb	r3, [r7, #15]
 3339 18d8 1AE0     		b	.L171
 3340              	.L172:
 416:.\LCD.c       ****                         }
 3341              		.loc 1 416 0 discriminator 3
 3342 18da FB7B     		ldrb	r3, [r7, #15]	@ zero_extendqisi2
 3343 18dc 624A     		ldr	r2, .L261+4
 3344 18de 1344     		add	r3, r3, r2
 3345 18e0 93F87030 		ldrb	r3, [r3, #112]
 3346 18e4 DAB2     		uxtb	r2, r3
 3347 18e6 FB7B     		ldrb	r3, [r7, #15]	@ zero_extendqisi2
 3348 18e8 9BB2     		uxth	r3, r3
 3349 18ea 2833     		adds	r3, r3, #40
 3350 18ec 9CB2     		uxth	r4, r3
 3351 18ee F979     		ldrb	r1, [r7, #7]	@ zero_extendqisi2
 3352 18f0 0023     		movs	r3, #0
 3353 18f2 0093     		str	r3, [sp]
 3354 18f4 42F21013 		movw	r3, #8464
 3355 18f8 0193     		str	r3, [sp, #4]
 3356 18fa 5923     		movs	r3, #89
 3357 18fc 0293     		str	r3, [sp, #8]
 3358 18fe 0846     		mov	r0, r1
 3359 1900 1146     		mov	r1, r2
 3360 1902 0222     		movs	r2, #2
 3361 1904 2346     		mov	r3, r4
 3362 1906 FFF7FEFF 		bl	write_LCD
ARM GAS  C:\Users\PROYEC~1\AppData\Local\Temp\ccMsBWpv.s 			page 70


 415:.\LCD.c       ****                             write_LCD(lcd,button[14][x],2,x+40,0,0x2110,'Y');   //Nombre de boton D
 3363              		.loc 1 415 0 discriminator 3
 3364 190a FB7B     		ldrb	r3, [r7, #15]	@ zero_extendqisi2
 3365 190c 0133     		adds	r3, r3, #1
 3366 190e FB73     		strb	r3, [r7, #15]
 3367              	.L171:
 415:.\LCD.c       ****                             write_LCD(lcd,button[14][x],2,x+40,0,0x2110,'Y');   //Nombre de boton D
 3368              		.loc 1 415 0 is_stmt 0 discriminator 1
 3369 1910 FB7B     		ldrb	r3, [r7, #15]	@ zero_extendqisi2
 3370 1912 072B     		cmp	r3, #7
 3371 1914 E1D9     		bls	.L172
 418:.\LCD.c       ****                     break;
 3372              		.loc 1 418 0 is_stmt 1
 3373 1916 554B     		ldr	r3, .L261+8
 3374 1918 1B78     		ldrb	r3, [r3]
 3375 191a DAB2     		uxtb	r2, r3
 3376 191c F979     		ldrb	r1, [r7, #7]	@ zero_extendqisi2
 3377 191e 0123     		movs	r3, #1
 3378 1920 0093     		str	r3, [sp]
 3379 1922 4FF45043 		mov	r3, #53248
 3380 1926 0193     		str	r3, [sp, #4]
 3381 1928 5923     		movs	r3, #89
 3382 192a 0293     		str	r3, [sp, #8]
 3383 192c 0846     		mov	r0, r1
 3384 192e 1146     		mov	r1, r2
 3385 1930 0422     		movs	r2, #4
 3386 1932 1023     		movs	r3, #16
 3387 1934 FFF7FEFF 		bl	write_LCD
 419:.\LCD.c       ****                     
 3388              		.loc 1 419 0
 3389 1938 F6E0     		b	.L163
 3390              	.L170:
 422:.\LCD.c       ****                             write_LCD(lcd,button[15][x],2,x+40,0,0x2110,'Y');   //Nombre de boton V
 3391              		.loc 1 422 0
 3392 193a 0023     		movs	r3, #0
 3393 193c FB73     		strb	r3, [r7, #15]
 3394 193e 1AE0     		b	.L173
 3395              	.L174:
 423:.\LCD.c       ****                         }
 3396              		.loc 1 423 0 discriminator 3
 3397 1940 FB7B     		ldrb	r3, [r7, #15]	@ zero_extendqisi2
 3398 1942 494A     		ldr	r2, .L261+4
 3399 1944 1344     		add	r3, r3, r2
 3400 1946 93F87830 		ldrb	r3, [r3, #120]
 3401 194a DAB2     		uxtb	r2, r3
 3402 194c FB7B     		ldrb	r3, [r7, #15]	@ zero_extendqisi2
 3403 194e 9BB2     		uxth	r3, r3
 3404 1950 2833     		adds	r3, r3, #40
 3405 1952 9CB2     		uxth	r4, r3
 3406 1954 F979     		ldrb	r1, [r7, #7]	@ zero_extendqisi2
 3407 1956 0023     		movs	r3, #0
 3408 1958 0093     		str	r3, [sp]
 3409 195a 42F21013 		movw	r3, #8464
 3410 195e 0193     		str	r3, [sp, #4]
 3411 1960 5923     		movs	r3, #89
 3412 1962 0293     		str	r3, [sp, #8]
 3413 1964 0846     		mov	r0, r1
ARM GAS  C:\Users\PROYEC~1\AppData\Local\Temp\ccMsBWpv.s 			page 71


 3414 1966 1146     		mov	r1, r2
 3415 1968 0222     		movs	r2, #2
 3416 196a 2346     		mov	r3, r4
 3417 196c FFF7FEFF 		bl	write_LCD
 422:.\LCD.c       ****                             write_LCD(lcd,button[15][x],2,x+40,0,0x2110,'Y');   //Nombre de boton V
 3418              		.loc 1 422 0 discriminator 3
 3419 1970 FB7B     		ldrb	r3, [r7, #15]	@ zero_extendqisi2
 3420 1972 0133     		adds	r3, r3, #1
 3421 1974 FB73     		strb	r3, [r7, #15]
 3422              	.L173:
 422:.\LCD.c       ****                             write_LCD(lcd,button[15][x],2,x+40,0,0x2110,'Y');   //Nombre de boton V
 3423              		.loc 1 422 0 is_stmt 0 discriminator 1
 3424 1976 FB7B     		ldrb	r3, [r7, #15]	@ zero_extendqisi2
 3425 1978 072B     		cmp	r3, #7
 3426 197a E1D9     		bls	.L174
 425:.\LCD.c       ****                     break;
 3427              		.loc 1 425 0 is_stmt 1
 3428 197c 3B4B     		ldr	r3, .L261+8
 3429 197e 5B78     		ldrb	r3, [r3, #1]
 3430 1980 DAB2     		uxtb	r2, r3
 3431 1982 F979     		ldrb	r1, [r7, #7]	@ zero_extendqisi2
 3432 1984 0123     		movs	r3, #1
 3433 1986 0093     		str	r3, [sp]
 3434 1988 4FF45043 		mov	r3, #53248
 3435 198c 0193     		str	r3, [sp, #4]
 3436 198e 5923     		movs	r3, #89
 3437 1990 0293     		str	r3, [sp, #8]
 3438 1992 0846     		mov	r0, r1
 3439 1994 1146     		mov	r1, r2
 3440 1996 0422     		movs	r2, #4
 3441 1998 1023     		movs	r3, #16
 3442 199a FFF7FEFF 		bl	write_LCD
 426:.\LCD.c       ****                         
 3443              		.loc 1 426 0
 3444 199e C3E0     		b	.L163
 3445              	.L169:
 429:.\LCD.c       ****                             write_LCD(lcd,button[16][x],2,x+40,0,0x2110,'Y');   //Nombre de boton L
 3446              		.loc 1 429 0
 3447 19a0 0023     		movs	r3, #0
 3448 19a2 FB73     		strb	r3, [r7, #15]
 3449 19a4 1AE0     		b	.L175
 3450              	.L176:
 430:.\LCD.c       ****                         }
 3451              		.loc 1 430 0 discriminator 3
 3452 19a6 FB7B     		ldrb	r3, [r7, #15]	@ zero_extendqisi2
 3453 19a8 2F4A     		ldr	r2, .L261+4
 3454 19aa 1344     		add	r3, r3, r2
 3455 19ac 93F88030 		ldrb	r3, [r3, #128]
 3456 19b0 DAB2     		uxtb	r2, r3
 3457 19b2 FB7B     		ldrb	r3, [r7, #15]	@ zero_extendqisi2
 3458 19b4 9BB2     		uxth	r3, r3
 3459 19b6 2833     		adds	r3, r3, #40
 3460 19b8 9CB2     		uxth	r4, r3
 3461 19ba F979     		ldrb	r1, [r7, #7]	@ zero_extendqisi2
 3462 19bc 0023     		movs	r3, #0
 3463 19be 0093     		str	r3, [sp]
 3464 19c0 42F21013 		movw	r3, #8464
ARM GAS  C:\Users\PROYEC~1\AppData\Local\Temp\ccMsBWpv.s 			page 72


 3465 19c4 0193     		str	r3, [sp, #4]
 3466 19c6 5923     		movs	r3, #89
 3467 19c8 0293     		str	r3, [sp, #8]
 3468 19ca 0846     		mov	r0, r1
 3469 19cc 1146     		mov	r1, r2
 3470 19ce 0222     		movs	r2, #2
 3471 19d0 2346     		mov	r3, r4
 3472 19d2 FFF7FEFF 		bl	write_LCD
 429:.\LCD.c       ****                             write_LCD(lcd,button[16][x],2,x+40,0,0x2110,'Y');   //Nombre de boton L
 3473              		.loc 1 429 0 discriminator 3
 3474 19d6 FB7B     		ldrb	r3, [r7, #15]	@ zero_extendqisi2
 3475 19d8 0133     		adds	r3, r3, #1
 3476 19da FB73     		strb	r3, [r7, #15]
 3477              	.L175:
 429:.\LCD.c       ****                             write_LCD(lcd,button[16][x],2,x+40,0,0x2110,'Y');   //Nombre de boton L
 3478              		.loc 1 429 0 is_stmt 0 discriminator 1
 3479 19dc FB7B     		ldrb	r3, [r7, #15]	@ zero_extendqisi2
 3480 19de 072B     		cmp	r3, #7
 3481 19e0 E1D9     		bls	.L176
 432:.\LCD.c       ****                     break;
 3482              		.loc 1 432 0 is_stmt 1
 3483 19e2 224B     		ldr	r3, .L261+8
 3484 19e4 1B78     		ldrb	r3, [r3]
 3485 19e6 DAB2     		uxtb	r2, r3
 3486 19e8 F979     		ldrb	r1, [r7, #7]	@ zero_extendqisi2
 3487 19ea 0123     		movs	r3, #1
 3488 19ec 0093     		str	r3, [sp]
 3489 19ee 4FF45043 		mov	r3, #53248
 3490 19f2 0193     		str	r3, [sp, #4]
 3491 19f4 5923     		movs	r3, #89
 3492 19f6 0293     		str	r3, [sp, #8]
 3493 19f8 0846     		mov	r0, r1
 3494 19fa 1146     		mov	r1, r2
 3495 19fc 0422     		movs	r2, #4
 3496 19fe 1023     		movs	r3, #16
 3497 1a00 FFF7FEFF 		bl	write_LCD
 433:.\LCD.c       ****                     
 3498              		.loc 1 433 0
 3499 1a04 90E0     		b	.L163
 3500              	.L164:
 436:.\LCD.c       ****                         write_LCD(lcd,'1',2,41,0,0x2110,'Y');   //Nombre de boton P1
 3501              		.loc 1 436 0
 3502 1a06 FA79     		ldrb	r2, [r7, #7]	@ zero_extendqisi2
 3503 1a08 0023     		movs	r3, #0
 3504 1a0a 0093     		str	r3, [sp]
 3505 1a0c 42F21013 		movw	r3, #8464
 3506 1a10 0193     		str	r3, [sp, #4]
 3507 1a12 5923     		movs	r3, #89
 3508 1a14 0293     		str	r3, [sp, #8]
 3509 1a16 1046     		mov	r0, r2
 3510 1a18 5021     		movs	r1, #80
 3511 1a1a 0222     		movs	r2, #2
 3512 1a1c 2823     		movs	r3, #40
 3513 1a1e FFF7FEFF 		bl	write_LCD
 437:.\LCD.c       ****                         write_LCD(lcd,symbols[0],4,16,1,0xD000,'Y');   //Simbolo de dinero
 3514              		.loc 1 437 0
 3515 1a22 FA79     		ldrb	r2, [r7, #7]	@ zero_extendqisi2
ARM GAS  C:\Users\PROYEC~1\AppData\Local\Temp\ccMsBWpv.s 			page 73


 3516 1a24 0023     		movs	r3, #0
 3517 1a26 0093     		str	r3, [sp]
 3518 1a28 42F21013 		movw	r3, #8464
 3519 1a2c 0193     		str	r3, [sp, #4]
 3520 1a2e 5923     		movs	r3, #89
 3521 1a30 0293     		str	r3, [sp, #8]
 3522 1a32 1046     		mov	r0, r2
 3523 1a34 3121     		movs	r1, #49
 3524 1a36 0222     		movs	r2, #2
 3525 1a38 2923     		movs	r3, #41
 3526 1a3a FFF7FEFF 		bl	write_LCD
 438:.\LCD.c       ****                     break;
 3527              		.loc 1 438 0
 3528 1a3e 0B4B     		ldr	r3, .L261+8
 3529 1a40 1B78     		ldrb	r3, [r3]
 3530 1a42 DAB2     		uxtb	r2, r3
 3531 1a44 F979     		ldrb	r1, [r7, #7]	@ zero_extendqisi2
 3532 1a46 0123     		movs	r3, #1
 3533 1a48 0093     		str	r3, [sp]
 3534 1a4a 4FF45043 		mov	r3, #53248
 3535 1a4e 0193     		str	r3, [sp, #4]
 3536 1a50 5923     		movs	r3, #89
 3537 1a52 0293     		str	r3, [sp, #8]
 3538 1a54 0846     		mov	r0, r1
 3539 1a56 1146     		mov	r1, r2
 3540 1a58 0422     		movs	r2, #4
 3541 1a5a 1023     		movs	r3, #16
 3542 1a5c FFF7FEFF 		bl	write_LCD
 439:.\LCD.c       ****                     
 3543              		.loc 1 439 0
 3544 1a60 62E0     		b	.L163
 3545              	.L262:
 3546 1a62 00BF     		.align	2
 3547              	.L261:
 3548 1a64 00000000 		.word	bufferLCD2
 3549 1a68 00000000 		.word	button
 3550 1a6c 00000000 		.word	symbols
 3551              	.L166:
 442:.\LCD.c       ****                         write_LCD(lcd,'2',2,41,0,0x2110,'Y');   //Nombre de boton P1
 3552              		.loc 1 442 0
 3553 1a70 FA79     		ldrb	r2, [r7, #7]	@ zero_extendqisi2
 3554 1a72 0023     		movs	r3, #0
 3555 1a74 0093     		str	r3, [sp]
 3556 1a76 42F21013 		movw	r3, #8464
 3557 1a7a 0193     		str	r3, [sp, #4]
 3558 1a7c 5923     		movs	r3, #89
 3559 1a7e 0293     		str	r3, [sp, #8]
 3560 1a80 1046     		mov	r0, r2
 3561 1a82 5021     		movs	r1, #80
 3562 1a84 0222     		movs	r2, #2
 3563 1a86 2823     		movs	r3, #40
 3564 1a88 FFF7FEFF 		bl	write_LCD
 443:.\LCD.c       ****                         write_LCD(lcd,symbols[0],4,16,1,0xD000,'Y');   //Simbolo de dinero
 3565              		.loc 1 443 0
 3566 1a8c FA79     		ldrb	r2, [r7, #7]	@ zero_extendqisi2
 3567 1a8e 0023     		movs	r3, #0
 3568 1a90 0093     		str	r3, [sp]
ARM GAS  C:\Users\PROYEC~1\AppData\Local\Temp\ccMsBWpv.s 			page 74


 3569 1a92 42F21013 		movw	r3, #8464
 3570 1a96 0193     		str	r3, [sp, #4]
 3571 1a98 5923     		movs	r3, #89
 3572 1a9a 0293     		str	r3, [sp, #8]
 3573 1a9c 1046     		mov	r0, r2
 3574 1a9e 3221     		movs	r1, #50
 3575 1aa0 0222     		movs	r2, #2
 3576 1aa2 2923     		movs	r3, #41
 3577 1aa4 FFF7FEFF 		bl	write_LCD
 444:.\LCD.c       ****                     break;
 3578              		.loc 1 444 0
 3579 1aa8 B14B     		ldr	r3, .L263
 3580 1aaa 1B78     		ldrb	r3, [r3]
 3581 1aac DAB2     		uxtb	r2, r3
 3582 1aae F979     		ldrb	r1, [r7, #7]	@ zero_extendqisi2
 3583 1ab0 0123     		movs	r3, #1
 3584 1ab2 0093     		str	r3, [sp]
 3585 1ab4 4FF45043 		mov	r3, #53248
 3586 1ab8 0193     		str	r3, [sp, #4]
 3587 1aba 5923     		movs	r3, #89
 3588 1abc 0293     		str	r3, [sp, #8]
 3589 1abe 0846     		mov	r0, r1
 3590 1ac0 1146     		mov	r1, r2
 3591 1ac2 0422     		movs	r2, #4
 3592 1ac4 1023     		movs	r3, #16
 3593 1ac6 FFF7FEFF 		bl	write_LCD
 445:.\LCD.c       ****                     
 3594              		.loc 1 445 0
 3595 1aca 2DE0     		b	.L163
 3596              	.L167:
 448:.\LCD.c       ****                         write_LCD(lcd,'3',2,41,0,0x2110,'Y');   //Nombre de boton P1
 3597              		.loc 1 448 0
 3598 1acc FA79     		ldrb	r2, [r7, #7]	@ zero_extendqisi2
 3599 1ace 0023     		movs	r3, #0
 3600 1ad0 0093     		str	r3, [sp]
 3601 1ad2 42F21013 		movw	r3, #8464
 3602 1ad6 0193     		str	r3, [sp, #4]
 3603 1ad8 5923     		movs	r3, #89
 3604 1ada 0293     		str	r3, [sp, #8]
 3605 1adc 1046     		mov	r0, r2
 3606 1ade 5021     		movs	r1, #80
 3607 1ae0 0222     		movs	r2, #2
 3608 1ae2 2823     		movs	r3, #40
 3609 1ae4 FFF7FEFF 		bl	write_LCD
 449:.\LCD.c       ****                         write_LCD(lcd,symbols[0],4,16,1,0xD000,'Y');   //Simbolo de dinero
 3610              		.loc 1 449 0
 3611 1ae8 FA79     		ldrb	r2, [r7, #7]	@ zero_extendqisi2
 3612 1aea 0023     		movs	r3, #0
 3613 1aec 0093     		str	r3, [sp]
 3614 1aee 42F21013 		movw	r3, #8464
 3615 1af2 0193     		str	r3, [sp, #4]
 3616 1af4 5923     		movs	r3, #89
 3617 1af6 0293     		str	r3, [sp, #8]
 3618 1af8 1046     		mov	r0, r2
 3619 1afa 3321     		movs	r1, #51
 3620 1afc 0222     		movs	r2, #2
 3621 1afe 2923     		movs	r3, #41
ARM GAS  C:\Users\PROYEC~1\AppData\Local\Temp\ccMsBWpv.s 			page 75


 3622 1b00 FFF7FEFF 		bl	write_LCD
 450:.\LCD.c       ****                     break;
 3623              		.loc 1 450 0
 3624 1b04 9A4B     		ldr	r3, .L263
 3625 1b06 1B78     		ldrb	r3, [r3]
 3626 1b08 DAB2     		uxtb	r2, r3
 3627 1b0a F979     		ldrb	r1, [r7, #7]	@ zero_extendqisi2
 3628 1b0c 0123     		movs	r3, #1
 3629 1b0e 0093     		str	r3, [sp]
 3630 1b10 4FF45043 		mov	r3, #53248
 3631 1b14 0193     		str	r3, [sp, #4]
 3632 1b16 5923     		movs	r3, #89
 3633 1b18 0293     		str	r3, [sp, #8]
 3634 1b1a 0846     		mov	r0, r1
 3635 1b1c 1146     		mov	r1, r2
 3636 1b1e 0422     		movs	r2, #4
 3637 1b20 1023     		movs	r3, #16
 3638 1b22 FFF7FEFF 		bl	write_LCD
 451:.\LCD.c       ****                 }
 3639              		.loc 1 451 0
 3640 1b26 00BF     		nop
 3641              	.L163:
 453:.\LCD.c       ****                 for(x=1;x<=bufferLCD2.presetValue[1][0];x++){
 3642              		.loc 1 453 0
 3643 1b28 0023     		movs	r3, #0
 3644 1b2a 7B73     		strb	r3, [r7, #13]
 454:.\LCD.c       ****                     if(bufferLCD2.presetValue[1][x]=='0' && flag==0){
 3645              		.loc 1 454 0
 3646 1b2c 0123     		movs	r3, #1
 3647 1b2e FB73     		strb	r3, [r7, #15]
 3648 1b30 26E0     		b	.L177
 3649              	.L180:
 455:.\LCD.c       ****                     }else{
 3650              		.loc 1 455 0
 3651 1b32 FB7B     		ldrb	r3, [r7, #15]	@ zero_extendqisi2
 3652 1b34 8F4A     		ldr	r2, .L263+4
 3653 1b36 1344     		add	r3, r3, r2
 3654 1b38 93F86E30 		ldrb	r3, [r3, #110]	@ zero_extendqisi2
 3655 1b3c 302B     		cmp	r3, #48
 3656 1b3e 03D1     		bne	.L178
 455:.\LCD.c       ****                     }else{
 3657              		.loc 1 455 0 is_stmt 0 discriminator 1
 3658 1b40 7B7B     		ldrb	r3, [r7, #13]	@ zero_extendqisi2
 3659 1b42 002B     		cmp	r3, #0
 3660 1b44 00D1     		bne	.L178
 455:.\LCD.c       ****                     }else{
 3661              		.loc 1 455 0
 3662 1b46 18E0     		b	.L179
 3663              	.L178:
 457:.\LCD.c       ****                         flag=1;
 3664              		.loc 1 457 0 is_stmt 1
 3665 1b48 FB7B     		ldrb	r3, [r7, #15]	@ zero_extendqisi2
 3666 1b4a 8A4A     		ldr	r2, .L263+4
 3667 1b4c 1344     		add	r3, r3, r2
 3668 1b4e 93F86E20 		ldrb	r2, [r3, #110]	@ zero_extendqisi2
 3669 1b52 FB7B     		ldrb	r3, [r7, #15]	@ zero_extendqisi2
 3670 1b54 9BB2     		uxth	r3, r3
ARM GAS  C:\Users\PROYEC~1\AppData\Local\Temp\ccMsBWpv.s 			page 76


 3671 1b56 1033     		adds	r3, r3, #16
 3672 1b58 9CB2     		uxth	r4, r3
 3673 1b5a F979     		ldrb	r1, [r7, #7]	@ zero_extendqisi2
 3674 1b5c 0123     		movs	r3, #1
 3675 1b5e 0093     		str	r3, [sp]
 3676 1b60 42F21013 		movw	r3, #8464
 3677 1b64 0193     		str	r3, [sp, #4]
 3678 1b66 5923     		movs	r3, #89
 3679 1b68 0293     		str	r3, [sp, #8]
 3680 1b6a 0846     		mov	r0, r1
 3681 1b6c 1146     		mov	r1, r2
 3682 1b6e 0422     		movs	r2, #4
 3683 1b70 2346     		mov	r3, r4
 3684 1b72 FFF7FEFF 		bl	write_LCD
 458:.\LCD.c       ****                     }
 3685              		.loc 1 458 0
 3686 1b76 0123     		movs	r3, #1
 3687 1b78 7B73     		strb	r3, [r7, #13]
 3688              	.L179:
 454:.\LCD.c       ****                     if(bufferLCD2.presetValue[1][x]=='0' && flag==0){
 3689              		.loc 1 454 0 discriminator 2
 3690 1b7a FB7B     		ldrb	r3, [r7, #15]	@ zero_extendqisi2
 3691 1b7c 0133     		adds	r3, r3, #1
 3692 1b7e FB73     		strb	r3, [r7, #15]
 3693              	.L177:
 454:.\LCD.c       ****                     if(bufferLCD2.presetValue[1][x]=='0' && flag==0){
 3694              		.loc 1 454 0 is_stmt 0 discriminator 1
 3695 1b80 7C4B     		ldr	r3, .L263+4
 3696 1b82 93F86E30 		ldrb	r3, [r3, #110]	@ zero_extendqisi2
 3697 1b86 FA7B     		ldrb	r2, [r7, #15]	@ zero_extendqisi2
 3698 1b88 9A42     		cmp	r2, r3
 3699 1b8a D2D9     		bls	.L180
 3700              		.loc 1 462 0 is_stmt 1 discriminator 2
 3701 1b8c 01F05BBB 		b	.L16
 3702              	.L27:
 463:.\LCD.c       ****             
 464:.\LCD.c       ****         case '3'://Teclado Placa
 465:.\LCD.c       ****             for(x=0;x<8;x++){
 3703              		.loc 1 465 0
 3704 1b90 0023     		movs	r3, #0
 3705 1b92 FB73     		strb	r3, [r7, #15]
 3706 1b94 32E0     		b	.L181
 3707              	.L182:
 466:.\LCD.c       ****                 write_LCD(lcd,button[38][x],7,x+6,1,0x2110,'Y');   //Nombre de imagen Teclado Placa
 3708              		.loc 1 466 0 discriminator 3
 3709 1b96 FB7B     		ldrb	r3, [r7, #15]	@ zero_extendqisi2
 3710 1b98 774A     		ldr	r2, .L263+8
 3711 1b9a 1344     		add	r3, r3, r2
 3712 1b9c 93F83031 		ldrb	r3, [r3, #304]
 3713 1ba0 DAB2     		uxtb	r2, r3
 3714 1ba2 FB7B     		ldrb	r3, [r7, #15]	@ zero_extendqisi2
 3715 1ba4 9BB2     		uxth	r3, r3
 3716 1ba6 0633     		adds	r3, r3, #6
 3717 1ba8 9CB2     		uxth	r4, r3
 3718 1baa F979     		ldrb	r1, [r7, #7]	@ zero_extendqisi2
 3719 1bac 0123     		movs	r3, #1
 3720 1bae 0093     		str	r3, [sp]
ARM GAS  C:\Users\PROYEC~1\AppData\Local\Temp\ccMsBWpv.s 			page 77


 3721 1bb0 42F21013 		movw	r3, #8464
 3722 1bb4 0193     		str	r3, [sp, #4]
 3723 1bb6 5923     		movs	r3, #89
 3724 1bb8 0293     		str	r3, [sp, #8]
 3725 1bba 0846     		mov	r0, r1
 3726 1bbc 1146     		mov	r1, r2
 3727 1bbe 0722     		movs	r2, #7
 3728 1bc0 2346     		mov	r3, r4
 3729 1bc2 FFF7FEFF 		bl	write_LCD
 467:.\LCD.c       ****                 write_LCD(lcd,button[39][x],7,x+14,1,0x2110,'Y');   //Nombre de imagen Teclado Plac
 3730              		.loc 1 467 0 discriminator 3
 3731 1bc6 FB7B     		ldrb	r3, [r7, #15]	@ zero_extendqisi2
 3732 1bc8 6B4A     		ldr	r2, .L263+8
 3733 1bca 1344     		add	r3, r3, r2
 3734 1bcc 93F83831 		ldrb	r3, [r3, #312]
 3735 1bd0 DAB2     		uxtb	r2, r3
 3736 1bd2 FB7B     		ldrb	r3, [r7, #15]	@ zero_extendqisi2
 3737 1bd4 9BB2     		uxth	r3, r3
 3738 1bd6 0E33     		adds	r3, r3, #14
 3739 1bd8 9CB2     		uxth	r4, r3
 3740 1bda F979     		ldrb	r1, [r7, #7]	@ zero_extendqisi2
 3741 1bdc 0123     		movs	r3, #1
 3742 1bde 0093     		str	r3, [sp]
 3743 1be0 42F21013 		movw	r3, #8464
 3744 1be4 0193     		str	r3, [sp, #4]
 3745 1be6 5923     		movs	r3, #89
 3746 1be8 0293     		str	r3, [sp, #8]
 3747 1bea 0846     		mov	r0, r1
 3748 1bec 1146     		mov	r1, r2
 3749 1bee 0722     		movs	r2, #7
 3750 1bf0 2346     		mov	r3, r4
 3751 1bf2 FFF7FEFF 		bl	write_LCD
 465:.\LCD.c       ****                 write_LCD(lcd,button[38][x],7,x+6,1,0x2110,'Y');   //Nombre de imagen Teclado Placa
 3752              		.loc 1 465 0 discriminator 3
 3753 1bf6 FB7B     		ldrb	r3, [r7, #15]	@ zero_extendqisi2
 3754 1bf8 0133     		adds	r3, r3, #1
 3755 1bfa FB73     		strb	r3, [r7, #15]
 3756              	.L181:
 465:.\LCD.c       ****                 write_LCD(lcd,button[38][x],7,x+6,1,0x2110,'Y');   //Nombre de imagen Teclado Placa
 3757              		.loc 1 465 0 is_stmt 0 discriminator 1
 3758 1bfc FB7B     		ldrb	r3, [r7, #15]	@ zero_extendqisi2
 3759 1bfe 072B     		cmp	r3, #7
 3760 1c00 C9D9     		bls	.L182
 468:.\LCD.c       ****             }
 469:.\LCD.c       ****         break;
 3761              		.loc 1 469 0 is_stmt 1
 3762 1c02 01F020BB 		b	.L16
 3763              	.L28:
 470:.\LCD.c       ****             
 471:.\LCD.c       ****         case '4'://Teclado Kilometraje
 472:.\LCD.c       ****             for(x=0;x<8;x++){
 3764              		.loc 1 472 0
 3765 1c06 0023     		movs	r3, #0
 3766 1c08 FB73     		strb	r3, [r7, #15]
 3767 1c0a 32E0     		b	.L183
 3768              	.L184:
 473:.\LCD.c       ****                 write_LCD(lcd,button[40][x],14,x+1,2,0x2110,'Y');   //Nombre de imagen Teclado Kilo
ARM GAS  C:\Users\PROYEC~1\AppData\Local\Temp\ccMsBWpv.s 			page 78


 3769              		.loc 1 473 0 discriminator 3
 3770 1c0c FB7B     		ldrb	r3, [r7, #15]	@ zero_extendqisi2
 3771 1c0e 5A4A     		ldr	r2, .L263+8
 3772 1c10 1344     		add	r3, r3, r2
 3773 1c12 93F84031 		ldrb	r3, [r3, #320]
 3774 1c16 DAB2     		uxtb	r2, r3
 3775 1c18 FB7B     		ldrb	r3, [r7, #15]	@ zero_extendqisi2
 3776 1c1a 9BB2     		uxth	r3, r3
 3777 1c1c 0133     		adds	r3, r3, #1
 3778 1c1e 9CB2     		uxth	r4, r3
 3779 1c20 F979     		ldrb	r1, [r7, #7]	@ zero_extendqisi2
 3780 1c22 0223     		movs	r3, #2
 3781 1c24 0093     		str	r3, [sp]
 3782 1c26 42F21013 		movw	r3, #8464
 3783 1c2a 0193     		str	r3, [sp, #4]
 3784 1c2c 5923     		movs	r3, #89
 3785 1c2e 0293     		str	r3, [sp, #8]
 3786 1c30 0846     		mov	r0, r1
 3787 1c32 1146     		mov	r1, r2
 3788 1c34 0E22     		movs	r2, #14
 3789 1c36 2346     		mov	r3, r4
 3790 1c38 FFF7FEFF 		bl	write_LCD
 474:.\LCD.c       ****                 write_LCD(lcd,button[41][x],18,x+1,2,0x2110,'Y');   //Nombre de imagen Teclado Kilo
 3791              		.loc 1 474 0 discriminator 3
 3792 1c3c FB7B     		ldrb	r3, [r7, #15]	@ zero_extendqisi2
 3793 1c3e 4E4A     		ldr	r2, .L263+8
 3794 1c40 1344     		add	r3, r3, r2
 3795 1c42 93F84831 		ldrb	r3, [r3, #328]
 3796 1c46 DAB2     		uxtb	r2, r3
 3797 1c48 FB7B     		ldrb	r3, [r7, #15]	@ zero_extendqisi2
 3798 1c4a 9BB2     		uxth	r3, r3
 3799 1c4c 0133     		adds	r3, r3, #1
 3800 1c4e 9CB2     		uxth	r4, r3
 3801 1c50 F979     		ldrb	r1, [r7, #7]	@ zero_extendqisi2
 3802 1c52 0223     		movs	r3, #2
 3803 1c54 0093     		str	r3, [sp]
 3804 1c56 42F21013 		movw	r3, #8464
 3805 1c5a 0193     		str	r3, [sp, #4]
 3806 1c5c 5923     		movs	r3, #89
 3807 1c5e 0293     		str	r3, [sp, #8]
 3808 1c60 0846     		mov	r0, r1
 3809 1c62 1146     		mov	r1, r2
 3810 1c64 1222     		movs	r2, #18
 3811 1c66 2346     		mov	r3, r4
 3812 1c68 FFF7FEFF 		bl	write_LCD
 472:.\LCD.c       ****                 write_LCD(lcd,button[40][x],14,x+1,2,0x2110,'Y');   //Nombre de imagen Teclado Kilo
 3813              		.loc 1 472 0 discriminator 3
 3814 1c6c FB7B     		ldrb	r3, [r7, #15]	@ zero_extendqisi2
 3815 1c6e 0133     		adds	r3, r3, #1
 3816 1c70 FB73     		strb	r3, [r7, #15]
 3817              	.L183:
 472:.\LCD.c       ****                 write_LCD(lcd,button[40][x],14,x+1,2,0x2110,'Y');   //Nombre de imagen Teclado Kilo
 3818              		.loc 1 472 0 is_stmt 0 discriminator 1
 3819 1c72 FB7B     		ldrb	r3, [r7, #15]	@ zero_extendqisi2
 3820 1c74 072B     		cmp	r3, #7
 3821 1c76 C9D9     		bls	.L184
 475:.\LCD.c       ****             }
ARM GAS  C:\Users\PROYEC~1\AppData\Local\Temp\ccMsBWpv.s 			page 79


 476:.\LCD.c       ****         break;
 3822              		.loc 1 476 0 is_stmt 1
 3823 1c78 01F0E5BA 		b	.L16
 3824              	.L29:
 477:.\LCD.c       ****             
 478:.\LCD.c       ****         case '5'://Teclado Nit/CC
 479:.\LCD.c       ****             for(x=0;x<8;x++){
 3825              		.loc 1 479 0
 3826 1c7c 0023     		movs	r3, #0
 3827 1c7e FB73     		strb	r3, [r7, #15]
 3828 1c80 32E0     		b	.L185
 3829              	.L186:
 480:.\LCD.c       ****                 write_LCD(lcd,button[42][x],14,x+1,2,0x2110,'Y');   //Nombre de imagen Teclado Nit/
 3830              		.loc 1 480 0 discriminator 3
 3831 1c82 FB7B     		ldrb	r3, [r7, #15]	@ zero_extendqisi2
 3832 1c84 3C4A     		ldr	r2, .L263+8
 3833 1c86 1344     		add	r3, r3, r2
 3834 1c88 93F85031 		ldrb	r3, [r3, #336]
 3835 1c8c DAB2     		uxtb	r2, r3
 3836 1c8e FB7B     		ldrb	r3, [r7, #15]	@ zero_extendqisi2
 3837 1c90 9BB2     		uxth	r3, r3
 3838 1c92 0133     		adds	r3, r3, #1
 3839 1c94 9CB2     		uxth	r4, r3
 3840 1c96 F979     		ldrb	r1, [r7, #7]	@ zero_extendqisi2
 3841 1c98 0223     		movs	r3, #2
 3842 1c9a 0093     		str	r3, [sp]
 3843 1c9c 42F21013 		movw	r3, #8464
 3844 1ca0 0193     		str	r3, [sp, #4]
 3845 1ca2 5923     		movs	r3, #89
 3846 1ca4 0293     		str	r3, [sp, #8]
 3847 1ca6 0846     		mov	r0, r1
 3848 1ca8 1146     		mov	r1, r2
 3849 1caa 0E22     		movs	r2, #14
 3850 1cac 2346     		mov	r3, r4
 3851 1cae FFF7FEFF 		bl	write_LCD
 481:.\LCD.c       ****                 write_LCD(lcd,button[43][x],18,x+1,2,0x2110,'Y');   //Nombre de imagen Teclado Nit/
 3852              		.loc 1 481 0 discriminator 3
 3853 1cb2 FB7B     		ldrb	r3, [r7, #15]	@ zero_extendqisi2
 3854 1cb4 304A     		ldr	r2, .L263+8
 3855 1cb6 1344     		add	r3, r3, r2
 3856 1cb8 93F85831 		ldrb	r3, [r3, #344]
 3857 1cbc DAB2     		uxtb	r2, r3
 3858 1cbe FB7B     		ldrb	r3, [r7, #15]	@ zero_extendqisi2
 3859 1cc0 9BB2     		uxth	r3, r3
 3860 1cc2 0133     		adds	r3, r3, #1
 3861 1cc4 9CB2     		uxth	r4, r3
 3862 1cc6 F979     		ldrb	r1, [r7, #7]	@ zero_extendqisi2
 3863 1cc8 0223     		movs	r3, #2
 3864 1cca 0093     		str	r3, [sp]
 3865 1ccc 42F21013 		movw	r3, #8464
 3866 1cd0 0193     		str	r3, [sp, #4]
 3867 1cd2 5923     		movs	r3, #89
 3868 1cd4 0293     		str	r3, [sp, #8]
 3869 1cd6 0846     		mov	r0, r1
 3870 1cd8 1146     		mov	r1, r2
 3871 1cda 1222     		movs	r2, #18
 3872 1cdc 2346     		mov	r3, r4
ARM GAS  C:\Users\PROYEC~1\AppData\Local\Temp\ccMsBWpv.s 			page 80


 3873 1cde FFF7FEFF 		bl	write_LCD
 479:.\LCD.c       ****                 write_LCD(lcd,button[42][x],14,x+1,2,0x2110,'Y');   //Nombre de imagen Teclado Nit/
 3874              		.loc 1 479 0 discriminator 3
 3875 1ce2 FB7B     		ldrb	r3, [r7, #15]	@ zero_extendqisi2
 3876 1ce4 0133     		adds	r3, r3, #1
 3877 1ce6 FB73     		strb	r3, [r7, #15]
 3878              	.L185:
 479:.\LCD.c       ****                 write_LCD(lcd,button[42][x],14,x+1,2,0x2110,'Y');   //Nombre de imagen Teclado Nit/
 3879              		.loc 1 479 0 is_stmt 0 discriminator 1
 3880 1ce8 FB7B     		ldrb	r3, [r7, #15]	@ zero_extendqisi2
 3881 1cea 072B     		cmp	r3, #7
 3882 1cec C9D9     		bls	.L186
 482:.\LCD.c       ****             }
 483:.\LCD.c       ****         break;
 3883              		.loc 1 483 0 is_stmt 1
 3884 1cee 01F0AABA 		b	.L16
 3885              	.L30:
 484:.\LCD.c       ****         
 485:.\LCD.c       ****         case '6'://Teclado N Venta F. de pago
 486:.\LCD.c       ****             for(x=0;x<8;x++){
 3886              		.loc 1 486 0
 3887 1cf2 0023     		movs	r3, #0
 3888 1cf4 FB73     		strb	r3, [r7, #15]
 3889 1cf6 32E0     		b	.L187
 3890              	.L188:
 487:.\LCD.c       ****                 write_LCD(lcd,button[84][x],14,x+1,2,0x2110,'Y');   //Nombre de imagen Teclado Vent
 3891              		.loc 1 487 0 discriminator 3
 3892 1cf8 FB7B     		ldrb	r3, [r7, #15]	@ zero_extendqisi2
 3893 1cfa 1F4A     		ldr	r2, .L263+8
 3894 1cfc 1344     		add	r3, r3, r2
 3895 1cfe 93F8A032 		ldrb	r3, [r3, #672]
 3896 1d02 DAB2     		uxtb	r2, r3
 3897 1d04 FB7B     		ldrb	r3, [r7, #15]	@ zero_extendqisi2
 3898 1d06 9BB2     		uxth	r3, r3
 3899 1d08 0133     		adds	r3, r3, #1
 3900 1d0a 9CB2     		uxth	r4, r3
 3901 1d0c F979     		ldrb	r1, [r7, #7]	@ zero_extendqisi2
 3902 1d0e 0223     		movs	r3, #2
 3903 1d10 0093     		str	r3, [sp]
 3904 1d12 42F21013 		movw	r3, #8464
 3905 1d16 0193     		str	r3, [sp, #4]
 3906 1d18 5923     		movs	r3, #89
 3907 1d1a 0293     		str	r3, [sp, #8]
 3908 1d1c 0846     		mov	r0, r1
 3909 1d1e 1146     		mov	r1, r2
 3910 1d20 0E22     		movs	r2, #14
 3911 1d22 2346     		mov	r3, r4
 3912 1d24 FFF7FEFF 		bl	write_LCD
 488:.\LCD.c       ****                 write_LCD(lcd,button[85][x],18,x+1,2,0x2110,'Y');   //Nombre de imagen Teclado Vent
 3913              		.loc 1 488 0 discriminator 3
 3914 1d28 FB7B     		ldrb	r3, [r7, #15]	@ zero_extendqisi2
 3915 1d2a 134A     		ldr	r2, .L263+8
 3916 1d2c 1344     		add	r3, r3, r2
 3917 1d2e 93F8A832 		ldrb	r3, [r3, #680]
 3918 1d32 DAB2     		uxtb	r2, r3
 3919 1d34 FB7B     		ldrb	r3, [r7, #15]	@ zero_extendqisi2
 3920 1d36 9BB2     		uxth	r3, r3
ARM GAS  C:\Users\PROYEC~1\AppData\Local\Temp\ccMsBWpv.s 			page 81


 3921 1d38 0133     		adds	r3, r3, #1
 3922 1d3a 9CB2     		uxth	r4, r3
 3923 1d3c F979     		ldrb	r1, [r7, #7]	@ zero_extendqisi2
 3924 1d3e 0223     		movs	r3, #2
 3925 1d40 0093     		str	r3, [sp]
 3926 1d42 42F21013 		movw	r3, #8464
 3927 1d46 0193     		str	r3, [sp, #4]
 3928 1d48 5923     		movs	r3, #89
 3929 1d4a 0293     		str	r3, [sp, #8]
 3930 1d4c 0846     		mov	r0, r1
 3931 1d4e 1146     		mov	r1, r2
 3932 1d50 1222     		movs	r2, #18
 3933 1d52 2346     		mov	r3, r4
 3934 1d54 FFF7FEFF 		bl	write_LCD
 486:.\LCD.c       ****                 write_LCD(lcd,button[84][x],14,x+1,2,0x2110,'Y');   //Nombre de imagen Teclado Vent
 3935              		.loc 1 486 0 discriminator 3
 3936 1d58 FB7B     		ldrb	r3, [r7, #15]	@ zero_extendqisi2
 3937 1d5a 0133     		adds	r3, r3, #1
 3938 1d5c FB73     		strb	r3, [r7, #15]
 3939              	.L187:
 486:.\LCD.c       ****                 write_LCD(lcd,button[84][x],14,x+1,2,0x2110,'Y');   //Nombre de imagen Teclado Vent
 3940              		.loc 1 486 0 is_stmt 0 discriminator 1
 3941 1d5e FB7B     		ldrb	r3, [r7, #15]	@ zero_extendqisi2
 3942 1d60 072B     		cmp	r3, #7
 3943 1d62 C9D9     		bls	.L188
 489:.\LCD.c       ****             }
 490:.\LCD.c       ****         break;
 3944              		.loc 1 490 0 is_stmt 1
 3945 1d64 01F06FBA 		b	.L16
 3946              	.L31:
 491:.\LCD.c       ****             
 492:.\LCD.c       ****         case '7'://Teclado Dinero Venta F. de pago
 493:.\LCD.c       ****             for(x=0;x<8;x++){
 3947              		.loc 1 493 0
 3948 1d68 0023     		movs	r3, #0
 3949 1d6a FB73     		strb	r3, [r7, #15]
 3950 1d6c 39E0     		b	.L189
 3951              	.L264:
 3952 1d6e 00BF     		.align	2
 3953              	.L263:
 3954 1d70 00000000 		.word	symbols
 3955 1d74 00000000 		.word	bufferLCD2
 3956 1d78 00000000 		.word	button
 3957              	.L190:
 494:.\LCD.c       ****                 write_LCD(lcd,button[86][x],14,x+1,2,0x2110,'Y');   //Nombre de imagen Teclado Vent
 3958              		.loc 1 494 0 discriminator 3
 3959 1d7c FB7B     		ldrb	r3, [r7, #15]	@ zero_extendqisi2
 3960 1d7e B04A     		ldr	r2, .L265
 3961 1d80 1344     		add	r3, r3, r2
 3962 1d82 93F8B032 		ldrb	r3, [r3, #688]
 3963 1d86 DAB2     		uxtb	r2, r3
 3964 1d88 FB7B     		ldrb	r3, [r7, #15]	@ zero_extendqisi2
 3965 1d8a 9BB2     		uxth	r3, r3
 3966 1d8c 0133     		adds	r3, r3, #1
 3967 1d8e 9CB2     		uxth	r4, r3
 3968 1d90 F979     		ldrb	r1, [r7, #7]	@ zero_extendqisi2
 3969 1d92 0223     		movs	r3, #2
ARM GAS  C:\Users\PROYEC~1\AppData\Local\Temp\ccMsBWpv.s 			page 82


 3970 1d94 0093     		str	r3, [sp]
 3971 1d96 42F21013 		movw	r3, #8464
 3972 1d9a 0193     		str	r3, [sp, #4]
 3973 1d9c 5923     		movs	r3, #89
 3974 1d9e 0293     		str	r3, [sp, #8]
 3975 1da0 0846     		mov	r0, r1
 3976 1da2 1146     		mov	r1, r2
 3977 1da4 0E22     		movs	r2, #14
 3978 1da6 2346     		mov	r3, r4
 3979 1da8 FFF7FEFF 		bl	write_LCD
 495:.\LCD.c       ****                 write_LCD(lcd,button[87][x],18,x+1,2,0x2110,'Y');   //Nombre de imagen Teclado Vent
 3980              		.loc 1 495 0 discriminator 3
 3981 1dac FB7B     		ldrb	r3, [r7, #15]	@ zero_extendqisi2
 3982 1dae A44A     		ldr	r2, .L265
 3983 1db0 1344     		add	r3, r3, r2
 3984 1db2 93F8B832 		ldrb	r3, [r3, #696]
 3985 1db6 DAB2     		uxtb	r2, r3
 3986 1db8 FB7B     		ldrb	r3, [r7, #15]	@ zero_extendqisi2
 3987 1dba 9BB2     		uxth	r3, r3
 3988 1dbc 0133     		adds	r3, r3, #1
 3989 1dbe 9CB2     		uxth	r4, r3
 3990 1dc0 F979     		ldrb	r1, [r7, #7]	@ zero_extendqisi2
 3991 1dc2 0223     		movs	r3, #2
 3992 1dc4 0093     		str	r3, [sp]
 3993 1dc6 42F21013 		movw	r3, #8464
 3994 1dca 0193     		str	r3, [sp, #4]
 3995 1dcc 5923     		movs	r3, #89
 3996 1dce 0293     		str	r3, [sp, #8]
 3997 1dd0 0846     		mov	r0, r1
 3998 1dd2 1146     		mov	r1, r2
 3999 1dd4 1222     		movs	r2, #18
 4000 1dd6 2346     		mov	r3, r4
 4001 1dd8 FFF7FEFF 		bl	write_LCD
 493:.\LCD.c       ****                 write_LCD(lcd,button[86][x],14,x+1,2,0x2110,'Y');   //Nombre de imagen Teclado Vent
 4002              		.loc 1 493 0 discriminator 3
 4003 1ddc FB7B     		ldrb	r3, [r7, #15]	@ zero_extendqisi2
 4004 1dde 0133     		adds	r3, r3, #1
 4005 1de0 FB73     		strb	r3, [r7, #15]
 4006              	.L189:
 493:.\LCD.c       ****                 write_LCD(lcd,button[86][x],14,x+1,2,0x2110,'Y');   //Nombre de imagen Teclado Vent
 4007              		.loc 1 493 0 is_stmt 0 discriminator 1
 4008 1de2 FB7B     		ldrb	r3, [r7, #15]	@ zero_extendqisi2
 4009 1de4 072B     		cmp	r3, #7
 4010 1de6 C9D9     		bls	.L190
 496:.\LCD.c       ****             }
 497:.\LCD.c       ****         break;
 4011              		.loc 1 497 0 is_stmt 1
 4012 1de8 01F02DBA 		b	.L16
 4013              	.L32:
 498:.\LCD.c       ****         
 499:.\LCD.c       ****         case '8'://Teclado Serial
 500:.\LCD.c       ****             for(x=0;x<8;x++){
 4014              		.loc 1 500 0
 4015 1dec 0023     		movs	r3, #0
 4016 1dee FB73     		strb	r3, [r7, #15]
 4017 1df0 32E0     		b	.L191
 4018              	.L192:
ARM GAS  C:\Users\PROYEC~1\AppData\Local\Temp\ccMsBWpv.s 			page 83


 501:.\LCD.c       ****                 write_LCD(lcd,button[38][x],7,x+6,1,0x2110,'Y');   //Nombre de imagen Teclado Seria
 4019              		.loc 1 501 0 discriminator 3
 4020 1df2 FB7B     		ldrb	r3, [r7, #15]	@ zero_extendqisi2
 4021 1df4 924A     		ldr	r2, .L265
 4022 1df6 1344     		add	r3, r3, r2
 4023 1df8 93F83031 		ldrb	r3, [r3, #304]
 4024 1dfc DAB2     		uxtb	r2, r3
 4025 1dfe FB7B     		ldrb	r3, [r7, #15]	@ zero_extendqisi2
 4026 1e00 9BB2     		uxth	r3, r3
 4027 1e02 0633     		adds	r3, r3, #6
 4028 1e04 9CB2     		uxth	r4, r3
 4029 1e06 F979     		ldrb	r1, [r7, #7]	@ zero_extendqisi2
 4030 1e08 0123     		movs	r3, #1
 4031 1e0a 0093     		str	r3, [sp]
 4032 1e0c 42F21013 		movw	r3, #8464
 4033 1e10 0193     		str	r3, [sp, #4]
 4034 1e12 5923     		movs	r3, #89
 4035 1e14 0293     		str	r3, [sp, #8]
 4036 1e16 0846     		mov	r0, r1
 4037 1e18 1146     		mov	r1, r2
 4038 1e1a 0722     		movs	r2, #7
 4039 1e1c 2346     		mov	r3, r4
 4040 1e1e FFF7FEFF 		bl	write_LCD
 502:.\LCD.c       ****                 write_LCD(lcd,button[81][x],7,x+14,1,0x2110,'Y');   //Nombre de imagen Teclado Seri
 4041              		.loc 1 502 0 discriminator 3
 4042 1e22 FB7B     		ldrb	r3, [r7, #15]	@ zero_extendqisi2
 4043 1e24 864A     		ldr	r2, .L265
 4044 1e26 1344     		add	r3, r3, r2
 4045 1e28 93F88832 		ldrb	r3, [r3, #648]
 4046 1e2c DAB2     		uxtb	r2, r3
 4047 1e2e FB7B     		ldrb	r3, [r7, #15]	@ zero_extendqisi2
 4048 1e30 9BB2     		uxth	r3, r3
 4049 1e32 0E33     		adds	r3, r3, #14
 4050 1e34 9CB2     		uxth	r4, r3
 4051 1e36 F979     		ldrb	r1, [r7, #7]	@ zero_extendqisi2
 4052 1e38 0123     		movs	r3, #1
 4053 1e3a 0093     		str	r3, [sp]
 4054 1e3c 42F21013 		movw	r3, #8464
 4055 1e40 0193     		str	r3, [sp, #4]
 4056 1e42 5923     		movs	r3, #89
 4057 1e44 0293     		str	r3, [sp, #8]
 4058 1e46 0846     		mov	r0, r1
 4059 1e48 1146     		mov	r1, r2
 4060 1e4a 0722     		movs	r2, #7
 4061 1e4c 2346     		mov	r3, r4
 4062 1e4e FFF7FEFF 		bl	write_LCD
 500:.\LCD.c       ****                 write_LCD(lcd,button[38][x],7,x+6,1,0x2110,'Y');   //Nombre de imagen Teclado Seria
 4063              		.loc 1 500 0 discriminator 3
 4064 1e52 FB7B     		ldrb	r3, [r7, #15]	@ zero_extendqisi2
 4065 1e54 0133     		adds	r3, r3, #1
 4066 1e56 FB73     		strb	r3, [r7, #15]
 4067              	.L191:
 500:.\LCD.c       ****                 write_LCD(lcd,button[38][x],7,x+6,1,0x2110,'Y');   //Nombre de imagen Teclado Seria
 4068              		.loc 1 500 0 is_stmt 0 discriminator 1
 4069 1e58 FB7B     		ldrb	r3, [r7, #15]	@ zero_extendqisi2
 4070 1e5a 072B     		cmp	r3, #7
 4071 1e5c C9D9     		bls	.L192
ARM GAS  C:\Users\PROYEC~1\AppData\Local\Temp\ccMsBWpv.s 			page 84


 503:.\LCD.c       ****             }
 504:.\LCD.c       ****         break;
 4072              		.loc 1 504 0 is_stmt 1
 4073 1e5e 01F0F2B9 		b	.L16
 4074              	.L33:
 505:.\LCD.c       ****             
 506:.\LCD.c       ****         case '9'://Teclado Codigo de barras
 507:.\LCD.c       ****             for(x=0;x<8;x++){
 4075              		.loc 1 507 0
 4076 1e62 0023     		movs	r3, #0
 4077 1e64 FB73     		strb	r3, [r7, #15]
 4078 1e66 32E0     		b	.L193
 4079              	.L194:
 508:.\LCD.c       ****                 write_LCD(lcd,button[104][x],7,x+6,1,0x2110,'Y');   //Nombre de imagen Codigo de ba
 4080              		.loc 1 508 0 discriminator 3
 4081 1e68 FB7B     		ldrb	r3, [r7, #15]	@ zero_extendqisi2
 4082 1e6a 754A     		ldr	r2, .L265
 4083 1e6c 1344     		add	r3, r3, r2
 4084 1e6e 93F84033 		ldrb	r3, [r3, #832]
 4085 1e72 DAB2     		uxtb	r2, r3
 4086 1e74 FB7B     		ldrb	r3, [r7, #15]	@ zero_extendqisi2
 4087 1e76 9BB2     		uxth	r3, r3
 4088 1e78 0633     		adds	r3, r3, #6
 4089 1e7a 9CB2     		uxth	r4, r3
 4090 1e7c F979     		ldrb	r1, [r7, #7]	@ zero_extendqisi2
 4091 1e7e 0123     		movs	r3, #1
 4092 1e80 0093     		str	r3, [sp]
 4093 1e82 42F21013 		movw	r3, #8464
 4094 1e86 0193     		str	r3, [sp, #4]
 4095 1e88 5923     		movs	r3, #89
 4096 1e8a 0293     		str	r3, [sp, #8]
 4097 1e8c 0846     		mov	r0, r1
 4098 1e8e 1146     		mov	r1, r2
 4099 1e90 0722     		movs	r2, #7
 4100 1e92 2346     		mov	r3, r4
 4101 1e94 FFF7FEFF 		bl	write_LCD
 509:.\LCD.c       ****                 write_LCD(lcd,button[105][x],7,x+14,1,0x2110,'Y');   //Nombre de imagen Codigo de b
 4102              		.loc 1 509 0 discriminator 3
 4103 1e98 FB7B     		ldrb	r3, [r7, #15]	@ zero_extendqisi2
 4104 1e9a 694A     		ldr	r2, .L265
 4105 1e9c 1344     		add	r3, r3, r2
 4106 1e9e 93F84833 		ldrb	r3, [r3, #840]
 4107 1ea2 DAB2     		uxtb	r2, r3
 4108 1ea4 FB7B     		ldrb	r3, [r7, #15]	@ zero_extendqisi2
 4109 1ea6 9BB2     		uxth	r3, r3
 4110 1ea8 0E33     		adds	r3, r3, #14
 4111 1eaa 9CB2     		uxth	r4, r3
 4112 1eac F979     		ldrb	r1, [r7, #7]	@ zero_extendqisi2
 4113 1eae 0123     		movs	r3, #1
 4114 1eb0 0093     		str	r3, [sp]
 4115 1eb2 42F21013 		movw	r3, #8464
 4116 1eb6 0193     		str	r3, [sp, #4]
 4117 1eb8 5923     		movs	r3, #89
 4118 1eba 0293     		str	r3, [sp, #8]
 4119 1ebc 0846     		mov	r0, r1
 4120 1ebe 1146     		mov	r1, r2
 4121 1ec0 0722     		movs	r2, #7
ARM GAS  C:\Users\PROYEC~1\AppData\Local\Temp\ccMsBWpv.s 			page 85


 4122 1ec2 2346     		mov	r3, r4
 4123 1ec4 FFF7FEFF 		bl	write_LCD
 507:.\LCD.c       ****                 write_LCD(lcd,button[104][x],7,x+6,1,0x2110,'Y');   //Nombre de imagen Codigo de ba
 4124              		.loc 1 507 0 discriminator 3
 4125 1ec8 FB7B     		ldrb	r3, [r7, #15]	@ zero_extendqisi2
 4126 1eca 0133     		adds	r3, r3, #1
 4127 1ecc FB73     		strb	r3, [r7, #15]
 4128              	.L193:
 507:.\LCD.c       ****                 write_LCD(lcd,button[104][x],7,x+6,1,0x2110,'Y');   //Nombre de imagen Codigo de ba
 4129              		.loc 1 507 0 is_stmt 0 discriminator 1
 4130 1ece FB7B     		ldrb	r3, [r7, #15]	@ zero_extendqisi2
 4131 1ed0 072B     		cmp	r3, #7
 4132 1ed2 C9D9     		bls	.L194
 510:.\LCD.c       ****             }
 511:.\LCD.c       ****         break;
 4133              		.loc 1 511 0 is_stmt 1
 4134 1ed4 01F0B7B9 		b	.L16
 4135              	.L24:
 512:.\LCD.c       ****             
 513:.\LCD.c       ****         case '0'://Teclado cantidad canasta
 514:.\LCD.c       ****             for(x=0;x<8;x++){
 4136              		.loc 1 514 0
 4137 1ed8 0023     		movs	r3, #0
 4138 1eda FB73     		strb	r3, [r7, #15]
 4139 1edc 32E0     		b	.L195
 4140              	.L196:
 515:.\LCD.c       ****                 write_LCD(lcd,button[104][x],14,x+1,2,0x2110,'Y');   //Nombre de imagen Teclado Ven
 4141              		.loc 1 515 0 discriminator 3
 4142 1ede FB7B     		ldrb	r3, [r7, #15]	@ zero_extendqisi2
 4143 1ee0 574A     		ldr	r2, .L265
 4144 1ee2 1344     		add	r3, r3, r2
 4145 1ee4 93F84033 		ldrb	r3, [r3, #832]
 4146 1ee8 DAB2     		uxtb	r2, r3
 4147 1eea FB7B     		ldrb	r3, [r7, #15]	@ zero_extendqisi2
 4148 1eec 9BB2     		uxth	r3, r3
 4149 1eee 0133     		adds	r3, r3, #1
 4150 1ef0 9CB2     		uxth	r4, r3
 4151 1ef2 F979     		ldrb	r1, [r7, #7]	@ zero_extendqisi2
 4152 1ef4 0223     		movs	r3, #2
 4153 1ef6 0093     		str	r3, [sp]
 4154 1ef8 42F21013 		movw	r3, #8464
 4155 1efc 0193     		str	r3, [sp, #4]
 4156 1efe 5923     		movs	r3, #89
 4157 1f00 0293     		str	r3, [sp, #8]
 4158 1f02 0846     		mov	r0, r1
 4159 1f04 1146     		mov	r1, r2
 4160 1f06 0E22     		movs	r2, #14
 4161 1f08 2346     		mov	r3, r4
 4162 1f0a FFF7FEFF 		bl	write_LCD
 516:.\LCD.c       ****                 write_LCD(lcd,button[101][x],18,x+1,2,0x2110,'Y');   //Nombre de imagen Teclado Ven
 4163              		.loc 1 516 0 discriminator 3
 4164 1f0e FB7B     		ldrb	r3, [r7, #15]	@ zero_extendqisi2
 4165 1f10 4B4A     		ldr	r2, .L265
 4166 1f12 1344     		add	r3, r3, r2
 4167 1f14 93F82833 		ldrb	r3, [r3, #808]
 4168 1f18 DAB2     		uxtb	r2, r3
 4169 1f1a FB7B     		ldrb	r3, [r7, #15]	@ zero_extendqisi2
ARM GAS  C:\Users\PROYEC~1\AppData\Local\Temp\ccMsBWpv.s 			page 86


 4170 1f1c 9BB2     		uxth	r3, r3
 4171 1f1e 0133     		adds	r3, r3, #1
 4172 1f20 9CB2     		uxth	r4, r3
 4173 1f22 F979     		ldrb	r1, [r7, #7]	@ zero_extendqisi2
 4174 1f24 0223     		movs	r3, #2
 4175 1f26 0093     		str	r3, [sp]
 4176 1f28 42F21013 		movw	r3, #8464
 4177 1f2c 0193     		str	r3, [sp, #4]
 4178 1f2e 5923     		movs	r3, #89
 4179 1f30 0293     		str	r3, [sp, #8]
 4180 1f32 0846     		mov	r0, r1
 4181 1f34 1146     		mov	r1, r2
 4182 1f36 1222     		movs	r2, #18
 4183 1f38 2346     		mov	r3, r4
 4184 1f3a FFF7FEFF 		bl	write_LCD
 514:.\LCD.c       ****                 write_LCD(lcd,button[104][x],14,x+1,2,0x2110,'Y');   //Nombre de imagen Teclado Ven
 4185              		.loc 1 514 0 discriminator 3
 4186 1f3e FB7B     		ldrb	r3, [r7, #15]	@ zero_extendqisi2
 4187 1f40 0133     		adds	r3, r3, #1
 4188 1f42 FB73     		strb	r3, [r7, #15]
 4189              	.L195:
 514:.\LCD.c       ****                 write_LCD(lcd,button[104][x],14,x+1,2,0x2110,'Y');   //Nombre de imagen Teclado Ven
 4190              		.loc 1 514 0 is_stmt 0 discriminator 1
 4191 1f44 FB7B     		ldrb	r3, [r7, #15]	@ zero_extendqisi2
 4192 1f46 072B     		cmp	r3, #7
 4193 1f48 C9D9     		bls	.L196
 517:.\LCD.c       ****             }
 518:.\LCD.c       ****         break;
 4194              		.loc 1 518 0 is_stmt 1
 4195 1f4a 01F07CB9 		b	.L16
 4196              	.L23:
 519:.\LCD.c       ****             
 520:.\LCD.c       ****         case '*'://Teclado contrasea
 521:.\LCD.c       ****             for(x=0;x<8;x++){
 4197              		.loc 1 521 0
 4198 1f4e 0023     		movs	r3, #0
 4199 1f50 FB73     		strb	r3, [r7, #15]
 4200 1f52 32E0     		b	.L197
 4201              	.L198:
 522:.\LCD.c       ****                 write_LCD(lcd,button[112][x],14,x+1,2,0x2110,'Y');   //Nombre de imagen Teclado Con
 4202              		.loc 1 522 0 discriminator 3
 4203 1f54 FB7B     		ldrb	r3, [r7, #15]	@ zero_extendqisi2
 4204 1f56 3A4A     		ldr	r2, .L265
 4205 1f58 1344     		add	r3, r3, r2
 4206 1f5a 93F88033 		ldrb	r3, [r3, #896]
 4207 1f5e DAB2     		uxtb	r2, r3
 4208 1f60 FB7B     		ldrb	r3, [r7, #15]	@ zero_extendqisi2
 4209 1f62 9BB2     		uxth	r3, r3
 4210 1f64 0133     		adds	r3, r3, #1
 4211 1f66 9CB2     		uxth	r4, r3
 4212 1f68 F979     		ldrb	r1, [r7, #7]	@ zero_extendqisi2
 4213 1f6a 0223     		movs	r3, #2
 4214 1f6c 0093     		str	r3, [sp]
 4215 1f6e 42F21013 		movw	r3, #8464
 4216 1f72 0193     		str	r3, [sp, #4]
 4217 1f74 5923     		movs	r3, #89
 4218 1f76 0293     		str	r3, [sp, #8]
ARM GAS  C:\Users\PROYEC~1\AppData\Local\Temp\ccMsBWpv.s 			page 87


 4219 1f78 0846     		mov	r0, r1
 4220 1f7a 1146     		mov	r1, r2
 4221 1f7c 0E22     		movs	r2, #14
 4222 1f7e 2346     		mov	r3, r4
 4223 1f80 FFF7FEFF 		bl	write_LCD
 523:.\LCD.c       ****                 write_LCD(lcd,button[113][x],18,x+1,2,0x2110,'Y');   //Nombre de imagen Teclado Con
 4224              		.loc 1 523 0 discriminator 3
 4225 1f84 FB7B     		ldrb	r3, [r7, #15]	@ zero_extendqisi2
 4226 1f86 2E4A     		ldr	r2, .L265
 4227 1f88 1344     		add	r3, r3, r2
 4228 1f8a 93F88833 		ldrb	r3, [r3, #904]
 4229 1f8e DAB2     		uxtb	r2, r3
 4230 1f90 FB7B     		ldrb	r3, [r7, #15]	@ zero_extendqisi2
 4231 1f92 9BB2     		uxth	r3, r3
 4232 1f94 0133     		adds	r3, r3, #1
 4233 1f96 9CB2     		uxth	r4, r3
 4234 1f98 F979     		ldrb	r1, [r7, #7]	@ zero_extendqisi2
 4235 1f9a 0223     		movs	r3, #2
 4236 1f9c 0093     		str	r3, [sp]
 4237 1f9e 42F21013 		movw	r3, #8464
 4238 1fa2 0193     		str	r3, [sp, #4]
 4239 1fa4 5923     		movs	r3, #89
 4240 1fa6 0293     		str	r3, [sp, #8]
 4241 1fa8 0846     		mov	r0, r1
 4242 1faa 1146     		mov	r1, r2
 4243 1fac 1222     		movs	r2, #18
 4244 1fae 2346     		mov	r3, r4
 4245 1fb0 FFF7FEFF 		bl	write_LCD
 521:.\LCD.c       ****                 write_LCD(lcd,button[112][x],14,x+1,2,0x2110,'Y');   //Nombre de imagen Teclado Con
 4246              		.loc 1 521 0 discriminator 3
 4247 1fb4 FB7B     		ldrb	r3, [r7, #15]	@ zero_extendqisi2
 4248 1fb6 0133     		adds	r3, r3, #1
 4249 1fb8 FB73     		strb	r3, [r7, #15]
 4250              	.L197:
 521:.\LCD.c       ****                 write_LCD(lcd,button[112][x],14,x+1,2,0x2110,'Y');   //Nombre de imagen Teclado Con
 4251              		.loc 1 521 0 is_stmt 0 discriminator 1
 4252 1fba FB7B     		ldrb	r3, [r7, #15]	@ zero_extendqisi2
 4253 1fbc 072B     		cmp	r3, #7
 4254 1fbe C9D9     		bls	.L198
 524:.\LCD.c       ****             }
 525:.\LCD.c       ****         break;
 4255              		.loc 1 525 0 is_stmt 1
 4256 1fc0 01F041B9 		b	.L16
 4257              	.L37:
 526:.\LCD.c       ****             
 527:.\LCD.c       ****         case 'F'://Formas de pago
 528:.\LCD.c       ****             for(x=0;x<8;x++){
 4258              		.loc 1 528 0
 4259 1fc4 0023     		movs	r3, #0
 4260 1fc6 FB73     		strb	r3, [r7, #15]
 4261 1fc8 32E0     		b	.L199
 4262              	.L200:
 529:.\LCD.c       ****                 write_LCD(lcd,button[44][x],2,x+1,2,0x2110,'Y');   //Nombre de imagen Formas de pag
 4263              		.loc 1 529 0 discriminator 3
 4264 1fca FB7B     		ldrb	r3, [r7, #15]	@ zero_extendqisi2
 4265 1fcc 1C4A     		ldr	r2, .L265
 4266 1fce 1344     		add	r3, r3, r2
ARM GAS  C:\Users\PROYEC~1\AppData\Local\Temp\ccMsBWpv.s 			page 88


 4267 1fd0 93F86031 		ldrb	r3, [r3, #352]
 4268 1fd4 DAB2     		uxtb	r2, r3
 4269 1fd6 FB7B     		ldrb	r3, [r7, #15]	@ zero_extendqisi2
 4270 1fd8 9BB2     		uxth	r3, r3
 4271 1fda 0133     		adds	r3, r3, #1
 4272 1fdc 9CB2     		uxth	r4, r3
 4273 1fde F979     		ldrb	r1, [r7, #7]	@ zero_extendqisi2
 4274 1fe0 0223     		movs	r3, #2
 4275 1fe2 0093     		str	r3, [sp]
 4276 1fe4 42F21013 		movw	r3, #8464
 4277 1fe8 0193     		str	r3, [sp, #4]
 4278 1fea 5923     		movs	r3, #89
 4279 1fec 0293     		str	r3, [sp, #8]
 4280 1fee 0846     		mov	r0, r1
 4281 1ff0 1146     		mov	r1, r2
 4282 1ff2 0222     		movs	r2, #2
 4283 1ff4 2346     		mov	r3, r4
 4284 1ff6 FFF7FEFF 		bl	write_LCD
 530:.\LCD.c       ****                 write_LCD(lcd,button[45][x],2,x+9,2,0x2110,'Y');   //Nombre de imagen Formas de pag
 4285              		.loc 1 530 0 discriminator 3
 4286 1ffa FB7B     		ldrb	r3, [r7, #15]	@ zero_extendqisi2
 4287 1ffc 104A     		ldr	r2, .L265
 4288 1ffe 1344     		add	r3, r3, r2
 4289 2000 93F86831 		ldrb	r3, [r3, #360]
 4290 2004 DAB2     		uxtb	r2, r3
 4291 2006 FB7B     		ldrb	r3, [r7, #15]	@ zero_extendqisi2
 4292 2008 9BB2     		uxth	r3, r3
 4293 200a 0933     		adds	r3, r3, #9
 4294 200c 9CB2     		uxth	r4, r3
 4295 200e F979     		ldrb	r1, [r7, #7]	@ zero_extendqisi2
 4296 2010 0223     		movs	r3, #2
 4297 2012 0093     		str	r3, [sp]
 4298 2014 42F21013 		movw	r3, #8464
 4299 2018 0193     		str	r3, [sp, #4]
 4300 201a 5923     		movs	r3, #89
 4301 201c 0293     		str	r3, [sp, #8]
 4302 201e 0846     		mov	r0, r1
 4303 2020 1146     		mov	r1, r2
 4304 2022 0222     		movs	r2, #2
 4305 2024 2346     		mov	r3, r4
 4306 2026 FFF7FEFF 		bl	write_LCD
 528:.\LCD.c       ****                 write_LCD(lcd,button[44][x],2,x+1,2,0x2110,'Y');   //Nombre de imagen Formas de pag
 4307              		.loc 1 528 0 discriminator 3
 4308 202a FB7B     		ldrb	r3, [r7, #15]	@ zero_extendqisi2
 4309 202c 0133     		adds	r3, r3, #1
 4310 202e FB73     		strb	r3, [r7, #15]
 4311              	.L199:
 528:.\LCD.c       ****                 write_LCD(lcd,button[44][x],2,x+1,2,0x2110,'Y');   //Nombre de imagen Formas de pag
 4312              		.loc 1 528 0 is_stmt 0 discriminator 1
 4313 2030 FB7B     		ldrb	r3, [r7, #15]	@ zero_extendqisi2
 4314 2032 072B     		cmp	r3, #7
 4315 2034 C9D9     		bls	.L200
 531:.\LCD.c       ****             }
 532:.\LCD.c       ****         break;
 4316              		.loc 1 532 0 is_stmt 1
 4317 2036 01F006B9 		b	.L16
 4318              	.L18:
ARM GAS  C:\Users\PROYEC~1\AppData\Local\Temp\ccMsBWpv.s 			page 89


 533:.\LCD.c       ****             
 534:.\LCD.c       ****         case 1://Nombres a Formas de pago pagina 1
 535:.\LCD.c       ****             for(x=0;x<8;x++){
 4319              		.loc 1 535 0
 4320 203a 0023     		movs	r3, #0
 4321 203c FB73     		strb	r3, [r7, #15]
 4322 203e 94E0     		b	.L201
 4323              	.L266:
 4324              		.align	2
 4325              	.L265:
 4326 2040 00000000 		.word	button
 4327              	.L202:
 536:.\LCD.c       ****                 write_LCD(lcd,button[46][x],9,x+4,1,0xFFFF,'Y');     //Nombre Forma de pago 1
 4328              		.loc 1 536 0 discriminator 3
 4329 2044 FB7B     		ldrb	r3, [r7, #15]	@ zero_extendqisi2
 4330 2046 9B4A     		ldr	r2, .L267
 4331 2048 1344     		add	r3, r3, r2
 4332 204a 93F87031 		ldrb	r3, [r3, #368]
 4333 204e DAB2     		uxtb	r2, r3
 4334 2050 FB7B     		ldrb	r3, [r7, #15]	@ zero_extendqisi2
 4335 2052 9BB2     		uxth	r3, r3
 4336 2054 0433     		adds	r3, r3, #4
 4337 2056 9CB2     		uxth	r4, r3
 4338 2058 F979     		ldrb	r1, [r7, #7]	@ zero_extendqisi2
 4339 205a 0123     		movs	r3, #1
 4340 205c 0093     		str	r3, [sp]
 4341 205e 4FF6FF73 		movw	r3, #65535
 4342 2062 0193     		str	r3, [sp, #4]
 4343 2064 5923     		movs	r3, #89
 4344 2066 0293     		str	r3, [sp, #8]
 4345 2068 0846     		mov	r0, r1
 4346 206a 1146     		mov	r1, r2
 4347 206c 0922     		movs	r2, #9
 4348 206e 2346     		mov	r3, r4
 4349 2070 FFF7FEFF 		bl	write_LCD
 537:.\LCD.c       ****                 write_LCD(lcd,button[47][x],9,x+15,1,0xFFFF,'Y');    //Nombre Forma de pago 2
 4350              		.loc 1 537 0 discriminator 3
 4351 2074 FB7B     		ldrb	r3, [r7, #15]	@ zero_extendqisi2
 4352 2076 8F4A     		ldr	r2, .L267
 4353 2078 1344     		add	r3, r3, r2
 4354 207a 93F87831 		ldrb	r3, [r3, #376]
 4355 207e DAB2     		uxtb	r2, r3
 4356 2080 FB7B     		ldrb	r3, [r7, #15]	@ zero_extendqisi2
 4357 2082 9BB2     		uxth	r3, r3
 4358 2084 0F33     		adds	r3, r3, #15
 4359 2086 9CB2     		uxth	r4, r3
 4360 2088 F979     		ldrb	r1, [r7, #7]	@ zero_extendqisi2
 4361 208a 0123     		movs	r3, #1
 4362 208c 0093     		str	r3, [sp]
 4363 208e 4FF6FF73 		movw	r3, #65535
 4364 2092 0193     		str	r3, [sp, #4]
 4365 2094 5923     		movs	r3, #89
 4366 2096 0293     		str	r3, [sp, #8]
 4367 2098 0846     		mov	r0, r1
 4368 209a 1146     		mov	r1, r2
 4369 209c 0922     		movs	r2, #9
 4370 209e 2346     		mov	r3, r4
ARM GAS  C:\Users\PROYEC~1\AppData\Local\Temp\ccMsBWpv.s 			page 90


 4371 20a0 FFF7FEFF 		bl	write_LCD
 538:.\LCD.c       ****                 write_LCD(lcd,button[48][x],15,x+4,1,0xFFFF,'Y');    //Nombre Forma de pago 3
 4372              		.loc 1 538 0 discriminator 3
 4373 20a4 FB7B     		ldrb	r3, [r7, #15]	@ zero_extendqisi2
 4374 20a6 834A     		ldr	r2, .L267
 4375 20a8 1344     		add	r3, r3, r2
 4376 20aa 93F88031 		ldrb	r3, [r3, #384]
 4377 20ae DAB2     		uxtb	r2, r3
 4378 20b0 FB7B     		ldrb	r3, [r7, #15]	@ zero_extendqisi2
 4379 20b2 9BB2     		uxth	r3, r3
 4380 20b4 0433     		adds	r3, r3, #4
 4381 20b6 9CB2     		uxth	r4, r3
 4382 20b8 F979     		ldrb	r1, [r7, #7]	@ zero_extendqisi2
 4383 20ba 0123     		movs	r3, #1
 4384 20bc 0093     		str	r3, [sp]
 4385 20be 4FF6FF73 		movw	r3, #65535
 4386 20c2 0193     		str	r3, [sp, #4]
 4387 20c4 5923     		movs	r3, #89
 4388 20c6 0293     		str	r3, [sp, #8]
 4389 20c8 0846     		mov	r0, r1
 4390 20ca 1146     		mov	r1, r2
 4391 20cc 0F22     		movs	r2, #15
 4392 20ce 2346     		mov	r3, r4
 4393 20d0 FFF7FEFF 		bl	write_LCD
 539:.\LCD.c       ****                 write_LCD(lcd,button[49][x],15,x+15,1,0xFFFF,'Y');   //Nombre Forma de pago 4
 4394              		.loc 1 539 0 discriminator 3
 4395 20d4 FB7B     		ldrb	r3, [r7, #15]	@ zero_extendqisi2
 4396 20d6 774A     		ldr	r2, .L267
 4397 20d8 1344     		add	r3, r3, r2
 4398 20da 93F88831 		ldrb	r3, [r3, #392]
 4399 20de DAB2     		uxtb	r2, r3
 4400 20e0 FB7B     		ldrb	r3, [r7, #15]	@ zero_extendqisi2
 4401 20e2 9BB2     		uxth	r3, r3
 4402 20e4 0F33     		adds	r3, r3, #15
 4403 20e6 9CB2     		uxth	r4, r3
 4404 20e8 F979     		ldrb	r1, [r7, #7]	@ zero_extendqisi2
 4405 20ea 0123     		movs	r3, #1
 4406 20ec 0093     		str	r3, [sp]
 4407 20ee 4FF6FF73 		movw	r3, #65535
 4408 20f2 0193     		str	r3, [sp, #4]
 4409 20f4 5923     		movs	r3, #89
 4410 20f6 0293     		str	r3, [sp, #8]
 4411 20f8 0846     		mov	r0, r1
 4412 20fa 1146     		mov	r1, r2
 4413 20fc 0F22     		movs	r2, #15
 4414 20fe 2346     		mov	r3, r4
 4415 2100 FFF7FEFF 		bl	write_LCD
 540:.\LCD.c       ****                 write_LCD(lcd,button[50][x],21,x+4,1,0xFFFF,'Y');    //Nombre Forma de pago 5
 4416              		.loc 1 540 0 discriminator 3
 4417 2104 FB7B     		ldrb	r3, [r7, #15]	@ zero_extendqisi2
 4418 2106 6B4A     		ldr	r2, .L267
 4419 2108 1344     		add	r3, r3, r2
 4420 210a 93F89031 		ldrb	r3, [r3, #400]
 4421 210e DAB2     		uxtb	r2, r3
 4422 2110 FB7B     		ldrb	r3, [r7, #15]	@ zero_extendqisi2
 4423 2112 9BB2     		uxth	r3, r3
 4424 2114 0433     		adds	r3, r3, #4
ARM GAS  C:\Users\PROYEC~1\AppData\Local\Temp\ccMsBWpv.s 			page 91


 4425 2116 9CB2     		uxth	r4, r3
 4426 2118 F979     		ldrb	r1, [r7, #7]	@ zero_extendqisi2
 4427 211a 0123     		movs	r3, #1
 4428 211c 0093     		str	r3, [sp]
 4429 211e 4FF6FF73 		movw	r3, #65535
 4430 2122 0193     		str	r3, [sp, #4]
 4431 2124 5923     		movs	r3, #89
 4432 2126 0293     		str	r3, [sp, #8]
 4433 2128 0846     		mov	r0, r1
 4434 212a 1146     		mov	r1, r2
 4435 212c 1522     		movs	r2, #21
 4436 212e 2346     		mov	r3, r4
 4437 2130 FFF7FEFF 		bl	write_LCD
 541:.\LCD.c       ****                 write_LCD(lcd,button[51][x],21,x+15,1,0xFFFF,'Y');   //Nombre Forma de pago 6
 4438              		.loc 1 541 0 discriminator 3
 4439 2134 FB7B     		ldrb	r3, [r7, #15]	@ zero_extendqisi2
 4440 2136 5F4A     		ldr	r2, .L267
 4441 2138 1344     		add	r3, r3, r2
 4442 213a 93F89831 		ldrb	r3, [r3, #408]
 4443 213e DAB2     		uxtb	r2, r3
 4444 2140 FB7B     		ldrb	r3, [r7, #15]	@ zero_extendqisi2
 4445 2142 9BB2     		uxth	r3, r3
 4446 2144 0F33     		adds	r3, r3, #15
 4447 2146 9CB2     		uxth	r4, r3
 4448 2148 F979     		ldrb	r1, [r7, #7]	@ zero_extendqisi2
 4449 214a 0123     		movs	r3, #1
 4450 214c 0093     		str	r3, [sp]
 4451 214e 4FF6FF73 		movw	r3, #65535
 4452 2152 0193     		str	r3, [sp, #4]
 4453 2154 5923     		movs	r3, #89
 4454 2156 0293     		str	r3, [sp, #8]
 4455 2158 0846     		mov	r0, r1
 4456 215a 1146     		mov	r1, r2
 4457 215c 1522     		movs	r2, #21
 4458 215e 2346     		mov	r3, r4
 4459 2160 FFF7FEFF 		bl	write_LCD
 535:.\LCD.c       ****                 write_LCD(lcd,button[46][x],9,x+4,1,0xFFFF,'Y');     //Nombre Forma de pago 1
 4460              		.loc 1 535 0 discriminator 3
 4461 2164 FB7B     		ldrb	r3, [r7, #15]	@ zero_extendqisi2
 4462 2166 0133     		adds	r3, r3, #1
 4463 2168 FB73     		strb	r3, [r7, #15]
 4464              	.L201:
 535:.\LCD.c       ****                 write_LCD(lcd,button[46][x],9,x+4,1,0xFFFF,'Y');     //Nombre Forma de pago 1
 4465              		.loc 1 535 0 is_stmt 0 discriminator 1
 4466 216a FB7B     		ldrb	r3, [r7, #15]	@ zero_extendqisi2
 4467 216c 072B     		cmp	r3, #7
 4468 216e 7FF669AF 		bls	.L202
 542:.\LCD.c       ****             }
 543:.\LCD.c       ****         break;
 4469              		.loc 1 543 0 is_stmt 1
 4470 2172 01F068B8 		b	.L16
 4471              	.L20:
 544:.\LCD.c       ****             
 545:.\LCD.c       ****         case 2://Nombres a Formas de pago pagina 2
 546:.\LCD.c       ****             for(x=0;x<8;x++){
 4472              		.loc 1 546 0
 4473 2176 0023     		movs	r3, #0
ARM GAS  C:\Users\PROYEC~1\AppData\Local\Temp\ccMsBWpv.s 			page 92


 4474 2178 FB73     		strb	r3, [r7, #15]
 4475 217a 92E0     		b	.L203
 4476              	.L204:
 547:.\LCD.c       ****                 write_LCD(lcd,button[52][x],9,x+4,1,0xFFFF,'Y');     //Nombre Forma de pago 7
 4477              		.loc 1 547 0 discriminator 3
 4478 217c FB7B     		ldrb	r3, [r7, #15]	@ zero_extendqisi2
 4479 217e 4D4A     		ldr	r2, .L267
 4480 2180 1344     		add	r3, r3, r2
 4481 2182 93F8A031 		ldrb	r3, [r3, #416]
 4482 2186 DAB2     		uxtb	r2, r3
 4483 2188 FB7B     		ldrb	r3, [r7, #15]	@ zero_extendqisi2
 4484 218a 9BB2     		uxth	r3, r3
 4485 218c 0433     		adds	r3, r3, #4
 4486 218e 9CB2     		uxth	r4, r3
 4487 2190 F979     		ldrb	r1, [r7, #7]	@ zero_extendqisi2
 4488 2192 0123     		movs	r3, #1
 4489 2194 0093     		str	r3, [sp]
 4490 2196 4FF6FF73 		movw	r3, #65535
 4491 219a 0193     		str	r3, [sp, #4]
 4492 219c 5923     		movs	r3, #89
 4493 219e 0293     		str	r3, [sp, #8]
 4494 21a0 0846     		mov	r0, r1
 4495 21a2 1146     		mov	r1, r2
 4496 21a4 0922     		movs	r2, #9
 4497 21a6 2346     		mov	r3, r4
 4498 21a8 FFF7FEFF 		bl	write_LCD
 548:.\LCD.c       ****                 write_LCD(lcd,button[53][x],9,x+15,1,0xFFFF,'Y');    //Nombre Forma de pago 8
 4499              		.loc 1 548 0 discriminator 3
 4500 21ac FB7B     		ldrb	r3, [r7, #15]	@ zero_extendqisi2
 4501 21ae 414A     		ldr	r2, .L267
 4502 21b0 1344     		add	r3, r3, r2
 4503 21b2 93F8A831 		ldrb	r3, [r3, #424]
 4504 21b6 DAB2     		uxtb	r2, r3
 4505 21b8 FB7B     		ldrb	r3, [r7, #15]	@ zero_extendqisi2
 4506 21ba 9BB2     		uxth	r3, r3
 4507 21bc 0F33     		adds	r3, r3, #15
 4508 21be 9CB2     		uxth	r4, r3
 4509 21c0 F979     		ldrb	r1, [r7, #7]	@ zero_extendqisi2
 4510 21c2 0123     		movs	r3, #1
 4511 21c4 0093     		str	r3, [sp]
 4512 21c6 4FF6FF73 		movw	r3, #65535
 4513 21ca 0193     		str	r3, [sp, #4]
 4514 21cc 5923     		movs	r3, #89
 4515 21ce 0293     		str	r3, [sp, #8]
 4516 21d0 0846     		mov	r0, r1
 4517 21d2 1146     		mov	r1, r2
 4518 21d4 0922     		movs	r2, #9
 4519 21d6 2346     		mov	r3, r4
 4520 21d8 FFF7FEFF 		bl	write_LCD
 549:.\LCD.c       ****                 write_LCD(lcd,button[54][x],15,x+4,1,0xFFFF,'Y');    //Nombre Forma de pago 9
 4521              		.loc 1 549 0 discriminator 3
 4522 21dc FB7B     		ldrb	r3, [r7, #15]	@ zero_extendqisi2
 4523 21de 354A     		ldr	r2, .L267
 4524 21e0 1344     		add	r3, r3, r2
 4525 21e2 93F8B031 		ldrb	r3, [r3, #432]
 4526 21e6 DAB2     		uxtb	r2, r3
 4527 21e8 FB7B     		ldrb	r3, [r7, #15]	@ zero_extendqisi2
ARM GAS  C:\Users\PROYEC~1\AppData\Local\Temp\ccMsBWpv.s 			page 93


 4528 21ea 9BB2     		uxth	r3, r3
 4529 21ec 0433     		adds	r3, r3, #4
 4530 21ee 9CB2     		uxth	r4, r3
 4531 21f0 F979     		ldrb	r1, [r7, #7]	@ zero_extendqisi2
 4532 21f2 0123     		movs	r3, #1
 4533 21f4 0093     		str	r3, [sp]
 4534 21f6 4FF6FF73 		movw	r3, #65535
 4535 21fa 0193     		str	r3, [sp, #4]
 4536 21fc 5923     		movs	r3, #89
 4537 21fe 0293     		str	r3, [sp, #8]
 4538 2200 0846     		mov	r0, r1
 4539 2202 1146     		mov	r1, r2
 4540 2204 0F22     		movs	r2, #15
 4541 2206 2346     		mov	r3, r4
 4542 2208 FFF7FEFF 		bl	write_LCD
 550:.\LCD.c       ****                 write_LCD(lcd,button[55][x],15,x+15,1,0xFFFF,'Y');   //Nombre Forma de pago 10
 4543              		.loc 1 550 0 discriminator 3
 4544 220c FB7B     		ldrb	r3, [r7, #15]	@ zero_extendqisi2
 4545 220e 294A     		ldr	r2, .L267
 4546 2210 1344     		add	r3, r3, r2
 4547 2212 93F8B831 		ldrb	r3, [r3, #440]
 4548 2216 DAB2     		uxtb	r2, r3
 4549 2218 FB7B     		ldrb	r3, [r7, #15]	@ zero_extendqisi2
 4550 221a 9BB2     		uxth	r3, r3
 4551 221c 0F33     		adds	r3, r3, #15
 4552 221e 9CB2     		uxth	r4, r3
 4553 2220 F979     		ldrb	r1, [r7, #7]	@ zero_extendqisi2
 4554 2222 0123     		movs	r3, #1
 4555 2224 0093     		str	r3, [sp]
 4556 2226 4FF6FF73 		movw	r3, #65535
 4557 222a 0193     		str	r3, [sp, #4]
 4558 222c 5923     		movs	r3, #89
 4559 222e 0293     		str	r3, [sp, #8]
 4560 2230 0846     		mov	r0, r1
 4561 2232 1146     		mov	r1, r2
 4562 2234 0F22     		movs	r2, #15
 4563 2236 2346     		mov	r3, r4
 4564 2238 FFF7FEFF 		bl	write_LCD
 551:.\LCD.c       ****                 write_LCD(lcd,button[56][x],21,x+4,1,0xFFFF,'Y');    //Nombre Forma de pago 11
 4565              		.loc 1 551 0 discriminator 3
 4566 223c FB7B     		ldrb	r3, [r7, #15]	@ zero_extendqisi2
 4567 223e 1D4A     		ldr	r2, .L267
 4568 2240 1344     		add	r3, r3, r2
 4569 2242 93F8C031 		ldrb	r3, [r3, #448]
 4570 2246 DAB2     		uxtb	r2, r3
 4571 2248 FB7B     		ldrb	r3, [r7, #15]	@ zero_extendqisi2
 4572 224a 9BB2     		uxth	r3, r3
 4573 224c 0433     		adds	r3, r3, #4
 4574 224e 9CB2     		uxth	r4, r3
 4575 2250 F979     		ldrb	r1, [r7, #7]	@ zero_extendqisi2
 4576 2252 0123     		movs	r3, #1
 4577 2254 0093     		str	r3, [sp]
 4578 2256 4FF6FF73 		movw	r3, #65535
 4579 225a 0193     		str	r3, [sp, #4]
 4580 225c 5923     		movs	r3, #89
 4581 225e 0293     		str	r3, [sp, #8]
 4582 2260 0846     		mov	r0, r1
ARM GAS  C:\Users\PROYEC~1\AppData\Local\Temp\ccMsBWpv.s 			page 94


 4583 2262 1146     		mov	r1, r2
 4584 2264 1522     		movs	r2, #21
 4585 2266 2346     		mov	r3, r4
 4586 2268 FFF7FEFF 		bl	write_LCD
 552:.\LCD.c       ****                 write_LCD(lcd,button[57][x],21,x+15,1,0xFFFF,'Y');   //Nombre Forma de pago 12
 4587              		.loc 1 552 0 discriminator 3
 4588 226c FB7B     		ldrb	r3, [r7, #15]	@ zero_extendqisi2
 4589 226e 114A     		ldr	r2, .L267
 4590 2270 1344     		add	r3, r3, r2
 4591 2272 93F8C831 		ldrb	r3, [r3, #456]
 4592 2276 DAB2     		uxtb	r2, r3
 4593 2278 FB7B     		ldrb	r3, [r7, #15]	@ zero_extendqisi2
 4594 227a 9BB2     		uxth	r3, r3
 4595 227c 0F33     		adds	r3, r3, #15
 4596 227e 9CB2     		uxth	r4, r3
 4597 2280 F979     		ldrb	r1, [r7, #7]	@ zero_extendqisi2
 4598 2282 0123     		movs	r3, #1
 4599 2284 0093     		str	r3, [sp]
 4600 2286 4FF6FF73 		movw	r3, #65535
 4601 228a 0193     		str	r3, [sp, #4]
 4602 228c 5923     		movs	r3, #89
 4603 228e 0293     		str	r3, [sp, #8]
 4604 2290 0846     		mov	r0, r1
 4605 2292 1146     		mov	r1, r2
 4606 2294 1522     		movs	r2, #21
 4607 2296 2346     		mov	r3, r4
 4608 2298 FFF7FEFF 		bl	write_LCD
 546:.\LCD.c       ****                 write_LCD(lcd,button[52][x],9,x+4,1,0xFFFF,'Y');     //Nombre Forma de pago 7
 4609              		.loc 1 546 0 discriminator 3
 4610 229c FB7B     		ldrb	r3, [r7, #15]	@ zero_extendqisi2
 4611 229e 0133     		adds	r3, r3, #1
 4612 22a0 FB73     		strb	r3, [r7, #15]
 4613              	.L203:
 546:.\LCD.c       ****                 write_LCD(lcd,button[52][x],9,x+4,1,0xFFFF,'Y');     //Nombre Forma de pago 7
 4614              		.loc 1 546 0 is_stmt 0 discriminator 1
 4615 22a2 FB7B     		ldrb	r3, [r7, #15]	@ zero_extendqisi2
 4616 22a4 072B     		cmp	r3, #7
 4617 22a6 7FF669AF 		bls	.L204
 553:.\LCD.c       ****             }
 554:.\LCD.c       ****         break;
 4618              		.loc 1 554 0 is_stmt 1
 4619 22aa 00F0CCBF 		b	.L16
 4620              	.L21:
 555:.\LCD.c       ****             
 556:.\LCD.c       ****         case 3://Nombres a Formas de pago pagina 3
 557:.\LCD.c       ****             for(x=0;x<8;x++){
 4621              		.loc 1 557 0
 4622 22ae 0023     		movs	r3, #0
 4623 22b0 FB73     		strb	r3, [r7, #15]
 4624 22b2 94E0     		b	.L205
 4625              	.L268:
 4626              		.align	2
 4627              	.L267:
 4628 22b4 00000000 		.word	button
 4629              	.L206:
 558:.\LCD.c       ****                 write_LCD(lcd,button[58][x],9,x+4,1,0xFFFF,'Y');     //Nombre Forma de pago 13
 4630              		.loc 1 558 0 discriminator 3
ARM GAS  C:\Users\PROYEC~1\AppData\Local\Temp\ccMsBWpv.s 			page 95


 4631 22b8 FB7B     		ldrb	r3, [r7, #15]	@ zero_extendqisi2
 4632 22ba 9B4A     		ldr	r2, .L269
 4633 22bc 1344     		add	r3, r3, r2
 4634 22be 93F8D031 		ldrb	r3, [r3, #464]
 4635 22c2 DAB2     		uxtb	r2, r3
 4636 22c4 FB7B     		ldrb	r3, [r7, #15]	@ zero_extendqisi2
 4637 22c6 9BB2     		uxth	r3, r3
 4638 22c8 0433     		adds	r3, r3, #4
 4639 22ca 9CB2     		uxth	r4, r3
 4640 22cc F979     		ldrb	r1, [r7, #7]	@ zero_extendqisi2
 4641 22ce 0123     		movs	r3, #1
 4642 22d0 0093     		str	r3, [sp]
 4643 22d2 4FF6FF73 		movw	r3, #65535
 4644 22d6 0193     		str	r3, [sp, #4]
 4645 22d8 5923     		movs	r3, #89
 4646 22da 0293     		str	r3, [sp, #8]
 4647 22dc 0846     		mov	r0, r1
 4648 22de 1146     		mov	r1, r2
 4649 22e0 0922     		movs	r2, #9
 4650 22e2 2346     		mov	r3, r4
 4651 22e4 FFF7FEFF 		bl	write_LCD
 559:.\LCD.c       ****                 write_LCD(lcd,button[59][x],9,x+15,1,0xFFFF,'Y');    //Nombre Forma de pago 14
 4652              		.loc 1 559 0 discriminator 3
 4653 22e8 FB7B     		ldrb	r3, [r7, #15]	@ zero_extendqisi2
 4654 22ea 8F4A     		ldr	r2, .L269
 4655 22ec 1344     		add	r3, r3, r2
 4656 22ee 93F8D831 		ldrb	r3, [r3, #472]
 4657 22f2 DAB2     		uxtb	r2, r3
 4658 22f4 FB7B     		ldrb	r3, [r7, #15]	@ zero_extendqisi2
 4659 22f6 9BB2     		uxth	r3, r3
 4660 22f8 0F33     		adds	r3, r3, #15
 4661 22fa 9CB2     		uxth	r4, r3
 4662 22fc F979     		ldrb	r1, [r7, #7]	@ zero_extendqisi2
 4663 22fe 0123     		movs	r3, #1
 4664 2300 0093     		str	r3, [sp]
 4665 2302 4FF6FF73 		movw	r3, #65535
 4666 2306 0193     		str	r3, [sp, #4]
 4667 2308 5923     		movs	r3, #89
 4668 230a 0293     		str	r3, [sp, #8]
 4669 230c 0846     		mov	r0, r1
 4670 230e 1146     		mov	r1, r2
 4671 2310 0922     		movs	r2, #9
 4672 2312 2346     		mov	r3, r4
 4673 2314 FFF7FEFF 		bl	write_LCD
 560:.\LCD.c       ****                 write_LCD(lcd,button[60][x],15,x+4,1,0xFFFF,'Y');    //Nombre Forma de pago 15
 4674              		.loc 1 560 0 discriminator 3
 4675 2318 FB7B     		ldrb	r3, [r7, #15]	@ zero_extendqisi2
 4676 231a 834A     		ldr	r2, .L269
 4677 231c 1344     		add	r3, r3, r2
 4678 231e 93F8E031 		ldrb	r3, [r3, #480]
 4679 2322 DAB2     		uxtb	r2, r3
 4680 2324 FB7B     		ldrb	r3, [r7, #15]	@ zero_extendqisi2
 4681 2326 9BB2     		uxth	r3, r3
 4682 2328 0433     		adds	r3, r3, #4
 4683 232a 9CB2     		uxth	r4, r3
 4684 232c F979     		ldrb	r1, [r7, #7]	@ zero_extendqisi2
 4685 232e 0123     		movs	r3, #1
ARM GAS  C:\Users\PROYEC~1\AppData\Local\Temp\ccMsBWpv.s 			page 96


 4686 2330 0093     		str	r3, [sp]
 4687 2332 4FF6FF73 		movw	r3, #65535
 4688 2336 0193     		str	r3, [sp, #4]
 4689 2338 5923     		movs	r3, #89
 4690 233a 0293     		str	r3, [sp, #8]
 4691 233c 0846     		mov	r0, r1
 4692 233e 1146     		mov	r1, r2
 4693 2340 0F22     		movs	r2, #15
 4694 2342 2346     		mov	r3, r4
 4695 2344 FFF7FEFF 		bl	write_LCD
 561:.\LCD.c       ****                 write_LCD(lcd,button[61][x],15,x+15,1,0xFFFF,'Y');   //Nombre Forma de pago 16
 4696              		.loc 1 561 0 discriminator 3
 4697 2348 FB7B     		ldrb	r3, [r7, #15]	@ zero_extendqisi2
 4698 234a 774A     		ldr	r2, .L269
 4699 234c 1344     		add	r3, r3, r2
 4700 234e 93F8E831 		ldrb	r3, [r3, #488]
 4701 2352 DAB2     		uxtb	r2, r3
 4702 2354 FB7B     		ldrb	r3, [r7, #15]	@ zero_extendqisi2
 4703 2356 9BB2     		uxth	r3, r3
 4704 2358 0F33     		adds	r3, r3, #15
 4705 235a 9CB2     		uxth	r4, r3
 4706 235c F979     		ldrb	r1, [r7, #7]	@ zero_extendqisi2
 4707 235e 0123     		movs	r3, #1
 4708 2360 0093     		str	r3, [sp]
 4709 2362 4FF6FF73 		movw	r3, #65535
 4710 2366 0193     		str	r3, [sp, #4]
 4711 2368 5923     		movs	r3, #89
 4712 236a 0293     		str	r3, [sp, #8]
 4713 236c 0846     		mov	r0, r1
 4714 236e 1146     		mov	r1, r2
 4715 2370 0F22     		movs	r2, #15
 4716 2372 2346     		mov	r3, r4
 4717 2374 FFF7FEFF 		bl	write_LCD
 562:.\LCD.c       ****                 write_LCD(lcd,button[62][x],21,x+4,1,0xFFFF,'Y');    //Nombre Forma de pago 17
 4718              		.loc 1 562 0 discriminator 3
 4719 2378 FB7B     		ldrb	r3, [r7, #15]	@ zero_extendqisi2
 4720 237a 6B4A     		ldr	r2, .L269
 4721 237c 1344     		add	r3, r3, r2
 4722 237e 93F8F031 		ldrb	r3, [r3, #496]
 4723 2382 DAB2     		uxtb	r2, r3
 4724 2384 FB7B     		ldrb	r3, [r7, #15]	@ zero_extendqisi2
 4725 2386 9BB2     		uxth	r3, r3
 4726 2388 0433     		adds	r3, r3, #4
 4727 238a 9CB2     		uxth	r4, r3
 4728 238c F979     		ldrb	r1, [r7, #7]	@ zero_extendqisi2
 4729 238e 0123     		movs	r3, #1
 4730 2390 0093     		str	r3, [sp]
 4731 2392 4FF6FF73 		movw	r3, #65535
 4732 2396 0193     		str	r3, [sp, #4]
 4733 2398 5923     		movs	r3, #89
 4734 239a 0293     		str	r3, [sp, #8]
 4735 239c 0846     		mov	r0, r1
 4736 239e 1146     		mov	r1, r2
 4737 23a0 1522     		movs	r2, #21
 4738 23a2 2346     		mov	r3, r4
 4739 23a4 FFF7FEFF 		bl	write_LCD
 563:.\LCD.c       ****                 write_LCD(lcd,button[63][x],21,x+15,1,0xFFFF,'Y');   //Nombre Forma de pago 18
ARM GAS  C:\Users\PROYEC~1\AppData\Local\Temp\ccMsBWpv.s 			page 97


 4740              		.loc 1 563 0 discriminator 3
 4741 23a8 FB7B     		ldrb	r3, [r7, #15]	@ zero_extendqisi2
 4742 23aa 5F4A     		ldr	r2, .L269
 4743 23ac 1344     		add	r3, r3, r2
 4744 23ae 93F8F831 		ldrb	r3, [r3, #504]
 4745 23b2 DAB2     		uxtb	r2, r3
 4746 23b4 FB7B     		ldrb	r3, [r7, #15]	@ zero_extendqisi2
 4747 23b6 9BB2     		uxth	r3, r3
 4748 23b8 0F33     		adds	r3, r3, #15
 4749 23ba 9CB2     		uxth	r4, r3
 4750 23bc F979     		ldrb	r1, [r7, #7]	@ zero_extendqisi2
 4751 23be 0123     		movs	r3, #1
 4752 23c0 0093     		str	r3, [sp]
 4753 23c2 4FF6FF73 		movw	r3, #65535
 4754 23c6 0193     		str	r3, [sp, #4]
 4755 23c8 5923     		movs	r3, #89
 4756 23ca 0293     		str	r3, [sp, #8]
 4757 23cc 0846     		mov	r0, r1
 4758 23ce 1146     		mov	r1, r2
 4759 23d0 1522     		movs	r2, #21
 4760 23d2 2346     		mov	r3, r4
 4761 23d4 FFF7FEFF 		bl	write_LCD
 557:.\LCD.c       ****                 write_LCD(lcd,button[58][x],9,x+4,1,0xFFFF,'Y');     //Nombre Forma de pago 13
 4762              		.loc 1 557 0 discriminator 3
 4763 23d8 FB7B     		ldrb	r3, [r7, #15]	@ zero_extendqisi2
 4764 23da 0133     		adds	r3, r3, #1
 4765 23dc FB73     		strb	r3, [r7, #15]
 4766              	.L205:
 557:.\LCD.c       ****                 write_LCD(lcd,button[58][x],9,x+4,1,0xFFFF,'Y');     //Nombre Forma de pago 13
 4767              		.loc 1 557 0 is_stmt 0 discriminator 1
 4768 23de FB7B     		ldrb	r3, [r7, #15]	@ zero_extendqisi2
 4769 23e0 072B     		cmp	r3, #7
 4770 23e2 7FF669AF 		bls	.L206
 564:.\LCD.c       ****             }
 565:.\LCD.c       ****         break;
 4771              		.loc 1 565 0 is_stmt 1
 4772 23e6 00F02EBF 		b	.L16
 4773              	.L22:
 566:.\LCD.c       ****             
 567:.\LCD.c       ****         case 4://Nombres a Formas de pago pagina 4
 568:.\LCD.c       ****             for(x=0;x<8;x++){
 4774              		.loc 1 568 0
 4775 23ea 0023     		movs	r3, #0
 4776 23ec FB73     		strb	r3, [r7, #15]
 4777 23ee 92E0     		b	.L207
 4778              	.L208:
 569:.\LCD.c       ****                 write_LCD(lcd,button[64][x],9,x+4,1,0xFFFF,'Y');     //Nombre Forma de pago 19
 4779              		.loc 1 569 0 discriminator 3
 4780 23f0 FB7B     		ldrb	r3, [r7, #15]	@ zero_extendqisi2
 4781 23f2 4D4A     		ldr	r2, .L269
 4782 23f4 1344     		add	r3, r3, r2
 4783 23f6 93F80032 		ldrb	r3, [r3, #512]
 4784 23fa DAB2     		uxtb	r2, r3
 4785 23fc FB7B     		ldrb	r3, [r7, #15]	@ zero_extendqisi2
 4786 23fe 9BB2     		uxth	r3, r3
 4787 2400 0433     		adds	r3, r3, #4
 4788 2402 9CB2     		uxth	r4, r3
ARM GAS  C:\Users\PROYEC~1\AppData\Local\Temp\ccMsBWpv.s 			page 98


 4789 2404 F979     		ldrb	r1, [r7, #7]	@ zero_extendqisi2
 4790 2406 0123     		movs	r3, #1
 4791 2408 0093     		str	r3, [sp]
 4792 240a 4FF6FF73 		movw	r3, #65535
 4793 240e 0193     		str	r3, [sp, #4]
 4794 2410 5923     		movs	r3, #89
 4795 2412 0293     		str	r3, [sp, #8]
 4796 2414 0846     		mov	r0, r1
 4797 2416 1146     		mov	r1, r2
 4798 2418 0922     		movs	r2, #9
 4799 241a 2346     		mov	r3, r4
 4800 241c FFF7FEFF 		bl	write_LCD
 570:.\LCD.c       ****                 write_LCD(lcd,button[65][x],9,x+15,1,0xFFFF,'Y');    //Nombre Forma de pago 20
 4801              		.loc 1 570 0 discriminator 3
 4802 2420 FB7B     		ldrb	r3, [r7, #15]	@ zero_extendqisi2
 4803 2422 414A     		ldr	r2, .L269
 4804 2424 1344     		add	r3, r3, r2
 4805 2426 93F80832 		ldrb	r3, [r3, #520]
 4806 242a DAB2     		uxtb	r2, r3
 4807 242c FB7B     		ldrb	r3, [r7, #15]	@ zero_extendqisi2
 4808 242e 9BB2     		uxth	r3, r3
 4809 2430 0F33     		adds	r3, r3, #15
 4810 2432 9CB2     		uxth	r4, r3
 4811 2434 F979     		ldrb	r1, [r7, #7]	@ zero_extendqisi2
 4812 2436 0123     		movs	r3, #1
 4813 2438 0093     		str	r3, [sp]
 4814 243a 4FF6FF73 		movw	r3, #65535
 4815 243e 0193     		str	r3, [sp, #4]
 4816 2440 5923     		movs	r3, #89
 4817 2442 0293     		str	r3, [sp, #8]
 4818 2444 0846     		mov	r0, r1
 4819 2446 1146     		mov	r1, r2
 4820 2448 0922     		movs	r2, #9
 4821 244a 2346     		mov	r3, r4
 4822 244c FFF7FEFF 		bl	write_LCD
 571:.\LCD.c       ****                 write_LCD(lcd,button[66][x],15,x+4,1,0xFFFF,'Y');    //Nombre Forma de pago 21
 4823              		.loc 1 571 0 discriminator 3
 4824 2450 FB7B     		ldrb	r3, [r7, #15]	@ zero_extendqisi2
 4825 2452 354A     		ldr	r2, .L269
 4826 2454 1344     		add	r3, r3, r2
 4827 2456 93F81032 		ldrb	r3, [r3, #528]
 4828 245a DAB2     		uxtb	r2, r3
 4829 245c FB7B     		ldrb	r3, [r7, #15]	@ zero_extendqisi2
 4830 245e 9BB2     		uxth	r3, r3
 4831 2460 0433     		adds	r3, r3, #4
 4832 2462 9CB2     		uxth	r4, r3
 4833 2464 F979     		ldrb	r1, [r7, #7]	@ zero_extendqisi2
 4834 2466 0123     		movs	r3, #1
 4835 2468 0093     		str	r3, [sp]
 4836 246a 4FF6FF73 		movw	r3, #65535
 4837 246e 0193     		str	r3, [sp, #4]
 4838 2470 5923     		movs	r3, #89
 4839 2472 0293     		str	r3, [sp, #8]
 4840 2474 0846     		mov	r0, r1
 4841 2476 1146     		mov	r1, r2
 4842 2478 0F22     		movs	r2, #15
 4843 247a 2346     		mov	r3, r4
ARM GAS  C:\Users\PROYEC~1\AppData\Local\Temp\ccMsBWpv.s 			page 99


 4844 247c FFF7FEFF 		bl	write_LCD
 572:.\LCD.c       ****                 write_LCD(lcd,button[67][x],15,x+15,1,0xFFFF,'Y');   //Nombre Forma de pago 22
 4845              		.loc 1 572 0 discriminator 3
 4846 2480 FB7B     		ldrb	r3, [r7, #15]	@ zero_extendqisi2
 4847 2482 294A     		ldr	r2, .L269
 4848 2484 1344     		add	r3, r3, r2
 4849 2486 93F81832 		ldrb	r3, [r3, #536]
 4850 248a DAB2     		uxtb	r2, r3
 4851 248c FB7B     		ldrb	r3, [r7, #15]	@ zero_extendqisi2
 4852 248e 9BB2     		uxth	r3, r3
 4853 2490 0F33     		adds	r3, r3, #15
 4854 2492 9CB2     		uxth	r4, r3
 4855 2494 F979     		ldrb	r1, [r7, #7]	@ zero_extendqisi2
 4856 2496 0123     		movs	r3, #1
 4857 2498 0093     		str	r3, [sp]
 4858 249a 4FF6FF73 		movw	r3, #65535
 4859 249e 0193     		str	r3, [sp, #4]
 4860 24a0 5923     		movs	r3, #89
 4861 24a2 0293     		str	r3, [sp, #8]
 4862 24a4 0846     		mov	r0, r1
 4863 24a6 1146     		mov	r1, r2
 4864 24a8 0F22     		movs	r2, #15
 4865 24aa 2346     		mov	r3, r4
 4866 24ac FFF7FEFF 		bl	write_LCD
 573:.\LCD.c       ****                 write_LCD(lcd,button[68][x],21,x+4,1,0xFFFF,'Y');    //Nombre Forma de pago 23
 4867              		.loc 1 573 0 discriminator 3
 4868 24b0 FB7B     		ldrb	r3, [r7, #15]	@ zero_extendqisi2
 4869 24b2 1D4A     		ldr	r2, .L269
 4870 24b4 1344     		add	r3, r3, r2
 4871 24b6 93F82032 		ldrb	r3, [r3, #544]
 4872 24ba DAB2     		uxtb	r2, r3
 4873 24bc FB7B     		ldrb	r3, [r7, #15]	@ zero_extendqisi2
 4874 24be 9BB2     		uxth	r3, r3
 4875 24c0 0433     		adds	r3, r3, #4
 4876 24c2 9CB2     		uxth	r4, r3
 4877 24c4 F979     		ldrb	r1, [r7, #7]	@ zero_extendqisi2
 4878 24c6 0123     		movs	r3, #1
 4879 24c8 0093     		str	r3, [sp]
 4880 24ca 4FF6FF73 		movw	r3, #65535
 4881 24ce 0193     		str	r3, [sp, #4]
 4882 24d0 5923     		movs	r3, #89
 4883 24d2 0293     		str	r3, [sp, #8]
 4884 24d4 0846     		mov	r0, r1
 4885 24d6 1146     		mov	r1, r2
 4886 24d8 1522     		movs	r2, #21
 4887 24da 2346     		mov	r3, r4
 4888 24dc FFF7FEFF 		bl	write_LCD
 574:.\LCD.c       ****                 write_LCD(lcd,button[69][x],21,x+15,1,0xFFFF,'Y');   //Nombre Forma de pago 24
 4889              		.loc 1 574 0 discriminator 3
 4890 24e0 FB7B     		ldrb	r3, [r7, #15]	@ zero_extendqisi2
 4891 24e2 114A     		ldr	r2, .L269
 4892 24e4 1344     		add	r3, r3, r2
 4893 24e6 93F82832 		ldrb	r3, [r3, #552]
 4894 24ea DAB2     		uxtb	r2, r3
 4895 24ec FB7B     		ldrb	r3, [r7, #15]	@ zero_extendqisi2
 4896 24ee 9BB2     		uxth	r3, r3
 4897 24f0 0F33     		adds	r3, r3, #15
ARM GAS  C:\Users\PROYEC~1\AppData\Local\Temp\ccMsBWpv.s 			page 100


 4898 24f2 9CB2     		uxth	r4, r3
 4899 24f4 F979     		ldrb	r1, [r7, #7]	@ zero_extendqisi2
 4900 24f6 0123     		movs	r3, #1
 4901 24f8 0093     		str	r3, [sp]
 4902 24fa 4FF6FF73 		movw	r3, #65535
 4903 24fe 0193     		str	r3, [sp, #4]
 4904 2500 5923     		movs	r3, #89
 4905 2502 0293     		str	r3, [sp, #8]
 4906 2504 0846     		mov	r0, r1
 4907 2506 1146     		mov	r1, r2
 4908 2508 1522     		movs	r2, #21
 4909 250a 2346     		mov	r3, r4
 4910 250c FFF7FEFF 		bl	write_LCD
 568:.\LCD.c       ****                 write_LCD(lcd,button[64][x],9,x+4,1,0xFFFF,'Y');     //Nombre Forma de pago 19
 4911              		.loc 1 568 0 discriminator 3
 4912 2510 FB7B     		ldrb	r3, [r7, #15]	@ zero_extendqisi2
 4913 2512 0133     		adds	r3, r3, #1
 4914 2514 FB73     		strb	r3, [r7, #15]
 4915              	.L207:
 568:.\LCD.c       ****                 write_LCD(lcd,button[64][x],9,x+4,1,0xFFFF,'Y');     //Nombre Forma de pago 19
 4916              		.loc 1 568 0 is_stmt 0 discriminator 1
 4917 2516 FB7B     		ldrb	r3, [r7, #15]	@ zero_extendqisi2
 4918 2518 072B     		cmp	r3, #7
 4919 251a 7FF669AF 		bls	.L208
 575:.\LCD.c       ****             }
 576:.\LCD.c       ****         break;  
 4920              		.loc 1 576 0 is_stmt 1
 4921 251e 00F092BE 		b	.L16
 4922              	.L47:
 577:.\LCD.c       ****             
 578:.\LCD.c       ****         case 'V'://Tipo de vehiculo
 579:.\LCD.c       ****             for(x=0;x<8;x++){
 4923              		.loc 1 579 0
 4924 2522 0023     		movs	r3, #0
 4925 2524 FB73     		strb	r3, [r7, #15]
 4926 2526 C4E0     		b	.L209
 4927              	.L270:
 4928              		.align	2
 4929              	.L269:
 4930 2528 00000000 		.word	button
 4931              	.L210:
 580:.\LCD.c       ****                 write_LCD(lcd,button[72][x],2,x+1,2,0x2110,'Y');   //Nombre de imagen Tipo de vehic
 4932              		.loc 1 580 0 discriminator 3
 4933 252c FB7B     		ldrb	r3, [r7, #15]	@ zero_extendqisi2
 4934 252e AC4A     		ldr	r2, .L271
 4935 2530 1344     		add	r3, r3, r2
 4936 2532 93F84032 		ldrb	r3, [r3, #576]
 4937 2536 DAB2     		uxtb	r2, r3
 4938 2538 FB7B     		ldrb	r3, [r7, #15]	@ zero_extendqisi2
 4939 253a 9BB2     		uxth	r3, r3
 4940 253c 0133     		adds	r3, r3, #1
 4941 253e 9CB2     		uxth	r4, r3
 4942 2540 F979     		ldrb	r1, [r7, #7]	@ zero_extendqisi2
 4943 2542 0223     		movs	r3, #2
 4944 2544 0093     		str	r3, [sp]
 4945 2546 42F21013 		movw	r3, #8464
 4946 254a 0193     		str	r3, [sp, #4]
ARM GAS  C:\Users\PROYEC~1\AppData\Local\Temp\ccMsBWpv.s 			page 101


 4947 254c 5923     		movs	r3, #89
 4948 254e 0293     		str	r3, [sp, #8]
 4949 2550 0846     		mov	r0, r1
 4950 2552 1146     		mov	r1, r2
 4951 2554 0222     		movs	r2, #2
 4952 2556 2346     		mov	r3, r4
 4953 2558 FFF7FEFF 		bl	write_LCD
 581:.\LCD.c       ****                 write_LCD(lcd,button[73][x],2,x+9,2,0x2110,'Y');   //Nombre de imagen Tipo de vehic
 4954              		.loc 1 581 0 discriminator 3
 4955 255c FB7B     		ldrb	r3, [r7, #15]	@ zero_extendqisi2
 4956 255e A04A     		ldr	r2, .L271
 4957 2560 1344     		add	r3, r3, r2
 4958 2562 93F84832 		ldrb	r3, [r3, #584]
 4959 2566 DAB2     		uxtb	r2, r3
 4960 2568 FB7B     		ldrb	r3, [r7, #15]	@ zero_extendqisi2
 4961 256a 9BB2     		uxth	r3, r3
 4962 256c 0933     		adds	r3, r3, #9
 4963 256e 9CB2     		uxth	r4, r3
 4964 2570 F979     		ldrb	r1, [r7, #7]	@ zero_extendqisi2
 4965 2572 0223     		movs	r3, #2
 4966 2574 0093     		str	r3, [sp]
 4967 2576 42F21013 		movw	r3, #8464
 4968 257a 0193     		str	r3, [sp, #4]
 4969 257c 5923     		movs	r3, #89
 4970 257e 0293     		str	r3, [sp, #8]
 4971 2580 0846     		mov	r0, r1
 4972 2582 1146     		mov	r1, r2
 4973 2584 0222     		movs	r2, #2
 4974 2586 2346     		mov	r3, r4
 4975 2588 FFF7FEFF 		bl	write_LCD
 582:.\LCD.c       ****                 write_LCD(lcd,button[74][x],9,x+4,1,0xFFFF,'Y');     //Nombre Tipo de vehiculo 1
 4976              		.loc 1 582 0 discriminator 3
 4977 258c FB7B     		ldrb	r3, [r7, #15]	@ zero_extendqisi2
 4978 258e 944A     		ldr	r2, .L271
 4979 2590 1344     		add	r3, r3, r2
 4980 2592 93F85032 		ldrb	r3, [r3, #592]
 4981 2596 DAB2     		uxtb	r2, r3
 4982 2598 FB7B     		ldrb	r3, [r7, #15]	@ zero_extendqisi2
 4983 259a 9BB2     		uxth	r3, r3
 4984 259c 0433     		adds	r3, r3, #4
 4985 259e 9CB2     		uxth	r4, r3
 4986 25a0 F979     		ldrb	r1, [r7, #7]	@ zero_extendqisi2
 4987 25a2 0123     		movs	r3, #1
 4988 25a4 0093     		str	r3, [sp]
 4989 25a6 4FF6FF73 		movw	r3, #65535
 4990 25aa 0193     		str	r3, [sp, #4]
 4991 25ac 5923     		movs	r3, #89
 4992 25ae 0293     		str	r3, [sp, #8]
 4993 25b0 0846     		mov	r0, r1
 4994 25b2 1146     		mov	r1, r2
 4995 25b4 0922     		movs	r2, #9
 4996 25b6 2346     		mov	r3, r4
 4997 25b8 FFF7FEFF 		bl	write_LCD
 583:.\LCD.c       ****                 write_LCD(lcd,button[75][x],9,x+15,1,0xFFFF,'Y');    //Nombre Tipo de vehiculo 2
 4998              		.loc 1 583 0 discriminator 3
 4999 25bc FB7B     		ldrb	r3, [r7, #15]	@ zero_extendqisi2
 5000 25be 884A     		ldr	r2, .L271
ARM GAS  C:\Users\PROYEC~1\AppData\Local\Temp\ccMsBWpv.s 			page 102


 5001 25c0 1344     		add	r3, r3, r2
 5002 25c2 93F85832 		ldrb	r3, [r3, #600]
 5003 25c6 DAB2     		uxtb	r2, r3
 5004 25c8 FB7B     		ldrb	r3, [r7, #15]	@ zero_extendqisi2
 5005 25ca 9BB2     		uxth	r3, r3
 5006 25cc 0F33     		adds	r3, r3, #15
 5007 25ce 9CB2     		uxth	r4, r3
 5008 25d0 F979     		ldrb	r1, [r7, #7]	@ zero_extendqisi2
 5009 25d2 0123     		movs	r3, #1
 5010 25d4 0093     		str	r3, [sp]
 5011 25d6 4FF6FF73 		movw	r3, #65535
 5012 25da 0193     		str	r3, [sp, #4]
 5013 25dc 5923     		movs	r3, #89
 5014 25de 0293     		str	r3, [sp, #8]
 5015 25e0 0846     		mov	r0, r1
 5016 25e2 1146     		mov	r1, r2
 5017 25e4 0922     		movs	r2, #9
 5018 25e6 2346     		mov	r3, r4
 5019 25e8 FFF7FEFF 		bl	write_LCD
 584:.\LCD.c       ****                 write_LCD(lcd,button[76][x],15,x+4,1,0xFFFF,'Y');    //Nombre Tipo de vehiculo 3
 5020              		.loc 1 584 0 discriminator 3
 5021 25ec FB7B     		ldrb	r3, [r7, #15]	@ zero_extendqisi2
 5022 25ee 7C4A     		ldr	r2, .L271
 5023 25f0 1344     		add	r3, r3, r2
 5024 25f2 93F86032 		ldrb	r3, [r3, #608]
 5025 25f6 DAB2     		uxtb	r2, r3
 5026 25f8 FB7B     		ldrb	r3, [r7, #15]	@ zero_extendqisi2
 5027 25fa 9BB2     		uxth	r3, r3
 5028 25fc 0433     		adds	r3, r3, #4
 5029 25fe 9CB2     		uxth	r4, r3
 5030 2600 F979     		ldrb	r1, [r7, #7]	@ zero_extendqisi2
 5031 2602 0123     		movs	r3, #1
 5032 2604 0093     		str	r3, [sp]
 5033 2606 4FF6FF73 		movw	r3, #65535
 5034 260a 0193     		str	r3, [sp, #4]
 5035 260c 5923     		movs	r3, #89
 5036 260e 0293     		str	r3, [sp, #8]
 5037 2610 0846     		mov	r0, r1
 5038 2612 1146     		mov	r1, r2
 5039 2614 0F22     		movs	r2, #15
 5040 2616 2346     		mov	r3, r4
 5041 2618 FFF7FEFF 		bl	write_LCD
 585:.\LCD.c       ****                 write_LCD(lcd,button[77][x],15,x+15,1,0xFFFF,'Y');   //Nombre Tipo de vehiculo 4
 5042              		.loc 1 585 0 discriminator 3
 5043 261c FB7B     		ldrb	r3, [r7, #15]	@ zero_extendqisi2
 5044 261e 704A     		ldr	r2, .L271
 5045 2620 1344     		add	r3, r3, r2
 5046 2622 93F86832 		ldrb	r3, [r3, #616]
 5047 2626 DAB2     		uxtb	r2, r3
 5048 2628 FB7B     		ldrb	r3, [r7, #15]	@ zero_extendqisi2
 5049 262a 9BB2     		uxth	r3, r3
 5050 262c 0F33     		adds	r3, r3, #15
 5051 262e 9CB2     		uxth	r4, r3
 5052 2630 F979     		ldrb	r1, [r7, #7]	@ zero_extendqisi2
 5053 2632 0123     		movs	r3, #1
 5054 2634 0093     		str	r3, [sp]
 5055 2636 4FF6FF73 		movw	r3, #65535
ARM GAS  C:\Users\PROYEC~1\AppData\Local\Temp\ccMsBWpv.s 			page 103


 5056 263a 0193     		str	r3, [sp, #4]
 5057 263c 5923     		movs	r3, #89
 5058 263e 0293     		str	r3, [sp, #8]
 5059 2640 0846     		mov	r0, r1
 5060 2642 1146     		mov	r1, r2
 5061 2644 0F22     		movs	r2, #15
 5062 2646 2346     		mov	r3, r4
 5063 2648 FFF7FEFF 		bl	write_LCD
 586:.\LCD.c       ****                 write_LCD(lcd,button[78][x],21,x+4,1,0xFFFF,'Y');    //Nombre Tipo de vehiculo 5
 5064              		.loc 1 586 0 discriminator 3
 5065 264c FB7B     		ldrb	r3, [r7, #15]	@ zero_extendqisi2
 5066 264e 644A     		ldr	r2, .L271
 5067 2650 1344     		add	r3, r3, r2
 5068 2652 93F87032 		ldrb	r3, [r3, #624]
 5069 2656 DAB2     		uxtb	r2, r3
 5070 2658 FB7B     		ldrb	r3, [r7, #15]	@ zero_extendqisi2
 5071 265a 9BB2     		uxth	r3, r3
 5072 265c 0433     		adds	r3, r3, #4
 5073 265e 9CB2     		uxth	r4, r3
 5074 2660 F979     		ldrb	r1, [r7, #7]	@ zero_extendqisi2
 5075 2662 0123     		movs	r3, #1
 5076 2664 0093     		str	r3, [sp]
 5077 2666 4FF6FF73 		movw	r3, #65535
 5078 266a 0193     		str	r3, [sp, #4]
 5079 266c 5923     		movs	r3, #89
 5080 266e 0293     		str	r3, [sp, #8]
 5081 2670 0846     		mov	r0, r1
 5082 2672 1146     		mov	r1, r2
 5083 2674 1522     		movs	r2, #21
 5084 2676 2346     		mov	r3, r4
 5085 2678 FFF7FEFF 		bl	write_LCD
 587:.\LCD.c       ****                 write_LCD(lcd,button[79][x],21,x+15,1,0xFFFF,'Y');   //Nombre Tipo de vehiculo 6
 5086              		.loc 1 587 0 discriminator 3
 5087 267c FB7B     		ldrb	r3, [r7, #15]	@ zero_extendqisi2
 5088 267e 584A     		ldr	r2, .L271
 5089 2680 1344     		add	r3, r3, r2
 5090 2682 93F87832 		ldrb	r3, [r3, #632]
 5091 2686 DAB2     		uxtb	r2, r3
 5092 2688 FB7B     		ldrb	r3, [r7, #15]	@ zero_extendqisi2
 5093 268a 9BB2     		uxth	r3, r3
 5094 268c 0F33     		adds	r3, r3, #15
 5095 268e 9CB2     		uxth	r4, r3
 5096 2690 F979     		ldrb	r1, [r7, #7]	@ zero_extendqisi2
 5097 2692 0123     		movs	r3, #1
 5098 2694 0093     		str	r3, [sp]
 5099 2696 4FF6FF73 		movw	r3, #65535
 5100 269a 0193     		str	r3, [sp, #4]
 5101 269c 5923     		movs	r3, #89
 5102 269e 0293     		str	r3, [sp, #8]
 5103 26a0 0846     		mov	r0, r1
 5104 26a2 1146     		mov	r1, r2
 5105 26a4 1522     		movs	r2, #21
 5106 26a6 2346     		mov	r3, r4
 5107 26a8 FFF7FEFF 		bl	write_LCD
 579:.\LCD.c       ****                 write_LCD(lcd,button[72][x],2,x+1,2,0x2110,'Y');   //Nombre de imagen Tipo de vehic
 5108              		.loc 1 579 0 discriminator 3
 5109 26ac FB7B     		ldrb	r3, [r7, #15]	@ zero_extendqisi2
ARM GAS  C:\Users\PROYEC~1\AppData\Local\Temp\ccMsBWpv.s 			page 104


 5110 26ae 0133     		adds	r3, r3, #1
 5111 26b0 FB73     		strb	r3, [r7, #15]
 5112              	.L209:
 579:.\LCD.c       ****                 write_LCD(lcd,button[72][x],2,x+1,2,0x2110,'Y');   //Nombre de imagen Tipo de vehic
 5113              		.loc 1 579 0 is_stmt 0 discriminator 1
 5114 26b2 FB7B     		ldrb	r3, [r7, #15]	@ zero_extendqisi2
 5115 26b4 072B     		cmp	r3, #7
 5116 26b6 7FF639AF 		bls	.L210
 588:.\LCD.c       ****             }
 589:.\LCD.c       ****         break;
 5117              		.loc 1 589 0 is_stmt 1
 5118 26ba 00F0C4BD 		b	.L16
 5119              	.L38:
 590:.\LCD.c       ****             
 591:.\LCD.c       ****         case 'G'://Gracias
 592:.\LCD.c       ****             for(x=0;x<8;x++){
 5120              		.loc 1 592 0
 5121 26be 0023     		movs	r3, #0
 5122 26c0 FB73     		strb	r3, [r7, #15]
 5123 26c2 4AE0     		b	.L211
 5124              	.L212:
 593:.\LCD.c       ****                 write_LCD(lcd,button[80][x],2,x+3,3,0x2110,'Y');   //Nombre de imagen Gracias Rengl
 5125              		.loc 1 593 0 discriminator 3
 5126 26c4 FB7B     		ldrb	r3, [r7, #15]	@ zero_extendqisi2
 5127 26c6 464A     		ldr	r2, .L271
 5128 26c8 1344     		add	r3, r3, r2
 5129 26ca 93F88032 		ldrb	r3, [r3, #640]
 5130 26ce DAB2     		uxtb	r2, r3
 5131 26d0 FB7B     		ldrb	r3, [r7, #15]	@ zero_extendqisi2
 5132 26d2 9BB2     		uxth	r3, r3
 5133 26d4 0333     		adds	r3, r3, #3
 5134 26d6 9CB2     		uxth	r4, r3
 5135 26d8 F979     		ldrb	r1, [r7, #7]	@ zero_extendqisi2
 5136 26da 0323     		movs	r3, #3
 5137 26dc 0093     		str	r3, [sp]
 5138 26de 42F21013 		movw	r3, #8464
 5139 26e2 0193     		str	r3, [sp, #4]
 5140 26e4 5923     		movs	r3, #89
 5141 26e6 0293     		str	r3, [sp, #8]
 5142 26e8 0846     		mov	r0, r1
 5143 26ea 1146     		mov	r1, r2
 5144 26ec 0222     		movs	r2, #2
 5145 26ee 2346     		mov	r3, r4
 5146 26f0 FFF7FEFF 		bl	write_LCD
 594:.\LCD.c       ****                 write_LCD(lcd,button[82][x],8,x+1,2,0x2110,'Y');   //Nombre de imagen Gracias Rengl
 5147              		.loc 1 594 0 discriminator 3
 5148 26f4 FB7B     		ldrb	r3, [r7, #15]	@ zero_extendqisi2
 5149 26f6 3A4A     		ldr	r2, .L271
 5150 26f8 1344     		add	r3, r3, r2
 5151 26fa 93F89032 		ldrb	r3, [r3, #656]
 5152 26fe DAB2     		uxtb	r2, r3
 5153 2700 FB7B     		ldrb	r3, [r7, #15]	@ zero_extendqisi2
 5154 2702 9BB2     		uxth	r3, r3
 5155 2704 0133     		adds	r3, r3, #1
 5156 2706 9CB2     		uxth	r4, r3
 5157 2708 F979     		ldrb	r1, [r7, #7]	@ zero_extendqisi2
 5158 270a 0223     		movs	r3, #2
ARM GAS  C:\Users\PROYEC~1\AppData\Local\Temp\ccMsBWpv.s 			page 105


 5159 270c 0093     		str	r3, [sp]
 5160 270e 42F21013 		movw	r3, #8464
 5161 2712 0193     		str	r3, [sp, #4]
 5162 2714 5923     		movs	r3, #89
 5163 2716 0293     		str	r3, [sp, #8]
 5164 2718 0846     		mov	r0, r1
 5165 271a 1146     		mov	r1, r2
 5166 271c 0822     		movs	r2, #8
 5167 271e 2346     		mov	r3, r4
 5168 2720 FFF7FEFF 		bl	write_LCD
 595:.\LCD.c       ****                 write_LCD(lcd,button[83][x],8,x+9,2,0x2110,'Y');   //Nombre de imagen Gracias Rengl
 5169              		.loc 1 595 0 discriminator 3
 5170 2724 FB7B     		ldrb	r3, [r7, #15]	@ zero_extendqisi2
 5171 2726 2E4A     		ldr	r2, .L271
 5172 2728 1344     		add	r3, r3, r2
 5173 272a 93F89832 		ldrb	r3, [r3, #664]
 5174 272e DAB2     		uxtb	r2, r3
 5175 2730 FB7B     		ldrb	r3, [r7, #15]	@ zero_extendqisi2
 5176 2732 9BB2     		uxth	r3, r3
 5177 2734 0933     		adds	r3, r3, #9
 5178 2736 9CB2     		uxth	r4, r3
 5179 2738 F979     		ldrb	r1, [r7, #7]	@ zero_extendqisi2
 5180 273a 0223     		movs	r3, #2
 5181 273c 0093     		str	r3, [sp]
 5182 273e 42F21013 		movw	r3, #8464
 5183 2742 0193     		str	r3, [sp, #4]
 5184 2744 5923     		movs	r3, #89
 5185 2746 0293     		str	r3, [sp, #8]
 5186 2748 0846     		mov	r0, r1
 5187 274a 1146     		mov	r1, r2
 5188 274c 0822     		movs	r2, #8
 5189 274e 2346     		mov	r3, r4
 5190 2750 FFF7FEFF 		bl	write_LCD
 592:.\LCD.c       ****                 write_LCD(lcd,button[80][x],2,x+3,3,0x2110,'Y');   //Nombre de imagen Gracias Rengl
 5191              		.loc 1 592 0 discriminator 3
 5192 2754 FB7B     		ldrb	r3, [r7, #15]	@ zero_extendqisi2
 5193 2756 0133     		adds	r3, r3, #1
 5194 2758 FB73     		strb	r3, [r7, #15]
 5195              	.L211:
 592:.\LCD.c       ****                 write_LCD(lcd,button[80][x],2,x+3,3,0x2110,'Y');   //Nombre de imagen Gracias Rengl
 5196              		.loc 1 592 0 is_stmt 0 discriminator 1
 5197 275a FB7B     		ldrb	r3, [r7, #15]	@ zero_extendqisi2
 5198 275c 072B     		cmp	r3, #7
 5199 275e B1D9     		bls	.L212
 596:.\LCD.c       ****             }
 597:.\LCD.c       ****         break;
 5200              		.loc 1 597 0 is_stmt 1
 5201 2760 00F071BD 		b	.L16
 5202              	.L34:
 598:.\LCD.c       ****             
 599:.\LCD.c       ****         case 'A'://Accion Anulada
 600:.\LCD.c       ****             for(x=0;x<8;x++){
 5203              		.loc 1 600 0
 5204 2764 0023     		movs	r3, #0
 5205 2766 FB73     		strb	r3, [r7, #15]
 5206 2768 32E0     		b	.L213
 5207              	.L214:
ARM GAS  C:\Users\PROYEC~1\AppData\Local\Temp\ccMsBWpv.s 			page 106


 601:.\LCD.c       ****                 write_LCD(lcd,button[88][x],1,x+3,3,0x2110,'Y');   //Nombre de imagen Error de sist
 5208              		.loc 1 601 0 discriminator 3
 5209 276a FB7B     		ldrb	r3, [r7, #15]	@ zero_extendqisi2
 5210 276c 1C4A     		ldr	r2, .L271
 5211 276e 1344     		add	r3, r3, r2
 5212 2770 93F8C032 		ldrb	r3, [r3, #704]
 5213 2774 DAB2     		uxtb	r2, r3
 5214 2776 FB7B     		ldrb	r3, [r7, #15]	@ zero_extendqisi2
 5215 2778 9BB2     		uxth	r3, r3
 5216 277a 0333     		adds	r3, r3, #3
 5217 277c 9CB2     		uxth	r4, r3
 5218 277e F979     		ldrb	r1, [r7, #7]	@ zero_extendqisi2
 5219 2780 0323     		movs	r3, #3
 5220 2782 0093     		str	r3, [sp]
 5221 2784 42F21013 		movw	r3, #8464
 5222 2788 0193     		str	r3, [sp, #4]
 5223 278a 5923     		movs	r3, #89
 5224 278c 0293     		str	r3, [sp, #8]
 5225 278e 0846     		mov	r0, r1
 5226 2790 1146     		mov	r1, r2
 5227 2792 0122     		movs	r2, #1
 5228 2794 2346     		mov	r3, r4
 5229 2796 FFF7FEFF 		bl	write_LCD
 602:.\LCD.c       ****                 write_LCD(lcd,button[89][x],7,x+3,3,0x2110,'Y');   //Nombre de imagen Error de sist
 5230              		.loc 1 602 0 discriminator 3
 5231 279a FB7B     		ldrb	r3, [r7, #15]	@ zero_extendqisi2
 5232 279c 104A     		ldr	r2, .L271
 5233 279e 1344     		add	r3, r3, r2
 5234 27a0 93F8C832 		ldrb	r3, [r3, #712]
 5235 27a4 DAB2     		uxtb	r2, r3
 5236 27a6 FB7B     		ldrb	r3, [r7, #15]	@ zero_extendqisi2
 5237 27a8 9BB2     		uxth	r3, r3
 5238 27aa 0333     		adds	r3, r3, #3
 5239 27ac 9CB2     		uxth	r4, r3
 5240 27ae F979     		ldrb	r1, [r7, #7]	@ zero_extendqisi2
 5241 27b0 0323     		movs	r3, #3
 5242 27b2 0093     		str	r3, [sp]
 5243 27b4 42F21013 		movw	r3, #8464
 5244 27b8 0193     		str	r3, [sp, #4]
 5245 27ba 5923     		movs	r3, #89
 5246 27bc 0293     		str	r3, [sp, #8]
 5247 27be 0846     		mov	r0, r1
 5248 27c0 1146     		mov	r1, r2
 5249 27c2 0722     		movs	r2, #7
 5250 27c4 2346     		mov	r3, r4
 5251 27c6 FFF7FEFF 		bl	write_LCD
 600:.\LCD.c       ****                 write_LCD(lcd,button[88][x],1,x+3,3,0x2110,'Y');   //Nombre de imagen Error de sist
 5252              		.loc 1 600 0 discriminator 3
 5253 27ca FB7B     		ldrb	r3, [r7, #15]	@ zero_extendqisi2
 5254 27cc 0133     		adds	r3, r3, #1
 5255 27ce FB73     		strb	r3, [r7, #15]
 5256              	.L213:
 600:.\LCD.c       ****                 write_LCD(lcd,button[88][x],1,x+3,3,0x2110,'Y');   //Nombre de imagen Error de sist
 5257              		.loc 1 600 0 is_stmt 0 discriminator 1
 5258 27d0 FB7B     		ldrb	r3, [r7, #15]	@ zero_extendqisi2
 5259 27d2 072B     		cmp	r3, #7
 5260 27d4 C9D9     		bls	.L214
ARM GAS  C:\Users\PROYEC~1\AppData\Local\Temp\ccMsBWpv.s 			page 107


 603:.\LCD.c       ****             }
 604:.\LCD.c       ****         break;
 5261              		.loc 1 604 0 is_stmt 1
 5262 27d6 00F036BD 		b	.L16
 5263              	.L55:
 605:.\LCD.c       ****             
 606:.\LCD.c       ****         case 'm'://Metodos ID
 607:.\LCD.c       ****             for(x=0;x<8;x++){
 5264              		.loc 1 607 0
 5265 27da 0023     		movs	r3, #0
 5266 27dc FB73     		strb	r3, [r7, #15]
 5267 27de C4E0     		b	.L215
 5268              	.L272:
 5269              		.align	2
 5270              	.L271:
 5271 27e0 00000000 		.word	button
 5272              	.L216:
 608:.\LCD.c       ****                 write_LCD(lcd,button[90][x],2,x+1,2,0x2110,'Y');   //Nombre de imagen Tipo de vehic
 5273              		.loc 1 608 0 discriminator 3
 5274 27e4 FB7B     		ldrb	r3, [r7, #15]	@ zero_extendqisi2
 5275 27e6 A04A     		ldr	r2, .L273
 5276 27e8 1344     		add	r3, r3, r2
 5277 27ea 93F8D032 		ldrb	r3, [r3, #720]
 5278 27ee DAB2     		uxtb	r2, r3
 5279 27f0 FB7B     		ldrb	r3, [r7, #15]	@ zero_extendqisi2
 5280 27f2 9BB2     		uxth	r3, r3
 5281 27f4 0133     		adds	r3, r3, #1
 5282 27f6 9CB2     		uxth	r4, r3
 5283 27f8 F979     		ldrb	r1, [r7, #7]	@ zero_extendqisi2
 5284 27fa 0223     		movs	r3, #2
 5285 27fc 0093     		str	r3, [sp]
 5286 27fe 42F21013 		movw	r3, #8464
 5287 2802 0193     		str	r3, [sp, #4]
 5288 2804 5923     		movs	r3, #89
 5289 2806 0293     		str	r3, [sp, #8]
 5290 2808 0846     		mov	r0, r1
 5291 280a 1146     		mov	r1, r2
 5292 280c 0222     		movs	r2, #2
 5293 280e 2346     		mov	r3, r4
 5294 2810 FFF7FEFF 		bl	write_LCD
 609:.\LCD.c       ****                 write_LCD(lcd,button[91][x],2,x+9,2,0x2110,'Y');   //Nombre de imagen Tipo de vehic
 5295              		.loc 1 609 0 discriminator 3
 5296 2814 FB7B     		ldrb	r3, [r7, #15]	@ zero_extendqisi2
 5297 2816 944A     		ldr	r2, .L273
 5298 2818 1344     		add	r3, r3, r2
 5299 281a 93F8D832 		ldrb	r3, [r3, #728]
 5300 281e DAB2     		uxtb	r2, r3
 5301 2820 FB7B     		ldrb	r3, [r7, #15]	@ zero_extendqisi2
 5302 2822 9BB2     		uxth	r3, r3
 5303 2824 0933     		adds	r3, r3, #9
 5304 2826 9CB2     		uxth	r4, r3
 5305 2828 F979     		ldrb	r1, [r7, #7]	@ zero_extendqisi2
 5306 282a 0223     		movs	r3, #2
 5307 282c 0093     		str	r3, [sp]
 5308 282e 42F21013 		movw	r3, #8464
 5309 2832 0193     		str	r3, [sp, #4]
 5310 2834 5923     		movs	r3, #89
ARM GAS  C:\Users\PROYEC~1\AppData\Local\Temp\ccMsBWpv.s 			page 108


 5311 2836 0293     		str	r3, [sp, #8]
 5312 2838 0846     		mov	r0, r1
 5313 283a 1146     		mov	r1, r2
 5314 283c 0222     		movs	r2, #2
 5315 283e 2346     		mov	r3, r4
 5316 2840 FFF7FEFF 		bl	write_LCD
 610:.\LCD.c       ****                 write_LCD(lcd,button[92][x],9,x+4,1,0xFFFF,'Y');     //Nombre Tipo de vehiculo 1
 5317              		.loc 1 610 0 discriminator 3
 5318 2844 FB7B     		ldrb	r3, [r7, #15]	@ zero_extendqisi2
 5319 2846 884A     		ldr	r2, .L273
 5320 2848 1344     		add	r3, r3, r2
 5321 284a 93F8E032 		ldrb	r3, [r3, #736]
 5322 284e DAB2     		uxtb	r2, r3
 5323 2850 FB7B     		ldrb	r3, [r7, #15]	@ zero_extendqisi2
 5324 2852 9BB2     		uxth	r3, r3
 5325 2854 0433     		adds	r3, r3, #4
 5326 2856 9CB2     		uxth	r4, r3
 5327 2858 F979     		ldrb	r1, [r7, #7]	@ zero_extendqisi2
 5328 285a 0123     		movs	r3, #1
 5329 285c 0093     		str	r3, [sp]
 5330 285e 4FF6FF73 		movw	r3, #65535
 5331 2862 0193     		str	r3, [sp, #4]
 5332 2864 5923     		movs	r3, #89
 5333 2866 0293     		str	r3, [sp, #8]
 5334 2868 0846     		mov	r0, r1
 5335 286a 1146     		mov	r1, r2
 5336 286c 0922     		movs	r2, #9
 5337 286e 2346     		mov	r3, r4
 5338 2870 FFF7FEFF 		bl	write_LCD
 611:.\LCD.c       ****                 write_LCD(lcd,button[93][x],9,x+15,1,0xFFFF,'Y');    //Nombre Tipo de vehiculo 2
 5339              		.loc 1 611 0 discriminator 3
 5340 2874 FB7B     		ldrb	r3, [r7, #15]	@ zero_extendqisi2
 5341 2876 7C4A     		ldr	r2, .L273
 5342 2878 1344     		add	r3, r3, r2
 5343 287a 93F8E832 		ldrb	r3, [r3, #744]
 5344 287e DAB2     		uxtb	r2, r3
 5345 2880 FB7B     		ldrb	r3, [r7, #15]	@ zero_extendqisi2
 5346 2882 9BB2     		uxth	r3, r3
 5347 2884 0F33     		adds	r3, r3, #15
 5348 2886 9CB2     		uxth	r4, r3
 5349 2888 F979     		ldrb	r1, [r7, #7]	@ zero_extendqisi2
 5350 288a 0123     		movs	r3, #1
 5351 288c 0093     		str	r3, [sp]
 5352 288e 4FF6FF73 		movw	r3, #65535
 5353 2892 0193     		str	r3, [sp, #4]
 5354 2894 5923     		movs	r3, #89
 5355 2896 0293     		str	r3, [sp, #8]
 5356 2898 0846     		mov	r0, r1
 5357 289a 1146     		mov	r1, r2
 5358 289c 0922     		movs	r2, #9
 5359 289e 2346     		mov	r3, r4
 5360 28a0 FFF7FEFF 		bl	write_LCD
 612:.\LCD.c       ****                 write_LCD(lcd,button[94][x],15,x+4,1,0xFFFF,'Y');    //Nombre Tipo de vehiculo 3
 5361              		.loc 1 612 0 discriminator 3
 5362 28a4 FB7B     		ldrb	r3, [r7, #15]	@ zero_extendqisi2
 5363 28a6 704A     		ldr	r2, .L273
 5364 28a8 1344     		add	r3, r3, r2
ARM GAS  C:\Users\PROYEC~1\AppData\Local\Temp\ccMsBWpv.s 			page 109


 5365 28aa 93F8F032 		ldrb	r3, [r3, #752]
 5366 28ae DAB2     		uxtb	r2, r3
 5367 28b0 FB7B     		ldrb	r3, [r7, #15]	@ zero_extendqisi2
 5368 28b2 9BB2     		uxth	r3, r3
 5369 28b4 0433     		adds	r3, r3, #4
 5370 28b6 9CB2     		uxth	r4, r3
 5371 28b8 F979     		ldrb	r1, [r7, #7]	@ zero_extendqisi2
 5372 28ba 0123     		movs	r3, #1
 5373 28bc 0093     		str	r3, [sp]
 5374 28be 4FF6FF73 		movw	r3, #65535
 5375 28c2 0193     		str	r3, [sp, #4]
 5376 28c4 5923     		movs	r3, #89
 5377 28c6 0293     		str	r3, [sp, #8]
 5378 28c8 0846     		mov	r0, r1
 5379 28ca 1146     		mov	r1, r2
 5380 28cc 0F22     		movs	r2, #15
 5381 28ce 2346     		mov	r3, r4
 5382 28d0 FFF7FEFF 		bl	write_LCD
 613:.\LCD.c       ****                 write_LCD(lcd,button[95][x],15,x+15,1,0xFFFF,'Y');   //Nombre Tipo de vehiculo 4
 5383              		.loc 1 613 0 discriminator 3
 5384 28d4 FB7B     		ldrb	r3, [r7, #15]	@ zero_extendqisi2
 5385 28d6 644A     		ldr	r2, .L273
 5386 28d8 1344     		add	r3, r3, r2
 5387 28da 93F8F832 		ldrb	r3, [r3, #760]
 5388 28de DAB2     		uxtb	r2, r3
 5389 28e0 FB7B     		ldrb	r3, [r7, #15]	@ zero_extendqisi2
 5390 28e2 9BB2     		uxth	r3, r3
 5391 28e4 0F33     		adds	r3, r3, #15
 5392 28e6 9CB2     		uxth	r4, r3
 5393 28e8 F979     		ldrb	r1, [r7, #7]	@ zero_extendqisi2
 5394 28ea 0123     		movs	r3, #1
 5395 28ec 0093     		str	r3, [sp]
 5396 28ee 4FF6FF73 		movw	r3, #65535
 5397 28f2 0193     		str	r3, [sp, #4]
 5398 28f4 5923     		movs	r3, #89
 5399 28f6 0293     		str	r3, [sp, #8]
 5400 28f8 0846     		mov	r0, r1
 5401 28fa 1146     		mov	r1, r2
 5402 28fc 0F22     		movs	r2, #15
 5403 28fe 2346     		mov	r3, r4
 5404 2900 FFF7FEFF 		bl	write_LCD
 614:.\LCD.c       ****                 write_LCD(lcd,button[96][x],21,x+4,1,0xFFFF,'Y');    //Nombre Tipo de vehiculo 5
 5405              		.loc 1 614 0 discriminator 3
 5406 2904 FB7B     		ldrb	r3, [r7, #15]	@ zero_extendqisi2
 5407 2906 584A     		ldr	r2, .L273
 5408 2908 1344     		add	r3, r3, r2
 5409 290a 93F80033 		ldrb	r3, [r3, #768]
 5410 290e DAB2     		uxtb	r2, r3
 5411 2910 FB7B     		ldrb	r3, [r7, #15]	@ zero_extendqisi2
 5412 2912 9BB2     		uxth	r3, r3
 5413 2914 0433     		adds	r3, r3, #4
 5414 2916 9CB2     		uxth	r4, r3
 5415 2918 F979     		ldrb	r1, [r7, #7]	@ zero_extendqisi2
 5416 291a 0123     		movs	r3, #1
 5417 291c 0093     		str	r3, [sp]
 5418 291e 4FF6FF73 		movw	r3, #65535
 5419 2922 0193     		str	r3, [sp, #4]
ARM GAS  C:\Users\PROYEC~1\AppData\Local\Temp\ccMsBWpv.s 			page 110


 5420 2924 5923     		movs	r3, #89
 5421 2926 0293     		str	r3, [sp, #8]
 5422 2928 0846     		mov	r0, r1
 5423 292a 1146     		mov	r1, r2
 5424 292c 1522     		movs	r2, #21
 5425 292e 2346     		mov	r3, r4
 5426 2930 FFF7FEFF 		bl	write_LCD
 615:.\LCD.c       ****                 write_LCD(lcd,button[97][x],21,x+15,1,0xFFFF,'Y');   //Nombre Tipo de vehiculo 6
 5427              		.loc 1 615 0 discriminator 3
 5428 2934 FB7B     		ldrb	r3, [r7, #15]	@ zero_extendqisi2
 5429 2936 4C4A     		ldr	r2, .L273
 5430 2938 1344     		add	r3, r3, r2
 5431 293a 93F80833 		ldrb	r3, [r3, #776]
 5432 293e DAB2     		uxtb	r2, r3
 5433 2940 FB7B     		ldrb	r3, [r7, #15]	@ zero_extendqisi2
 5434 2942 9BB2     		uxth	r3, r3
 5435 2944 0F33     		adds	r3, r3, #15
 5436 2946 9CB2     		uxth	r4, r3
 5437 2948 F979     		ldrb	r1, [r7, #7]	@ zero_extendqisi2
 5438 294a 0123     		movs	r3, #1
 5439 294c 0093     		str	r3, [sp]
 5440 294e 4FF6FF73 		movw	r3, #65535
 5441 2952 0193     		str	r3, [sp, #4]
 5442 2954 5923     		movs	r3, #89
 5443 2956 0293     		str	r3, [sp, #8]
 5444 2958 0846     		mov	r0, r1
 5445 295a 1146     		mov	r1, r2
 5446 295c 1522     		movs	r2, #21
 5447 295e 2346     		mov	r3, r4
 5448 2960 FFF7FEFF 		bl	write_LCD
 607:.\LCD.c       ****                 write_LCD(lcd,button[90][x],2,x+1,2,0x2110,'Y');   //Nombre de imagen Tipo de vehic
 5449              		.loc 1 607 0 discriminator 3
 5450 2964 FB7B     		ldrb	r3, [r7, #15]	@ zero_extendqisi2
 5451 2966 0133     		adds	r3, r3, #1
 5452 2968 FB73     		strb	r3, [r7, #15]
 5453              	.L215:
 607:.\LCD.c       ****                 write_LCD(lcd,button[90][x],2,x+1,2,0x2110,'Y');   //Nombre de imagen Tipo de vehic
 5454              		.loc 1 607 0 is_stmt 0 discriminator 1
 5455 296a FB7B     		ldrb	r3, [r7, #15]	@ zero_extendqisi2
 5456 296c 072B     		cmp	r3, #7
 5457 296e 7FF639AF 		bls	.L216
 616:.\LCD.c       ****             }
 617:.\LCD.c       ****         break;
 5458              		.loc 1 617 0 is_stmt 1
 5459 2972 00F068BC 		b	.L16
 5460              	.L51:
 618:.\LCD.c       ****             
 619:.\LCD.c       ****         case 'i'://Metodo 1
 620:.\LCD.c       ****             for(x=0;x<8;x++){
 5461              		.loc 1 620 0
 5462 2976 0023     		movs	r3, #0
 5463 2978 FB73     		strb	r3, [r7, #15]
 5464 297a 32E0     		b	.L217
 5465              	.L218:
 621:.\LCD.c       ****                 write_LCD(lcd,button[98][x],1,x+3,3,0x2110,'Y');   //Nombre de imagen Esperando
 5466              		.loc 1 621 0 discriminator 3
 5467 297c FB7B     		ldrb	r3, [r7, #15]	@ zero_extendqisi2
ARM GAS  C:\Users\PROYEC~1\AppData\Local\Temp\ccMsBWpv.s 			page 111


 5468 297e 3A4A     		ldr	r2, .L273
 5469 2980 1344     		add	r3, r3, r2
 5470 2982 93F81033 		ldrb	r3, [r3, #784]
 5471 2986 DAB2     		uxtb	r2, r3
 5472 2988 FB7B     		ldrb	r3, [r7, #15]	@ zero_extendqisi2
 5473 298a 9BB2     		uxth	r3, r3
 5474 298c 0333     		adds	r3, r3, #3
 5475 298e 9CB2     		uxth	r4, r3
 5476 2990 F979     		ldrb	r1, [r7, #7]	@ zero_extendqisi2
 5477 2992 0323     		movs	r3, #3
 5478 2994 0093     		str	r3, [sp]
 5479 2996 42F21013 		movw	r3, #8464
 5480 299a 0193     		str	r3, [sp, #4]
 5481 299c 5923     		movs	r3, #89
 5482 299e 0293     		str	r3, [sp, #8]
 5483 29a0 0846     		mov	r0, r1
 5484 29a2 1146     		mov	r1, r2
 5485 29a4 0122     		movs	r2, #1
 5486 29a6 2346     		mov	r3, r4
 5487 29a8 FFF7FEFF 		bl	write_LCD
 622:.\LCD.c       ****                 write_LCD(lcd,button[92][x],7,x+3,3,0x2110,'Y');   //Nombre de boton metodo 1 
 5488              		.loc 1 622 0 discriminator 3
 5489 29ac FB7B     		ldrb	r3, [r7, #15]	@ zero_extendqisi2
 5490 29ae 2E4A     		ldr	r2, .L273
 5491 29b0 1344     		add	r3, r3, r2
 5492 29b2 93F8E032 		ldrb	r3, [r3, #736]
 5493 29b6 DAB2     		uxtb	r2, r3
 5494 29b8 FB7B     		ldrb	r3, [r7, #15]	@ zero_extendqisi2
 5495 29ba 9BB2     		uxth	r3, r3
 5496 29bc 0333     		adds	r3, r3, #3
 5497 29be 9CB2     		uxth	r4, r3
 5498 29c0 F979     		ldrb	r1, [r7, #7]	@ zero_extendqisi2
 5499 29c2 0323     		movs	r3, #3
 5500 29c4 0093     		str	r3, [sp]
 5501 29c6 42F21013 		movw	r3, #8464
 5502 29ca 0193     		str	r3, [sp, #4]
 5503 29cc 5923     		movs	r3, #89
 5504 29ce 0293     		str	r3, [sp, #8]
 5505 29d0 0846     		mov	r0, r1
 5506 29d2 1146     		mov	r1, r2
 5507 29d4 0722     		movs	r2, #7
 5508 29d6 2346     		mov	r3, r4
 5509 29d8 FFF7FEFF 		bl	write_LCD
 620:.\LCD.c       ****                 write_LCD(lcd,button[98][x],1,x+3,3,0x2110,'Y');   //Nombre de imagen Esperando
 5510              		.loc 1 620 0 discriminator 3
 5511 29dc FB7B     		ldrb	r3, [r7, #15]	@ zero_extendqisi2
 5512 29de 0133     		adds	r3, r3, #1
 5513 29e0 FB73     		strb	r3, [r7, #15]
 5514              	.L217:
 620:.\LCD.c       ****                 write_LCD(lcd,button[98][x],1,x+3,3,0x2110,'Y');   //Nombre de imagen Esperando
 5515              		.loc 1 620 0 is_stmt 0 discriminator 1
 5516 29e2 FB7B     		ldrb	r3, [r7, #15]	@ zero_extendqisi2
 5517 29e4 072B     		cmp	r3, #7
 5518 29e6 C9D9     		bls	.L218
 623:.\LCD.c       ****             }
 624:.\LCD.c       ****         break;
 5519              		.loc 1 624 0 is_stmt 1
ARM GAS  C:\Users\PROYEC~1\AppData\Local\Temp\ccMsBWpv.s 			page 112


 5520 29e8 00F02DBC 		b	.L16
 5521              	.L52:
 625:.\LCD.c       ****             
 626:.\LCD.c       ****         case 'j'://Metodo 2
 627:.\LCD.c       ****             for(x=0;x<8;x++){
 5522              		.loc 1 627 0
 5523 29ec 0023     		movs	r3, #0
 5524 29ee FB73     		strb	r3, [r7, #15]
 5525 29f0 32E0     		b	.L219
 5526              	.L220:
 628:.\LCD.c       ****                 write_LCD(lcd,button[98][x],1,x+3,3,0x2110,'Y');   //Nombre de imagen Esperando
 5527              		.loc 1 628 0 discriminator 3
 5528 29f2 FB7B     		ldrb	r3, [r7, #15]	@ zero_extendqisi2
 5529 29f4 1C4A     		ldr	r2, .L273
 5530 29f6 1344     		add	r3, r3, r2
 5531 29f8 93F81033 		ldrb	r3, [r3, #784]
 5532 29fc DAB2     		uxtb	r2, r3
 5533 29fe FB7B     		ldrb	r3, [r7, #15]	@ zero_extendqisi2
 5534 2a00 9BB2     		uxth	r3, r3
 5535 2a02 0333     		adds	r3, r3, #3
 5536 2a04 9CB2     		uxth	r4, r3
 5537 2a06 F979     		ldrb	r1, [r7, #7]	@ zero_extendqisi2
 5538 2a08 0323     		movs	r3, #3
 5539 2a0a 0093     		str	r3, [sp]
 5540 2a0c 42F21013 		movw	r3, #8464
 5541 2a10 0193     		str	r3, [sp, #4]
 5542 2a12 5923     		movs	r3, #89
 5543 2a14 0293     		str	r3, [sp, #8]
 5544 2a16 0846     		mov	r0, r1
 5545 2a18 1146     		mov	r1, r2
 5546 2a1a 0122     		movs	r2, #1
 5547 2a1c 2346     		mov	r3, r4
 5548 2a1e FFF7FEFF 		bl	write_LCD
 629:.\LCD.c       ****                 write_LCD(lcd,button[93][x],7,x+3,3,0x2110,'Y');   //Nombre de boton metodo 2 
 5549              		.loc 1 629 0 discriminator 3
 5550 2a22 FB7B     		ldrb	r3, [r7, #15]	@ zero_extendqisi2
 5551 2a24 104A     		ldr	r2, .L273
 5552 2a26 1344     		add	r3, r3, r2
 5553 2a28 93F8E832 		ldrb	r3, [r3, #744]
 5554 2a2c DAB2     		uxtb	r2, r3
 5555 2a2e FB7B     		ldrb	r3, [r7, #15]	@ zero_extendqisi2
 5556 2a30 9BB2     		uxth	r3, r3
 5557 2a32 0333     		adds	r3, r3, #3
 5558 2a34 9CB2     		uxth	r4, r3
 5559 2a36 F979     		ldrb	r1, [r7, #7]	@ zero_extendqisi2
 5560 2a38 0323     		movs	r3, #3
 5561 2a3a 0093     		str	r3, [sp]
 5562 2a3c 42F21013 		movw	r3, #8464
 5563 2a40 0193     		str	r3, [sp, #4]
 5564 2a42 5923     		movs	r3, #89
 5565 2a44 0293     		str	r3, [sp, #8]
 5566 2a46 0846     		mov	r0, r1
 5567 2a48 1146     		mov	r1, r2
 5568 2a4a 0722     		movs	r2, #7
 5569 2a4c 2346     		mov	r3, r4
 5570 2a4e FFF7FEFF 		bl	write_LCD
 627:.\LCD.c       ****                 write_LCD(lcd,button[98][x],1,x+3,3,0x2110,'Y');   //Nombre de imagen Esperando
ARM GAS  C:\Users\PROYEC~1\AppData\Local\Temp\ccMsBWpv.s 			page 113


 5571              		.loc 1 627 0 discriminator 3
 5572 2a52 FB7B     		ldrb	r3, [r7, #15]	@ zero_extendqisi2
 5573 2a54 0133     		adds	r3, r3, #1
 5574 2a56 FB73     		strb	r3, [r7, #15]
 5575              	.L219:
 627:.\LCD.c       ****                 write_LCD(lcd,button[98][x],1,x+3,3,0x2110,'Y');   //Nombre de imagen Esperando
 5576              		.loc 1 627 0 is_stmt 0 discriminator 1
 5577 2a58 FB7B     		ldrb	r3, [r7, #15]	@ zero_extendqisi2
 5578 2a5a 072B     		cmp	r3, #7
 5579 2a5c C9D9     		bls	.L220
 630:.\LCD.c       ****             }
 631:.\LCD.c       ****         break;
 5580              		.loc 1 631 0 is_stmt 1
 5581 2a5e F2E3     		b	.L16
 5582              	.L53:
 632:.\LCD.c       ****             
 633:.\LCD.c       ****         case 'k'://Metodo 3
 634:.\LCD.c       ****             for(x=0;x<8;x++){
 5583              		.loc 1 634 0
 5584 2a60 0023     		movs	r3, #0
 5585 2a62 FB73     		strb	r3, [r7, #15]
 5586 2a64 35E0     		b	.L221
 5587              	.L274:
 5588 2a66 00BF     		.align	2
 5589              	.L273:
 5590 2a68 00000000 		.word	button
 5591              	.L222:
 635:.\LCD.c       ****                 write_LCD(lcd,button[20][x],14,x+1,2,0x2110,'Y');   //Nombre de imagen Teclado Dine
 5592              		.loc 1 635 0 discriminator 3
 5593 2a6c FB7B     		ldrb	r3, [r7, #15]	@ zero_extendqisi2
 5594 2a6e 674A     		ldr	r2, .L275
 5595 2a70 1344     		add	r3, r3, r2
 5596 2a72 93F8A030 		ldrb	r3, [r3, #160]
 5597 2a76 DAB2     		uxtb	r2, r3
 5598 2a78 FB7B     		ldrb	r3, [r7, #15]	@ zero_extendqisi2
 5599 2a7a 9BB2     		uxth	r3, r3
 5600 2a7c 0133     		adds	r3, r3, #1
 5601 2a7e 9CB2     		uxth	r4, r3
 5602 2a80 F979     		ldrb	r1, [r7, #7]	@ zero_extendqisi2
 5603 2a82 0223     		movs	r3, #2
 5604 2a84 0093     		str	r3, [sp]
 5605 2a86 42F21013 		movw	r3, #8464
 5606 2a8a 0193     		str	r3, [sp, #4]
 5607 2a8c 5923     		movs	r3, #89
 5608 2a8e 0293     		str	r3, [sp, #8]
 5609 2a90 0846     		mov	r0, r1
 5610 2a92 1146     		mov	r1, r2
 5611 2a94 0E22     		movs	r2, #14
 5612 2a96 2346     		mov	r3, r4
 5613 2a98 FFF7FEFF 		bl	write_LCD
 636:.\LCD.c       ****                 write_LCD(lcd,button[94][x],18,x+1,2,0x2110,'Y');   //Nombre de boton metodo 3
 5614              		.loc 1 636 0 discriminator 3
 5615 2a9c FB7B     		ldrb	r3, [r7, #15]	@ zero_extendqisi2
 5616 2a9e 5B4A     		ldr	r2, .L275
 5617 2aa0 1344     		add	r3, r3, r2
 5618 2aa2 93F8F032 		ldrb	r3, [r3, #752]
 5619 2aa6 DAB2     		uxtb	r2, r3
ARM GAS  C:\Users\PROYEC~1\AppData\Local\Temp\ccMsBWpv.s 			page 114


 5620 2aa8 FB7B     		ldrb	r3, [r7, #15]	@ zero_extendqisi2
 5621 2aaa 9BB2     		uxth	r3, r3
 5622 2aac 0133     		adds	r3, r3, #1
 5623 2aae 9CB2     		uxth	r4, r3
 5624 2ab0 F979     		ldrb	r1, [r7, #7]	@ zero_extendqisi2
 5625 2ab2 0223     		movs	r3, #2
 5626 2ab4 0093     		str	r3, [sp]
 5627 2ab6 42F21013 		movw	r3, #8464
 5628 2aba 0193     		str	r3, [sp, #4]
 5629 2abc 5923     		movs	r3, #89
 5630 2abe 0293     		str	r3, [sp, #8]
 5631 2ac0 0846     		mov	r0, r1
 5632 2ac2 1146     		mov	r1, r2
 5633 2ac4 1222     		movs	r2, #18
 5634 2ac6 2346     		mov	r3, r4
 5635 2ac8 FFF7FEFF 		bl	write_LCD
 634:.\LCD.c       ****                 write_LCD(lcd,button[20][x],14,x+1,2,0x2110,'Y');   //Nombre de imagen Teclado Dine
 5636              		.loc 1 634 0 discriminator 3
 5637 2acc FB7B     		ldrb	r3, [r7, #15]	@ zero_extendqisi2
 5638 2ace 0133     		adds	r3, r3, #1
 5639 2ad0 FB73     		strb	r3, [r7, #15]
 5640              	.L221:
 634:.\LCD.c       ****                 write_LCD(lcd,button[20][x],14,x+1,2,0x2110,'Y');   //Nombre de imagen Teclado Dine
 5641              		.loc 1 634 0 is_stmt 0 discriminator 1
 5642 2ad2 FB7B     		ldrb	r3, [r7, #15]	@ zero_extendqisi2
 5643 2ad4 072B     		cmp	r3, #7
 5644 2ad6 C9D9     		bls	.L222
 637:.\LCD.c       ****             }
 638:.\LCD.c       ****         break;
 5645              		.loc 1 638 0 is_stmt 1
 5646 2ad8 B5E3     		b	.L16
 5647              	.L54:
 639:.\LCD.c       ****             
 640:.\LCD.c       ****         case 'l'://Metodo 4
 641:.\LCD.c       ****             for(x=0;x<8;x++){
 5648              		.loc 1 641 0
 5649 2ada 0023     		movs	r3, #0
 5650 2adc FB73     		strb	r3, [r7, #15]
 5651 2ade 32E0     		b	.L223
 5652              	.L224:
 642:.\LCD.c       ****                 write_LCD(lcd,button[38][x],7,x+6,1,0x2110,'Y');   //Nombre de imagen Teclado Placa
 5653              		.loc 1 642 0 discriminator 3
 5654 2ae0 FB7B     		ldrb	r3, [r7, #15]	@ zero_extendqisi2
 5655 2ae2 4A4A     		ldr	r2, .L275
 5656 2ae4 1344     		add	r3, r3, r2
 5657 2ae6 93F83031 		ldrb	r3, [r3, #304]
 5658 2aea DAB2     		uxtb	r2, r3
 5659 2aec FB7B     		ldrb	r3, [r7, #15]	@ zero_extendqisi2
 5660 2aee 9BB2     		uxth	r3, r3
 5661 2af0 0633     		adds	r3, r3, #6
 5662 2af2 9CB2     		uxth	r4, r3
 5663 2af4 F979     		ldrb	r1, [r7, #7]	@ zero_extendqisi2
 5664 2af6 0123     		movs	r3, #1
 5665 2af8 0093     		str	r3, [sp]
 5666 2afa 42F21013 		movw	r3, #8464
 5667 2afe 0193     		str	r3, [sp, #4]
 5668 2b00 5923     		movs	r3, #89
ARM GAS  C:\Users\PROYEC~1\AppData\Local\Temp\ccMsBWpv.s 			page 115


 5669 2b02 0293     		str	r3, [sp, #8]
 5670 2b04 0846     		mov	r0, r1
 5671 2b06 1146     		mov	r1, r2
 5672 2b08 0722     		movs	r2, #7
 5673 2b0a 2346     		mov	r3, r4
 5674 2b0c FFF7FEFF 		bl	write_LCD
 643:.\LCD.c       ****                 write_LCD(lcd,button[95][x],7,x+14,1,0x2110,'Y');   //Nombre de boton metodo 3
 5675              		.loc 1 643 0 discriminator 3
 5676 2b10 FB7B     		ldrb	r3, [r7, #15]	@ zero_extendqisi2
 5677 2b12 3E4A     		ldr	r2, .L275
 5678 2b14 1344     		add	r3, r3, r2
 5679 2b16 93F8F832 		ldrb	r3, [r3, #760]
 5680 2b1a DAB2     		uxtb	r2, r3
 5681 2b1c FB7B     		ldrb	r3, [r7, #15]	@ zero_extendqisi2
 5682 2b1e 9BB2     		uxth	r3, r3
 5683 2b20 0E33     		adds	r3, r3, #14
 5684 2b22 9CB2     		uxth	r4, r3
 5685 2b24 F979     		ldrb	r1, [r7, #7]	@ zero_extendqisi2
 5686 2b26 0123     		movs	r3, #1
 5687 2b28 0093     		str	r3, [sp]
 5688 2b2a 42F21013 		movw	r3, #8464
 5689 2b2e 0193     		str	r3, [sp, #4]
 5690 2b30 5923     		movs	r3, #89
 5691 2b32 0293     		str	r3, [sp, #8]
 5692 2b34 0846     		mov	r0, r1
 5693 2b36 1146     		mov	r1, r2
 5694 2b38 0722     		movs	r2, #7
 5695 2b3a 2346     		mov	r3, r4
 5696 2b3c FFF7FEFF 		bl	write_LCD
 641:.\LCD.c       ****                 write_LCD(lcd,button[38][x],7,x+6,1,0x2110,'Y');   //Nombre de imagen Teclado Placa
 5697              		.loc 1 641 0 discriminator 3
 5698 2b40 FB7B     		ldrb	r3, [r7, #15]	@ zero_extendqisi2
 5699 2b42 0133     		adds	r3, r3, #1
 5700 2b44 FB73     		strb	r3, [r7, #15]
 5701              	.L223:
 641:.\LCD.c       ****                 write_LCD(lcd,button[38][x],7,x+6,1,0x2110,'Y');   //Nombre de imagen Teclado Placa
 5702              		.loc 1 641 0 is_stmt 0 discriminator 1
 5703 2b46 FB7B     		ldrb	r3, [r7, #15]	@ zero_extendqisi2
 5704 2b48 072B     		cmp	r3, #7
 5705 2b4a C9D9     		bls	.L224
 644:.\LCD.c       ****             }
 645:.\LCD.c       ****         break;
 5706              		.loc 1 645 0 is_stmt 1
 5707 2b4c 7BE3     		b	.L16
 5708              	.L56:
 646:.\LCD.c       ****             
 647:.\LCD.c       ****         case 'n'://Metodo 5
 648:.\LCD.c       ****             for(x=0;x<8;x++){
 5709              		.loc 1 648 0
 5710 2b4e 0023     		movs	r3, #0
 5711 2b50 FB73     		strb	r3, [r7, #15]
 5712 2b52 32E0     		b	.L225
 5713              	.L226:
 649:.\LCD.c       ****                 write_LCD(lcd,button[98][x],1,x+3,3,0x2110,'Y');   //Nombre de imagen Esperando
 5714              		.loc 1 649 0 discriminator 3
 5715 2b54 FB7B     		ldrb	r3, [r7, #15]	@ zero_extendqisi2
 5716 2b56 2D4A     		ldr	r2, .L275
ARM GAS  C:\Users\PROYEC~1\AppData\Local\Temp\ccMsBWpv.s 			page 116


 5717 2b58 1344     		add	r3, r3, r2
 5718 2b5a 93F81033 		ldrb	r3, [r3, #784]
 5719 2b5e DAB2     		uxtb	r2, r3
 5720 2b60 FB7B     		ldrb	r3, [r7, #15]	@ zero_extendqisi2
 5721 2b62 9BB2     		uxth	r3, r3
 5722 2b64 0333     		adds	r3, r3, #3
 5723 2b66 9CB2     		uxth	r4, r3
 5724 2b68 F979     		ldrb	r1, [r7, #7]	@ zero_extendqisi2
 5725 2b6a 0323     		movs	r3, #3
 5726 2b6c 0093     		str	r3, [sp]
 5727 2b6e 42F21013 		movw	r3, #8464
 5728 2b72 0193     		str	r3, [sp, #4]
 5729 2b74 5923     		movs	r3, #89
 5730 2b76 0293     		str	r3, [sp, #8]
 5731 2b78 0846     		mov	r0, r1
 5732 2b7a 1146     		mov	r1, r2
 5733 2b7c 0122     		movs	r2, #1
 5734 2b7e 2346     		mov	r3, r4
 5735 2b80 FFF7FEFF 		bl	write_LCD
 650:.\LCD.c       ****                 write_LCD(lcd,button[96][x],7,x+3,3,0x2110,'Y');   //Nombre de boton metodo 5
 5736              		.loc 1 650 0 discriminator 3
 5737 2b84 FB7B     		ldrb	r3, [r7, #15]	@ zero_extendqisi2
 5738 2b86 214A     		ldr	r2, .L275
 5739 2b88 1344     		add	r3, r3, r2
 5740 2b8a 93F80033 		ldrb	r3, [r3, #768]
 5741 2b8e DAB2     		uxtb	r2, r3
 5742 2b90 FB7B     		ldrb	r3, [r7, #15]	@ zero_extendqisi2
 5743 2b92 9BB2     		uxth	r3, r3
 5744 2b94 0333     		adds	r3, r3, #3
 5745 2b96 9CB2     		uxth	r4, r3
 5746 2b98 F979     		ldrb	r1, [r7, #7]	@ zero_extendqisi2
 5747 2b9a 0323     		movs	r3, #3
 5748 2b9c 0093     		str	r3, [sp]
 5749 2b9e 42F21013 		movw	r3, #8464
 5750 2ba2 0193     		str	r3, [sp, #4]
 5751 2ba4 5923     		movs	r3, #89
 5752 2ba6 0293     		str	r3, [sp, #8]
 5753 2ba8 0846     		mov	r0, r1
 5754 2baa 1146     		mov	r1, r2
 5755 2bac 0722     		movs	r2, #7
 5756 2bae 2346     		mov	r3, r4
 5757 2bb0 FFF7FEFF 		bl	write_LCD
 648:.\LCD.c       ****                 write_LCD(lcd,button[98][x],1,x+3,3,0x2110,'Y');   //Nombre de imagen Esperando
 5758              		.loc 1 648 0 discriminator 3
 5759 2bb4 FB7B     		ldrb	r3, [r7, #15]	@ zero_extendqisi2
 5760 2bb6 0133     		adds	r3, r3, #1
 5761 2bb8 FB73     		strb	r3, [r7, #15]
 5762              	.L225:
 648:.\LCD.c       ****                 write_LCD(lcd,button[98][x],1,x+3,3,0x2110,'Y');   //Nombre de imagen Esperando
 5763              		.loc 1 648 0 is_stmt 0 discriminator 1
 5764 2bba FB7B     		ldrb	r3, [r7, #15]	@ zero_extendqisi2
 5765 2bbc 072B     		cmp	r3, #7
 5766 2bbe C9D9     		bls	.L226
 651:.\LCD.c       ****             }
 652:.\LCD.c       ****         break;
 5767              		.loc 1 652 0 is_stmt 1
 5768 2bc0 41E3     		b	.L16
ARM GAS  C:\Users\PROYEC~1\AppData\Local\Temp\ccMsBWpv.s 			page 117


 5769              	.L57:
 653:.\LCD.c       ****             
 654:.\LCD.c       ****         case 'o'://Continuar
 655:.\LCD.c       ****             for(x=0;x<8;x++){
 5770              		.loc 1 655 0
 5771 2bc2 0023     		movs	r3, #0
 5772 2bc4 FB73     		strb	r3, [r7, #15]
 5773 2bc6 1AE0     		b	.L227
 5774              	.L228:
 656:.\LCD.c       ****                 write_LCD(lcd,button[99][x],21,x+11,1,0xFFFF,'Y');  //Nombre de boton Continuar
 5775              		.loc 1 656 0 discriminator 3
 5776 2bc8 FB7B     		ldrb	r3, [r7, #15]	@ zero_extendqisi2
 5777 2bca 104A     		ldr	r2, .L275
 5778 2bcc 1344     		add	r3, r3, r2
 5779 2bce 93F81833 		ldrb	r3, [r3, #792]
 5780 2bd2 DAB2     		uxtb	r2, r3
 5781 2bd4 FB7B     		ldrb	r3, [r7, #15]	@ zero_extendqisi2
 5782 2bd6 9BB2     		uxth	r3, r3
 5783 2bd8 0B33     		adds	r3, r3, #11
 5784 2bda 9CB2     		uxth	r4, r3
 5785 2bdc F979     		ldrb	r1, [r7, #7]	@ zero_extendqisi2
 5786 2bde 0123     		movs	r3, #1
 5787 2be0 0093     		str	r3, [sp]
 5788 2be2 4FF6FF73 		movw	r3, #65535
 5789 2be6 0193     		str	r3, [sp, #4]
 5790 2be8 5923     		movs	r3, #89
 5791 2bea 0293     		str	r3, [sp, #8]
 5792 2bec 0846     		mov	r0, r1
 5793 2bee 1146     		mov	r1, r2
 5794 2bf0 1522     		movs	r2, #21
 5795 2bf2 2346     		mov	r3, r4
 5796 2bf4 FFF7FEFF 		bl	write_LCD
 655:.\LCD.c       ****                 write_LCD(lcd,button[99][x],21,x+11,1,0xFFFF,'Y');  //Nombre de boton Continuar
 5797              		.loc 1 655 0 discriminator 3
 5798 2bf8 FB7B     		ldrb	r3, [r7, #15]	@ zero_extendqisi2
 5799 2bfa 0133     		adds	r3, r3, #1
 5800 2bfc FB73     		strb	r3, [r7, #15]
 5801              	.L227:
 655:.\LCD.c       ****                 write_LCD(lcd,button[99][x],21,x+11,1,0xFFFF,'Y');  //Nombre de boton Continuar
 5802              		.loc 1 655 0 is_stmt 0 discriminator 1
 5803 2bfe FB7B     		ldrb	r3, [r7, #15]	@ zero_extendqisi2
 5804 2c00 072B     		cmp	r3, #7
 5805 2c02 E1D9     		bls	.L228
 657:.\LCD.c       ****             }
 658:.\LCD.c       ****         break;
 5806              		.loc 1 658 0 is_stmt 1
 5807 2c04 1FE3     		b	.L16
 5808              	.L50:
 659:.\LCD.c       ****             
 660:.\LCD.c       ****         case 'c'://Canasta
 661:.\LCD.c       ****             for(x=0;x<8;x++){
 5809              		.loc 1 661 0
 5810 2c06 0023     		movs	r3, #0
 5811 2c08 FB73     		strb	r3, [r7, #15]
 5812 2c0a F4E0     		b	.L229
 5813              	.L276:
 5814              		.align	2
ARM GAS  C:\Users\PROYEC~1\AppData\Local\Temp\ccMsBWpv.s 			page 118


 5815              	.L275:
 5816 2c0c 00000000 		.word	button
 5817              	.L230:
 662:.\LCD.c       ****                 write_LCD(lcd,button[100][x],1,x+8,0,0x2110,'Y');     //Nombre caja Producto 1
 5818              		.loc 1 662 0 discriminator 3
 5819 2c10 FB7B     		ldrb	r3, [r7, #15]	@ zero_extendqisi2
 5820 2c12 9D4A     		ldr	r2, .L277
 5821 2c14 1344     		add	r3, r3, r2
 5822 2c16 93F82033 		ldrb	r3, [r3, #800]
 5823 2c1a DAB2     		uxtb	r2, r3
 5824 2c1c FB7B     		ldrb	r3, [r7, #15]	@ zero_extendqisi2
 5825 2c1e 9BB2     		uxth	r3, r3
 5826 2c20 0833     		adds	r3, r3, #8
 5827 2c22 9CB2     		uxth	r4, r3
 5828 2c24 F979     		ldrb	r1, [r7, #7]	@ zero_extendqisi2
 5829 2c26 0023     		movs	r3, #0
 5830 2c28 0093     		str	r3, [sp]
 5831 2c2a 42F21013 		movw	r3, #8464
 5832 2c2e 0193     		str	r3, [sp, #4]
 5833 2c30 5923     		movs	r3, #89
 5834 2c32 0293     		str	r3, [sp, #8]
 5835 2c34 0846     		mov	r0, r1
 5836 2c36 1146     		mov	r1, r2
 5837 2c38 0122     		movs	r2, #1
 5838 2c3a 2346     		mov	r3, r4
 5839 2c3c FFF7FEFF 		bl	write_LCD
 663:.\LCD.c       ****                 write_LCD(lcd,button[101][x],1,x+23,0,0x2110,'Y');    //Nombre caja Cantidad 1
 5840              		.loc 1 663 0 discriminator 3
 5841 2c40 FB7B     		ldrb	r3, [r7, #15]	@ zero_extendqisi2
 5842 2c42 914A     		ldr	r2, .L277
 5843 2c44 1344     		add	r3, r3, r2
 5844 2c46 93F82833 		ldrb	r3, [r3, #808]
 5845 2c4a DAB2     		uxtb	r2, r3
 5846 2c4c FB7B     		ldrb	r3, [r7, #15]	@ zero_extendqisi2
 5847 2c4e 9BB2     		uxth	r3, r3
 5848 2c50 1733     		adds	r3, r3, #23
 5849 2c52 9CB2     		uxth	r4, r3
 5850 2c54 F979     		ldrb	r1, [r7, #7]	@ zero_extendqisi2
 5851 2c56 0023     		movs	r3, #0
 5852 2c58 0093     		str	r3, [sp]
 5853 2c5a 42F21013 		movw	r3, #8464
 5854 2c5e 0193     		str	r3, [sp, #4]
 5855 2c60 5923     		movs	r3, #89
 5856 2c62 0293     		str	r3, [sp, #8]
 5857 2c64 0846     		mov	r0, r1
 5858 2c66 1146     		mov	r1, r2
 5859 2c68 0122     		movs	r2, #1
 5860 2c6a 2346     		mov	r3, r4
 5861 2c6c FFF7FEFF 		bl	write_LCD
 664:.\LCD.c       ****                 write_LCD(lcd,button[102][x],1,x+35,0,0x2110,'Y');     //Nombre caja Precio 1
 5862              		.loc 1 664 0 discriminator 3
 5863 2c70 FB7B     		ldrb	r3, [r7, #15]	@ zero_extendqisi2
 5864 2c72 854A     		ldr	r2, .L277
 5865 2c74 1344     		add	r3, r3, r2
 5866 2c76 93F83033 		ldrb	r3, [r3, #816]
 5867 2c7a DAB2     		uxtb	r2, r3
 5868 2c7c FB7B     		ldrb	r3, [r7, #15]	@ zero_extendqisi2
ARM GAS  C:\Users\PROYEC~1\AppData\Local\Temp\ccMsBWpv.s 			page 119


 5869 2c7e 9BB2     		uxth	r3, r3
 5870 2c80 2333     		adds	r3, r3, #35
 5871 2c82 9CB2     		uxth	r4, r3
 5872 2c84 F979     		ldrb	r1, [r7, #7]	@ zero_extendqisi2
 5873 2c86 0023     		movs	r3, #0
 5874 2c88 0093     		str	r3, [sp]
 5875 2c8a 42F21013 		movw	r3, #8464
 5876 2c8e 0193     		str	r3, [sp, #4]
 5877 2c90 5923     		movs	r3, #89
 5878 2c92 0293     		str	r3, [sp, #8]
 5879 2c94 0846     		mov	r0, r1
 5880 2c96 1146     		mov	r1, r2
 5881 2c98 0122     		movs	r2, #1
 5882 2c9a 2346     		mov	r3, r4
 5883 2c9c FFF7FEFF 		bl	write_LCD
 665:.\LCD.c       ****                 write_LCD(lcd,button[100][x],9,x+8,0,0x2110,'Y');     //Nombre caja Producto 2
 5884              		.loc 1 665 0 discriminator 3
 5885 2ca0 FB7B     		ldrb	r3, [r7, #15]	@ zero_extendqisi2
 5886 2ca2 794A     		ldr	r2, .L277
 5887 2ca4 1344     		add	r3, r3, r2
 5888 2ca6 93F82033 		ldrb	r3, [r3, #800]
 5889 2caa DAB2     		uxtb	r2, r3
 5890 2cac FB7B     		ldrb	r3, [r7, #15]	@ zero_extendqisi2
 5891 2cae 9BB2     		uxth	r3, r3
 5892 2cb0 0833     		adds	r3, r3, #8
 5893 2cb2 9CB2     		uxth	r4, r3
 5894 2cb4 F979     		ldrb	r1, [r7, #7]	@ zero_extendqisi2
 5895 2cb6 0023     		movs	r3, #0
 5896 2cb8 0093     		str	r3, [sp]
 5897 2cba 42F21013 		movw	r3, #8464
 5898 2cbe 0193     		str	r3, [sp, #4]
 5899 2cc0 5923     		movs	r3, #89
 5900 2cc2 0293     		str	r3, [sp, #8]
 5901 2cc4 0846     		mov	r0, r1
 5902 2cc6 1146     		mov	r1, r2
 5903 2cc8 0922     		movs	r2, #9
 5904 2cca 2346     		mov	r3, r4
 5905 2ccc FFF7FEFF 		bl	write_LCD
 666:.\LCD.c       ****                 write_LCD(lcd,button[101][x],9,x+23,0,0x2110,'Y');    //Nombre caja Cantidad 2
 5906              		.loc 1 666 0 discriminator 3
 5907 2cd0 FB7B     		ldrb	r3, [r7, #15]	@ zero_extendqisi2
 5908 2cd2 6D4A     		ldr	r2, .L277
 5909 2cd4 1344     		add	r3, r3, r2
 5910 2cd6 93F82833 		ldrb	r3, [r3, #808]
 5911 2cda DAB2     		uxtb	r2, r3
 5912 2cdc FB7B     		ldrb	r3, [r7, #15]	@ zero_extendqisi2
 5913 2cde 9BB2     		uxth	r3, r3
 5914 2ce0 1733     		adds	r3, r3, #23
 5915 2ce2 9CB2     		uxth	r4, r3
 5916 2ce4 F979     		ldrb	r1, [r7, #7]	@ zero_extendqisi2
 5917 2ce6 0023     		movs	r3, #0
 5918 2ce8 0093     		str	r3, [sp]
 5919 2cea 42F21013 		movw	r3, #8464
 5920 2cee 0193     		str	r3, [sp, #4]
 5921 2cf0 5923     		movs	r3, #89
 5922 2cf2 0293     		str	r3, [sp, #8]
 5923 2cf4 0846     		mov	r0, r1
ARM GAS  C:\Users\PROYEC~1\AppData\Local\Temp\ccMsBWpv.s 			page 120


 5924 2cf6 1146     		mov	r1, r2
 5925 2cf8 0922     		movs	r2, #9
 5926 2cfa 2346     		mov	r3, r4
 5927 2cfc FFF7FEFF 		bl	write_LCD
 667:.\LCD.c       ****                 write_LCD(lcd,button[102][x],9,x+35,0,0x2110,'Y');     //Nombre caja Precio 2
 5928              		.loc 1 667 0 discriminator 3
 5929 2d00 FB7B     		ldrb	r3, [r7, #15]	@ zero_extendqisi2
 5930 2d02 614A     		ldr	r2, .L277
 5931 2d04 1344     		add	r3, r3, r2
 5932 2d06 93F83033 		ldrb	r3, [r3, #816]
 5933 2d0a DAB2     		uxtb	r2, r3
 5934 2d0c FB7B     		ldrb	r3, [r7, #15]	@ zero_extendqisi2
 5935 2d0e 9BB2     		uxth	r3, r3
 5936 2d10 2333     		adds	r3, r3, #35
 5937 2d12 9CB2     		uxth	r4, r3
 5938 2d14 F979     		ldrb	r1, [r7, #7]	@ zero_extendqisi2
 5939 2d16 0023     		movs	r3, #0
 5940 2d18 0093     		str	r3, [sp]
 5941 2d1a 42F21013 		movw	r3, #8464
 5942 2d1e 0193     		str	r3, [sp, #4]
 5943 2d20 5923     		movs	r3, #89
 5944 2d22 0293     		str	r3, [sp, #8]
 5945 2d24 0846     		mov	r0, r1
 5946 2d26 1146     		mov	r1, r2
 5947 2d28 0922     		movs	r2, #9
 5948 2d2a 2346     		mov	r3, r4
 5949 2d2c FFF7FEFF 		bl	write_LCD
 668:.\LCD.c       ****                 write_LCD(lcd,button[100][x],17,x+8,0,0x2110,'Y');     //Nombre caja Producto 3
 5950              		.loc 1 668 0 discriminator 3
 5951 2d30 FB7B     		ldrb	r3, [r7, #15]	@ zero_extendqisi2
 5952 2d32 554A     		ldr	r2, .L277
 5953 2d34 1344     		add	r3, r3, r2
 5954 2d36 93F82033 		ldrb	r3, [r3, #800]
 5955 2d3a DAB2     		uxtb	r2, r3
 5956 2d3c FB7B     		ldrb	r3, [r7, #15]	@ zero_extendqisi2
 5957 2d3e 9BB2     		uxth	r3, r3
 5958 2d40 0833     		adds	r3, r3, #8
 5959 2d42 9CB2     		uxth	r4, r3
 5960 2d44 F979     		ldrb	r1, [r7, #7]	@ zero_extendqisi2
 5961 2d46 0023     		movs	r3, #0
 5962 2d48 0093     		str	r3, [sp]
 5963 2d4a 42F21013 		movw	r3, #8464
 5964 2d4e 0193     		str	r3, [sp, #4]
 5965 2d50 5923     		movs	r3, #89
 5966 2d52 0293     		str	r3, [sp, #8]
 5967 2d54 0846     		mov	r0, r1
 5968 2d56 1146     		mov	r1, r2
 5969 2d58 1122     		movs	r2, #17
 5970 2d5a 2346     		mov	r3, r4
 5971 2d5c FFF7FEFF 		bl	write_LCD
 669:.\LCD.c       ****                 write_LCD(lcd,button[101][x],17,x+23,0,0x2110,'Y');    //Nombre caja Cantidad 3
 5972              		.loc 1 669 0 discriminator 3
 5973 2d60 FB7B     		ldrb	r3, [r7, #15]	@ zero_extendqisi2
 5974 2d62 494A     		ldr	r2, .L277
 5975 2d64 1344     		add	r3, r3, r2
 5976 2d66 93F82833 		ldrb	r3, [r3, #808]
 5977 2d6a DAB2     		uxtb	r2, r3
ARM GAS  C:\Users\PROYEC~1\AppData\Local\Temp\ccMsBWpv.s 			page 121


 5978 2d6c FB7B     		ldrb	r3, [r7, #15]	@ zero_extendqisi2
 5979 2d6e 9BB2     		uxth	r3, r3
 5980 2d70 1733     		adds	r3, r3, #23
 5981 2d72 9CB2     		uxth	r4, r3
 5982 2d74 F979     		ldrb	r1, [r7, #7]	@ zero_extendqisi2
 5983 2d76 0023     		movs	r3, #0
 5984 2d78 0093     		str	r3, [sp]
 5985 2d7a 42F21013 		movw	r3, #8464
 5986 2d7e 0193     		str	r3, [sp, #4]
 5987 2d80 5923     		movs	r3, #89
 5988 2d82 0293     		str	r3, [sp, #8]
 5989 2d84 0846     		mov	r0, r1
 5990 2d86 1146     		mov	r1, r2
 5991 2d88 1122     		movs	r2, #17
 5992 2d8a 2346     		mov	r3, r4
 5993 2d8c FFF7FEFF 		bl	write_LCD
 670:.\LCD.c       ****                 write_LCD(lcd,button[102][x],17,x+35,0,0x2110,'Y');     //Nombre caja Precio 3
 5994              		.loc 1 670 0 discriminator 3
 5995 2d90 FB7B     		ldrb	r3, [r7, #15]	@ zero_extendqisi2
 5996 2d92 3D4A     		ldr	r2, .L277
 5997 2d94 1344     		add	r3, r3, r2
 5998 2d96 93F83033 		ldrb	r3, [r3, #816]
 5999 2d9a DAB2     		uxtb	r2, r3
 6000 2d9c FB7B     		ldrb	r3, [r7, #15]	@ zero_extendqisi2
 6001 2d9e 9BB2     		uxth	r3, r3
 6002 2da0 2333     		adds	r3, r3, #35
 6003 2da2 9CB2     		uxth	r4, r3
 6004 2da4 F979     		ldrb	r1, [r7, #7]	@ zero_extendqisi2
 6005 2da6 0023     		movs	r3, #0
 6006 2da8 0093     		str	r3, [sp]
 6007 2daa 42F21013 		movw	r3, #8464
 6008 2dae 0193     		str	r3, [sp, #4]
 6009 2db0 5923     		movs	r3, #89
 6010 2db2 0293     		str	r3, [sp, #8]
 6011 2db4 0846     		mov	r0, r1
 6012 2db6 1146     		mov	r1, r2
 6013 2db8 1122     		movs	r2, #17
 6014 2dba 2346     		mov	r3, r4
 6015 2dbc FFF7FEFF 		bl	write_LCD
 671:.\LCD.c       ****                 write_LCD(lcd,button[103][x],25,x+15,1,0x2110,'Y');    //Nombre caja Total
 6016              		.loc 1 671 0 discriminator 3
 6017 2dc0 FB7B     		ldrb	r3, [r7, #15]	@ zero_extendqisi2
 6018 2dc2 314A     		ldr	r2, .L277
 6019 2dc4 1344     		add	r3, r3, r2
 6020 2dc6 93F83833 		ldrb	r3, [r3, #824]
 6021 2dca DAB2     		uxtb	r2, r3
 6022 2dcc FB7B     		ldrb	r3, [r7, #15]	@ zero_extendqisi2
 6023 2dce 9BB2     		uxth	r3, r3
 6024 2dd0 0F33     		adds	r3, r3, #15
 6025 2dd2 9CB2     		uxth	r4, r3
 6026 2dd4 F979     		ldrb	r1, [r7, #7]	@ zero_extendqisi2
 6027 2dd6 0123     		movs	r3, #1
 6028 2dd8 0093     		str	r3, [sp]
 6029 2dda 42F21013 		movw	r3, #8464
 6030 2dde 0193     		str	r3, [sp, #4]
 6031 2de0 5923     		movs	r3, #89
 6032 2de2 0293     		str	r3, [sp, #8]
ARM GAS  C:\Users\PROYEC~1\AppData\Local\Temp\ccMsBWpv.s 			page 122


 6033 2de4 0846     		mov	r0, r1
 6034 2de6 1146     		mov	r1, r2
 6035 2de8 1922     		movs	r2, #25
 6036 2dea 2346     		mov	r3, r4
 6037 2dec FFF7FEFF 		bl	write_LCD
 661:.\LCD.c       ****                 write_LCD(lcd,button[100][x],1,x+8,0,0x2110,'Y');     //Nombre caja Producto 1
 6038              		.loc 1 661 0 discriminator 3
 6039 2df0 FB7B     		ldrb	r3, [r7, #15]	@ zero_extendqisi2
 6040 2df2 0133     		adds	r3, r3, #1
 6041 2df4 FB73     		strb	r3, [r7, #15]
 6042              	.L229:
 661:.\LCD.c       ****                 write_LCD(lcd,button[100][x],1,x+8,0,0x2110,'Y');     //Nombre caja Producto 1
 6043              		.loc 1 661 0 is_stmt 0 discriminator 1
 6044 2df6 FB7B     		ldrb	r3, [r7, #15]	@ zero_extendqisi2
 6045 2df8 072B     		cmp	r3, #7
 6046 2dfa 7FF609AF 		bls	.L230
 672:.\LCD.c       ****             }
 673:.\LCD.c       ****             write_LCD(lcd,symbols[0],5,34,0,0x0000,'Y');
 6047              		.loc 1 673 0 is_stmt 1
 6048 2dfe 234B     		ldr	r3, .L277+4
 6049 2e00 1B78     		ldrb	r3, [r3]
 6050 2e02 DAB2     		uxtb	r2, r3
 6051 2e04 F979     		ldrb	r1, [r7, #7]	@ zero_extendqisi2
 6052 2e06 0023     		movs	r3, #0
 6053 2e08 0093     		str	r3, [sp]
 6054 2e0a 0023     		movs	r3, #0
 6055 2e0c 0193     		str	r3, [sp, #4]
 6056 2e0e 5923     		movs	r3, #89
 6057 2e10 0293     		str	r3, [sp, #8]
 6058 2e12 0846     		mov	r0, r1
 6059 2e14 1146     		mov	r1, r2
 6060 2e16 0522     		movs	r2, #5
 6061 2e18 2223     		movs	r3, #34
 6062 2e1a FFF7FEFF 		bl	write_LCD
 674:.\LCD.c       ****             write_LCD(lcd,symbols[0],13,34,0,0x0000,'Y');
 6063              		.loc 1 674 0
 6064 2e1e 1B4B     		ldr	r3, .L277+4
 6065 2e20 1B78     		ldrb	r3, [r3]
 6066 2e22 DAB2     		uxtb	r2, r3
 6067 2e24 F979     		ldrb	r1, [r7, #7]	@ zero_extendqisi2
 6068 2e26 0023     		movs	r3, #0
 6069 2e28 0093     		str	r3, [sp]
 6070 2e2a 0023     		movs	r3, #0
 6071 2e2c 0193     		str	r3, [sp, #4]
 6072 2e2e 5923     		movs	r3, #89
 6073 2e30 0293     		str	r3, [sp, #8]
 6074 2e32 0846     		mov	r0, r1
 6075 2e34 1146     		mov	r1, r2
 6076 2e36 0D22     		movs	r2, #13
 6077 2e38 2223     		movs	r3, #34
 6078 2e3a FFF7FEFF 		bl	write_LCD
 675:.\LCD.c       ****             write_LCD(lcd,symbols[0],21,34,0,0x0000,'Y');
 6079              		.loc 1 675 0
 6080 2e3e 134B     		ldr	r3, .L277+4
 6081 2e40 1B78     		ldrb	r3, [r3]
 6082 2e42 DAB2     		uxtb	r2, r3
 6083 2e44 F979     		ldrb	r1, [r7, #7]	@ zero_extendqisi2
ARM GAS  C:\Users\PROYEC~1\AppData\Local\Temp\ccMsBWpv.s 			page 123


 6084 2e46 0023     		movs	r3, #0
 6085 2e48 0093     		str	r3, [sp]
 6086 2e4a 0023     		movs	r3, #0
 6087 2e4c 0193     		str	r3, [sp, #4]
 6088 2e4e 5923     		movs	r3, #89
 6089 2e50 0293     		str	r3, [sp, #8]
 6090 2e52 0846     		mov	r0, r1
 6091 2e54 1146     		mov	r1, r2
 6092 2e56 1522     		movs	r2, #21
 6093 2e58 2223     		movs	r3, #34
 6094 2e5a FFF7FEFF 		bl	write_LCD
 676:.\LCD.c       ****             write_LCD(lcd,symbols[0],29,13,1,0x0000,'Y');
 6095              		.loc 1 676 0
 6096 2e5e 0B4B     		ldr	r3, .L277+4
 6097 2e60 1B78     		ldrb	r3, [r3]
 6098 2e62 DAB2     		uxtb	r2, r3
 6099 2e64 F979     		ldrb	r1, [r7, #7]	@ zero_extendqisi2
 6100 2e66 0123     		movs	r3, #1
 6101 2e68 0093     		str	r3, [sp]
 6102 2e6a 0023     		movs	r3, #0
 6103 2e6c 0193     		str	r3, [sp, #4]
 6104 2e6e 5923     		movs	r3, #89
 6105 2e70 0293     		str	r3, [sp, #8]
 6106 2e72 0846     		mov	r0, r1
 6107 2e74 1146     		mov	r1, r2
 6108 2e76 1D22     		movs	r2, #29
 6109 2e78 0D23     		movs	r3, #13
 6110 2e7a FFF7FEFF 		bl	write_LCD
 677:.\LCD.c       ****         break;
 6111              		.loc 1 677 0
 6112 2e7e E2E1     		b	.L16
 6113              	.L60:
 678:.\LCD.c       ****             
 679:.\LCD.c       ****         case 'u'://Mantenimiento
 680:.\LCD.c       ****             for(x=0;x<8;x++){
 6114              		.loc 1 680 0
 6115 2e80 0023     		movs	r3, #0
 6116 2e82 FB73     		strb	r3, [r7, #15]
 6117 2e84 4FE0     		b	.L231
 6118              	.L278:
 6119 2e86 00BF     		.align	2
 6120              	.L277:
 6121 2e88 00000000 		.word	button
 6122 2e8c 00000000 		.word	symbols
 6123              	.L232:
 681:.\LCD.c       ****                 write_LCD(lcd,button[106][x],9,x+11,1,0xFFFF,'Y');  //Nombre de boton Calibrar
 6124              		.loc 1 681 0 discriminator 3
 6125 2e90 FB7B     		ldrb	r3, [r7, #15]	@ zero_extendqisi2
 6126 2e92 A74A     		ldr	r2, .L279
 6127 2e94 1344     		add	r3, r3, r2
 6128 2e96 93F85033 		ldrb	r3, [r3, #848]
 6129 2e9a DAB2     		uxtb	r2, r3
 6130 2e9c FB7B     		ldrb	r3, [r7, #15]	@ zero_extendqisi2
 6131 2e9e 9BB2     		uxth	r3, r3
 6132 2ea0 0B33     		adds	r3, r3, #11
 6133 2ea2 9CB2     		uxth	r4, r3
 6134 2ea4 F979     		ldrb	r1, [r7, #7]	@ zero_extendqisi2
ARM GAS  C:\Users\PROYEC~1\AppData\Local\Temp\ccMsBWpv.s 			page 124


 6135 2ea6 0123     		movs	r3, #1
 6136 2ea8 0093     		str	r3, [sp]
 6137 2eaa 4FF6FF73 		movw	r3, #65535
 6138 2eae 0193     		str	r3, [sp, #4]
 6139 2eb0 5923     		movs	r3, #89
 6140 2eb2 0293     		str	r3, [sp, #8]
 6141 2eb4 0846     		mov	r0, r1
 6142 2eb6 1146     		mov	r1, r2
 6143 2eb8 0922     		movs	r2, #9
 6144 2eba 2346     		mov	r3, r4
 6145 2ebc FFF7FEFF 		bl	write_LCD
 682:.\LCD.c       ****                 write_LCD(lcd,button[107][x],15,x+11,1,0xFFFF,'Y');  //Nombre de boton Imprimir
 6146              		.loc 1 682 0 discriminator 3
 6147 2ec0 FB7B     		ldrb	r3, [r7, #15]	@ zero_extendqisi2
 6148 2ec2 9B4A     		ldr	r2, .L279
 6149 2ec4 1344     		add	r3, r3, r2
 6150 2ec6 93F85833 		ldrb	r3, [r3, #856]
 6151 2eca DAB2     		uxtb	r2, r3
 6152 2ecc FB7B     		ldrb	r3, [r7, #15]	@ zero_extendqisi2
 6153 2ece 9BB2     		uxth	r3, r3
 6154 2ed0 0B33     		adds	r3, r3, #11
 6155 2ed2 9CB2     		uxth	r4, r3
 6156 2ed4 F979     		ldrb	r1, [r7, #7]	@ zero_extendqisi2
 6157 2ed6 0123     		movs	r3, #1
 6158 2ed8 0093     		str	r3, [sp]
 6159 2eda 4FF6FF73 		movw	r3, #65535
 6160 2ede 0193     		str	r3, [sp, #4]
 6161 2ee0 5923     		movs	r3, #89
 6162 2ee2 0293     		str	r3, [sp, #8]
 6163 2ee4 0846     		mov	r0, r1
 6164 2ee6 1146     		mov	r1, r2
 6165 2ee8 0F22     		movs	r2, #15
 6166 2eea 2346     		mov	r3, r4
 6167 2eec FFF7FEFF 		bl	write_LCD
 683:.\LCD.c       ****                 write_LCD(lcd,button[18][x],21,x+11,1,0xFFFF,'Y');  //Nombre de boton Surtidor
 6168              		.loc 1 683 0 discriminator 3
 6169 2ef0 FB7B     		ldrb	r3, [r7, #15]	@ zero_extendqisi2
 6170 2ef2 8F4A     		ldr	r2, .L279
 6171 2ef4 1344     		add	r3, r3, r2
 6172 2ef6 93F89030 		ldrb	r3, [r3, #144]
 6173 2efa DAB2     		uxtb	r2, r3
 6174 2efc FB7B     		ldrb	r3, [r7, #15]	@ zero_extendqisi2
 6175 2efe 9BB2     		uxth	r3, r3
 6176 2f00 0B33     		adds	r3, r3, #11
 6177 2f02 9CB2     		uxth	r4, r3
 6178 2f04 F979     		ldrb	r1, [r7, #7]	@ zero_extendqisi2
 6179 2f06 0123     		movs	r3, #1
 6180 2f08 0093     		str	r3, [sp]
 6181 2f0a 4FF6FF73 		movw	r3, #65535
 6182 2f0e 0193     		str	r3, [sp, #4]
 6183 2f10 5923     		movs	r3, #89
 6184 2f12 0293     		str	r3, [sp, #8]
 6185 2f14 0846     		mov	r0, r1
 6186 2f16 1146     		mov	r1, r2
 6187 2f18 1522     		movs	r2, #21
 6188 2f1a 2346     		mov	r3, r4
 6189 2f1c FFF7FEFF 		bl	write_LCD
ARM GAS  C:\Users\PROYEC~1\AppData\Local\Temp\ccMsBWpv.s 			page 125


 680:.\LCD.c       ****                 write_LCD(lcd,button[106][x],9,x+11,1,0xFFFF,'Y');  //Nombre de boton Calibrar
 6190              		.loc 1 680 0 discriminator 3
 6191 2f20 FB7B     		ldrb	r3, [r7, #15]	@ zero_extendqisi2
 6192 2f22 0133     		adds	r3, r3, #1
 6193 2f24 FB73     		strb	r3, [r7, #15]
 6194              	.L231:
 680:.\LCD.c       ****                 write_LCD(lcd,button[106][x],9,x+11,1,0xFFFF,'Y');  //Nombre de boton Calibrar
 6195              		.loc 1 680 0 is_stmt 0 discriminator 1
 6196 2f26 FB7B     		ldrb	r3, [r7, #15]	@ zero_extendqisi2
 6197 2f28 072B     		cmp	r3, #7
 6198 2f2a B1D9     		bls	.L232
 684:.\LCD.c       ****             }
 685:.\LCD.c       ****         break;
 6199              		.loc 1 685 0 is_stmt 1
 6200 2f2c 8BE1     		b	.L16
 6201              	.L58:
 686:.\LCD.c       ****             
 687:.\LCD.c       ****         case 'p'://impresoras
 688:.\LCD.c       ****             for(x=0;x<8;x++){
 6202              		.loc 1 688 0
 6203 2f2e 0023     		movs	r3, #0
 6204 2f30 FB73     		strb	r3, [r7, #15]
 6205 2f32 4AE0     		b	.L233
 6206              	.L234:
 689:.\LCD.c       ****                 write_LCD(lcd,button[108][x],6,x+1,2,0x2110,'Y');  //Nombre de boton Calibrar
 6207              		.loc 1 689 0 discriminator 3
 6208 2f34 FB7B     		ldrb	r3, [r7, #15]	@ zero_extendqisi2
 6209 2f36 7E4A     		ldr	r2, .L279
 6210 2f38 1344     		add	r3, r3, r2
 6211 2f3a 93F86033 		ldrb	r3, [r3, #864]
 6212 2f3e DAB2     		uxtb	r2, r3
 6213 2f40 FB7B     		ldrb	r3, [r7, #15]	@ zero_extendqisi2
 6214 2f42 9BB2     		uxth	r3, r3
 6215 2f44 0133     		adds	r3, r3, #1
 6216 2f46 9CB2     		uxth	r4, r3
 6217 2f48 F979     		ldrb	r1, [r7, #7]	@ zero_extendqisi2
 6218 2f4a 0223     		movs	r3, #2
 6219 2f4c 0093     		str	r3, [sp]
 6220 2f4e 42F21013 		movw	r3, #8464
 6221 2f52 0193     		str	r3, [sp, #4]
 6222 2f54 5923     		movs	r3, #89
 6223 2f56 0293     		str	r3, [sp, #8]
 6224 2f58 0846     		mov	r0, r1
 6225 2f5a 1146     		mov	r1, r2
 6226 2f5c 0622     		movs	r2, #6
 6227 2f5e 2346     		mov	r3, r4
 6228 2f60 FFF7FEFF 		bl	write_LCD
 690:.\LCD.c       ****                 write_LCD(lcd,button[109][x],6,x+9,2,0x2110,'Y');  //Nombre de boton Imprimir
 6229              		.loc 1 690 0 discriminator 3
 6230 2f64 FB7B     		ldrb	r3, [r7, #15]	@ zero_extendqisi2
 6231 2f66 724A     		ldr	r2, .L279
 6232 2f68 1344     		add	r3, r3, r2
 6233 2f6a 93F86833 		ldrb	r3, [r3, #872]
 6234 2f6e DAB2     		uxtb	r2, r3
 6235 2f70 FB7B     		ldrb	r3, [r7, #15]	@ zero_extendqisi2
 6236 2f72 9BB2     		uxth	r3, r3
 6237 2f74 0933     		adds	r3, r3, #9
ARM GAS  C:\Users\PROYEC~1\AppData\Local\Temp\ccMsBWpv.s 			page 126


 6238 2f76 9CB2     		uxth	r4, r3
 6239 2f78 F979     		ldrb	r1, [r7, #7]	@ zero_extendqisi2
 6240 2f7a 0223     		movs	r3, #2
 6241 2f7c 0093     		str	r3, [sp]
 6242 2f7e 42F21013 		movw	r3, #8464
 6243 2f82 0193     		str	r3, [sp, #4]
 6244 2f84 5923     		movs	r3, #89
 6245 2f86 0293     		str	r3, [sp, #8]
 6246 2f88 0846     		mov	r0, r1
 6247 2f8a 1146     		mov	r1, r2
 6248 2f8c 0622     		movs	r2, #6
 6249 2f8e 2346     		mov	r3, r4
 6250 2f90 FFF7FEFF 		bl	write_LCD
 691:.\LCD.c       ****                 write_LCD(lcd,button[99][x],21,x+11,1,0xFFFF,'Y');  //Nombre de boton Continuar
 6251              		.loc 1 691 0 discriminator 3
 6252 2f94 FB7B     		ldrb	r3, [r7, #15]	@ zero_extendqisi2
 6253 2f96 664A     		ldr	r2, .L279
 6254 2f98 1344     		add	r3, r3, r2
 6255 2f9a 93F81833 		ldrb	r3, [r3, #792]
 6256 2f9e DAB2     		uxtb	r2, r3
 6257 2fa0 FB7B     		ldrb	r3, [r7, #15]	@ zero_extendqisi2
 6258 2fa2 9BB2     		uxth	r3, r3
 6259 2fa4 0B33     		adds	r3, r3, #11
 6260 2fa6 9CB2     		uxth	r4, r3
 6261 2fa8 F979     		ldrb	r1, [r7, #7]	@ zero_extendqisi2
 6262 2faa 0123     		movs	r3, #1
 6263 2fac 0093     		str	r3, [sp]
 6264 2fae 4FF6FF73 		movw	r3, #65535
 6265 2fb2 0193     		str	r3, [sp, #4]
 6266 2fb4 5923     		movs	r3, #89
 6267 2fb6 0293     		str	r3, [sp, #8]
 6268 2fb8 0846     		mov	r0, r1
 6269 2fba 1146     		mov	r1, r2
 6270 2fbc 1522     		movs	r2, #21
 6271 2fbe 2346     		mov	r3, r4
 6272 2fc0 FFF7FEFF 		bl	write_LCD
 688:.\LCD.c       ****                 write_LCD(lcd,button[108][x],6,x+1,2,0x2110,'Y');  //Nombre de boton Calibrar
 6273              		.loc 1 688 0 discriminator 3
 6274 2fc4 FB7B     		ldrb	r3, [r7, #15]	@ zero_extendqisi2
 6275 2fc6 0133     		adds	r3, r3, #1
 6276 2fc8 FB73     		strb	r3, [r7, #15]
 6277              	.L233:
 688:.\LCD.c       ****                 write_LCD(lcd,button[108][x],6,x+1,2,0x2110,'Y');  //Nombre de boton Calibrar
 6278              		.loc 1 688 0 is_stmt 0 discriminator 1
 6279 2fca FB7B     		ldrb	r3, [r7, #15]	@ zero_extendqisi2
 6280 2fcc 072B     		cmp	r3, #7
 6281 2fce B1D9     		bls	.L234
 692:.\LCD.c       ****             }
 693:.\LCD.c       ****         break;
 6282              		.loc 1 693 0 is_stmt 1
 6283 2fd0 39E1     		b	.L16
 6284              	.L62:
 694:.\LCD.c       ****             
 695:.\LCD.c       ****         case 'y'://Abrir Turno
 696:.\LCD.c       ****             for(x=0;x<8;x++){
 6285              		.loc 1 696 0
 6286 2fd2 0023     		movs	r3, #0
ARM GAS  C:\Users\PROYEC~1\AppData\Local\Temp\ccMsBWpv.s 			page 127


 6287 2fd4 FB73     		strb	r3, [r7, #15]
 6288 2fd6 31E0     		b	.L235
 6289              	.L236:
 697:.\LCD.c       ****                 write_LCD(lcd,button[1][x],10,x+1,3,0x2110,'Y');    //Nombre de boton Turnos
 6290              		.loc 1 697 0 discriminator 3
 6291 2fd8 FB7B     		ldrb	r3, [r7, #15]	@ zero_extendqisi2
 6292 2fda 554A     		ldr	r2, .L279
 6293 2fdc 1344     		add	r3, r3, r2
 6294 2fde 1B7A     		ldrb	r3, [r3, #8]
 6295 2fe0 DAB2     		uxtb	r2, r3
 6296 2fe2 FB7B     		ldrb	r3, [r7, #15]	@ zero_extendqisi2
 6297 2fe4 9BB2     		uxth	r3, r3
 6298 2fe6 0133     		adds	r3, r3, #1
 6299 2fe8 9CB2     		uxth	r4, r3
 6300 2fea F979     		ldrb	r1, [r7, #7]	@ zero_extendqisi2
 6301 2fec 0323     		movs	r3, #3
 6302 2fee 0093     		str	r3, [sp]
 6303 2ff0 42F21013 		movw	r3, #8464
 6304 2ff4 0193     		str	r3, [sp, #4]
 6305 2ff6 5923     		movs	r3, #89
 6306 2ff8 0293     		str	r3, [sp, #8]
 6307 2ffa 0846     		mov	r0, r1
 6308 2ffc 1146     		mov	r1, r2
 6309 2ffe 0A22     		movs	r2, #10
 6310 3000 2346     		mov	r3, r4
 6311 3002 FFF7FEFF 		bl	write_LCD
 698:.\LCD.c       ****                 write_LCD(lcd,button[110][x],21,x+11,1,0xFFFF,'Y');  //Nombre de boton Abrir
 6312              		.loc 1 698 0 discriminator 3
 6313 3006 FB7B     		ldrb	r3, [r7, #15]	@ zero_extendqisi2
 6314 3008 494A     		ldr	r2, .L279
 6315 300a 1344     		add	r3, r3, r2
 6316 300c 93F87033 		ldrb	r3, [r3, #880]
 6317 3010 DAB2     		uxtb	r2, r3
 6318 3012 FB7B     		ldrb	r3, [r7, #15]	@ zero_extendqisi2
 6319 3014 9BB2     		uxth	r3, r3
 6320 3016 0B33     		adds	r3, r3, #11
 6321 3018 9CB2     		uxth	r4, r3
 6322 301a F979     		ldrb	r1, [r7, #7]	@ zero_extendqisi2
 6323 301c 0123     		movs	r3, #1
 6324 301e 0093     		str	r3, [sp]
 6325 3020 4FF6FF73 		movw	r3, #65535
 6326 3024 0193     		str	r3, [sp, #4]
 6327 3026 5923     		movs	r3, #89
 6328 3028 0293     		str	r3, [sp, #8]
 6329 302a 0846     		mov	r0, r1
 6330 302c 1146     		mov	r1, r2
 6331 302e 1522     		movs	r2, #21
 6332 3030 2346     		mov	r3, r4
 6333 3032 FFF7FEFF 		bl	write_LCD
 696:.\LCD.c       ****                 write_LCD(lcd,button[1][x],10,x+1,3,0x2110,'Y');    //Nombre de boton Turnos
 6334              		.loc 1 696 0 discriminator 3
 6335 3036 FB7B     		ldrb	r3, [r7, #15]	@ zero_extendqisi2
 6336 3038 0133     		adds	r3, r3, #1
 6337 303a FB73     		strb	r3, [r7, #15]
 6338              	.L235:
 696:.\LCD.c       ****                 write_LCD(lcd,button[1][x],10,x+1,3,0x2110,'Y');    //Nombre de boton Turnos
 6339              		.loc 1 696 0 is_stmt 0 discriminator 1
ARM GAS  C:\Users\PROYEC~1\AppData\Local\Temp\ccMsBWpv.s 			page 128


 6340 303c FB7B     		ldrb	r3, [r7, #15]	@ zero_extendqisi2
 6341 303e 072B     		cmp	r3, #7
 6342 3040 CAD9     		bls	.L236
 699:.\LCD.c       ****             }
 700:.\LCD.c       ****         break;
 6343              		.loc 1 700 0 is_stmt 1
 6344 3042 00E1     		b	.L16
 6345              	.L61:
 701:.\LCD.c       ****             
 702:.\LCD.c       ****         case 'x'://Cerrar Turno
 703:.\LCD.c       ****             for(x=0;x<8;x++){
 6346              		.loc 1 703 0
 6347 3044 0023     		movs	r3, #0
 6348 3046 FB73     		strb	r3, [r7, #15]
 6349 3048 31E0     		b	.L237
 6350              	.L238:
 704:.\LCD.c       ****                 write_LCD(lcd,button[1][x],10,x+1,3,0x2110,'Y');    //Nombre de boton Turnos
 6351              		.loc 1 704 0 discriminator 3
 6352 304a FB7B     		ldrb	r3, [r7, #15]	@ zero_extendqisi2
 6353 304c 384A     		ldr	r2, .L279
 6354 304e 1344     		add	r3, r3, r2
 6355 3050 1B7A     		ldrb	r3, [r3, #8]
 6356 3052 DAB2     		uxtb	r2, r3
 6357 3054 FB7B     		ldrb	r3, [r7, #15]	@ zero_extendqisi2
 6358 3056 9BB2     		uxth	r3, r3
 6359 3058 0133     		adds	r3, r3, #1
 6360 305a 9CB2     		uxth	r4, r3
 6361 305c F979     		ldrb	r1, [r7, #7]	@ zero_extendqisi2
 6362 305e 0323     		movs	r3, #3
 6363 3060 0093     		str	r3, [sp]
 6364 3062 42F21013 		movw	r3, #8464
 6365 3066 0193     		str	r3, [sp, #4]
 6366 3068 5923     		movs	r3, #89
 6367 306a 0293     		str	r3, [sp, #8]
 6368 306c 0846     		mov	r0, r1
 6369 306e 1146     		mov	r1, r2
 6370 3070 0A22     		movs	r2, #10
 6371 3072 2346     		mov	r3, r4
 6372 3074 FFF7FEFF 		bl	write_LCD
 705:.\LCD.c       ****                 write_LCD(lcd,button[111][x],21,x+11,1,0xFFFF,'Y');  //Nombre de boton Cerrar
 6373              		.loc 1 705 0 discriminator 3
 6374 3078 FB7B     		ldrb	r3, [r7, #15]	@ zero_extendqisi2
 6375 307a 2D4A     		ldr	r2, .L279
 6376 307c 1344     		add	r3, r3, r2
 6377 307e 93F87833 		ldrb	r3, [r3, #888]
 6378 3082 DAB2     		uxtb	r2, r3
 6379 3084 FB7B     		ldrb	r3, [r7, #15]	@ zero_extendqisi2
 6380 3086 9BB2     		uxth	r3, r3
 6381 3088 0B33     		adds	r3, r3, #11
 6382 308a 9CB2     		uxth	r4, r3
 6383 308c F979     		ldrb	r1, [r7, #7]	@ zero_extendqisi2
 6384 308e 0123     		movs	r3, #1
 6385 3090 0093     		str	r3, [sp]
 6386 3092 4FF6FF73 		movw	r3, #65535
 6387 3096 0193     		str	r3, [sp, #4]
 6388 3098 5923     		movs	r3, #89
 6389 309a 0293     		str	r3, [sp, #8]
ARM GAS  C:\Users\PROYEC~1\AppData\Local\Temp\ccMsBWpv.s 			page 129


 6390 309c 0846     		mov	r0, r1
 6391 309e 1146     		mov	r1, r2
 6392 30a0 1522     		movs	r2, #21
 6393 30a2 2346     		mov	r3, r4
 6394 30a4 FFF7FEFF 		bl	write_LCD
 703:.\LCD.c       ****                 write_LCD(lcd,button[1][x],10,x+1,3,0x2110,'Y');    //Nombre de boton Turnos
 6395              		.loc 1 703 0 discriminator 3
 6396 30a8 FB7B     		ldrb	r3, [r7, #15]	@ zero_extendqisi2
 6397 30aa 0133     		adds	r3, r3, #1
 6398 30ac FB73     		strb	r3, [r7, #15]
 6399              	.L237:
 703:.\LCD.c       ****                 write_LCD(lcd,button[1][x],10,x+1,3,0x2110,'Y');    //Nombre de boton Turnos
 6400              		.loc 1 703 0 is_stmt 0 discriminator 1
 6401 30ae FB7B     		ldrb	r3, [r7, #15]	@ zero_extendqisi2
 6402 30b0 072B     		cmp	r3, #7
 6403 30b2 CAD9     		bls	.L238
 706:.\LCD.c       ****             }
 707:.\LCD.c       ****         break;
 6404              		.loc 1 707 0 is_stmt 1
 6405 30b4 C7E0     		b	.L16
 6406              	.L49:
 708:.\LCD.c       ****        
 709:.\LCD.c       ****         case 'a': //Error abrir Turno
 710:.\LCD.c       ****             for(x=0;x<8;x++){
 6407              		.loc 1 710 0
 6408 30b6 0023     		movs	r3, #0
 6409 30b8 FB73     		strb	r3, [r7, #15]
 6410 30ba 31E0     		b	.L239
 6411              	.L240:
 711:.\LCD.c       ****                 write_LCD(lcd,button[110][x],1,x+3,3,0x2110,'Y');   //Nombre de imagen Error de sur
 6412              		.loc 1 711 0 discriminator 3
 6413 30bc FB7B     		ldrb	r3, [r7, #15]	@ zero_extendqisi2
 6414 30be 1C4A     		ldr	r2, .L279
 6415 30c0 1344     		add	r3, r3, r2
 6416 30c2 93F87033 		ldrb	r3, [r3, #880]
 6417 30c6 DAB2     		uxtb	r2, r3
 6418 30c8 FB7B     		ldrb	r3, [r7, #15]	@ zero_extendqisi2
 6419 30ca 9BB2     		uxth	r3, r3
 6420 30cc 0333     		adds	r3, r3, #3
 6421 30ce 9CB2     		uxth	r4, r3
 6422 30d0 F979     		ldrb	r1, [r7, #7]	@ zero_extendqisi2
 6423 30d2 0323     		movs	r3, #3
 6424 30d4 0093     		str	r3, [sp]
 6425 30d6 42F21013 		movw	r3, #8464
 6426 30da 0193     		str	r3, [sp, #4]
 6427 30dc 5923     		movs	r3, #89
 6428 30de 0293     		str	r3, [sp, #8]
 6429 30e0 0846     		mov	r0, r1
 6430 30e2 1146     		mov	r1, r2
 6431 30e4 0122     		movs	r2, #1
 6432 30e6 2346     		mov	r3, r4
 6433 30e8 FFF7FEFF 		bl	write_LCD
 712:.\LCD.c       ****                 write_LCD(lcd,button[1][x],7,x+3,3,0x2110,'Y');   //Nombre de imagen Error de surti
 6434              		.loc 1 712 0 discriminator 3
 6435 30ec FB7B     		ldrb	r3, [r7, #15]	@ zero_extendqisi2
 6436 30ee 104A     		ldr	r2, .L279
 6437 30f0 1344     		add	r3, r3, r2
ARM GAS  C:\Users\PROYEC~1\AppData\Local\Temp\ccMsBWpv.s 			page 130


 6438 30f2 1B7A     		ldrb	r3, [r3, #8]
 6439 30f4 DAB2     		uxtb	r2, r3
 6440 30f6 FB7B     		ldrb	r3, [r7, #15]	@ zero_extendqisi2
 6441 30f8 9BB2     		uxth	r3, r3
 6442 30fa 0333     		adds	r3, r3, #3
 6443 30fc 9CB2     		uxth	r4, r3
 6444 30fe F979     		ldrb	r1, [r7, #7]	@ zero_extendqisi2
 6445 3100 0323     		movs	r3, #3
 6446 3102 0093     		str	r3, [sp]
 6447 3104 42F21013 		movw	r3, #8464
 6448 3108 0193     		str	r3, [sp, #4]
 6449 310a 5923     		movs	r3, #89
 6450 310c 0293     		str	r3, [sp, #8]
 6451 310e 0846     		mov	r0, r1
 6452 3110 1146     		mov	r1, r2
 6453 3112 0722     		movs	r2, #7
 6454 3114 2346     		mov	r3, r4
 6455 3116 FFF7FEFF 		bl	write_LCD
 710:.\LCD.c       ****                 write_LCD(lcd,button[110][x],1,x+3,3,0x2110,'Y');   //Nombre de imagen Error de sur
 6456              		.loc 1 710 0 discriminator 3
 6457 311a FB7B     		ldrb	r3, [r7, #15]	@ zero_extendqisi2
 6458 311c 0133     		adds	r3, r3, #1
 6459 311e FB73     		strb	r3, [r7, #15]
 6460              	.L239:
 710:.\LCD.c       ****                 write_LCD(lcd,button[110][x],1,x+3,3,0x2110,'Y');   //Nombre de imagen Error de sur
 6461              		.loc 1 710 0 is_stmt 0 discriminator 1
 6462 3120 FB7B     		ldrb	r3, [r7, #15]	@ zero_extendqisi2
 6463 3122 072B     		cmp	r3, #7
 6464 3124 CAD9     		bls	.L240
 713:.\LCD.c       ****             }
 714:.\LCD.c       ****         break;    
 6465              		.loc 1 714 0 is_stmt 1
 6466 3126 8EE0     		b	.L16
 6467              	.L43:
 715:.\LCD.c       ****             
 716:.\LCD.c       ****         case 'Q'://Error de Surtidor
 717:.\LCD.c       ****             for(x=0;x<8;x++){
 6468              		.loc 1 717 0
 6469 3128 0023     		movs	r3, #0
 6470 312a FB73     		strb	r3, [r7, #15]
 6471 312c 35E0     		b	.L241
 6472              	.L280:
 6473 312e 00BF     		.align	2
 6474              	.L279:
 6475 3130 00000000 		.word	button
 6476              	.L242:
 718:.\LCD.c       ****                 write_LCD(lcd,button[17][x],1,x+3,3,0x2110,'Y');   //Nombre de imagen Error de surt
 6477              		.loc 1 718 0 discriminator 3
 6478 3134 FB7B     		ldrb	r3, [r7, #15]	@ zero_extendqisi2
 6479 3136 454A     		ldr	r2, .L281
 6480 3138 1344     		add	r3, r3, r2
 6481 313a 93F88830 		ldrb	r3, [r3, #136]
 6482 313e DAB2     		uxtb	r2, r3
 6483 3140 FB7B     		ldrb	r3, [r7, #15]	@ zero_extendqisi2
 6484 3142 9BB2     		uxth	r3, r3
 6485 3144 0333     		adds	r3, r3, #3
 6486 3146 9CB2     		uxth	r4, r3
ARM GAS  C:\Users\PROYEC~1\AppData\Local\Temp\ccMsBWpv.s 			page 131


 6487 3148 F979     		ldrb	r1, [r7, #7]	@ zero_extendqisi2
 6488 314a 0323     		movs	r3, #3
 6489 314c 0093     		str	r3, [sp]
 6490 314e 42F21013 		movw	r3, #8464
 6491 3152 0193     		str	r3, [sp, #4]
 6492 3154 5923     		movs	r3, #89
 6493 3156 0293     		str	r3, [sp, #8]
 6494 3158 0846     		mov	r0, r1
 6495 315a 1146     		mov	r1, r2
 6496 315c 0122     		movs	r2, #1
 6497 315e 2346     		mov	r3, r4
 6498 3160 FFF7FEFF 		bl	write_LCD
 719:.\LCD.c       ****                 write_LCD(lcd,button[18][x],7,x+3,3,0x2110,'Y');   //Nombre de imagen Error de surt
 6499              		.loc 1 719 0 discriminator 3
 6500 3164 FB7B     		ldrb	r3, [r7, #15]	@ zero_extendqisi2
 6501 3166 394A     		ldr	r2, .L281
 6502 3168 1344     		add	r3, r3, r2
 6503 316a 93F89030 		ldrb	r3, [r3, #144]
 6504 316e DAB2     		uxtb	r2, r3
 6505 3170 FB7B     		ldrb	r3, [r7, #15]	@ zero_extendqisi2
 6506 3172 9BB2     		uxth	r3, r3
 6507 3174 0333     		adds	r3, r3, #3
 6508 3176 9CB2     		uxth	r4, r3
 6509 3178 F979     		ldrb	r1, [r7, #7]	@ zero_extendqisi2
 6510 317a 0323     		movs	r3, #3
 6511 317c 0093     		str	r3, [sp]
 6512 317e 42F21013 		movw	r3, #8464
 6513 3182 0193     		str	r3, [sp, #4]
 6514 3184 5923     		movs	r3, #89
 6515 3186 0293     		str	r3, [sp, #8]
 6516 3188 0846     		mov	r0, r1
 6517 318a 1146     		mov	r1, r2
 6518 318c 0722     		movs	r2, #7
 6519 318e 2346     		mov	r3, r4
 6520 3190 FFF7FEFF 		bl	write_LCD
 717:.\LCD.c       ****                 write_LCD(lcd,button[17][x],1,x+3,3,0x2110,'Y');   //Nombre de imagen Error de surt
 6521              		.loc 1 717 0 discriminator 3
 6522 3194 FB7B     		ldrb	r3, [r7, #15]	@ zero_extendqisi2
 6523 3196 0133     		adds	r3, r3, #1
 6524 3198 FB73     		strb	r3, [r7, #15]
 6525              	.L241:
 717:.\LCD.c       ****                 write_LCD(lcd,button[17][x],1,x+3,3,0x2110,'Y');   //Nombre de imagen Error de surt
 6526              		.loc 1 717 0 is_stmt 0 discriminator 1
 6527 319a FB7B     		ldrb	r3, [r7, #15]	@ zero_extendqisi2
 6528 319c 072B     		cmp	r3, #7
 6529 319e C9D9     		bls	.L242
 720:.\LCD.c       ****             }
 721:.\LCD.c       ****         break;
 6530              		.loc 1 721 0 is_stmt 1
 6531 31a0 51E0     		b	.L16
 6532              	.L40:
 722:.\LCD.c       ****             
 723:.\LCD.c       ****         case 'K'://Corte 
 724:.\LCD.c       ****             for(x=0;x<8;x++){
 6533              		.loc 1 724 0
 6534 31a2 0023     		movs	r3, #0
 6535 31a4 FB73     		strb	r3, [r7, #15]
ARM GAS  C:\Users\PROYEC~1\AppData\Local\Temp\ccMsBWpv.s 			page 132


 6536 31a6 4AE0     		b	.L243
 6537              	.L244:
 725:.\LCD.c       ****                 write_LCD(lcd,button[19][x],15,x+5,2,0x2110,'Y');   //Nombre de imagen Corte Renglo
 6538              		.loc 1 725 0 discriminator 3
 6539 31a8 FB7B     		ldrb	r3, [r7, #15]	@ zero_extendqisi2
 6540 31aa 284A     		ldr	r2, .L281
 6541 31ac 1344     		add	r3, r3, r2
 6542 31ae 93F89830 		ldrb	r3, [r3, #152]
 6543 31b2 DAB2     		uxtb	r2, r3
 6544 31b4 FB7B     		ldrb	r3, [r7, #15]	@ zero_extendqisi2
 6545 31b6 9BB2     		uxth	r3, r3
 6546 31b8 0533     		adds	r3, r3, #5
 6547 31ba 9CB2     		uxth	r4, r3
 6548 31bc F979     		ldrb	r1, [r7, #7]	@ zero_extendqisi2
 6549 31be 0223     		movs	r3, #2
 6550 31c0 0093     		str	r3, [sp]
 6551 31c2 42F21013 		movw	r3, #8464
 6552 31c6 0193     		str	r3, [sp, #4]
 6553 31c8 5923     		movs	r3, #89
 6554 31ca 0293     		str	r3, [sp, #8]
 6555 31cc 0846     		mov	r0, r1
 6556 31ce 1146     		mov	r1, r2
 6557 31d0 0F22     		movs	r2, #15
 6558 31d2 2346     		mov	r3, r4
 6559 31d4 FFF7FEFF 		bl	write_LCD
 726:.\LCD.c       ****                 write_LCD(lcd,button[32][x],19,x+5,2,0x2110,'Y');   //Nombre de imagen Corte Renglo
 6560              		.loc 1 726 0 discriminator 3
 6561 31d8 FB7B     		ldrb	r3, [r7, #15]	@ zero_extendqisi2
 6562 31da 1C4A     		ldr	r2, .L281
 6563 31dc 1344     		add	r3, r3, r2
 6564 31de 93F80031 		ldrb	r3, [r3, #256]
 6565 31e2 DAB2     		uxtb	r2, r3
 6566 31e4 FB7B     		ldrb	r3, [r7, #15]	@ zero_extendqisi2
 6567 31e6 9BB2     		uxth	r3, r3
 6568 31e8 0533     		adds	r3, r3, #5
 6569 31ea 9CB2     		uxth	r4, r3
 6570 31ec F979     		ldrb	r1, [r7, #7]	@ zero_extendqisi2
 6571 31ee 0223     		movs	r3, #2
 6572 31f0 0093     		str	r3, [sp]
 6573 31f2 42F21013 		movw	r3, #8464
 6574 31f6 0193     		str	r3, [sp, #4]
 6575 31f8 5923     		movs	r3, #89
 6576 31fa 0293     		str	r3, [sp, #8]
 6577 31fc 0846     		mov	r0, r1
 6578 31fe 1146     		mov	r1, r2
 6579 3200 1322     		movs	r2, #19
 6580 3202 2346     		mov	r3, r4
 6581 3204 FFF7FEFF 		bl	write_LCD
 727:.\LCD.c       ****                 write_LCD(lcd,button[33][x],21,x+5,2,0x2110,'Y');   //Nombre de imagen Corte Renglo
 6582              		.loc 1 727 0 discriminator 3
 6583 3208 FB7B     		ldrb	r3, [r7, #15]	@ zero_extendqisi2
 6584 320a 104A     		ldr	r2, .L281
 6585 320c 1344     		add	r3, r3, r2
 6586 320e 93F80831 		ldrb	r3, [r3, #264]
 6587 3212 DAB2     		uxtb	r2, r3
 6588 3214 FB7B     		ldrb	r3, [r7, #15]	@ zero_extendqisi2
 6589 3216 9BB2     		uxth	r3, r3
ARM GAS  C:\Users\PROYEC~1\AppData\Local\Temp\ccMsBWpv.s 			page 133


 6590 3218 0533     		adds	r3, r3, #5
 6591 321a 9CB2     		uxth	r4, r3
 6592 321c F979     		ldrb	r1, [r7, #7]	@ zero_extendqisi2
 6593 321e 0223     		movs	r3, #2
 6594 3220 0093     		str	r3, [sp]
 6595 3222 42F21013 		movw	r3, #8464
 6596 3226 0193     		str	r3, [sp, #4]
 6597 3228 5923     		movs	r3, #89
 6598 322a 0293     		str	r3, [sp, #8]
 6599 322c 0846     		mov	r0, r1
 6600 322e 1146     		mov	r1, r2
 6601 3230 1522     		movs	r2, #21
 6602 3232 2346     		mov	r3, r4
 6603 3234 FFF7FEFF 		bl	write_LCD
 724:.\LCD.c       ****                 write_LCD(lcd,button[19][x],15,x+5,2,0x2110,'Y');   //Nombre de imagen Corte Renglo
 6604              		.loc 1 724 0 discriminator 3
 6605 3238 FB7B     		ldrb	r3, [r7, #15]	@ zero_extendqisi2
 6606 323a 0133     		adds	r3, r3, #1
 6607 323c FB73     		strb	r3, [r7, #15]
 6608              	.L243:
 724:.\LCD.c       ****                 write_LCD(lcd,button[19][x],15,x+5,2,0x2110,'Y');   //Nombre de imagen Corte Renglo
 6609              		.loc 1 724 0 is_stmt 0 discriminator 1
 6610 323e FB7B     		ldrb	r3, [r7, #15]	@ zero_extendqisi2
 6611 3240 072B     		cmp	r3, #7
 6612 3242 B1D9     		bls	.L244
 728:.\LCD.c       ****             }
 729:.\LCD.c       ****         break;
 6613              		.loc 1 729 0 is_stmt 1
 6614 3244 00BF     		nop
 6615              	.L16:
 730:.\LCD.c       ****     }
 731:.\LCD.c       **** }
 6616              		.loc 1 731 0
 6617 3246 1437     		adds	r7, r7, #20
 6618              		.cfi_def_cfa_offset 12
 6619 3248 BD46     		mov	sp, r7
 6620              		.cfi_def_cfa_register 13
 6621              		@ sp needed
 6622 324a 90BD     		pop	{r4, r7, pc}
 6623              	.L282:
 6624              		.align	2
 6625              	.L281:
 6626 324c 00000000 		.word	button
 6627              		.cfi_endproc
 6628              	.LFE58:
 6629              		.size	write_button, .-write_button
 6630              		.section	.text.show_time_date,"ax",%progbits
 6631              		.align	2
 6632              		.global	show_time_date
 6633              		.thumb
 6634              		.thumb_func
 6635              		.type	show_time_date, %function
 6636              	show_time_date:
 6637              	.LFB59:
 732:.\LCD.c       **** 
 733:.\LCD.c       **** /*
 734:.\LCD.c       **** ***************************************************************************************************
ARM GAS  C:\Users\PROYEC~1\AppData\Local\Temp\ccMsBWpv.s 			page 134


 735:.\LCD.c       **** *                                    void show_time_date(uint8 lcd)
 736:.\LCD.c       **** *
 737:.\LCD.c       **** * Description : 
 738:.\LCD.c       **** *               
 739:.\LCD.c       **** *
 740:.\LCD.c       **** * Argument(s) : none
 741:.\LCD.c       **** *
 742:.\LCD.c       **** * Return(s)   : none
 743:.\LCD.c       **** *
 744:.\LCD.c       **** * Caller(s)   :  
 745:.\LCD.c       **** *
 746:.\LCD.c       **** * Note(s)     : none.
 747:.\LCD.c       **** ***************************************************************************************************
 748:.\LCD.c       **** */
 749:.\LCD.c       **** 
 750:.\LCD.c       **** void show_time_date(uint8 lcd){
 6638              		.loc 1 750 0
 6639              		.cfi_startproc
 6640              		@ args = 0, pretend = 0, frame = 16
 6641              		@ frame_needed = 1, uses_anonymous_args = 0
 6642 0000 90B5     		push	{r4, r7, lr}
 6643              		.cfi_def_cfa_offset 12
 6644              		.cfi_offset 4, -12
 6645              		.cfi_offset 7, -8
 6646              		.cfi_offset 14, -4
 6647 0002 89B0     		sub	sp, sp, #36
 6648              		.cfi_def_cfa_offset 48
 6649 0004 04AF     		add	r7, sp, #16
 6650              		.cfi_def_cfa 7, 32
 6651 0006 0346     		mov	r3, r0
 6652 0008 FB71     		strb	r3, [r7, #7]
 751:.\LCD.c       ****     uint8 x;
 752:.\LCD.c       ****     read_time();
 6653              		.loc 1 752 0
 6654 000a FFF7FEFF 		bl	read_time
 753:.\LCD.c       ****     read_date();
 6655              		.loc 1 753 0
 6656 000e FFF7FEFF 		bl	read_date
 754:.\LCD.c       ****     for(x=0;x<=2;x++){
 6657              		.loc 1 754 0
 6658 0012 0023     		movs	r3, #0
 6659 0014 FB73     		strb	r3, [r7, #15]
 6660 0016 7FE0     		b	.L284
 6661              	.L285:
 755:.\LCD.c       ****         write_LCD(lcd,((time[2-x]&0xF0)>>4)+48,13,3+(3*x),1,0x0000,'N');
 6662              		.loc 1 755 0 discriminator 3
 6663 0018 FB7B     		ldrb	r3, [r7, #15]	@ zero_extendqisi2
 6664 001a C3F10203 		rsb	r3, r3, #2
 6665 001e 694A     		ldr	r2, .L286
 6666 0020 D35C     		ldrb	r3, [r2, r3]
 6667 0022 DBB2     		uxtb	r3, r3
 6668 0024 1B09     		lsrs	r3, r3, #4
 6669 0026 DBB2     		uxtb	r3, r3
 6670 0028 3033     		adds	r3, r3, #48
 6671 002a DAB2     		uxtb	r2, r3
 6672 002c FB7B     		ldrb	r3, [r7, #15]	@ zero_extendqisi2
 6673 002e 0133     		adds	r3, r3, #1
ARM GAS  C:\Users\PROYEC~1\AppData\Local\Temp\ccMsBWpv.s 			page 135


 6674 0030 9BB2     		uxth	r3, r3
 6675 0032 1946     		mov	r1, r3	@ movhi
 6676 0034 4900     		lsls	r1, r1, #1
 6677 0036 0B44     		add	r3, r3, r1
 6678 0038 9CB2     		uxth	r4, r3
 6679 003a F979     		ldrb	r1, [r7, #7]	@ zero_extendqisi2
 6680 003c 0123     		movs	r3, #1
 6681 003e 0093     		str	r3, [sp]
 6682 0040 0023     		movs	r3, #0
 6683 0042 0193     		str	r3, [sp, #4]
 6684 0044 4E23     		movs	r3, #78
 6685 0046 0293     		str	r3, [sp, #8]
 6686 0048 0846     		mov	r0, r1
 6687 004a 1146     		mov	r1, r2
 6688 004c 0D22     		movs	r2, #13
 6689 004e 2346     		mov	r3, r4
 6690 0050 FFF7FEFF 		bl	write_LCD
 756:.\LCD.c       ****         write_LCD(lcd,(time[2-x]&0x0F)+48,13,4+(3*x),1,0x0000,'N');
 6691              		.loc 1 756 0 discriminator 3
 6692 0054 FB7B     		ldrb	r3, [r7, #15]	@ zero_extendqisi2
 6693 0056 C3F10203 		rsb	r3, r3, #2
 6694 005a 5A4A     		ldr	r2, .L286
 6695 005c D35C     		ldrb	r3, [r2, r3]
 6696 005e DBB2     		uxtb	r3, r3
 6697 0060 03F00F03 		and	r3, r3, #15
 6698 0064 DBB2     		uxtb	r3, r3
 6699 0066 3033     		adds	r3, r3, #48
 6700 0068 DAB2     		uxtb	r2, r3
 6701 006a FB7B     		ldrb	r3, [r7, #15]	@ zero_extendqisi2
 6702 006c 9BB2     		uxth	r3, r3
 6703 006e 1946     		mov	r1, r3	@ movhi
 6704 0070 4900     		lsls	r1, r1, #1
 6705 0072 0B44     		add	r3, r3, r1
 6706 0074 9BB2     		uxth	r3, r3
 6707 0076 0433     		adds	r3, r3, #4
 6708 0078 9CB2     		uxth	r4, r3
 6709 007a F979     		ldrb	r1, [r7, #7]	@ zero_extendqisi2
 6710 007c 0123     		movs	r3, #1
 6711 007e 0093     		str	r3, [sp]
 6712 0080 0023     		movs	r3, #0
 6713 0082 0193     		str	r3, [sp, #4]
 6714 0084 4E23     		movs	r3, #78
 6715 0086 0293     		str	r3, [sp, #8]
 6716 0088 0846     		mov	r0, r1
 6717 008a 1146     		mov	r1, r2
 6718 008c 0D22     		movs	r2, #13
 6719 008e 2346     		mov	r3, r4
 6720 0090 FFF7FEFF 		bl	write_LCD
 757:.\LCD.c       ****         write_LCD(lcd,((date[2-x]&0xF0)>>4)+48,13,17+(3*x),1,0x0000,'N');
 6721              		.loc 1 757 0 discriminator 3
 6722 0094 FB7B     		ldrb	r3, [r7, #15]	@ zero_extendqisi2
 6723 0096 C3F10203 		rsb	r3, r3, #2
 6724 009a 4B4A     		ldr	r2, .L286+4
 6725 009c D35C     		ldrb	r3, [r2, r3]
 6726 009e DBB2     		uxtb	r3, r3
 6727 00a0 1B09     		lsrs	r3, r3, #4
 6728 00a2 DBB2     		uxtb	r3, r3
ARM GAS  C:\Users\PROYEC~1\AppData\Local\Temp\ccMsBWpv.s 			page 136


 6729 00a4 3033     		adds	r3, r3, #48
 6730 00a6 DAB2     		uxtb	r2, r3
 6731 00a8 FB7B     		ldrb	r3, [r7, #15]	@ zero_extendqisi2
 6732 00aa 9BB2     		uxth	r3, r3
 6733 00ac 1946     		mov	r1, r3	@ movhi
 6734 00ae 4900     		lsls	r1, r1, #1
 6735 00b0 0B44     		add	r3, r3, r1
 6736 00b2 9BB2     		uxth	r3, r3
 6737 00b4 1133     		adds	r3, r3, #17
 6738 00b6 9CB2     		uxth	r4, r3
 6739 00b8 F979     		ldrb	r1, [r7, #7]	@ zero_extendqisi2
 6740 00ba 0123     		movs	r3, #1
 6741 00bc 0093     		str	r3, [sp]
 6742 00be 0023     		movs	r3, #0
 6743 00c0 0193     		str	r3, [sp, #4]
 6744 00c2 4E23     		movs	r3, #78
 6745 00c4 0293     		str	r3, [sp, #8]
 6746 00c6 0846     		mov	r0, r1
 6747 00c8 1146     		mov	r1, r2
 6748 00ca 0D22     		movs	r2, #13
 6749 00cc 2346     		mov	r3, r4
 6750 00ce FFF7FEFF 		bl	write_LCD
 758:.\LCD.c       ****         write_LCD(lcd,(date[2-x]&0x0F)+48,13,18+(3*x),1,0x0000,'N');
 6751              		.loc 1 758 0 discriminator 3
 6752 00d2 FB7B     		ldrb	r3, [r7, #15]	@ zero_extendqisi2
 6753 00d4 C3F10203 		rsb	r3, r3, #2
 6754 00d8 3B4A     		ldr	r2, .L286+4
 6755 00da D35C     		ldrb	r3, [r2, r3]
 6756 00dc DBB2     		uxtb	r3, r3
 6757 00de 03F00F03 		and	r3, r3, #15
 6758 00e2 DBB2     		uxtb	r3, r3
 6759 00e4 3033     		adds	r3, r3, #48
 6760 00e6 DAB2     		uxtb	r2, r3
 6761 00e8 FB7B     		ldrb	r3, [r7, #15]	@ zero_extendqisi2
 6762 00ea 9BB2     		uxth	r3, r3
 6763 00ec 1946     		mov	r1, r3	@ movhi
 6764 00ee 4900     		lsls	r1, r1, #1
 6765 00f0 0B44     		add	r3, r3, r1
 6766 00f2 9BB2     		uxth	r3, r3
 6767 00f4 1233     		adds	r3, r3, #18
 6768 00f6 9CB2     		uxth	r4, r3
 6769 00f8 F979     		ldrb	r1, [r7, #7]	@ zero_extendqisi2
 6770 00fa 0123     		movs	r3, #1
 6771 00fc 0093     		str	r3, [sp]
 6772 00fe 0023     		movs	r3, #0
 6773 0100 0193     		str	r3, [sp, #4]
 6774 0102 4E23     		movs	r3, #78
 6775 0104 0293     		str	r3, [sp, #8]
 6776 0106 0846     		mov	r0, r1
 6777 0108 1146     		mov	r1, r2
 6778 010a 0D22     		movs	r2, #13
 6779 010c 2346     		mov	r3, r4
 6780 010e FFF7FEFF 		bl	write_LCD
 754:.\LCD.c       ****         write_LCD(lcd,((time[2-x]&0xF0)>>4)+48,13,3+(3*x),1,0x0000,'N');
 6781              		.loc 1 754 0 discriminator 3
 6782 0112 FB7B     		ldrb	r3, [r7, #15]	@ zero_extendqisi2
 6783 0114 0133     		adds	r3, r3, #1
ARM GAS  C:\Users\PROYEC~1\AppData\Local\Temp\ccMsBWpv.s 			page 137


 6784 0116 FB73     		strb	r3, [r7, #15]
 6785              	.L284:
 754:.\LCD.c       ****         write_LCD(lcd,((time[2-x]&0xF0)>>4)+48,13,3+(3*x),1,0x0000,'N');
 6786              		.loc 1 754 0 is_stmt 0 discriminator 1
 6787 0118 FB7B     		ldrb	r3, [r7, #15]	@ zero_extendqisi2
 6788 011a 022B     		cmp	r3, #2
 6789 011c 7FF67CAF 		bls	.L285
 759:.\LCD.c       ****     }
 760:.\LCD.c       ****     write_LCD(lcd,'2',13,15,1,0x0000,'N');
 6790              		.loc 1 760 0 is_stmt 1
 6791 0120 FA79     		ldrb	r2, [r7, #7]	@ zero_extendqisi2
 6792 0122 0123     		movs	r3, #1
 6793 0124 0093     		str	r3, [sp]
 6794 0126 0023     		movs	r3, #0
 6795 0128 0193     		str	r3, [sp, #4]
 6796 012a 4E23     		movs	r3, #78
 6797 012c 0293     		str	r3, [sp, #8]
 6798 012e 1046     		mov	r0, r2
 6799 0130 3221     		movs	r1, #50
 6800 0132 0D22     		movs	r2, #13
 6801 0134 0F23     		movs	r3, #15
 6802 0136 FFF7FEFF 		bl	write_LCD
 761:.\LCD.c       ****     write_LCD(lcd,'0',13,16,1,0x0000,'N');
 6803              		.loc 1 761 0
 6804 013a FA79     		ldrb	r2, [r7, #7]	@ zero_extendqisi2
 6805 013c 0123     		movs	r3, #1
 6806 013e 0093     		str	r3, [sp]
 6807 0140 0023     		movs	r3, #0
 6808 0142 0193     		str	r3, [sp, #4]
 6809 0144 4E23     		movs	r3, #78
 6810 0146 0293     		str	r3, [sp, #8]
 6811 0148 1046     		mov	r0, r2
 6812 014a 3021     		movs	r1, #48
 6813 014c 0D22     		movs	r2, #13
 6814 014e 1023     		movs	r3, #16
 6815 0150 FFF7FEFF 		bl	write_LCD
 762:.\LCD.c       ****     write_LCD(lcd,':',13,5,1,0x0000,'N');
 6816              		.loc 1 762 0
 6817 0154 FA79     		ldrb	r2, [r7, #7]	@ zero_extendqisi2
 6818 0156 0123     		movs	r3, #1
 6819 0158 0093     		str	r3, [sp]
 6820 015a 0023     		movs	r3, #0
 6821 015c 0193     		str	r3, [sp, #4]
 6822 015e 4E23     		movs	r3, #78
 6823 0160 0293     		str	r3, [sp, #8]
 6824 0162 1046     		mov	r0, r2
 6825 0164 3A21     		movs	r1, #58
 6826 0166 0D22     		movs	r2, #13
 6827 0168 0523     		movs	r3, #5
 6828 016a FFF7FEFF 		bl	write_LCD
 763:.\LCD.c       ****     write_LCD(lcd,':',13,8,1,0x0000,'N');
 6829              		.loc 1 763 0
 6830 016e FA79     		ldrb	r2, [r7, #7]	@ zero_extendqisi2
 6831 0170 0123     		movs	r3, #1
 6832 0172 0093     		str	r3, [sp]
 6833 0174 0023     		movs	r3, #0
 6834 0176 0193     		str	r3, [sp, #4]
ARM GAS  C:\Users\PROYEC~1\AppData\Local\Temp\ccMsBWpv.s 			page 138


 6835 0178 4E23     		movs	r3, #78
 6836 017a 0293     		str	r3, [sp, #8]
 6837 017c 1046     		mov	r0, r2
 6838 017e 3A21     		movs	r1, #58
 6839 0180 0D22     		movs	r2, #13
 6840 0182 0823     		movs	r3, #8
 6841 0184 FFF7FEFF 		bl	write_LCD
 764:.\LCD.c       ****     write_LCD(lcd,'/',13,19,1,0x0000,'N');
 6842              		.loc 1 764 0
 6843 0188 FA79     		ldrb	r2, [r7, #7]	@ zero_extendqisi2
 6844 018a 0123     		movs	r3, #1
 6845 018c 0093     		str	r3, [sp]
 6846 018e 0023     		movs	r3, #0
 6847 0190 0193     		str	r3, [sp, #4]
 6848 0192 4E23     		movs	r3, #78
 6849 0194 0293     		str	r3, [sp, #8]
 6850 0196 1046     		mov	r0, r2
 6851 0198 2F21     		movs	r1, #47
 6852 019a 0D22     		movs	r2, #13
 6853 019c 1323     		movs	r3, #19
 6854 019e FFF7FEFF 		bl	write_LCD
 765:.\LCD.c       ****     write_LCD(lcd,'/',13,22,1,0x0000,'N');
 6855              		.loc 1 765 0
 6856 01a2 FA79     		ldrb	r2, [r7, #7]	@ zero_extendqisi2
 6857 01a4 0123     		movs	r3, #1
 6858 01a6 0093     		str	r3, [sp]
 6859 01a8 0023     		movs	r3, #0
 6860 01aa 0193     		str	r3, [sp, #4]
 6861 01ac 4E23     		movs	r3, #78
 6862 01ae 0293     		str	r3, [sp, #8]
 6863 01b0 1046     		mov	r0, r2
 6864 01b2 2F21     		movs	r1, #47
 6865 01b4 0D22     		movs	r2, #13
 6866 01b6 1623     		movs	r3, #22
 6867 01b8 FFF7FEFF 		bl	write_LCD
 766:.\LCD.c       **** }
 6868              		.loc 1 766 0
 6869 01bc 1437     		adds	r7, r7, #20
 6870              		.cfi_def_cfa_offset 12
 6871 01be BD46     		mov	sp, r7
 6872              		.cfi_def_cfa_register 13
 6873              		@ sp needed
 6874 01c0 90BD     		pop	{r4, r7, pc}
 6875              	.L287:
 6876 01c2 00BF     		.align	2
 6877              	.L286:
 6878 01c4 00000000 		.word	time
 6879 01c8 00000000 		.word	date
 6880              		.cfi_endproc
 6881              	.LFE59:
 6882              		.size	show_time_date, .-show_time_date
 6883              		.section	.text.show_info,"ax",%progbits
 6884              		.align	2
 6885              		.global	show_info
 6886              		.thumb
 6887              		.thumb_func
 6888              		.type	show_info, %function
ARM GAS  C:\Users\PROYEC~1\AppData\Local\Temp\ccMsBWpv.s 			page 139


 6889              	show_info:
 6890              	.LFB60:
 767:.\LCD.c       **** 
 768:.\LCD.c       **** /*
 769:.\LCD.c       **** ***************************************************************************************************
 770:.\LCD.c       **** *                                    void show_info(uint8 lcd)
 771:.\LCD.c       **** *
 772:.\LCD.c       **** * Description : 
 773:.\LCD.c       **** *               
 774:.\LCD.c       **** *
 775:.\LCD.c       **** * Argument(s) : none
 776:.\LCD.c       **** *
 777:.\LCD.c       **** * Return(s)   : none
 778:.\LCD.c       **** *
 779:.\LCD.c       **** * Caller(s)   :  
 780:.\LCD.c       **** *
 781:.\LCD.c       **** * Note(s)     : none.
 782:.\LCD.c       **** ***************************************************************************************************
 783:.\LCD.c       **** */
 784:.\LCD.c       **** 
 785:.\LCD.c       **** void show_info(uint8 lcd,uint8 *version){
 6891              		.loc 1 785 0
 6892              		.cfi_startproc
 6893              		@ args = 0, pretend = 0, frame = 16
 6894              		@ frame_needed = 1, uses_anonymous_args = 0
 6895 0000 90B5     		push	{r4, r7, lr}
 6896              		.cfi_def_cfa_offset 12
 6897              		.cfi_offset 4, -12
 6898              		.cfi_offset 7, -8
 6899              		.cfi_offset 14, -4
 6900 0002 89B0     		sub	sp, sp, #36
 6901              		.cfi_def_cfa_offset 48
 6902 0004 04AF     		add	r7, sp, #16
 6903              		.cfi_def_cfa 7, 32
 6904 0006 0346     		mov	r3, r0
 6905 0008 3960     		str	r1, [r7]
 6906 000a FB71     		strb	r3, [r7, #7]
 786:.\LCD.c       ****     uint8 x,y=0;
 6907              		.loc 1 786 0
 6908 000c 0023     		movs	r3, #0
 6909 000e BB73     		strb	r3, [r7, #14]
 787:.\LCD.c       ****     for(x=0;x<10;x++){
 6910              		.loc 1 787 0
 6911 0010 0023     		movs	r3, #0
 6912 0012 FB73     		strb	r3, [r7, #15]
 6913 0014 17E0     		b	.L289
 6914              	.L290:
 788:.\LCD.c       ****         write_LCD(lcd,version[x],4,2+x,1,0x0000,'Y');
 6915              		.loc 1 788 0 discriminator 3
 6916 0016 FB7B     		ldrb	r3, [r7, #15]	@ zero_extendqisi2
 6917 0018 3A68     		ldr	r2, [r7]
 6918 001a 1344     		add	r3, r3, r2
 6919 001c 1A78     		ldrb	r2, [r3]	@ zero_extendqisi2
 6920 001e FB7B     		ldrb	r3, [r7, #15]	@ zero_extendqisi2
 6921 0020 9BB2     		uxth	r3, r3
 6922 0022 0233     		adds	r3, r3, #2
 6923 0024 9CB2     		uxth	r4, r3
ARM GAS  C:\Users\PROYEC~1\AppData\Local\Temp\ccMsBWpv.s 			page 140


 6924 0026 F979     		ldrb	r1, [r7, #7]	@ zero_extendqisi2
 6925 0028 0123     		movs	r3, #1
 6926 002a 0093     		str	r3, [sp]
 6927 002c 0023     		movs	r3, #0
 6928 002e 0193     		str	r3, [sp, #4]
 6929 0030 5923     		movs	r3, #89
 6930 0032 0293     		str	r3, [sp, #8]
 6931 0034 0846     		mov	r0, r1
 6932 0036 1146     		mov	r1, r2
 6933 0038 0422     		movs	r2, #4
 6934 003a 2346     		mov	r3, r4
 6935 003c FFF7FEFF 		bl	write_LCD
 787:.\LCD.c       ****     for(x=0;x<10;x++){
 6936              		.loc 1 787 0 discriminator 3
 6937 0040 FB7B     		ldrb	r3, [r7, #15]	@ zero_extendqisi2
 6938 0042 0133     		adds	r3, r3, #1
 6939 0044 FB73     		strb	r3, [r7, #15]
 6940              	.L289:
 787:.\LCD.c       ****     for(x=0;x<10;x++){
 6941              		.loc 1 787 0 is_stmt 0 discriminator 1
 6942 0046 FB7B     		ldrb	r3, [r7, #15]	@ zero_extendqisi2
 6943 0048 092B     		cmp	r3, #9
 6944 004a E4D9     		bls	.L290
 789:.\LCD.c       ****     }
 790:.\LCD.c       ****     if(lcd==1){
 6945              		.loc 1 790 0 is_stmt 1
 6946 004c FB79     		ldrb	r3, [r7, #7]	@ zero_extendqisi2
 6947 004e 012B     		cmp	r3, #1
 6948 0050 31D1     		bne	.L291
 791:.\LCD.c       ****         write_LCD(lcd,(side.a.dir/10)+48,4,19,1,0x0000,'Y');
 6949              		.loc 1 791 0
 6950 0052 574B     		ldr	r3, .L299
 6951 0054 1B78     		ldrb	r3, [r3]	@ zero_extendqisi2
 6952 0056 574A     		ldr	r2, .L299+4
 6953 0058 A2FB0323 		umull	r2, r3, r2, r3
 6954 005c DB08     		lsrs	r3, r3, #3
 6955 005e DBB2     		uxtb	r3, r3
 6956 0060 3033     		adds	r3, r3, #48
 6957 0062 DAB2     		uxtb	r2, r3
 6958 0064 F979     		ldrb	r1, [r7, #7]	@ zero_extendqisi2
 6959 0066 0123     		movs	r3, #1
 6960 0068 0093     		str	r3, [sp]
 6961 006a 0023     		movs	r3, #0
 6962 006c 0193     		str	r3, [sp, #4]
 6963 006e 5923     		movs	r3, #89
 6964 0070 0293     		str	r3, [sp, #8]
 6965 0072 0846     		mov	r0, r1
 6966 0074 1146     		mov	r1, r2
 6967 0076 0422     		movs	r2, #4
 6968 0078 1323     		movs	r3, #19
 6969 007a FFF7FEFF 		bl	write_LCD
 792:.\LCD.c       ****         write_LCD(lcd,(side.a.dir%10)+48,4,20,1,0x0000,'Y');
 6970              		.loc 1 792 0
 6971 007e 4C4B     		ldr	r3, .L299
 6972 0080 1A78     		ldrb	r2, [r3]	@ zero_extendqisi2
 6973 0082 4C4B     		ldr	r3, .L299+4
 6974 0084 A3FB0213 		umull	r1, r3, r3, r2
ARM GAS  C:\Users\PROYEC~1\AppData\Local\Temp\ccMsBWpv.s 			page 141


 6975 0088 D908     		lsrs	r1, r3, #3
 6976 008a 0B46     		mov	r3, r1
 6977 008c 9B00     		lsls	r3, r3, #2
 6978 008e 0B44     		add	r3, r3, r1
 6979 0090 5B00     		lsls	r3, r3, #1
 6980 0092 D31A     		subs	r3, r2, r3
 6981 0094 DBB2     		uxtb	r3, r3
 6982 0096 3033     		adds	r3, r3, #48
 6983 0098 DAB2     		uxtb	r2, r3
 6984 009a F979     		ldrb	r1, [r7, #7]	@ zero_extendqisi2
 6985 009c 0123     		movs	r3, #1
 6986 009e 0093     		str	r3, [sp]
 6987 00a0 0023     		movs	r3, #0
 6988 00a2 0193     		str	r3, [sp, #4]
 6989 00a4 5923     		movs	r3, #89
 6990 00a6 0293     		str	r3, [sp, #8]
 6991 00a8 0846     		mov	r0, r1
 6992 00aa 1146     		mov	r1, r2
 6993 00ac 0422     		movs	r2, #4
 6994 00ae 1423     		movs	r3, #20
 6995 00b0 FFF7FEFF 		bl	write_LCD
 6996 00b4 32E0     		b	.L292
 6997              	.L291:
 793:.\LCD.c       ****     }else{
 794:.\LCD.c       ****         write_LCD(lcd,(side.b.dir/10)+48,4,19,1,0x0000,'Y');
 6998              		.loc 1 794 0
 6999 00b6 3E4B     		ldr	r3, .L299
 7000 00b8 93F80031 		ldrb	r3, [r3, #256]	@ zero_extendqisi2
 7001 00bc 3D4A     		ldr	r2, .L299+4
 7002 00be A2FB0323 		umull	r2, r3, r2, r3
 7003 00c2 DB08     		lsrs	r3, r3, #3
 7004 00c4 DBB2     		uxtb	r3, r3
 7005 00c6 3033     		adds	r3, r3, #48
 7006 00c8 DAB2     		uxtb	r2, r3
 7007 00ca F979     		ldrb	r1, [r7, #7]	@ zero_extendqisi2
 7008 00cc 0123     		movs	r3, #1
 7009 00ce 0093     		str	r3, [sp]
 7010 00d0 0023     		movs	r3, #0
 7011 00d2 0193     		str	r3, [sp, #4]
 7012 00d4 5923     		movs	r3, #89
 7013 00d6 0293     		str	r3, [sp, #8]
 7014 00d8 0846     		mov	r0, r1
 7015 00da 1146     		mov	r1, r2
 7016 00dc 0422     		movs	r2, #4
 7017 00de 1323     		movs	r3, #19
 7018 00e0 FFF7FEFF 		bl	write_LCD
 795:.\LCD.c       ****         write_LCD(lcd,(side.b.dir%10)+48,4,20,1,0x0000,'Y');
 7019              		.loc 1 795 0
 7020 00e4 324B     		ldr	r3, .L299
 7021 00e6 93F80021 		ldrb	r2, [r3, #256]	@ zero_extendqisi2
 7022 00ea 324B     		ldr	r3, .L299+4
 7023 00ec A3FB0213 		umull	r1, r3, r3, r2
 7024 00f0 D908     		lsrs	r1, r3, #3
 7025 00f2 0B46     		mov	r3, r1
 7026 00f4 9B00     		lsls	r3, r3, #2
 7027 00f6 0B44     		add	r3, r3, r1
 7028 00f8 5B00     		lsls	r3, r3, #1
ARM GAS  C:\Users\PROYEC~1\AppData\Local\Temp\ccMsBWpv.s 			page 142


 7029 00fa D31A     		subs	r3, r2, r3
 7030 00fc DBB2     		uxtb	r3, r3
 7031 00fe 3033     		adds	r3, r3, #48
 7032 0100 DAB2     		uxtb	r2, r3
 7033 0102 F979     		ldrb	r1, [r7, #7]	@ zero_extendqisi2
 7034 0104 0123     		movs	r3, #1
 7035 0106 0093     		str	r3, [sp]
 7036 0108 0023     		movs	r3, #0
 7037 010a 0193     		str	r3, [sp, #4]
 7038 010c 5923     		movs	r3, #89
 7039 010e 0293     		str	r3, [sp, #8]
 7040 0110 0846     		mov	r0, r1
 7041 0112 1146     		mov	r1, r2
 7042 0114 0422     		movs	r2, #4
 7043 0116 1423     		movs	r3, #20
 7044 0118 FFF7FEFF 		bl	write_LCD
 7045              	.L292:
 796:.\LCD.c       ****     }
 797:.\LCD.c       ****     for(x=0;x<12;x++){
 7046              		.loc 1 797 0
 7047 011c 0023     		movs	r3, #0
 7048 011e FB73     		strb	r3, [r7, #15]
 7049 0120 40E0     		b	.L293
 7050              	.L296:
 798:.\LCD.c       ****         write_LCD(lcd,(ipAdress[x]&0x0f)+48,22,6+x+y,0,0x0000,'Y');
 7051              		.loc 1 798 0
 7052 0122 FB7B     		ldrb	r3, [r7, #15]	@ zero_extendqisi2
 7053 0124 244A     		ldr	r2, .L299+8
 7054 0126 D35C     		ldrb	r3, [r2, r3]
 7055 0128 DBB2     		uxtb	r3, r3
 7056 012a 03F00F03 		and	r3, r3, #15
 7057 012e DBB2     		uxtb	r3, r3
 7058 0130 3033     		adds	r3, r3, #48
 7059 0132 D9B2     		uxtb	r1, r3
 7060 0134 FB7B     		ldrb	r3, [r7, #15]	@ zero_extendqisi2
 7061 0136 9AB2     		uxth	r2, r3
 7062 0138 BB7B     		ldrb	r3, [r7, #14]	@ zero_extendqisi2
 7063 013a 9BB2     		uxth	r3, r3
 7064 013c 1344     		add	r3, r3, r2
 7065 013e 9BB2     		uxth	r3, r3
 7066 0140 0633     		adds	r3, r3, #6
 7067 0142 9CB2     		uxth	r4, r3
 7068 0144 FA79     		ldrb	r2, [r7, #7]	@ zero_extendqisi2
 7069 0146 0023     		movs	r3, #0
 7070 0148 0093     		str	r3, [sp]
 7071 014a 0023     		movs	r3, #0
 7072 014c 0193     		str	r3, [sp, #4]
 7073 014e 5923     		movs	r3, #89
 7074 0150 0293     		str	r3, [sp, #8]
 7075 0152 1046     		mov	r0, r2
 7076 0154 1622     		movs	r2, #22
 7077 0156 2346     		mov	r3, r4
 7078 0158 FFF7FEFF 		bl	write_LCD
 799:.\LCD.c       ****         if(x==2 || x==5 || x==8){
 7079              		.loc 1 799 0
 7080 015c FB7B     		ldrb	r3, [r7, #15]	@ zero_extendqisi2
 7081 015e 022B     		cmp	r3, #2
ARM GAS  C:\Users\PROYEC~1\AppData\Local\Temp\ccMsBWpv.s 			page 143


 7082 0160 05D0     		beq	.L294
 7083              		.loc 1 799 0 is_stmt 0 discriminator 1
 7084 0162 FB7B     		ldrb	r3, [r7, #15]	@ zero_extendqisi2
 7085 0164 052B     		cmp	r3, #5
 7086 0166 02D0     		beq	.L294
 7087              		.loc 1 799 0 discriminator 2
 7088 0168 FB7B     		ldrb	r3, [r7, #15]	@ zero_extendqisi2
 7089 016a 082B     		cmp	r3, #8
 7090 016c 17D1     		bne	.L295
 7091              	.L294:
 800:.\LCD.c       ****             write_LCD(lcd,'.',22,7+x+y,0,0x0000,'Y');
 7092              		.loc 1 800 0 is_stmt 1
 7093 016e FB7B     		ldrb	r3, [r7, #15]	@ zero_extendqisi2
 7094 0170 9AB2     		uxth	r2, r3
 7095 0172 BB7B     		ldrb	r3, [r7, #14]	@ zero_extendqisi2
 7096 0174 9BB2     		uxth	r3, r3
 7097 0176 1344     		add	r3, r3, r2
 7098 0178 9BB2     		uxth	r3, r3
 7099 017a 0733     		adds	r3, r3, #7
 7100 017c 9CB2     		uxth	r4, r3
 7101 017e FA79     		ldrb	r2, [r7, #7]	@ zero_extendqisi2
 7102 0180 0023     		movs	r3, #0
 7103 0182 0093     		str	r3, [sp]
 7104 0184 0023     		movs	r3, #0
 7105 0186 0193     		str	r3, [sp, #4]
 7106 0188 5923     		movs	r3, #89
 7107 018a 0293     		str	r3, [sp, #8]
 7108 018c 1046     		mov	r0, r2
 7109 018e 2E21     		movs	r1, #46
 7110 0190 1622     		movs	r2, #22
 7111 0192 2346     		mov	r3, r4
 7112 0194 FFF7FEFF 		bl	write_LCD
 801:.\LCD.c       ****             y++;
 7113              		.loc 1 801 0
 7114 0198 BB7B     		ldrb	r3, [r7, #14]	@ zero_extendqisi2
 7115 019a 0133     		adds	r3, r3, #1
 7116 019c BB73     		strb	r3, [r7, #14]
 7117              	.L295:
 797:.\LCD.c       ****         write_LCD(lcd,(ipAdress[x]&0x0f)+48,22,6+x+y,0,0x0000,'Y');
 7118              		.loc 1 797 0 discriminator 2
 7119 019e FB7B     		ldrb	r3, [r7, #15]	@ zero_extendqisi2
 7120 01a0 0133     		adds	r3, r3, #1
 7121 01a2 FB73     		strb	r3, [r7, #15]
 7122              	.L293:
 797:.\LCD.c       ****         write_LCD(lcd,(ipAdress[x]&0x0f)+48,22,6+x+y,0,0x0000,'Y');
 7123              		.loc 1 797 0 is_stmt 0 discriminator 1
 7124 01a4 FB7B     		ldrb	r3, [r7, #15]	@ zero_extendqisi2
 7125 01a6 0B2B     		cmp	r3, #11
 7126 01a8 BBD9     		bls	.L296
 802:.\LCD.c       ****         }
 803:.\LCD.c       ****     }
 804:.\LCD.c       ****     for(x=1;x<=11;x++){
 7127              		.loc 1 804 0 is_stmt 1
 7128 01aa 0123     		movs	r3, #1
 7129 01ac FB73     		strb	r3, [r7, #15]
 7130 01ae 1BE0     		b	.L297
 7131              	.L300:
ARM GAS  C:\Users\PROYEC~1\AppData\Local\Temp\ccMsBWpv.s 			page 144


 7132              		.align	2
 7133              	.L299:
 7134 01b0 00000000 		.word	side
 7135 01b4 CDCCCCCC 		.word	-858993459
 7136 01b8 00000000 		.word	ipAdress
 7137              	.L298:
 805:.\LCD.c       ****         write_LCD(lcd,'|',22,(x*2)+27,0,0x0000,'Y');
 7138              		.loc 1 805 0 discriminator 3
 7139 01bc FB7B     		ldrb	r3, [r7, #15]	@ zero_extendqisi2
 7140 01be 9BB2     		uxth	r3, r3
 7141 01c0 5B00     		lsls	r3, r3, #1
 7142 01c2 9BB2     		uxth	r3, r3
 7143 01c4 1B33     		adds	r3, r3, #27
 7144 01c6 9CB2     		uxth	r4, r3
 7145 01c8 FA79     		ldrb	r2, [r7, #7]	@ zero_extendqisi2
 7146 01ca 0023     		movs	r3, #0
 7147 01cc 0093     		str	r3, [sp]
 7148 01ce 0023     		movs	r3, #0
 7149 01d0 0193     		str	r3, [sp, #4]
 7150 01d2 5923     		movs	r3, #89
 7151 01d4 0293     		str	r3, [sp, #8]
 7152 01d6 1046     		mov	r0, r2
 7153 01d8 7C21     		movs	r1, #124
 7154 01da 1622     		movs	r2, #22
 7155 01dc 2346     		mov	r3, r4
 7156 01de FFF7FEFF 		bl	write_LCD
 804:.\LCD.c       ****         write_LCD(lcd,'|',22,(x*2)+27,0,0x0000,'Y');
 7157              		.loc 1 804 0 discriminator 3
 7158 01e2 FB7B     		ldrb	r3, [r7, #15]	@ zero_extendqisi2
 7159 01e4 0133     		adds	r3, r3, #1
 7160 01e6 FB73     		strb	r3, [r7, #15]
 7161              	.L297:
 804:.\LCD.c       ****         write_LCD(lcd,'|',22,(x*2)+27,0,0x0000,'Y');
 7162              		.loc 1 804 0 is_stmt 0 discriminator 1
 7163 01e8 FB7B     		ldrb	r3, [r7, #15]	@ zero_extendqisi2
 7164 01ea 0B2B     		cmp	r3, #11
 7165 01ec E6D9     		bls	.L298
 806:.\LCD.c       ****     }
 807:.\LCD.c       ****     write_LCD(lcd,digits+48,22,30,0,0x0000,'Y');
 7166              		.loc 1 807 0 is_stmt 1
 7167 01ee 574B     		ldr	r3, .L301
 7168 01f0 1B78     		ldrb	r3, [r3]
 7169 01f2 DBB2     		uxtb	r3, r3
 7170 01f4 3033     		adds	r3, r3, #48
 7171 01f6 DAB2     		uxtb	r2, r3
 7172 01f8 F979     		ldrb	r1, [r7, #7]	@ zero_extendqisi2
 7173 01fa 0023     		movs	r3, #0
 7174 01fc 0093     		str	r3, [sp]
 7175 01fe 0023     		movs	r3, #0
 7176 0200 0193     		str	r3, [sp, #4]
 7177 0202 5923     		movs	r3, #89
 7178 0204 0293     		str	r3, [sp, #8]
 7179 0206 0846     		mov	r0, r1
 7180 0208 1146     		mov	r1, r2
 7181 020a 1622     		movs	r2, #22
 7182 020c 1E23     		movs	r3, #30
 7183 020e FFF7FEFF 		bl	write_LCD
ARM GAS  C:\Users\PROYEC~1\AppData\Local\Temp\ccMsBWpv.s 			page 145


 808:.\LCD.c       ****     write_LCD(lcd,decimalMoney+48,22,32,0,0x0000,'Y');
 7184              		.loc 1 808 0
 7185 0212 4F4B     		ldr	r3, .L301+4
 7186 0214 1B78     		ldrb	r3, [r3]
 7187 0216 DBB2     		uxtb	r3, r3
 7188 0218 3033     		adds	r3, r3, #48
 7189 021a DAB2     		uxtb	r2, r3
 7190 021c F979     		ldrb	r1, [r7, #7]	@ zero_extendqisi2
 7191 021e 0023     		movs	r3, #0
 7192 0220 0093     		str	r3, [sp]
 7193 0222 0023     		movs	r3, #0
 7194 0224 0193     		str	r3, [sp, #4]
 7195 0226 5923     		movs	r3, #89
 7196 0228 0293     		str	r3, [sp, #8]
 7197 022a 0846     		mov	r0, r1
 7198 022c 1146     		mov	r1, r2
 7199 022e 1622     		movs	r2, #22
 7200 0230 2023     		movs	r3, #32
 7201 0232 FFF7FEFF 		bl	write_LCD
 809:.\LCD.c       ****     write_LCD(lcd,decimalVolume+48,22,34,0,0x0000,'Y');
 7202              		.loc 1 809 0
 7203 0236 474B     		ldr	r3, .L301+8
 7204 0238 1B78     		ldrb	r3, [r3]
 7205 023a DBB2     		uxtb	r3, r3
 7206 023c 3033     		adds	r3, r3, #48
 7207 023e DAB2     		uxtb	r2, r3
 7208 0240 F979     		ldrb	r1, [r7, #7]	@ zero_extendqisi2
 7209 0242 0023     		movs	r3, #0
 7210 0244 0093     		str	r3, [sp]
 7211 0246 0023     		movs	r3, #0
 7212 0248 0193     		str	r3, [sp, #4]
 7213 024a 5923     		movs	r3, #89
 7214 024c 0293     		str	r3, [sp, #8]
 7215 024e 0846     		mov	r0, r1
 7216 0250 1146     		mov	r1, r2
 7217 0252 1622     		movs	r2, #22
 7218 0254 2223     		movs	r3, #34
 7219 0256 FFF7FEFF 		bl	write_LCD
 810:.\LCD.c       ****     write_LCD(lcd,ppux10+48,22,36,0,0x0000,'Y');
 7220              		.loc 1 810 0
 7221 025a 3F4B     		ldr	r3, .L301+12
 7222 025c 1B78     		ldrb	r3, [r3]
 7223 025e DBB2     		uxtb	r3, r3
 7224 0260 3033     		adds	r3, r3, #48
 7225 0262 DAB2     		uxtb	r2, r3
 7226 0264 F979     		ldrb	r1, [r7, #7]	@ zero_extendqisi2
 7227 0266 0023     		movs	r3, #0
 7228 0268 0093     		str	r3, [sp]
 7229 026a 0023     		movs	r3, #0
 7230 026c 0193     		str	r3, [sp, #4]
 7231 026e 5923     		movs	r3, #89
 7232 0270 0293     		str	r3, [sp, #8]
 7233 0272 0846     		mov	r0, r1
 7234 0274 1146     		mov	r1, r2
 7235 0276 1622     		movs	r2, #22
 7236 0278 2423     		movs	r3, #36
 7237 027a FFF7FEFF 		bl	write_LCD
ARM GAS  C:\Users\PROYEC~1\AppData\Local\Temp\ccMsBWpv.s 			page 146


 811:.\LCD.c       ****     write_LCD(lcd,productNumber+48,22,38,0,0x0000,'Y');
 7238              		.loc 1 811 0
 7239 027e 374B     		ldr	r3, .L301+16
 7240 0280 1B78     		ldrb	r3, [r3]
 7241 0282 DBB2     		uxtb	r3, r3
 7242 0284 3033     		adds	r3, r3, #48
 7243 0286 DAB2     		uxtb	r2, r3
 7244 0288 F979     		ldrb	r1, [r7, #7]	@ zero_extendqisi2
 7245 028a 0023     		movs	r3, #0
 7246 028c 0093     		str	r3, [sp]
 7247 028e 0023     		movs	r3, #0
 7248 0290 0193     		str	r3, [sp, #4]
 7249 0292 5923     		movs	r3, #89
 7250 0294 0293     		str	r3, [sp, #8]
 7251 0296 0846     		mov	r0, r1
 7252 0298 1146     		mov	r1, r2
 7253 029a 1622     		movs	r2, #22
 7254 029c 2623     		movs	r3, #38
 7255 029e FFF7FEFF 		bl	write_LCD
 812:.\LCD.c       ****     write_LCD(lcd,symbols[0],22,40,0,0x0000,'Y');
 7256              		.loc 1 812 0
 7257 02a2 2F4B     		ldr	r3, .L301+20
 7258 02a4 1B78     		ldrb	r3, [r3]
 7259 02a6 DAB2     		uxtb	r2, r3
 7260 02a8 F979     		ldrb	r1, [r7, #7]	@ zero_extendqisi2
 7261 02aa 0023     		movs	r3, #0
 7262 02ac 0093     		str	r3, [sp]
 7263 02ae 0023     		movs	r3, #0
 7264 02b0 0193     		str	r3, [sp, #4]
 7265 02b2 5923     		movs	r3, #89
 7266 02b4 0293     		str	r3, [sp, #8]
 7267 02b6 0846     		mov	r0, r1
 7268 02b8 1146     		mov	r1, r2
 7269 02ba 1622     		movs	r2, #22
 7270 02bc 2823     		movs	r3, #40
 7271 02be FFF7FEFF 		bl	write_LCD
 813:.\LCD.c       ****     write_LCD(lcd,symbols[1],22,42,0,0x0000,'Y');
 7272              		.loc 1 813 0
 7273 02c2 274B     		ldr	r3, .L301+20
 7274 02c4 5B78     		ldrb	r3, [r3, #1]
 7275 02c6 DAB2     		uxtb	r2, r3
 7276 02c8 F979     		ldrb	r1, [r7, #7]	@ zero_extendqisi2
 7277 02ca 0023     		movs	r3, #0
 7278 02cc 0093     		str	r3, [sp]
 7279 02ce 0023     		movs	r3, #0
 7280 02d0 0193     		str	r3, [sp, #4]
 7281 02d2 5923     		movs	r3, #89
 7282 02d4 0293     		str	r3, [sp, #8]
 7283 02d6 0846     		mov	r0, r1
 7284 02d8 1146     		mov	r1, r2
 7285 02da 1622     		movs	r2, #22
 7286 02dc 2A23     		movs	r3, #42
 7287 02de FFF7FEFF 		bl	write_LCD
 814:.\LCD.c       ****     write_LCD(lcd,screen[0],22,44,0,0x0000,'Y');
 7288              		.loc 1 814 0
 7289 02e2 204B     		ldr	r3, .L301+24
 7290 02e4 1B78     		ldrb	r3, [r3]
ARM GAS  C:\Users\PROYEC~1\AppData\Local\Temp\ccMsBWpv.s 			page 147


 7291 02e6 DAB2     		uxtb	r2, r3
 7292 02e8 F979     		ldrb	r1, [r7, #7]	@ zero_extendqisi2
 7293 02ea 0023     		movs	r3, #0
 7294 02ec 0093     		str	r3, [sp]
 7295 02ee 0023     		movs	r3, #0
 7296 02f0 0193     		str	r3, [sp, #4]
 7297 02f2 5923     		movs	r3, #89
 7298 02f4 0293     		str	r3, [sp, #8]
 7299 02f6 0846     		mov	r0, r1
 7300 02f8 1146     		mov	r1, r2
 7301 02fa 1622     		movs	r2, #22
 7302 02fc 2C23     		movs	r3, #44
 7303 02fe FFF7FEFF 		bl	write_LCD
 815:.\LCD.c       ****     write_LCD(lcd,screen[1],22,46,0,0x0000,'Y');
 7304              		.loc 1 815 0
 7305 0302 184B     		ldr	r3, .L301+24
 7306 0304 5B78     		ldrb	r3, [r3, #1]
 7307 0306 DAB2     		uxtb	r2, r3
 7308 0308 F979     		ldrb	r1, [r7, #7]	@ zero_extendqisi2
 7309 030a 0023     		movs	r3, #0
 7310 030c 0093     		str	r3, [sp]
 7311 030e 0023     		movs	r3, #0
 7312 0310 0193     		str	r3, [sp, #4]
 7313 0312 5923     		movs	r3, #89
 7314 0314 0293     		str	r3, [sp, #8]
 7315 0316 0846     		mov	r0, r1
 7316 0318 1146     		mov	r1, r2
 7317 031a 1622     		movs	r2, #22
 7318 031c 2E23     		movs	r3, #46
 7319 031e FFF7FEFF 		bl	write_LCD
 816:.\LCD.c       ****     write_LCD(lcd,turn+48,22,48,0,0x0000,'Y');
 7320              		.loc 1 816 0
 7321 0322 114B     		ldr	r3, .L301+28
 7322 0324 1B78     		ldrb	r3, [r3]
 7323 0326 DBB2     		uxtb	r3, r3
 7324 0328 3033     		adds	r3, r3, #48
 7325 032a DAB2     		uxtb	r2, r3
 7326 032c F979     		ldrb	r1, [r7, #7]	@ zero_extendqisi2
 7327 032e 0023     		movs	r3, #0
 7328 0330 0093     		str	r3, [sp]
 7329 0332 0023     		movs	r3, #0
 7330 0334 0193     		str	r3, [sp, #4]
 7331 0336 5923     		movs	r3, #89
 7332 0338 0293     		str	r3, [sp, #8]
 7333 033a 0846     		mov	r0, r1
 7334 033c 1146     		mov	r1, r2
 7335 033e 1622     		movs	r2, #22
 7336 0340 3023     		movs	r3, #48
 7337 0342 FFF7FEFF 		bl	write_LCD
 817:.\LCD.c       ****     
 818:.\LCD.c       **** }
 7338              		.loc 1 818 0
 7339 0346 1437     		adds	r7, r7, #20
 7340              		.cfi_def_cfa_offset 12
 7341 0348 BD46     		mov	sp, r7
 7342              		.cfi_def_cfa_register 13
 7343              		@ sp needed
ARM GAS  C:\Users\PROYEC~1\AppData\Local\Temp\ccMsBWpv.s 			page 148


 7344 034a 90BD     		pop	{r4, r7, pc}
 7345              	.L302:
 7346              		.align	2
 7347              	.L301:
 7348 034c 00000000 		.word	digits
 7349 0350 00000000 		.word	decimalMoney
 7350 0354 00000000 		.word	decimalVolume
 7351 0358 00000000 		.word	ppux10
 7352 035c 00000000 		.word	productNumber
 7353 0360 00000000 		.word	symbols
 7354 0364 00000000 		.word	screen
 7355 0368 00000000 		.word	turn
 7356              		.cfi_endproc
 7357              	.LFE60:
 7358              		.size	show_info, .-show_info
 7359              		.section	.text.show_message,"ax",%progbits
 7360              		.align	2
 7361              		.global	show_message
 7362              		.thumb
 7363              		.thumb_func
 7364              		.type	show_message, %function
 7365              	show_message:
 7366              	.LFB61:
 819:.\LCD.c       **** 
 820:.\LCD.c       **** /*
 821:.\LCD.c       **** ***************************************************************************************************
 822:.\LCD.c       **** *                             void show_message(uint8 lcd,uint8 *msg)
 823:.\LCD.c       **** *
 824:.\LCD.c       **** * Description : 
 825:.\LCD.c       **** *               
 826:.\LCD.c       **** *
 827:.\LCD.c       **** * Argument(s) : none
 828:.\LCD.c       **** *
 829:.\LCD.c       **** * Return(s)   : none
 830:.\LCD.c       **** *
 831:.\LCD.c       **** * Caller(s)   :  
 832:.\LCD.c       **** *
 833:.\LCD.c       **** * Note(s)     : none.
 834:.\LCD.c       **** ***************************************************************************************************
 835:.\LCD.c       **** */
 836:.\LCD.c       **** 
 837:.\LCD.c       **** void show_message(uint8 lcd,uint8 *msg){
 7367              		.loc 1 837 0
 7368              		.cfi_startproc
 7369              		@ args = 0, pretend = 0, frame = 16
 7370              		@ frame_needed = 1, uses_anonymous_args = 0
 7371 0000 90B5     		push	{r4, r7, lr}
 7372              		.cfi_def_cfa_offset 12
 7373              		.cfi_offset 4, -12
 7374              		.cfi_offset 7, -8
 7375              		.cfi_offset 14, -4
 7376 0002 89B0     		sub	sp, sp, #36
 7377              		.cfi_def_cfa_offset 48
 7378 0004 04AF     		add	r7, sp, #16
 7379              		.cfi_def_cfa 7, 32
 7380 0006 0346     		mov	r3, r0
 7381 0008 3960     		str	r1, [r7]
ARM GAS  C:\Users\PROYEC~1\AppData\Local\Temp\ccMsBWpv.s 			page 149


 7382 000a FB71     		strb	r3, [r7, #7]
 838:.\LCD.c       ****     uint8 x;
 839:.\LCD.c       ****     for(x=0;x<20;x++){
 7383              		.loc 1 839 0
 7384 000c 0023     		movs	r3, #0
 7385 000e FB73     		strb	r3, [r7, #15]
 7386 0010 43E0     		b	.L304
 7387              	.L305:
 840:.\LCD.c       ****         write_LCD(lcd,msg[x],7,x+3,1,0x0000,'Y');
 7388              		.loc 1 840 0 discriminator 3
 7389 0012 FB7B     		ldrb	r3, [r7, #15]	@ zero_extendqisi2
 7390 0014 3A68     		ldr	r2, [r7]
 7391 0016 1344     		add	r3, r3, r2
 7392 0018 1A78     		ldrb	r2, [r3]	@ zero_extendqisi2
 7393 001a FB7B     		ldrb	r3, [r7, #15]	@ zero_extendqisi2
 7394 001c 9BB2     		uxth	r3, r3
 7395 001e 0333     		adds	r3, r3, #3
 7396 0020 9CB2     		uxth	r4, r3
 7397 0022 F979     		ldrb	r1, [r7, #7]	@ zero_extendqisi2
 7398 0024 0123     		movs	r3, #1
 7399 0026 0093     		str	r3, [sp]
 7400 0028 0023     		movs	r3, #0
 7401 002a 0193     		str	r3, [sp, #4]
 7402 002c 5923     		movs	r3, #89
 7403 002e 0293     		str	r3, [sp, #8]
 7404 0030 0846     		mov	r0, r1
 7405 0032 1146     		mov	r1, r2
 7406 0034 0722     		movs	r2, #7
 7407 0036 2346     		mov	r3, r4
 7408 0038 FFF7FEFF 		bl	write_LCD
 841:.\LCD.c       ****         write_LCD(lcd,msg[x+20],11,x+3,1,0x0000,'Y');
 7409              		.loc 1 841 0 discriminator 3
 7410 003c FB7B     		ldrb	r3, [r7, #15]	@ zero_extendqisi2
 7411 003e 1433     		adds	r3, r3, #20
 7412 0040 3A68     		ldr	r2, [r7]
 7413 0042 1344     		add	r3, r3, r2
 7414 0044 1A78     		ldrb	r2, [r3]	@ zero_extendqisi2
 7415 0046 FB7B     		ldrb	r3, [r7, #15]	@ zero_extendqisi2
 7416 0048 9BB2     		uxth	r3, r3
 7417 004a 0333     		adds	r3, r3, #3
 7418 004c 9CB2     		uxth	r4, r3
 7419 004e F979     		ldrb	r1, [r7, #7]	@ zero_extendqisi2
 7420 0050 0123     		movs	r3, #1
 7421 0052 0093     		str	r3, [sp]
 7422 0054 0023     		movs	r3, #0
 7423 0056 0193     		str	r3, [sp, #4]
 7424 0058 5923     		movs	r3, #89
 7425 005a 0293     		str	r3, [sp, #8]
 7426 005c 0846     		mov	r0, r1
 7427 005e 1146     		mov	r1, r2
 7428 0060 0B22     		movs	r2, #11
 7429 0062 2346     		mov	r3, r4
 7430 0064 FFF7FEFF 		bl	write_LCD
 842:.\LCD.c       ****         write_LCD(lcd,msg[x+40],15,x+3,1,0x0000,'Y');
 7431              		.loc 1 842 0 discriminator 3
 7432 0068 FB7B     		ldrb	r3, [r7, #15]	@ zero_extendqisi2
 7433 006a 2833     		adds	r3, r3, #40
ARM GAS  C:\Users\PROYEC~1\AppData\Local\Temp\ccMsBWpv.s 			page 150


 7434 006c 3A68     		ldr	r2, [r7]
 7435 006e 1344     		add	r3, r3, r2
 7436 0070 1A78     		ldrb	r2, [r3]	@ zero_extendqisi2
 7437 0072 FB7B     		ldrb	r3, [r7, #15]	@ zero_extendqisi2
 7438 0074 9BB2     		uxth	r3, r3
 7439 0076 0333     		adds	r3, r3, #3
 7440 0078 9CB2     		uxth	r4, r3
 7441 007a F979     		ldrb	r1, [r7, #7]	@ zero_extendqisi2
 7442 007c 0123     		movs	r3, #1
 7443 007e 0093     		str	r3, [sp]
 7444 0080 0023     		movs	r3, #0
 7445 0082 0193     		str	r3, [sp, #4]
 7446 0084 5923     		movs	r3, #89
 7447 0086 0293     		str	r3, [sp, #8]
 7448 0088 0846     		mov	r0, r1
 7449 008a 1146     		mov	r1, r2
 7450 008c 0F22     		movs	r2, #15
 7451 008e 2346     		mov	r3, r4
 7452 0090 FFF7FEFF 		bl	write_LCD
 839:.\LCD.c       ****         write_LCD(lcd,msg[x],7,x+3,1,0x0000,'Y');
 7453              		.loc 1 839 0 discriminator 3
 7454 0094 FB7B     		ldrb	r3, [r7, #15]	@ zero_extendqisi2
 7455 0096 0133     		adds	r3, r3, #1
 7456 0098 FB73     		strb	r3, [r7, #15]
 7457              	.L304:
 839:.\LCD.c       ****         write_LCD(lcd,msg[x],7,x+3,1,0x0000,'Y');
 7458              		.loc 1 839 0 is_stmt 0 discriminator 1
 7459 009a FB7B     		ldrb	r3, [r7, #15]	@ zero_extendqisi2
 7460 009c 132B     		cmp	r3, #19
 7461 009e B8D9     		bls	.L305
 843:.\LCD.c       ****     }
 844:.\LCD.c       **** }
 7462              		.loc 1 844 0 is_stmt 1
 7463 00a0 1437     		adds	r7, r7, #20
 7464              		.cfi_def_cfa_offset 12
 7465 00a2 BD46     		mov	sp, r7
 7466              		.cfi_def_cfa_register 13
 7467              		@ sp needed
 7468 00a4 90BD     		pop	{r4, r7, pc}
 7469              		.cfi_endproc
 7470              	.LFE61:
 7471              		.size	show_message, .-show_message
 7472 00a6 00BF     		.section	.text.show_market,"ax",%progbits
 7473              		.align	2
 7474              		.global	show_market
 7475              		.thumb
 7476              		.thumb_func
 7477              		.type	show_market, %function
 7478              	show_market:
 7479              	.LFB62:
 845:.\LCD.c       **** 
 846:.\LCD.c       **** /*
 847:.\LCD.c       **** ***************************************************************************************************
 848:.\LCD.c       **** *                             void show_market(uint8 lcd)
 849:.\LCD.c       **** *
 850:.\LCD.c       **** * Description : 
 851:.\LCD.c       **** *               
ARM GAS  C:\Users\PROYEC~1\AppData\Local\Temp\ccMsBWpv.s 			page 151


 852:.\LCD.c       **** *
 853:.\LCD.c       **** * Argument(s) : none
 854:.\LCD.c       **** *
 855:.\LCD.c       **** * Return(s)   : none
 856:.\LCD.c       **** *
 857:.\LCD.c       **** * Caller(s)   :  
 858:.\LCD.c       **** *
 859:.\LCD.c       **** * Note(s)     : none.
 860:.\LCD.c       **** ***************************************************************************************************
 861:.\LCD.c       **** */
 862:.\LCD.c       **** 
 863:.\LCD.c       **** void show_market(uint8 lcd){
 7480              		.loc 1 863 0
 7481              		.cfi_startproc
 7482              		@ args = 0, pretend = 0, frame = 16
 7483              		@ frame_needed = 1, uses_anonymous_args = 0
 7484 0000 90B5     		push	{r4, r7, lr}
 7485              		.cfi_def_cfa_offset 12
 7486              		.cfi_offset 4, -12
 7487              		.cfi_offset 7, -8
 7488              		.cfi_offset 14, -4
 7489 0002 89B0     		sub	sp, sp, #36
 7490              		.cfi_def_cfa_offset 48
 7491 0004 04AF     		add	r7, sp, #16
 7492              		.cfi_def_cfa 7, 32
 7493 0006 0346     		mov	r3, r0
 7494 0008 FB71     		strb	r3, [r7, #7]
 864:.\LCD.c       ****     uint8 x,y,flag;
 865:.\LCD.c       ****     if(lcd==1){
 7495              		.loc 1 865 0
 7496 000a FB79     		ldrb	r3, [r7, #7]	@ zero_extendqisi2
 7497 000c 012B     		cmp	r3, #1
 7498 000e 40F04781 		bne	.L307
 866:.\LCD.c       ****         for(y=0;y<=2;y++){    
 7499              		.loc 1 866 0
 7500 0012 0023     		movs	r3, #0
 7501 0014 BB73     		strb	r3, [r7, #14]
 7502 0016 2CE0     		b	.L308
 7503              	.L311:
 867:.\LCD.c       ****             for(x=1;x<=20;x++){
 7504              		.loc 1 867 0
 7505 0018 0123     		movs	r3, #1
 7506 001a FB73     		strb	r3, [r7, #15]
 7507 001c 23E0     		b	.L309
 7508              	.L310:
 868:.\LCD.c       ****                 write_LCD(lcd,bufferLCD1.productMarket[y][x],(y*8)+5,x+1,0,0x0000,'Y');
 7509              		.loc 1 868 0 discriminator 3
 7510 001e BA7B     		ldrb	r2, [r7, #14]	@ zero_extendqisi2
 7511 0020 F97B     		ldrb	r1, [r7, #15]	@ zero_extendqisi2
 7512 0022 A248     		ldr	r0, .L361
 7513 0024 1346     		mov	r3, r2
 7514 0026 9B00     		lsls	r3, r3, #2
 7515 0028 1344     		add	r3, r3, r2
 7516 002a 9A00     		lsls	r2, r3, #2
 7517 002c 1344     		add	r3, r3, r2
 7518 002e 0344     		add	r3, r3, r0
 7519 0030 0B44     		add	r3, r3, r1
ARM GAS  C:\Users\PROYEC~1\AppData\Local\Temp\ccMsBWpv.s 			page 152


 7520 0032 03F5DC73 		add	r3, r3, #440
 7521 0036 5978     		ldrb	r1, [r3, #1]	@ zero_extendqisi2
 7522 0038 BB7B     		ldrb	r3, [r7, #14]	@ zero_extendqisi2
 7523 003a 9BB2     		uxth	r3, r3
 7524 003c DB00     		lsls	r3, r3, #3
 7525 003e 9BB2     		uxth	r3, r3
 7526 0040 0533     		adds	r3, r3, #5
 7527 0042 9AB2     		uxth	r2, r3
 7528 0044 FB7B     		ldrb	r3, [r7, #15]	@ zero_extendqisi2
 7529 0046 9BB2     		uxth	r3, r3
 7530 0048 0133     		adds	r3, r3, #1
 7531 004a 9CB2     		uxth	r4, r3
 7532 004c F879     		ldrb	r0, [r7, #7]	@ zero_extendqisi2
 7533 004e 0023     		movs	r3, #0
 7534 0050 0093     		str	r3, [sp]
 7535 0052 0023     		movs	r3, #0
 7536 0054 0193     		str	r3, [sp, #4]
 7537 0056 5923     		movs	r3, #89
 7538 0058 0293     		str	r3, [sp, #8]
 7539 005a 2346     		mov	r3, r4
 7540 005c FFF7FEFF 		bl	write_LCD
 867:.\LCD.c       ****             for(x=1;x<=20;x++){
 7541              		.loc 1 867 0 discriminator 3
 7542 0060 FB7B     		ldrb	r3, [r7, #15]	@ zero_extendqisi2
 7543 0062 0133     		adds	r3, r3, #1
 7544 0064 FB73     		strb	r3, [r7, #15]
 7545              	.L309:
 867:.\LCD.c       ****             for(x=1;x<=20;x++){
 7546              		.loc 1 867 0 is_stmt 0 discriminator 1
 7547 0066 FB7B     		ldrb	r3, [r7, #15]	@ zero_extendqisi2
 7548 0068 142B     		cmp	r3, #20
 7549 006a D8D9     		bls	.L310
 866:.\LCD.c       ****         for(y=0;y<=2;y++){    
 7550              		.loc 1 866 0 is_stmt 1 discriminator 2
 7551 006c BB7B     		ldrb	r3, [r7, #14]	@ zero_extendqisi2
 7552 006e 0133     		adds	r3, r3, #1
 7553 0070 BB73     		strb	r3, [r7, #14]
 7554              	.L308:
 866:.\LCD.c       ****         for(y=0;y<=2;y++){    
 7555              		.loc 1 866 0 is_stmt 0 discriminator 1
 7556 0072 BB7B     		ldrb	r3, [r7, #14]	@ zero_extendqisi2
 7557 0074 022B     		cmp	r3, #2
 7558 0076 CFD9     		bls	.L311
 869:.\LCD.c       ****             }
 870:.\LCD.c       ****         }
 871:.\LCD.c       ****         flag=0;
 7559              		.loc 1 871 0 is_stmt 1
 7560 0078 0023     		movs	r3, #0
 7561 007a 7B73     		strb	r3, [r7, #13]
 872:.\LCD.c       ****         for(y=0;y<=2;y++){
 7562              		.loc 1 872 0
 7563 007c 0023     		movs	r3, #0
 7564 007e BB73     		strb	r3, [r7, #14]
 7565 0080 3FE0     		b	.L312
 7566              	.L317:
 873:.\LCD.c       ****             for(x=1;x<=3;x++){
 7567              		.loc 1 873 0
ARM GAS  C:\Users\PROYEC~1\AppData\Local\Temp\ccMsBWpv.s 			page 153


 7568 0082 0123     		movs	r3, #1
 7569 0084 FB73     		strb	r3, [r7, #15]
 7570 0086 34E0     		b	.L313
 7571              	.L316:
 874:.\LCD.c       ****                 if(bufferLCD1.quantityMarket[y][x]=='0' && flag==0){
 7572              		.loc 1 874 0
 7573 0088 BA7B     		ldrb	r2, [r7, #14]	@ zero_extendqisi2
 7574 008a F97B     		ldrb	r1, [r7, #15]	@ zero_extendqisi2
 7575 008c 8748     		ldr	r0, .L361
 7576 008e 1346     		mov	r3, r2
 7577 0090 9B00     		lsls	r3, r3, #2
 7578 0092 1344     		add	r3, r3, r2
 7579 0094 0344     		add	r3, r3, r0
 7580 0096 0B44     		add	r3, r3, r1
 7581 0098 03F50073 		add	r3, r3, #512
 7582 009c 1B79     		ldrb	r3, [r3, #4]	@ zero_extendqisi2
 7583 009e 302B     		cmp	r3, #48
 7584 00a0 03D1     		bne	.L314
 7585              		.loc 1 874 0 is_stmt 0 discriminator 1
 7586 00a2 7B7B     		ldrb	r3, [r7, #13]	@ zero_extendqisi2
 7587 00a4 002B     		cmp	r3, #0
 7588 00a6 00D1     		bne	.L314
 7589              		.loc 1 874 0
 7590 00a8 20E0     		b	.L315
 7591              	.L314:
 875:.\LCD.c       ****                 }else{
 876:.\LCD.c       ****                     write_LCD(lcd,bufferLCD1.quantityMarket[y][x],(y*8)+5,x+25,0,0x0000,'Y');
 7592              		.loc 1 876 0 is_stmt 1
 7593 00aa BA7B     		ldrb	r2, [r7, #14]	@ zero_extendqisi2
 7594 00ac F97B     		ldrb	r1, [r7, #15]	@ zero_extendqisi2
 7595 00ae 7F48     		ldr	r0, .L361
 7596 00b0 1346     		mov	r3, r2
 7597 00b2 9B00     		lsls	r3, r3, #2
 7598 00b4 1344     		add	r3, r3, r2
 7599 00b6 0344     		add	r3, r3, r0
 7600 00b8 0B44     		add	r3, r3, r1
 7601 00ba 03F50073 		add	r3, r3, #512
 7602 00be 1979     		ldrb	r1, [r3, #4]	@ zero_extendqisi2
 7603 00c0 BB7B     		ldrb	r3, [r7, #14]	@ zero_extendqisi2
 7604 00c2 9BB2     		uxth	r3, r3
 7605 00c4 DB00     		lsls	r3, r3, #3
 7606 00c6 9BB2     		uxth	r3, r3
 7607 00c8 0533     		adds	r3, r3, #5
 7608 00ca 9AB2     		uxth	r2, r3
 7609 00cc FB7B     		ldrb	r3, [r7, #15]	@ zero_extendqisi2
 7610 00ce 9BB2     		uxth	r3, r3
 7611 00d0 1933     		adds	r3, r3, #25
 7612 00d2 9CB2     		uxth	r4, r3
 7613 00d4 F879     		ldrb	r0, [r7, #7]	@ zero_extendqisi2
 7614 00d6 0023     		movs	r3, #0
 7615 00d8 0093     		str	r3, [sp]
 7616 00da 0023     		movs	r3, #0
 7617 00dc 0193     		str	r3, [sp, #4]
 7618 00de 5923     		movs	r3, #89
 7619 00e0 0293     		str	r3, [sp, #8]
 7620 00e2 2346     		mov	r3, r4
 7621 00e4 FFF7FEFF 		bl	write_LCD
ARM GAS  C:\Users\PROYEC~1\AppData\Local\Temp\ccMsBWpv.s 			page 154


 877:.\LCD.c       ****                     flag=1;
 7622              		.loc 1 877 0
 7623 00e8 0123     		movs	r3, #1
 7624 00ea 7B73     		strb	r3, [r7, #13]
 7625              	.L315:
 873:.\LCD.c       ****                 if(bufferLCD1.quantityMarket[y][x]=='0' && flag==0){
 7626              		.loc 1 873 0 discriminator 2
 7627 00ec FB7B     		ldrb	r3, [r7, #15]	@ zero_extendqisi2
 7628 00ee 0133     		adds	r3, r3, #1
 7629 00f0 FB73     		strb	r3, [r7, #15]
 7630              	.L313:
 873:.\LCD.c       ****                 if(bufferLCD1.quantityMarket[y][x]=='0' && flag==0){
 7631              		.loc 1 873 0 is_stmt 0 discriminator 1
 7632 00f2 FB7B     		ldrb	r3, [r7, #15]	@ zero_extendqisi2
 7633 00f4 032B     		cmp	r3, #3
 7634 00f6 C7D9     		bls	.L316
 878:.\LCD.c       ****                 }
 879:.\LCD.c       ****             }
 880:.\LCD.c       ****             flag=0;
 7635              		.loc 1 880 0 is_stmt 1 discriminator 2
 7636 00f8 0023     		movs	r3, #0
 7637 00fa 7B73     		strb	r3, [r7, #13]
 872:.\LCD.c       ****             for(x=1;x<=3;x++){
 7638              		.loc 1 872 0 discriminator 2
 7639 00fc BB7B     		ldrb	r3, [r7, #14]	@ zero_extendqisi2
 7640 00fe 0133     		adds	r3, r3, #1
 7641 0100 BB73     		strb	r3, [r7, #14]
 7642              	.L312:
 872:.\LCD.c       ****             for(x=1;x<=3;x++){
 7643              		.loc 1 872 0 is_stmt 0 discriminator 1
 7644 0102 BB7B     		ldrb	r3, [r7, #14]	@ zero_extendqisi2
 7645 0104 022B     		cmp	r3, #2
 7646 0106 BCD9     		bls	.L317
 881:.\LCD.c       ****         }
 882:.\LCD.c       ****         for(y=0;y<=2;y++){
 7647              		.loc 1 882 0 is_stmt 1
 7648 0108 0023     		movs	r3, #0
 7649 010a BB73     		strb	r3, [r7, #14]
 7650 010c 33E0     		b	.L318
 7651              	.L321:
 883:.\LCD.c       ****             multiplication_market(bufferLCD1.quantityMarket[y],bufferLCD1.priceUnitMarket[y]);
 7652              		.loc 1 883 0
 7653 010e BA7B     		ldrb	r2, [r7, #14]	@ zero_extendqisi2
 7654 0110 1346     		mov	r3, r2
 7655 0112 9B00     		lsls	r3, r3, #2
 7656 0114 1344     		add	r3, r3, r2
 7657 0116 03F50073 		add	r3, r3, #512
 7658 011a 644A     		ldr	r2, .L361
 7659 011c 1344     		add	r3, r3, r2
 7660 011e 191D     		adds	r1, r3, #4
 7661 0120 BA7B     		ldrb	r2, [r7, #14]	@ zero_extendqisi2
 7662 0122 1346     		mov	r3, r2
 7663 0124 9B00     		lsls	r3, r3, #2
 7664 0126 1344     		add	r3, r3, r2
 7665 0128 5B00     		lsls	r3, r3, #1
 7666 012a 03F51073 		add	r3, r3, #576
 7667 012e 5F4A     		ldr	r2, .L361
ARM GAS  C:\Users\PROYEC~1\AppData\Local\Temp\ccMsBWpv.s 			page 155


 7668 0130 1344     		add	r3, r3, r2
 7669 0132 0846     		mov	r0, r1
 7670 0134 1946     		mov	r1, r3
 7671 0136 FFF7FEFF 		bl	multiplication_market
 884:.\LCD.c       ****             for(x=0;x<=temporal[0];x++){
 7672              		.loc 1 884 0
 7673 013a 0023     		movs	r3, #0
 7674 013c FB73     		strb	r3, [r7, #15]
 7675 013e 12E0     		b	.L319
 7676              	.L320:
 885:.\LCD.c       ****                 bufferLCD1.priceTotalMarket[y][x]=temporal[x];
 7677              		.loc 1 885 0 discriminator 3
 7678 0140 BA7B     		ldrb	r2, [r7, #14]	@ zero_extendqisi2
 7679 0142 F97B     		ldrb	r1, [r7, #15]	@ zero_extendqisi2
 7680 0144 FB7B     		ldrb	r3, [r7, #15]	@ zero_extendqisi2
 7681 0146 5A48     		ldr	r0, .L361+4
 7682 0148 C45C     		ldrb	r4, [r0, r3]	@ zero_extendqisi2
 7683 014a 5848     		ldr	r0, .L361
 7684 014c 1346     		mov	r3, r2
 7685 014e 9B00     		lsls	r3, r3, #2
 7686 0150 1344     		add	r3, r3, r2
 7687 0152 5B00     		lsls	r3, r3, #1
 7688 0154 0344     		add	r3, r3, r0
 7689 0156 0B44     		add	r3, r3, r1
 7690 0158 03F50873 		add	r3, r3, #544
 7691 015c 2246     		mov	r2, r4
 7692 015e 9A70     		strb	r2, [r3, #2]
 884:.\LCD.c       ****             for(x=0;x<=temporal[0];x++){
 7693              		.loc 1 884 0 discriminator 3
 7694 0160 FB7B     		ldrb	r3, [r7, #15]	@ zero_extendqisi2
 7695 0162 0133     		adds	r3, r3, #1
 7696 0164 FB73     		strb	r3, [r7, #15]
 7697              	.L319:
 884:.\LCD.c       ****             for(x=0;x<=temporal[0];x++){
 7698              		.loc 1 884 0 is_stmt 0 discriminator 1
 7699 0166 524B     		ldr	r3, .L361+4
 7700 0168 1B78     		ldrb	r3, [r3]	@ zero_extendqisi2
 7701 016a FA7B     		ldrb	r2, [r7, #15]	@ zero_extendqisi2
 7702 016c 9A42     		cmp	r2, r3
 7703 016e E7D9     		bls	.L320
 882:.\LCD.c       ****             multiplication_market(bufferLCD1.quantityMarket[y],bufferLCD1.priceUnitMarket[y]);
 7704              		.loc 1 882 0 is_stmt 1 discriminator 2
 7705 0170 BB7B     		ldrb	r3, [r7, #14]	@ zero_extendqisi2
 7706 0172 0133     		adds	r3, r3, #1
 7707 0174 BB73     		strb	r3, [r7, #14]
 7708              	.L318:
 882:.\LCD.c       ****             multiplication_market(bufferLCD1.quantityMarket[y],bufferLCD1.priceUnitMarket[y]);
 7709              		.loc 1 882 0 is_stmt 0 discriminator 1
 7710 0176 BB7B     		ldrb	r3, [r7, #14]	@ zero_extendqisi2
 7711 0178 022B     		cmp	r3, #2
 7712 017a C8D9     		bls	.L321
 886:.\LCD.c       ****             }
 887:.\LCD.c       ****         }
 888:.\LCD.c       ****         flag=0;
 7713              		.loc 1 888 0 is_stmt 1
 7714 017c 0023     		movs	r3, #0
 7715 017e 7B73     		strb	r3, [r7, #13]
ARM GAS  C:\Users\PROYEC~1\AppData\Local\Temp\ccMsBWpv.s 			page 156


 889:.\LCD.c       ****         for(y=0;y<=2;y++){
 7716              		.loc 1 889 0
 7717 0180 0023     		movs	r3, #0
 7718 0182 BB73     		strb	r3, [r7, #14]
 7719 0184 41E0     		b	.L322
 7720              	.L327:
 890:.\LCD.c       ****             for(x=1;x<=8;x++){
 7721              		.loc 1 890 0
 7722 0186 0123     		movs	r3, #1
 7723 0188 FB73     		strb	r3, [r7, #15]
 7724 018a 36E0     		b	.L323
 7725              	.L326:
 891:.\LCD.c       ****                 if(bufferLCD1.priceTotalMarket[y][x]=='0' && flag==0){
 7726              		.loc 1 891 0
 7727 018c BA7B     		ldrb	r2, [r7, #14]	@ zero_extendqisi2
 7728 018e F97B     		ldrb	r1, [r7, #15]	@ zero_extendqisi2
 7729 0190 4648     		ldr	r0, .L361
 7730 0192 1346     		mov	r3, r2
 7731 0194 9B00     		lsls	r3, r3, #2
 7732 0196 1344     		add	r3, r3, r2
 7733 0198 5B00     		lsls	r3, r3, #1
 7734 019a 0344     		add	r3, r3, r0
 7735 019c 0B44     		add	r3, r3, r1
 7736 019e 03F50873 		add	r3, r3, #544
 7737 01a2 9B78     		ldrb	r3, [r3, #2]	@ zero_extendqisi2
 7738 01a4 302B     		cmp	r3, #48
 7739 01a6 03D1     		bne	.L324
 7740              		.loc 1 891 0 is_stmt 0 discriminator 1
 7741 01a8 7B7B     		ldrb	r3, [r7, #13]	@ zero_extendqisi2
 7742 01aa 002B     		cmp	r3, #0
 7743 01ac 00D1     		bne	.L324
 7744              		.loc 1 891 0
 7745 01ae 21E0     		b	.L325
 7746              	.L324:
 892:.\LCD.c       ****                 }else{
 893:.\LCD.c       ****                     write_LCD(lcd,bufferLCD1.priceTotalMarket[y][x],(y*8)+5,x+35,0,0x0000,'Y');
 7747              		.loc 1 893 0 is_stmt 1
 7748 01b0 BA7B     		ldrb	r2, [r7, #14]	@ zero_extendqisi2
 7749 01b2 F97B     		ldrb	r1, [r7, #15]	@ zero_extendqisi2
 7750 01b4 3D48     		ldr	r0, .L361
 7751 01b6 1346     		mov	r3, r2
 7752 01b8 9B00     		lsls	r3, r3, #2
 7753 01ba 1344     		add	r3, r3, r2
 7754 01bc 5B00     		lsls	r3, r3, #1
 7755 01be 0344     		add	r3, r3, r0
 7756 01c0 0B44     		add	r3, r3, r1
 7757 01c2 03F50873 		add	r3, r3, #544
 7758 01c6 9978     		ldrb	r1, [r3, #2]	@ zero_extendqisi2
 7759 01c8 BB7B     		ldrb	r3, [r7, #14]	@ zero_extendqisi2
 7760 01ca 9BB2     		uxth	r3, r3
 7761 01cc DB00     		lsls	r3, r3, #3
 7762 01ce 9BB2     		uxth	r3, r3
 7763 01d0 0533     		adds	r3, r3, #5
 7764 01d2 9AB2     		uxth	r2, r3
 7765 01d4 FB7B     		ldrb	r3, [r7, #15]	@ zero_extendqisi2
 7766 01d6 9BB2     		uxth	r3, r3
 7767 01d8 2333     		adds	r3, r3, #35
ARM GAS  C:\Users\PROYEC~1\AppData\Local\Temp\ccMsBWpv.s 			page 157


 7768 01da 9CB2     		uxth	r4, r3
 7769 01dc F879     		ldrb	r0, [r7, #7]	@ zero_extendqisi2
 7770 01de 0023     		movs	r3, #0
 7771 01e0 0093     		str	r3, [sp]
 7772 01e2 0023     		movs	r3, #0
 7773 01e4 0193     		str	r3, [sp, #4]
 7774 01e6 5923     		movs	r3, #89
 7775 01e8 0293     		str	r3, [sp, #8]
 7776 01ea 2346     		mov	r3, r4
 7777 01ec FFF7FEFF 		bl	write_LCD
 894:.\LCD.c       ****                     flag=1;
 7778              		.loc 1 894 0
 7779 01f0 0123     		movs	r3, #1
 7780 01f2 7B73     		strb	r3, [r7, #13]
 7781              	.L325:
 890:.\LCD.c       ****                 if(bufferLCD1.priceTotalMarket[y][x]=='0' && flag==0){
 7782              		.loc 1 890 0 discriminator 2
 7783 01f4 FB7B     		ldrb	r3, [r7, #15]	@ zero_extendqisi2
 7784 01f6 0133     		adds	r3, r3, #1
 7785 01f8 FB73     		strb	r3, [r7, #15]
 7786              	.L323:
 890:.\LCD.c       ****                 if(bufferLCD1.priceTotalMarket[y][x]=='0' && flag==0){
 7787              		.loc 1 890 0 is_stmt 0 discriminator 1
 7788 01fa FB7B     		ldrb	r3, [r7, #15]	@ zero_extendqisi2
 7789 01fc 082B     		cmp	r3, #8
 7790 01fe C5D9     		bls	.L326
 895:.\LCD.c       ****                 }
 896:.\LCD.c       ****             }
 897:.\LCD.c       ****             flag=0;
 7791              		.loc 1 897 0 is_stmt 1 discriminator 2
 7792 0200 0023     		movs	r3, #0
 7793 0202 7B73     		strb	r3, [r7, #13]
 889:.\LCD.c       ****             for(x=1;x<=8;x++){
 7794              		.loc 1 889 0 discriminator 2
 7795 0204 BB7B     		ldrb	r3, [r7, #14]	@ zero_extendqisi2
 7796 0206 0133     		adds	r3, r3, #1
 7797 0208 BB73     		strb	r3, [r7, #14]
 7798              	.L322:
 889:.\LCD.c       ****             for(x=1;x<=8;x++){
 7799              		.loc 1 889 0 is_stmt 0 discriminator 1
 7800 020a BB7B     		ldrb	r3, [r7, #14]	@ zero_extendqisi2
 7801 020c 022B     		cmp	r3, #2
 7802 020e BAD9     		bls	.L327
 898:.\LCD.c       ****         }
 899:.\LCD.c       ****         addition_market(bufferLCD1.priceTotalMarket[0],bufferLCD1.priceTotalMarket[1],bufferLCD1.pr
 7803              		.loc 1 899 0 is_stmt 1
 7804 0210 2848     		ldr	r0, .L361+8
 7805 0212 2949     		ldr	r1, .L361+12
 7806 0214 294A     		ldr	r2, .L361+16
 7807 0216 FFF7FEFF 		bl	addition_market
 900:.\LCD.c       ****         for(x=0;x<=temporal[0];x++){
 7808              		.loc 1 900 0
 7809 021a 0023     		movs	r3, #0
 7810 021c FB73     		strb	r3, [r7, #15]
 7811 021e 0BE0     		b	.L328
 7812              	.L329:
 901:.\LCD.c       ****             bufferLCD1.totalMarket[x]=temporal[x];
ARM GAS  C:\Users\PROYEC~1\AppData\Local\Temp\ccMsBWpv.s 			page 158


 7813              		.loc 1 901 0 discriminator 3
 7814 0220 FB7B     		ldrb	r3, [r7, #15]	@ zero_extendqisi2
 7815 0222 FA7B     		ldrb	r2, [r7, #15]	@ zero_extendqisi2
 7816 0224 2249     		ldr	r1, .L361+4
 7817 0226 895C     		ldrb	r1, [r1, r2]	@ zero_extendqisi2
 7818 0228 204A     		ldr	r2, .L361
 7819 022a 1344     		add	r3, r3, r2
 7820 022c 0A46     		mov	r2, r1
 7821 022e 83F85E22 		strb	r2, [r3, #606]
 900:.\LCD.c       ****         for(x=0;x<=temporal[0];x++){
 7822              		.loc 1 900 0 discriminator 3
 7823 0232 FB7B     		ldrb	r3, [r7, #15]	@ zero_extendqisi2
 7824 0234 0133     		adds	r3, r3, #1
 7825 0236 FB73     		strb	r3, [r7, #15]
 7826              	.L328:
 900:.\LCD.c       ****         for(x=0;x<=temporal[0];x++){
 7827              		.loc 1 900 0 is_stmt 0 discriminator 1
 7828 0238 1D4B     		ldr	r3, .L361+4
 7829 023a 1B78     		ldrb	r3, [r3]	@ zero_extendqisi2
 7830 023c FA7B     		ldrb	r2, [r7, #15]	@ zero_extendqisi2
 7831 023e 9A42     		cmp	r2, r3
 7832 0240 EED9     		bls	.L329
 902:.\LCD.c       ****         }
 903:.\LCD.c       ****         flag=0;
 7833              		.loc 1 903 0 is_stmt 1
 7834 0242 0023     		movs	r3, #0
 7835 0244 7B73     		strb	r3, [r7, #13]
 904:.\LCD.c       ****         for(x=1;x<=9;x++){
 7836              		.loc 1 904 0
 7837 0246 0123     		movs	r3, #1
 7838 0248 FB73     		strb	r3, [r7, #15]
 7839 024a 25E0     		b	.L330
 7840              	.L333:
 905:.\LCD.c       ****             if(bufferLCD1.totalMarket[x]=='0' && flag==0){
 7841              		.loc 1 905 0
 7842 024c FB7B     		ldrb	r3, [r7, #15]	@ zero_extendqisi2
 7843 024e 174A     		ldr	r2, .L361
 7844 0250 1344     		add	r3, r3, r2
 7845 0252 93F85E32 		ldrb	r3, [r3, #606]	@ zero_extendqisi2
 7846 0256 302B     		cmp	r3, #48
 7847 0258 03D1     		bne	.L331
 7848              		.loc 1 905 0 is_stmt 0 discriminator 1
 7849 025a 7B7B     		ldrb	r3, [r7, #13]	@ zero_extendqisi2
 7850 025c 002B     		cmp	r3, #0
 7851 025e 00D1     		bne	.L331
 7852              		.loc 1 905 0
 7853 0260 17E0     		b	.L332
 7854              	.L331:
 906:.\LCD.c       ****             }else{
 907:.\LCD.c       ****                 write_LCD(lcd,bufferLCD1.totalMarket[x],29,x+13,1,0x0000,'Y');
 7855              		.loc 1 907 0 is_stmt 1
 7856 0262 FB7B     		ldrb	r3, [r7, #15]	@ zero_extendqisi2
 7857 0264 114A     		ldr	r2, .L361
 7858 0266 1344     		add	r3, r3, r2
 7859 0268 93F85E22 		ldrb	r2, [r3, #606]	@ zero_extendqisi2
 7860 026c FB7B     		ldrb	r3, [r7, #15]	@ zero_extendqisi2
 7861 026e 9BB2     		uxth	r3, r3
ARM GAS  C:\Users\PROYEC~1\AppData\Local\Temp\ccMsBWpv.s 			page 159


 7862 0270 0D33     		adds	r3, r3, #13
 7863 0272 9CB2     		uxth	r4, r3
 7864 0274 F979     		ldrb	r1, [r7, #7]	@ zero_extendqisi2
 7865 0276 0123     		movs	r3, #1
 7866 0278 0093     		str	r3, [sp]
 7867 027a 0023     		movs	r3, #0
 7868 027c 0193     		str	r3, [sp, #4]
 7869 027e 5923     		movs	r3, #89
 7870 0280 0293     		str	r3, [sp, #8]
 7871 0282 0846     		mov	r0, r1
 7872 0284 1146     		mov	r1, r2
 7873 0286 1D22     		movs	r2, #29
 7874 0288 2346     		mov	r3, r4
 7875 028a FFF7FEFF 		bl	write_LCD
 908:.\LCD.c       ****                 flag=1;
 7876              		.loc 1 908 0
 7877 028e 0123     		movs	r3, #1
 7878 0290 7B73     		strb	r3, [r7, #13]
 7879              	.L332:
 904:.\LCD.c       ****             if(bufferLCD1.totalMarket[x]=='0' && flag==0){
 7880              		.loc 1 904 0 discriminator 2
 7881 0292 FB7B     		ldrb	r3, [r7, #15]	@ zero_extendqisi2
 7882 0294 0133     		adds	r3, r3, #1
 7883 0296 FB73     		strb	r3, [r7, #15]
 7884              	.L330:
 904:.\LCD.c       ****             if(bufferLCD1.totalMarket[x]=='0' && flag==0){
 7885              		.loc 1 904 0 is_stmt 0 discriminator 1
 7886 0298 FB7B     		ldrb	r3, [r7, #15]	@ zero_extendqisi2
 7887 029a 092B     		cmp	r3, #9
 7888 029c D6D9     		bls	.L333
 7889 029e 4FE1     		b	.L306
 7890              	.L307:
 909:.\LCD.c       ****             }
 910:.\LCD.c       ****         }
 911:.\LCD.c       ****     }else{
 912:.\LCD.c       ****         for(y=0;y<=2;y++){    
 7891              		.loc 1 912 0 is_stmt 1
 7892 02a0 0023     		movs	r3, #0
 7893 02a2 BB73     		strb	r3, [r7, #14]
 7894 02a4 36E0     		b	.L335
 7895              	.L338:
 913:.\LCD.c       ****             for(x=1;x<=20;x++){
 7896              		.loc 1 913 0
 7897 02a6 0123     		movs	r3, #1
 7898 02a8 FB73     		strb	r3, [r7, #15]
 7899 02aa 2DE0     		b	.L336
 7900              	.L362:
 7901              		.align	2
 7902              	.L361:
 7903 02ac 00000000 		.word	bufferLCD1
 7904 02b0 00000000 		.word	temporal
 7905 02b4 22020000 		.word	bufferLCD1+546
 7906 02b8 2C020000 		.word	bufferLCD1+556
 7907 02bc 36020000 		.word	bufferLCD1+566
 7908              	.L337:
 914:.\LCD.c       ****                 write_LCD(lcd,bufferLCD2.productMarket[y][x],(y*8)+5,x+1,0,0x0000,'Y');
 7909              		.loc 1 914 0 discriminator 3
ARM GAS  C:\Users\PROYEC~1\AppData\Local\Temp\ccMsBWpv.s 			page 160


 7910 02c0 BA7B     		ldrb	r2, [r7, #14]	@ zero_extendqisi2
 7911 02c2 F97B     		ldrb	r1, [r7, #15]	@ zero_extendqisi2
 7912 02c4 A048     		ldr	r0, .L363
 7913 02c6 1346     		mov	r3, r2
 7914 02c8 9B00     		lsls	r3, r3, #2
 7915 02ca 1344     		add	r3, r3, r2
 7916 02cc 9A00     		lsls	r2, r3, #2
 7917 02ce 1344     		add	r3, r3, r2
 7918 02d0 0344     		add	r3, r3, r0
 7919 02d2 0B44     		add	r3, r3, r1
 7920 02d4 03F5DC73 		add	r3, r3, #440
 7921 02d8 5978     		ldrb	r1, [r3, #1]	@ zero_extendqisi2
 7922 02da BB7B     		ldrb	r3, [r7, #14]	@ zero_extendqisi2
 7923 02dc 9BB2     		uxth	r3, r3
 7924 02de DB00     		lsls	r3, r3, #3
 7925 02e0 9BB2     		uxth	r3, r3
 7926 02e2 0533     		adds	r3, r3, #5
 7927 02e4 9AB2     		uxth	r2, r3
 7928 02e6 FB7B     		ldrb	r3, [r7, #15]	@ zero_extendqisi2
 7929 02e8 9BB2     		uxth	r3, r3
 7930 02ea 0133     		adds	r3, r3, #1
 7931 02ec 9CB2     		uxth	r4, r3
 7932 02ee F879     		ldrb	r0, [r7, #7]	@ zero_extendqisi2
 7933 02f0 0023     		movs	r3, #0
 7934 02f2 0093     		str	r3, [sp]
 7935 02f4 0023     		movs	r3, #0
 7936 02f6 0193     		str	r3, [sp, #4]
 7937 02f8 5923     		movs	r3, #89
 7938 02fa 0293     		str	r3, [sp, #8]
 7939 02fc 2346     		mov	r3, r4
 7940 02fe FFF7FEFF 		bl	write_LCD
 913:.\LCD.c       ****             for(x=1;x<=20;x++){
 7941              		.loc 1 913 0 discriminator 3
 7942 0302 FB7B     		ldrb	r3, [r7, #15]	@ zero_extendqisi2
 7943 0304 0133     		adds	r3, r3, #1
 7944 0306 FB73     		strb	r3, [r7, #15]
 7945              	.L336:
 913:.\LCD.c       ****             for(x=1;x<=20;x++){
 7946              		.loc 1 913 0 is_stmt 0 discriminator 1
 7947 0308 FB7B     		ldrb	r3, [r7, #15]	@ zero_extendqisi2
 7948 030a 142B     		cmp	r3, #20
 7949 030c D8D9     		bls	.L337
 912:.\LCD.c       ****             for(x=1;x<=20;x++){
 7950              		.loc 1 912 0 is_stmt 1 discriminator 2
 7951 030e BB7B     		ldrb	r3, [r7, #14]	@ zero_extendqisi2
 7952 0310 0133     		adds	r3, r3, #1
 7953 0312 BB73     		strb	r3, [r7, #14]
 7954              	.L335:
 912:.\LCD.c       ****             for(x=1;x<=20;x++){
 7955              		.loc 1 912 0 is_stmt 0 discriminator 1
 7956 0314 BB7B     		ldrb	r3, [r7, #14]	@ zero_extendqisi2
 7957 0316 022B     		cmp	r3, #2
 7958 0318 C5D9     		bls	.L338
 915:.\LCD.c       ****             }
 916:.\LCD.c       ****         }
 917:.\LCD.c       ****         flag=0;
 7959              		.loc 1 917 0 is_stmt 1
ARM GAS  C:\Users\PROYEC~1\AppData\Local\Temp\ccMsBWpv.s 			page 161


 7960 031a 0023     		movs	r3, #0
 7961 031c 7B73     		strb	r3, [r7, #13]
 918:.\LCD.c       ****         for(y=0;y<=2;y++){
 7962              		.loc 1 918 0
 7963 031e 0023     		movs	r3, #0
 7964 0320 BB73     		strb	r3, [r7, #14]
 7965 0322 3FE0     		b	.L339
 7966              	.L344:
 919:.\LCD.c       ****             for(x=1;x<=3;x++){
 7967              		.loc 1 919 0
 7968 0324 0123     		movs	r3, #1
 7969 0326 FB73     		strb	r3, [r7, #15]
 7970 0328 34E0     		b	.L340
 7971              	.L343:
 920:.\LCD.c       ****                 if(bufferLCD2.quantityMarket[y][x]=='0' && flag==0){
 7972              		.loc 1 920 0
 7973 032a BA7B     		ldrb	r2, [r7, #14]	@ zero_extendqisi2
 7974 032c F97B     		ldrb	r1, [r7, #15]	@ zero_extendqisi2
 7975 032e 8648     		ldr	r0, .L363
 7976 0330 1346     		mov	r3, r2
 7977 0332 9B00     		lsls	r3, r3, #2
 7978 0334 1344     		add	r3, r3, r2
 7979 0336 0344     		add	r3, r3, r0
 7980 0338 0B44     		add	r3, r3, r1
 7981 033a 03F50073 		add	r3, r3, #512
 7982 033e 1B79     		ldrb	r3, [r3, #4]	@ zero_extendqisi2
 7983 0340 302B     		cmp	r3, #48
 7984 0342 03D1     		bne	.L341
 7985              		.loc 1 920 0 is_stmt 0 discriminator 1
 7986 0344 7B7B     		ldrb	r3, [r7, #13]	@ zero_extendqisi2
 7987 0346 002B     		cmp	r3, #0
 7988 0348 00D1     		bne	.L341
 7989              		.loc 1 920 0
 7990 034a 20E0     		b	.L342
 7991              	.L341:
 921:.\LCD.c       ****                 }else{
 922:.\LCD.c       ****                     write_LCD(lcd,bufferLCD2.quantityMarket[y][x],(y*8)+5,x+25,0,0x0000,'Y');
 7992              		.loc 1 922 0 is_stmt 1
 7993 034c BA7B     		ldrb	r2, [r7, #14]	@ zero_extendqisi2
 7994 034e F97B     		ldrb	r1, [r7, #15]	@ zero_extendqisi2
 7995 0350 7D48     		ldr	r0, .L363
 7996 0352 1346     		mov	r3, r2
 7997 0354 9B00     		lsls	r3, r3, #2
 7998 0356 1344     		add	r3, r3, r2
 7999 0358 0344     		add	r3, r3, r0
 8000 035a 0B44     		add	r3, r3, r1
 8001 035c 03F50073 		add	r3, r3, #512
 8002 0360 1979     		ldrb	r1, [r3, #4]	@ zero_extendqisi2
 8003 0362 BB7B     		ldrb	r3, [r7, #14]	@ zero_extendqisi2
 8004 0364 9BB2     		uxth	r3, r3
 8005 0366 DB00     		lsls	r3, r3, #3
 8006 0368 9BB2     		uxth	r3, r3
 8007 036a 0533     		adds	r3, r3, #5
 8008 036c 9AB2     		uxth	r2, r3
 8009 036e FB7B     		ldrb	r3, [r7, #15]	@ zero_extendqisi2
 8010 0370 9BB2     		uxth	r3, r3
 8011 0372 1933     		adds	r3, r3, #25
ARM GAS  C:\Users\PROYEC~1\AppData\Local\Temp\ccMsBWpv.s 			page 162


 8012 0374 9CB2     		uxth	r4, r3
 8013 0376 F879     		ldrb	r0, [r7, #7]	@ zero_extendqisi2
 8014 0378 0023     		movs	r3, #0
 8015 037a 0093     		str	r3, [sp]
 8016 037c 0023     		movs	r3, #0
 8017 037e 0193     		str	r3, [sp, #4]
 8018 0380 5923     		movs	r3, #89
 8019 0382 0293     		str	r3, [sp, #8]
 8020 0384 2346     		mov	r3, r4
 8021 0386 FFF7FEFF 		bl	write_LCD
 923:.\LCD.c       ****                     flag=1;
 8022              		.loc 1 923 0
 8023 038a 0123     		movs	r3, #1
 8024 038c 7B73     		strb	r3, [r7, #13]
 8025              	.L342:
 919:.\LCD.c       ****                 if(bufferLCD2.quantityMarket[y][x]=='0' && flag==0){
 8026              		.loc 1 919 0 discriminator 2
 8027 038e FB7B     		ldrb	r3, [r7, #15]	@ zero_extendqisi2
 8028 0390 0133     		adds	r3, r3, #1
 8029 0392 FB73     		strb	r3, [r7, #15]
 8030              	.L340:
 919:.\LCD.c       ****                 if(bufferLCD2.quantityMarket[y][x]=='0' && flag==0){
 8031              		.loc 1 919 0 is_stmt 0 discriminator 1
 8032 0394 FB7B     		ldrb	r3, [r7, #15]	@ zero_extendqisi2
 8033 0396 032B     		cmp	r3, #3
 8034 0398 C7D9     		bls	.L343
 924:.\LCD.c       ****                 }
 925:.\LCD.c       ****             }
 926:.\LCD.c       ****             flag=0;
 8035              		.loc 1 926 0 is_stmt 1 discriminator 2
 8036 039a 0023     		movs	r3, #0
 8037 039c 7B73     		strb	r3, [r7, #13]
 918:.\LCD.c       ****             for(x=1;x<=3;x++){
 8038              		.loc 1 918 0 discriminator 2
 8039 039e BB7B     		ldrb	r3, [r7, #14]	@ zero_extendqisi2
 8040 03a0 0133     		adds	r3, r3, #1
 8041 03a2 BB73     		strb	r3, [r7, #14]
 8042              	.L339:
 918:.\LCD.c       ****             for(x=1;x<=3;x++){
 8043              		.loc 1 918 0 is_stmt 0 discriminator 1
 8044 03a4 BB7B     		ldrb	r3, [r7, #14]	@ zero_extendqisi2
 8045 03a6 022B     		cmp	r3, #2
 8046 03a8 BCD9     		bls	.L344
 927:.\LCD.c       ****         }
 928:.\LCD.c       ****         for(y=0;y<=2;y++){
 8047              		.loc 1 928 0 is_stmt 1
 8048 03aa 0023     		movs	r3, #0
 8049 03ac BB73     		strb	r3, [r7, #14]
 8050 03ae 33E0     		b	.L345
 8051              	.L348:
 929:.\LCD.c       ****             multiplication_market(bufferLCD2.quantityMarket[y],bufferLCD2.priceUnitMarket[y]);
 8052              		.loc 1 929 0
 8053 03b0 BA7B     		ldrb	r2, [r7, #14]	@ zero_extendqisi2
 8054 03b2 1346     		mov	r3, r2
 8055 03b4 9B00     		lsls	r3, r3, #2
 8056 03b6 1344     		add	r3, r3, r2
 8057 03b8 03F50073 		add	r3, r3, #512
ARM GAS  C:\Users\PROYEC~1\AppData\Local\Temp\ccMsBWpv.s 			page 163


 8058 03bc 624A     		ldr	r2, .L363
 8059 03be 1344     		add	r3, r3, r2
 8060 03c0 191D     		adds	r1, r3, #4
 8061 03c2 BA7B     		ldrb	r2, [r7, #14]	@ zero_extendqisi2
 8062 03c4 1346     		mov	r3, r2
 8063 03c6 9B00     		lsls	r3, r3, #2
 8064 03c8 1344     		add	r3, r3, r2
 8065 03ca 5B00     		lsls	r3, r3, #1
 8066 03cc 03F51073 		add	r3, r3, #576
 8067 03d0 5D4A     		ldr	r2, .L363
 8068 03d2 1344     		add	r3, r3, r2
 8069 03d4 0846     		mov	r0, r1
 8070 03d6 1946     		mov	r1, r3
 8071 03d8 FFF7FEFF 		bl	multiplication_market
 930:.\LCD.c       ****             for(x=0;x<=temporal[0];x++){
 8072              		.loc 1 930 0
 8073 03dc 0023     		movs	r3, #0
 8074 03de FB73     		strb	r3, [r7, #15]
 8075 03e0 12E0     		b	.L346
 8076              	.L347:
 931:.\LCD.c       ****                 bufferLCD2.priceTotalMarket[y][x]=temporal[x];
 8077              		.loc 1 931 0 discriminator 3
 8078 03e2 BA7B     		ldrb	r2, [r7, #14]	@ zero_extendqisi2
 8079 03e4 F97B     		ldrb	r1, [r7, #15]	@ zero_extendqisi2
 8080 03e6 FB7B     		ldrb	r3, [r7, #15]	@ zero_extendqisi2
 8081 03e8 5848     		ldr	r0, .L363+4
 8082 03ea C45C     		ldrb	r4, [r0, r3]	@ zero_extendqisi2
 8083 03ec 5648     		ldr	r0, .L363
 8084 03ee 1346     		mov	r3, r2
 8085 03f0 9B00     		lsls	r3, r3, #2
 8086 03f2 1344     		add	r3, r3, r2
 8087 03f4 5B00     		lsls	r3, r3, #1
 8088 03f6 0344     		add	r3, r3, r0
 8089 03f8 0B44     		add	r3, r3, r1
 8090 03fa 03F50873 		add	r3, r3, #544
 8091 03fe 2246     		mov	r2, r4
 8092 0400 9A70     		strb	r2, [r3, #2]
 930:.\LCD.c       ****             for(x=0;x<=temporal[0];x++){
 8093              		.loc 1 930 0 discriminator 3
 8094 0402 FB7B     		ldrb	r3, [r7, #15]	@ zero_extendqisi2
 8095 0404 0133     		adds	r3, r3, #1
 8096 0406 FB73     		strb	r3, [r7, #15]
 8097              	.L346:
 930:.\LCD.c       ****             for(x=0;x<=temporal[0];x++){
 8098              		.loc 1 930 0 is_stmt 0 discriminator 1
 8099 0408 504B     		ldr	r3, .L363+4
 8100 040a 1B78     		ldrb	r3, [r3]	@ zero_extendqisi2
 8101 040c FA7B     		ldrb	r2, [r7, #15]	@ zero_extendqisi2
 8102 040e 9A42     		cmp	r2, r3
 8103 0410 E7D9     		bls	.L347
 928:.\LCD.c       ****             multiplication_market(bufferLCD2.quantityMarket[y],bufferLCD2.priceUnitMarket[y]);
 8104              		.loc 1 928 0 is_stmt 1 discriminator 2
 8105 0412 BB7B     		ldrb	r3, [r7, #14]	@ zero_extendqisi2
 8106 0414 0133     		adds	r3, r3, #1
 8107 0416 BB73     		strb	r3, [r7, #14]
 8108              	.L345:
 928:.\LCD.c       ****             multiplication_market(bufferLCD2.quantityMarket[y],bufferLCD2.priceUnitMarket[y]);
ARM GAS  C:\Users\PROYEC~1\AppData\Local\Temp\ccMsBWpv.s 			page 164


 8109              		.loc 1 928 0 is_stmt 0 discriminator 1
 8110 0418 BB7B     		ldrb	r3, [r7, #14]	@ zero_extendqisi2
 8111 041a 022B     		cmp	r3, #2
 8112 041c C8D9     		bls	.L348
 932:.\LCD.c       ****             }
 933:.\LCD.c       ****         }
 934:.\LCD.c       ****         flag=0;
 8113              		.loc 1 934 0 is_stmt 1
 8114 041e 0023     		movs	r3, #0
 8115 0420 7B73     		strb	r3, [r7, #13]
 935:.\LCD.c       ****         for(y=0;y<=2;y++){
 8116              		.loc 1 935 0
 8117 0422 0023     		movs	r3, #0
 8118 0424 BB73     		strb	r3, [r7, #14]
 8119 0426 41E0     		b	.L349
 8120              	.L354:
 936:.\LCD.c       ****             for(x=1;x<=8;x++){
 8121              		.loc 1 936 0
 8122 0428 0123     		movs	r3, #1
 8123 042a FB73     		strb	r3, [r7, #15]
 8124 042c 36E0     		b	.L350
 8125              	.L353:
 937:.\LCD.c       ****                 if(bufferLCD2.priceTotalMarket[y][x]=='0' && flag==0){
 8126              		.loc 1 937 0
 8127 042e BA7B     		ldrb	r2, [r7, #14]	@ zero_extendqisi2
 8128 0430 F97B     		ldrb	r1, [r7, #15]	@ zero_extendqisi2
 8129 0432 4548     		ldr	r0, .L363
 8130 0434 1346     		mov	r3, r2
 8131 0436 9B00     		lsls	r3, r3, #2
 8132 0438 1344     		add	r3, r3, r2
 8133 043a 5B00     		lsls	r3, r3, #1
 8134 043c 0344     		add	r3, r3, r0
 8135 043e 0B44     		add	r3, r3, r1
 8136 0440 03F50873 		add	r3, r3, #544
 8137 0444 9B78     		ldrb	r3, [r3, #2]	@ zero_extendqisi2
 8138 0446 302B     		cmp	r3, #48
 8139 0448 03D1     		bne	.L351
 8140              		.loc 1 937 0 is_stmt 0 discriminator 1
 8141 044a 7B7B     		ldrb	r3, [r7, #13]	@ zero_extendqisi2
 8142 044c 002B     		cmp	r3, #0
 8143 044e 00D1     		bne	.L351
 8144              		.loc 1 937 0
 8145 0450 21E0     		b	.L352
 8146              	.L351:
 938:.\LCD.c       ****                 }else{
 939:.\LCD.c       ****                     write_LCD(lcd,bufferLCD2.priceTotalMarket[y][x],(y*8)+5,x+35,0,0x0000,'Y');
 8147              		.loc 1 939 0 is_stmt 1
 8148 0452 BA7B     		ldrb	r2, [r7, #14]	@ zero_extendqisi2
 8149 0454 F97B     		ldrb	r1, [r7, #15]	@ zero_extendqisi2
 8150 0456 3C48     		ldr	r0, .L363
 8151 0458 1346     		mov	r3, r2
 8152 045a 9B00     		lsls	r3, r3, #2
 8153 045c 1344     		add	r3, r3, r2
 8154 045e 5B00     		lsls	r3, r3, #1
 8155 0460 0344     		add	r3, r3, r0
 8156 0462 0B44     		add	r3, r3, r1
 8157 0464 03F50873 		add	r3, r3, #544
ARM GAS  C:\Users\PROYEC~1\AppData\Local\Temp\ccMsBWpv.s 			page 165


 8158 0468 9978     		ldrb	r1, [r3, #2]	@ zero_extendqisi2
 8159 046a BB7B     		ldrb	r3, [r7, #14]	@ zero_extendqisi2
 8160 046c 9BB2     		uxth	r3, r3
 8161 046e DB00     		lsls	r3, r3, #3
 8162 0470 9BB2     		uxth	r3, r3
 8163 0472 0533     		adds	r3, r3, #5
 8164 0474 9AB2     		uxth	r2, r3
 8165 0476 FB7B     		ldrb	r3, [r7, #15]	@ zero_extendqisi2
 8166 0478 9BB2     		uxth	r3, r3
 8167 047a 2333     		adds	r3, r3, #35
 8168 047c 9CB2     		uxth	r4, r3
 8169 047e F879     		ldrb	r0, [r7, #7]	@ zero_extendqisi2
 8170 0480 0023     		movs	r3, #0
 8171 0482 0093     		str	r3, [sp]
 8172 0484 0023     		movs	r3, #0
 8173 0486 0193     		str	r3, [sp, #4]
 8174 0488 5923     		movs	r3, #89
 8175 048a 0293     		str	r3, [sp, #8]
 8176 048c 2346     		mov	r3, r4
 8177 048e FFF7FEFF 		bl	write_LCD
 940:.\LCD.c       ****                     flag=1;
 8178              		.loc 1 940 0
 8179 0492 0123     		movs	r3, #1
 8180 0494 7B73     		strb	r3, [r7, #13]
 8181              	.L352:
 936:.\LCD.c       ****                 if(bufferLCD2.priceTotalMarket[y][x]=='0' && flag==0){
 8182              		.loc 1 936 0 discriminator 2
 8183 0496 FB7B     		ldrb	r3, [r7, #15]	@ zero_extendqisi2
 8184 0498 0133     		adds	r3, r3, #1
 8185 049a FB73     		strb	r3, [r7, #15]
 8186              	.L350:
 936:.\LCD.c       ****                 if(bufferLCD2.priceTotalMarket[y][x]=='0' && flag==0){
 8187              		.loc 1 936 0 is_stmt 0 discriminator 1
 8188 049c FB7B     		ldrb	r3, [r7, #15]	@ zero_extendqisi2
 8189 049e 082B     		cmp	r3, #8
 8190 04a0 C5D9     		bls	.L353
 941:.\LCD.c       ****                 }
 942:.\LCD.c       ****             }
 943:.\LCD.c       ****             flag=0;
 8191              		.loc 1 943 0 is_stmt 1 discriminator 2
 8192 04a2 0023     		movs	r3, #0
 8193 04a4 7B73     		strb	r3, [r7, #13]
 935:.\LCD.c       ****             for(x=1;x<=8;x++){
 8194              		.loc 1 935 0 discriminator 2
 8195 04a6 BB7B     		ldrb	r3, [r7, #14]	@ zero_extendqisi2
 8196 04a8 0133     		adds	r3, r3, #1
 8197 04aa BB73     		strb	r3, [r7, #14]
 8198              	.L349:
 935:.\LCD.c       ****             for(x=1;x<=8;x++){
 8199              		.loc 1 935 0 is_stmt 0 discriminator 1
 8200 04ac BB7B     		ldrb	r3, [r7, #14]	@ zero_extendqisi2
 8201 04ae 022B     		cmp	r3, #2
 8202 04b0 BAD9     		bls	.L354
 944:.\LCD.c       ****         }
 945:.\LCD.c       ****         addition_market(bufferLCD2.priceTotalMarket[0],bufferLCD2.priceTotalMarket[1],bufferLCD2.pr
 8203              		.loc 1 945 0 is_stmt 1
 8204 04b2 2748     		ldr	r0, .L363+8
ARM GAS  C:\Users\PROYEC~1\AppData\Local\Temp\ccMsBWpv.s 			page 166


 8205 04b4 2749     		ldr	r1, .L363+12
 8206 04b6 284A     		ldr	r2, .L363+16
 8207 04b8 FFF7FEFF 		bl	addition_market
 946:.\LCD.c       ****         for(x=0;x<=temporal[0];x++){
 8208              		.loc 1 946 0
 8209 04bc 0023     		movs	r3, #0
 8210 04be FB73     		strb	r3, [r7, #15]
 8211 04c0 0BE0     		b	.L355
 8212              	.L356:
 947:.\LCD.c       ****             bufferLCD2.totalMarket[x]=temporal[x];
 8213              		.loc 1 947 0 discriminator 3
 8214 04c2 FB7B     		ldrb	r3, [r7, #15]	@ zero_extendqisi2
 8215 04c4 FA7B     		ldrb	r2, [r7, #15]	@ zero_extendqisi2
 8216 04c6 2149     		ldr	r1, .L363+4
 8217 04c8 895C     		ldrb	r1, [r1, r2]	@ zero_extendqisi2
 8218 04ca 1F4A     		ldr	r2, .L363
 8219 04cc 1344     		add	r3, r3, r2
 8220 04ce 0A46     		mov	r2, r1
 8221 04d0 83F85E22 		strb	r2, [r3, #606]
 946:.\LCD.c       ****         for(x=0;x<=temporal[0];x++){
 8222              		.loc 1 946 0 discriminator 3
 8223 04d4 FB7B     		ldrb	r3, [r7, #15]	@ zero_extendqisi2
 8224 04d6 0133     		adds	r3, r3, #1
 8225 04d8 FB73     		strb	r3, [r7, #15]
 8226              	.L355:
 946:.\LCD.c       ****         for(x=0;x<=temporal[0];x++){
 8227              		.loc 1 946 0 is_stmt 0 discriminator 1
 8228 04da 1C4B     		ldr	r3, .L363+4
 8229 04dc 1B78     		ldrb	r3, [r3]	@ zero_extendqisi2
 8230 04de FA7B     		ldrb	r2, [r7, #15]	@ zero_extendqisi2
 8231 04e0 9A42     		cmp	r2, r3
 8232 04e2 EED9     		bls	.L356
 948:.\LCD.c       ****         }
 949:.\LCD.c       ****         flag=0;
 8233              		.loc 1 949 0 is_stmt 1
 8234 04e4 0023     		movs	r3, #0
 8235 04e6 7B73     		strb	r3, [r7, #13]
 950:.\LCD.c       ****         for(x=1;x<=9;x++){
 8236              		.loc 1 950 0
 8237 04e8 0123     		movs	r3, #1
 8238 04ea FB73     		strb	r3, [r7, #15]
 8239 04ec 25E0     		b	.L357
 8240              	.L360:
 951:.\LCD.c       ****             if(bufferLCD2.totalMarket[x]=='0' && flag==0){
 8241              		.loc 1 951 0
 8242 04ee FB7B     		ldrb	r3, [r7, #15]	@ zero_extendqisi2
 8243 04f0 154A     		ldr	r2, .L363
 8244 04f2 1344     		add	r3, r3, r2
 8245 04f4 93F85E32 		ldrb	r3, [r3, #606]	@ zero_extendqisi2
 8246 04f8 302B     		cmp	r3, #48
 8247 04fa 03D1     		bne	.L358
 8248              		.loc 1 951 0 is_stmt 0 discriminator 1
 8249 04fc 7B7B     		ldrb	r3, [r7, #13]	@ zero_extendqisi2
 8250 04fe 002B     		cmp	r3, #0
 8251 0500 00D1     		bne	.L358
 8252              		.loc 1 951 0
 8253 0502 17E0     		b	.L359
ARM GAS  C:\Users\PROYEC~1\AppData\Local\Temp\ccMsBWpv.s 			page 167


 8254              	.L358:
 952:.\LCD.c       ****             }else{
 953:.\LCD.c       ****                 write_LCD(lcd,bufferLCD2.totalMarket[x],29,x+13,1,0x0000,'Y');
 8255              		.loc 1 953 0 is_stmt 1
 8256 0504 FB7B     		ldrb	r3, [r7, #15]	@ zero_extendqisi2
 8257 0506 104A     		ldr	r2, .L363
 8258 0508 1344     		add	r3, r3, r2
 8259 050a 93F85E22 		ldrb	r2, [r3, #606]	@ zero_extendqisi2
 8260 050e FB7B     		ldrb	r3, [r7, #15]	@ zero_extendqisi2
 8261 0510 9BB2     		uxth	r3, r3
 8262 0512 0D33     		adds	r3, r3, #13
 8263 0514 9CB2     		uxth	r4, r3
 8264 0516 F979     		ldrb	r1, [r7, #7]	@ zero_extendqisi2
 8265 0518 0123     		movs	r3, #1
 8266 051a 0093     		str	r3, [sp]
 8267 051c 0023     		movs	r3, #0
 8268 051e 0193     		str	r3, [sp, #4]
 8269 0520 5923     		movs	r3, #89
 8270 0522 0293     		str	r3, [sp, #8]
 8271 0524 0846     		mov	r0, r1
 8272 0526 1146     		mov	r1, r2
 8273 0528 1D22     		movs	r2, #29
 8274 052a 2346     		mov	r3, r4
 8275 052c FFF7FEFF 		bl	write_LCD
 954:.\LCD.c       ****                 flag=1;
 8276              		.loc 1 954 0
 8277 0530 0123     		movs	r3, #1
 8278 0532 7B73     		strb	r3, [r7, #13]
 8279              	.L359:
 950:.\LCD.c       ****             if(bufferLCD2.totalMarket[x]=='0' && flag==0){
 8280              		.loc 1 950 0 discriminator 2
 8281 0534 FB7B     		ldrb	r3, [r7, #15]	@ zero_extendqisi2
 8282 0536 0133     		adds	r3, r3, #1
 8283 0538 FB73     		strb	r3, [r7, #15]
 8284              	.L357:
 950:.\LCD.c       ****             if(bufferLCD2.totalMarket[x]=='0' && flag==0){
 8285              		.loc 1 950 0 is_stmt 0 discriminator 1
 8286 053a FB7B     		ldrb	r3, [r7, #15]	@ zero_extendqisi2
 8287 053c 092B     		cmp	r3, #9
 8288 053e D6D9     		bls	.L360
 8289              	.L306:
 955:.\LCD.c       ****             }
 956:.\LCD.c       ****         }
 957:.\LCD.c       ****     }
 958:.\LCD.c       **** }...
 8290              		.loc 1 958 0 is_stmt 1
 8291 0540 1437     		adds	r7, r7, #20
 8292              		.cfi_def_cfa_offset 12
 8293 0542 BD46     		mov	sp, r7
 8294              		.cfi_def_cfa_register 13
 8295              		@ sp needed
 8296 0544 90BD     		pop	{r4, r7, pc}
 8297              	.L364:
 8298 0546 00BF     		.align	2
 8299              	.L363:
 8300 0548 00000000 		.word	bufferLCD2
 8301 054c 00000000 		.word	temporal
ARM GAS  C:\Users\PROYEC~1\AppData\Local\Temp\ccMsBWpv.s 			page 168


 8302 0550 22020000 		.word	bufferLCD2+546
 8303 0554 2C020000 		.word	bufferLCD2+556
 8304 0558 36020000 		.word	bufferLCD2+566
 8305              		.cfi_endproc
 8306              	.LFE62:
 8307              		.size	show_market, .-show_market
 8308              		.text
 8309              	.Letext0:
 8310              		.file 2 "c:\\program files (x86)\\cypress\\psoc creator\\3.3\\psoc creator\\import\\gnu\\arm\\4.9.
 8311              		.file 3 "c:\\program files (x86)\\cypress\\psoc creator\\3.3\\psoc creator\\import\\gnu\\arm\\4.9.
 8312              		.file 4 "Generated_Source\\PSoC5/cytypes.h"
 8313              		.file 5 ".\\variables.h"
 8314              		.file 6 "Generated_Source\\PSoC5/core_cm3.h"
 8315              		.section	.debug_info,"",%progbits
 8316              	.Ldebug_info0:
 8317 0000 360A0000 		.4byte	0xa36
 8318 0004 0400     		.2byte	0x4
 8319 0006 00000000 		.4byte	.Ldebug_abbrev0
 8320 000a 04       		.byte	0x4
 8321 000b 01       		.uleb128 0x1
 8322 000c 44030000 		.4byte	.LASF130
 8323 0010 01       		.byte	0x1
 8324 0011 23000000 		.4byte	.LASF131
 8325 0015 90000000 		.4byte	.LASF132
 8326 0019 00000000 		.4byte	.Ldebug_ranges0+0
 8327 001d 00000000 		.4byte	0
 8328 0021 00000000 		.4byte	.Ldebug_line0
 8329 0025 02       		.uleb128 0x2
 8330 0026 01       		.byte	0x1
 8331 0027 06       		.byte	0x6
 8332 0028 46060000 		.4byte	.LASF0
 8333 002c 03       		.uleb128 0x3
 8334 002d 23050000 		.4byte	.LASF3
 8335 0031 02       		.byte	0x2
 8336 0032 1D       		.byte	0x1d
 8337 0033 37000000 		.4byte	0x37
 8338 0037 02       		.uleb128 0x2
 8339 0038 01       		.byte	0x1
 8340 0039 08       		.byte	0x8
 8341 003a C1050000 		.4byte	.LASF1
 8342 003e 02       		.uleb128 0x2
 8343 003f 02       		.byte	0x2
 8344 0040 05       		.byte	0x5
 8345 0041 BE040000 		.4byte	.LASF2
 8346 0045 03       		.uleb128 0x3
 8347 0046 71010000 		.4byte	.LASF4
 8348 004a 02       		.byte	0x2
 8349 004b 2B       		.byte	0x2b
 8350 004c 50000000 		.4byte	0x50
 8351 0050 02       		.uleb128 0x2
 8352 0051 02       		.byte	0x2
 8353 0052 07       		.byte	0x7
 8354 0053 52060000 		.4byte	.LASF5
 8355 0057 03       		.uleb128 0x3
 8356 0058 77000000 		.4byte	.LASF6
 8357 005c 02       		.byte	0x2
 8358 005d 3F       		.byte	0x3f
ARM GAS  C:\Users\PROYEC~1\AppData\Local\Temp\ccMsBWpv.s 			page 169


 8359 005e 62000000 		.4byte	0x62
 8360 0062 02       		.uleb128 0x2
 8361 0063 04       		.byte	0x4
 8362 0064 05       		.byte	0x5
 8363 0065 C8040000 		.4byte	.LASF7
 8364 0069 02       		.uleb128 0x2
 8365 006a 04       		.byte	0x4
 8366 006b 07       		.byte	0x7
 8367 006c 82050000 		.4byte	.LASF8
 8368 0070 02       		.uleb128 0x2
 8369 0071 08       		.byte	0x8
 8370 0072 05       		.byte	0x5
 8371 0073 F1020000 		.4byte	.LASF9
 8372 0077 02       		.uleb128 0x2
 8373 0078 08       		.byte	0x8
 8374 0079 07       		.byte	0x7
 8375 007a 46010000 		.4byte	.LASF10
 8376 007e 04       		.uleb128 0x4
 8377 007f 04       		.byte	0x4
 8378 0080 05       		.byte	0x5
 8379 0081 696E7400 		.ascii	"int\000"
 8380 0085 02       		.uleb128 0x2
 8381 0086 04       		.byte	0x4
 8382 0087 07       		.byte	0x7
 8383 0088 54000000 		.4byte	.LASF11
 8384 008c 03       		.uleb128 0x3
 8385 008d 9B020000 		.4byte	.LASF12
 8386 0091 03       		.byte	0x3
 8387 0092 15       		.byte	0x15
 8388 0093 2C000000 		.4byte	0x2c
 8389 0097 03       		.uleb128 0x3
 8390 0098 33040000 		.4byte	.LASF13
 8391 009c 03       		.byte	0x3
 8392 009d 21       		.byte	0x21
 8393 009e 45000000 		.4byte	0x45
 8394 00a2 03       		.uleb128 0x3
 8395 00a3 A6050000 		.4byte	.LASF14
 8396 00a7 03       		.byte	0x3
 8397 00a8 2C       		.byte	0x2c
 8398 00a9 57000000 		.4byte	0x57
 8399 00ad 03       		.uleb128 0x3
 8400 00ae 71060000 		.4byte	.LASF15
 8401 00b2 04       		.byte	0x4
 8402 00b3 A1       		.byte	0xa1
 8403 00b4 37000000 		.4byte	0x37
 8404 00b8 03       		.uleb128 0x3
 8405 00b9 82020000 		.4byte	.LASF16
 8406 00bd 04       		.byte	0x4
 8407 00be A2       		.byte	0xa2
 8408 00bf 50000000 		.4byte	0x50
 8409 00c3 03       		.uleb128 0x3
 8410 00c4 09040000 		.4byte	.LASF17
 8411 00c8 04       		.byte	0x4
 8412 00c9 A3       		.byte	0xa3
 8413 00ca 69000000 		.4byte	0x69
 8414 00ce 02       		.uleb128 0x2
 8415 00cf 04       		.byte	0x4
ARM GAS  C:\Users\PROYEC~1\AppData\Local\Temp\ccMsBWpv.s 			page 170


 8416 00d0 04       		.byte	0x4
 8417 00d1 40010000 		.4byte	.LASF18
 8418 00d5 02       		.uleb128 0x2
 8419 00d6 08       		.byte	0x8
 8420 00d7 04       		.byte	0x4
 8421 00d8 77060000 		.4byte	.LASF19
 8422 00dc 03       		.uleb128 0x3
 8423 00dd 4D050000 		.4byte	.LASF20
 8424 00e1 04       		.byte	0x4
 8425 00e2 AD       		.byte	0xad
 8426 00e3 77000000 		.4byte	0x77
 8427 00e7 02       		.uleb128 0x2
 8428 00e8 01       		.byte	0x1
 8429 00e9 08       		.byte	0x8
 8430 00ea 57020000 		.4byte	.LASF21
 8431 00ee 05       		.uleb128 0x5
 8432 00ef AD000000 		.4byte	0xad
 8433 00f3 05       		.uleb128 0x5
 8434 00f4 C3000000 		.4byte	0xc3
 8435 00f8 02       		.uleb128 0x2
 8436 00f9 04       		.byte	0x4
 8437 00fa 07       		.byte	0x7
 8438 00fb 79050000 		.4byte	.LASF22
 8439 00ff 06       		.uleb128 0x6
 8440 0100 2B000000 		.4byte	.LASF71
 8441 0104 7B02     		.2byte	0x27b
 8442 0106 05       		.byte	0x5
 8443 0107 52       		.byte	0x52
 8444 0108 61030000 		.4byte	0x361
 8445 010c 07       		.uleb128 0x7
 8446 010d FA000000 		.4byte	.LASF23
 8447 0111 05       		.byte	0x5
 8448 0112 53       		.byte	0x53
 8449 0113 AD000000 		.4byte	0xad
 8450 0117 00       		.byte	0
 8451 0118 07       		.uleb128 0x7
 8452 0119 B1010000 		.4byte	.LASF24
 8453 011d 05       		.byte	0x5
 8454 011e 54       		.byte	0x54
 8455 011f 61030000 		.4byte	0x361
 8456 0123 01       		.byte	0x1
 8457 0124 07       		.uleb128 0x7
 8458 0125 7E060000 		.4byte	.LASF25
 8459 0129 05       		.byte	0x5
 8460 012a 55       		.byte	0x55
 8461 012b AD000000 		.4byte	0xad
 8462 012f 1A       		.byte	0x1a
 8463 0130 07       		.uleb128 0x7
 8464 0131 06010000 		.4byte	.LASF26
 8465 0135 05       		.byte	0x5
 8466 0136 56       		.byte	0x56
 8467 0137 71030000 		.4byte	0x371
 8468 013b 1B       		.byte	0x1b
 8469 013c 07       		.uleb128 0x7
 8470 013d 72040000 		.4byte	.LASF27
 8471 0141 05       		.byte	0x5
 8472 0142 57       		.byte	0x57
ARM GAS  C:\Users\PROYEC~1\AppData\Local\Temp\ccMsBWpv.s 			page 171


 8473 0143 71030000 		.4byte	0x371
 8474 0147 25       		.byte	0x25
 8475 0148 07       		.uleb128 0x7
 8476 0149 A4060000 		.4byte	.LASF28
 8477 014d 05       		.byte	0x5
 8478 014e 58       		.byte	0x58
 8479 014f 61030000 		.4byte	0x361
 8480 0153 2F       		.byte	0x2f
 8481 0154 07       		.uleb128 0x7
 8482 0155 3C040000 		.4byte	.LASF29
 8483 0159 05       		.byte	0x5
 8484 015a 59       		.byte	0x59
 8485 015b AD000000 		.4byte	0xad
 8486 015f 48       		.byte	0x48
 8487 0160 07       		.uleb128 0x7
 8488 0161 CF050000 		.4byte	.LASF30
 8489 0165 05       		.byte	0x5
 8490 0166 5A       		.byte	0x5a
 8491 0167 AD000000 		.4byte	0xad
 8492 016b 49       		.byte	0x49
 8493 016c 07       		.uleb128 0x7
 8494 016d 4D020000 		.4byte	.LASF31
 8495 0171 05       		.byte	0x5
 8496 0172 5B       		.byte	0x5b
 8497 0173 81030000 		.4byte	0x381
 8498 0177 4A       		.byte	0x4a
 8499 0178 07       		.uleb128 0x7
 8500 0179 E1030000 		.4byte	.LASF32
 8501 017d 05       		.byte	0x5
 8502 017e 5C       		.byte	0x5c
 8503 017f AD000000 		.4byte	0xad
 8504 0183 5F       		.byte	0x5f
 8505 0184 07       		.uleb128 0x7
 8506 0185 44020000 		.4byte	.LASF33
 8507 0189 05       		.byte	0x5
 8508 018a 5D       		.byte	0x5d
 8509 018b AD000000 		.4byte	0xad
 8510 018f 60       		.byte	0x60
 8511 0190 07       		.uleb128 0x7
 8512 0191 48000000 		.4byte	.LASF34
 8513 0195 05       		.byte	0x5
 8514 0196 5E       		.byte	0x5e
 8515 0197 AD000000 		.4byte	0xad
 8516 019b 61       		.byte	0x61
 8517 019c 07       		.uleb128 0x7
 8518 019d 09060000 		.4byte	.LASF35
 8519 01a1 05       		.byte	0x5
 8520 01a2 5F       		.byte	0x5f
 8521 01a3 91030000 		.4byte	0x391
 8522 01a7 62       		.byte	0x62
 8523 01a8 07       		.uleb128 0x7
 8524 01a9 16020000 		.4byte	.LASF36
 8525 01ad 05       		.byte	0x5
 8526 01ae 60       		.byte	0x60
 8527 01af A1030000 		.4byte	0x3a1
 8528 01b3 64       		.byte	0x64
 8529 01b4 07       		.uleb128 0x7
ARM GAS  C:\Users\PROYEC~1\AppData\Local\Temp\ccMsBWpv.s 			page 172


 8530 01b5 88010000 		.4byte	.LASF37
 8531 01b9 05       		.byte	0x5
 8532 01ba 61       		.byte	0x61
 8533 01bb AD000000 		.4byte	0xad
 8534 01bf 78       		.byte	0x78
 8535 01c0 07       		.uleb128 0x7
 8536 01c1 70050000 		.4byte	.LASF38
 8537 01c5 05       		.byte	0x5
 8538 01c6 62       		.byte	0x62
 8539 01c7 B7030000 		.4byte	0x3b7
 8540 01cb 79       		.byte	0x79
 8541 01cc 07       		.uleb128 0x7
 8542 01cd 08050000 		.4byte	.LASF39
 8543 01d1 05       		.byte	0x5
 8544 01d2 63       		.byte	0x63
 8545 01d3 C7030000 		.4byte	0x3c7
 8546 01d7 7E       		.byte	0x7e
 8547 01d8 07       		.uleb128 0x7
 8548 01d9 A2010000 		.4byte	.LASF40
 8549 01dd 05       		.byte	0x5
 8550 01de 64       		.byte	0x64
 8551 01df C7030000 		.4byte	0x3c7
 8552 01e3 84       		.byte	0x84
 8553 01e4 07       		.uleb128 0x7
 8554 01e5 87060000 		.4byte	.LASF41
 8555 01e9 05       		.byte	0x5
 8556 01ea 65       		.byte	0x65
 8557 01eb C7030000 		.4byte	0x3c7
 8558 01ef 8A       		.byte	0x8a
 8559 01f0 07       		.uleb128 0x7
 8560 01f1 D2030000 		.4byte	.LASF42
 8561 01f5 05       		.byte	0x5
 8562 01f6 66       		.byte	0x66
 8563 01f7 C7030000 		.4byte	0x3c7
 8564 01fb 90       		.byte	0x90
 8565 01fc 07       		.uleb128 0x7
 8566 01fd 54040000 		.4byte	.LASF43
 8567 0201 05       		.byte	0x5
 8568 0202 67       		.byte	0x67
 8569 0203 D7030000 		.4byte	0x3d7
 8570 0207 96       		.byte	0x96
 8571 0208 07       		.uleb128 0x7
 8572 0209 5D010000 		.4byte	.LASF44
 8573 020d 05       		.byte	0x5
 8574 020e 68       		.byte	0x68
 8575 020f D7030000 		.4byte	0x3d7
 8576 0213 A4       		.byte	0xa4
 8577 0214 07       		.uleb128 0x7
 8578 0215 17030000 		.4byte	.LASF45
 8579 0219 05       		.byte	0x5
 8580 021a 69       		.byte	0x69
 8581 021b D7030000 		.4byte	0x3d7
 8582 021f B2       		.byte	0xb2
 8583 0220 07       		.uleb128 0x7
 8584 0221 B8020000 		.4byte	.LASF46
 8585 0225 05       		.byte	0x5
 8586 0226 6A       		.byte	0x6a
ARM GAS  C:\Users\PROYEC~1\AppData\Local\Temp\ccMsBWpv.s 			page 173


 8587 0227 D7030000 		.4byte	0x3d7
 8588 022b C0       		.byte	0xc0
 8589 022c 07       		.uleb128 0x7
 8590 022d 3C050000 		.4byte	.LASF47
 8591 0231 05       		.byte	0x5
 8592 0232 6B       		.byte	0x6b
 8593 0233 D7030000 		.4byte	0x3d7
 8594 0237 CE       		.byte	0xce
 8595 0238 07       		.uleb128 0x7
 8596 0239 25040000 		.4byte	.LASF48
 8597 023d 05       		.byte	0x5
 8598 023e 6C       		.byte	0x6c
 8599 023f D7030000 		.4byte	0x3d7
 8600 0243 DC       		.byte	0xdc
 8601 0244 07       		.uleb128 0x7
 8602 0245 A5040000 		.4byte	.LASF49
 8603 0249 05       		.byte	0x5
 8604 024a 6D       		.byte	0x6d
 8605 024b E7030000 		.4byte	0x3e7
 8606 024f EA       		.byte	0xea
 8607 0250 07       		.uleb128 0x7
 8608 0251 D0010000 		.4byte	.LASF50
 8609 0255 05       		.byte	0x5
 8610 0256 6E       		.byte	0x6e
 8611 0257 E7030000 		.4byte	0x3e7
 8612 025b F5       		.byte	0xf5
 8613 025c 08       		.uleb128 0x8
 8614 025d 27020000 		.4byte	.LASF51
 8615 0261 05       		.byte	0x5
 8616 0262 6F       		.byte	0x6f
 8617 0263 E7030000 		.4byte	0x3e7
 8618 0267 0001     		.2byte	0x100
 8619 0269 08       		.uleb128 0x8
 8620 026a ED030000 		.4byte	.LASF52
 8621 026e 05       		.byte	0x5
 8622 026f 70       		.byte	0x70
 8623 0270 AD000000 		.4byte	0xad
 8624 0274 0B01     		.2byte	0x10b
 8625 0276 08       		.uleb128 0x8
 8626 0277 A3020000 		.4byte	.LASF53
 8627 027b 05       		.byte	0x5
 8628 027c 71       		.byte	0x71
 8629 027d AD000000 		.4byte	0xad
 8630 0281 0C01     		.2byte	0x10c
 8631 0283 08       		.uleb128 0x8
 8632 0284 81000000 		.4byte	.LASF54
 8633 0288 05       		.byte	0x5
 8634 0289 72       		.byte	0x72
 8635 028a AD000000 		.4byte	0xad
 8636 028e 0D01     		.2byte	0x10d
 8637 0290 08       		.uleb128 0x8
 8638 0291 FC040000 		.4byte	.LASF55
 8639 0295 05       		.byte	0x5
 8640 0296 73       		.byte	0x73
 8641 0297 AD000000 		.4byte	0xad
 8642 029b 0E01     		.2byte	0x10e
 8643 029d 08       		.uleb128 0x8
ARM GAS  C:\Users\PROYEC~1\AppData\Local\Temp\ccMsBWpv.s 			page 174


 8644 029e 1B000000 		.4byte	.LASF56
 8645 02a2 05       		.byte	0x5
 8646 02a3 74       		.byte	0x74
 8647 02a4 F7030000 		.4byte	0x3f7
 8648 02a8 0F01     		.2byte	0x10f
 8649 02aa 08       		.uleb128 0x8
 8650 02ab C8020000 		.4byte	.LASF57
 8651 02af 05       		.byte	0x5
 8652 02b0 75       		.byte	0x75
 8653 02b1 71030000 		.4byte	0x371
 8654 02b5 5001     		.2byte	0x150
 8655 02b7 08       		.uleb128 0x8
 8656 02b8 34010000 		.4byte	.LASF58
 8657 02bc 05       		.byte	0x5
 8658 02bd 76       		.byte	0x76
 8659 02be 71030000 		.4byte	0x371
 8660 02c2 5A01     		.2byte	0x15a
 8661 02c4 08       		.uleb128 0x8
 8662 02c5 AF020000 		.4byte	.LASF59
 8663 02c9 05       		.byte	0x5
 8664 02ca 77       		.byte	0x77
 8665 02cb 71030000 		.4byte	0x371
 8666 02cf 6401     		.2byte	0x164
 8667 02d1 08       		.uleb128 0x8
 8668 02d2 FC010000 		.4byte	.LASF60
 8669 02d6 05       		.byte	0x5
 8670 02d7 78       		.byte	0x78
 8671 02d8 07040000 		.4byte	0x407
 8672 02dc 6E01     		.2byte	0x16e
 8673 02de 08       		.uleb128 0x8
 8674 02df 69000000 		.4byte	.LASF61
 8675 02e3 05       		.byte	0x5
 8676 02e4 79       		.byte	0x79
 8677 02e5 07040000 		.4byte	0x407
 8678 02e9 B901     		.2byte	0x1b9
 8679 02eb 08       		.uleb128 0x8
 8680 02ec 13010000 		.4byte	.LASF62
 8681 02f0 05       		.byte	0x5
 8682 02f1 7A       		.byte	0x7a
 8683 02f2 1D040000 		.4byte	0x41d
 8684 02f6 0402     		.2byte	0x204
 8685 02f8 08       		.uleb128 0x8
 8686 02f9 AE050000 		.4byte	.LASF63
 8687 02fd 05       		.byte	0x5
 8688 02fe 7B       		.byte	0x7b
 8689 02ff 1D040000 		.4byte	0x41d
 8690 0303 1302     		.2byte	0x213
 8691 0305 08       		.uleb128 0x8
 8692 0306 E1050000 		.4byte	.LASF64
 8693 030a 05       		.byte	0x5
 8694 030b 7C       		.byte	0x7c
 8695 030c 33040000 		.4byte	0x433
 8696 0310 2202     		.2byte	0x222
 8697 0312 08       		.uleb128 0x8
 8698 0313 1E060000 		.4byte	.LASF65
 8699 0317 05       		.byte	0x5
 8700 0318 7D       		.byte	0x7d
ARM GAS  C:\Users\PROYEC~1\AppData\Local\Temp\ccMsBWpv.s 			page 175


 8701 0319 33040000 		.4byte	0x433
 8702 031d 4002     		.2byte	0x240
 8703 031f 08       		.uleb128 0x8
 8704 0320 38030000 		.4byte	.LASF66
 8705 0324 05       		.byte	0x5
 8706 0325 7E       		.byte	0x7e
 8707 0326 71030000 		.4byte	0x371
 8708 032a 5E02     		.2byte	0x25e
 8709 032c 08       		.uleb128 0x8
 8710 032d 94050000 		.4byte	.LASF67
 8711 0331 05       		.byte	0x5
 8712 0332 7F       		.byte	0x7f
 8713 0333 AD000000 		.4byte	0xad
 8714 0337 6802     		.2byte	0x268
 8715 0339 08       		.uleb128 0x8
 8716 033a B1040000 		.4byte	.LASF68
 8717 033e 05       		.byte	0x5
 8718 033f 80       		.byte	0x80
 8719 0340 49040000 		.4byte	0x449
 8720 0344 6902     		.2byte	0x269
 8721 0346 08       		.uleb128 0x8
 8722 0347 D3020000 		.4byte	.LASF69
 8723 034b 05       		.byte	0x5
 8724 034c 81       		.byte	0x81
 8725 034d 91030000 		.4byte	0x391
 8726 0351 7802     		.2byte	0x278
 8727 0353 08       		.uleb128 0x8
 8728 0354 DC010000 		.4byte	.LASF70
 8729 0358 05       		.byte	0x5
 8730 0359 82       		.byte	0x82
 8731 035a AD000000 		.4byte	0xad
 8732 035e 7A02     		.2byte	0x27a
 8733 0360 00       		.byte	0
 8734 0361 09       		.uleb128 0x9
 8735 0362 AD000000 		.4byte	0xad
 8736 0366 71030000 		.4byte	0x371
 8737 036a 0A       		.uleb128 0xa
 8738 036b F8000000 		.4byte	0xf8
 8739 036f 18       		.byte	0x18
 8740 0370 00       		.byte	0
 8741 0371 09       		.uleb128 0x9
 8742 0372 AD000000 		.4byte	0xad
 8743 0376 81030000 		.4byte	0x381
 8744 037a 0A       		.uleb128 0xa
 8745 037b F8000000 		.4byte	0xf8
 8746 037f 09       		.byte	0x9
 8747 0380 00       		.byte	0
 8748 0381 09       		.uleb128 0x9
 8749 0382 AD000000 		.4byte	0xad
 8750 0386 91030000 		.4byte	0x391
 8751 038a 0A       		.uleb128 0xa
 8752 038b F8000000 		.4byte	0xf8
 8753 038f 14       		.byte	0x14
 8754 0390 00       		.byte	0
 8755 0391 09       		.uleb128 0x9
 8756 0392 AD000000 		.4byte	0xad
 8757 0396 A1030000 		.4byte	0x3a1
ARM GAS  C:\Users\PROYEC~1\AppData\Local\Temp\ccMsBWpv.s 			page 176


 8758 039a 0A       		.uleb128 0xa
 8759 039b F8000000 		.4byte	0xf8
 8760 039f 01       		.byte	0x1
 8761 03a0 00       		.byte	0
 8762 03a1 09       		.uleb128 0x9
 8763 03a2 AD000000 		.4byte	0xad
 8764 03a6 B7030000 		.4byte	0x3b7
 8765 03aa 0A       		.uleb128 0xa
 8766 03ab F8000000 		.4byte	0xf8
 8767 03af 01       		.byte	0x1
 8768 03b0 0A       		.uleb128 0xa
 8769 03b1 F8000000 		.4byte	0xf8
 8770 03b5 09       		.byte	0x9
 8771 03b6 00       		.byte	0
 8772 03b7 09       		.uleb128 0x9
 8773 03b8 AD000000 		.4byte	0xad
 8774 03bc C7030000 		.4byte	0x3c7
 8775 03c0 0A       		.uleb128 0xa
 8776 03c1 F8000000 		.4byte	0xf8
 8777 03c5 04       		.byte	0x4
 8778 03c6 00       		.byte	0
 8779 03c7 09       		.uleb128 0x9
 8780 03c8 AD000000 		.4byte	0xad
 8781 03cc D7030000 		.4byte	0x3d7
 8782 03d0 0A       		.uleb128 0xa
 8783 03d1 F8000000 		.4byte	0xf8
 8784 03d5 05       		.byte	0x5
 8785 03d6 00       		.byte	0
 8786 03d7 09       		.uleb128 0x9
 8787 03d8 AD000000 		.4byte	0xad
 8788 03dc E7030000 		.4byte	0x3e7
 8789 03e0 0A       		.uleb128 0xa
 8790 03e1 F8000000 		.4byte	0xf8
 8791 03e5 0D       		.byte	0xd
 8792 03e6 00       		.byte	0
 8793 03e7 09       		.uleb128 0x9
 8794 03e8 AD000000 		.4byte	0xad
 8795 03ec F7030000 		.4byte	0x3f7
 8796 03f0 0A       		.uleb128 0xa
 8797 03f1 F8000000 		.4byte	0xf8
 8798 03f5 0A       		.byte	0xa
 8799 03f6 00       		.byte	0
 8800 03f7 09       		.uleb128 0x9
 8801 03f8 AD000000 		.4byte	0xad
 8802 03fc 07040000 		.4byte	0x407
 8803 0400 0A       		.uleb128 0xa
 8804 0401 F8000000 		.4byte	0xf8
 8805 0405 40       		.byte	0x40
 8806 0406 00       		.byte	0
 8807 0407 09       		.uleb128 0x9
 8808 0408 AD000000 		.4byte	0xad
 8809 040c 1D040000 		.4byte	0x41d
 8810 0410 0A       		.uleb128 0xa
 8811 0411 F8000000 		.4byte	0xf8
 8812 0415 02       		.byte	0x2
 8813 0416 0A       		.uleb128 0xa
 8814 0417 F8000000 		.4byte	0xf8
ARM GAS  C:\Users\PROYEC~1\AppData\Local\Temp\ccMsBWpv.s 			page 177


 8815 041b 18       		.byte	0x18
 8816 041c 00       		.byte	0
 8817 041d 09       		.uleb128 0x9
 8818 041e AD000000 		.4byte	0xad
 8819 0422 33040000 		.4byte	0x433
 8820 0426 0A       		.uleb128 0xa
 8821 0427 F8000000 		.4byte	0xf8
 8822 042b 02       		.byte	0x2
 8823 042c 0A       		.uleb128 0xa
 8824 042d F8000000 		.4byte	0xf8
 8825 0431 04       		.byte	0x4
 8826 0432 00       		.byte	0
 8827 0433 09       		.uleb128 0x9
 8828 0434 AD000000 		.4byte	0xad
 8829 0438 49040000 		.4byte	0x449
 8830 043c 0A       		.uleb128 0xa
 8831 043d F8000000 		.4byte	0xf8
 8832 0441 02       		.byte	0x2
 8833 0442 0A       		.uleb128 0xa
 8834 0443 F8000000 		.4byte	0xf8
 8835 0447 09       		.byte	0x9
 8836 0448 00       		.byte	0
 8837 0449 09       		.uleb128 0x9
 8838 044a AD000000 		.4byte	0xad
 8839 044e 59040000 		.4byte	0x459
 8840 0452 0A       		.uleb128 0xa
 8841 0453 F8000000 		.4byte	0xf8
 8842 0457 0E       		.byte	0xe
 8843 0458 00       		.byte	0
 8844 0459 06       		.uleb128 0x6
 8845 045a B7060000 		.4byte	.LASF72
 8846 045e 0001     		.2byte	0x100
 8847 0460 05       		.byte	0x5
 8848 0461 90       		.byte	0x90
 8849 0462 BB040000 		.4byte	0x4bb
 8850 0466 0B       		.uleb128 0xb
 8851 0467 64697200 		.ascii	"dir\000"
 8852 046b 05       		.byte	0x5
 8853 046c 91       		.byte	0x91
 8854 046d AD000000 		.4byte	0xad
 8855 0471 00       		.byte	0
 8856 0472 07       		.uleb128 0x7
 8857 0473 09020000 		.4byte	.LASF73
 8858 0477 05       		.byte	0x5
 8859 0478 92       		.byte	0x92
 8860 0479 BB040000 		.4byte	0x4bb
 8861 047d 01       		.byte	0x1
 8862 047e 07       		.uleb128 0x7
 8863 047f 96060000 		.4byte	.LASF74
 8864 0483 05       		.byte	0x5
 8865 0484 93       		.byte	0x93
 8866 0485 D7040000 		.4byte	0x4d7
 8867 0489 B5       		.byte	0xb5
 8868 048a 07       		.uleb128 0x7
 8869 048b E7020000 		.4byte	.LASF75
 8870 048f 05       		.byte	0x5
 8871 0490 94       		.byte	0x94
ARM GAS  C:\Users\PROYEC~1\AppData\Local\Temp\ccMsBWpv.s 			page 178


 8872 0491 D7030000 		.4byte	0x3d7
 8873 0495 D5       		.byte	0xd5
 8874 0496 07       		.uleb128 0x7
 8875 0497 3B060000 		.4byte	.LASF76
 8876 049b 05       		.byte	0x5
 8877 049c 95       		.byte	0x95
 8878 049d D7030000 		.4byte	0x3d7
 8879 04a1 E3       		.byte	0xe3
 8880 04a2 07       		.uleb128 0x7
 8881 04a3 FF020000 		.4byte	.LASF77
 8882 04a7 05       		.byte	0x5
 8883 04a8 96       		.byte	0x96
 8884 04a9 D7030000 		.4byte	0x3d7
 8885 04ad F1       		.byte	0xf1
 8886 04ae 07       		.uleb128 0x7
 8887 04af 65060000 		.4byte	.LASF78
 8888 04b3 05       		.byte	0x5
 8889 04b4 97       		.byte	0x97
 8890 04b5 AD000000 		.4byte	0xad
 8891 04b9 FF       		.byte	0xff
 8892 04ba 00       		.byte	0
 8893 04bb 09       		.uleb128 0x9
 8894 04bc AD000000 		.4byte	0xad
 8895 04c0 D7040000 		.4byte	0x4d7
 8896 04c4 0A       		.uleb128 0xa
 8897 04c5 F8000000 		.4byte	0xf8
 8898 04c9 03       		.byte	0x3
 8899 04ca 0A       		.uleb128 0xa
 8900 04cb F8000000 		.4byte	0xf8
 8901 04cf 02       		.byte	0x2
 8902 04d0 0A       		.uleb128 0xa
 8903 04d1 F8000000 		.4byte	0xf8
 8904 04d5 0E       		.byte	0xe
 8905 04d6 00       		.byte	0
 8906 04d7 09       		.uleb128 0x9
 8907 04d8 AD000000 		.4byte	0xad
 8908 04dc ED040000 		.4byte	0x4ed
 8909 04e0 0A       		.uleb128 0xa
 8910 04e1 F8000000 		.4byte	0xf8
 8911 04e5 03       		.byte	0x3
 8912 04e6 0A       		.uleb128 0xa
 8913 04e7 F8000000 		.4byte	0xf8
 8914 04eb 07       		.byte	0x7
 8915 04ec 00       		.byte	0
 8916 04ed 06       		.uleb128 0x6
 8917 04ee FB050000 		.4byte	.LASF79
 8918 04f2 0002     		.2byte	0x200
 8919 04f4 05       		.byte	0x5
 8920 04f5 9A       		.byte	0x9a
 8921 04f6 10050000 		.4byte	0x510
 8922 04fa 0B       		.uleb128 0xb
 8923 04fb 6100     		.ascii	"a\000"
 8924 04fd 05       		.byte	0x5
 8925 04fe 9B       		.byte	0x9b
 8926 04ff 59040000 		.4byte	0x459
 8927 0503 00       		.byte	0
 8928 0504 0C       		.uleb128 0xc
ARM GAS  C:\Users\PROYEC~1\AppData\Local\Temp\ccMsBWpv.s 			page 179


 8929 0505 6200     		.ascii	"b\000"
 8930 0507 05       		.byte	0x5
 8931 0508 9C       		.byte	0x9c
 8932 0509 59040000 		.4byte	0x459
 8933 050d 0001     		.2byte	0x100
 8934 050f 00       		.byte	0
 8935 0510 0D       		.uleb128 0xd
 8936 0511 EB040000 		.4byte	.LASF81
 8937 0515 01       		.byte	0x1
 8938 0516 3C       		.byte	0x3c
 8939 0517 00000000 		.4byte	.LFB56
 8940 051b 74000000 		.4byte	.LFE56-.LFB56
 8941 051f 01       		.uleb128 0x1
 8942 0520 9C       		.byte	0x9c
 8943 0521 5C050000 		.4byte	0x55c
 8944 0525 0E       		.uleb128 0xe
 8945 0526 6C636400 		.ascii	"lcd\000"
 8946 052a 01       		.byte	0x1
 8947 052b 3C       		.byte	0x3c
 8948 052c AD000000 		.4byte	0xad
 8949 0530 02       		.uleb128 0x2
 8950 0531 91       		.byte	0x91
 8951 0532 67       		.sleb128 -25
 8952 0533 0F       		.uleb128 0xf
 8953 0534 1D040000 		.4byte	.LASF80
 8954 0538 01       		.byte	0x1
 8955 0539 3C       		.byte	0x3c
 8956 053a B8000000 		.4byte	0xb8
 8957 053e 02       		.uleb128 0x2
 8958 053f 91       		.byte	0x91
 8959 0540 64       		.sleb128 -28
 8960 0541 10       		.uleb128 0x10
 8961 0542 2B000000 		.4byte	.LASF71
 8962 0546 01       		.byte	0x1
 8963 0547 3D       		.byte	0x3d
 8964 0548 5C050000 		.4byte	0x55c
 8965 054c 02       		.uleb128 0x2
 8966 054d 91       		.byte	0x91
 8967 054e 6C       		.sleb128 -20
 8968 054f 11       		.uleb128 0x11
 8969 0550 7800     		.ascii	"x\000"
 8970 0552 01       		.byte	0x1
 8971 0553 3D       		.byte	0x3d
 8972 0554 AD000000 		.4byte	0xad
 8973 0558 02       		.uleb128 0x2
 8974 0559 91       		.byte	0x91
 8975 055a 77       		.sleb128 -9
 8976 055b 00       		.byte	0
 8977 055c 09       		.uleb128 0x9
 8978 055d AD000000 		.4byte	0xad
 8979 0561 6C050000 		.4byte	0x56c
 8980 0565 0A       		.uleb128 0xa
 8981 0566 F8000000 		.4byte	0xf8
 8982 056a 07       		.byte	0x7
 8983 056b 00       		.byte	0
 8984 056c 0D       		.uleb128 0xd
 8985 056d FF030000 		.4byte	.LASF82
ARM GAS  C:\Users\PROYEC~1\AppData\Local\Temp\ccMsBWpv.s 			page 180


 8986 0571 01       		.byte	0x1
 8987 0572 5A       		.byte	0x5a
 8988 0573 00000000 		.4byte	.LFB57
 8989 0577 00010000 		.4byte	.LFE57-.LFB57
 8990 057b 01       		.uleb128 0x1
 8991 057c 9C       		.byte	0x9c
 8992 057d FE050000 		.4byte	0x5fe
 8993 0581 0E       		.uleb128 0xe
 8994 0582 6C636400 		.ascii	"lcd\000"
 8995 0586 01       		.byte	0x1
 8996 0587 5A       		.byte	0x5a
 8997 0588 8C000000 		.4byte	0x8c
 8998 058c 02       		.uleb128 0x2
 8999 058d 91       		.byte	0x91
 9000 058e 57       		.sleb128 -41
 9001 058f 0F       		.uleb128 0xf
 9002 0590 89020000 		.4byte	.LASF83
 9003 0594 01       		.byte	0x1
 9004 0595 5A       		.byte	0x5a
 9005 0596 8C000000 		.4byte	0x8c
 9006 059a 02       		.uleb128 0x2
 9007 059b 91       		.byte	0x91
 9008 059c 56       		.sleb128 -42
 9009 059d 0F       		.uleb128 0xf
 9010 059e 19060000 		.4byte	.LASF84
 9011 05a2 01       		.byte	0x1
 9012 05a3 5A       		.byte	0x5a
 9013 05a4 97000000 		.4byte	0x97
 9014 05a8 02       		.uleb128 0x2
 9015 05a9 91       		.byte	0x91
 9016 05aa 54       		.sleb128 -44
 9017 05ab 0F       		.uleb128 0xf
 9018 05ac 14060000 		.4byte	.LASF85
 9019 05b0 01       		.byte	0x1
 9020 05b1 5A       		.byte	0x5a
 9021 05b2 97000000 		.4byte	0x97
 9022 05b6 02       		.uleb128 0x2
 9023 05b7 91       		.byte	0x91
 9024 05b8 52       		.sleb128 -46
 9025 05b9 0F       		.uleb128 0xf
 9026 05ba FA030000 		.4byte	.LASF86
 9027 05be 01       		.byte	0x1
 9028 05bf 5A       		.byte	0x5a
 9029 05c0 8C000000 		.4byte	0x8c
 9030 05c4 02       		.uleb128 0x2
 9031 05c5 91       		.byte	0x91
 9032 05c6 00       		.sleb128 0
 9033 05c7 0F       		.uleb128 0xf
 9034 05c8 93020000 		.4byte	.LASF87
 9035 05cc 01       		.byte	0x1
 9036 05cd 5A       		.byte	0x5a
 9037 05ce 97000000 		.4byte	0x97
 9038 05d2 02       		.uleb128 0x2
 9039 05d3 91       		.byte	0x91
 9040 05d4 04       		.sleb128 4
 9041 05d5 0F       		.uleb128 0xf
 9042 05d6 EA010000 		.4byte	.LASF88
ARM GAS  C:\Users\PROYEC~1\AppData\Local\Temp\ccMsBWpv.s 			page 181


 9043 05da 01       		.byte	0x1
 9044 05db 5A       		.byte	0x5a
 9045 05dc 8C000000 		.4byte	0x8c
 9046 05e0 02       		.uleb128 0x2
 9047 05e1 91       		.byte	0x91
 9048 05e2 08       		.sleb128 8
 9049 05e3 10       		.uleb128 0x10
 9050 05e4 2B000000 		.4byte	.LASF71
 9051 05e8 01       		.byte	0x1
 9052 05e9 5B       		.byte	0x5b
 9053 05ea FE050000 		.4byte	0x5fe
 9054 05ee 02       		.uleb128 0x2
 9055 05ef 91       		.byte	0x91
 9056 05f0 5C       		.sleb128 -36
 9057 05f1 11       		.uleb128 0x11
 9058 05f2 7800     		.ascii	"x\000"
 9059 05f4 01       		.byte	0x1
 9060 05f5 5B       		.byte	0x5b
 9061 05f6 8C000000 		.4byte	0x8c
 9062 05fa 02       		.uleb128 0x2
 9063 05fb 91       		.byte	0x91
 9064 05fc 6F       		.sleb128 -17
 9065 05fd 00       		.byte	0
 9066 05fe 09       		.uleb128 0x9
 9067 05ff 8C000000 		.4byte	0x8c
 9068 0603 0E060000 		.4byte	0x60e
 9069 0607 0A       		.uleb128 0xa
 9070 0608 F8000000 		.4byte	0xf8
 9071 060c 11       		.byte	0x11
 9072 060d 00       		.byte	0
 9073 060e 0D       		.uleb128 0xd
 9074 060f 2E060000 		.4byte	.LASF89
 9075 0613 01       		.byte	0x1
 9076 0614 82       		.byte	0x82
 9077 0615 00000000 		.4byte	.LFB58
 9078 0619 50320000 		.4byte	.LFE58-.LFB58
 9079 061d 01       		.uleb128 0x1
 9080 061e 9C       		.byte	0x9c
 9081 061f 66060000 		.4byte	0x666
 9082 0623 0E       		.uleb128 0xe
 9083 0624 6C636400 		.ascii	"lcd\000"
 9084 0628 01       		.byte	0x1
 9085 0629 82       		.byte	0x82
 9086 062a AD000000 		.4byte	0xad
 9087 062e 02       		.uleb128 0x2
 9088 062f 91       		.byte	0x91
 9089 0630 67       		.sleb128 -25
 9090 0631 0F       		.uleb128 0xf
 9091 0632 2D010000 		.4byte	.LASF90
 9092 0636 01       		.byte	0x1
 9093 0637 82       		.byte	0x82
 9094 0638 AD000000 		.4byte	0xad
 9095 063c 02       		.uleb128 0x2
 9096 063d 91       		.byte	0x91
 9097 063e 66       		.sleb128 -26
 9098 063f 11       		.uleb128 0x11
 9099 0640 7800     		.ascii	"x\000"
ARM GAS  C:\Users\PROYEC~1\AppData\Local\Temp\ccMsBWpv.s 			page 182


 9100 0642 01       		.byte	0x1
 9101 0643 83       		.byte	0x83
 9102 0644 AD000000 		.4byte	0xad
 9103 0648 02       		.uleb128 0x2
 9104 0649 91       		.byte	0x91
 9105 064a 6F       		.sleb128 -17
 9106 064b 11       		.uleb128 0x11
 9107 064c 7900     		.ascii	"y\000"
 9108 064e 01       		.byte	0x1
 9109 064f 83       		.byte	0x83
 9110 0650 AD000000 		.4byte	0xad
 9111 0654 02       		.uleb128 0x2
 9112 0655 91       		.byte	0x91
 9113 0656 6E       		.sleb128 -18
 9114 0657 10       		.uleb128 0x10
 9115 0658 F7040000 		.4byte	.LASF91
 9116 065c 01       		.byte	0x1
 9117 065d 83       		.byte	0x83
 9118 065e AD000000 		.4byte	0xad
 9119 0662 02       		.uleb128 0x2
 9120 0663 91       		.byte	0x91
 9121 0664 6D       		.sleb128 -19
 9122 0665 00       		.byte	0
 9123 0666 12       		.uleb128 0x12
 9124 0667 84040000 		.4byte	.LASF92
 9125 066b 01       		.byte	0x1
 9126 066c EE02     		.2byte	0x2ee
 9127 066e 00000000 		.4byte	.LFB59
 9128 0672 CC010000 		.4byte	.LFE59-.LFB59
 9129 0676 01       		.uleb128 0x1
 9130 0677 9C       		.byte	0x9c
 9131 0678 99060000 		.4byte	0x699
 9132 067c 13       		.uleb128 0x13
 9133 067d 6C636400 		.ascii	"lcd\000"
 9134 0681 01       		.byte	0x1
 9135 0682 EE02     		.2byte	0x2ee
 9136 0684 AD000000 		.4byte	0xad
 9137 0688 02       		.uleb128 0x2
 9138 0689 91       		.byte	0x91
 9139 068a 67       		.sleb128 -25
 9140 068b 14       		.uleb128 0x14
 9141 068c 7800     		.ascii	"x\000"
 9142 068e 01       		.byte	0x1
 9143 068f EF02     		.2byte	0x2ef
 9144 0691 AD000000 		.4byte	0xad
 9145 0695 02       		.uleb128 0x2
 9146 0696 91       		.byte	0x91
 9147 0697 6F       		.sleb128 -17
 9148 0698 00       		.byte	0
 9149 0699 12       		.uleb128 0x12
 9150 069a 9B040000 		.4byte	.LASF93
 9151 069e 01       		.byte	0x1
 9152 069f 1103     		.2byte	0x311
 9153 06a1 00000000 		.4byte	.LFB60
 9154 06a5 6C030000 		.4byte	.LFE60-.LFB60
 9155 06a9 01       		.uleb128 0x1
 9156 06aa 9C       		.byte	0x9c
ARM GAS  C:\Users\PROYEC~1\AppData\Local\Temp\ccMsBWpv.s 			page 183


 9157 06ab E8060000 		.4byte	0x6e8
 9158 06af 13       		.uleb128 0x13
 9159 06b0 6C636400 		.ascii	"lcd\000"
 9160 06b4 01       		.byte	0x1
 9161 06b5 1103     		.2byte	0x311
 9162 06b7 AD000000 		.4byte	0xad
 9163 06bb 02       		.uleb128 0x2
 9164 06bc 91       		.byte	0x91
 9165 06bd 67       		.sleb128 -25
 9166 06be 15       		.uleb128 0x15
 9167 06bf 61000000 		.4byte	.LASF94
 9168 06c3 01       		.byte	0x1
 9169 06c4 1103     		.2byte	0x311
 9170 06c6 E8060000 		.4byte	0x6e8
 9171 06ca 02       		.uleb128 0x2
 9172 06cb 91       		.byte	0x91
 9173 06cc 60       		.sleb128 -32
 9174 06cd 14       		.uleb128 0x14
 9175 06ce 7800     		.ascii	"x\000"
 9176 06d0 01       		.byte	0x1
 9177 06d1 1203     		.2byte	0x312
 9178 06d3 AD000000 		.4byte	0xad
 9179 06d7 02       		.uleb128 0x2
 9180 06d8 91       		.byte	0x91
 9181 06d9 6F       		.sleb128 -17
 9182 06da 14       		.uleb128 0x14
 9183 06db 7900     		.ascii	"y\000"
 9184 06dd 01       		.byte	0x1
 9185 06de 1203     		.2byte	0x312
 9186 06e0 AD000000 		.4byte	0xad
 9187 06e4 02       		.uleb128 0x2
 9188 06e5 91       		.byte	0x91
 9189 06e6 6E       		.sleb128 -18
 9190 06e7 00       		.byte	0
 9191 06e8 16       		.uleb128 0x16
 9192 06e9 04       		.byte	0x4
 9193 06ea AD000000 		.4byte	0xad
 9194 06ee 12       		.uleb128 0x12
 9195 06ef 00000000 		.4byte	.LASF95
 9196 06f3 01       		.byte	0x1
 9197 06f4 4503     		.2byte	0x345
 9198 06f6 00000000 		.4byte	.LFB61
 9199 06fa A6000000 		.4byte	.LFE61-.LFB61
 9200 06fe 01       		.uleb128 0x1
 9201 06ff 9C       		.byte	0x9c
 9202 0700 30070000 		.4byte	0x730
 9203 0704 13       		.uleb128 0x13
 9204 0705 6C636400 		.ascii	"lcd\000"
 9205 0709 01       		.byte	0x1
 9206 070a 4503     		.2byte	0x345
 9207 070c AD000000 		.4byte	0xad
 9208 0710 02       		.uleb128 0x2
 9209 0711 91       		.byte	0x91
 9210 0712 67       		.sleb128 -25
 9211 0713 13       		.uleb128 0x13
 9212 0714 6D736700 		.ascii	"msg\000"
 9213 0718 01       		.byte	0x1
ARM GAS  C:\Users\PROYEC~1\AppData\Local\Temp\ccMsBWpv.s 			page 184


 9214 0719 4503     		.2byte	0x345
 9215 071b E8060000 		.4byte	0x6e8
 9216 071f 02       		.uleb128 0x2
 9217 0720 91       		.byte	0x91
 9218 0721 60       		.sleb128 -32
 9219 0722 14       		.uleb128 0x14
 9220 0723 7800     		.ascii	"x\000"
 9221 0725 01       		.byte	0x1
 9222 0726 4603     		.2byte	0x346
 9223 0728 AD000000 		.4byte	0xad
 9224 072c 02       		.uleb128 0x2
 9225 072d 91       		.byte	0x91
 9226 072e 6F       		.sleb128 -17
 9227 072f 00       		.byte	0
 9228 0730 12       		.uleb128 0x12
 9229 0731 17050000 		.4byte	.LASF96
 9230 0735 01       		.byte	0x1
 9231 0736 5F03     		.2byte	0x35f
 9232 0738 00000000 		.4byte	.LFB62
 9233 073c 5C050000 		.4byte	.LFE62-.LFB62
 9234 0740 01       		.uleb128 0x1
 9235 0741 9C       		.byte	0x9c
 9236 0742 7F070000 		.4byte	0x77f
 9237 0746 13       		.uleb128 0x13
 9238 0747 6C636400 		.ascii	"lcd\000"
 9239 074b 01       		.byte	0x1
 9240 074c 5F03     		.2byte	0x35f
 9241 074e AD000000 		.4byte	0xad
 9242 0752 02       		.uleb128 0x2
 9243 0753 91       		.byte	0x91
 9244 0754 67       		.sleb128 -25
 9245 0755 14       		.uleb128 0x14
 9246 0756 7800     		.ascii	"x\000"
 9247 0758 01       		.byte	0x1
 9248 0759 6003     		.2byte	0x360
 9249 075b AD000000 		.4byte	0xad
 9250 075f 02       		.uleb128 0x2
 9251 0760 91       		.byte	0x91
 9252 0761 6F       		.sleb128 -17
 9253 0762 14       		.uleb128 0x14
 9254 0763 7900     		.ascii	"y\000"
 9255 0765 01       		.byte	0x1
 9256 0766 6003     		.2byte	0x360
 9257 0768 AD000000 		.4byte	0xad
 9258 076c 02       		.uleb128 0x2
 9259 076d 91       		.byte	0x91
 9260 076e 6E       		.sleb128 -18
 9261 076f 17       		.uleb128 0x17
 9262 0770 F7040000 		.4byte	.LASF91
 9263 0774 01       		.byte	0x1
 9264 0775 6003     		.2byte	0x360
 9265 0777 AD000000 		.4byte	0xad
 9266 077b 02       		.uleb128 0x2
 9267 077c 91       		.byte	0x91
 9268 077d 6D       		.sleb128 -19
 9269 077e 00       		.byte	0
 9270 077f 18       		.uleb128 0x18
ARM GAS  C:\Users\PROYEC~1\AppData\Local\Temp\ccMsBWpv.s 			page 185


 9271 0780 D1040000 		.4byte	.LASF97
 9272 0784 06       		.byte	0x6
 9273 0785 1606     		.2byte	0x616
 9274 0787 8B070000 		.4byte	0x78b
 9275 078b 05       		.uleb128 0x5
 9276 078c A2000000 		.4byte	0xa2
 9277 0790 19       		.uleb128 0x19
 9278 0791 07030000 		.4byte	.LASF98
 9279 0795 05       		.byte	0x5
 9280 0796 2C       		.byte	0x2c
 9281 0797 A1070000 		.4byte	0x7a1
 9282 079b 05       		.uleb128 0x5
 9283 079c 03       		.byte	0x3
 9284 079d 00000000 		.4byte	countAnimation1
 9285 07a1 05       		.uleb128 0x5
 9286 07a2 DC000000 		.4byte	0xdc
 9287 07a6 19       		.uleb128 0x19
 9288 07a7 28030000 		.4byte	.LASF99
 9289 07ab 05       		.byte	0x5
 9290 07ac 2D       		.byte	0x2d
 9291 07ad A1070000 		.4byte	0x7a1
 9292 07b1 05       		.uleb128 0x5
 9293 07b2 03       		.byte	0x3
 9294 07b3 00000000 		.4byte	countAnimation2
 9295 07b7 19       		.uleb128 0x19
 9296 07b8 74020000 		.4byte	.LASF100
 9297 07bc 05       		.byte	0x5
 9298 07bd 2E       		.byte	0x2e
 9299 07be A1070000 		.4byte	0x7a1
 9300 07c2 05       		.uleb128 0x5
 9301 07c3 03       		.byte	0x3
 9302 07c4 00000000 		.4byte	countBeagleTX
 9303 07c8 19       		.uleb128 0x19
 9304 07c9 32020000 		.4byte	.LASF101
 9305 07cd 05       		.byte	0x5
 9306 07ce 2F       		.byte	0x2f
 9307 07cf F3000000 		.4byte	0xf3
 9308 07d3 05       		.uleb128 0x5
 9309 07d4 03       		.byte	0x3
 9310 07d5 00000000 		.4byte	flowLCD1
 9311 07d9 19       		.uleb128 0x19
 9312 07da 3B020000 		.4byte	.LASF102
 9313 07de 05       		.byte	0x5
 9314 07df 30       		.byte	0x30
 9315 07e0 F3000000 		.4byte	0xf3
 9316 07e4 05       		.uleb128 0x5
 9317 07e5 03       		.byte	0x3
 9318 07e6 00000000 		.4byte	flowLCD2
 9319 07ea 19       		.uleb128 0x19
 9320 07eb 7C010000 		.4byte	.LASF103
 9321 07ef 05       		.byte	0x5
 9322 07f0 31       		.byte	0x31
 9323 07f1 EE000000 		.4byte	0xee
 9324 07f5 05       		.uleb128 0x5
 9325 07f6 03       		.byte	0x3
 9326 07f7 00000000 		.4byte	digits
 9327 07fb 09       		.uleb128 0x9
ARM GAS  C:\Users\PROYEC~1\AppData\Local\Temp\ccMsBWpv.s 			page 186


 9328 07fc AD000000 		.4byte	0xad
 9329 0800 0B080000 		.4byte	0x80b
 9330 0804 0A       		.uleb128 0xa
 9331 0805 F8000000 		.4byte	0xf8
 9332 0809 0B       		.byte	0xb
 9333 080a 00       		.byte	0
 9334 080b 19       		.uleb128 0x19
 9335 080c 32000000 		.4byte	.LASF104
 9336 0810 05       		.byte	0x5
 9337 0811 32       		.byte	0x32
 9338 0812 1C080000 		.4byte	0x81c
 9339 0816 05       		.uleb128 0x5
 9340 0817 03       		.byte	0x3
 9341 0818 00000000 		.4byte	ipAdress
 9342 081c 05       		.uleb128 0x5
 9343 081d FB070000 		.4byte	0x7fb
 9344 0821 19       		.uleb128 0x19
 9345 0822 5C020000 		.4byte	.LASF105
 9346 0826 05       		.byte	0x5
 9347 0827 33       		.byte	0x33
 9348 0828 EE000000 		.4byte	0xee
 9349 082c 05       		.uleb128 0x5
 9350 082d 03       		.byte	0x3
 9351 082e 00000000 		.4byte	numberKeys1
 9352 0832 19       		.uleb128 0x19
 9353 0833 68020000 		.4byte	.LASF106
 9354 0837 05       		.byte	0x5
 9355 0838 34       		.byte	0x34
 9356 0839 EE000000 		.4byte	0xee
 9357 083d 05       		.uleb128 0x5
 9358 083e 03       		.byte	0x3
 9359 083f 00000000 		.4byte	numberKeys2
 9360 0843 19       		.uleb128 0x19
 9361 0844 67040000 		.4byte	.LASF107
 9362 0848 05       		.byte	0x5
 9363 0849 35       		.byte	0x35
 9364 084a EE000000 		.4byte	0xee
 9365 084e 05       		.uleb128 0x5
 9366 084f 03       		.byte	0x3
 9367 0850 00000000 		.4byte	flagPoint1
 9368 0854 19       		.uleb128 0x19
 9369 0855 22010000 		.4byte	.LASF108
 9370 0859 05       		.byte	0x5
 9371 085a 36       		.byte	0x36
 9372 085b EE000000 		.4byte	0xee
 9373 085f 05       		.uleb128 0x5
 9374 0860 03       		.byte	0x3
 9375 0861 00000000 		.4byte	flagPoint2
 9376 0865 09       		.uleb128 0x9
 9377 0866 AD000000 		.4byte	0xad
 9378 086a 7B080000 		.4byte	0x87b
 9379 086e 0A       		.uleb128 0xa
 9380 086f F8000000 		.4byte	0xf8
 9381 0873 77       		.byte	0x77
 9382 0874 0A       		.uleb128 0xa
 9383 0875 F8000000 		.4byte	0xf8
 9384 0879 07       		.byte	0x7
ARM GAS  C:\Users\PROYEC~1\AppData\Local\Temp\ccMsBWpv.s 			page 187


 9385 087a 00       		.byte	0
 9386 087b 19       		.uleb128 0x19
 9387 087c F5010000 		.4byte	.LASF109
 9388 0880 05       		.byte	0x5
 9389 0881 37       		.byte	0x37
 9390 0882 8C080000 		.4byte	0x88c
 9391 0886 05       		.uleb128 0x5
 9392 0887 03       		.byte	0x3
 9393 0888 00000000 		.4byte	button
 9394 088c 05       		.uleb128 0x5
 9395 088d 65080000 		.4byte	0x865
 9396 0891 19       		.uleb128 0x19
 9397 0892 94010000 		.4byte	.LASF110
 9398 0896 05       		.byte	0x5
 9399 0897 38       		.byte	0x38
 9400 0898 EE000000 		.4byte	0xee
 9401 089c 05       		.uleb128 0x5
 9402 089d 03       		.byte	0x3
 9403 089e 00000000 		.4byte	productNumber
 9404 08a2 19       		.uleb128 0x19
 9405 08a3 DC020000 		.4byte	.LASF111
 9406 08a7 05       		.byte	0x5
 9407 08a8 39       		.byte	0x39
 9408 08a9 33040000 		.4byte	0x433
 9409 08ad 05       		.uleb128 0x5
 9410 08ae 03       		.byte	0x3
 9411 08af 00000000 		.4byte	presetFast
 9412 08b3 19       		.uleb128 0x19
 9413 08b4 54050000 		.4byte	.LASF112
 9414 08b8 05       		.byte	0x5
 9415 08b9 3A       		.byte	0x3a
 9416 08ba F3000000 		.4byte	0xf3
 9417 08be 05       		.uleb128 0x5
 9418 08bf 03       		.byte	0x3
 9419 08c0 00000000 		.4byte	delayPicture1
 9420 08c4 19       		.uleb128 0x19
 9421 08c5 62050000 		.4byte	.LASF113
 9422 08c9 05       		.byte	0x5
 9423 08ca 3B       		.byte	0x3b
 9424 08cb F3000000 		.4byte	0xf3
 9425 08cf 05       		.uleb128 0x5
 9426 08d0 03       		.byte	0x3
 9427 08d1 00000000 		.4byte	delayPicture2
 9428 08d5 19       		.uleb128 0x19
 9429 08d6 4D040000 		.4byte	.LASF114
 9430 08da 05       		.byte	0x5
 9431 08db 3C       		.byte	0x3c
 9432 08dc EE000000 		.4byte	0xee
 9433 08e0 05       		.uleb128 0x5
 9434 08e1 03       		.byte	0x3
 9435 08e2 00000000 		.4byte	ppux10
 9436 08e6 19       		.uleb128 0x19
 9437 08e7 3B000000 		.4byte	.LASF115
 9438 08eb 05       		.byte	0x5
 9439 08ec 3D       		.byte	0x3d
 9440 08ed EE000000 		.4byte	0xee
 9441 08f1 05       		.uleb128 0x5
ARM GAS  C:\Users\PROYEC~1\AppData\Local\Temp\ccMsBWpv.s 			page 188


 9442 08f2 03       		.byte	0x3
 9443 08f3 00000000 		.4byte	decimalMoney
 9444 08f7 19       		.uleb128 0x19
 9445 08f8 0D000000 		.4byte	.LASF116
 9446 08fc 05       		.byte	0x5
 9447 08fd 3E       		.byte	0x3e
 9448 08fe EE000000 		.4byte	0xee
 9449 0902 05       		.uleb128 0x5
 9450 0903 03       		.byte	0x3
 9451 0904 00000000 		.4byte	decimalVolume
 9452 0908 19       		.uleb128 0x19
 9453 0909 93040000 		.4byte	.LASF117
 9454 090d 05       		.byte	0x5
 9455 090e 3F       		.byte	0x3f
 9456 090f 19090000 		.4byte	0x919
 9457 0913 05       		.uleb128 0x5
 9458 0914 03       		.byte	0x3
 9459 0915 00000000 		.4byte	symbols
 9460 0919 05       		.uleb128 0x5
 9461 091a 91030000 		.4byte	0x391
 9462 091e 09       		.uleb128 0x9
 9463 091f AD000000 		.4byte	0xad
 9464 0923 2E090000 		.4byte	0x92e
 9465 0927 0A       		.uleb128 0xa
 9466 0928 F8000000 		.4byte	0xf8
 9467 092c 02       		.byte	0x2
 9468 092d 00       		.byte	0
 9469 092e 19       		.uleb128 0x19
 9470 092f 83010000 		.4byte	.LASF118
 9471 0933 05       		.byte	0x5
 9472 0934 40       		.byte	0x40
 9473 0935 3F090000 		.4byte	0x93f
 9474 0939 05       		.uleb128 0x5
 9475 093a 03       		.byte	0x3
 9476 093b 00000000 		.4byte	time
 9477 093f 05       		.uleb128 0x5
 9478 0940 1E090000 		.4byte	0x91e
 9479 0944 19       		.uleb128 0x19
 9480 0945 8E020000 		.4byte	.LASF119
 9481 0949 05       		.byte	0x5
 9482 094a 41       		.byte	0x41
 9483 094b 55090000 		.4byte	0x955
 9484 094f 05       		.uleb128 0x5
 9485 0950 03       		.byte	0x3
 9486 0951 00000000 		.4byte	date
 9487 0955 05       		.uleb128 0x5
 9488 0956 1E090000 		.4byte	0x91e
 9489 095a 19       		.uleb128 0x19
 9490 095b 2D010000 		.4byte	.LASF90
 9491 095f 05       		.byte	0x5
 9492 0960 42       		.byte	0x42
 9493 0961 6B090000 		.4byte	0x96b
 9494 0965 05       		.uleb128 0x5
 9495 0966 03       		.byte	0x3
 9496 0967 00000000 		.4byte	screen
 9497 096b 05       		.uleb128 0x5
 9498 096c 91030000 		.4byte	0x391
ARM GAS  C:\Users\PROYEC~1\AppData\Local\Temp\ccMsBWpv.s 			page 189


 9499 0970 19       		.uleb128 0x19
 9500 0971 F2000000 		.4byte	.LASF120
 9501 0975 05       		.byte	0x5
 9502 0976 43       		.byte	0x43
 9503 0977 81090000 		.4byte	0x981
 9504 097b 05       		.uleb128 0x5
 9505 097c 03       		.byte	0x3
 9506 097d 00000000 		.4byte	residue
 9507 0981 05       		.uleb128 0x5
 9508 0982 D7030000 		.4byte	0x3d7
 9509 0986 09       		.uleb128 0x9
 9510 0987 AD000000 		.4byte	0xad
 9511 098b 96090000 		.4byte	0x996
 9512 098f 0A       		.uleb128 0xa
 9513 0990 F8000000 		.4byte	0xf8
 9514 0994 1D       		.byte	0x1d
 9515 0995 00       		.byte	0
 9516 0996 19       		.uleb128 0x19
 9517 0997 00060000 		.4byte	.LASF121
 9518 099b 05       		.byte	0x5
 9519 099c 44       		.byte	0x44
 9520 099d 86090000 		.4byte	0x986
 9521 09a1 05       		.uleb128 0x5
 9522 09a2 03       		.byte	0x3
 9523 09a3 00000000 		.4byte	temporal
 9524 09a7 19       		.uleb128 0x19
 9525 09a8 22020000 		.4byte	.LASF122
 9526 09ac 05       		.byte	0x5
 9527 09ad 45       		.byte	0x45
 9528 09ae EE000000 		.4byte	0xee
 9529 09b2 05       		.uleb128 0x5
 9530 09b3 03       		.byte	0x3
 9531 09b4 00000000 		.4byte	turn
 9532 09b8 19       		.uleb128 0x19
 9533 09b9 F2050000 		.4byte	.LASF123
 9534 09bd 05       		.byte	0x5
 9535 09be 46       		.byte	0x46
 9536 09bf C9090000 		.4byte	0x9c9
 9537 09c3 05       		.uleb128 0x5
 9538 09c4 03       		.byte	0x3
 9539 09c5 00000000 		.4byte	idSeller
 9540 09c9 05       		.uleb128 0x5
 9541 09ca 61030000 		.4byte	0x361
 9542 09ce 19       		.uleb128 0x19
 9543 09cf DE040000 		.4byte	.LASF124
 9544 09d3 05       		.byte	0x5
 9545 09d4 47       		.byte	0x47
 9546 09d5 EE000000 		.4byte	0xee
 9547 09d9 05       		.uleb128 0x5
 9548 09da 03       		.byte	0x3
 9549 09db 00000000 		.4byte	typeIdSeller
 9550 09df 19       		.uleb128 0x19
 9551 09e0 2D050000 		.4byte	.LASF125
 9552 09e4 05       		.byte	0x5
 9553 09e5 48       		.byte	0x48
 9554 09e6 F0090000 		.4byte	0x9f0
 9555 09ea 05       		.uleb128 0x5
ARM GAS  C:\Users\PROYEC~1\AppData\Local\Temp\ccMsBWpv.s 			page 190


 9556 09eb 03       		.byte	0x3
 9557 09ec 00000000 		.4byte	passwordSeller
 9558 09f0 05       		.uleb128 0x5
 9559 09f1 5C050000 		.4byte	0x55c
 9560 09f5 19       		.uleb128 0x19
 9561 09f6 10040000 		.4byte	.LASF126
 9562 09fa 05       		.byte	0x5
 9563 09fb 49       		.byte	0x49
 9564 09fc EE000000 		.4byte	0xee
 9565 0a00 05       		.uleb128 0x5
 9566 0a01 03       		.byte	0x3
 9567 0a02 00000000 		.4byte	flagResetMux
 9568 0a06 19       		.uleb128 0x19
 9569 0a07 BA010000 		.4byte	.LASF127
 9570 0a0b 05       		.byte	0x5
 9571 0a0c 85       		.byte	0x85
 9572 0a0d FF000000 		.4byte	0xff
 9573 0a11 05       		.uleb128 0x5
 9574 0a12 03       		.byte	0x3
 9575 0a13 00000000 		.4byte	bufferLCD1
 9576 0a17 19       		.uleb128 0x19
 9577 0a18 C5010000 		.4byte	.LASF128
 9578 0a1c 05       		.byte	0x5
 9579 0a1d 86       		.byte	0x86
 9580 0a1e FF000000 		.4byte	0xff
 9581 0a22 05       		.uleb128 0x5
 9582 0a23 03       		.byte	0x3
 9583 0a24 00000000 		.4byte	bufferLCD2
 9584 0a28 19       		.uleb128 0x19
 9585 0a29 01010000 		.4byte	.LASF129
 9586 0a2d 05       		.byte	0x5
 9587 0a2e 9F       		.byte	0x9f
 9588 0a2f ED040000 		.4byte	0x4ed
 9589 0a33 05       		.uleb128 0x5
 9590 0a34 03       		.byte	0x3
 9591 0a35 00000000 		.4byte	side
 9592 0a39 00       		.byte	0
 9593              		.section	.debug_abbrev,"",%progbits
 9594              	.Ldebug_abbrev0:
 9595 0000 01       		.uleb128 0x1
 9596 0001 11       		.uleb128 0x11
 9597 0002 01       		.byte	0x1
 9598 0003 25       		.uleb128 0x25
 9599 0004 0E       		.uleb128 0xe
 9600 0005 13       		.uleb128 0x13
 9601 0006 0B       		.uleb128 0xb
 9602 0007 03       		.uleb128 0x3
 9603 0008 0E       		.uleb128 0xe
 9604 0009 1B       		.uleb128 0x1b
 9605 000a 0E       		.uleb128 0xe
 9606 000b 55       		.uleb128 0x55
 9607 000c 17       		.uleb128 0x17
 9608 000d 11       		.uleb128 0x11
 9609 000e 01       		.uleb128 0x1
 9610 000f 10       		.uleb128 0x10
 9611 0010 17       		.uleb128 0x17
 9612 0011 00       		.byte	0
ARM GAS  C:\Users\PROYEC~1\AppData\Local\Temp\ccMsBWpv.s 			page 191


 9613 0012 00       		.byte	0
 9614 0013 02       		.uleb128 0x2
 9615 0014 24       		.uleb128 0x24
 9616 0015 00       		.byte	0
 9617 0016 0B       		.uleb128 0xb
 9618 0017 0B       		.uleb128 0xb
 9619 0018 3E       		.uleb128 0x3e
 9620 0019 0B       		.uleb128 0xb
 9621 001a 03       		.uleb128 0x3
 9622 001b 0E       		.uleb128 0xe
 9623 001c 00       		.byte	0
 9624 001d 00       		.byte	0
 9625 001e 03       		.uleb128 0x3
 9626 001f 16       		.uleb128 0x16
 9627 0020 00       		.byte	0
 9628 0021 03       		.uleb128 0x3
 9629 0022 0E       		.uleb128 0xe
 9630 0023 3A       		.uleb128 0x3a
 9631 0024 0B       		.uleb128 0xb
 9632 0025 3B       		.uleb128 0x3b
 9633 0026 0B       		.uleb128 0xb
 9634 0027 49       		.uleb128 0x49
 9635 0028 13       		.uleb128 0x13
 9636 0029 00       		.byte	0
 9637 002a 00       		.byte	0
 9638 002b 04       		.uleb128 0x4
 9639 002c 24       		.uleb128 0x24
 9640 002d 00       		.byte	0
 9641 002e 0B       		.uleb128 0xb
 9642 002f 0B       		.uleb128 0xb
 9643 0030 3E       		.uleb128 0x3e
 9644 0031 0B       		.uleb128 0xb
 9645 0032 03       		.uleb128 0x3
 9646 0033 08       		.uleb128 0x8
 9647 0034 00       		.byte	0
 9648 0035 00       		.byte	0
 9649 0036 05       		.uleb128 0x5
 9650 0037 35       		.uleb128 0x35
 9651 0038 00       		.byte	0
 9652 0039 49       		.uleb128 0x49
 9653 003a 13       		.uleb128 0x13
 9654 003b 00       		.byte	0
 9655 003c 00       		.byte	0
 9656 003d 06       		.uleb128 0x6
 9657 003e 13       		.uleb128 0x13
 9658 003f 01       		.byte	0x1
 9659 0040 03       		.uleb128 0x3
 9660 0041 0E       		.uleb128 0xe
 9661 0042 0B       		.uleb128 0xb
 9662 0043 05       		.uleb128 0x5
 9663 0044 3A       		.uleb128 0x3a
 9664 0045 0B       		.uleb128 0xb
 9665 0046 3B       		.uleb128 0x3b
 9666 0047 0B       		.uleb128 0xb
 9667 0048 01       		.uleb128 0x1
 9668 0049 13       		.uleb128 0x13
 9669 004a 00       		.byte	0
ARM GAS  C:\Users\PROYEC~1\AppData\Local\Temp\ccMsBWpv.s 			page 192


 9670 004b 00       		.byte	0
 9671 004c 07       		.uleb128 0x7
 9672 004d 0D       		.uleb128 0xd
 9673 004e 00       		.byte	0
 9674 004f 03       		.uleb128 0x3
 9675 0050 0E       		.uleb128 0xe
 9676 0051 3A       		.uleb128 0x3a
 9677 0052 0B       		.uleb128 0xb
 9678 0053 3B       		.uleb128 0x3b
 9679 0054 0B       		.uleb128 0xb
 9680 0055 49       		.uleb128 0x49
 9681 0056 13       		.uleb128 0x13
 9682 0057 38       		.uleb128 0x38
 9683 0058 0B       		.uleb128 0xb
 9684 0059 00       		.byte	0
 9685 005a 00       		.byte	0
 9686 005b 08       		.uleb128 0x8
 9687 005c 0D       		.uleb128 0xd
 9688 005d 00       		.byte	0
 9689 005e 03       		.uleb128 0x3
 9690 005f 0E       		.uleb128 0xe
 9691 0060 3A       		.uleb128 0x3a
 9692 0061 0B       		.uleb128 0xb
 9693 0062 3B       		.uleb128 0x3b
 9694 0063 0B       		.uleb128 0xb
 9695 0064 49       		.uleb128 0x49
 9696 0065 13       		.uleb128 0x13
 9697 0066 38       		.uleb128 0x38
 9698 0067 05       		.uleb128 0x5
 9699 0068 00       		.byte	0
 9700 0069 00       		.byte	0
 9701 006a 09       		.uleb128 0x9
 9702 006b 01       		.uleb128 0x1
 9703 006c 01       		.byte	0x1
 9704 006d 49       		.uleb128 0x49
 9705 006e 13       		.uleb128 0x13
 9706 006f 01       		.uleb128 0x1
 9707 0070 13       		.uleb128 0x13
 9708 0071 00       		.byte	0
 9709 0072 00       		.byte	0
 9710 0073 0A       		.uleb128 0xa
 9711 0074 21       		.uleb128 0x21
 9712 0075 00       		.byte	0
 9713 0076 49       		.uleb128 0x49
 9714 0077 13       		.uleb128 0x13
 9715 0078 2F       		.uleb128 0x2f
 9716 0079 0B       		.uleb128 0xb
 9717 007a 00       		.byte	0
 9718 007b 00       		.byte	0
 9719 007c 0B       		.uleb128 0xb
 9720 007d 0D       		.uleb128 0xd
 9721 007e 00       		.byte	0
 9722 007f 03       		.uleb128 0x3
 9723 0080 08       		.uleb128 0x8
 9724 0081 3A       		.uleb128 0x3a
 9725 0082 0B       		.uleb128 0xb
 9726 0083 3B       		.uleb128 0x3b
ARM GAS  C:\Users\PROYEC~1\AppData\Local\Temp\ccMsBWpv.s 			page 193


 9727 0084 0B       		.uleb128 0xb
 9728 0085 49       		.uleb128 0x49
 9729 0086 13       		.uleb128 0x13
 9730 0087 38       		.uleb128 0x38
 9731 0088 0B       		.uleb128 0xb
 9732 0089 00       		.byte	0
 9733 008a 00       		.byte	0
 9734 008b 0C       		.uleb128 0xc
 9735 008c 0D       		.uleb128 0xd
 9736 008d 00       		.byte	0
 9737 008e 03       		.uleb128 0x3
 9738 008f 08       		.uleb128 0x8
 9739 0090 3A       		.uleb128 0x3a
 9740 0091 0B       		.uleb128 0xb
 9741 0092 3B       		.uleb128 0x3b
 9742 0093 0B       		.uleb128 0xb
 9743 0094 49       		.uleb128 0x49
 9744 0095 13       		.uleb128 0x13
 9745 0096 38       		.uleb128 0x38
 9746 0097 05       		.uleb128 0x5
 9747 0098 00       		.byte	0
 9748 0099 00       		.byte	0
 9749 009a 0D       		.uleb128 0xd
 9750 009b 2E       		.uleb128 0x2e
 9751 009c 01       		.byte	0x1
 9752 009d 3F       		.uleb128 0x3f
 9753 009e 19       		.uleb128 0x19
 9754 009f 03       		.uleb128 0x3
 9755 00a0 0E       		.uleb128 0xe
 9756 00a1 3A       		.uleb128 0x3a
 9757 00a2 0B       		.uleb128 0xb
 9758 00a3 3B       		.uleb128 0x3b
 9759 00a4 0B       		.uleb128 0xb
 9760 00a5 27       		.uleb128 0x27
 9761 00a6 19       		.uleb128 0x19
 9762 00a7 11       		.uleb128 0x11
 9763 00a8 01       		.uleb128 0x1
 9764 00a9 12       		.uleb128 0x12
 9765 00aa 06       		.uleb128 0x6
 9766 00ab 40       		.uleb128 0x40
 9767 00ac 18       		.uleb128 0x18
 9768 00ad 9642     		.uleb128 0x2116
 9769 00af 19       		.uleb128 0x19
 9770 00b0 01       		.uleb128 0x1
 9771 00b1 13       		.uleb128 0x13
 9772 00b2 00       		.byte	0
 9773 00b3 00       		.byte	0
 9774 00b4 0E       		.uleb128 0xe
 9775 00b5 05       		.uleb128 0x5
 9776 00b6 00       		.byte	0
 9777 00b7 03       		.uleb128 0x3
 9778 00b8 08       		.uleb128 0x8
 9779 00b9 3A       		.uleb128 0x3a
 9780 00ba 0B       		.uleb128 0xb
 9781 00bb 3B       		.uleb128 0x3b
 9782 00bc 0B       		.uleb128 0xb
 9783 00bd 49       		.uleb128 0x49
ARM GAS  C:\Users\PROYEC~1\AppData\Local\Temp\ccMsBWpv.s 			page 194


 9784 00be 13       		.uleb128 0x13
 9785 00bf 02       		.uleb128 0x2
 9786 00c0 18       		.uleb128 0x18
 9787 00c1 00       		.byte	0
 9788 00c2 00       		.byte	0
 9789 00c3 0F       		.uleb128 0xf
 9790 00c4 05       		.uleb128 0x5
 9791 00c5 00       		.byte	0
 9792 00c6 03       		.uleb128 0x3
 9793 00c7 0E       		.uleb128 0xe
 9794 00c8 3A       		.uleb128 0x3a
 9795 00c9 0B       		.uleb128 0xb
 9796 00ca 3B       		.uleb128 0x3b
 9797 00cb 0B       		.uleb128 0xb
 9798 00cc 49       		.uleb128 0x49
 9799 00cd 13       		.uleb128 0x13
 9800 00ce 02       		.uleb128 0x2
 9801 00cf 18       		.uleb128 0x18
 9802 00d0 00       		.byte	0
 9803 00d1 00       		.byte	0
 9804 00d2 10       		.uleb128 0x10
 9805 00d3 34       		.uleb128 0x34
 9806 00d4 00       		.byte	0
 9807 00d5 03       		.uleb128 0x3
 9808 00d6 0E       		.uleb128 0xe
 9809 00d7 3A       		.uleb128 0x3a
 9810 00d8 0B       		.uleb128 0xb
 9811 00d9 3B       		.uleb128 0x3b
 9812 00da 0B       		.uleb128 0xb
 9813 00db 49       		.uleb128 0x49
 9814 00dc 13       		.uleb128 0x13
 9815 00dd 02       		.uleb128 0x2
 9816 00de 18       		.uleb128 0x18
 9817 00df 00       		.byte	0
 9818 00e0 00       		.byte	0
 9819 00e1 11       		.uleb128 0x11
 9820 00e2 34       		.uleb128 0x34
 9821 00e3 00       		.byte	0
 9822 00e4 03       		.uleb128 0x3
 9823 00e5 08       		.uleb128 0x8
 9824 00e6 3A       		.uleb128 0x3a
 9825 00e7 0B       		.uleb128 0xb
 9826 00e8 3B       		.uleb128 0x3b
 9827 00e9 0B       		.uleb128 0xb
 9828 00ea 49       		.uleb128 0x49
 9829 00eb 13       		.uleb128 0x13
 9830 00ec 02       		.uleb128 0x2
 9831 00ed 18       		.uleb128 0x18
 9832 00ee 00       		.byte	0
 9833 00ef 00       		.byte	0
 9834 00f0 12       		.uleb128 0x12
 9835 00f1 2E       		.uleb128 0x2e
 9836 00f2 01       		.byte	0x1
 9837 00f3 3F       		.uleb128 0x3f
 9838 00f4 19       		.uleb128 0x19
 9839 00f5 03       		.uleb128 0x3
 9840 00f6 0E       		.uleb128 0xe
ARM GAS  C:\Users\PROYEC~1\AppData\Local\Temp\ccMsBWpv.s 			page 195


 9841 00f7 3A       		.uleb128 0x3a
 9842 00f8 0B       		.uleb128 0xb
 9843 00f9 3B       		.uleb128 0x3b
 9844 00fa 05       		.uleb128 0x5
 9845 00fb 27       		.uleb128 0x27
 9846 00fc 19       		.uleb128 0x19
 9847 00fd 11       		.uleb128 0x11
 9848 00fe 01       		.uleb128 0x1
 9849 00ff 12       		.uleb128 0x12
 9850 0100 06       		.uleb128 0x6
 9851 0101 40       		.uleb128 0x40
 9852 0102 18       		.uleb128 0x18
 9853 0103 9642     		.uleb128 0x2116
 9854 0105 19       		.uleb128 0x19
 9855 0106 01       		.uleb128 0x1
 9856 0107 13       		.uleb128 0x13
 9857 0108 00       		.byte	0
 9858 0109 00       		.byte	0
 9859 010a 13       		.uleb128 0x13
 9860 010b 05       		.uleb128 0x5
 9861 010c 00       		.byte	0
 9862 010d 03       		.uleb128 0x3
 9863 010e 08       		.uleb128 0x8
 9864 010f 3A       		.uleb128 0x3a
 9865 0110 0B       		.uleb128 0xb
 9866 0111 3B       		.uleb128 0x3b
 9867 0112 05       		.uleb128 0x5
 9868 0113 49       		.uleb128 0x49
 9869 0114 13       		.uleb128 0x13
 9870 0115 02       		.uleb128 0x2
 9871 0116 18       		.uleb128 0x18
 9872 0117 00       		.byte	0
 9873 0118 00       		.byte	0
 9874 0119 14       		.uleb128 0x14
 9875 011a 34       		.uleb128 0x34
 9876 011b 00       		.byte	0
 9877 011c 03       		.uleb128 0x3
 9878 011d 08       		.uleb128 0x8
 9879 011e 3A       		.uleb128 0x3a
 9880 011f 0B       		.uleb128 0xb
 9881 0120 3B       		.uleb128 0x3b
 9882 0121 05       		.uleb128 0x5
 9883 0122 49       		.uleb128 0x49
 9884 0123 13       		.uleb128 0x13
 9885 0124 02       		.uleb128 0x2
 9886 0125 18       		.uleb128 0x18
 9887 0126 00       		.byte	0
 9888 0127 00       		.byte	0
 9889 0128 15       		.uleb128 0x15
 9890 0129 05       		.uleb128 0x5
 9891 012a 00       		.byte	0
 9892 012b 03       		.uleb128 0x3
 9893 012c 0E       		.uleb128 0xe
 9894 012d 3A       		.uleb128 0x3a
 9895 012e 0B       		.uleb128 0xb
 9896 012f 3B       		.uleb128 0x3b
 9897 0130 05       		.uleb128 0x5
ARM GAS  C:\Users\PROYEC~1\AppData\Local\Temp\ccMsBWpv.s 			page 196


 9898 0131 49       		.uleb128 0x49
 9899 0132 13       		.uleb128 0x13
 9900 0133 02       		.uleb128 0x2
 9901 0134 18       		.uleb128 0x18
 9902 0135 00       		.byte	0
 9903 0136 00       		.byte	0
 9904 0137 16       		.uleb128 0x16
 9905 0138 0F       		.uleb128 0xf
 9906 0139 00       		.byte	0
 9907 013a 0B       		.uleb128 0xb
 9908 013b 0B       		.uleb128 0xb
 9909 013c 49       		.uleb128 0x49
 9910 013d 13       		.uleb128 0x13
 9911 013e 00       		.byte	0
 9912 013f 00       		.byte	0
 9913 0140 17       		.uleb128 0x17
 9914 0141 34       		.uleb128 0x34
 9915 0142 00       		.byte	0
 9916 0143 03       		.uleb128 0x3
 9917 0144 0E       		.uleb128 0xe
 9918 0145 3A       		.uleb128 0x3a
 9919 0146 0B       		.uleb128 0xb
 9920 0147 3B       		.uleb128 0x3b
 9921 0148 05       		.uleb128 0x5
 9922 0149 49       		.uleb128 0x49
 9923 014a 13       		.uleb128 0x13
 9924 014b 02       		.uleb128 0x2
 9925 014c 18       		.uleb128 0x18
 9926 014d 00       		.byte	0
 9927 014e 00       		.byte	0
 9928 014f 18       		.uleb128 0x18
 9929 0150 34       		.uleb128 0x34
 9930 0151 00       		.byte	0
 9931 0152 03       		.uleb128 0x3
 9932 0153 0E       		.uleb128 0xe
 9933 0154 3A       		.uleb128 0x3a
 9934 0155 0B       		.uleb128 0xb
 9935 0156 3B       		.uleb128 0x3b
 9936 0157 05       		.uleb128 0x5
 9937 0158 49       		.uleb128 0x49
 9938 0159 13       		.uleb128 0x13
 9939 015a 3F       		.uleb128 0x3f
 9940 015b 19       		.uleb128 0x19
 9941 015c 3C       		.uleb128 0x3c
 9942 015d 19       		.uleb128 0x19
 9943 015e 00       		.byte	0
 9944 015f 00       		.byte	0
 9945 0160 19       		.uleb128 0x19
 9946 0161 34       		.uleb128 0x34
 9947 0162 00       		.byte	0
 9948 0163 03       		.uleb128 0x3
 9949 0164 0E       		.uleb128 0xe
 9950 0165 3A       		.uleb128 0x3a
 9951 0166 0B       		.uleb128 0xb
 9952 0167 3B       		.uleb128 0x3b
 9953 0168 0B       		.uleb128 0xb
 9954 0169 49       		.uleb128 0x49
ARM GAS  C:\Users\PROYEC~1\AppData\Local\Temp\ccMsBWpv.s 			page 197


 9955 016a 13       		.uleb128 0x13
 9956 016b 3F       		.uleb128 0x3f
 9957 016c 19       		.uleb128 0x19
 9958 016d 02       		.uleb128 0x2
 9959 016e 18       		.uleb128 0x18
 9960 016f 00       		.byte	0
 9961 0170 00       		.byte	0
 9962 0171 00       		.byte	0
 9963              		.section	.debug_aranges,"",%progbits
 9964 0000 4C000000 		.4byte	0x4c
 9965 0004 0200     		.2byte	0x2
 9966 0006 00000000 		.4byte	.Ldebug_info0
 9967 000a 04       		.byte	0x4
 9968 000b 00       		.byte	0
 9969 000c 0000     		.2byte	0
 9970 000e 0000     		.2byte	0
 9971 0010 00000000 		.4byte	.LFB56
 9972 0014 74000000 		.4byte	.LFE56-.LFB56
 9973 0018 00000000 		.4byte	.LFB57
 9974 001c 00010000 		.4byte	.LFE57-.LFB57
 9975 0020 00000000 		.4byte	.LFB58
 9976 0024 50320000 		.4byte	.LFE58-.LFB58
 9977 0028 00000000 		.4byte	.LFB59
 9978 002c CC010000 		.4byte	.LFE59-.LFB59
 9979 0030 00000000 		.4byte	.LFB60
 9980 0034 6C030000 		.4byte	.LFE60-.LFB60
 9981 0038 00000000 		.4byte	.LFB61
 9982 003c A6000000 		.4byte	.LFE61-.LFB61
 9983 0040 00000000 		.4byte	.LFB62
 9984 0044 5C050000 		.4byte	.LFE62-.LFB62
 9985 0048 00000000 		.4byte	0
 9986 004c 00000000 		.4byte	0
 9987              		.section	.debug_ranges,"",%progbits
 9988              	.Ldebug_ranges0:
 9989 0000 00000000 		.4byte	.LFB56
 9990 0004 74000000 		.4byte	.LFE56
 9991 0008 00000000 		.4byte	.LFB57
 9992 000c 00010000 		.4byte	.LFE57
 9993 0010 00000000 		.4byte	.LFB58
 9994 0014 50320000 		.4byte	.LFE58
 9995 0018 00000000 		.4byte	.LFB59
 9996 001c CC010000 		.4byte	.LFE59
 9997 0020 00000000 		.4byte	.LFB60
 9998 0024 6C030000 		.4byte	.LFE60
 9999 0028 00000000 		.4byte	.LFB61
 10000 002c A6000000 		.4byte	.LFE61
 10001 0030 00000000 		.4byte	.LFB62
 10002 0034 5C050000 		.4byte	.LFE62
 10003 0038 00000000 		.4byte	0
 10004 003c 00000000 		.4byte	0
 10005              		.section	.debug_line,"",%progbits
 10006              	.Ldebug_line0:
 10007 0000 B40C0000 		.section	.debug_str,"MS",%progbits,1
 10007      02005901 
 10007      00000201 
 10007      FB0E0D00 
 10007      01010101 
ARM GAS  C:\Users\PROYEC~1\AppData\Local\Temp\ccMsBWpv.s 			page 198


 10008              	.LASF95:
 10009 0000 73686F77 		.ascii	"show_message\000"
 10009      5F6D6573 
 10009      73616765 
 10009      00
 10010              	.LASF116:
 10011 000d 64656369 		.ascii	"decimalVolume\000"
 10011      6D616C56 
 10011      6F6C756D 
 10011      6500
 10012              	.LASF56:
 10013 001b 6D657373 		.ascii	"message\000"
 10013      61676500 
 10014              	.LASF131:
 10015 0023 2E5C4C43 		.ascii	".\\LCD.c\000"
 10015      442E6300 
 10016              	.LASF71:
 10017 002b 62756666 		.ascii	"buffer\000"
 10017      657200
 10018              	.LASF104:
 10019 0032 69704164 		.ascii	"ipAdress\000"
 10019      72657373 
 10019      00
 10020              	.LASF115:
 10021 003b 64656369 		.ascii	"decimalMoney\000"
 10021      6D616C4D 
 10021      6F6E6579 
 10021      00
 10022              	.LASF34:
 10023 0048 73616C65 		.ascii	"salePerform\000"
 10023      50657266 
 10023      6F726D00 
 10024              	.LASF11:
 10025 0054 756E7369 		.ascii	"unsigned int\000"
 10025      676E6564 
 10025      20696E74 
 10025      00
 10026              	.LASF94:
 10027 0061 76657273 		.ascii	"version\000"
 10027      696F6E00 
 10028              	.LASF61:
 10029 0069 70726F64 		.ascii	"productMarket\000"
 10029      7563744D 
 10029      61726B65 
 10029      7400
 10030              	.LASF6:
 10031 0077 5F5F696E 		.ascii	"__int32_t\000"
 10031      7433325F 
 10031      7400
 10032              	.LASF54:
 10033 0081 666C6167 		.ascii	"flagLiftHandle\000"
 10033      4C696674 
 10033      48616E64 
 10033      6C6500
 10034              	.LASF132:
 10035 0090 433A5C55 		.ascii	"C:\\Users\\Proyectos_Hardware\\Dropbox\\Proyecto Co"
 10035      73657273 
ARM GAS  C:\Users\PROYEC~1\AppData\Local\Temp\ccMsBWpv.s 			page 199


 10035      5C50726F 
 10035      79656374 
 10035      6F735F48 
 10036 00bf 6E74726F 		.ascii	"ntroller\\Mux Advance Encore V5_00\\MuxAdvance.cyds"
 10036      6C6C6572 
 10036      5C4D7578 
 10036      20416476 
 10036      616E6365 
 10037 00f0 6E00     		.ascii	"n\000"
 10038              	.LASF120:
 10039 00f2 72657369 		.ascii	"residue\000"
 10039      64756500 
 10040              	.LASF23:
 10041 00fa 69645479 		.ascii	"idType\000"
 10041      706500
 10042              	.LASF129:
 10043 0101 73696465 		.ascii	"side\000"
 10043      00
 10044              	.LASF26:
 10045 0106 73656C65 		.ascii	"selectedSale\000"
 10045      63746564 
 10045      53616C65 
 10045      00
 10046              	.LASF62:
 10047 0113 7175616E 		.ascii	"quantityMarket\000"
 10047      74697479 
 10047      4D61726B 
 10047      657400
 10048              	.LASF108:
 10049 0122 666C6167 		.ascii	"flagPoint2\000"
 10049      506F696E 
 10049      743200
 10050              	.LASF90:
 10051 012d 73637265 		.ascii	"screen\000"
 10051      656E00
 10052              	.LASF58:
 10053 0134 766F6C75 		.ascii	"volumeQuota\000"
 10053      6D655175 
 10053      6F746100 
 10054              	.LASF18:
 10055 0140 666C6F61 		.ascii	"float\000"
 10055      7400
 10056              	.LASF10:
 10057 0146 6C6F6E67 		.ascii	"long long unsigned int\000"
 10057      206C6F6E 
 10057      6720756E 
 10057      7369676E 
 10057      65642069 
 10058              	.LASF44:
 10059 015d 746F7461 		.ascii	"totalVolumePrevious\000"
 10059      6C566F6C 
 10059      756D6550 
 10059      72657669 
 10059      6F757300 
 10060              	.LASF4:
 10061 0171 5F5F7569 		.ascii	"__uint16_t\000"
 10061      6E743136 
ARM GAS  C:\Users\PROYEC~1\AppData\Local\Temp\ccMsBWpv.s 			page 200


 10061      5F7400
 10062              	.LASF103:
 10063 017c 64696769 		.ascii	"digits\000"
 10063      747300
 10064              	.LASF118:
 10065 0183 74696D65 		.ascii	"time\000"
 10065      00
 10066              	.LASF37:
 10067 0188 70726F64 		.ascii	"productType\000"
 10067      75637454 
 10067      79706500 
 10068              	.LASF110:
 10069 0194 70726F64 		.ascii	"productNumber\000"
 10069      7563744E 
 10069      756D6265 
 10069      7200
 10070              	.LASF40:
 10071 01a2 64617465 		.ascii	"dateDownHandle\000"
 10071      446F776E 
 10071      48616E64 
 10071      6C6500
 10072              	.LASF24:
 10073 01b1 69645365 		.ascii	"idSerial\000"
 10073      7269616C 
 10073      00
 10074              	.LASF127:
 10075 01ba 62756666 		.ascii	"bufferLCD1\000"
 10075      65724C43 
 10075      443100
 10076              	.LASF128:
 10077 01c5 62756666 		.ascii	"bufferLCD2\000"
 10077      65724C43 
 10077      443200
 10078              	.LASF50:
 10079 01d0 6D696C65 		.ascii	"mileageSale\000"
 10079      61676553 
 10079      616C6500 
 10080              	.LASF70:
 10081 01dc 666C6167 		.ascii	"flagChangePPU\000"
 10081      4368616E 
 10081      67655050 
 10081      5500
 10082              	.LASF88:
 10083 01ea 626F7474 		.ascii	"bottomless\000"
 10083      6F6D6C65 
 10083      737300
 10084              	.LASF109:
 10085 01f5 62757474 		.ascii	"button\000"
 10085      6F6E00
 10086              	.LASF60:
 10087 01fc 73657269 		.ascii	"serialMarket\000"
 10087      616C4D61 
 10087      726B6574 
 10087      00
 10088              	.LASF73:
 10089 0209 746F7461 		.ascii	"totalsHandle\000"
 10089      6C734861 
ARM GAS  C:\Users\PROYEC~1\AppData\Local\Temp\ccMsBWpv.s 			page 201


 10089      6E646C65 
 10089      00
 10090              	.LASF36:
 10091 0216 70726573 		.ascii	"presetValue\000"
 10091      65745661 
 10091      6C756500 
 10092              	.LASF122:
 10093 0222 7475726E 		.ascii	"turn\000"
 10093      00
 10094              	.LASF51:
 10095 0227 6964656E 		.ascii	"identySale\000"
 10095      74795361 
 10095      6C6500
 10096              	.LASF101:
 10097 0232 666C6F77 		.ascii	"flowLCD1\000"
 10097      4C434431 
 10097      00
 10098              	.LASF102:
 10099 023b 666C6F77 		.ascii	"flowLCD2\000"
 10099      4C434432 
 10099      00
 10100              	.LASF33:
 10101 0244 73616C65 		.ascii	"saleType\000"
 10101      54797065 
 10101      00
 10102              	.LASF31:
 10103 024d 76616C75 		.ascii	"valueKeys\000"
 10103      654B6579 
 10103      7300
 10104              	.LASF21:
 10105 0257 63686172 		.ascii	"char\000"
 10105      00
 10106              	.LASF105:
 10107 025c 6E756D62 		.ascii	"numberKeys1\000"
 10107      65724B65 
 10107      79733100 
 10108              	.LASF106:
 10109 0268 6E756D62 		.ascii	"numberKeys2\000"
 10109      65724B65 
 10109      79733200 
 10110              	.LASF100:
 10111 0274 636F756E 		.ascii	"countBeagleTX\000"
 10111      74426561 
 10111      676C6554 
 10111      5800
 10112              	.LASF16:
 10113 0282 75696E74 		.ascii	"uint16\000"
 10113      313600
 10114              	.LASF83:
 10115 0289 64617461 		.ascii	"data\000"
 10115      00
 10116              	.LASF119:
 10117 028e 64617465 		.ascii	"date\000"
 10117      00
 10118              	.LASF87:
 10119 0293 6667636F 		.ascii	"fgcolor\000"
 10119      6C6F7200 
ARM GAS  C:\Users\PROYEC~1\AppData\Local\Temp\ccMsBWpv.s 			page 202


 10120              	.LASF12:
 10121 029b 75696E74 		.ascii	"uint8_t\000"
 10121      385F7400 
 10122              	.LASF53:
 10123 02a3 666C6167 		.ascii	"flagPayment\000"
 10123      5061796D 
 10123      656E7400 
 10124              	.LASF59:
 10125 02af 70707551 		.ascii	"ppuQuota\000"
 10125      756F7461 
 10125      00
 10126              	.LASF46:
 10127 02b8 746F7461 		.ascii	"totalMoneyAfter\000"
 10127      6C4D6F6E 
 10127      65794166 
 10127      74657200 
 10128              	.LASF57:
 10129 02c8 6D6F6E65 		.ascii	"moneyQuota\000"
 10129      7951756F 
 10129      746100
 10130              	.LASF69:
 10131 02d3 7072696E 		.ascii	"printers\000"
 10131      74657273 
 10131      00
 10132              	.LASF111:
 10133 02dc 70726573 		.ascii	"presetFast\000"
 10133      65744661 
 10133      737400
 10134              	.LASF75:
 10135 02e7 6D6F6E65 		.ascii	"moneySale\000"
 10135      7953616C 
 10135      6500
 10136              	.LASF9:
 10137 02f1 6C6F6E67 		.ascii	"long long int\000"
 10137      206C6F6E 
 10137      6720696E 
 10137      7400
 10138              	.LASF77:
 10139 02ff 70707553 		.ascii	"ppuSale\000"
 10139      616C6500 
 10140              	.LASF98:
 10141 0307 636F756E 		.ascii	"countAnimation1\000"
 10141      74416E69 
 10141      6D617469 
 10141      6F6E3100 
 10142              	.LASF45:
 10143 0317 746F7461 		.ascii	"totalPPUPrevious\000"
 10143      6C505055 
 10143      50726576 
 10143      696F7573 
 10143      00
 10144              	.LASF99:
 10145 0328 636F756E 		.ascii	"countAnimation2\000"
 10145      74416E69 
 10145      6D617469 
 10145      6F6E3200 
 10146              	.LASF66:
ARM GAS  C:\Users\PROYEC~1\AppData\Local\Temp\ccMsBWpv.s 			page 203


 10147 0338 746F7461 		.ascii	"totalMarket\000"
 10147      6C4D6172 
 10147      6B657400 
 10148              	.LASF130:
 10149 0344 474E5520 		.ascii	"GNU C 4.9.3 20150303 (release) [ARM/embedded-4_9-br"
 10149      4320342E 
 10149      392E3320 
 10149      32303135 
 10149      30333033 
 10150 0377 616E6368 		.ascii	"anch revision 221220] -mcpu=cortex-m3 -mthumb -g -O"
 10150      20726576 
 10150      6973696F 
 10150      6E203232 
 10150      31323230 
 10151 03aa 30202D66 		.ascii	"0 -ffunction-sections -ffat-lto-objects\000"
 10151      66756E63 
 10151      74696F6E 
 10151      2D736563 
 10151      74696F6E 
 10152              	.LASF42:
 10153 03d2 74696D65 		.ascii	"timeDownHandle\000"
 10153      446F776E 
 10153      48616E64 
 10153      6C6500
 10154              	.LASF32:
 10155 03e1 76656869 		.ascii	"vehicleType\000"
 10155      636C6554 
 10155      79706500 
 10156              	.LASF52:
 10157 03ed 666C6167 		.ascii	"flagKeyboard\000"
 10157      4B657962 
 10157      6F617264 
 10157      00
 10158              	.LASF86:
 10159 03fa 73697A65 		.ascii	"size\000"
 10159      00
 10160              	.LASF82:
 10161 03ff 77726974 		.ascii	"write_LCD\000"
 10161      655F4C43 
 10161      4400
 10162              	.LASF17:
 10163 0409 75696E74 		.ascii	"uint32\000"
 10163      333200
 10164              	.LASF126:
 10165 0410 666C6167 		.ascii	"flagResetMux\000"
 10165      52657365 
 10165      744D7578 
 10165      00
 10166              	.LASF80:
 10167 041d 70696374 		.ascii	"picture\000"
 10167      75726500 
 10168              	.LASF48:
 10169 0425 746F7461 		.ascii	"totalPPUAfter\000"
 10169      6C505055 
 10169      41667465 
 10169      7200
 10170              	.LASF13:
ARM GAS  C:\Users\PROYEC~1\AppData\Local\Temp\ccMsBWpv.s 			page 204


 10171 0433 75696E74 		.ascii	"uint16_t\000"
 10171      31365F74 
 10171      00
 10172              	.LASF29:
 10173 043c 6B657962 		.ascii	"keyboardWayToPay\000"
 10173      6F617264 
 10173      57617954 
 10173      6F506179 
 10173      00
 10174              	.LASF114:
 10175 044d 70707578 		.ascii	"ppux10\000"
 10175      313000
 10176              	.LASF43:
 10177 0454 746F7461 		.ascii	"totalMoneyPrevious\000"
 10177      6C4D6F6E 
 10177      65795072 
 10177      6576696F 
 10177      757300
 10178              	.LASF107:
 10179 0467 666C6167 		.ascii	"flagPoint1\000"
 10179      506F696E 
 10179      743100
 10180              	.LASF27:
 10181 0472 6D6F6E65 		.ascii	"moneySelectedSale\000"
 10181      7953656C 
 10181      65637465 
 10181      6453616C 
 10181      6500
 10182              	.LASF92:
 10183 0484 73686F77 		.ascii	"show_time_date\000"
 10183      5F74696D 
 10183      655F6461 
 10183      746500
 10184              	.LASF117:
 10185 0493 73796D62 		.ascii	"symbols\000"
 10185      6F6C7300 
 10186              	.LASF93:
 10187 049b 73686F77 		.ascii	"show_info\000"
 10187      5F696E66 
 10187      6F00
 10188              	.LASF49:
 10189 04a5 6C696365 		.ascii	"licenceSale\000"
 10189      6E636553 
 10189      616C6500 
 10190              	.LASF68:
 10191 04b1 70726963 		.ascii	"priceConsign\000"
 10191      65436F6E 
 10191      7369676E 
 10191      00
 10192              	.LASF2:
 10193 04be 73686F72 		.ascii	"short int\000"
 10193      7420696E 
 10193      7400
 10194              	.LASF7:
 10195 04c8 6C6F6E67 		.ascii	"long int\000"
 10195      20696E74 
 10195      00
ARM GAS  C:\Users\PROYEC~1\AppData\Local\Temp\ccMsBWpv.s 			page 205


 10196              	.LASF97:
 10197 04d1 49544D5F 		.ascii	"ITM_RxBuffer\000"
 10197      52784275 
 10197      66666572 
 10197      00
 10198              	.LASF124:
 10199 04de 74797065 		.ascii	"typeIdSeller\000"
 10199      49645365 
 10199      6C6C6572 
 10199      00
 10200              	.LASF81:
 10201 04eb 7365745F 		.ascii	"set_picture\000"
 10201      70696374 
 10201      75726500 
 10202              	.LASF91:
 10203 04f7 666C6167 		.ascii	"flag\000"
 10203      00
 10204              	.LASF55:
 10205 04fc 666C6167 		.ascii	"flagEndSale\000"
 10205      456E6453 
 10205      616C6500 
 10206              	.LASF39:
 10207 0508 64617465 		.ascii	"dateLiftHandle\000"
 10207      4C696674 
 10207      48616E64 
 10207      6C6500
 10208              	.LASF96:
 10209 0517 73686F77 		.ascii	"show_market\000"
 10209      5F6D6172 
 10209      6B657400 
 10210              	.LASF3:
 10211 0523 5F5F7569 		.ascii	"__uint8_t\000"
 10211      6E74385F 
 10211      7400
 10212              	.LASF125:
 10213 052d 70617373 		.ascii	"passwordSeller\000"
 10213      776F7264 
 10213      53656C6C 
 10213      657200
 10214              	.LASF47:
 10215 053c 746F7461 		.ascii	"totalVolumeAfter\000"
 10215      6C566F6C 
 10215      756D6541 
 10215      66746572 
 10215      00
 10216              	.LASF20:
 10217 054d 75696E74 		.ascii	"uint64\000"
 10217      363400
 10218              	.LASF112:
 10219 0554 64656C61 		.ascii	"delayPicture1\000"
 10219      79506963 
 10219      74757265 
 10219      3100
 10220              	.LASF113:
 10221 0562 64656C61 		.ascii	"delayPicture2\000"
 10221      79506963 
 10221      74757265 
ARM GAS  C:\Users\PROYEC~1\AppData\Local\Temp\ccMsBWpv.s 			page 206


 10221      3200
 10222              	.LASF38:
 10223 0570 73746174 		.ascii	"stateMux\000"
 10223      654D7578 
 10223      00
 10224              	.LASF22:
 10225 0579 73697A65 		.ascii	"sizetype\000"
 10225      74797065 
 10225      00
 10226              	.LASF8:
 10227 0582 6C6F6E67 		.ascii	"long unsigned int\000"
 10227      20756E73 
 10227      69676E65 
 10227      6420696E 
 10227      7400
 10228              	.LASF67:
 10229 0594 666C6167 		.ascii	"flagProductmarket\000"
 10229      50726F64 
 10229      7563746D 
 10229      61726B65 
 10229      7400
 10230              	.LASF14:
 10231 05a6 696E7433 		.ascii	"int32_t\000"
 10231      325F7400 
 10232              	.LASF63:
 10233 05ae 7175616E 		.ascii	"quantAvailableMark\000"
 10233      74417661 
 10233      696C6162 
 10233      6C654D61 
 10233      726B00
 10234              	.LASF1:
 10235 05c1 756E7369 		.ascii	"unsigned char\000"
 10235      676E6564 
 10235      20636861 
 10235      7200
 10236              	.LASF30:
 10237 05cf 61757468 		.ascii	"authorizationFlag\000"
 10237      6F72697A 
 10237      6174696F 
 10237      6E466C61 
 10237      6700
 10238              	.LASF64:
 10239 05e1 70726963 		.ascii	"priceTotalMarket\000"
 10239      65546F74 
 10239      616C4D61 
 10239      726B6574 
 10239      00
 10240              	.LASF123:
 10241 05f2 69645365 		.ascii	"idSeller\000"
 10241      6C6C6572 
 10241      00
 10242              	.LASF79:
 10243 05fb 70756D70 		.ascii	"pump\000"
 10243      00
 10244              	.LASF121:
 10245 0600 74656D70 		.ascii	"temporal\000"
 10245      6F72616C 
ARM GAS  C:\Users\PROYEC~1\AppData\Local\Temp\ccMsBWpv.s 			page 207


 10245      00
 10246              	.LASF35:
 10247 0609 70726573 		.ascii	"presetType\000"
 10247      65745479 
 10247      706500
 10248              	.LASF85:
 10249 0614 706F7378 		.ascii	"posx\000"
 10249      00
 10250              	.LASF84:
 10251 0619 706F7379 		.ascii	"posy\000"
 10251      00
 10252              	.LASF65:
 10253 061e 70726963 		.ascii	"priceUnitMarket\000"
 10253      65556E69 
 10253      744D6172 
 10253      6B657400 
 10254              	.LASF89:
 10255 062e 77726974 		.ascii	"write_button\000"
 10255      655F6275 
 10255      74746F6E 
 10255      00
 10256              	.LASF76:
 10257 063b 766F6C75 		.ascii	"volumeSale\000"
 10257      6D655361 
 10257      6C6500
 10258              	.LASF0:
 10259 0646 7369676E 		.ascii	"signed char\000"
 10259      65642063 
 10259      68617200 
 10260              	.LASF5:
 10261 0652 73686F72 		.ascii	"short unsigned int\000"
 10261      7420756E 
 10261      7369676E 
 10261      65642069 
 10261      6E7400
 10262              	.LASF78:
 10263 0665 70726F64 		.ascii	"productSale\000"
 10263      75637453 
 10263      616C6500 
 10264              	.LASF15:
 10265 0671 75696E74 		.ascii	"uint8\000"
 10265      3800
 10266              	.LASF19:
 10267 0677 646F7562 		.ascii	"double\000"
 10267      6C6500
 10268              	.LASF25:
 10269 067e 77617954 		.ascii	"wayToPay\000"
 10269      6F506179 
 10269      00
 10270              	.LASF41:
 10271 0687 74696D65 		.ascii	"timeLiftHandle\000"
 10271      4C696674 
 10271      48616E64 
 10271      6C6500
 10272              	.LASF74:
 10273 0696 70707541 		.ascii	"ppuAuthorized\000"
 10273      7574686F 
ARM GAS  C:\Users\PROYEC~1\AppData\Local\Temp\ccMsBWpv.s 			page 208


 10273      72697A65 
 10273      6400
 10274              	.LASF28:
 10275 06a4 73657269 		.ascii	"serialSelectedSale\000"
 10275      616C5365 
 10275      6C656374 
 10275      65645361 
 10275      6C6500
 10276              	.LASF72:
 10277 06b7 706F7369 		.ascii	"position\000"
 10277      74696F6E 
 10277      00
 10278              		.ident	"GCC: (GNU Tools for ARM Embedded Processors) 4.9.3 20150303 (release) [ARM/embedded-4_9-br
