ARM GAS  C:\Users\PROYEC~1\AppData\Local\Temp\ccMsBWpv.s 			page 1


   1              		.syntax unified
   2              		.cpu cortex-m3
   3              		.fpu softvfp
   4              		.eabi_attribute 20, 1
   5              		.eabi_attribute 21, 1
   6              		.eabi_attribute 23, 3
   7              		.eabi_attribute 24, 1
   8              		.eabi_attribute 25, 1
   9              		.eabi_attribute 26, 1
  10              		.eabi_attribute 30, 6
  11              		.eabi_attribute 34, 1
  12              		.eabi_attribute 18, 4
  13              		.thumb
  14              		.file	"LCD.c"
  15              		.text
  16              	.Ltext0:
  17              		.cfi_sections	.debug_frame
  18              		.comm	countAnimation1,8,8
  19              		.comm	countAnimation2,8,8
  20              		.comm	countBeagleTX,8,8
  21              		.comm	flowLCD1,4,4
  22              		.comm	flowLCD2,4,4
  23              		.comm	digits,1,1
  24              		.comm	ipAdress,12,4
  25              		.comm	numberKeys1,1,1
  26              		.comm	numberKeys2,1,1
  27              		.comm	flagPoint1,1,1
  28              		.comm	flagPoint2,1,1
  29              		.comm	button,960,4
  30              		.comm	productNumber,1,1
  31              		.comm	presetFast,30,4
  32              		.comm	delayPicture1,4,4
  33              		.comm	delayPicture2,4,4
  34              		.comm	ppux10,1,1
  35              		.comm	decimalMoney,1,1
  36              		.comm	decimalVolume,1,1
  37              		.comm	symbols,2,4
  38              		.comm	time,3,4
  39              		.comm	date,3,4
  40              		.comm	screen,2,4
  41              		.comm	residue,14,4
  42              		.comm	temporal,30,4
  43              		.comm	turn,1,1
  44              		.comm	idSeller,25,4
  45              		.comm	typeIdSeller,1,1
  46              		.comm	passwordSeller,8,4
  47              		.comm	flagResetMux,1,1
  48              		.comm	bufferLCD1,635,4
  49              		.comm	bufferLCD2,635,4
  50              		.comm	side,512,4
  51              		.section	.rodata
  52              		.align	2
  53              	.LC0:
  54 0000 AA       		.byte	-86
  55 0001 70       		.byte	112
  56 0002 00       		.byte	0
  57 0003 00       		.byte	0
ARM GAS  C:\Users\PROYEC~1\AppData\Local\Temp\ccMsBWpv.s 			page 2


  58 0004 CC       		.byte	-52
  59 0005 33       		.byte	51
  60 0006 C3       		.byte	-61
  61 0007 3C       		.byte	60
  62              		.section	.text.set_picture,"ax",%progbits
  63              		.align	2
  64              		.global	set_picture
  65              		.thumb
  66              		.thumb_func
  67              		.type	set_picture, %function
  68              	set_picture:
  69              	.LFB56:
  70              		.file 1 ".\\LCD.c"
   1:.\LCD.c       **** /*
   2:.\LCD.c       **** ***************************************************************************************************
   3:.\LCD.c       **** *                                         MUX ADVANCE CODE
   4:.\LCD.c       **** *
   5:.\LCD.c       **** *                             (c) Copyright 2016; Sistemas Insepet LTDA
   6:.\LCD.c       **** *
   7:.\LCD.c       **** *               All rights reserved.  Protected by international copyright laws.
   8:.\LCD.c       **** *               Knowledge of the source code may NOT be used to develop a similar product.
   9:.\LCD.c       **** *               Please help us continue to provide the Embedded community with the finest
  10:.\LCD.c       **** *               software available.  Your honesty is greatly appreciated.
  11:.\LCD.c       **** ***************************************************************************************************
  12:.\LCD.c       **** */
  13:.\LCD.c       **** 
  14:.\LCD.c       **** /*
  15:.\LCD.c       **** ***************************************************************************************************
  16:.\LCD.c       **** *
  17:.\LCD.c       **** *                                            MUX ADVANCE CODE
  18:.\LCD.c       **** *
  19:.\LCD.c       **** *                                             CYPRESS PSoC5LP
  20:.\LCD.c       **** *                                                with the
  21:.\LCD.c       **** *                                            CY8C5969AXI-LP035
  22:.\LCD.c       **** *
  23:.\LCD.c       **** * Filename      : LCD.c
  24:.\LCD.c       **** * Version       : V1.00
  25:.\LCD.c       **** * Programmer(s) : 
  26:.\LCD.c       ****                   
  27:.\LCD.c       **** ***************************************************************************************************
  28:.\LCD.c       **** */
  29:.\LCD.c       **** 
  30:.\LCD.c       **** /*
  31:.\LCD.c       **** ***************************************************************************************************
  32:.\LCD.c       **** *                                             INCLUDE FILES
  33:.\LCD.c       **** ***************************************************************************************************
  34:.\LCD.c       **** */
  35:.\LCD.c       **** 
  36:.\LCD.c       **** #include <device.h>
  37:.\LCD.c       **** #include "variables.h"
  38:.\LCD.c       **** #include "operations.h"
  39:.\LCD.c       **** #include "I2C.h"
  40:.\LCD.c       **** #include "LCD.h"
  41:.\LCD.c       **** 
  42:.\LCD.c       **** 
  43:.\LCD.c       **** /*
  44:.\LCD.c       **** ***************************************************************************************************
ARM GAS  C:\Users\PROYEC~1\AppData\Local\Temp\ccMsBWpv.s 			page 3


  45:.\LCD.c       **** *                                        void set_picture(uint8 lcd, uint16 picture)
  46:.\LCD.c       **** *
  47:.\LCD.c       **** * Description : 
  48:.\LCD.c       **** *               
  49:.\LCD.c       **** *
  50:.\LCD.c       **** * Argument(s) : none
  51:.\LCD.c       **** *
  52:.\LCD.c       **** * Return(s)   : none
  53:.\LCD.c       **** *
  54:.\LCD.c       **** * Caller(s)   :  
  55:.\LCD.c       **** *
  56:.\LCD.c       **** * Note(s)     : none.
  57:.\LCD.c       **** ***************************************************************************************************
  58:.\LCD.c       **** */
  59:.\LCD.c       **** 
  60:.\LCD.c       **** void set_picture(uint8 lcd, uint16 picture){
  71              		.loc 1 60 0
  72              		.cfi_startproc
  73              		@ args = 0, pretend = 0, frame = 24
  74              		@ frame_needed = 1, uses_anonymous_args = 0
  75 0000 80B5     		push	{r7, lr}
  76              		.cfi_def_cfa_offset 8
  77              		.cfi_offset 7, -8
  78              		.cfi_offset 14, -4
  79 0002 86B0     		sub	sp, sp, #24
  80              		.cfi_def_cfa_offset 32
  81 0004 00AF     		add	r7, sp, #0
  82              		.cfi_def_cfa_register 7
  83 0006 0346     		mov	r3, r0
  84 0008 0A46     		mov	r2, r1
  85 000a FB71     		strb	r3, [r7, #7]
  86 000c 1346     		mov	r3, r2	@ movhi
  87 000e BB80     		strh	r3, [r7, #4]	@ movhi
  61:.\LCD.c       ****     uint8 buffer[8]={0xAA,0x70,0x00,0x00,0xCC,0x33,0xC3,0x3C},x;
  88              		.loc 1 61 0
  89 0010 174A     		ldr	r2, .L6
  90 0012 07F10C03 		add	r3, r7, #12
  91 0016 1068     		ldr	r0, [r2]	@ unaligned
  92 0018 5168     		ldr	r1, [r2, #4]	@ unaligned
  93 001a 03C3     		stmia	r3!, {r0, r1}
  62:.\LCD.c       ****     buffer[2]=(picture>>8)&0xFF;
  94              		.loc 1 62 0
  95 001c BB88     		ldrh	r3, [r7, #4]
  96 001e 1B0A     		lsrs	r3, r3, #8
  97 0020 9BB2     		uxth	r3, r3
  98 0022 DBB2     		uxtb	r3, r3
  99 0024 BB73     		strb	r3, [r7, #14]
  63:.\LCD.c       ****     buffer[3]=picture&0xFF;
 100              		.loc 1 63 0
 101 0026 BB88     		ldrh	r3, [r7, #4]	@ movhi
 102 0028 DBB2     		uxtb	r3, r3
 103 002a FB73     		strb	r3, [r7, #15]
  64:.\LCD.c       ****     for(x=0;x<8;x++){
 104              		.loc 1 64 0
 105 002c 0023     		movs	r3, #0
 106 002e FB75     		strb	r3, [r7, #23]
 107 0030 18E0     		b	.L2
ARM GAS  C:\Users\PROYEC~1\AppData\Local\Temp\ccMsBWpv.s 			page 4


 108              	.L5:
  65:.\LCD.c       ****         if(lcd==1){
 109              		.loc 1 65 0
 110 0032 FB79     		ldrb	r3, [r7, #7]	@ zero_extendqisi2
 111 0034 012B     		cmp	r3, #1
 112 0036 09D1     		bne	.L3
  66:.\LCD.c       ****             LCD1_PutChar(buffer[x]);
 113              		.loc 1 66 0
 114 0038 FB7D     		ldrb	r3, [r7, #23]	@ zero_extendqisi2
 115 003a 07F11802 		add	r2, r7, #24
 116 003e 1344     		add	r3, r3, r2
 117 0040 13F80C3C 		ldrb	r3, [r3, #-12]	@ zero_extendqisi2
 118 0044 1846     		mov	r0, r3
 119 0046 FFF7FEFF 		bl	LCD1_PutChar
 120 004a 08E0     		b	.L4
 121              	.L3:
  67:.\LCD.c       ****         }else{
  68:.\LCD.c       ****             LCD2_PutChar(buffer[x]);
 122              		.loc 1 68 0
 123 004c FB7D     		ldrb	r3, [r7, #23]	@ zero_extendqisi2
 124 004e 07F11802 		add	r2, r7, #24
 125 0052 1344     		add	r3, r3, r2
 126 0054 13F80C3C 		ldrb	r3, [r3, #-12]	@ zero_extendqisi2
 127 0058 1846     		mov	r0, r3
 128 005a FFF7FEFF 		bl	LCD2_PutChar
 129              	.L4:
  64:.\LCD.c       ****         if(lcd==1){
 130              		.loc 1 64 0 discriminator 2
 131 005e FB7D     		ldrb	r3, [r7, #23]	@ zero_extendqisi2
 132 0060 0133     		adds	r3, r3, #1
 133 0062 FB75     		strb	r3, [r7, #23]
 134              	.L2:
  64:.\LCD.c       ****         if(lcd==1){
 135              		.loc 1 64 0 is_stmt 0 discriminator 1
 136 0064 FB7D     		ldrb	r3, [r7, #23]	@ zero_extendqisi2
 137 0066 072B     		cmp	r3, #7
 138 0068 E3D9     		bls	.L5
  69:.\LCD.c       ****         }
  70:.\LCD.c       ****     }
  71:.\LCD.c       **** }
 139              		.loc 1 71 0 is_stmt 1
 140 006a 1837     		adds	r7, r7, #24
 141              		.cfi_def_cfa_offset 8
 142 006c BD46     		mov	sp, r7
 143              		.cfi_def_cfa_register 13
 144              		@ sp needed
 145 006e 80BD     		pop	{r7, pc}
 146              	.L7:
 147              		.align	2
 148              	.L6:
 149 0070 00000000 		.word	.LC0
 150              		.cfi_endproc
 151              	.LFE56:
 152              		.size	set_picture, .-set_picture
 153              		.section	.rodata
 154              		.align	2
 155              	.LC1:
ARM GAS  C:\Users\PROYEC~1\AppData\Local\Temp\ccMsBWpv.s 			page 5


 156 0008 AA       		.byte	-86
 157 0009 98       		.byte	-104
 158 000a 00       		.byte	0
 159 000b 00       		.byte	0
 160 000c 01       		.byte	1
 161 000d 39       		.byte	57
 162 000e 23       		.byte	35
 163 000f C5       		.byte	-59
 164 0010 02       		.byte	2
 165 0011 00       		.byte	0
 166 0012 00       		.byte	0
 167 0013 FF       		.byte	-1
 168 0014 FF       		.byte	-1
 169 0015 00       		.byte	0
 170 0016 CC       		.byte	-52
 171 0017 33       		.byte	51
 172 0018 C3       		.byte	-61
 173 0019 3C       		.byte	60
 174 001a 0000     		.section	.text.write_LCD,"ax",%progbits
 175              		.align	2
 176              		.global	write_LCD
 177              		.thumb
 178              		.thumb_func
 179              		.type	write_LCD, %function
 180              	write_LCD:
 181              	.LFB57:
  72:.\LCD.c       **** 
  73:.\LCD.c       **** /*
  74:.\LCD.c       **** ***************************************************************************************************
  75:.\LCD.c       **** *          void write_LCD(uint8_t lcd, uint8_t data, uint16_t posy, uint16_t posx,uint8_t size)
  76:.\LCD.c       **** *
  77:.\LCD.c       **** * Description : 
  78:.\LCD.c       **** *               
  79:.\LCD.c       **** *
  80:.\LCD.c       **** * Argument(s) : none
  81:.\LCD.c       **** *
  82:.\LCD.c       **** * Return(s)   : none
  83:.\LCD.c       **** *
  84:.\LCD.c       **** * Caller(s)   :  
  85:.\LCD.c       **** *
  86:.\LCD.c       **** * Note(s)     : none.
  87:.\LCD.c       **** ***************************************************************************************************
  88:.\LCD.c       **** */
  89:.\LCD.c       **** 
  90:.\LCD.c       **** void write_LCD(uint8_t lcd,uint8_t data, uint16_t posy, uint16_t posx,uint8_t size, uint16_t fgcolo
 182              		.loc 1 90 0
 183              		.cfi_startproc
 184              		@ args = 12, pretend = 0, frame = 32
 185              		@ frame_needed = 1, uses_anonymous_args = 0
 186 0000 B0B5     		push	{r4, r5, r7, lr}
 187              		.cfi_def_cfa_offset 16
 188              		.cfi_offset 4, -16
 189              		.cfi_offset 5, -12
 190              		.cfi_offset 7, -8
 191              		.cfi_offset 14, -4
 192 0002 88B0     		sub	sp, sp, #32
 193              		.cfi_def_cfa_offset 48
ARM GAS  C:\Users\PROYEC~1\AppData\Local\Temp\ccMsBWpv.s 			page 6


 194 0004 00AF     		add	r7, sp, #0
 195              		.cfi_def_cfa_register 7
 196 0006 0446     		mov	r4, r0
 197 0008 0846     		mov	r0, r1
 198 000a 1146     		mov	r1, r2
 199 000c 1A46     		mov	r2, r3
 200 000e 2346     		mov	r3, r4
 201 0010 FB71     		strb	r3, [r7, #7]
 202 0012 0346     		mov	r3, r0
 203 0014 BB71     		strb	r3, [r7, #6]
 204 0016 0B46     		mov	r3, r1	@ movhi
 205 0018 BB80     		strh	r3, [r7, #4]	@ movhi
 206 001a 1346     		mov	r3, r2	@ movhi
 207 001c 7B80     		strh	r3, [r7, #2]	@ movhi
  91:.\LCD.c       **** uint8_t buffer[18]={0xAA,0x98,0,0,0x01,0x39,0x23,0xC5,0x02,0x00,0x00,0xFF,0xFF,0,0xCC,0x33,0xC3,0x3
 208              		.loc 1 91 0
 209 001e 374B     		ldr	r3, .L14
 210 0020 07F10C04 		add	r4, r7, #12
 211 0024 1D46     		mov	r5, r3
 212 0026 2868     		ldr	r0, [r5]	@ unaligned
 213 0028 6968     		ldr	r1, [r5, #4]	@ unaligned
 214 002a AA68     		ldr	r2, [r5, #8]	@ unaligned
 215 002c EB68     		ldr	r3, [r5, #12]	@ unaligned
 216 002e 0FC4     		stmia	r4!, {r0, r1, r2, r3}
 217 0030 2B8A     		ldrh	r3, [r5, #16]	@ unaligned
 218 0032 2380     		strh	r3, [r4]	@ unaligned
  92:.\LCD.c       **** 	buffer[2] =(0x0C*(posx*(size+1)))>>8;
 219              		.loc 1 92 0
 220 0034 7B88     		ldrh	r3, [r7, #2]
 221 0036 97F83020 		ldrb	r2, [r7, #48]	@ zero_extendqisi2
 222 003a 0132     		adds	r2, r2, #1
 223 003c 02FB03F2 		mul	r2, r2, r3
 224 0040 1346     		mov	r3, r2
 225 0042 5B00     		lsls	r3, r3, #1
 226 0044 1344     		add	r3, r3, r2
 227 0046 9B00     		lsls	r3, r3, #2
 228 0048 1B12     		asrs	r3, r3, #8
 229 004a DBB2     		uxtb	r3, r3
 230 004c BB73     		strb	r3, [r7, #14]
  93:.\LCD.c       **** 	buffer[3] =(0x0C*(posx*(size+1)))&0xFF;
 231              		.loc 1 93 0
 232 004e 7B88     		ldrh	r3, [r7, #2]	@ movhi
 233 0050 DBB2     		uxtb	r3, r3
 234 0052 97F83020 		ldrb	r2, [r7, #48]	@ zero_extendqisi2
 235 0056 0132     		adds	r2, r2, #1
 236 0058 D2B2     		uxtb	r2, r2
 237 005a 02FB03F3 		mul	r3, r2, r3
 238 005e DBB2     		uxtb	r3, r3
 239 0060 1A46     		mov	r2, r3
 240 0062 5200     		lsls	r2, r2, #1
 241 0064 1344     		add	r3, r3, r2
 242 0066 9B00     		lsls	r3, r3, #2
 243 0068 DBB2     		uxtb	r3, r3
 244 006a FB73     		strb	r3, [r7, #15]
  94:.\LCD.c       **** 	buffer[4] =(0x0E*posy)>>8;
 245              		.loc 1 94 0
 246 006c BA88     		ldrh	r2, [r7, #4]
ARM GAS  C:\Users\PROYEC~1\AppData\Local\Temp\ccMsBWpv.s 			page 7


 247 006e 1346     		mov	r3, r2
 248 0070 DB00     		lsls	r3, r3, #3
 249 0072 9B1A     		subs	r3, r3, r2
 250 0074 5B00     		lsls	r3, r3, #1
 251 0076 1B12     		asrs	r3, r3, #8
 252 0078 DBB2     		uxtb	r3, r3
 253 007a 3B74     		strb	r3, [r7, #16]
  95:.\LCD.c       **** 	buffer[5] =(0x0E*posy)&0xFF;
 254              		.loc 1 95 0
 255 007c BB88     		ldrh	r3, [r7, #4]	@ movhi
 256 007e DBB2     		uxtb	r3, r3
 257 0080 1A46     		mov	r2, r3
 258 0082 D200     		lsls	r2, r2, #3
 259 0084 D31A     		subs	r3, r2, r3
 260 0086 5B00     		lsls	r3, r3, #1
 261 0088 DBB2     		uxtb	r3, r3
 262 008a 7B74     		strb	r3, [r7, #17]
  96:.\LCD.c       **** 	buffer[6] =0x23+size;
 263              		.loc 1 96 0
 264 008c 97F83030 		ldrb	r3, [r7, #48]
 265 0090 2333     		adds	r3, r3, #35
 266 0092 DBB2     		uxtb	r3, r3
 267 0094 BB74     		strb	r3, [r7, #18]
  97:.\LCD.c       ****     if(bottomless=='Y'){
 268              		.loc 1 97 0
 269 0096 97F83830 		ldrb	r3, [r7, #56]	@ zero_extendqisi2
 270 009a 592B     		cmp	r3, #89
 271 009c 01D1     		bne	.L9
  98:.\LCD.c       ****          buffer[7]=0x85;
 272              		.loc 1 98 0
 273 009e 8523     		movs	r3, #133
 274 00a0 FB74     		strb	r3, [r7, #19]
 275              	.L9:
  99:.\LCD.c       ****     }
 100:.\LCD.c       ****     buffer[9] =(fgcolor&0xFF00)>>8;
 276              		.loc 1 100 0
 277 00a2 BB8E     		ldrh	r3, [r7, #52]
 278 00a4 1B0A     		lsrs	r3, r3, #8
 279 00a6 9BB2     		uxth	r3, r3
 280 00a8 DBB2     		uxtb	r3, r3
 281 00aa 7B75     		strb	r3, [r7, #21]
 101:.\LCD.c       ****     buffer[10]=(fgcolor&0x00FF);
 282              		.loc 1 101 0
 283 00ac BB8E     		ldrh	r3, [r7, #52]	@ movhi
 284 00ae DBB2     		uxtb	r3, r3
 285 00b0 BB75     		strb	r3, [r7, #22]
 102:.\LCD.c       **** 	buffer[13]=data;
 286              		.loc 1 102 0
 287 00b2 BB79     		ldrb	r3, [r7, #6]
 288 00b4 7B76     		strb	r3, [r7, #25]
 103:.\LCD.c       **** 	for(x=0;x<=17;x++){
 289              		.loc 1 103 0
 290 00b6 0023     		movs	r3, #0
 291 00b8 FB77     		strb	r3, [r7, #31]
 292 00ba 18E0     		b	.L10
 293              	.L13:
 104:.\LCD.c       **** 		if(lcd==1){
ARM GAS  C:\Users\PROYEC~1\AppData\Local\Temp\ccMsBWpv.s 			page 8


 294              		.loc 1 104 0
 295 00bc FB79     		ldrb	r3, [r7, #7]	@ zero_extendqisi2
 296 00be 012B     		cmp	r3, #1
 297 00c0 09D1     		bne	.L11
 105:.\LCD.c       **** 			LCD1_PutChar(buffer[x]);
 298              		.loc 1 105 0
 299 00c2 FB7F     		ldrb	r3, [r7, #31]	@ zero_extendqisi2
 300 00c4 07F12002 		add	r2, r7, #32
 301 00c8 1344     		add	r3, r3, r2
 302 00ca 13F8143C 		ldrb	r3, [r3, #-20]	@ zero_extendqisi2
 303 00ce 1846     		mov	r0, r3
 304 00d0 FFF7FEFF 		bl	LCD1_PutChar
 305 00d4 08E0     		b	.L12
 306              	.L11:
 106:.\LCD.c       **** 		}
 107:.\LCD.c       **** 		else{
 108:.\LCD.c       **** 			LCD2_PutChar(buffer[x]);
 307              		.loc 1 108 0
 308 00d6 FB7F     		ldrb	r3, [r7, #31]	@ zero_extendqisi2
 309 00d8 07F12002 		add	r2, r7, #32
 310 00dc 1344     		add	r3, r3, r2
 311 00de 13F8143C 		ldrb	r3, [r3, #-20]	@ zero_extendqisi2
 312 00e2 1846     		mov	r0, r3
 313 00e4 FFF7FEFF 		bl	LCD2_PutChar
 314              	.L12:
 103:.\LCD.c       **** 		if(lcd==1){
 315              		.loc 1 103 0 discriminator 2
 316 00e8 FB7F     		ldrb	r3, [r7, #31]	@ zero_extendqisi2
 317 00ea 0133     		adds	r3, r3, #1
 318 00ec FB77     		strb	r3, [r7, #31]
 319              	.L10:
 103:.\LCD.c       **** 		if(lcd==1){
 320              		.loc 1 103 0 is_stmt 0 discriminator 1
 321 00ee FB7F     		ldrb	r3, [r7, #31]	@ zero_extendqisi2
 322 00f0 112B     		cmp	r3, #17
 323 00f2 E3D9     		bls	.L13
 109:.\LCD.c       **** 		}	
 110:.\LCD.c       **** 	}	
 111:.\LCD.c       **** }
 324              		.loc 1 111 0 is_stmt 1
 325 00f4 2037     		adds	r7, r7, #32
 326              		.cfi_def_cfa_offset 16
 327 00f6 BD46     		mov	sp, r7
 328              		.cfi_def_cfa_register 13
 329              		@ sp needed
 330 00f8 B0BD     		pop	{r4, r5, r7, pc}
 331              	.L15:
 332 00fa 00BF     		.align	2
 333              	.L14:
 334 00fc 08000000 		.word	.LC1
 335              		.cfi_endproc
 336              	.LFE57:
 337              		.size	write_LCD, .-write_LCD
 338              		.section	.text.write_button,"ax",%progbits
 339              		.align	2
 340              		.global	write_button
 341              		.thumb
ARM GAS  C:\Users\PROYEC~1\AppData\Local\Temp\ccMsBWpv.s 			page 9


 342              		.thumb_func
 343              		.type	write_button, %function
 344              	write_button:
 345              	.LFB58:
 112:.\LCD.c       **** 
 113:.\LCD.c       **** /*
 114:.\LCD.c       **** ***************************************************************************************************
 115:.\LCD.c       **** *                                    void write_button(uint8 lcd, uint8 screen)
 116:.\LCD.c       **** *
 117:.\LCD.c       **** * Description : 
 118:.\LCD.c       **** *               
 119:.\LCD.c       **** *
 120:.\LCD.c       **** * Argument(s) : none
 121:.\LCD.c       **** *
 122:.\LCD.c       **** * Return(s)   : none
 123:.\LCD.c       **** *
 124:.\LCD.c       **** * Caller(s)   :  
 125:.\LCD.c       **** *
 126:.\LCD.c       **** * Note(s)     : none.
 127:.\LCD.c       **** ***************************************************************************************************
 128:.\LCD.c       **** */
 129:.\LCD.c       **** 
 130:.\LCD.c       **** void write_button(uint8 lcd, uint8 screen){
 346              		.loc 1 130 0
 347              		.cfi_startproc
 348              		@ args = 0, pretend = 0, frame = 16
 349              		@ frame_needed = 1, uses_anonymous_args = 0
 350 0000 90B5     		push	{r4, r7, lr}
 351              		.cfi_def_cfa_offset 12
 352              		.cfi_offset 4, -12
 353              		.cfi_offset 7, -8
 354              		.cfi_offset 14, -4
 355 0002 89B0     		sub	sp, sp, #36
 356              		.cfi_def_cfa_offset 48
 357 0004 04AF     		add	r7, sp, #16
 358              		.cfi_def_cfa 7, 32
 359 0006 0346     		mov	r3, r0
 360 0008 0A46     		mov	r2, r1
 361 000a FB71     		strb	r3, [r7, #7]
 362 000c 1346     		mov	r3, r2
 363 000e BB71     		strb	r3, [r7, #6]
 131:.\LCD.c       ****     uint8 x,y,flag;
 132:.\LCD.c       ****     switch(screen){
 364              		.loc 1 132 0
 365 0010 BB79     		ldrb	r3, [r7, #6]	@ zero_extendqisi2
 366 0012 013B     		subs	r3, r3, #1
 367 0014 782B     		cmp	r3, #120
 368 0016 03F21681 		bhi	.L16
 369 001a 01A2     		adr	r2, .L19
 370 001c 52F823F0 		ldr	pc, [r2, r3, lsl #2]
 371              		.p2align 2
 372              	.L19:
 373 0020 3B200000 		.word	.L18+1
 374 0024 77210000 		.word	.L20+1
 375 0028 AF220000 		.word	.L21+1
 376 002c EB230000 		.word	.L22+1
 377 0030 47320000 		.word	.L16+1
ARM GAS  C:\Users\PROYEC~1\AppData\Local\Temp\ccMsBWpv.s 			page 10


 378 0034 47320000 		.word	.L16+1
 379 0038 47320000 		.word	.L16+1
 380 003c 47320000 		.word	.L16+1
 381 0040 47320000 		.word	.L16+1
 382 0044 47320000 		.word	.L16+1
 383 0048 47320000 		.word	.L16+1
 384 004c 47320000 		.word	.L16+1
 385 0050 47320000 		.word	.L16+1
 386 0054 47320000 		.word	.L16+1
 387 0058 47320000 		.word	.L16+1
 388 005c 47320000 		.word	.L16+1
 389 0060 47320000 		.word	.L16+1
 390 0064 47320000 		.word	.L16+1
 391 0068 47320000 		.word	.L16+1
 392 006c 47320000 		.word	.L16+1
 393 0070 47320000 		.word	.L16+1
 394 0074 47320000 		.word	.L16+1
 395 0078 47320000 		.word	.L16+1
 396 007c 47320000 		.word	.L16+1
 397 0080 47320000 		.word	.L16+1
 398 0084 47320000 		.word	.L16+1
 399 0088 47320000 		.word	.L16+1
 400 008c 47320000 		.word	.L16+1
 401 0090 47320000 		.word	.L16+1
 402 0094 47320000 		.word	.L16+1
 403 0098 47320000 		.word	.L16+1
 404 009c 47320000 		.word	.L16+1
 405 00a0 47320000 		.word	.L16+1
 406 00a4 47320000 		.word	.L16+1
 407 00a8 47320000 		.word	.L16+1
 408 00ac 47320000 		.word	.L16+1
 409 00b0 47320000 		.word	.L16+1
 410 00b4 47320000 		.word	.L16+1
 411 00b8 47320000 		.word	.L16+1
 412 00bc 47320000 		.word	.L16+1
 413 00c0 47320000 		.word	.L16+1
 414 00c4 4F1F0000 		.word	.L23+1
 415 00c8 47320000 		.word	.L16+1
 416 00cc 47320000 		.word	.L16+1
 417 00d0 47320000 		.word	.L16+1
 418 00d4 47320000 		.word	.L16+1
 419 00d8 47320000 		.word	.L16+1
 420 00dc D91E0000 		.word	.L24+1
 421 00e0 B9060000 		.word	.L25+1
 422 00e4 2F070000 		.word	.L26+1
 423 00e8 911B0000 		.word	.L27+1
 424 00ec 071C0000 		.word	.L28+1
 425 00f0 7D1C0000 		.word	.L29+1
 426 00f4 F31C0000 		.word	.L30+1
 427 00f8 691D0000 		.word	.L31+1
 428 00fc ED1D0000 		.word	.L32+1
 429 0100 631E0000 		.word	.L33+1
 430 0104 47320000 		.word	.L16+1
 431 0108 47320000 		.word	.L16+1
 432 010c 47320000 		.word	.L16+1
 433 0110 47320000 		.word	.L16+1
 434 0114 47320000 		.word	.L16+1
ARM GAS  C:\Users\PROYEC~1\AppData\Local\Temp\ccMsBWpv.s 			page 11


 435 0118 47320000 		.word	.L16+1
 436 011c 47320000 		.word	.L16+1
 437 0120 65270000 		.word	.L34+1
 438 0124 47320000 		.word	.L16+1
 439 0128 15050000 		.word	.L35+1
 440 012c 47320000 		.word	.L16+1
 441 0130 D5090000 		.word	.L36+1
 442 0134 C51F0000 		.word	.L37+1
 443 0138 BF260000 		.word	.L38+1
 444 013c 47320000 		.word	.L16+1
 445 0140 33030000 		.word	.L39+1
 446 0144 47320000 		.word	.L16+1
 447 0148 A3310000 		.word	.L40+1
 448 014c 47320000 		.word	.L16+1
 449 0150 05020000 		.word	.L41+1
 450 0154 47320000 		.word	.L16+1
 451 0158 47320000 		.word	.L16+1
 452 015c B1070000 		.word	.L42+1
 453 0160 29310000 		.word	.L43+1
 454 0164 47320000 		.word	.L16+1
 455 0168 6B040000 		.word	.L44+1
 456 016c 510A0000 		.word	.L45+1
 457 0170 E9080000 		.word	.L46+1
 458 0174 23250000 		.word	.L47+1
 459 0178 5F090000 		.word	.L48+1
 460 017c 47320000 		.word	.L16+1
 461 0180 47320000 		.word	.L16+1
 462 0184 47320000 		.word	.L16+1
 463 0188 47320000 		.word	.L16+1
 464 018c 47320000 		.word	.L16+1
 465 0190 47320000 		.word	.L16+1
 466 0194 47320000 		.word	.L16+1
 467 0198 47320000 		.word	.L16+1
 468 019c 47320000 		.word	.L16+1
 469 01a0 B7300000 		.word	.L49+1
 470 01a4 47320000 		.word	.L16+1
 471 01a8 072C0000 		.word	.L50+1
 472 01ac 47320000 		.word	.L16+1
 473 01b0 47320000 		.word	.L16+1
 474 01b4 47320000 		.word	.L16+1
 475 01b8 47320000 		.word	.L16+1
 476 01bc 47320000 		.word	.L16+1
 477 01c0 77290000 		.word	.L51+1
 478 01c4 ED290000 		.word	.L52+1
 479 01c8 612A0000 		.word	.L53+1
 480 01cc DB2A0000 		.word	.L54+1
 481 01d0 DB270000 		.word	.L55+1
 482 01d4 4F2B0000 		.word	.L56+1
 483 01d8 C32B0000 		.word	.L57+1
 484 01dc 2F2F0000 		.word	.L58+1
 485 01e0 47320000 		.word	.L16+1
 486 01e4 47320000 		.word	.L16+1
 487 01e8 47320000 		.word	.L16+1
 488 01ec D1110000 		.word	.L59+1
 489 01f0 812E0000 		.word	.L60+1
 490 01f4 47320000 		.word	.L16+1
 491 01f8 47320000 		.word	.L16+1
ARM GAS  C:\Users\PROYEC~1\AppData\Local\Temp\ccMsBWpv.s 			page 12


 492 01fc 45300000 		.word	.L61+1
 493 0200 D32F0000 		.word	.L62+1
 494              		.p2align 1
 495              	.L41:
 133:.\LCD.c       ****         case 'M'://Menu
 134:.\LCD.c       ****             for(x=0;x<8;x++){
 496              		.loc 1 134 0
 497 0204 0023     		movs	r3, #0
 498 0206 FB73     		strb	r3, [r7, #15]
 499 0208 8DE0     		b	.L63
 500              	.L64:
 135:.\LCD.c       ****                 write_LCD(lcd,button[0][x],9,x+4,1,0xFFFF,'Y');     //Nombre de boton Ventas
 501              		.loc 1 135 0 discriminator 3
 502 020a FB7B     		ldrb	r3, [r7, #15]	@ zero_extendqisi2
 503 020c 984A     		ldr	r2, .L245
 504 020e D35C     		ldrb	r3, [r2, r3]
 505 0210 DAB2     		uxtb	r2, r3
 506 0212 FB7B     		ldrb	r3, [r7, #15]	@ zero_extendqisi2
 507 0214 9BB2     		uxth	r3, r3
 508 0216 0433     		adds	r3, r3, #4
 509 0218 9CB2     		uxth	r4, r3
 510 021a F979     		ldrb	r1, [r7, #7]	@ zero_extendqisi2
 511 021c 0123     		movs	r3, #1
 512 021e 0093     		str	r3, [sp]
 513 0220 4FF6FF73 		movw	r3, #65535
 514 0224 0193     		str	r3, [sp, #4]
 515 0226 5923     		movs	r3, #89
 516 0228 0293     		str	r3, [sp, #8]
 517 022a 0846     		mov	r0, r1
 518 022c 1146     		mov	r1, r2
 519 022e 0922     		movs	r2, #9
 520 0230 2346     		mov	r3, r4
 521 0232 FFF7FEFF 		bl	write_LCD
 136:.\LCD.c       ****                 write_LCD(lcd,button[1][x],9,x+15,1,0xFFFF,'Y');    //Nombre de boton Turnos
 522              		.loc 1 136 0 discriminator 3
 523 0236 FB7B     		ldrb	r3, [r7, #15]	@ zero_extendqisi2
 524 0238 8D4A     		ldr	r2, .L245
 525 023a 1344     		add	r3, r3, r2
 526 023c 1B7A     		ldrb	r3, [r3, #8]
 527 023e DAB2     		uxtb	r2, r3
 528 0240 FB7B     		ldrb	r3, [r7, #15]	@ zero_extendqisi2
 529 0242 9BB2     		uxth	r3, r3
 530 0244 0F33     		adds	r3, r3, #15
 531 0246 9CB2     		uxth	r4, r3
 532 0248 F979     		ldrb	r1, [r7, #7]	@ zero_extendqisi2
 533 024a 0123     		movs	r3, #1
 534 024c 0093     		str	r3, [sp]
 535 024e 4FF6FF73 		movw	r3, #65535
 536 0252 0193     		str	r3, [sp, #4]
 537 0254 5923     		movs	r3, #89
 538 0256 0293     		str	r3, [sp, #8]
 539 0258 0846     		mov	r0, r1
 540 025a 1146     		mov	r1, r2
 541 025c 0922     		movs	r2, #9
 542 025e 2346     		mov	r3, r4
 543 0260 FFF7FEFF 		bl	write_LCD
 137:.\LCD.c       ****                 write_LCD(lcd,button[2][x],15,x+4,1,0xFFFF,'Y');    //Nombre de boton Canasta
ARM GAS  C:\Users\PROYEC~1\AppData\Local\Temp\ccMsBWpv.s 			page 13


 544              		.loc 1 137 0 discriminator 3
 545 0264 FB7B     		ldrb	r3, [r7, #15]	@ zero_extendqisi2
 546 0266 824A     		ldr	r2, .L245
 547 0268 1344     		add	r3, r3, r2
 548 026a 1B7C     		ldrb	r3, [r3, #16]
 549 026c DAB2     		uxtb	r2, r3
 550 026e FB7B     		ldrb	r3, [r7, #15]	@ zero_extendqisi2
 551 0270 9BB2     		uxth	r3, r3
 552 0272 0433     		adds	r3, r3, #4
 553 0274 9CB2     		uxth	r4, r3
 554 0276 F979     		ldrb	r1, [r7, #7]	@ zero_extendqisi2
 555 0278 0123     		movs	r3, #1
 556 027a 0093     		str	r3, [sp]
 557 027c 4FF6FF73 		movw	r3, #65535
 558 0280 0193     		str	r3, [sp, #4]
 559 0282 5923     		movs	r3, #89
 560 0284 0293     		str	r3, [sp, #8]
 561 0286 0846     		mov	r0, r1
 562 0288 1146     		mov	r1, r2
 563 028a 0F22     		movs	r2, #15
 564 028c 2346     		mov	r3, r4
 565 028e FFF7FEFF 		bl	write_LCD
 138:.\LCD.c       ****                 write_LCD(lcd,button[3][x],15,x+15,1,0xFFFF,'Y');   //Nombre de boton Consignacione
 566              		.loc 1 138 0 discriminator 3
 567 0292 FB7B     		ldrb	r3, [r7, #15]	@ zero_extendqisi2
 568 0294 764A     		ldr	r2, .L245
 569 0296 1344     		add	r3, r3, r2
 570 0298 1B7E     		ldrb	r3, [r3, #24]
 571 029a DAB2     		uxtb	r2, r3
 572 029c FB7B     		ldrb	r3, [r7, #15]	@ zero_extendqisi2
 573 029e 9BB2     		uxth	r3, r3
 574 02a0 0F33     		adds	r3, r3, #15
 575 02a2 9CB2     		uxth	r4, r3
 576 02a4 F979     		ldrb	r1, [r7, #7]	@ zero_extendqisi2
 577 02a6 0123     		movs	r3, #1
 578 02a8 0093     		str	r3, [sp]
 579 02aa 4FF6FF73 		movw	r3, #65535
 580 02ae 0193     		str	r3, [sp, #4]
 581 02b0 5923     		movs	r3, #89
 582 02b2 0293     		str	r3, [sp, #8]
 583 02b4 0846     		mov	r0, r1
 584 02b6 1146     		mov	r1, r2
 585 02b8 0F22     		movs	r2, #15
 586 02ba 2346     		mov	r3, r4
 587 02bc FFF7FEFF 		bl	write_LCD
 139:.\LCD.c       ****                 write_LCD(lcd,button[4][x],21,x+4,1,0xFFFF,'Y');    //Nombre de boton Mantenimiento
 588              		.loc 1 139 0 discriminator 3
 589 02c0 FB7B     		ldrb	r3, [r7, #15]	@ zero_extendqisi2
 590 02c2 6B4A     		ldr	r2, .L245
 591 02c4 1344     		add	r3, r3, r2
 592 02c6 93F82030 		ldrb	r3, [r3, #32]
 593 02ca DAB2     		uxtb	r2, r3
 594 02cc FB7B     		ldrb	r3, [r7, #15]	@ zero_extendqisi2
 595 02ce 9BB2     		uxth	r3, r3
 596 02d0 0433     		adds	r3, r3, #4
 597 02d2 9CB2     		uxth	r4, r3
 598 02d4 F979     		ldrb	r1, [r7, #7]	@ zero_extendqisi2
ARM GAS  C:\Users\PROYEC~1\AppData\Local\Temp\ccMsBWpv.s 			page 14


 599 02d6 0123     		movs	r3, #1
 600 02d8 0093     		str	r3, [sp]
 601 02da 4FF6FF73 		movw	r3, #65535
 602 02de 0193     		str	r3, [sp, #4]
 603 02e0 5923     		movs	r3, #89
 604 02e2 0293     		str	r3, [sp, #8]
 605 02e4 0846     		mov	r0, r1
 606 02e6 1146     		mov	r1, r2
 607 02e8 1522     		movs	r2, #21
 608 02ea 2346     		mov	r3, r4
 609 02ec FFF7FEFF 		bl	write_LCD
 140:.\LCD.c       ****                 write_LCD(lcd,button[5][x],21,x+15,1,0xFFFF,'Y');   //Nombre de boton Copia de Reci
 610              		.loc 1 140 0 discriminator 3
 611 02f0 FB7B     		ldrb	r3, [r7, #15]	@ zero_extendqisi2
 612 02f2 5F4A     		ldr	r2, .L245
 613 02f4 1344     		add	r3, r3, r2
 614 02f6 93F82830 		ldrb	r3, [r3, #40]
 615 02fa DAB2     		uxtb	r2, r3
 616 02fc FB7B     		ldrb	r3, [r7, #15]	@ zero_extendqisi2
 617 02fe 9BB2     		uxth	r3, r3
 618 0300 0F33     		adds	r3, r3, #15
 619 0302 9CB2     		uxth	r4, r3
 620 0304 F979     		ldrb	r1, [r7, #7]	@ zero_extendqisi2
 621 0306 0123     		movs	r3, #1
 622 0308 0093     		str	r3, [sp]
 623 030a 4FF6FF73 		movw	r3, #65535
 624 030e 0193     		str	r3, [sp, #4]
 625 0310 5923     		movs	r3, #89
 626 0312 0293     		str	r3, [sp, #8]
 627 0314 0846     		mov	r0, r1
 628 0316 1146     		mov	r1, r2
 629 0318 1522     		movs	r2, #21
 630 031a 2346     		mov	r3, r4
 631 031c FFF7FEFF 		bl	write_LCD
 134:.\LCD.c       ****                 write_LCD(lcd,button[0][x],9,x+4,1,0xFFFF,'Y');     //Nombre de boton Ventas
 632              		.loc 1 134 0 discriminator 3
 633 0320 FB7B     		ldrb	r3, [r7, #15]	@ zero_extendqisi2
 634 0322 0133     		adds	r3, r3, #1
 635 0324 FB73     		strb	r3, [r7, #15]
 636              	.L63:
 134:.\LCD.c       ****                 write_LCD(lcd,button[0][x],9,x+4,1,0xFFFF,'Y');     //Nombre de boton Ventas
 637              		.loc 1 134 0 is_stmt 0 discriminator 1
 638 0326 FB7B     		ldrb	r3, [r7, #15]	@ zero_extendqisi2
 639 0328 072B     		cmp	r3, #7
 640 032a 7FF66EAF 		bls	.L64
 141:.\LCD.c       ****             }
 142:.\LCD.c       ****         break;
 641              		.loc 1 142 0 is_stmt 1
 642 032e 02F08ABF 		b	.L16
 643              	.L39:
 143:.\LCD.c       ****             
 144:.\LCD.c       ****         case 'I'://Informacion
 145:.\LCD.c       ****             for(x=0;x<8;x++){
 644              		.loc 1 145 0
 645 0332 0023     		movs	r3, #0
 646 0334 FB73     		strb	r3, [r7, #15]
 647 0336 92E0     		b	.L65
ARM GAS  C:\Users\PROYEC~1\AppData\Local\Temp\ccMsBWpv.s 			page 15


 648              	.L66:
 146:.\LCD.c       ****                 write_LCD(lcd,button[6][x],0,x+4,0,0x2110,'Y');     //Nombre caja Version
 649              		.loc 1 146 0 discriminator 3
 650 0338 FB7B     		ldrb	r3, [r7, #15]	@ zero_extendqisi2
 651 033a 4D4A     		ldr	r2, .L245
 652 033c 1344     		add	r3, r3, r2
 653 033e 93F83030 		ldrb	r3, [r3, #48]
 654 0342 DAB2     		uxtb	r2, r3
 655 0344 FB7B     		ldrb	r3, [r7, #15]	@ zero_extendqisi2
 656 0346 9BB2     		uxth	r3, r3
 657 0348 0433     		adds	r3, r3, #4
 658 034a 9CB2     		uxth	r4, r3
 659 034c F979     		ldrb	r1, [r7, #7]	@ zero_extendqisi2
 660 034e 0023     		movs	r3, #0
 661 0350 0093     		str	r3, [sp]
 662 0352 42F21013 		movw	r3, #8464
 663 0356 0193     		str	r3, [sp, #4]
 664 0358 5923     		movs	r3, #89
 665 035a 0293     		str	r3, [sp, #8]
 666 035c 0846     		mov	r0, r1
 667 035e 1146     		mov	r1, r2
 668 0360 0022     		movs	r2, #0
 669 0362 2346     		mov	r3, r4
 670 0364 FFF7FEFF 		bl	write_LCD
 147:.\LCD.c       ****                 write_LCD(lcd,button[7][x],0,x+29,0,0x2110,'Y');    //Nombre caja Posicion
 671              		.loc 1 147 0 discriminator 3
 672 0368 FB7B     		ldrb	r3, [r7, #15]	@ zero_extendqisi2
 673 036a 414A     		ldr	r2, .L245
 674 036c 1344     		add	r3, r3, r2
 675 036e 93F83830 		ldrb	r3, [r3, #56]
 676 0372 DAB2     		uxtb	r2, r3
 677 0374 FB7B     		ldrb	r3, [r7, #15]	@ zero_extendqisi2
 678 0376 9BB2     		uxth	r3, r3
 679 0378 1D33     		adds	r3, r3, #29
 680 037a 9CB2     		uxth	r4, r3
 681 037c F979     		ldrb	r1, [r7, #7]	@ zero_extendqisi2
 682 037e 0023     		movs	r3, #0
 683 0380 0093     		str	r3, [sp]
 684 0382 42F21013 		movw	r3, #8464
 685 0386 0193     		str	r3, [sp, #4]
 686 0388 5923     		movs	r3, #89
 687 038a 0293     		str	r3, [sp, #8]
 688 038c 0846     		mov	r0, r1
 689 038e 1146     		mov	r1, r2
 690 0390 0022     		movs	r2, #0
 691 0392 2346     		mov	r3, r4
 692 0394 FFF7FEFF 		bl	write_LCD
 148:.\LCD.c       ****                 write_LCD(lcd,button[8][x],9,x+4,0,0x2110,'Y');     //Nombre caja Hora
 693              		.loc 1 148 0 discriminator 3
 694 0398 FB7B     		ldrb	r3, [r7, #15]	@ zero_extendqisi2
 695 039a 354A     		ldr	r2, .L245
 696 039c 1344     		add	r3, r3, r2
 697 039e 93F84030 		ldrb	r3, [r3, #64]
 698 03a2 DAB2     		uxtb	r2, r3
 699 03a4 FB7B     		ldrb	r3, [r7, #15]	@ zero_extendqisi2
 700 03a6 9BB2     		uxth	r3, r3
 701 03a8 0433     		adds	r3, r3, #4
ARM GAS  C:\Users\PROYEC~1\AppData\Local\Temp\ccMsBWpv.s 			page 16


 702 03aa 9CB2     		uxth	r4, r3
 703 03ac F979     		ldrb	r1, [r7, #7]	@ zero_extendqisi2
 704 03ae 0023     		movs	r3, #0
 705 03b0 0093     		str	r3, [sp]
 706 03b2 42F21013 		movw	r3, #8464
 707 03b6 0193     		str	r3, [sp, #4]
 708 03b8 5923     		movs	r3, #89
 709 03ba 0293     		str	r3, [sp, #8]
 710 03bc 0846     		mov	r0, r1
 711 03be 1146     		mov	r1, r2
 712 03c0 0922     		movs	r2, #9
 713 03c2 2346     		mov	r3, r4
 714 03c4 FFF7FEFF 		bl	write_LCD
 149:.\LCD.c       ****                 write_LCD(lcd,button[9][x],9,x+29,0,0x2110,'Y');    //Nombre caja Fecha
 715              		.loc 1 149 0 discriminator 3
 716 03c8 FB7B     		ldrb	r3, [r7, #15]	@ zero_extendqisi2
 717 03ca 294A     		ldr	r2, .L245
 718 03cc 1344     		add	r3, r3, r2
 719 03ce 93F84830 		ldrb	r3, [r3, #72]
 720 03d2 DAB2     		uxtb	r2, r3
 721 03d4 FB7B     		ldrb	r3, [r7, #15]	@ zero_extendqisi2
 722 03d6 9BB2     		uxth	r3, r3
 723 03d8 1D33     		adds	r3, r3, #29
 724 03da 9CB2     		uxth	r4, r3
 725 03dc F979     		ldrb	r1, [r7, #7]	@ zero_extendqisi2
 726 03de 0023     		movs	r3, #0
 727 03e0 0093     		str	r3, [sp]
 728 03e2 42F21013 		movw	r3, #8464
 729 03e6 0193     		str	r3, [sp, #4]
 730 03e8 5923     		movs	r3, #89
 731 03ea 0293     		str	r3, [sp, #8]
 732 03ec 0846     		mov	r0, r1
 733 03ee 1146     		mov	r1, r2
 734 03f0 0922     		movs	r2, #9
 735 03f2 2346     		mov	r3, r4
 736 03f4 FFF7FEFF 		bl	write_LCD
 150:.\LCD.c       ****                 write_LCD(lcd,button[10][x],18,x+4,0,0x2110,'Y');   //Nombre caja Direccion IP
 737              		.loc 1 150 0 discriminator 3
 738 03f8 FB7B     		ldrb	r3, [r7, #15]	@ zero_extendqisi2
 739 03fa 1D4A     		ldr	r2, .L245
 740 03fc 1344     		add	r3, r3, r2
 741 03fe 93F85030 		ldrb	r3, [r3, #80]
 742 0402 DAB2     		uxtb	r2, r3
 743 0404 FB7B     		ldrb	r3, [r7, #15]	@ zero_extendqisi2
 744 0406 9BB2     		uxth	r3, r3
 745 0408 0433     		adds	r3, r3, #4
 746 040a 9CB2     		uxth	r4, r3
 747 040c F979     		ldrb	r1, [r7, #7]	@ zero_extendqisi2
 748 040e 0023     		movs	r3, #0
 749 0410 0093     		str	r3, [sp]
 750 0412 42F21013 		movw	r3, #8464
 751 0416 0193     		str	r3, [sp, #4]
 752 0418 5923     		movs	r3, #89
 753 041a 0293     		str	r3, [sp, #8]
 754 041c 0846     		mov	r0, r1
 755 041e 1146     		mov	r1, r2
 756 0420 1222     		movs	r2, #18
ARM GAS  C:\Users\PROYEC~1\AppData\Local\Temp\ccMsBWpv.s 			page 17


 757 0422 2346     		mov	r3, r4
 758 0424 FFF7FEFF 		bl	write_LCD
 151:.\LCD.c       ****                 write_LCD(lcd,button[11][x],18,x+29,0,0x2110,'Y');  //Nombre caja Digitos Surtidor
 759              		.loc 1 151 0 discriminator 3
 760 0428 FB7B     		ldrb	r3, [r7, #15]	@ zero_extendqisi2
 761 042a 114A     		ldr	r2, .L245
 762 042c 1344     		add	r3, r3, r2
 763 042e 93F85830 		ldrb	r3, [r3, #88]
 764 0432 DAB2     		uxtb	r2, r3
 765 0434 FB7B     		ldrb	r3, [r7, #15]	@ zero_extendqisi2
 766 0436 9BB2     		uxth	r3, r3
 767 0438 1D33     		adds	r3, r3, #29
 768 043a 9CB2     		uxth	r4, r3
 769 043c F979     		ldrb	r1, [r7, #7]	@ zero_extendqisi2
 770 043e 0023     		movs	r3, #0
 771 0440 0093     		str	r3, [sp]
 772 0442 42F21013 		movw	r3, #8464
 773 0446 0193     		str	r3, [sp, #4]
 774 0448 5923     		movs	r3, #89
 775 044a 0293     		str	r3, [sp, #8]
 776 044c 0846     		mov	r0, r1
 777 044e 1146     		mov	r1, r2
 778 0450 1222     		movs	r2, #18
 779 0452 2346     		mov	r3, r4
 780 0454 FFF7FEFF 		bl	write_LCD
 145:.\LCD.c       ****                 write_LCD(lcd,button[6][x],0,x+4,0,0x2110,'Y');     //Nombre caja Version
 781              		.loc 1 145 0 discriminator 3
 782 0458 FB7B     		ldrb	r3, [r7, #15]	@ zero_extendqisi2
 783 045a 0133     		adds	r3, r3, #1
 784 045c FB73     		strb	r3, [r7, #15]
 785              	.L65:
 145:.\LCD.c       ****                 write_LCD(lcd,button[6][x],0,x+4,0,0x2110,'Y');     //Nombre caja Version
 786              		.loc 1 145 0 is_stmt 0 discriminator 1
 787 045e FB7B     		ldrb	r3, [r7, #15]	@ zero_extendqisi2
 788 0460 072B     		cmp	r3, #7
 789 0462 7FF669AF 		bls	.L66
 152:.\LCD.c       ****             }
 153:.\LCD.c       ****         break;
 790              		.loc 1 153 0 is_stmt 1
 791 0466 02F0EEBE 		b	.L16
 792              	.L44:
 154:.\LCD.c       ****             
 155:.\LCD.c       ****         case 'S'://Venta
 156:.\LCD.c       ****             for(x=0;x<8;x++){
 793              		.loc 1 156 0
 794 046a 0023     		movs	r3, #0
 795 046c FB73     		strb	r3, [r7, #15]
 796 046e 4CE0     		b	.L67
 797              	.L246:
 798              		.align	2
 799              	.L245:
 800 0470 00000000 		.word	button
 801              	.L68:
 157:.\LCD.c       ****                 write_LCD(lcd,button[12][x],9,x+11,1,0xFFFF,'Y');  //Nombre de boton Contado
 802              		.loc 1 157 0 discriminator 3
 803 0474 FB7B     		ldrb	r3, [r7, #15]	@ zero_extendqisi2
 804 0476 AF4A     		ldr	r2, .L247
ARM GAS  C:\Users\PROYEC~1\AppData\Local\Temp\ccMsBWpv.s 			page 18


 805 0478 1344     		add	r3, r3, r2
 806 047a 93F86030 		ldrb	r3, [r3, #96]
 807 047e DAB2     		uxtb	r2, r3
 808 0480 FB7B     		ldrb	r3, [r7, #15]	@ zero_extendqisi2
 809 0482 9BB2     		uxth	r3, r3
 810 0484 0B33     		adds	r3, r3, #11
 811 0486 9CB2     		uxth	r4, r3
 812 0488 F979     		ldrb	r1, [r7, #7]	@ zero_extendqisi2
 813 048a 0123     		movs	r3, #1
 814 048c 0093     		str	r3, [sp]
 815 048e 4FF6FF73 		movw	r3, #65535
 816 0492 0193     		str	r3, [sp, #4]
 817 0494 5923     		movs	r3, #89
 818 0496 0293     		str	r3, [sp, #8]
 819 0498 0846     		mov	r0, r1
 820 049a 1146     		mov	r1, r2
 821 049c 0922     		movs	r2, #9
 822 049e 2346     		mov	r3, r4
 823 04a0 FFF7FEFF 		bl	write_LCD
 158:.\LCD.c       ****                 write_LCD(lcd,button[13][x],15,x+11,1,0xFFFF,'Y');  //Nombre de boton Credito
 824              		.loc 1 158 0 discriminator 3
 825 04a4 FB7B     		ldrb	r3, [r7, #15]	@ zero_extendqisi2
 826 04a6 A34A     		ldr	r2, .L247
 827 04a8 1344     		add	r3, r3, r2
 828 04aa 93F86830 		ldrb	r3, [r3, #104]
 829 04ae DAB2     		uxtb	r2, r3
 830 04b0 FB7B     		ldrb	r3, [r7, #15]	@ zero_extendqisi2
 831 04b2 9BB2     		uxth	r3, r3
 832 04b4 0B33     		adds	r3, r3, #11
 833 04b6 9CB2     		uxth	r4, r3
 834 04b8 F979     		ldrb	r1, [r7, #7]	@ zero_extendqisi2
 835 04ba 0123     		movs	r3, #1
 836 04bc 0093     		str	r3, [sp]
 837 04be 4FF6FF73 		movw	r3, #65535
 838 04c2 0193     		str	r3, [sp, #4]
 839 04c4 5923     		movs	r3, #89
 840 04c6 0293     		str	r3, [sp, #8]
 841 04c8 0846     		mov	r0, r1
 842 04ca 1146     		mov	r1, r2
 843 04cc 0F22     		movs	r2, #15
 844 04ce 2346     		mov	r3, r4
 845 04d0 FFF7FEFF 		bl	write_LCD
 159:.\LCD.c       ****                 write_LCD(lcd,button[70][x],21,x+11,1,0xFFFF,'Y');  //Nombre de boton Forma de pago
 846              		.loc 1 159 0 discriminator 3
 847 04d4 FB7B     		ldrb	r3, [r7, #15]	@ zero_extendqisi2
 848 04d6 974A     		ldr	r2, .L247
 849 04d8 1344     		add	r3, r3, r2
 850 04da 93F83032 		ldrb	r3, [r3, #560]
 851 04de DAB2     		uxtb	r2, r3
 852 04e0 FB7B     		ldrb	r3, [r7, #15]	@ zero_extendqisi2
 853 04e2 9BB2     		uxth	r3, r3
 854 04e4 0B33     		adds	r3, r3, #11
 855 04e6 9CB2     		uxth	r4, r3
 856 04e8 F979     		ldrb	r1, [r7, #7]	@ zero_extendqisi2
 857 04ea 0123     		movs	r3, #1
 858 04ec 0093     		str	r3, [sp]
 859 04ee 4FF6FF73 		movw	r3, #65535
ARM GAS  C:\Users\PROYEC~1\AppData\Local\Temp\ccMsBWpv.s 			page 19


 860 04f2 0193     		str	r3, [sp, #4]
 861 04f4 5923     		movs	r3, #89
 862 04f6 0293     		str	r3, [sp, #8]
 863 04f8 0846     		mov	r0, r1
 864 04fa 1146     		mov	r1, r2
 865 04fc 1522     		movs	r2, #21
 866 04fe 2346     		mov	r3, r4
 867 0500 FFF7FEFF 		bl	write_LCD
 156:.\LCD.c       ****                 write_LCD(lcd,button[12][x],9,x+11,1,0xFFFF,'Y');  //Nombre de boton Contado
 868              		.loc 1 156 0 discriminator 3
 869 0504 FB7B     		ldrb	r3, [r7, #15]	@ zero_extendqisi2
 870 0506 0133     		adds	r3, r3, #1
 871 0508 FB73     		strb	r3, [r7, #15]
 872              	.L67:
 156:.\LCD.c       ****                 write_LCD(lcd,button[12][x],9,x+11,1,0xFFFF,'Y');  //Nombre de boton Contado
 873              		.loc 1 156 0 is_stmt 0 discriminator 1
 874 050a FB7B     		ldrb	r3, [r7, #15]	@ zero_extendqisi2
 875 050c 072B     		cmp	r3, #7
 876 050e B1D9     		bls	.L68
 160:.\LCD.c       ****             }
 161:.\LCD.c       ****         break;
 877              		.loc 1 161 0 is_stmt 1
 878 0510 02F099BE 		b	.L16
 879              	.L35:
 162:.\LCD.c       ****             
 163:.\LCD.c       ****         case 'C'://Contado
 164:.\LCD.c       ****             for(x=0;x<8;x++){
 880              		.loc 1 164 0
 881 0514 0023     		movs	r3, #0
 882 0516 FB73     		strb	r3, [r7, #15]
 883 0518 62E0     		b	.L69
 884              	.L70:
 165:.\LCD.c       ****                 write_LCD(lcd,button[71][x],2,x+5,2,0x2110,'Y');    //Nombre de boton Preset
 885              		.loc 1 165 0 discriminator 3
 886 051a FB7B     		ldrb	r3, [r7, #15]	@ zero_extendqisi2
 887 051c 854A     		ldr	r2, .L247
 888 051e 1344     		add	r3, r3, r2
 889 0520 93F83832 		ldrb	r3, [r3, #568]
 890 0524 DAB2     		uxtb	r2, r3
 891 0526 FB7B     		ldrb	r3, [r7, #15]	@ zero_extendqisi2
 892 0528 9BB2     		uxth	r3, r3
 893 052a 0533     		adds	r3, r3, #5
 894 052c 9CB2     		uxth	r4, r3
 895 052e F979     		ldrb	r1, [r7, #7]	@ zero_extendqisi2
 896 0530 0223     		movs	r3, #2
 897 0532 0093     		str	r3, [sp]
 898 0534 42F21013 		movw	r3, #8464
 899 0538 0193     		str	r3, [sp, #4]
 900 053a 5923     		movs	r3, #89
 901 053c 0293     		str	r3, [sp, #8]
 902 053e 0846     		mov	r0, r1
 903 0540 1146     		mov	r1, r2
 904 0542 0222     		movs	r2, #2
 905 0544 2346     		mov	r3, r4
 906 0546 FFF7FEFF 		bl	write_LCD
 166:.\LCD.c       ****                 write_LCD(lcd,button[14][x],9,x+4,1,0xFFFF,'Y');    //Nombre de boton Dinero
 907              		.loc 1 166 0 discriminator 3
ARM GAS  C:\Users\PROYEC~1\AppData\Local\Temp\ccMsBWpv.s 			page 20


 908 054a FB7B     		ldrb	r3, [r7, #15]	@ zero_extendqisi2
 909 054c 794A     		ldr	r2, .L247
 910 054e 1344     		add	r3, r3, r2
 911 0550 93F87030 		ldrb	r3, [r3, #112]
 912 0554 DAB2     		uxtb	r2, r3
 913 0556 FB7B     		ldrb	r3, [r7, #15]	@ zero_extendqisi2
 914 0558 9BB2     		uxth	r3, r3
 915 055a 0433     		adds	r3, r3, #4
 916 055c 9CB2     		uxth	r4, r3
 917 055e F979     		ldrb	r1, [r7, #7]	@ zero_extendqisi2
 918 0560 0123     		movs	r3, #1
 919 0562 0093     		str	r3, [sp]
 920 0564 4FF6FF73 		movw	r3, #65535
 921 0568 0193     		str	r3, [sp, #4]
 922 056a 5923     		movs	r3, #89
 923 056c 0293     		str	r3, [sp, #8]
 924 056e 0846     		mov	r0, r1
 925 0570 1146     		mov	r1, r2
 926 0572 0922     		movs	r2, #9
 927 0574 2346     		mov	r3, r4
 928 0576 FFF7FEFF 		bl	write_LCD
 167:.\LCD.c       ****                 write_LCD(lcd,button[15][x],15,x+4,1,0xFFFF,'Y');   //Nombre de boton Volumen
 929              		.loc 1 167 0 discriminator 3
 930 057a FB7B     		ldrb	r3, [r7, #15]	@ zero_extendqisi2
 931 057c 6D4A     		ldr	r2, .L247
 932 057e 1344     		add	r3, r3, r2
 933 0580 93F87830 		ldrb	r3, [r3, #120]
 934 0584 DAB2     		uxtb	r2, r3
 935 0586 FB7B     		ldrb	r3, [r7, #15]	@ zero_extendqisi2
 936 0588 9BB2     		uxth	r3, r3
 937 058a 0433     		adds	r3, r3, #4
 938 058c 9CB2     		uxth	r4, r3
 939 058e F979     		ldrb	r1, [r7, #7]	@ zero_extendqisi2
 940 0590 0123     		movs	r3, #1
 941 0592 0093     		str	r3, [sp]
 942 0594 4FF6FF73 		movw	r3, #65535
 943 0598 0193     		str	r3, [sp, #4]
 944 059a 5923     		movs	r3, #89
 945 059c 0293     		str	r3, [sp, #8]
 946 059e 0846     		mov	r0, r1
 947 05a0 1146     		mov	r1, r2
 948 05a2 0F22     		movs	r2, #15
 949 05a4 2346     		mov	r3, r4
 950 05a6 FFF7FEFF 		bl	write_LCD
 168:.\LCD.c       ****                 write_LCD(lcd,button[16][x],21,x+4,1,0xFFFF,'Y');   //Nombre de boton Lleno
 951              		.loc 1 168 0 discriminator 3
 952 05aa FB7B     		ldrb	r3, [r7, #15]	@ zero_extendqisi2
 953 05ac 614A     		ldr	r2, .L247
 954 05ae 1344     		add	r3, r3, r2
 955 05b0 93F88030 		ldrb	r3, [r3, #128]
 956 05b4 DAB2     		uxtb	r2, r3
 957 05b6 FB7B     		ldrb	r3, [r7, #15]	@ zero_extendqisi2
 958 05b8 9BB2     		uxth	r3, r3
 959 05ba 0433     		adds	r3, r3, #4
 960 05bc 9CB2     		uxth	r4, r3
 961 05be F979     		ldrb	r1, [r7, #7]	@ zero_extendqisi2
 962 05c0 0123     		movs	r3, #1
ARM GAS  C:\Users\PROYEC~1\AppData\Local\Temp\ccMsBWpv.s 			page 21


 963 05c2 0093     		str	r3, [sp]
 964 05c4 4FF6FF73 		movw	r3, #65535
 965 05c8 0193     		str	r3, [sp, #4]
 966 05ca 5923     		movs	r3, #89
 967 05cc 0293     		str	r3, [sp, #8]
 968 05ce 0846     		mov	r0, r1
 969 05d0 1146     		mov	r1, r2
 970 05d2 1522     		movs	r2, #21
 971 05d4 2346     		mov	r3, r4
 972 05d6 FFF7FEFF 		bl	write_LCD
 164:.\LCD.c       ****                 write_LCD(lcd,button[71][x],2,x+5,2,0x2110,'Y');    //Nombre de boton Preset
 973              		.loc 1 164 0 discriminator 3
 974 05da FB7B     		ldrb	r3, [r7, #15]	@ zero_extendqisi2
 975 05dc 0133     		adds	r3, r3, #1
 976 05de FB73     		strb	r3, [r7, #15]
 977              	.L69:
 164:.\LCD.c       ****                 write_LCD(lcd,button[71][x],2,x+5,2,0x2110,'Y');    //Nombre de boton Preset
 978              		.loc 1 164 0 is_stmt 0 discriminator 1
 979 05e0 FB7B     		ldrb	r3, [r7, #15]	@ zero_extendqisi2
 980 05e2 072B     		cmp	r3, #7
 981 05e4 99D9     		bls	.L70
 169:.\LCD.c       ****             }
 170:.\LCD.c       ****             for(y=0;y<=2;y++){
 982              		.loc 1 170 0 is_stmt 1
 983 05e6 0023     		movs	r3, #0
 984 05e8 BB73     		strb	r3, [r7, #14]
 985 05ea 60E0     		b	.L71
 986              	.L76:
 171:.\LCD.c       ****                 write_LCD(lcd,symbols[0],9+(6*y),15,1,0xFFFF,'Y');
 987              		.loc 1 171 0
 988 05ec 524B     		ldr	r3, .L247+4
 989 05ee 1B78     		ldrb	r3, [r3]
 990 05f0 D9B2     		uxtb	r1, r3
 991 05f2 BB7B     		ldrb	r3, [r7, #14]	@ zero_extendqisi2
 992 05f4 9BB2     		uxth	r3, r3
 993 05f6 1A46     		mov	r2, r3	@ movhi
 994 05f8 5200     		lsls	r2, r2, #1
 995 05fa 1344     		add	r3, r3, r2
 996 05fc 5B00     		lsls	r3, r3, #1
 997 05fe 9BB2     		uxth	r3, r3
 998 0600 0933     		adds	r3, r3, #9
 999 0602 9AB2     		uxth	r2, r3
 1000 0604 F879     		ldrb	r0, [r7, #7]	@ zero_extendqisi2
 1001 0606 0123     		movs	r3, #1
 1002 0608 0093     		str	r3, [sp]
 1003 060a 4FF6FF73 		movw	r3, #65535
 1004 060e 0193     		str	r3, [sp, #4]
 1005 0610 5923     		movs	r3, #89
 1006 0612 0293     		str	r3, [sp, #8]
 1007 0614 0F23     		movs	r3, #15
 1008 0616 FFF7FEFF 		bl	write_LCD
 172:.\LCD.c       ****                 flag=0;
 1009              		.loc 1 172 0
 1010 061a 0023     		movs	r3, #0
 1011 061c 7B73     		strb	r3, [r7, #13]
 173:.\LCD.c       ****                 for(x=1;x<=presetFast[y][0];x++){
 1012              		.loc 1 173 0
ARM GAS  C:\Users\PROYEC~1\AppData\Local\Temp\ccMsBWpv.s 			page 22


 1013 061e 0123     		movs	r3, #1
 1014 0620 FB73     		strb	r3, [r7, #15]
 1015 0622 36E0     		b	.L72
 1016              	.L75:
 174:.\LCD.c       ****                     if(presetFast[y][x]=='0' && flag==0){
 1017              		.loc 1 174 0
 1018 0624 BA7B     		ldrb	r2, [r7, #14]	@ zero_extendqisi2
 1019 0626 F97B     		ldrb	r1, [r7, #15]	@ zero_extendqisi2
 1020 0628 4448     		ldr	r0, .L247+8
 1021 062a 1346     		mov	r3, r2
 1022 062c 9B00     		lsls	r3, r3, #2
 1023 062e 1344     		add	r3, r3, r2
 1024 0630 5B00     		lsls	r3, r3, #1
 1025 0632 0B44     		add	r3, r3, r1
 1026 0634 0344     		add	r3, r3, r0
 1027 0636 1B78     		ldrb	r3, [r3]	@ zero_extendqisi2
 1028 0638 302B     		cmp	r3, #48
 1029 063a 03D1     		bne	.L73
 1030              		.loc 1 174 0 is_stmt 0 discriminator 1
 1031 063c 7B7B     		ldrb	r3, [r7, #13]	@ zero_extendqisi2
 1032 063e 002B     		cmp	r3, #0
 1033 0640 00D1     		bne	.L73
 1034              		.loc 1 174 0
 1035 0642 23E0     		b	.L74
 1036              	.L73:
 175:.\LCD.c       ****                     }else{
 176:.\LCD.c       ****                         write_LCD(lcd,presetFast[y][x],9+(6*y),x+15,1,0xFFFF,'Y');
 1037              		.loc 1 176 0 is_stmt 1
 1038 0644 BA7B     		ldrb	r2, [r7, #14]	@ zero_extendqisi2
 1039 0646 F97B     		ldrb	r1, [r7, #15]	@ zero_extendqisi2
 1040 0648 3C48     		ldr	r0, .L247+8
 1041 064a 1346     		mov	r3, r2
 1042 064c 9B00     		lsls	r3, r3, #2
 1043 064e 1344     		add	r3, r3, r2
 1044 0650 5B00     		lsls	r3, r3, #1
 1045 0652 0B44     		add	r3, r3, r1
 1046 0654 0344     		add	r3, r3, r0
 1047 0656 1978     		ldrb	r1, [r3]	@ zero_extendqisi2
 1048 0658 BB7B     		ldrb	r3, [r7, #14]	@ zero_extendqisi2
 1049 065a 9BB2     		uxth	r3, r3
 1050 065c 1A46     		mov	r2, r3	@ movhi
 1051 065e 5200     		lsls	r2, r2, #1
 1052 0660 1344     		add	r3, r3, r2
 1053 0662 5B00     		lsls	r3, r3, #1
 1054 0664 9BB2     		uxth	r3, r3
 1055 0666 0933     		adds	r3, r3, #9
 1056 0668 9AB2     		uxth	r2, r3
 1057 066a FB7B     		ldrb	r3, [r7, #15]	@ zero_extendqisi2
 1058 066c 9BB2     		uxth	r3, r3
 1059 066e 0F33     		adds	r3, r3, #15
 1060 0670 9CB2     		uxth	r4, r3
 1061 0672 F879     		ldrb	r0, [r7, #7]	@ zero_extendqisi2
 1062 0674 0123     		movs	r3, #1
 1063 0676 0093     		str	r3, [sp]
 1064 0678 4FF6FF73 		movw	r3, #65535
 1065 067c 0193     		str	r3, [sp, #4]
 1066 067e 5923     		movs	r3, #89
ARM GAS  C:\Users\PROYEC~1\AppData\Local\Temp\ccMsBWpv.s 			page 23


 1067 0680 0293     		str	r3, [sp, #8]
 1068 0682 2346     		mov	r3, r4
 1069 0684 FFF7FEFF 		bl	write_LCD
 177:.\LCD.c       ****                         flag=1;
 1070              		.loc 1 177 0
 1071 0688 0123     		movs	r3, #1
 1072 068a 7B73     		strb	r3, [r7, #13]
 1073              	.L74:
 173:.\LCD.c       ****                     if(presetFast[y][x]=='0' && flag==0){
 1074              		.loc 1 173 0 discriminator 2
 1075 068c FB7B     		ldrb	r3, [r7, #15]	@ zero_extendqisi2
 1076 068e 0133     		adds	r3, r3, #1
 1077 0690 FB73     		strb	r3, [r7, #15]
 1078              	.L72:
 173:.\LCD.c       ****                     if(presetFast[y][x]=='0' && flag==0){
 1079              		.loc 1 173 0 is_stmt 0 discriminator 1
 1080 0692 BA7B     		ldrb	r2, [r7, #14]	@ zero_extendqisi2
 1081 0694 2949     		ldr	r1, .L247+8
 1082 0696 1346     		mov	r3, r2
 1083 0698 9B00     		lsls	r3, r3, #2
 1084 069a 1344     		add	r3, r3, r2
 1085 069c 5B00     		lsls	r3, r3, #1
 1086 069e 0B44     		add	r3, r3, r1
 1087 06a0 1B78     		ldrb	r3, [r3]	@ zero_extendqisi2
 1088 06a2 FA7B     		ldrb	r2, [r7, #15]	@ zero_extendqisi2
 1089 06a4 9A42     		cmp	r2, r3
 1090 06a6 BDD9     		bls	.L75
 170:.\LCD.c       ****                 write_LCD(lcd,symbols[0],9+(6*y),15,1,0xFFFF,'Y');
 1091              		.loc 1 170 0 is_stmt 1 discriminator 2
 1092 06a8 BB7B     		ldrb	r3, [r7, #14]	@ zero_extendqisi2
 1093 06aa 0133     		adds	r3, r3, #1
 1094 06ac BB73     		strb	r3, [r7, #14]
 1095              	.L71:
 170:.\LCD.c       ****                 write_LCD(lcd,symbols[0],9+(6*y),15,1,0xFFFF,'Y');
 1096              		.loc 1 170 0 is_stmt 0 discriminator 1
 1097 06ae BB7B     		ldrb	r3, [r7, #14]	@ zero_extendqisi2
 1098 06b0 022B     		cmp	r3, #2
 1099 06b2 9BD9     		bls	.L76
 178:.\LCD.c       ****                     }
 179:.\LCD.c       ****                 }
 180:.\LCD.c       ****             }
 181:.\LCD.c       ****         break;
 1100              		.loc 1 181 0 is_stmt 1
 1101 06b4 02F0C7BD 		b	.L16
 1102              	.L25:
 182:.\LCD.c       ****             
 183:.\LCD.c       ****         case '1'://Teclado Dinero
 184:.\LCD.c       ****             for(x=0;x<8;x++){
 1103              		.loc 1 184 0
 1104 06b8 0023     		movs	r3, #0
 1105 06ba FB73     		strb	r3, [r7, #15]
 1106 06bc 32E0     		b	.L77
 1107              	.L78:
 185:.\LCD.c       ****                 write_LCD(lcd,button[20][x],14,x+1,2,0x2110,'Y');   //Nombre de imagen Teclado Dine
 1108              		.loc 1 185 0 discriminator 3
 1109 06be FB7B     		ldrb	r3, [r7, #15]	@ zero_extendqisi2
 1110 06c0 1C4A     		ldr	r2, .L247
ARM GAS  C:\Users\PROYEC~1\AppData\Local\Temp\ccMsBWpv.s 			page 24


 1111 06c2 1344     		add	r3, r3, r2
 1112 06c4 93F8A030 		ldrb	r3, [r3, #160]
 1113 06c8 DAB2     		uxtb	r2, r3
 1114 06ca FB7B     		ldrb	r3, [r7, #15]	@ zero_extendqisi2
 1115 06cc 9BB2     		uxth	r3, r3
 1116 06ce 0133     		adds	r3, r3, #1
 1117 06d0 9CB2     		uxth	r4, r3
 1118 06d2 F979     		ldrb	r1, [r7, #7]	@ zero_extendqisi2
 1119 06d4 0223     		movs	r3, #2
 1120 06d6 0093     		str	r3, [sp]
 1121 06d8 42F21013 		movw	r3, #8464
 1122 06dc 0193     		str	r3, [sp, #4]
 1123 06de 5923     		movs	r3, #89
 1124 06e0 0293     		str	r3, [sp, #8]
 1125 06e2 0846     		mov	r0, r1
 1126 06e4 1146     		mov	r1, r2
 1127 06e6 0E22     		movs	r2, #14
 1128 06e8 2346     		mov	r3, r4
 1129 06ea FFF7FEFF 		bl	write_LCD
 186:.\LCD.c       ****                 write_LCD(lcd,button[21][x],18,x+1,2,0x2110,'Y');   //Nombre de imagen Teclado Dine
 1130              		.loc 1 186 0 discriminator 3
 1131 06ee FB7B     		ldrb	r3, [r7, #15]	@ zero_extendqisi2
 1132 06f0 104A     		ldr	r2, .L247
 1133 06f2 1344     		add	r3, r3, r2
 1134 06f4 93F8A830 		ldrb	r3, [r3, #168]
 1135 06f8 DAB2     		uxtb	r2, r3
 1136 06fa FB7B     		ldrb	r3, [r7, #15]	@ zero_extendqisi2
 1137 06fc 9BB2     		uxth	r3, r3
 1138 06fe 0133     		adds	r3, r3, #1
 1139 0700 9CB2     		uxth	r4, r3
 1140 0702 F979     		ldrb	r1, [r7, #7]	@ zero_extendqisi2
 1141 0704 0223     		movs	r3, #2
 1142 0706 0093     		str	r3, [sp]
 1143 0708 42F21013 		movw	r3, #8464
 1144 070c 0193     		str	r3, [sp, #4]
 1145 070e 5923     		movs	r3, #89
 1146 0710 0293     		str	r3, [sp, #8]
 1147 0712 0846     		mov	r0, r1
 1148 0714 1146     		mov	r1, r2
 1149 0716 1222     		movs	r2, #18
 1150 0718 2346     		mov	r3, r4
 1151 071a FFF7FEFF 		bl	write_LCD
 184:.\LCD.c       ****                 write_LCD(lcd,button[20][x],14,x+1,2,0x2110,'Y');   //Nombre de imagen Teclado Dine
 1152              		.loc 1 184 0 discriminator 3
 1153 071e FB7B     		ldrb	r3, [r7, #15]	@ zero_extendqisi2
 1154 0720 0133     		adds	r3, r3, #1
 1155 0722 FB73     		strb	r3, [r7, #15]
 1156              	.L77:
 184:.\LCD.c       ****                 write_LCD(lcd,button[20][x],14,x+1,2,0x2110,'Y');   //Nombre de imagen Teclado Dine
 1157              		.loc 1 184 0 is_stmt 0 discriminator 1
 1158 0724 FB7B     		ldrb	r3, [r7, #15]	@ zero_extendqisi2
 1159 0726 072B     		cmp	r3, #7
 1160 0728 C9D9     		bls	.L78
 187:.\LCD.c       ****             }
 188:.\LCD.c       ****         break;
 1161              		.loc 1 188 0 is_stmt 1
 1162 072a 02F08CBD 		b	.L16
ARM GAS  C:\Users\PROYEC~1\AppData\Local\Temp\ccMsBWpv.s 			page 25


 1163              	.L26:
 189:.\LCD.c       ****             
 190:.\LCD.c       ****         case '2'://Teclado Volumen
 191:.\LCD.c       ****             for(x=0;x<8;x++){
 1164              		.loc 1 191 0
 1165 072e 0023     		movs	r3, #0
 1166 0730 FB73     		strb	r3, [r7, #15]
 1167 0732 38E0     		b	.L79
 1168              	.L248:
 1169              		.align	2
 1170              	.L247:
 1171 0734 00000000 		.word	button
 1172 0738 00000000 		.word	symbols
 1173 073c 00000000 		.word	presetFast
 1174              	.L80:
 192:.\LCD.c       ****                 write_LCD(lcd,button[22][x],14,x+1,2,0x2110,'Y');   //Nombre de imagen Teclado Volu
 1175              		.loc 1 192 0 discriminator 3
 1176 0740 FB7B     		ldrb	r3, [r7, #15]	@ zero_extendqisi2
 1177 0742 A64A     		ldr	r2, .L249
 1178 0744 1344     		add	r3, r3, r2
 1179 0746 93F8B030 		ldrb	r3, [r3, #176]
 1180 074a DAB2     		uxtb	r2, r3
 1181 074c FB7B     		ldrb	r3, [r7, #15]	@ zero_extendqisi2
 1182 074e 9BB2     		uxth	r3, r3
 1183 0750 0133     		adds	r3, r3, #1
 1184 0752 9CB2     		uxth	r4, r3
 1185 0754 F979     		ldrb	r1, [r7, #7]	@ zero_extendqisi2
 1186 0756 0223     		movs	r3, #2
 1187 0758 0093     		str	r3, [sp]
 1188 075a 42F21013 		movw	r3, #8464
 1189 075e 0193     		str	r3, [sp, #4]
 1190 0760 5923     		movs	r3, #89
 1191 0762 0293     		str	r3, [sp, #8]
 1192 0764 0846     		mov	r0, r1
 1193 0766 1146     		mov	r1, r2
 1194 0768 0E22     		movs	r2, #14
 1195 076a 2346     		mov	r3, r4
 1196 076c FFF7FEFF 		bl	write_LCD
 193:.\LCD.c       ****                 write_LCD(lcd,button[23][x],18,x+1,2,0x2110,'Y');   //Nombre de imagen Teclado Volu
 1197              		.loc 1 193 0 discriminator 3
 1198 0770 FB7B     		ldrb	r3, [r7, #15]	@ zero_extendqisi2
 1199 0772 9A4A     		ldr	r2, .L249
 1200 0774 1344     		add	r3, r3, r2
 1201 0776 93F8B830 		ldrb	r3, [r3, #184]
 1202 077a DAB2     		uxtb	r2, r3
 1203 077c FB7B     		ldrb	r3, [r7, #15]	@ zero_extendqisi2
 1204 077e 9BB2     		uxth	r3, r3
 1205 0780 0133     		adds	r3, r3, #1
 1206 0782 9CB2     		uxth	r4, r3
 1207 0784 F979     		ldrb	r1, [r7, #7]	@ zero_extendqisi2
 1208 0786 0223     		movs	r3, #2
 1209 0788 0093     		str	r3, [sp]
 1210 078a 42F21013 		movw	r3, #8464
 1211 078e 0193     		str	r3, [sp, #4]
 1212 0790 5923     		movs	r3, #89
 1213 0792 0293     		str	r3, [sp, #8]
 1214 0794 0846     		mov	r0, r1
ARM GAS  C:\Users\PROYEC~1\AppData\Local\Temp\ccMsBWpv.s 			page 26


 1215 0796 1146     		mov	r1, r2
 1216 0798 1222     		movs	r2, #18
 1217 079a 2346     		mov	r3, r4
 1218 079c FFF7FEFF 		bl	write_LCD
 191:.\LCD.c       ****                 write_LCD(lcd,button[22][x],14,x+1,2,0x2110,'Y');   //Nombre de imagen Teclado Volu
 1219              		.loc 1 191 0 discriminator 3
 1220 07a0 FB7B     		ldrb	r3, [r7, #15]	@ zero_extendqisi2
 1221 07a2 0133     		adds	r3, r3, #1
 1222 07a4 FB73     		strb	r3, [r7, #15]
 1223              	.L79:
 191:.\LCD.c       ****                 write_LCD(lcd,button[22][x],14,x+1,2,0x2110,'Y');   //Nombre de imagen Teclado Volu
 1224              		.loc 1 191 0 is_stmt 0 discriminator 1
 1225 07a6 FB7B     		ldrb	r3, [r7, #15]	@ zero_extendqisi2
 1226 07a8 072B     		cmp	r3, #7
 1227 07aa C9D9     		bls	.L80
 194:.\LCD.c       ****             }
 195:.\LCD.c       ****         break;
 1228              		.loc 1 195 0 is_stmt 1
 1229 07ac 02F04BBD 		b	.L16
 1230              	.L42:
 196:.\LCD.c       ****             
 197:.\LCD.c       ****         case 'P'://Escoja producto
 198:.\LCD.c       ****             for(x=0;x<8;x++){
 1231              		.loc 1 198 0
 1232 07b0 0023     		movs	r3, #0
 1233 07b2 FB73     		strb	r3, [r7, #15]
 1234 07b4 92E0     		b	.L81
 1235              	.L82:
 199:.\LCD.c       ****                 write_LCD(lcd,button[24][x],0,x+9,2,0x2110,'Y');   //Nombre de imagen Escoja produc
 1236              		.loc 1 199 0 discriminator 3
 1237 07b6 FB7B     		ldrb	r3, [r7, #15]	@ zero_extendqisi2
 1238 07b8 884A     		ldr	r2, .L249
 1239 07ba 1344     		add	r3, r3, r2
 1240 07bc 93F8C030 		ldrb	r3, [r3, #192]
 1241 07c0 DAB2     		uxtb	r2, r3
 1242 07c2 FB7B     		ldrb	r3, [r7, #15]	@ zero_extendqisi2
 1243 07c4 9BB2     		uxth	r3, r3
 1244 07c6 0933     		adds	r3, r3, #9
 1245 07c8 9CB2     		uxth	r4, r3
 1246 07ca F979     		ldrb	r1, [r7, #7]	@ zero_extendqisi2
 1247 07cc 0223     		movs	r3, #2
 1248 07ce 0093     		str	r3, [sp]
 1249 07d0 42F21013 		movw	r3, #8464
 1250 07d4 0193     		str	r3, [sp, #4]
 1251 07d6 5923     		movs	r3, #89
 1252 07d8 0293     		str	r3, [sp, #8]
 1253 07da 0846     		mov	r0, r1
 1254 07dc 1146     		mov	r1, r2
 1255 07de 0022     		movs	r2, #0
 1256 07e0 2346     		mov	r3, r4
 1257 07e2 FFF7FEFF 		bl	write_LCD
 200:.\LCD.c       ****                 write_LCD(lcd,button[25][x],4,x+9,2,0x2110,'Y');   //Nombre de imagen Escoja produc
 1258              		.loc 1 200 0 discriminator 3
 1259 07e6 FB7B     		ldrb	r3, [r7, #15]	@ zero_extendqisi2
 1260 07e8 7C4A     		ldr	r2, .L249
 1261 07ea 1344     		add	r3, r3, r2
 1262 07ec 93F8C830 		ldrb	r3, [r3, #200]
ARM GAS  C:\Users\PROYEC~1\AppData\Local\Temp\ccMsBWpv.s 			page 27


 1263 07f0 DAB2     		uxtb	r2, r3
 1264 07f2 FB7B     		ldrb	r3, [r7, #15]	@ zero_extendqisi2
 1265 07f4 9BB2     		uxth	r3, r3
 1266 07f6 0933     		adds	r3, r3, #9
 1267 07f8 9CB2     		uxth	r4, r3
 1268 07fa F979     		ldrb	r1, [r7, #7]	@ zero_extendqisi2
 1269 07fc 0223     		movs	r3, #2
 1270 07fe 0093     		str	r3, [sp]
 1271 0800 42F21013 		movw	r3, #8464
 1272 0804 0193     		str	r3, [sp, #4]
 1273 0806 5923     		movs	r3, #89
 1274 0808 0293     		str	r3, [sp, #8]
 1275 080a 0846     		mov	r0, r1
 1276 080c 1146     		mov	r1, r2
 1277 080e 0422     		movs	r2, #4
 1278 0810 2346     		mov	r3, r4
 1279 0812 FFF7FEFF 		bl	write_LCD
 201:.\LCD.c       ****                 write_LCD(lcd,button[26][x],10,x+15,1,0xFFFF,'Y');   //Nombre de boton Producto 1
 1280              		.loc 1 201 0 discriminator 3
 1281 0816 FB7B     		ldrb	r3, [r7, #15]	@ zero_extendqisi2
 1282 0818 704A     		ldr	r2, .L249
 1283 081a 1344     		add	r3, r3, r2
 1284 081c 93F8D030 		ldrb	r3, [r3, #208]
 1285 0820 DAB2     		uxtb	r2, r3
 1286 0822 FB7B     		ldrb	r3, [r7, #15]	@ zero_extendqisi2
 1287 0824 9BB2     		uxth	r3, r3
 1288 0826 0F33     		adds	r3, r3, #15
 1289 0828 9CB2     		uxth	r4, r3
 1290 082a F979     		ldrb	r1, [r7, #7]	@ zero_extendqisi2
 1291 082c 0123     		movs	r3, #1
 1292 082e 0093     		str	r3, [sp]
 1293 0830 4FF6FF73 		movw	r3, #65535
 1294 0834 0193     		str	r3, [sp, #4]
 1295 0836 5923     		movs	r3, #89
 1296 0838 0293     		str	r3, [sp, #8]
 1297 083a 0846     		mov	r0, r1
 1298 083c 1146     		mov	r1, r2
 1299 083e 0A22     		movs	r2, #10
 1300 0840 2346     		mov	r3, r4
 1301 0842 FFF7FEFF 		bl	write_LCD
 202:.\LCD.c       ****                 write_LCD(lcd,button[27][x],16,x+15,1,0xFFFF,'Y');   //Nombre de boton Producto 2  
 1302              		.loc 1 202 0 discriminator 3
 1303 0846 FB7B     		ldrb	r3, [r7, #15]	@ zero_extendqisi2
 1304 0848 644A     		ldr	r2, .L249
 1305 084a 1344     		add	r3, r3, r2
 1306 084c 93F8D830 		ldrb	r3, [r3, #216]
 1307 0850 DAB2     		uxtb	r2, r3
 1308 0852 FB7B     		ldrb	r3, [r7, #15]	@ zero_extendqisi2
 1309 0854 9BB2     		uxth	r3, r3
 1310 0856 0F33     		adds	r3, r3, #15
 1311 0858 9CB2     		uxth	r4, r3
 1312 085a F979     		ldrb	r1, [r7, #7]	@ zero_extendqisi2
 1313 085c 0123     		movs	r3, #1
 1314 085e 0093     		str	r3, [sp]
 1315 0860 4FF6FF73 		movw	r3, #65535
 1316 0864 0193     		str	r3, [sp, #4]
 1317 0866 5923     		movs	r3, #89
ARM GAS  C:\Users\PROYEC~1\AppData\Local\Temp\ccMsBWpv.s 			page 28


 1318 0868 0293     		str	r3, [sp, #8]
 1319 086a 0846     		mov	r0, r1
 1320 086c 1146     		mov	r1, r2
 1321 086e 1022     		movs	r2, #16
 1322 0870 2346     		mov	r3, r4
 1323 0872 FFF7FEFF 		bl	write_LCD
 203:.\LCD.c       ****                 write_LCD(lcd,button[28][x],22,x+15,1,0xFFFF,'Y');   //Nombre de boton Producto 3
 1324              		.loc 1 203 0 discriminator 3
 1325 0876 FB7B     		ldrb	r3, [r7, #15]	@ zero_extendqisi2
 1326 0878 584A     		ldr	r2, .L249
 1327 087a 1344     		add	r3, r3, r2
 1328 087c 93F8E030 		ldrb	r3, [r3, #224]
 1329 0880 DAB2     		uxtb	r2, r3
 1330 0882 FB7B     		ldrb	r3, [r7, #15]	@ zero_extendqisi2
 1331 0884 9BB2     		uxth	r3, r3
 1332 0886 0F33     		adds	r3, r3, #15
 1333 0888 9CB2     		uxth	r4, r3
 1334 088a F979     		ldrb	r1, [r7, #7]	@ zero_extendqisi2
 1335 088c 0123     		movs	r3, #1
 1336 088e 0093     		str	r3, [sp]
 1337 0890 4FF6FF73 		movw	r3, #65535
 1338 0894 0193     		str	r3, [sp, #4]
 1339 0896 5923     		movs	r3, #89
 1340 0898 0293     		str	r3, [sp, #8]
 1341 089a 0846     		mov	r0, r1
 1342 089c 1146     		mov	r1, r2
 1343 089e 1622     		movs	r2, #22
 1344 08a0 2346     		mov	r3, r4
 1345 08a2 FFF7FEFF 		bl	write_LCD
 204:.\LCD.c       ****                 write_LCD(lcd,button[29][x],28,x+15,1,0xFFFF,'Y');   //Nombre de boton Producto 4
 1346              		.loc 1 204 0 discriminator 3
 1347 08a6 FB7B     		ldrb	r3, [r7, #15]	@ zero_extendqisi2
 1348 08a8 4C4A     		ldr	r2, .L249
 1349 08aa 1344     		add	r3, r3, r2
 1350 08ac 93F8E830 		ldrb	r3, [r3, #232]
 1351 08b0 DAB2     		uxtb	r2, r3
 1352 08b2 FB7B     		ldrb	r3, [r7, #15]	@ zero_extendqisi2
 1353 08b4 9BB2     		uxth	r3, r3
 1354 08b6 0F33     		adds	r3, r3, #15
 1355 08b8 9CB2     		uxth	r4, r3
 1356 08ba F979     		ldrb	r1, [r7, #7]	@ zero_extendqisi2
 1357 08bc 0123     		movs	r3, #1
 1358 08be 0093     		str	r3, [sp]
 1359 08c0 4FF6FF73 		movw	r3, #65535
 1360 08c4 0193     		str	r3, [sp, #4]
 1361 08c6 5923     		movs	r3, #89
 1362 08c8 0293     		str	r3, [sp, #8]
 1363 08ca 0846     		mov	r0, r1
 1364 08cc 1146     		mov	r1, r2
 1365 08ce 1C22     		movs	r2, #28
 1366 08d0 2346     		mov	r3, r4
 1367 08d2 FFF7FEFF 		bl	write_LCD
 198:.\LCD.c       ****                 write_LCD(lcd,button[24][x],0,x+9,2,0x2110,'Y');   //Nombre de imagen Escoja produc
 1368              		.loc 1 198 0 discriminator 3
 1369 08d6 FB7B     		ldrb	r3, [r7, #15]	@ zero_extendqisi2
 1370 08d8 0133     		adds	r3, r3, #1
 1371 08da FB73     		strb	r3, [r7, #15]
ARM GAS  C:\Users\PROYEC~1\AppData\Local\Temp\ccMsBWpv.s 			page 29


 1372              	.L81:
 198:.\LCD.c       ****                 write_LCD(lcd,button[24][x],0,x+9,2,0x2110,'Y');   //Nombre de imagen Escoja produc
 1373              		.loc 1 198 0 is_stmt 0 discriminator 1
 1374 08dc FB7B     		ldrb	r3, [r7, #15]	@ zero_extendqisi2
 1375 08de 072B     		cmp	r3, #7
 1376 08e0 7FF669AF 		bls	.L82
 205:.\LCD.c       ****             }
 206:.\LCD.c       ****         break;
 1377              		.loc 1 206 0 is_stmt 1
 1378 08e4 02F0AFBC 		b	.L16
 1379              	.L46:
 207:.\LCD.c       ****             
 208:.\LCD.c       ****         case 'U'://Suba la manija
 209:.\LCD.c       ****             for(x=0;x<8;x++){
 1380              		.loc 1 209 0
 1381 08e8 0023     		movs	r3, #0
 1382 08ea FB73     		strb	r3, [r7, #15]
 1383 08ec 32E0     		b	.L83
 1384              	.L84:
 210:.\LCD.c       ****                 write_LCD(lcd,button[30][x],18,x+5,2,0x2110,'Y');   //Nombre de imagen Suba la mani
 1385              		.loc 1 210 0 discriminator 3
 1386 08ee FB7B     		ldrb	r3, [r7, #15]	@ zero_extendqisi2
 1387 08f0 3A4A     		ldr	r2, .L249
 1388 08f2 1344     		add	r3, r3, r2
 1389 08f4 93F8F030 		ldrb	r3, [r3, #240]
 1390 08f8 DAB2     		uxtb	r2, r3
 1391 08fa FB7B     		ldrb	r3, [r7, #15]	@ zero_extendqisi2
 1392 08fc 9BB2     		uxth	r3, r3
 1393 08fe 0533     		adds	r3, r3, #5
 1394 0900 9CB2     		uxth	r4, r3
 1395 0902 F979     		ldrb	r1, [r7, #7]	@ zero_extendqisi2
 1396 0904 0223     		movs	r3, #2
 1397 0906 0093     		str	r3, [sp]
 1398 0908 42F21013 		movw	r3, #8464
 1399 090c 0193     		str	r3, [sp, #4]
 1400 090e 5923     		movs	r3, #89
 1401 0910 0293     		str	r3, [sp, #8]
 1402 0912 0846     		mov	r0, r1
 1403 0914 1146     		mov	r1, r2
 1404 0916 1222     		movs	r2, #18
 1405 0918 2346     		mov	r3, r4
 1406 091a FFF7FEFF 		bl	write_LCD
 211:.\LCD.c       ****                 write_LCD(lcd,button[31][x],22,x+5,2,0x2110,'Y');   //Nombre de imagen Suba la mani
 1407              		.loc 1 211 0 discriminator 3
 1408 091e FB7B     		ldrb	r3, [r7, #15]	@ zero_extendqisi2
 1409 0920 2E4A     		ldr	r2, .L249
 1410 0922 1344     		add	r3, r3, r2
 1411 0924 93F8F830 		ldrb	r3, [r3, #248]
 1412 0928 DAB2     		uxtb	r2, r3
 1413 092a FB7B     		ldrb	r3, [r7, #15]	@ zero_extendqisi2
 1414 092c 9BB2     		uxth	r3, r3
 1415 092e 0533     		adds	r3, r3, #5
 1416 0930 9CB2     		uxth	r4, r3
 1417 0932 F979     		ldrb	r1, [r7, #7]	@ zero_extendqisi2
 1418 0934 0223     		movs	r3, #2
 1419 0936 0093     		str	r3, [sp]
 1420 0938 42F21013 		movw	r3, #8464
ARM GAS  C:\Users\PROYEC~1\AppData\Local\Temp\ccMsBWpv.s 			page 30


 1421 093c 0193     		str	r3, [sp, #4]
 1422 093e 5923     		movs	r3, #89
 1423 0940 0293     		str	r3, [sp, #8]
 1424 0942 0846     		mov	r0, r1
 1425 0944 1146     		mov	r1, r2
 1426 0946 1622     		movs	r2, #22
 1427 0948 2346     		mov	r3, r4
 1428 094a FFF7FEFF 		bl	write_LCD
 209:.\LCD.c       ****                 write_LCD(lcd,button[30][x],18,x+5,2,0x2110,'Y');   //Nombre de imagen Suba la mani
 1429              		.loc 1 209 0 discriminator 3
 1430 094e FB7B     		ldrb	r3, [r7, #15]	@ zero_extendqisi2
 1431 0950 0133     		adds	r3, r3, #1
 1432 0952 FB73     		strb	r3, [r7, #15]
 1433              	.L83:
 209:.\LCD.c       ****                 write_LCD(lcd,button[30][x],18,x+5,2,0x2110,'Y');   //Nombre de imagen Suba la mani
 1434              		.loc 1 209 0 is_stmt 0 discriminator 1
 1435 0954 FB7B     		ldrb	r3, [r7, #15]	@ zero_extendqisi2
 1436 0956 072B     		cmp	r3, #7
 1437 0958 C9D9     		bls	.L84
 212:.\LCD.c       ****             }
 213:.\LCD.c       ****         break;
 1438              		.loc 1 213 0 is_stmt 1
 1439 095a 02F074BC 		b	.L16
 1440              	.L48:
 214:.\LCD.c       ****             
 215:.\LCD.c       ****         case 'W'://Espere 1 momento
 216:.\LCD.c       ****             for(x=0;x<8;x++){
 1441              		.loc 1 216 0
 1442 095e 0023     		movs	r3, #0
 1443 0960 FB73     		strb	r3, [r7, #15]
 1444 0962 32E0     		b	.L85
 1445              	.L86:
 217:.\LCD.c       ****                 write_LCD(lcd,button[32][x],18,x+5,2,0x2110,'Y');   //Nombre de imagen Esperando Re
 1446              		.loc 1 217 0 discriminator 3
 1447 0964 FB7B     		ldrb	r3, [r7, #15]	@ zero_extendqisi2
 1448 0966 1D4A     		ldr	r2, .L249
 1449 0968 1344     		add	r3, r3, r2
 1450 096a 93F80031 		ldrb	r3, [r3, #256]
 1451 096e DAB2     		uxtb	r2, r3
 1452 0970 FB7B     		ldrb	r3, [r7, #15]	@ zero_extendqisi2
 1453 0972 9BB2     		uxth	r3, r3
 1454 0974 0533     		adds	r3, r3, #5
 1455 0976 9CB2     		uxth	r4, r3
 1456 0978 F979     		ldrb	r1, [r7, #7]	@ zero_extendqisi2
 1457 097a 0223     		movs	r3, #2
 1458 097c 0093     		str	r3, [sp]
 1459 097e 42F21013 		movw	r3, #8464
 1460 0982 0193     		str	r3, [sp, #4]
 1461 0984 5923     		movs	r3, #89
 1462 0986 0293     		str	r3, [sp, #8]
 1463 0988 0846     		mov	r0, r1
 1464 098a 1146     		mov	r1, r2
 1465 098c 1222     		movs	r2, #18
 1466 098e 2346     		mov	r3, r4
 1467 0990 FFF7FEFF 		bl	write_LCD
 218:.\LCD.c       ****                 write_LCD(lcd,button[33][x],22,x+5,2,0x2110,'Y');   //Nombre de imagen Esperando Re
 1468              		.loc 1 218 0 discriminator 3
ARM GAS  C:\Users\PROYEC~1\AppData\Local\Temp\ccMsBWpv.s 			page 31


 1469 0994 FB7B     		ldrb	r3, [r7, #15]	@ zero_extendqisi2
 1470 0996 114A     		ldr	r2, .L249
 1471 0998 1344     		add	r3, r3, r2
 1472 099a 93F80831 		ldrb	r3, [r3, #264]
 1473 099e DAB2     		uxtb	r2, r3
 1474 09a0 FB7B     		ldrb	r3, [r7, #15]	@ zero_extendqisi2
 1475 09a2 9BB2     		uxth	r3, r3
 1476 09a4 0533     		adds	r3, r3, #5
 1477 09a6 9CB2     		uxth	r4, r3
 1478 09a8 F979     		ldrb	r1, [r7, #7]	@ zero_extendqisi2
 1479 09aa 0223     		movs	r3, #2
 1480 09ac 0093     		str	r3, [sp]
 1481 09ae 42F21013 		movw	r3, #8464
 1482 09b2 0193     		str	r3, [sp, #4]
 1483 09b4 5923     		movs	r3, #89
 1484 09b6 0293     		str	r3, [sp, #8]
 1485 09b8 0846     		mov	r0, r1
 1486 09ba 1146     		mov	r1, r2
 1487 09bc 1622     		movs	r2, #22
 1488 09be 2346     		mov	r3, r4
 1489 09c0 FFF7FEFF 		bl	write_LCD
 216:.\LCD.c       ****                 write_LCD(lcd,button[32][x],18,x+5,2,0x2110,'Y');   //Nombre de imagen Esperando Re
 1490              		.loc 1 216 0 discriminator 3
 1491 09c4 FB7B     		ldrb	r3, [r7, #15]	@ zero_extendqisi2
 1492 09c6 0133     		adds	r3, r3, #1
 1493 09c8 FB73     		strb	r3, [r7, #15]
 1494              	.L85:
 216:.\LCD.c       ****                 write_LCD(lcd,button[32][x],18,x+5,2,0x2110,'Y');   //Nombre de imagen Esperando Re
 1495              		.loc 1 216 0 is_stmt 0 discriminator 1
 1496 09ca FB7B     		ldrb	r3, [r7, #15]	@ zero_extendqisi2
 1497 09cc 072B     		cmp	r3, #7
 1498 09ce C9D9     		bls	.L86
 219:.\LCD.c       ****             }
 220:.\LCD.c       ****         break;
 1499              		.loc 1 220 0 is_stmt 1
 1500 09d0 02F039BC 		b	.L16
 1501              	.L36:
 221:.\LCD.c       ****           
 222:.\LCD.c       ****         case 'E'://Error de sistema
 223:.\LCD.c       ****             for(x=0;x<8;x++){
 1502              		.loc 1 223 0
 1503 09d4 0023     		movs	r3, #0
 1504 09d6 FB73     		strb	r3, [r7, #15]
 1505 09d8 35E0     		b	.L87
 1506              	.L250:
 1507 09da 00BF     		.align	2
 1508              	.L249:
 1509 09dc 00000000 		.word	button
 1510              	.L88:
 224:.\LCD.c       ****                 write_LCD(lcd,button[34][x],1,x+3,3,0x2110,'Y');   //Nombre de imagen Error de sist
 1511              		.loc 1 224 0 discriminator 3
 1512 09e0 FB7B     		ldrb	r3, [r7, #15]	@ zero_extendqisi2
 1513 09e2 BE4A     		ldr	r2, .L251
 1514 09e4 1344     		add	r3, r3, r2
 1515 09e6 93F81031 		ldrb	r3, [r3, #272]
 1516 09ea DAB2     		uxtb	r2, r3
 1517 09ec FB7B     		ldrb	r3, [r7, #15]	@ zero_extendqisi2
ARM GAS  C:\Users\PROYEC~1\AppData\Local\Temp\ccMsBWpv.s 			page 32


 1518 09ee 9BB2     		uxth	r3, r3
 1519 09f0 0333     		adds	r3, r3, #3
 1520 09f2 9CB2     		uxth	r4, r3
 1521 09f4 F979     		ldrb	r1, [r7, #7]	@ zero_extendqisi2
 1522 09f6 0323     		movs	r3, #3
 1523 09f8 0093     		str	r3, [sp]
 1524 09fa 42F21013 		movw	r3, #8464
 1525 09fe 0193     		str	r3, [sp, #4]
 1526 0a00 5923     		movs	r3, #89
 1527 0a02 0293     		str	r3, [sp, #8]
 1528 0a04 0846     		mov	r0, r1
 1529 0a06 1146     		mov	r1, r2
 1530 0a08 0122     		movs	r2, #1
 1531 0a0a 2346     		mov	r3, r4
 1532 0a0c FFF7FEFF 		bl	write_LCD
 225:.\LCD.c       ****                 write_LCD(lcd,button[35][x],7,x+3,3,0x2110,'Y');   //Nombre de imagen Error de sist
 1533              		.loc 1 225 0 discriminator 3
 1534 0a10 FB7B     		ldrb	r3, [r7, #15]	@ zero_extendqisi2
 1535 0a12 B24A     		ldr	r2, .L251
 1536 0a14 1344     		add	r3, r3, r2
 1537 0a16 93F81831 		ldrb	r3, [r3, #280]
 1538 0a1a DAB2     		uxtb	r2, r3
 1539 0a1c FB7B     		ldrb	r3, [r7, #15]	@ zero_extendqisi2
 1540 0a1e 9BB2     		uxth	r3, r3
 1541 0a20 0333     		adds	r3, r3, #3
 1542 0a22 9CB2     		uxth	r4, r3
 1543 0a24 F979     		ldrb	r1, [r7, #7]	@ zero_extendqisi2
 1544 0a26 0323     		movs	r3, #3
 1545 0a28 0093     		str	r3, [sp]
 1546 0a2a 42F21013 		movw	r3, #8464
 1547 0a2e 0193     		str	r3, [sp, #4]
 1548 0a30 5923     		movs	r3, #89
 1549 0a32 0293     		str	r3, [sp, #8]
 1550 0a34 0846     		mov	r0, r1
 1551 0a36 1146     		mov	r1, r2
 1552 0a38 0722     		movs	r2, #7
 1553 0a3a 2346     		mov	r3, r4
 1554 0a3c FFF7FEFF 		bl	write_LCD
 223:.\LCD.c       ****                 write_LCD(lcd,button[34][x],1,x+3,3,0x2110,'Y');   //Nombre de imagen Error de sist
 1555              		.loc 1 223 0 discriminator 3
 1556 0a40 FB7B     		ldrb	r3, [r7, #15]	@ zero_extendqisi2
 1557 0a42 0133     		adds	r3, r3, #1
 1558 0a44 FB73     		strb	r3, [r7, #15]
 1559              	.L87:
 223:.\LCD.c       ****                 write_LCD(lcd,button[34][x],1,x+3,3,0x2110,'Y');   //Nombre de imagen Error de sist
 1560              		.loc 1 223 0 is_stmt 0 discriminator 1
 1561 0a46 FB7B     		ldrb	r3, [r7, #15]	@ zero_extendqisi2
 1562 0a48 072B     		cmp	r3, #7
 1563 0a4a C9D9     		bls	.L88
 226:.\LCD.c       ****             }
 227:.\LCD.c       ****         break;
 1564              		.loc 1 227 0 is_stmt 1
 1565 0a4c 02F0FBBB 		b	.L16
 1566              	.L45:
 228:.\LCD.c       ****             
 229:.\LCD.c       ****         case 'T'://Tanqueando
 230:.\LCD.c       ****             for(x=0;x<8;x++){
ARM GAS  C:\Users\PROYEC~1\AppData\Local\Temp\ccMsBWpv.s 			page 33


 1567              		.loc 1 230 0
 1568 0a50 0023     		movs	r3, #0
 1569 0a52 FB73     		strb	r3, [r7, #15]
 1570 0a54 4AE0     		b	.L89
 1571              	.L90:
 231:.\LCD.c       ****                 write_LCD(lcd,button[36][x],16,x+3,3,0x2110,'Y');   //Nombre de imagen Tanqueando R
 1572              		.loc 1 231 0 discriminator 3
 1573 0a56 FB7B     		ldrb	r3, [r7, #15]	@ zero_extendqisi2
 1574 0a58 A04A     		ldr	r2, .L251
 1575 0a5a 1344     		add	r3, r3, r2
 1576 0a5c 93F82031 		ldrb	r3, [r3, #288]
 1577 0a60 DAB2     		uxtb	r2, r3
 1578 0a62 FB7B     		ldrb	r3, [r7, #15]	@ zero_extendqisi2
 1579 0a64 9BB2     		uxth	r3, r3
 1580 0a66 0333     		adds	r3, r3, #3
 1581 0a68 9CB2     		uxth	r4, r3
 1582 0a6a F979     		ldrb	r1, [r7, #7]	@ zero_extendqisi2
 1583 0a6c 0323     		movs	r3, #3
 1584 0a6e 0093     		str	r3, [sp]
 1585 0a70 42F21013 		movw	r3, #8464
 1586 0a74 0193     		str	r3, [sp, #4]
 1587 0a76 5923     		movs	r3, #89
 1588 0a78 0293     		str	r3, [sp, #8]
 1589 0a7a 0846     		mov	r0, r1
 1590 0a7c 1146     		mov	r1, r2
 1591 0a7e 1022     		movs	r2, #16
 1592 0a80 2346     		mov	r3, r4
 1593 0a82 FFF7FEFF 		bl	write_LCD
 232:.\LCD.c       ****                 write_LCD(lcd,button[37][x],22,x+3,3,0x2110,'Y');   //Nombre de imagen Tanqueando R
 1594              		.loc 1 232 0 discriminator 3
 1595 0a86 FB7B     		ldrb	r3, [r7, #15]	@ zero_extendqisi2
 1596 0a88 944A     		ldr	r2, .L251
 1597 0a8a 1344     		add	r3, r3, r2
 1598 0a8c 93F82831 		ldrb	r3, [r3, #296]
 1599 0a90 DAB2     		uxtb	r2, r3
 1600 0a92 FB7B     		ldrb	r3, [r7, #15]	@ zero_extendqisi2
 1601 0a94 9BB2     		uxth	r3, r3
 1602 0a96 0333     		adds	r3, r3, #3
 1603 0a98 9CB2     		uxth	r4, r3
 1604 0a9a F979     		ldrb	r1, [r7, #7]	@ zero_extendqisi2
 1605 0a9c 0323     		movs	r3, #3
 1606 0a9e 0093     		str	r3, [sp]
 1607 0aa0 42F21013 		movw	r3, #8464
 1608 0aa4 0193     		str	r3, [sp, #4]
 1609 0aa6 5923     		movs	r3, #89
 1610 0aa8 0293     		str	r3, [sp, #8]
 1611 0aaa 0846     		mov	r0, r1
 1612 0aac 1146     		mov	r1, r2
 1613 0aae 1622     		movs	r2, #22
 1614 0ab0 2346     		mov	r3, r4
 1615 0ab2 FFF7FEFF 		bl	write_LCD
 233:.\LCD.c       ****                 write_LCD(lcd,button[71][x],2,x+3,0,0xD000,'Y');   //Nombre de boton preset
 1616              		.loc 1 233 0 discriminator 3
 1617 0ab6 FB7B     		ldrb	r3, [r7, #15]	@ zero_extendqisi2
 1618 0ab8 884A     		ldr	r2, .L251
 1619 0aba 1344     		add	r3, r3, r2
 1620 0abc 93F83832 		ldrb	r3, [r3, #568]
ARM GAS  C:\Users\PROYEC~1\AppData\Local\Temp\ccMsBWpv.s 			page 34


 1621 0ac0 DAB2     		uxtb	r2, r3
 1622 0ac2 FB7B     		ldrb	r3, [r7, #15]	@ zero_extendqisi2
 1623 0ac4 9BB2     		uxth	r3, r3
 1624 0ac6 0333     		adds	r3, r3, #3
 1625 0ac8 9CB2     		uxth	r4, r3
 1626 0aca F979     		ldrb	r1, [r7, #7]	@ zero_extendqisi2
 1627 0acc 0023     		movs	r3, #0
 1628 0ace 0093     		str	r3, [sp]
 1629 0ad0 4FF45043 		mov	r3, #53248
 1630 0ad4 0193     		str	r3, [sp, #4]
 1631 0ad6 5923     		movs	r3, #89
 1632 0ad8 0293     		str	r3, [sp, #8]
 1633 0ada 0846     		mov	r0, r1
 1634 0adc 1146     		mov	r1, r2
 1635 0ade 0222     		movs	r2, #2
 1636 0ae0 2346     		mov	r3, r4
 1637 0ae2 FFF7FEFF 		bl	write_LCD
 230:.\LCD.c       ****                 write_LCD(lcd,button[36][x],16,x+3,3,0x2110,'Y');   //Nombre de imagen Tanqueando R
 1638              		.loc 1 230 0 discriminator 3
 1639 0ae6 FB7B     		ldrb	r3, [r7, #15]	@ zero_extendqisi2
 1640 0ae8 0133     		adds	r3, r3, #1
 1641 0aea FB73     		strb	r3, [r7, #15]
 1642              	.L89:
 230:.\LCD.c       ****                 write_LCD(lcd,button[36][x],16,x+3,3,0x2110,'Y');   //Nombre de imagen Tanqueando R
 1643              		.loc 1 230 0 is_stmt 0 discriminator 1
 1644 0aec FB7B     		ldrb	r3, [r7, #15]	@ zero_extendqisi2
 1645 0aee 072B     		cmp	r3, #7
 1646 0af0 B1D9     		bls	.L90
 234:.\LCD.c       ****             }
 235:.\LCD.c       ****             if(lcd==1){
 1647              		.loc 1 235 0 is_stmt 1
 1648 0af2 FB79     		ldrb	r3, [r7, #7]	@ zero_extendqisi2
 1649 0af4 012B     		cmp	r3, #1
 1650 0af6 40F0B581 		bne	.L91
 236:.\LCD.c       ****                 switch (bufferLCD1.presetType[1]){
 1651              		.loc 1 236 0
 1652 0afa 794B     		ldr	r3, .L251+4
 1653 0afc 93F86330 		ldrb	r3, [r3, #99]	@ zero_extendqisi2
 1654 0b00 313B     		subs	r3, r3, #49
 1655 0b02 252B     		cmp	r3, #37
 1656 0b04 00F27A81 		bhi	.L92
 1657 0b08 01A2     		adr	r2, .L94
 1658 0b0a 52F823F0 		ldr	pc, [r2, r3, lsl #2]
 1659 0b0e 00BF     		.p2align 2
 1660              	.L94:
 1661 0b10 E90C0000 		.word	.L93+1
 1662 0b14 450D0000 		.word	.L95+1
 1663 0b18 A10D0000 		.word	.L96+1
 1664 0b1c FD0D0000 		.word	.L92+1
 1665 0b20 FD0D0000 		.word	.L92+1
 1666 0b24 FD0D0000 		.word	.L92+1
 1667 0b28 FD0D0000 		.word	.L92+1
 1668 0b2c FD0D0000 		.word	.L92+1
 1669 0b30 FD0D0000 		.word	.L92+1
 1670 0b34 FD0D0000 		.word	.L92+1
 1671 0b38 FD0D0000 		.word	.L92+1
 1672 0b3c FD0D0000 		.word	.L92+1
ARM GAS  C:\Users\PROYEC~1\AppData\Local\Temp\ccMsBWpv.s 			page 35


 1673 0b40 FD0D0000 		.word	.L92+1
 1674 0b44 FD0D0000 		.word	.L92+1
 1675 0b48 FD0D0000 		.word	.L92+1
 1676 0b4c FD0D0000 		.word	.L92+1
 1677 0b50 FD0D0000 		.word	.L92+1
 1678 0b54 FD0D0000 		.word	.L92+1
 1679 0b58 FD0D0000 		.word	.L92+1
 1680 0b5c A90B0000 		.word	.L97+1
 1681 0b60 FD0D0000 		.word	.L92+1
 1682 0b64 750C0000 		.word	.L98+1
 1683 0b68 FD0D0000 		.word	.L92+1
 1684 0b6c FD0D0000 		.word	.L92+1
 1685 0b70 FD0D0000 		.word	.L92+1
 1686 0b74 FD0D0000 		.word	.L92+1
 1687 0b78 FD0D0000 		.word	.L92+1
 1688 0b7c FD0D0000 		.word	.L92+1
 1689 0b80 FD0D0000 		.word	.L92+1
 1690 0b84 FD0D0000 		.word	.L92+1
 1691 0b88 FD0D0000 		.word	.L92+1
 1692 0b8c FD0D0000 		.word	.L92+1
 1693 0b90 FD0D0000 		.word	.L92+1
 1694 0b94 FD0D0000 		.word	.L92+1
 1695 0b98 FD0D0000 		.word	.L92+1
 1696 0b9c FD0D0000 		.word	.L92+1
 1697 0ba0 FD0D0000 		.word	.L92+1
 1698 0ba4 0F0C0000 		.word	.L99+1
 1699              		.p2align 1
 1700              	.L97:
 237:.\LCD.c       ****                     case 'D':
 238:.\LCD.c       ****                         for(x=0;x<8;x++){
 1701              		.loc 1 238 0
 1702 0ba8 0023     		movs	r3, #0
 1703 0baa FB73     		strb	r3, [r7, #15]
 1704 0bac 1AE0     		b	.L100
 1705              	.L101:
 239:.\LCD.c       ****                             write_LCD(lcd,button[14][x],2,x+12,0,0x2110,'Y');   //Nombre de boton D
 1706              		.loc 1 239 0 discriminator 3
 1707 0bae FB7B     		ldrb	r3, [r7, #15]	@ zero_extendqisi2
 1708 0bb0 4A4A     		ldr	r2, .L251
 1709 0bb2 1344     		add	r3, r3, r2
 1710 0bb4 93F87030 		ldrb	r3, [r3, #112]
 1711 0bb8 DAB2     		uxtb	r2, r3
 1712 0bba FB7B     		ldrb	r3, [r7, #15]	@ zero_extendqisi2
 1713 0bbc 9BB2     		uxth	r3, r3
 1714 0bbe 0C33     		adds	r3, r3, #12
 1715 0bc0 9CB2     		uxth	r4, r3
 1716 0bc2 F979     		ldrb	r1, [r7, #7]	@ zero_extendqisi2
 1717 0bc4 0023     		movs	r3, #0
 1718 0bc6 0093     		str	r3, [sp]
 1719 0bc8 42F21013 		movw	r3, #8464
 1720 0bcc 0193     		str	r3, [sp, #4]
 1721 0bce 5923     		movs	r3, #89
 1722 0bd0 0293     		str	r3, [sp, #8]
 1723 0bd2 0846     		mov	r0, r1
 1724 0bd4 1146     		mov	r1, r2
 1725 0bd6 0222     		movs	r2, #2
 1726 0bd8 2346     		mov	r3, r4
ARM GAS  C:\Users\PROYEC~1\AppData\Local\Temp\ccMsBWpv.s 			page 36


 1727 0bda FFF7FEFF 		bl	write_LCD
 238:.\LCD.c       ****                             write_LCD(lcd,button[14][x],2,x+12,0,0x2110,'Y');   //Nombre de boton D
 1728              		.loc 1 238 0 discriminator 3
 1729 0bde FB7B     		ldrb	r3, [r7, #15]	@ zero_extendqisi2
 1730 0be0 0133     		adds	r3, r3, #1
 1731 0be2 FB73     		strb	r3, [r7, #15]
 1732              	.L100:
 238:.\LCD.c       ****                             write_LCD(lcd,button[14][x],2,x+12,0,0x2110,'Y');   //Nombre de boton D
 1733              		.loc 1 238 0 is_stmt 0 discriminator 1
 1734 0be4 FB7B     		ldrb	r3, [r7, #15]	@ zero_extendqisi2
 1735 0be6 072B     		cmp	r3, #7
 1736 0be8 E1D9     		bls	.L101
 240:.\LCD.c       ****                         }
 241:.\LCD.c       ****                         write_LCD(lcd,symbols[0],4,2,1,0xD000,'Y');   //Simbolo de dinero
 1737              		.loc 1 241 0 is_stmt 1
 1738 0bea 3E4B     		ldr	r3, .L251+8
 1739 0bec 1B78     		ldrb	r3, [r3]
 1740 0bee DAB2     		uxtb	r2, r3
 1741 0bf0 F979     		ldrb	r1, [r7, #7]	@ zero_extendqisi2
 1742 0bf2 0123     		movs	r3, #1
 1743 0bf4 0093     		str	r3, [sp]
 1744 0bf6 4FF45043 		mov	r3, #53248
 1745 0bfa 0193     		str	r3, [sp, #4]
 1746 0bfc 5923     		movs	r3, #89
 1747 0bfe 0293     		str	r3, [sp, #8]
 1748 0c00 0846     		mov	r0, r1
 1749 0c02 1146     		mov	r1, r2
 1750 0c04 0422     		movs	r2, #4
 1751 0c06 0223     		movs	r3, #2
 1752 0c08 FFF7FEFF 		bl	write_LCD
 242:.\LCD.c       ****                     break;
 1753              		.loc 1 242 0
 1754 0c0c F6E0     		b	.L92
 1755              	.L99:
 243:.\LCD.c       ****                     
 244:.\LCD.c       ****                     case 'V':
 245:.\LCD.c       ****                         for(x=0;x<8;x++){
 1756              		.loc 1 245 0
 1757 0c0e 0023     		movs	r3, #0
 1758 0c10 FB73     		strb	r3, [r7, #15]
 1759 0c12 1AE0     		b	.L102
 1760              	.L103:
 246:.\LCD.c       ****                             write_LCD(lcd,button[15][x],2,x+12,0,0x2110,'Y');   //Nombre de boton V
 1761              		.loc 1 246 0 discriminator 3
 1762 0c14 FB7B     		ldrb	r3, [r7, #15]	@ zero_extendqisi2
 1763 0c16 314A     		ldr	r2, .L251
 1764 0c18 1344     		add	r3, r3, r2
 1765 0c1a 93F87830 		ldrb	r3, [r3, #120]
 1766 0c1e DAB2     		uxtb	r2, r3
 1767 0c20 FB7B     		ldrb	r3, [r7, #15]	@ zero_extendqisi2
 1768 0c22 9BB2     		uxth	r3, r3
 1769 0c24 0C33     		adds	r3, r3, #12
 1770 0c26 9CB2     		uxth	r4, r3
 1771 0c28 F979     		ldrb	r1, [r7, #7]	@ zero_extendqisi2
 1772 0c2a 0023     		movs	r3, #0
 1773 0c2c 0093     		str	r3, [sp]
 1774 0c2e 42F21013 		movw	r3, #8464
ARM GAS  C:\Users\PROYEC~1\AppData\Local\Temp\ccMsBWpv.s 			page 37


 1775 0c32 0193     		str	r3, [sp, #4]
 1776 0c34 5923     		movs	r3, #89
 1777 0c36 0293     		str	r3, [sp, #8]
 1778 0c38 0846     		mov	r0, r1
 1779 0c3a 1146     		mov	r1, r2
 1780 0c3c 0222     		movs	r2, #2
 1781 0c3e 2346     		mov	r3, r4
 1782 0c40 FFF7FEFF 		bl	write_LCD
 245:.\LCD.c       ****                             write_LCD(lcd,button[15][x],2,x+12,0,0x2110,'Y');   //Nombre de boton V
 1783              		.loc 1 245 0 discriminator 3
 1784 0c44 FB7B     		ldrb	r3, [r7, #15]	@ zero_extendqisi2
 1785 0c46 0133     		adds	r3, r3, #1
 1786 0c48 FB73     		strb	r3, [r7, #15]
 1787              	.L102:
 245:.\LCD.c       ****                             write_LCD(lcd,button[15][x],2,x+12,0,0x2110,'Y');   //Nombre de boton V
 1788              		.loc 1 245 0 is_stmt 0 discriminator 1
 1789 0c4a FB7B     		ldrb	r3, [r7, #15]	@ zero_extendqisi2
 1790 0c4c 072B     		cmp	r3, #7
 1791 0c4e E1D9     		bls	.L103
 247:.\LCD.c       ****                         }
 248:.\LCD.c       ****                         write_LCD(lcd,symbols[1],4,2,1,0xD000,'Y');   //Simbolo de Volumen
 1792              		.loc 1 248 0 is_stmt 1
 1793 0c50 244B     		ldr	r3, .L251+8
 1794 0c52 5B78     		ldrb	r3, [r3, #1]
 1795 0c54 DAB2     		uxtb	r2, r3
 1796 0c56 F979     		ldrb	r1, [r7, #7]	@ zero_extendqisi2
 1797 0c58 0123     		movs	r3, #1
 1798 0c5a 0093     		str	r3, [sp]
 1799 0c5c 4FF45043 		mov	r3, #53248
 1800 0c60 0193     		str	r3, [sp, #4]
 1801 0c62 5923     		movs	r3, #89
 1802 0c64 0293     		str	r3, [sp, #8]
 1803 0c66 0846     		mov	r0, r1
 1804 0c68 1146     		mov	r1, r2
 1805 0c6a 0422     		movs	r2, #4
 1806 0c6c 0223     		movs	r3, #2
 1807 0c6e FFF7FEFF 		bl	write_LCD
 249:.\LCD.c       ****                     break;
 1808              		.loc 1 249 0
 1809 0c72 C3E0     		b	.L92
 1810              	.L98:
 250:.\LCD.c       ****                         
 251:.\LCD.c       ****                     case 'F':
 252:.\LCD.c       ****                         for(x=0;x<8;x++){
 1811              		.loc 1 252 0
 1812 0c74 0023     		movs	r3, #0
 1813 0c76 FB73     		strb	r3, [r7, #15]
 1814 0c78 1AE0     		b	.L104
 1815              	.L105:
 253:.\LCD.c       ****                             write_LCD(lcd,button[16][x],2,x+12,0,0x2110,'Y');   //Nombre de boton L
 1816              		.loc 1 253 0 discriminator 3
 1817 0c7a FB7B     		ldrb	r3, [r7, #15]	@ zero_extendqisi2
 1818 0c7c 174A     		ldr	r2, .L251
 1819 0c7e 1344     		add	r3, r3, r2
 1820 0c80 93F88030 		ldrb	r3, [r3, #128]
 1821 0c84 DAB2     		uxtb	r2, r3
 1822 0c86 FB7B     		ldrb	r3, [r7, #15]	@ zero_extendqisi2
ARM GAS  C:\Users\PROYEC~1\AppData\Local\Temp\ccMsBWpv.s 			page 38


 1823 0c88 9BB2     		uxth	r3, r3
 1824 0c8a 0C33     		adds	r3, r3, #12
 1825 0c8c 9CB2     		uxth	r4, r3
 1826 0c8e F979     		ldrb	r1, [r7, #7]	@ zero_extendqisi2
 1827 0c90 0023     		movs	r3, #0
 1828 0c92 0093     		str	r3, [sp]
 1829 0c94 42F21013 		movw	r3, #8464
 1830 0c98 0193     		str	r3, [sp, #4]
 1831 0c9a 5923     		movs	r3, #89
 1832 0c9c 0293     		str	r3, [sp, #8]
 1833 0c9e 0846     		mov	r0, r1
 1834 0ca0 1146     		mov	r1, r2
 1835 0ca2 0222     		movs	r2, #2
 1836 0ca4 2346     		mov	r3, r4
 1837 0ca6 FFF7FEFF 		bl	write_LCD
 252:.\LCD.c       ****                             write_LCD(lcd,button[16][x],2,x+12,0,0x2110,'Y');   //Nombre de boton L
 1838              		.loc 1 252 0 discriminator 3
 1839 0caa FB7B     		ldrb	r3, [r7, #15]	@ zero_extendqisi2
 1840 0cac 0133     		adds	r3, r3, #1
 1841 0cae FB73     		strb	r3, [r7, #15]
 1842              	.L104:
 252:.\LCD.c       ****                             write_LCD(lcd,button[16][x],2,x+12,0,0x2110,'Y');   //Nombre de boton L
 1843              		.loc 1 252 0 is_stmt 0 discriminator 1
 1844 0cb0 FB7B     		ldrb	r3, [r7, #15]	@ zero_extendqisi2
 1845 0cb2 072B     		cmp	r3, #7
 1846 0cb4 E1D9     		bls	.L105
 254:.\LCD.c       ****                         }
 255:.\LCD.c       ****                         write_LCD(lcd,symbols[0],4,2,1,0xD000,'Y');   //Simbolo de dinero
 1847              		.loc 1 255 0 is_stmt 1
 1848 0cb6 0B4B     		ldr	r3, .L251+8
 1849 0cb8 1B78     		ldrb	r3, [r3]
 1850 0cba DAB2     		uxtb	r2, r3
 1851 0cbc F979     		ldrb	r1, [r7, #7]	@ zero_extendqisi2
 1852 0cbe 0123     		movs	r3, #1
 1853 0cc0 0093     		str	r3, [sp]
 1854 0cc2 4FF45043 		mov	r3, #53248
 1855 0cc6 0193     		str	r3, [sp, #4]
 1856 0cc8 5923     		movs	r3, #89
 1857 0cca 0293     		str	r3, [sp, #8]
 1858 0ccc 0846     		mov	r0, r1
 1859 0cce 1146     		mov	r1, r2
 1860 0cd0 0422     		movs	r2, #4
 1861 0cd2 0223     		movs	r3, #2
 1862 0cd4 FFF7FEFF 		bl	write_LCD
 256:.\LCD.c       ****                     break;
 1863              		.loc 1 256 0
 1864 0cd8 90E0     		b	.L92
 1865              	.L252:
 1866 0cda 00BF     		.align	2
 1867              	.L251:
 1868 0cdc 00000000 		.word	button
 1869 0ce0 00000000 		.word	bufferLCD1
 1870 0ce4 00000000 		.word	symbols
 1871              	.L93:
 257:.\LCD.c       ****                     
 258:.\LCD.c       ****                     case '1':
 259:.\LCD.c       ****                         write_LCD(lcd,'P',2,12,0,0x2110,'Y');   //Nombre de boton P1
ARM GAS  C:\Users\PROYEC~1\AppData\Local\Temp\ccMsBWpv.s 			page 39


 1872              		.loc 1 259 0
 1873 0ce8 FA79     		ldrb	r2, [r7, #7]	@ zero_extendqisi2
 1874 0cea 0023     		movs	r3, #0
 1875 0cec 0093     		str	r3, [sp]
 1876 0cee 42F21013 		movw	r3, #8464
 1877 0cf2 0193     		str	r3, [sp, #4]
 1878 0cf4 5923     		movs	r3, #89
 1879 0cf6 0293     		str	r3, [sp, #8]
 1880 0cf8 1046     		mov	r0, r2
 1881 0cfa 5021     		movs	r1, #80
 1882 0cfc 0222     		movs	r2, #2
 1883 0cfe 0C23     		movs	r3, #12
 1884 0d00 FFF7FEFF 		bl	write_LCD
 260:.\LCD.c       ****                         write_LCD(lcd,'1',2,13,0,0x2110,'Y');   //Nombre de boton P1
 1885              		.loc 1 260 0
 1886 0d04 FA79     		ldrb	r2, [r7, #7]	@ zero_extendqisi2
 1887 0d06 0023     		movs	r3, #0
 1888 0d08 0093     		str	r3, [sp]
 1889 0d0a 42F21013 		movw	r3, #8464
 1890 0d0e 0193     		str	r3, [sp, #4]
 1891 0d10 5923     		movs	r3, #89
 1892 0d12 0293     		str	r3, [sp, #8]
 1893 0d14 1046     		mov	r0, r2
 1894 0d16 3121     		movs	r1, #49
 1895 0d18 0222     		movs	r2, #2
 1896 0d1a 0D23     		movs	r3, #13
 1897 0d1c FFF7FEFF 		bl	write_LCD
 261:.\LCD.c       ****                         write_LCD(lcd,symbols[0],4,2,1,0xD000,'Y');   //Simbolo de dinero
 1898              		.loc 1 261 0
 1899 0d20 B04B     		ldr	r3, .L253
 1900 0d22 1B78     		ldrb	r3, [r3]
 1901 0d24 DAB2     		uxtb	r2, r3
 1902 0d26 F979     		ldrb	r1, [r7, #7]	@ zero_extendqisi2
 1903 0d28 0123     		movs	r3, #1
 1904 0d2a 0093     		str	r3, [sp]
 1905 0d2c 4FF45043 		mov	r3, #53248
 1906 0d30 0193     		str	r3, [sp, #4]
 1907 0d32 5923     		movs	r3, #89
 1908 0d34 0293     		str	r3, [sp, #8]
 1909 0d36 0846     		mov	r0, r1
 1910 0d38 1146     		mov	r1, r2
 1911 0d3a 0422     		movs	r2, #4
 1912 0d3c 0223     		movs	r3, #2
 1913 0d3e FFF7FEFF 		bl	write_LCD
 262:.\LCD.c       ****                     break;
 1914              		.loc 1 262 0
 1915 0d42 5BE0     		b	.L92
 1916              	.L95:
 263:.\LCD.c       ****                     
 264:.\LCD.c       ****                     case '2':
 265:.\LCD.c       ****                         write_LCD(lcd,'P',2,12,0,0x2110,'Y');   //Nombre de boton P1
 1917              		.loc 1 265 0
 1918 0d44 FA79     		ldrb	r2, [r7, #7]	@ zero_extendqisi2
 1919 0d46 0023     		movs	r3, #0
 1920 0d48 0093     		str	r3, [sp]
 1921 0d4a 42F21013 		movw	r3, #8464
 1922 0d4e 0193     		str	r3, [sp, #4]
ARM GAS  C:\Users\PROYEC~1\AppData\Local\Temp\ccMsBWpv.s 			page 40


 1923 0d50 5923     		movs	r3, #89
 1924 0d52 0293     		str	r3, [sp, #8]
 1925 0d54 1046     		mov	r0, r2
 1926 0d56 5021     		movs	r1, #80
 1927 0d58 0222     		movs	r2, #2
 1928 0d5a 0C23     		movs	r3, #12
 1929 0d5c FFF7FEFF 		bl	write_LCD
 266:.\LCD.c       ****                         write_LCD(lcd,'2',2,13,0,0x2110,'Y');   //Nombre de boton P1
 1930              		.loc 1 266 0
 1931 0d60 FA79     		ldrb	r2, [r7, #7]	@ zero_extendqisi2
 1932 0d62 0023     		movs	r3, #0
 1933 0d64 0093     		str	r3, [sp]
 1934 0d66 42F21013 		movw	r3, #8464
 1935 0d6a 0193     		str	r3, [sp, #4]
 1936 0d6c 5923     		movs	r3, #89
 1937 0d6e 0293     		str	r3, [sp, #8]
 1938 0d70 1046     		mov	r0, r2
 1939 0d72 3221     		movs	r1, #50
 1940 0d74 0222     		movs	r2, #2
 1941 0d76 0D23     		movs	r3, #13
 1942 0d78 FFF7FEFF 		bl	write_LCD
 267:.\LCD.c       ****                         write_LCD(lcd,symbols[0],4,2,1,0xD000,'Y');   //Simbolo de dinero
 1943              		.loc 1 267 0
 1944 0d7c 994B     		ldr	r3, .L253
 1945 0d7e 1B78     		ldrb	r3, [r3]
 1946 0d80 DAB2     		uxtb	r2, r3
 1947 0d82 F979     		ldrb	r1, [r7, #7]	@ zero_extendqisi2
 1948 0d84 0123     		movs	r3, #1
 1949 0d86 0093     		str	r3, [sp]
 1950 0d88 4FF45043 		mov	r3, #53248
 1951 0d8c 0193     		str	r3, [sp, #4]
 1952 0d8e 5923     		movs	r3, #89
 1953 0d90 0293     		str	r3, [sp, #8]
 1954 0d92 0846     		mov	r0, r1
 1955 0d94 1146     		mov	r1, r2
 1956 0d96 0422     		movs	r2, #4
 1957 0d98 0223     		movs	r3, #2
 1958 0d9a FFF7FEFF 		bl	write_LCD
 268:.\LCD.c       ****                     break;
 1959              		.loc 1 268 0
 1960 0d9e 2DE0     		b	.L92
 1961              	.L96:
 269:.\LCD.c       ****                     
 270:.\LCD.c       ****                     case '3':
 271:.\LCD.c       ****                         write_LCD(lcd,'P',2,12,0,0x2110,'Y');   //Nombre de boton P1
 1962              		.loc 1 271 0
 1963 0da0 FA79     		ldrb	r2, [r7, #7]	@ zero_extendqisi2
 1964 0da2 0023     		movs	r3, #0
 1965 0da4 0093     		str	r3, [sp]
 1966 0da6 42F21013 		movw	r3, #8464
 1967 0daa 0193     		str	r3, [sp, #4]
 1968 0dac 5923     		movs	r3, #89
 1969 0dae 0293     		str	r3, [sp, #8]
 1970 0db0 1046     		mov	r0, r2
 1971 0db2 5021     		movs	r1, #80
 1972 0db4 0222     		movs	r2, #2
 1973 0db6 0C23     		movs	r3, #12
ARM GAS  C:\Users\PROYEC~1\AppData\Local\Temp\ccMsBWpv.s 			page 41


 1974 0db8 FFF7FEFF 		bl	write_LCD
 272:.\LCD.c       ****                         write_LCD(lcd,'3',2,13,0,0x2110,'Y');   //Nombre de boton P1
 1975              		.loc 1 272 0
 1976 0dbc FA79     		ldrb	r2, [r7, #7]	@ zero_extendqisi2
 1977 0dbe 0023     		movs	r3, #0
 1978 0dc0 0093     		str	r3, [sp]
 1979 0dc2 42F21013 		movw	r3, #8464
 1980 0dc6 0193     		str	r3, [sp, #4]
 1981 0dc8 5923     		movs	r3, #89
 1982 0dca 0293     		str	r3, [sp, #8]
 1983 0dcc 1046     		mov	r0, r2
 1984 0dce 3321     		movs	r1, #51
 1985 0dd0 0222     		movs	r2, #2
 1986 0dd2 0D23     		movs	r3, #13
 1987 0dd4 FFF7FEFF 		bl	write_LCD
 273:.\LCD.c       ****                         write_LCD(lcd,symbols[0],4,2,1,0xD000,'Y');   //Simbolo de dinero
 1988              		.loc 1 273 0
 1989 0dd8 824B     		ldr	r3, .L253
 1990 0dda 1B78     		ldrb	r3, [r3]
 1991 0ddc DAB2     		uxtb	r2, r3
 1992 0dde F979     		ldrb	r1, [r7, #7]	@ zero_extendqisi2
 1993 0de0 0123     		movs	r3, #1
 1994 0de2 0093     		str	r3, [sp]
 1995 0de4 4FF45043 		mov	r3, #53248
 1996 0de8 0193     		str	r3, [sp, #4]
 1997 0dea 5923     		movs	r3, #89
 1998 0dec 0293     		str	r3, [sp, #8]
 1999 0dee 0846     		mov	r0, r1
 2000 0df0 1146     		mov	r1, r2
 2001 0df2 0422     		movs	r2, #4
 2002 0df4 0223     		movs	r3, #2
 2003 0df6 FFF7FEFF 		bl	write_LCD
 274:.\LCD.c       ****                     break;
 2004              		.loc 1 274 0
 2005 0dfa 00BF     		nop
 2006              	.L92:
 275:.\LCD.c       ****                 }
 276:.\LCD.c       ****                 flag=0;
 2007              		.loc 1 276 0
 2008 0dfc 0023     		movs	r3, #0
 2009 0dfe 7B73     		strb	r3, [r7, #13]
 277:.\LCD.c       ****                 for(x=1;x<=bufferLCD1.presetValue[1][0];x++){
 2010              		.loc 1 277 0
 2011 0e00 0123     		movs	r3, #1
 2012 0e02 FB73     		strb	r3, [r7, #15]
 2013 0e04 26E0     		b	.L106
 2014              	.L109:
 278:.\LCD.c       ****                     if(bufferLCD1.presetValue[1][x]=='0' && flag==0){
 2015              		.loc 1 278 0
 2016 0e06 FB7B     		ldrb	r3, [r7, #15]	@ zero_extendqisi2
 2017 0e08 774A     		ldr	r2, .L253+4
 2018 0e0a 1344     		add	r3, r3, r2
 2019 0e0c 93F86E30 		ldrb	r3, [r3, #110]	@ zero_extendqisi2
 2020 0e10 302B     		cmp	r3, #48
 2021 0e12 03D1     		bne	.L107
 2022              		.loc 1 278 0 is_stmt 0 discriminator 1
 2023 0e14 7B7B     		ldrb	r3, [r7, #13]	@ zero_extendqisi2
ARM GAS  C:\Users\PROYEC~1\AppData\Local\Temp\ccMsBWpv.s 			page 42


 2024 0e16 002B     		cmp	r3, #0
 2025 0e18 00D1     		bne	.L107
 2026              		.loc 1 278 0
 2027 0e1a 18E0     		b	.L108
 2028              	.L107:
 279:.\LCD.c       ****                     }else{
 280:.\LCD.c       ****                         write_LCD(lcd,bufferLCD1.presetValue[1][x],4,x+2,1,0x2110,'Y');
 2029              		.loc 1 280 0 is_stmt 1
 2030 0e1c FB7B     		ldrb	r3, [r7, #15]	@ zero_extendqisi2
 2031 0e1e 724A     		ldr	r2, .L253+4
 2032 0e20 1344     		add	r3, r3, r2
 2033 0e22 93F86E20 		ldrb	r2, [r3, #110]	@ zero_extendqisi2
 2034 0e26 FB7B     		ldrb	r3, [r7, #15]	@ zero_extendqisi2
 2035 0e28 9BB2     		uxth	r3, r3
 2036 0e2a 0233     		adds	r3, r3, #2
 2037 0e2c 9CB2     		uxth	r4, r3
 2038 0e2e F979     		ldrb	r1, [r7, #7]	@ zero_extendqisi2
 2039 0e30 0123     		movs	r3, #1
 2040 0e32 0093     		str	r3, [sp]
 2041 0e34 42F21013 		movw	r3, #8464
 2042 0e38 0193     		str	r3, [sp, #4]
 2043 0e3a 5923     		movs	r3, #89
 2044 0e3c 0293     		str	r3, [sp, #8]
 2045 0e3e 0846     		mov	r0, r1
 2046 0e40 1146     		mov	r1, r2
 2047 0e42 0422     		movs	r2, #4
 2048 0e44 2346     		mov	r3, r4
 2049 0e46 FFF7FEFF 		bl	write_LCD
 281:.\LCD.c       ****                         flag=1;
 2050              		.loc 1 281 0
 2051 0e4a 0123     		movs	r3, #1
 2052 0e4c 7B73     		strb	r3, [r7, #13]
 2053              	.L108:
 277:.\LCD.c       ****                     if(bufferLCD1.presetValue[1][x]=='0' && flag==0){
 2054              		.loc 1 277 0 discriminator 2
 2055 0e4e FB7B     		ldrb	r3, [r7, #15]	@ zero_extendqisi2
 2056 0e50 0133     		adds	r3, r3, #1
 2057 0e52 FB73     		strb	r3, [r7, #15]
 2058              	.L106:
 277:.\LCD.c       ****                     if(bufferLCD1.presetValue[1][x]=='0' && flag==0){
 2059              		.loc 1 277 0 is_stmt 0 discriminator 1
 2060 0e54 644B     		ldr	r3, .L253+4
 2061 0e56 93F86E30 		ldrb	r3, [r3, #110]	@ zero_extendqisi2
 2062 0e5a FA7B     		ldrb	r2, [r7, #15]	@ zero_extendqisi2
 2063 0e5c 9A42     		cmp	r2, r3
 2064 0e5e D2D9     		bls	.L109
 282:.\LCD.c       ****                     }
 283:.\LCD.c       ****                 }
 284:.\LCD.c       ****             }else{
 285:.\LCD.c       ****                 switch (bufferLCD2.presetType[1]){
 286:.\LCD.c       ****                     case 'D':
 287:.\LCD.c       ****                         for(x=0;x<8;x++){
 288:.\LCD.c       ****                             write_LCD(lcd,button[14][x],2,x+12,0,0x2110,'Y');   //Nombre de boton D
 289:.\LCD.c       ****                         }
 290:.\LCD.c       ****                         write_LCD(lcd,symbols[0],4,2,1,0xD000,'Y');   //Simbolo de dinero
 291:.\LCD.c       ****                     break;
 292:.\LCD.c       ****                     
ARM GAS  C:\Users\PROYEC~1\AppData\Local\Temp\ccMsBWpv.s 			page 43


 293:.\LCD.c       ****                     case 'V':
 294:.\LCD.c       ****                         for(x=0;x<8;x++){
 295:.\LCD.c       ****                             write_LCD(lcd,button[15][x],2,x+12,0,0x2110,'Y');   //Nombre de boton V
 296:.\LCD.c       ****                         }
 297:.\LCD.c       ****                         write_LCD(lcd,symbols[1],4,2,1,0xD000,'Y');   //Simbolo de Volumen
 298:.\LCD.c       ****                     break;
 299:.\LCD.c       ****                         
 300:.\LCD.c       ****                     case 'F':
 301:.\LCD.c       ****                         for(x=0;x<8;x++){
 302:.\LCD.c       ****                             write_LCD(lcd,button[16][x],2,x+12,0,0x2110,'Y');   //Nombre de boton L
 303:.\LCD.c       ****                         }
 304:.\LCD.c       ****                         write_LCD(lcd,symbols[0],4,2,1,0xD000,'Y');   //Simbolo de dinero
 305:.\LCD.c       ****                     break;
 306:.\LCD.c       ****                     
 307:.\LCD.c       ****                     case '1':
 308:.\LCD.c       ****                         write_LCD(lcd,'P',2,12,0,0x2110,'Y');   //Nombre de boton P1
 309:.\LCD.c       ****                         write_LCD(lcd,'1',2,13,0,0x2110,'Y');   //Nombre de boton P1
 310:.\LCD.c       ****                         write_LCD(lcd,symbols[0],4,2,1,0xD000,'Y');   //Simbolo de dinero
 311:.\LCD.c       ****                     break;
 312:.\LCD.c       ****                     
 313:.\LCD.c       ****                     case '2':
 314:.\LCD.c       ****                         write_LCD(lcd,'P',2,12,0,0x2110,'Y');   //Nombre de boton P1
 315:.\LCD.c       ****                         write_LCD(lcd,'2',2,13,0,0x2110,'Y');   //Nombre de boton P1
 316:.\LCD.c       ****                         write_LCD(lcd,symbols[0],4,2,1,0xD000,'Y');   //Simbolo de dinero
 317:.\LCD.c       ****                     break;
 318:.\LCD.c       ****                     
 319:.\LCD.c       ****                     case '3':
 320:.\LCD.c       ****                         write_LCD(lcd,'P',2,12,0,0x2110,'Y');   //Nombre de boton P1
 321:.\LCD.c       ****                         write_LCD(lcd,'3',2,13,0,0x2110,'Y');   //Nombre de boton P1
 322:.\LCD.c       ****                         write_LCD(lcd,symbols[0],4,2,1,0xD000,'Y');   //Simbolo de dinero
 323:.\LCD.c       ****                     break;
 324:.\LCD.c       ****                 }
 325:.\LCD.c       ****                 flag=0;
 326:.\LCD.c       ****                 for(x=1;x<=bufferLCD2.presetValue[1][0];x++){
 327:.\LCD.c       ****                     if(bufferLCD2.presetValue[1][x]=='0' && flag==0){
 328:.\LCD.c       ****                     }else{
 329:.\LCD.c       ****                         write_LCD(lcd,bufferLCD2.presetValue[1][x],4,x+2,1,0x2110,'Y');
 330:.\LCD.c       ****                         flag=1;
 331:.\LCD.c       ****                     }
 332:.\LCD.c       ****                 }
 333:.\LCD.c       ****             }
 334:.\LCD.c       ****         break;
 2065              		.loc 1 334 0 is_stmt 1
 2066 0e60 02F0F1B9 		b	.L16
 2067              	.L91:
 285:.\LCD.c       ****                     case 'D':
 2068              		.loc 1 285 0
 2069 0e64 614B     		ldr	r3, .L253+8
 2070 0e66 93F86330 		ldrb	r3, [r3, #99]	@ zero_extendqisi2
 2071 0e6a 313B     		subs	r3, r3, #49
 2072 0e6c 252B     		cmp	r3, #37
 2073 0e6e 00F27B81 		bhi	.L111
 2074 0e72 01A2     		adr	r2, .L113
 2075 0e74 52F823F0 		ldr	pc, [r2, r3, lsl #2]
 2076              		.p2align 2
 2077              	.L113:
 2078 0e78 55100000 		.word	.L112+1
ARM GAS  C:\Users\PROYEC~1\AppData\Local\Temp\ccMsBWpv.s 			page 44


 2079 0e7c B1100000 		.word	.L114+1
 2080 0e80 0D110000 		.word	.L115+1
 2081 0e84 69110000 		.word	.L111+1
 2082 0e88 69110000 		.word	.L111+1
 2083 0e8c 69110000 		.word	.L111+1
 2084 0e90 69110000 		.word	.L111+1
 2085 0e94 69110000 		.word	.L111+1
 2086 0e98 69110000 		.word	.L111+1
 2087 0e9c 69110000 		.word	.L111+1
 2088 0ea0 69110000 		.word	.L111+1
 2089 0ea4 69110000 		.word	.L111+1
 2090 0ea8 69110000 		.word	.L111+1
 2091 0eac 69110000 		.word	.L111+1
 2092 0eb0 69110000 		.word	.L111+1
 2093 0eb4 69110000 		.word	.L111+1
 2094 0eb8 69110000 		.word	.L111+1
 2095 0ebc 69110000 		.word	.L111+1
 2096 0ec0 69110000 		.word	.L111+1
 2097 0ec4 110F0000 		.word	.L116+1
 2098 0ec8 69110000 		.word	.L111+1
 2099 0ecc DD0F0000 		.word	.L117+1
 2100 0ed0 69110000 		.word	.L111+1
 2101 0ed4 69110000 		.word	.L111+1
 2102 0ed8 69110000 		.word	.L111+1
 2103 0edc 69110000 		.word	.L111+1
 2104 0ee0 69110000 		.word	.L111+1
 2105 0ee4 69110000 		.word	.L111+1
 2106 0ee8 69110000 		.word	.L111+1
 2107 0eec 69110000 		.word	.L111+1
 2108 0ef0 69110000 		.word	.L111+1
 2109 0ef4 69110000 		.word	.L111+1
 2110 0ef8 69110000 		.word	.L111+1
 2111 0efc 69110000 		.word	.L111+1
 2112 0f00 69110000 		.word	.L111+1
 2113 0f04 69110000 		.word	.L111+1
 2114 0f08 69110000 		.word	.L111+1
 2115 0f0c 770F0000 		.word	.L118+1
 2116              		.p2align 1
 2117              	.L116:
 287:.\LCD.c       ****                             write_LCD(lcd,button[14][x],2,x+12,0,0x2110,'Y');   //Nombre de boton D
 2118              		.loc 1 287 0
 2119 0f10 0023     		movs	r3, #0
 2120 0f12 FB73     		strb	r3, [r7, #15]
 2121 0f14 1AE0     		b	.L119
 2122              	.L120:
 288:.\LCD.c       ****                         }
 2123              		.loc 1 288 0 discriminator 3
 2124 0f16 FB7B     		ldrb	r3, [r7, #15]	@ zero_extendqisi2
 2125 0f18 354A     		ldr	r2, .L253+12
 2126 0f1a 1344     		add	r3, r3, r2
 2127 0f1c 93F87030 		ldrb	r3, [r3, #112]
 2128 0f20 DAB2     		uxtb	r2, r3
 2129 0f22 FB7B     		ldrb	r3, [r7, #15]	@ zero_extendqisi2
 2130 0f24 9BB2     		uxth	r3, r3
 2131 0f26 0C33     		adds	r3, r3, #12
 2132 0f28 9CB2     		uxth	r4, r3
 2133 0f2a F979     		ldrb	r1, [r7, #7]	@ zero_extendqisi2
ARM GAS  C:\Users\PROYEC~1\AppData\Local\Temp\ccMsBWpv.s 			page 45


 2134 0f2c 0023     		movs	r3, #0
 2135 0f2e 0093     		str	r3, [sp]
 2136 0f30 42F21013 		movw	r3, #8464
 2137 0f34 0193     		str	r3, [sp, #4]
 2138 0f36 5923     		movs	r3, #89
 2139 0f38 0293     		str	r3, [sp, #8]
 2140 0f3a 0846     		mov	r0, r1
 2141 0f3c 1146     		mov	r1, r2
 2142 0f3e 0222     		movs	r2, #2
 2143 0f40 2346     		mov	r3, r4
 2144 0f42 FFF7FEFF 		bl	write_LCD
 287:.\LCD.c       ****                             write_LCD(lcd,button[14][x],2,x+12,0,0x2110,'Y');   //Nombre de boton D
 2145              		.loc 1 287 0 discriminator 3
 2146 0f46 FB7B     		ldrb	r3, [r7, #15]	@ zero_extendqisi2
 2147 0f48 0133     		adds	r3, r3, #1
 2148 0f4a FB73     		strb	r3, [r7, #15]
 2149              	.L119:
 287:.\LCD.c       ****                             write_LCD(lcd,button[14][x],2,x+12,0,0x2110,'Y');   //Nombre de boton D
 2150              		.loc 1 287 0 is_stmt 0 discriminator 1
 2151 0f4c FB7B     		ldrb	r3, [r7, #15]	@ zero_extendqisi2
 2152 0f4e 072B     		cmp	r3, #7
 2153 0f50 E1D9     		bls	.L120
 290:.\LCD.c       ****                     break;
 2154              		.loc 1 290 0 is_stmt 1
 2155 0f52 244B     		ldr	r3, .L253
 2156 0f54 1B78     		ldrb	r3, [r3]
 2157 0f56 DAB2     		uxtb	r2, r3
 2158 0f58 F979     		ldrb	r1, [r7, #7]	@ zero_extendqisi2
 2159 0f5a 0123     		movs	r3, #1
 2160 0f5c 0093     		str	r3, [sp]
 2161 0f5e 4FF45043 		mov	r3, #53248
 2162 0f62 0193     		str	r3, [sp, #4]
 2163 0f64 5923     		movs	r3, #89
 2164 0f66 0293     		str	r3, [sp, #8]
 2165 0f68 0846     		mov	r0, r1
 2166 0f6a 1146     		mov	r1, r2
 2167 0f6c 0422     		movs	r2, #4
 2168 0f6e 0223     		movs	r3, #2
 2169 0f70 FFF7FEFF 		bl	write_LCD
 291:.\LCD.c       ****                     
 2170              		.loc 1 291 0
 2171 0f74 F8E0     		b	.L111
 2172              	.L118:
 294:.\LCD.c       ****                             write_LCD(lcd,button[15][x],2,x+12,0,0x2110,'Y');   //Nombre de boton V
 2173              		.loc 1 294 0
 2174 0f76 0023     		movs	r3, #0
 2175 0f78 FB73     		strb	r3, [r7, #15]
 2176 0f7a 1AE0     		b	.L121
 2177              	.L122:
 295:.\LCD.c       ****                         }
 2178              		.loc 1 295 0 discriminator 3
 2179 0f7c FB7B     		ldrb	r3, [r7, #15]	@ zero_extendqisi2
 2180 0f7e 1C4A     		ldr	r2, .L253+12
 2181 0f80 1344     		add	r3, r3, r2
 2182 0f82 93F87830 		ldrb	r3, [r3, #120]
 2183 0f86 DAB2     		uxtb	r2, r3
 2184 0f88 FB7B     		ldrb	r3, [r7, #15]	@ zero_extendqisi2
ARM GAS  C:\Users\PROYEC~1\AppData\Local\Temp\ccMsBWpv.s 			page 46


 2185 0f8a 9BB2     		uxth	r3, r3
 2186 0f8c 0C33     		adds	r3, r3, #12
 2187 0f8e 9CB2     		uxth	r4, r3
 2188 0f90 F979     		ldrb	r1, [r7, #7]	@ zero_extendqisi2
 2189 0f92 0023     		movs	r3, #0
 2190 0f94 0093     		str	r3, [sp]
 2191 0f96 42F21013 		movw	r3, #8464
 2192 0f9a 0193     		str	r3, [sp, #4]
 2193 0f9c 5923     		movs	r3, #89
 2194 0f9e 0293     		str	r3, [sp, #8]
 2195 0fa0 0846     		mov	r0, r1
 2196 0fa2 1146     		mov	r1, r2
 2197 0fa4 0222     		movs	r2, #2
 2198 0fa6 2346     		mov	r3, r4
 2199 0fa8 FFF7FEFF 		bl	write_LCD
 294:.\LCD.c       ****                             write_LCD(lcd,button[15][x],2,x+12,0,0x2110,'Y');   //Nombre de boton V
 2200              		.loc 1 294 0 discriminator 3
 2201 0fac FB7B     		ldrb	r3, [r7, #15]	@ zero_extendqisi2
 2202 0fae 0133     		adds	r3, r3, #1
 2203 0fb0 FB73     		strb	r3, [r7, #15]
 2204              	.L121:
 294:.\LCD.c       ****                             write_LCD(lcd,button[15][x],2,x+12,0,0x2110,'Y');   //Nombre de boton V
 2205              		.loc 1 294 0 is_stmt 0 discriminator 1
 2206 0fb2 FB7B     		ldrb	r3, [r7, #15]	@ zero_extendqisi2
 2207 0fb4 072B     		cmp	r3, #7
 2208 0fb6 E1D9     		bls	.L122
 297:.\LCD.c       ****                     break;
 2209              		.loc 1 297 0 is_stmt 1
 2210 0fb8 0A4B     		ldr	r3, .L253
 2211 0fba 5B78     		ldrb	r3, [r3, #1]
 2212 0fbc DAB2     		uxtb	r2, r3
 2213 0fbe F979     		ldrb	r1, [r7, #7]	@ zero_extendqisi2
 2214 0fc0 0123     		movs	r3, #1
 2215 0fc2 0093     		str	r3, [sp]
 2216 0fc4 4FF45043 		mov	r3, #53248
 2217 0fc8 0193     		str	r3, [sp, #4]
 2218 0fca 5923     		movs	r3, #89
 2219 0fcc 0293     		str	r3, [sp, #8]
 2220 0fce 0846     		mov	r0, r1
 2221 0fd0 1146     		mov	r1, r2
 2222 0fd2 0422     		movs	r2, #4
 2223 0fd4 0223     		movs	r3, #2
 2224 0fd6 FFF7FEFF 		bl	write_LCD
 298:.\LCD.c       ****                         
 2225              		.loc 1 298 0
 2226 0fda C5E0     		b	.L111
 2227              	.L117:
 301:.\LCD.c       ****                             write_LCD(lcd,button[16][x],2,x+12,0,0x2110,'Y');   //Nombre de boton L
 2228              		.loc 1 301 0
 2229 0fdc 0023     		movs	r3, #0
 2230 0fde FB73     		strb	r3, [r7, #15]
 2231 0fe0 23E0     		b	.L123
 2232              	.L254:
 2233 0fe2 00BF     		.align	2
 2234              	.L253:
 2235 0fe4 00000000 		.word	symbols
 2236 0fe8 00000000 		.word	bufferLCD1
ARM GAS  C:\Users\PROYEC~1\AppData\Local\Temp\ccMsBWpv.s 			page 47


 2237 0fec 00000000 		.word	bufferLCD2
 2238 0ff0 00000000 		.word	button
 2239              	.L124:
 302:.\LCD.c       ****                         }
 2240              		.loc 1 302 0 discriminator 3
 2241 0ff4 FB7B     		ldrb	r3, [r7, #15]	@ zero_extendqisi2
 2242 0ff6 784A     		ldr	r2, .L255
 2243 0ff8 1344     		add	r3, r3, r2
 2244 0ffa 93F88030 		ldrb	r3, [r3, #128]
 2245 0ffe DAB2     		uxtb	r2, r3
 2246 1000 FB7B     		ldrb	r3, [r7, #15]	@ zero_extendqisi2
 2247 1002 9BB2     		uxth	r3, r3
 2248 1004 0C33     		adds	r3, r3, #12
 2249 1006 9CB2     		uxth	r4, r3
 2250 1008 F979     		ldrb	r1, [r7, #7]	@ zero_extendqisi2
 2251 100a 0023     		movs	r3, #0
 2252 100c 0093     		str	r3, [sp]
 2253 100e 42F21013 		movw	r3, #8464
 2254 1012 0193     		str	r3, [sp, #4]
 2255 1014 5923     		movs	r3, #89
 2256 1016 0293     		str	r3, [sp, #8]
 2257 1018 0846     		mov	r0, r1
 2258 101a 1146     		mov	r1, r2
 2259 101c 0222     		movs	r2, #2
 2260 101e 2346     		mov	r3, r4
 2261 1020 FFF7FEFF 		bl	write_LCD
 301:.\LCD.c       ****                             write_LCD(lcd,button[16][x],2,x+12,0,0x2110,'Y');   //Nombre de boton L
 2262              		.loc 1 301 0 discriminator 3
 2263 1024 FB7B     		ldrb	r3, [r7, #15]	@ zero_extendqisi2
 2264 1026 0133     		adds	r3, r3, #1
 2265 1028 FB73     		strb	r3, [r7, #15]
 2266              	.L123:
 301:.\LCD.c       ****                             write_LCD(lcd,button[16][x],2,x+12,0,0x2110,'Y');   //Nombre de boton L
 2267              		.loc 1 301 0 is_stmt 0 discriminator 1
 2268 102a FB7B     		ldrb	r3, [r7, #15]	@ zero_extendqisi2
 2269 102c 072B     		cmp	r3, #7
 2270 102e E1D9     		bls	.L124
 304:.\LCD.c       ****                     break;
 2271              		.loc 1 304 0 is_stmt 1
 2272 1030 6A4B     		ldr	r3, .L255+4
 2273 1032 1B78     		ldrb	r3, [r3]
 2274 1034 DAB2     		uxtb	r2, r3
 2275 1036 F979     		ldrb	r1, [r7, #7]	@ zero_extendqisi2
 2276 1038 0123     		movs	r3, #1
 2277 103a 0093     		str	r3, [sp]
 2278 103c 4FF45043 		mov	r3, #53248
 2279 1040 0193     		str	r3, [sp, #4]
 2280 1042 5923     		movs	r3, #89
 2281 1044 0293     		str	r3, [sp, #8]
 2282 1046 0846     		mov	r0, r1
 2283 1048 1146     		mov	r1, r2
 2284 104a 0422     		movs	r2, #4
 2285 104c 0223     		movs	r3, #2
 2286 104e FFF7FEFF 		bl	write_LCD
 305:.\LCD.c       ****                     
 2287              		.loc 1 305 0
 2288 1052 89E0     		b	.L111
ARM GAS  C:\Users\PROYEC~1\AppData\Local\Temp\ccMsBWpv.s 			page 48


 2289              	.L112:
 308:.\LCD.c       ****                         write_LCD(lcd,'1',2,13,0,0x2110,'Y');   //Nombre de boton P1
 2290              		.loc 1 308 0
 2291 1054 FA79     		ldrb	r2, [r7, #7]	@ zero_extendqisi2
 2292 1056 0023     		movs	r3, #0
 2293 1058 0093     		str	r3, [sp]
 2294 105a 42F21013 		movw	r3, #8464
 2295 105e 0193     		str	r3, [sp, #4]
 2296 1060 5923     		movs	r3, #89
 2297 1062 0293     		str	r3, [sp, #8]
 2298 1064 1046     		mov	r0, r2
 2299 1066 5021     		movs	r1, #80
 2300 1068 0222     		movs	r2, #2
 2301 106a 0C23     		movs	r3, #12
 2302 106c FFF7FEFF 		bl	write_LCD
 309:.\LCD.c       ****                         write_LCD(lcd,symbols[0],4,2,1,0xD000,'Y');   //Simbolo de dinero
 2303              		.loc 1 309 0
 2304 1070 FA79     		ldrb	r2, [r7, #7]	@ zero_extendqisi2
 2305 1072 0023     		movs	r3, #0
 2306 1074 0093     		str	r3, [sp]
 2307 1076 42F21013 		movw	r3, #8464
 2308 107a 0193     		str	r3, [sp, #4]
 2309 107c 5923     		movs	r3, #89
 2310 107e 0293     		str	r3, [sp, #8]
 2311 1080 1046     		mov	r0, r2
 2312 1082 3121     		movs	r1, #49
 2313 1084 0222     		movs	r2, #2
 2314 1086 0D23     		movs	r3, #13
 2315 1088 FFF7FEFF 		bl	write_LCD
 310:.\LCD.c       ****                     break;
 2316              		.loc 1 310 0
 2317 108c 534B     		ldr	r3, .L255+4
 2318 108e 1B78     		ldrb	r3, [r3]
 2319 1090 DAB2     		uxtb	r2, r3
 2320 1092 F979     		ldrb	r1, [r7, #7]	@ zero_extendqisi2
 2321 1094 0123     		movs	r3, #1
 2322 1096 0093     		str	r3, [sp]
 2323 1098 4FF45043 		mov	r3, #53248
 2324 109c 0193     		str	r3, [sp, #4]
 2325 109e 5923     		movs	r3, #89
 2326 10a0 0293     		str	r3, [sp, #8]
 2327 10a2 0846     		mov	r0, r1
 2328 10a4 1146     		mov	r1, r2
 2329 10a6 0422     		movs	r2, #4
 2330 10a8 0223     		movs	r3, #2
 2331 10aa FFF7FEFF 		bl	write_LCD
 311:.\LCD.c       ****                     
 2332              		.loc 1 311 0
 2333 10ae 5BE0     		b	.L111
 2334              	.L114:
 314:.\LCD.c       ****                         write_LCD(lcd,'2',2,13,0,0x2110,'Y');   //Nombre de boton P1
 2335              		.loc 1 314 0
 2336 10b0 FA79     		ldrb	r2, [r7, #7]	@ zero_extendqisi2
 2337 10b2 0023     		movs	r3, #0
 2338 10b4 0093     		str	r3, [sp]
 2339 10b6 42F21013 		movw	r3, #8464
 2340 10ba 0193     		str	r3, [sp, #4]
ARM GAS  C:\Users\PROYEC~1\AppData\Local\Temp\ccMsBWpv.s 			page 49


 2341 10bc 5923     		movs	r3, #89
 2342 10be 0293     		str	r3, [sp, #8]
 2343 10c0 1046     		mov	r0, r2
 2344 10c2 5021     		movs	r1, #80
 2345 10c4 0222     		movs	r2, #2
 2346 10c6 0C23     		movs	r3, #12
 2347 10c8 FFF7FEFF 		bl	write_LCD
 315:.\LCD.c       ****                         write_LCD(lcd,symbols[0],4,2,1,0xD000,'Y');   //Simbolo de dinero
 2348              		.loc 1 315 0
 2349 10cc FA79     		ldrb	r2, [r7, #7]	@ zero_extendqisi2
 2350 10ce 0023     		movs	r3, #0
 2351 10d0 0093     		str	r3, [sp]
 2352 10d2 42F21013 		movw	r3, #8464
 2353 10d6 0193     		str	r3, [sp, #4]
 2354 10d8 5923     		movs	r3, #89
 2355 10da 0293     		str	r3, [sp, #8]
 2356 10dc 1046     		mov	r0, r2
 2357 10de 3221     		movs	r1, #50
 2358 10e0 0222     		movs	r2, #2
 2359 10e2 0D23     		movs	r3, #13
 2360 10e4 FFF7FEFF 		bl	write_LCD
 316:.\LCD.c       ****                     break;
 2361              		.loc 1 316 0
 2362 10e8 3C4B     		ldr	r3, .L255+4
 2363 10ea 1B78     		ldrb	r3, [r3]
 2364 10ec DAB2     		uxtb	r2, r3
 2365 10ee F979     		ldrb	r1, [r7, #7]	@ zero_extendqisi2
 2366 10f0 0123     		movs	r3, #1
 2367 10f2 0093     		str	r3, [sp]
 2368 10f4 4FF45043 		mov	r3, #53248
 2369 10f8 0193     		str	r3, [sp, #4]
 2370 10fa 5923     		movs	r3, #89
 2371 10fc 0293     		str	r3, [sp, #8]
 2372 10fe 0846     		mov	r0, r1
 2373 1100 1146     		mov	r1, r2
 2374 1102 0422     		movs	r2, #4
 2375 1104 0223     		movs	r3, #2
 2376 1106 FFF7FEFF 		bl	write_LCD
 317:.\LCD.c       ****                     
 2377              		.loc 1 317 0
 2378 110a 2DE0     		b	.L111
 2379              	.L115:
 320:.\LCD.c       ****                         write_LCD(lcd,'3',2,13,0,0x2110,'Y');   //Nombre de boton P1
 2380              		.loc 1 320 0
 2381 110c FA79     		ldrb	r2, [r7, #7]	@ zero_extendqisi2
 2382 110e 0023     		movs	r3, #0
 2383 1110 0093     		str	r3, [sp]
 2384 1112 42F21013 		movw	r3, #8464
 2385 1116 0193     		str	r3, [sp, #4]
 2386 1118 5923     		movs	r3, #89
 2387 111a 0293     		str	r3, [sp, #8]
 2388 111c 1046     		mov	r0, r2
 2389 111e 5021     		movs	r1, #80
 2390 1120 0222     		movs	r2, #2
 2391 1122 0C23     		movs	r3, #12
 2392 1124 FFF7FEFF 		bl	write_LCD
 321:.\LCD.c       ****                         write_LCD(lcd,symbols[0],4,2,1,0xD000,'Y');   //Simbolo de dinero
ARM GAS  C:\Users\PROYEC~1\AppData\Local\Temp\ccMsBWpv.s 			page 50


 2393              		.loc 1 321 0
 2394 1128 FA79     		ldrb	r2, [r7, #7]	@ zero_extendqisi2
 2395 112a 0023     		movs	r3, #0
 2396 112c 0093     		str	r3, [sp]
 2397 112e 42F21013 		movw	r3, #8464
 2398 1132 0193     		str	r3, [sp, #4]
 2399 1134 5923     		movs	r3, #89
 2400 1136 0293     		str	r3, [sp, #8]
 2401 1138 1046     		mov	r0, r2
 2402 113a 3321     		movs	r1, #51
 2403 113c 0222     		movs	r2, #2
 2404 113e 0D23     		movs	r3, #13
 2405 1140 FFF7FEFF 		bl	write_LCD
 322:.\LCD.c       ****                     break;
 2406              		.loc 1 322 0
 2407 1144 254B     		ldr	r3, .L255+4
 2408 1146 1B78     		ldrb	r3, [r3]
 2409 1148 DAB2     		uxtb	r2, r3
 2410 114a F979     		ldrb	r1, [r7, #7]	@ zero_extendqisi2
 2411 114c 0123     		movs	r3, #1
 2412 114e 0093     		str	r3, [sp]
 2413 1150 4FF45043 		mov	r3, #53248
 2414 1154 0193     		str	r3, [sp, #4]
 2415 1156 5923     		movs	r3, #89
 2416 1158 0293     		str	r3, [sp, #8]
 2417 115a 0846     		mov	r0, r1
 2418 115c 1146     		mov	r1, r2
 2419 115e 0422     		movs	r2, #4
 2420 1160 0223     		movs	r3, #2
 2421 1162 FFF7FEFF 		bl	write_LCD
 323:.\LCD.c       ****                 }
 2422              		.loc 1 323 0
 2423 1166 00BF     		nop
 2424              	.L111:
 325:.\LCD.c       ****                 for(x=1;x<=bufferLCD2.presetValue[1][0];x++){
 2425              		.loc 1 325 0
 2426 1168 0023     		movs	r3, #0
 2427 116a 7B73     		strb	r3, [r7, #13]
 326:.\LCD.c       ****                     if(bufferLCD2.presetValue[1][x]=='0' && flag==0){
 2428              		.loc 1 326 0
 2429 116c 0123     		movs	r3, #1
 2430 116e FB73     		strb	r3, [r7, #15]
 2431 1170 26E0     		b	.L125
 2432              	.L128:
 327:.\LCD.c       ****                     }else{
 2433              		.loc 1 327 0
 2434 1172 FB7B     		ldrb	r3, [r7, #15]	@ zero_extendqisi2
 2435 1174 1A4A     		ldr	r2, .L255+8
 2436 1176 1344     		add	r3, r3, r2
 2437 1178 93F86E30 		ldrb	r3, [r3, #110]	@ zero_extendqisi2
 2438 117c 302B     		cmp	r3, #48
 2439 117e 03D1     		bne	.L126
 327:.\LCD.c       ****                     }else{
 2440              		.loc 1 327 0 is_stmt 0 discriminator 1
 2441 1180 7B7B     		ldrb	r3, [r7, #13]	@ zero_extendqisi2
 2442 1182 002B     		cmp	r3, #0
 2443 1184 00D1     		bne	.L126
ARM GAS  C:\Users\PROYEC~1\AppData\Local\Temp\ccMsBWpv.s 			page 51


 327:.\LCD.c       ****                     }else{
 2444              		.loc 1 327 0
 2445 1186 18E0     		b	.L127
 2446              	.L126:
 329:.\LCD.c       ****                         flag=1;
 2447              		.loc 1 329 0 is_stmt 1
 2448 1188 FB7B     		ldrb	r3, [r7, #15]	@ zero_extendqisi2
 2449 118a 154A     		ldr	r2, .L255+8
 2450 118c 1344     		add	r3, r3, r2
 2451 118e 93F86E20 		ldrb	r2, [r3, #110]	@ zero_extendqisi2
 2452 1192 FB7B     		ldrb	r3, [r7, #15]	@ zero_extendqisi2
 2453 1194 9BB2     		uxth	r3, r3
 2454 1196 0233     		adds	r3, r3, #2
 2455 1198 9CB2     		uxth	r4, r3
 2456 119a F979     		ldrb	r1, [r7, #7]	@ zero_extendqisi2
 2457 119c 0123     		movs	r3, #1
 2458 119e 0093     		str	r3, [sp]
 2459 11a0 42F21013 		movw	r3, #8464
 2460 11a4 0193     		str	r3, [sp, #4]
 2461 11a6 5923     		movs	r3, #89
 2462 11a8 0293     		str	r3, [sp, #8]
 2463 11aa 0846     		mov	r0, r1
 2464 11ac 1146     		mov	r1, r2
 2465 11ae 0422     		movs	r2, #4
 2466 11b0 2346     		mov	r3, r4
 2467 11b2 FFF7FEFF 		bl	write_LCD
 330:.\LCD.c       ****                     }
 2468              		.loc 1 330 0
 2469 11b6 0123     		movs	r3, #1
 2470 11b8 7B73     		strb	r3, [r7, #13]
 2471              	.L127:
 326:.\LCD.c       ****                     if(bufferLCD2.presetValue[1][x]=='0' && flag==0){
 2472              		.loc 1 326 0 discriminator 2
 2473 11ba FB7B     		ldrb	r3, [r7, #15]	@ zero_extendqisi2
 2474 11bc 0133     		adds	r3, r3, #1
 2475 11be FB73     		strb	r3, [r7, #15]
 2476              	.L125:
 326:.\LCD.c       ****                     if(bufferLCD2.presetValue[1][x]=='0' && flag==0){
 2477              		.loc 1 326 0 is_stmt 0 discriminator 1
 2478 11c0 074B     		ldr	r3, .L255+8
 2479 11c2 93F86E30 		ldrb	r3, [r3, #110]	@ zero_extendqisi2
 2480 11c6 FA7B     		ldrb	r2, [r7, #15]	@ zero_extendqisi2
 2481 11c8 9A42     		cmp	r2, r3
 2482 11ca D2D9     		bls	.L128
 2483              		.loc 1 334 0 is_stmt 1 discriminator 1
 2484 11cc 02F03BB8 		b	.L16
 2485              	.L59:
 335:.\LCD.c       ****             
 336:.\LCD.c       ****         case 't'://Tanqueando con datos
 337:.\LCD.c       ****             for(x=0;x<8;x++){
 2486              		.loc 1 337 0
 2487 11d0 0023     		movs	r3, #0
 2488 11d2 FB73     		strb	r3, [r7, #15]
 2489 11d4 99E0     		b	.L129
 2490              	.L256:
 2491 11d6 00BF     		.align	2
 2492              	.L255:
ARM GAS  C:\Users\PROYEC~1\AppData\Local\Temp\ccMsBWpv.s 			page 52


 2493 11d8 00000000 		.word	button
 2494 11dc 00000000 		.word	symbols
 2495 11e0 00000000 		.word	bufferLCD2
 2496              	.L130:
 338:.\LCD.c       ****                 write_LCD(lcd,button[71][x],2,x+31,0,0xD000,'Y');   //Nombre de boton preset
 2497              		.loc 1 338 0 discriminator 3
 2498 11e4 FB7B     		ldrb	r3, [r7, #15]	@ zero_extendqisi2
 2499 11e6 AD4A     		ldr	r2, .L257
 2500 11e8 1344     		add	r3, r3, r2
 2501 11ea 93F83832 		ldrb	r3, [r3, #568]
 2502 11ee DAB2     		uxtb	r2, r3
 2503 11f0 FB7B     		ldrb	r3, [r7, #15]	@ zero_extendqisi2
 2504 11f2 9BB2     		uxth	r3, r3
 2505 11f4 1F33     		adds	r3, r3, #31
 2506 11f6 9CB2     		uxth	r4, r3
 2507 11f8 F979     		ldrb	r1, [r7, #7]	@ zero_extendqisi2
 2508 11fa 0023     		movs	r3, #0
 2509 11fc 0093     		str	r3, [sp]
 2510 11fe 4FF45043 		mov	r3, #53248
 2511 1202 0193     		str	r3, [sp, #4]
 2512 1204 5923     		movs	r3, #89
 2513 1206 0293     		str	r3, [sp, #8]
 2514 1208 0846     		mov	r0, r1
 2515 120a 1146     		mov	r1, r2
 2516 120c 0222     		movs	r2, #2
 2517 120e 2346     		mov	r3, r4
 2518 1210 FFF7FEFF 		bl	write_LCD
 339:.\LCD.c       ****                 write_LCD(lcd,button[36][x],1,x+1,2,0x2110,'Y');   //Nombre de imagen Tanqueando Re
 2519              		.loc 1 339 0 discriminator 3
 2520 1214 FB7B     		ldrb	r3, [r7, #15]	@ zero_extendqisi2
 2521 1216 A14A     		ldr	r2, .L257
 2522 1218 1344     		add	r3, r3, r2
 2523 121a 93F82031 		ldrb	r3, [r3, #288]
 2524 121e DAB2     		uxtb	r2, r3
 2525 1220 FB7B     		ldrb	r3, [r7, #15]	@ zero_extendqisi2
 2526 1222 9BB2     		uxth	r3, r3
 2527 1224 0133     		adds	r3, r3, #1
 2528 1226 9CB2     		uxth	r4, r3
 2529 1228 F979     		ldrb	r1, [r7, #7]	@ zero_extendqisi2
 2530 122a 0223     		movs	r3, #2
 2531 122c 0093     		str	r3, [sp]
 2532 122e 42F21013 		movw	r3, #8464
 2533 1232 0193     		str	r3, [sp, #4]
 2534 1234 5923     		movs	r3, #89
 2535 1236 0293     		str	r3, [sp, #8]
 2536 1238 0846     		mov	r0, r1
 2537 123a 1146     		mov	r1, r2
 2538 123c 0122     		movs	r2, #1
 2539 123e 2346     		mov	r3, r4
 2540 1240 FFF7FEFF 		bl	write_LCD
 340:.\LCD.c       ****                 write_LCD(lcd,button[37][x],5,x+1,2,0x2110,'Y');   //Nombre de imagen Tanqueando Re
 2541              		.loc 1 340 0 discriminator 3
 2542 1244 FB7B     		ldrb	r3, [r7, #15]	@ zero_extendqisi2
 2543 1246 954A     		ldr	r2, .L257
 2544 1248 1344     		add	r3, r3, r2
 2545 124a 93F82831 		ldrb	r3, [r3, #296]
 2546 124e DAB2     		uxtb	r2, r3
ARM GAS  C:\Users\PROYEC~1\AppData\Local\Temp\ccMsBWpv.s 			page 53


 2547 1250 FB7B     		ldrb	r3, [r7, #15]	@ zero_extendqisi2
 2548 1252 9BB2     		uxth	r3, r3
 2549 1254 0133     		adds	r3, r3, #1
 2550 1256 9CB2     		uxth	r4, r3
 2551 1258 F979     		ldrb	r1, [r7, #7]	@ zero_extendqisi2
 2552 125a 0223     		movs	r3, #2
 2553 125c 0093     		str	r3, [sp]
 2554 125e 42F21013 		movw	r3, #8464
 2555 1262 0193     		str	r3, [sp, #4]
 2556 1264 5923     		movs	r3, #89
 2557 1266 0293     		str	r3, [sp, #8]
 2558 1268 0846     		mov	r0, r1
 2559 126a 1146     		mov	r1, r2
 2560 126c 0522     		movs	r2, #5
 2561 126e 2346     		mov	r3, r4
 2562 1270 FFF7FEFF 		bl	write_LCD
 341:.\LCD.c       ****                 write_LCD(lcd,button[39][x],12,x+3,1,0xD000,'Y');   //Nombre de imagen Teclado Plac
 2563              		.loc 1 341 0 discriminator 3
 2564 1274 FB7B     		ldrb	r3, [r7, #15]	@ zero_extendqisi2
 2565 1276 894A     		ldr	r2, .L257
 2566 1278 1344     		add	r3, r3, r2
 2567 127a 93F83831 		ldrb	r3, [r3, #312]
 2568 127e DAB2     		uxtb	r2, r3
 2569 1280 FB7B     		ldrb	r3, [r7, #15]	@ zero_extendqisi2
 2570 1282 9BB2     		uxth	r3, r3
 2571 1284 0333     		adds	r3, r3, #3
 2572 1286 9CB2     		uxth	r4, r3
 2573 1288 F979     		ldrb	r1, [r7, #7]	@ zero_extendqisi2
 2574 128a 0123     		movs	r3, #1
 2575 128c 0093     		str	r3, [sp]
 2576 128e 4FF45043 		mov	r3, #53248
 2577 1292 0193     		str	r3, [sp, #4]
 2578 1294 5923     		movs	r3, #89
 2579 1296 0293     		str	r3, [sp, #8]
 2580 1298 0846     		mov	r0, r1
 2581 129a 1146     		mov	r1, r2
 2582 129c 0C22     		movs	r2, #12
 2583 129e 2346     		mov	r3, r4
 2584 12a0 FFF7FEFF 		bl	write_LCD
 342:.\LCD.c       ****                 write_LCD(lcd,button[41][x],20,x+3,1,0xD000,'Y');   //Nombre de imagen Teclado Kilo
 2585              		.loc 1 342 0 discriminator 3
 2586 12a4 FB7B     		ldrb	r3, [r7, #15]	@ zero_extendqisi2
 2587 12a6 7D4A     		ldr	r2, .L257
 2588 12a8 1344     		add	r3, r3, r2
 2589 12aa 93F84831 		ldrb	r3, [r3, #328]
 2590 12ae DAB2     		uxtb	r2, r3
 2591 12b0 FB7B     		ldrb	r3, [r7, #15]	@ zero_extendqisi2
 2592 12b2 9BB2     		uxth	r3, r3
 2593 12b4 0333     		adds	r3, r3, #3
 2594 12b6 9CB2     		uxth	r4, r3
 2595 12b8 F979     		ldrb	r1, [r7, #7]	@ zero_extendqisi2
 2596 12ba 0123     		movs	r3, #1
 2597 12bc 0093     		str	r3, [sp]
 2598 12be 4FF45043 		mov	r3, #53248
 2599 12c2 0193     		str	r3, [sp, #4]
 2600 12c4 5923     		movs	r3, #89
 2601 12c6 0293     		str	r3, [sp, #8]
ARM GAS  C:\Users\PROYEC~1\AppData\Local\Temp\ccMsBWpv.s 			page 54


 2602 12c8 0846     		mov	r0, r1
 2603 12ca 1146     		mov	r1, r2
 2604 12cc 1422     		movs	r2, #20
 2605 12ce 2346     		mov	r3, r4
 2606 12d0 FFF7FEFF 		bl	write_LCD
 343:.\LCD.c       ****                 write_LCD(lcd,button[43][x],28,x+3,1,0xD000,'Y');   //Nombre de imagen Teclado Nit/
 2607              		.loc 1 343 0 discriminator 3
 2608 12d4 FB7B     		ldrb	r3, [r7, #15]	@ zero_extendqisi2
 2609 12d6 714A     		ldr	r2, .L257
 2610 12d8 1344     		add	r3, r3, r2
 2611 12da 93F85831 		ldrb	r3, [r3, #344]
 2612 12de DAB2     		uxtb	r2, r3
 2613 12e0 FB7B     		ldrb	r3, [r7, #15]	@ zero_extendqisi2
 2614 12e2 9BB2     		uxth	r3, r3
 2615 12e4 0333     		adds	r3, r3, #3
 2616 12e6 9CB2     		uxth	r4, r3
 2617 12e8 F979     		ldrb	r1, [r7, #7]	@ zero_extendqisi2
 2618 12ea 0123     		movs	r3, #1
 2619 12ec 0093     		str	r3, [sp]
 2620 12ee 4FF45043 		mov	r3, #53248
 2621 12f2 0193     		str	r3, [sp, #4]
 2622 12f4 5923     		movs	r3, #89
 2623 12f6 0293     		str	r3, [sp, #8]
 2624 12f8 0846     		mov	r0, r1
 2625 12fa 1146     		mov	r1, r2
 2626 12fc 1C22     		movs	r2, #28
 2627 12fe 2346     		mov	r3, r4
 2628 1300 FFF7FEFF 		bl	write_LCD
 337:.\LCD.c       ****                 write_LCD(lcd,button[71][x],2,x+31,0,0xD000,'Y');   //Nombre de boton preset
 2629              		.loc 1 337 0 discriminator 3
 2630 1304 FB7B     		ldrb	r3, [r7, #15]	@ zero_extendqisi2
 2631 1306 0133     		adds	r3, r3, #1
 2632 1308 FB73     		strb	r3, [r7, #15]
 2633              	.L129:
 337:.\LCD.c       ****                 write_LCD(lcd,button[71][x],2,x+31,0,0xD000,'Y');   //Nombre de boton preset
 2634              		.loc 1 337 0 is_stmt 0 discriminator 1
 2635 130a FB7B     		ldrb	r3, [r7, #15]	@ zero_extendqisi2
 2636 130c 072B     		cmp	r3, #7
 2637 130e 7FF669AF 		bls	.L130
 344:.\LCD.c       ****             }
 345:.\LCD.c       ****             if(lcd==1){
 2638              		.loc 1 345 0 is_stmt 1
 2639 1312 FB79     		ldrb	r3, [r7, #7]	@ zero_extendqisi2
 2640 1314 012B     		cmp	r3, #1
 2641 1316 40F01982 		bne	.L131
 346:.\LCD.c       ****                 for(x=1;x<=bufferLCD1.licenceSale[0];x++){
 2642              		.loc 1 346 0
 2643 131a 0123     		movs	r3, #1
 2644 131c FB73     		strb	r3, [r7, #15]
 2645 131e 18E0     		b	.L132
 2646              	.L133:
 347:.\LCD.c       ****                     write_LCD(lcd,bufferLCD1.licenceSale[x],12,x+13,1,0x0000,'N');   //Placa
 2647              		.loc 1 347 0 discriminator 3
 2648 1320 FB7B     		ldrb	r3, [r7, #15]	@ zero_extendqisi2
 2649 1322 5F4A     		ldr	r2, .L257+4
 2650 1324 1344     		add	r3, r3, r2
 2651 1326 93F8EA20 		ldrb	r2, [r3, #234]	@ zero_extendqisi2
ARM GAS  C:\Users\PROYEC~1\AppData\Local\Temp\ccMsBWpv.s 			page 55


 2652 132a FB7B     		ldrb	r3, [r7, #15]	@ zero_extendqisi2
 2653 132c 9BB2     		uxth	r3, r3
 2654 132e 0D33     		adds	r3, r3, #13
 2655 1330 9CB2     		uxth	r4, r3
 2656 1332 F979     		ldrb	r1, [r7, #7]	@ zero_extendqisi2
 2657 1334 0123     		movs	r3, #1
 2658 1336 0093     		str	r3, [sp]
 2659 1338 0023     		movs	r3, #0
 2660 133a 0193     		str	r3, [sp, #4]
 2661 133c 4E23     		movs	r3, #78
 2662 133e 0293     		str	r3, [sp, #8]
 2663 1340 0846     		mov	r0, r1
 2664 1342 1146     		mov	r1, r2
 2665 1344 0C22     		movs	r2, #12
 2666 1346 2346     		mov	r3, r4
 2667 1348 FFF7FEFF 		bl	write_LCD
 346:.\LCD.c       ****                 for(x=1;x<=bufferLCD1.licenceSale[0];x++){
 2668              		.loc 1 346 0 discriminator 3
 2669 134c FB7B     		ldrb	r3, [r7, #15]	@ zero_extendqisi2
 2670 134e 0133     		adds	r3, r3, #1
 2671 1350 FB73     		strb	r3, [r7, #15]
 2672              	.L132:
 346:.\LCD.c       ****                 for(x=1;x<=bufferLCD1.licenceSale[0];x++){
 2673              		.loc 1 346 0 is_stmt 0 discriminator 1
 2674 1352 534B     		ldr	r3, .L257+4
 2675 1354 93F8EA30 		ldrb	r3, [r3, #234]	@ zero_extendqisi2
 2676 1358 FA7B     		ldrb	r2, [r7, #15]	@ zero_extendqisi2
 2677 135a 9A42     		cmp	r2, r3
 2678 135c E0D9     		bls	.L133
 348:.\LCD.c       ****                 }
 349:.\LCD.c       ****                 for(x=1;x<=bufferLCD1.mileageSale[0];x++){
 2679              		.loc 1 349 0 is_stmt 1
 2680 135e 0123     		movs	r3, #1
 2681 1360 FB73     		strb	r3, [r7, #15]
 2682 1362 18E0     		b	.L134
 2683              	.L135:
 350:.\LCD.c       ****                     write_LCD(lcd,bufferLCD1.mileageSale[x],20,x+13,1,0x0000,'N');   //Kilometraje
 2684              		.loc 1 350 0 discriminator 3
 2685 1364 FB7B     		ldrb	r3, [r7, #15]	@ zero_extendqisi2
 2686 1366 4E4A     		ldr	r2, .L257+4
 2687 1368 1344     		add	r3, r3, r2
 2688 136a 93F8F520 		ldrb	r2, [r3, #245]	@ zero_extendqisi2
 2689 136e FB7B     		ldrb	r3, [r7, #15]	@ zero_extendqisi2
 2690 1370 9BB2     		uxth	r3, r3
 2691 1372 0D33     		adds	r3, r3, #13
 2692 1374 9CB2     		uxth	r4, r3
 2693 1376 F979     		ldrb	r1, [r7, #7]	@ zero_extendqisi2
 2694 1378 0123     		movs	r3, #1
 2695 137a 0093     		str	r3, [sp]
 2696 137c 0023     		movs	r3, #0
 2697 137e 0193     		str	r3, [sp, #4]
 2698 1380 4E23     		movs	r3, #78
 2699 1382 0293     		str	r3, [sp, #8]
 2700 1384 0846     		mov	r0, r1
 2701 1386 1146     		mov	r1, r2
 2702 1388 1422     		movs	r2, #20
 2703 138a 2346     		mov	r3, r4
ARM GAS  C:\Users\PROYEC~1\AppData\Local\Temp\ccMsBWpv.s 			page 56


 2704 138c FFF7FEFF 		bl	write_LCD
 349:.\LCD.c       ****                     write_LCD(lcd,bufferLCD1.mileageSale[x],20,x+13,1,0x0000,'N');   //Kilometraje
 2705              		.loc 1 349 0 discriminator 3
 2706 1390 FB7B     		ldrb	r3, [r7, #15]	@ zero_extendqisi2
 2707 1392 0133     		adds	r3, r3, #1
 2708 1394 FB73     		strb	r3, [r7, #15]
 2709              	.L134:
 349:.\LCD.c       ****                     write_LCD(lcd,bufferLCD1.mileageSale[x],20,x+13,1,0x0000,'N');   //Kilometraje
 2710              		.loc 1 349 0 is_stmt 0 discriminator 1
 2711 1396 424B     		ldr	r3, .L257+4
 2712 1398 93F8F530 		ldrb	r3, [r3, #245]	@ zero_extendqisi2
 2713 139c FA7B     		ldrb	r2, [r7, #15]	@ zero_extendqisi2
 2714 139e 9A42     		cmp	r2, r3
 2715 13a0 E0D9     		bls	.L135
 351:.\LCD.c       ****                 }
 352:.\LCD.c       ****                 for(x=1;x<=bufferLCD1.identySale[0];x++){
 2716              		.loc 1 352 0 is_stmt 1
 2717 13a2 0123     		movs	r3, #1
 2718 13a4 FB73     		strb	r3, [r7, #15]
 2719 13a6 18E0     		b	.L136
 2720              	.L137:
 353:.\LCD.c       ****                     write_LCD(lcd,bufferLCD1.identySale[x],28,x+13,1,0x0000,'N');   //CC/NIT
 2721              		.loc 1 353 0 discriminator 3
 2722 13a8 FB7B     		ldrb	r3, [r7, #15]	@ zero_extendqisi2
 2723 13aa 3D4A     		ldr	r2, .L257+4
 2724 13ac 1344     		add	r3, r3, r2
 2725 13ae 93F80021 		ldrb	r2, [r3, #256]	@ zero_extendqisi2
 2726 13b2 FB7B     		ldrb	r3, [r7, #15]	@ zero_extendqisi2
 2727 13b4 9BB2     		uxth	r3, r3
 2728 13b6 0D33     		adds	r3, r3, #13
 2729 13b8 9CB2     		uxth	r4, r3
 2730 13ba F979     		ldrb	r1, [r7, #7]	@ zero_extendqisi2
 2731 13bc 0123     		movs	r3, #1
 2732 13be 0093     		str	r3, [sp]
 2733 13c0 0023     		movs	r3, #0
 2734 13c2 0193     		str	r3, [sp, #4]
 2735 13c4 4E23     		movs	r3, #78
 2736 13c6 0293     		str	r3, [sp, #8]
 2737 13c8 0846     		mov	r0, r1
 2738 13ca 1146     		mov	r1, r2
 2739 13cc 1C22     		movs	r2, #28
 2740 13ce 2346     		mov	r3, r4
 2741 13d0 FFF7FEFF 		bl	write_LCD
 352:.\LCD.c       ****                     write_LCD(lcd,bufferLCD1.identySale[x],28,x+13,1,0x0000,'N');   //CC/NIT
 2742              		.loc 1 352 0 discriminator 3
 2743 13d4 FB7B     		ldrb	r3, [r7, #15]	@ zero_extendqisi2
 2744 13d6 0133     		adds	r3, r3, #1
 2745 13d8 FB73     		strb	r3, [r7, #15]
 2746              	.L136:
 352:.\LCD.c       ****                     write_LCD(lcd,bufferLCD1.identySale[x],28,x+13,1,0x0000,'N');   //CC/NIT
 2747              		.loc 1 352 0 is_stmt 0 discriminator 1
 2748 13da 314B     		ldr	r3, .L257+4
 2749 13dc 93F80031 		ldrb	r3, [r3, #256]	@ zero_extendqisi2
 2750 13e0 FA7B     		ldrb	r2, [r7, #15]	@ zero_extendqisi2
 2751 13e2 9A42     		cmp	r2, r3
 2752 13e4 E0D9     		bls	.L137
 354:.\LCD.c       ****                 }
ARM GAS  C:\Users\PROYEC~1\AppData\Local\Temp\ccMsBWpv.s 			page 57


 355:.\LCD.c       ****                 switch (bufferLCD1.presetType[1]){
 2753              		.loc 1 355 0 is_stmt 1
 2754 13e6 2E4B     		ldr	r3, .L257+4
 2755 13e8 93F86330 		ldrb	r3, [r3, #99]	@ zero_extendqisi2
 2756 13ec 313B     		subs	r3, r3, #49
 2757 13ee 252B     		cmp	r3, #37
 2758 13f0 00F27881 		bhi	.L138
 2759 13f4 01A2     		adr	r2, .L140
 2760 13f6 52F823F0 		ldr	pc, [r2, r3, lsl #2]
 2761 13fa 00BF     		.p2align 2
 2762              	.L140:
 2763 13fc D1150000 		.word	.L139+1
 2764 1400 2D160000 		.word	.L141+1
 2765 1404 89160000 		.word	.L142+1
 2766 1408 E5160000 		.word	.L138+1
 2767 140c E5160000 		.word	.L138+1
 2768 1410 E5160000 		.word	.L138+1
 2769 1414 E5160000 		.word	.L138+1
 2770 1418 E5160000 		.word	.L138+1
 2771 141c E5160000 		.word	.L138+1
 2772 1420 E5160000 		.word	.L138+1
 2773 1424 E5160000 		.word	.L138+1
 2774 1428 E5160000 		.word	.L138+1
 2775 142c E5160000 		.word	.L138+1
 2776 1430 E5160000 		.word	.L138+1
 2777 1434 E5160000 		.word	.L138+1
 2778 1438 E5160000 		.word	.L138+1
 2779 143c E5160000 		.word	.L138+1
 2780 1440 E5160000 		.word	.L138+1
 2781 1444 E5160000 		.word	.L138+1
 2782 1448 95140000 		.word	.L143+1
 2783 144c E5160000 		.word	.L138+1
 2784 1450 6B150000 		.word	.L144+1
 2785 1454 E5160000 		.word	.L138+1
 2786 1458 E5160000 		.word	.L138+1
 2787 145c E5160000 		.word	.L138+1
 2788 1460 E5160000 		.word	.L138+1
 2789 1464 E5160000 		.word	.L138+1
 2790 1468 E5160000 		.word	.L138+1
 2791 146c E5160000 		.word	.L138+1
 2792 1470 E5160000 		.word	.L138+1
 2793 1474 E5160000 		.word	.L138+1
 2794 1478 E5160000 		.word	.L138+1
 2795 147c E5160000 		.word	.L138+1
 2796 1480 E5160000 		.word	.L138+1
 2797 1484 E5160000 		.word	.L138+1
 2798 1488 E5160000 		.word	.L138+1
 2799 148c E5160000 		.word	.L138+1
 2800 1490 05150000 		.word	.L145+1
 2801              		.p2align 1
 2802              	.L143:
 356:.\LCD.c       ****                     case 'D':
 357:.\LCD.c       ****                         for(x=0;x<8;x++){
 2803              		.loc 1 357 0
 2804 1494 0023     		movs	r3, #0
 2805 1496 FB73     		strb	r3, [r7, #15]
 2806 1498 1FE0     		b	.L146
ARM GAS  C:\Users\PROYEC~1\AppData\Local\Temp\ccMsBWpv.s 			page 58


 2807              	.L258:
 2808 149a 00BF     		.align	2
 2809              	.L257:
 2810 149c 00000000 		.word	button
 2811 14a0 00000000 		.word	bufferLCD1
 2812              	.L147:
 358:.\LCD.c       ****                             write_LCD(lcd,button[14][x],2,x+40,0,0x2110,'Y');   //Nombre de boton D
 2813              		.loc 1 358 0 discriminator 3
 2814 14a4 FB7B     		ldrb	r3, [r7, #15]	@ zero_extendqisi2
 2815 14a6 AB4A     		ldr	r2, .L259
 2816 14a8 1344     		add	r3, r3, r2
 2817 14aa 93F87030 		ldrb	r3, [r3, #112]
 2818 14ae DAB2     		uxtb	r2, r3
 2819 14b0 FB7B     		ldrb	r3, [r7, #15]	@ zero_extendqisi2
 2820 14b2 9BB2     		uxth	r3, r3
 2821 14b4 2833     		adds	r3, r3, #40
 2822 14b6 9CB2     		uxth	r4, r3
 2823 14b8 F979     		ldrb	r1, [r7, #7]	@ zero_extendqisi2
 2824 14ba 0023     		movs	r3, #0
 2825 14bc 0093     		str	r3, [sp]
 2826 14be 42F21013 		movw	r3, #8464
 2827 14c2 0193     		str	r3, [sp, #4]
 2828 14c4 5923     		movs	r3, #89
 2829 14c6 0293     		str	r3, [sp, #8]
 2830 14c8 0846     		mov	r0, r1
 2831 14ca 1146     		mov	r1, r2
 2832 14cc 0222     		movs	r2, #2
 2833 14ce 2346     		mov	r3, r4
 2834 14d0 FFF7FEFF 		bl	write_LCD
 357:.\LCD.c       ****                             write_LCD(lcd,button[14][x],2,x+40,0,0x2110,'Y');   //Nombre de boton D
 2835              		.loc 1 357 0 discriminator 3
 2836 14d4 FB7B     		ldrb	r3, [r7, #15]	@ zero_extendqisi2
 2837 14d6 0133     		adds	r3, r3, #1
 2838 14d8 FB73     		strb	r3, [r7, #15]
 2839              	.L146:
 357:.\LCD.c       ****                             write_LCD(lcd,button[14][x],2,x+40,0,0x2110,'Y');   //Nombre de boton D
 2840              		.loc 1 357 0 is_stmt 0 discriminator 1
 2841 14da FB7B     		ldrb	r3, [r7, #15]	@ zero_extendqisi2
 2842 14dc 072B     		cmp	r3, #7
 2843 14de E1D9     		bls	.L147
 359:.\LCD.c       ****                         }
 360:.\LCD.c       ****                         write_LCD(lcd,symbols[0],4,16,1,0xD000,'Y');   //Simbolo de dinero
 2844              		.loc 1 360 0 is_stmt 1
 2845 14e0 9D4B     		ldr	r3, .L259+4
 2846 14e2 1B78     		ldrb	r3, [r3]
 2847 14e4 DAB2     		uxtb	r2, r3
 2848 14e6 F979     		ldrb	r1, [r7, #7]	@ zero_extendqisi2
 2849 14e8 0123     		movs	r3, #1
 2850 14ea 0093     		str	r3, [sp]
 2851 14ec 4FF45043 		mov	r3, #53248
 2852 14f0 0193     		str	r3, [sp, #4]
 2853 14f2 5923     		movs	r3, #89
 2854 14f4 0293     		str	r3, [sp, #8]
 2855 14f6 0846     		mov	r0, r1
 2856 14f8 1146     		mov	r1, r2
 2857 14fa 0422     		movs	r2, #4
 2858 14fc 1023     		movs	r3, #16
ARM GAS  C:\Users\PROYEC~1\AppData\Local\Temp\ccMsBWpv.s 			page 59


 2859 14fe FFF7FEFF 		bl	write_LCD
 361:.\LCD.c       ****                     break;
 2860              		.loc 1 361 0
 2861 1502 EFE0     		b	.L138
 2862              	.L145:
 362:.\LCD.c       ****                     
 363:.\LCD.c       ****                     case 'V':
 364:.\LCD.c       ****                         for(x=0;x<8;x++){
 2863              		.loc 1 364 0
 2864 1504 0023     		movs	r3, #0
 2865 1506 FB73     		strb	r3, [r7, #15]
 2866 1508 1AE0     		b	.L148
 2867              	.L149:
 365:.\LCD.c       ****                             write_LCD(lcd,button[15][x],2,x+40,0,0x2110,'Y');   //Nombre de boton V
 2868              		.loc 1 365 0 discriminator 3
 2869 150a FB7B     		ldrb	r3, [r7, #15]	@ zero_extendqisi2
 2870 150c 914A     		ldr	r2, .L259
 2871 150e 1344     		add	r3, r3, r2
 2872 1510 93F87830 		ldrb	r3, [r3, #120]
 2873 1514 DAB2     		uxtb	r2, r3
 2874 1516 FB7B     		ldrb	r3, [r7, #15]	@ zero_extendqisi2
 2875 1518 9BB2     		uxth	r3, r3
 2876 151a 2833     		adds	r3, r3, #40
 2877 151c 9CB2     		uxth	r4, r3
 2878 151e F979     		ldrb	r1, [r7, #7]	@ zero_extendqisi2
 2879 1520 0023     		movs	r3, #0
 2880 1522 0093     		str	r3, [sp]
 2881 1524 42F21013 		movw	r3, #8464
 2882 1528 0193     		str	r3, [sp, #4]
 2883 152a 5923     		movs	r3, #89
 2884 152c 0293     		str	r3, [sp, #8]
 2885 152e 0846     		mov	r0, r1
 2886 1530 1146     		mov	r1, r2
 2887 1532 0222     		movs	r2, #2
 2888 1534 2346     		mov	r3, r4
 2889 1536 FFF7FEFF 		bl	write_LCD
 364:.\LCD.c       ****                             write_LCD(lcd,button[15][x],2,x+40,0,0x2110,'Y');   //Nombre de boton V
 2890              		.loc 1 364 0 discriminator 3
 2891 153a FB7B     		ldrb	r3, [r7, #15]	@ zero_extendqisi2
 2892 153c 0133     		adds	r3, r3, #1
 2893 153e FB73     		strb	r3, [r7, #15]
 2894              	.L148:
 364:.\LCD.c       ****                             write_LCD(lcd,button[15][x],2,x+40,0,0x2110,'Y');   //Nombre de boton V
 2895              		.loc 1 364 0 is_stmt 0 discriminator 1
 2896 1540 FB7B     		ldrb	r3, [r7, #15]	@ zero_extendqisi2
 2897 1542 072B     		cmp	r3, #7
 2898 1544 E1D9     		bls	.L149
 366:.\LCD.c       ****                         }
 367:.\LCD.c       ****                         write_LCD(lcd,symbols[1],4,16,1,0xD000,'Y');   //Simbolo de Volumen
 2899              		.loc 1 367 0 is_stmt 1
 2900 1546 844B     		ldr	r3, .L259+4
 2901 1548 5B78     		ldrb	r3, [r3, #1]
 2902 154a DAB2     		uxtb	r2, r3
 2903 154c F979     		ldrb	r1, [r7, #7]	@ zero_extendqisi2
 2904 154e 0123     		movs	r3, #1
 2905 1550 0093     		str	r3, [sp]
 2906 1552 4FF45043 		mov	r3, #53248
ARM GAS  C:\Users\PROYEC~1\AppData\Local\Temp\ccMsBWpv.s 			page 60


 2907 1556 0193     		str	r3, [sp, #4]
 2908 1558 5923     		movs	r3, #89
 2909 155a 0293     		str	r3, [sp, #8]
 2910 155c 0846     		mov	r0, r1
 2911 155e 1146     		mov	r1, r2
 2912 1560 0422     		movs	r2, #4
 2913 1562 1023     		movs	r3, #16
 2914 1564 FFF7FEFF 		bl	write_LCD
 368:.\LCD.c       ****                     break;
 2915              		.loc 1 368 0
 2916 1568 BCE0     		b	.L138
 2917              	.L144:
 369:.\LCD.c       ****                         
 370:.\LCD.c       ****                     case 'F':
 371:.\LCD.c       ****                         for(x=0;x<8;x++){
 2918              		.loc 1 371 0
 2919 156a 0023     		movs	r3, #0
 2920 156c FB73     		strb	r3, [r7, #15]
 2921 156e 1AE0     		b	.L150
 2922              	.L151:
 372:.\LCD.c       ****                             write_LCD(lcd,button[16][x],2,x+40,0,0x2110,'Y');   //Nombre de boton L
 2923              		.loc 1 372 0 discriminator 3
 2924 1570 FB7B     		ldrb	r3, [r7, #15]	@ zero_extendqisi2
 2925 1572 784A     		ldr	r2, .L259
 2926 1574 1344     		add	r3, r3, r2
 2927 1576 93F88030 		ldrb	r3, [r3, #128]
 2928 157a DAB2     		uxtb	r2, r3
 2929 157c FB7B     		ldrb	r3, [r7, #15]	@ zero_extendqisi2
 2930 157e 9BB2     		uxth	r3, r3
 2931 1580 2833     		adds	r3, r3, #40
 2932 1582 9CB2     		uxth	r4, r3
 2933 1584 F979     		ldrb	r1, [r7, #7]	@ zero_extendqisi2
 2934 1586 0023     		movs	r3, #0
 2935 1588 0093     		str	r3, [sp]
 2936 158a 42F21013 		movw	r3, #8464
 2937 158e 0193     		str	r3, [sp, #4]
 2938 1590 5923     		movs	r3, #89
 2939 1592 0293     		str	r3, [sp, #8]
 2940 1594 0846     		mov	r0, r1
 2941 1596 1146     		mov	r1, r2
 2942 1598 0222     		movs	r2, #2
 2943 159a 2346     		mov	r3, r4
 2944 159c FFF7FEFF 		bl	write_LCD
 371:.\LCD.c       ****                             write_LCD(lcd,button[16][x],2,x+40,0,0x2110,'Y');   //Nombre de boton L
 2945              		.loc 1 371 0 discriminator 3
 2946 15a0 FB7B     		ldrb	r3, [r7, #15]	@ zero_extendqisi2
 2947 15a2 0133     		adds	r3, r3, #1
 2948 15a4 FB73     		strb	r3, [r7, #15]
 2949              	.L150:
 371:.\LCD.c       ****                             write_LCD(lcd,button[16][x],2,x+40,0,0x2110,'Y');   //Nombre de boton L
 2950              		.loc 1 371 0 is_stmt 0 discriminator 1
 2951 15a6 FB7B     		ldrb	r3, [r7, #15]	@ zero_extendqisi2
 2952 15a8 072B     		cmp	r3, #7
 2953 15aa E1D9     		bls	.L151
 373:.\LCD.c       ****                         }
 374:.\LCD.c       ****                         write_LCD(lcd,symbols[0],4,16,1,0xD000,'Y');   //Simbolo de dinero
 2954              		.loc 1 374 0 is_stmt 1
ARM GAS  C:\Users\PROYEC~1\AppData\Local\Temp\ccMsBWpv.s 			page 61


 2955 15ac 6A4B     		ldr	r3, .L259+4
 2956 15ae 1B78     		ldrb	r3, [r3]
 2957 15b0 DAB2     		uxtb	r2, r3
 2958 15b2 F979     		ldrb	r1, [r7, #7]	@ zero_extendqisi2
 2959 15b4 0123     		movs	r3, #1
 2960 15b6 0093     		str	r3, [sp]
 2961 15b8 4FF45043 		mov	r3, #53248
 2962 15bc 0193     		str	r3, [sp, #4]
 2963 15be 5923     		movs	r3, #89
 2964 15c0 0293     		str	r3, [sp, #8]
 2965 15c2 0846     		mov	r0, r1
 2966 15c4 1146     		mov	r1, r2
 2967 15c6 0422     		movs	r2, #4
 2968 15c8 1023     		movs	r3, #16
 2969 15ca FFF7FEFF 		bl	write_LCD
 375:.\LCD.c       ****                     break;
 2970              		.loc 1 375 0
 2971 15ce 89E0     		b	.L138
 2972              	.L139:
 376:.\LCD.c       ****                     
 377:.\LCD.c       ****                     case '1':
 378:.\LCD.c       ****                         write_LCD(lcd,'P',2,40,0,0x2110,'Y');   //Nombre de boton P1
 2973              		.loc 1 378 0
 2974 15d0 FA79     		ldrb	r2, [r7, #7]	@ zero_extendqisi2
 2975 15d2 0023     		movs	r3, #0
 2976 15d4 0093     		str	r3, [sp]
 2977 15d6 42F21013 		movw	r3, #8464
 2978 15da 0193     		str	r3, [sp, #4]
 2979 15dc 5923     		movs	r3, #89
 2980 15de 0293     		str	r3, [sp, #8]
 2981 15e0 1046     		mov	r0, r2
 2982 15e2 5021     		movs	r1, #80
 2983 15e4 0222     		movs	r2, #2
 2984 15e6 2823     		movs	r3, #40
 2985 15e8 FFF7FEFF 		bl	write_LCD
 379:.\LCD.c       ****                         write_LCD(lcd,'1',2,41,0,0x2110,'Y');   //Nombre de boton P1
 2986              		.loc 1 379 0
 2987 15ec FA79     		ldrb	r2, [r7, #7]	@ zero_extendqisi2
 2988 15ee 0023     		movs	r3, #0
 2989 15f0 0093     		str	r3, [sp]
 2990 15f2 42F21013 		movw	r3, #8464
 2991 15f6 0193     		str	r3, [sp, #4]
 2992 15f8 5923     		movs	r3, #89
 2993 15fa 0293     		str	r3, [sp, #8]
 2994 15fc 1046     		mov	r0, r2
 2995 15fe 3121     		movs	r1, #49
 2996 1600 0222     		movs	r2, #2
 2997 1602 2923     		movs	r3, #41
 2998 1604 FFF7FEFF 		bl	write_LCD
 380:.\LCD.c       ****                         write_LCD(lcd,symbols[0],4,16,1,0xD000,'Y');   //Simbolo de dinero
 2999              		.loc 1 380 0
 3000 1608 534B     		ldr	r3, .L259+4
 3001 160a 1B78     		ldrb	r3, [r3]
 3002 160c DAB2     		uxtb	r2, r3
 3003 160e F979     		ldrb	r1, [r7, #7]	@ zero_extendqisi2
 3004 1610 0123     		movs	r3, #1
 3005 1612 0093     		str	r3, [sp]
ARM GAS  C:\Users\PROYEC~1\AppData\Local\Temp\ccMsBWpv.s 			page 62


 3006 1614 4FF45043 		mov	r3, #53248
 3007 1618 0193     		str	r3, [sp, #4]
 3008 161a 5923     		movs	r3, #89
 3009 161c 0293     		str	r3, [sp, #8]
 3010 161e 0846     		mov	r0, r1
 3011 1620 1146     		mov	r1, r2
 3012 1622 0422     		movs	r2, #4
 3013 1624 1023     		movs	r3, #16
 3014 1626 FFF7FEFF 		bl	write_LCD
 381:.\LCD.c       ****                     break;
 3015              		.loc 1 381 0
 3016 162a 5BE0     		b	.L138
 3017              	.L141:
 382:.\LCD.c       ****                     
 383:.\LCD.c       ****                     case '2':
 384:.\LCD.c       ****                         write_LCD(lcd,'P',2,40,0,0x2110,'Y');   //Nombre de boton P1
 3018              		.loc 1 384 0
 3019 162c FA79     		ldrb	r2, [r7, #7]	@ zero_extendqisi2
 3020 162e 0023     		movs	r3, #0
 3021 1630 0093     		str	r3, [sp]
 3022 1632 42F21013 		movw	r3, #8464
 3023 1636 0193     		str	r3, [sp, #4]
 3024 1638 5923     		movs	r3, #89
 3025 163a 0293     		str	r3, [sp, #8]
 3026 163c 1046     		mov	r0, r2
 3027 163e 5021     		movs	r1, #80
 3028 1640 0222     		movs	r2, #2
 3029 1642 2823     		movs	r3, #40
 3030 1644 FFF7FEFF 		bl	write_LCD
 385:.\LCD.c       ****                         write_LCD(lcd,'2',2,41,0,0x2110,'Y');   //Nombre de boton P1
 3031              		.loc 1 385 0
 3032 1648 FA79     		ldrb	r2, [r7, #7]	@ zero_extendqisi2
 3033 164a 0023     		movs	r3, #0
 3034 164c 0093     		str	r3, [sp]
 3035 164e 42F21013 		movw	r3, #8464
 3036 1652 0193     		str	r3, [sp, #4]
 3037 1654 5923     		movs	r3, #89
 3038 1656 0293     		str	r3, [sp, #8]
 3039 1658 1046     		mov	r0, r2
 3040 165a 3221     		movs	r1, #50
 3041 165c 0222     		movs	r2, #2
 3042 165e 2923     		movs	r3, #41
 3043 1660 FFF7FEFF 		bl	write_LCD
 386:.\LCD.c       ****                         write_LCD(lcd,symbols[0],4,16,1,0xD000,'Y');   //Simbolo de dinero
 3044              		.loc 1 386 0
 3045 1664 3C4B     		ldr	r3, .L259+4
 3046 1666 1B78     		ldrb	r3, [r3]
 3047 1668 DAB2     		uxtb	r2, r3
 3048 166a F979     		ldrb	r1, [r7, #7]	@ zero_extendqisi2
 3049 166c 0123     		movs	r3, #1
 3050 166e 0093     		str	r3, [sp]
 3051 1670 4FF45043 		mov	r3, #53248
 3052 1674 0193     		str	r3, [sp, #4]
 3053 1676 5923     		movs	r3, #89
 3054 1678 0293     		str	r3, [sp, #8]
 3055 167a 0846     		mov	r0, r1
 3056 167c 1146     		mov	r1, r2
ARM GAS  C:\Users\PROYEC~1\AppData\Local\Temp\ccMsBWpv.s 			page 63


 3057 167e 0422     		movs	r2, #4
 3058 1680 1023     		movs	r3, #16
 3059 1682 FFF7FEFF 		bl	write_LCD
 387:.\LCD.c       ****                     break;
 3060              		.loc 1 387 0
 3061 1686 2DE0     		b	.L138
 3062              	.L142:
 388:.\LCD.c       ****                     
 389:.\LCD.c       ****                     case '3':
 390:.\LCD.c       ****                         write_LCD(lcd,'P',2,40,0,0x2110,'Y');   //Nombre de boton P1
 3063              		.loc 1 390 0
 3064 1688 FA79     		ldrb	r2, [r7, #7]	@ zero_extendqisi2
 3065 168a 0023     		movs	r3, #0
 3066 168c 0093     		str	r3, [sp]
 3067 168e 42F21013 		movw	r3, #8464
 3068 1692 0193     		str	r3, [sp, #4]
 3069 1694 5923     		movs	r3, #89
 3070 1696 0293     		str	r3, [sp, #8]
 3071 1698 1046     		mov	r0, r2
 3072 169a 5021     		movs	r1, #80
 3073 169c 0222     		movs	r2, #2
 3074 169e 2823     		movs	r3, #40
 3075 16a0 FFF7FEFF 		bl	write_LCD
 391:.\LCD.c       ****                         write_LCD(lcd,'3',2,41,0,0x2110,'Y');   //Nombre de boton P1
 3076              		.loc 1 391 0
 3077 16a4 FA79     		ldrb	r2, [r7, #7]	@ zero_extendqisi2
 3078 16a6 0023     		movs	r3, #0
 3079 16a8 0093     		str	r3, [sp]
 3080 16aa 42F21013 		movw	r3, #8464
 3081 16ae 0193     		str	r3, [sp, #4]
 3082 16b0 5923     		movs	r3, #89
 3083 16b2 0293     		str	r3, [sp, #8]
 3084 16b4 1046     		mov	r0, r2
 3085 16b6 3321     		movs	r1, #51
 3086 16b8 0222     		movs	r2, #2
 3087 16ba 2923     		movs	r3, #41
 3088 16bc FFF7FEFF 		bl	write_LCD
 392:.\LCD.c       ****                         write_LCD(lcd,symbols[0],4,16,1,0xD000,'Y');   //Simbolo de dinero
 3089              		.loc 1 392 0
 3090 16c0 254B     		ldr	r3, .L259+4
 3091 16c2 1B78     		ldrb	r3, [r3]
 3092 16c4 DAB2     		uxtb	r2, r3
 3093 16c6 F979     		ldrb	r1, [r7, #7]	@ zero_extendqisi2
 3094 16c8 0123     		movs	r3, #1
 3095 16ca 0093     		str	r3, [sp]
 3096 16cc 4FF45043 		mov	r3, #53248
 3097 16d0 0193     		str	r3, [sp, #4]
 3098 16d2 5923     		movs	r3, #89
 3099 16d4 0293     		str	r3, [sp, #8]
 3100 16d6 0846     		mov	r0, r1
 3101 16d8 1146     		mov	r1, r2
 3102 16da 0422     		movs	r2, #4
 3103 16dc 1023     		movs	r3, #16
 3104 16de FFF7FEFF 		bl	write_LCD
 393:.\LCD.c       ****                     break;
 3105              		.loc 1 393 0
 3106 16e2 00BF     		nop
ARM GAS  C:\Users\PROYEC~1\AppData\Local\Temp\ccMsBWpv.s 			page 64


 3107              	.L138:
 394:.\LCD.c       ****                 }
 395:.\LCD.c       ****                 flag=0;
 3108              		.loc 1 395 0
 3109 16e4 0023     		movs	r3, #0
 3110 16e6 7B73     		strb	r3, [r7, #13]
 396:.\LCD.c       ****                 for(x=1;x<=bufferLCD1.presetValue[1][0];x++){
 3111              		.loc 1 396 0
 3112 16e8 0123     		movs	r3, #1
 3113 16ea FB73     		strb	r3, [r7, #15]
 3114 16ec 26E0     		b	.L152
 3115              	.L155:
 397:.\LCD.c       ****                     if(bufferLCD1.presetValue[1][x]=='0' && flag==0){
 3116              		.loc 1 397 0
 3117 16ee FB7B     		ldrb	r3, [r7, #15]	@ zero_extendqisi2
 3118 16f0 1A4A     		ldr	r2, .L259+8
 3119 16f2 1344     		add	r3, r3, r2
 3120 16f4 93F86E30 		ldrb	r3, [r3, #110]	@ zero_extendqisi2
 3121 16f8 302B     		cmp	r3, #48
 3122 16fa 03D1     		bne	.L153
 3123              		.loc 1 397 0 is_stmt 0 discriminator 1
 3124 16fc 7B7B     		ldrb	r3, [r7, #13]	@ zero_extendqisi2
 3125 16fe 002B     		cmp	r3, #0
 3126 1700 00D1     		bne	.L153
 3127              		.loc 1 397 0
 3128 1702 18E0     		b	.L154
 3129              	.L153:
 398:.\LCD.c       ****                     }else{
 399:.\LCD.c       ****                         write_LCD(lcd,bufferLCD1.presetValue[1][x],4,x+16,1,0x2110,'Y');
 3130              		.loc 1 399 0 is_stmt 1
 3131 1704 FB7B     		ldrb	r3, [r7, #15]	@ zero_extendqisi2
 3132 1706 154A     		ldr	r2, .L259+8
 3133 1708 1344     		add	r3, r3, r2
 3134 170a 93F86E20 		ldrb	r2, [r3, #110]	@ zero_extendqisi2
 3135 170e FB7B     		ldrb	r3, [r7, #15]	@ zero_extendqisi2
 3136 1710 9BB2     		uxth	r3, r3
 3137 1712 1033     		adds	r3, r3, #16
 3138 1714 9CB2     		uxth	r4, r3
 3139 1716 F979     		ldrb	r1, [r7, #7]	@ zero_extendqisi2
 3140 1718 0123     		movs	r3, #1
 3141 171a 0093     		str	r3, [sp]
 3142 171c 42F21013 		movw	r3, #8464
 3143 1720 0193     		str	r3, [sp, #4]
 3144 1722 5923     		movs	r3, #89
 3145 1724 0293     		str	r3, [sp, #8]
 3146 1726 0846     		mov	r0, r1
 3147 1728 1146     		mov	r1, r2
 3148 172a 0422     		movs	r2, #4
 3149 172c 2346     		mov	r3, r4
 3150 172e FFF7FEFF 		bl	write_LCD
 400:.\LCD.c       ****                         flag=1;
 3151              		.loc 1 400 0
 3152 1732 0123     		movs	r3, #1
 3153 1734 7B73     		strb	r3, [r7, #13]
 3154              	.L154:
 396:.\LCD.c       ****                     if(bufferLCD1.presetValue[1][x]=='0' && flag==0){
 3155              		.loc 1 396 0 discriminator 2
ARM GAS  C:\Users\PROYEC~1\AppData\Local\Temp\ccMsBWpv.s 			page 65


 3156 1736 FB7B     		ldrb	r3, [r7, #15]	@ zero_extendqisi2
 3157 1738 0133     		adds	r3, r3, #1
 3158 173a FB73     		strb	r3, [r7, #15]
 3159              	.L152:
 396:.\LCD.c       ****                     if(bufferLCD1.presetValue[1][x]=='0' && flag==0){
 3160              		.loc 1 396 0 is_stmt 0 discriminator 1
 3161 173c 074B     		ldr	r3, .L259+8
 3162 173e 93F86E30 		ldrb	r3, [r3, #110]	@ zero_extendqisi2
 3163 1742 FA7B     		ldrb	r2, [r7, #15]	@ zero_extendqisi2
 3164 1744 9A42     		cmp	r2, r3
 3165 1746 D2D9     		bls	.L155
 401:.\LCD.c       ****                     }
 402:.\LCD.c       ****                 }
 403:.\LCD.c       ****             }else{
 404:.\LCD.c       ****                 for(x=1;x<=bufferLCD2.licenceSale[0];x++){
 405:.\LCD.c       ****                     write_LCD(lcd,bufferLCD2.licenceSale[x],12,x+13,1,0x0000,'N');   //Placa
 406:.\LCD.c       ****                 }
 407:.\LCD.c       ****                 for(x=1;x<=bufferLCD2.mileageSale[0];x++){
 408:.\LCD.c       ****                     write_LCD(lcd,bufferLCD2.mileageSale[x],20,x+13,1,0x0000,'N');   //Kilometraje
 409:.\LCD.c       ****                 }
 410:.\LCD.c       ****                 for(x=1;x<=bufferLCD2.identySale[0];x++){
 411:.\LCD.c       ****                     write_LCD(lcd,bufferLCD2.identySale[x],28,x+13,1,0x0000,'N');   //CC/NIT
 412:.\LCD.c       ****                 }
 413:.\LCD.c       ****                 switch (bufferLCD2.presetType[1]){
 414:.\LCD.c       ****                     case 'D':
 415:.\LCD.c       ****                         for(x=0;x<8;x++){
 416:.\LCD.c       ****                             write_LCD(lcd,button[14][x],2,x+40,0,0x2110,'Y');   //Nombre de boton D
 417:.\LCD.c       ****                         }
 418:.\LCD.c       ****                         write_LCD(lcd,symbols[0],4,16,1,0xD000,'Y');   //Simbolo de dinero
 419:.\LCD.c       ****                     break;
 420:.\LCD.c       ****                     
 421:.\LCD.c       ****                     case 'V':
 422:.\LCD.c       ****                         for(x=0;x<8;x++){
 423:.\LCD.c       ****                             write_LCD(lcd,button[15][x],2,x+40,0,0x2110,'Y');   //Nombre de boton V
 424:.\LCD.c       ****                         }
 425:.\LCD.c       ****                         write_LCD(lcd,symbols[1],4,16,1,0xD000,'Y');   //Simbolo de Volumen
 426:.\LCD.c       ****                     break;
 427:.\LCD.c       ****                         
 428:.\LCD.c       ****                     case 'F':
 429:.\LCD.c       ****                         for(x=0;x<8;x++){
 430:.\LCD.c       ****                             write_LCD(lcd,button[16][x],2,x+40,0,0x2110,'Y');   //Nombre de boton L
 431:.\LCD.c       ****                         }
 432:.\LCD.c       ****                         write_LCD(lcd,symbols[0],4,16,1,0xD000,'Y');   //Simbolo de dinero
 433:.\LCD.c       ****                     break;
 434:.\LCD.c       ****                     
 435:.\LCD.c       ****                     case '1':
 436:.\LCD.c       ****                         write_LCD(lcd,'P',2,40,0,0x2110,'Y');   //Nombre de boton P1
 437:.\LCD.c       ****                         write_LCD(lcd,'1',2,41,0,0x2110,'Y');   //Nombre de boton P1
 438:.\LCD.c       ****                         write_LCD(lcd,symbols[0],4,16,1,0xD000,'Y');   //Simbolo de dinero
 439:.\LCD.c       ****                     break;
 440:.\LCD.c       ****                     
 441:.\LCD.c       ****                     case '2':
 442:.\LCD.c       ****                         write_LCD(lcd,'P',2,40,0,0x2110,'Y');   //Nombre de boton P1
 443:.\LCD.c       ****                         write_LCD(lcd,'2',2,41,0,0x2110,'Y');   //Nombre de boton P1
 444:.\LCD.c       ****                         write_LCD(lcd,symbols[0],4,16,1,0xD000,'Y');   //Simbolo de dinero
 445:.\LCD.c       ****                     break;
 446:.\LCD.c       ****                     
ARM GAS  C:\Users\PROYEC~1\AppData\Local\Temp\ccMsBWpv.s 			page 66


 447:.\LCD.c       ****                     case '3':
 448:.\LCD.c       ****                         write_LCD(lcd,'P',2,40,0,0x2110,'Y');   //Nombre de boton P1
 449:.\LCD.c       ****                         write_LCD(lcd,'3',2,41,0,0x2110,'Y');   //Nombre de boton P1
 450:.\LCD.c       ****                         write_LCD(lcd,symbols[0],4,16,1,0xD000,'Y');   //Simbolo de dinero
 451:.\LCD.c       ****                     break;
 452:.\LCD.c       ****                 }
 453:.\LCD.c       ****                 flag=0;
 454:.\LCD.c       ****                 for(x=1;x<=bufferLCD2.presetValue[1][0];x++){
 455:.\LCD.c       ****                     if(bufferLCD2.presetValue[1][x]=='0' && flag==0){
 456:.\LCD.c       ****                     }else{
 457:.\LCD.c       ****                         write_LCD(lcd,bufferLCD2.presetValue[1][x],4,x+16,1,0x2110,'Y');
 458:.\LCD.c       ****                         flag=1;
 459:.\LCD.c       ****                     }
 460:.\LCD.c       ****                 }
 461:.\LCD.c       ****             }
 462:.\LCD.c       ****         break;
 3166              		.loc 1 462 0 is_stmt 1
 3167 1748 01F07DBD 		b	.L16
 3168              	.L131:
 404:.\LCD.c       ****                     write_LCD(lcd,bufferLCD2.licenceSale[x],12,x+13,1,0x0000,'N');   //Placa
 3169              		.loc 1 404 0
 3170 174c 0123     		movs	r3, #1
 3171 174e FB73     		strb	r3, [r7, #15]
 3172 1750 1FE0     		b	.L157
 3173              	.L260:
 3174 1752 00BF     		.align	2
 3175              	.L259:
 3176 1754 00000000 		.word	button
 3177 1758 00000000 		.word	symbols
 3178 175c 00000000 		.word	bufferLCD1
 3179              	.L158:
 405:.\LCD.c       ****                 }
 3180              		.loc 1 405 0 discriminator 3
 3181 1760 FB7B     		ldrb	r3, [r7, #15]	@ zero_extendqisi2
 3182 1762 C04A     		ldr	r2, .L261
 3183 1764 1344     		add	r3, r3, r2
 3184 1766 93F8EA20 		ldrb	r2, [r3, #234]	@ zero_extendqisi2
 3185 176a FB7B     		ldrb	r3, [r7, #15]	@ zero_extendqisi2
 3186 176c 9BB2     		uxth	r3, r3
 3187 176e 0D33     		adds	r3, r3, #13
 3188 1770 9CB2     		uxth	r4, r3
 3189 1772 F979     		ldrb	r1, [r7, #7]	@ zero_extendqisi2
 3190 1774 0123     		movs	r3, #1
 3191 1776 0093     		str	r3, [sp]
 3192 1778 0023     		movs	r3, #0
 3193 177a 0193     		str	r3, [sp, #4]
 3194 177c 4E23     		movs	r3, #78
 3195 177e 0293     		str	r3, [sp, #8]
 3196 1780 0846     		mov	r0, r1
 3197 1782 1146     		mov	r1, r2
 3198 1784 0C22     		movs	r2, #12
 3199 1786 2346     		mov	r3, r4
 3200 1788 FFF7FEFF 		bl	write_LCD
 404:.\LCD.c       ****                     write_LCD(lcd,bufferLCD2.licenceSale[x],12,x+13,1,0x0000,'N');   //Placa
 3201              		.loc 1 404 0 discriminator 3
 3202 178c FB7B     		ldrb	r3, [r7, #15]	@ zero_extendqisi2
 3203 178e 0133     		adds	r3, r3, #1
ARM GAS  C:\Users\PROYEC~1\AppData\Local\Temp\ccMsBWpv.s 			page 67


 3204 1790 FB73     		strb	r3, [r7, #15]
 3205              	.L157:
 404:.\LCD.c       ****                     write_LCD(lcd,bufferLCD2.licenceSale[x],12,x+13,1,0x0000,'N');   //Placa
 3206              		.loc 1 404 0 is_stmt 0 discriminator 1
 3207 1792 B44B     		ldr	r3, .L261
 3208 1794 93F8EA30 		ldrb	r3, [r3, #234]	@ zero_extendqisi2
 3209 1798 FA7B     		ldrb	r2, [r7, #15]	@ zero_extendqisi2
 3210 179a 9A42     		cmp	r2, r3
 3211 179c E0D9     		bls	.L158
 407:.\LCD.c       ****                     write_LCD(lcd,bufferLCD2.mileageSale[x],20,x+13,1,0x0000,'N');   //Kilometraje
 3212              		.loc 1 407 0 is_stmt 1
 3213 179e 0123     		movs	r3, #1
 3214 17a0 FB73     		strb	r3, [r7, #15]
 3215 17a2 18E0     		b	.L159
 3216              	.L160:
 408:.\LCD.c       ****                 }
 3217              		.loc 1 408 0 discriminator 3
 3218 17a4 FB7B     		ldrb	r3, [r7, #15]	@ zero_extendqisi2
 3219 17a6 AF4A     		ldr	r2, .L261
 3220 17a8 1344     		add	r3, r3, r2
 3221 17aa 93F8F520 		ldrb	r2, [r3, #245]	@ zero_extendqisi2
 3222 17ae FB7B     		ldrb	r3, [r7, #15]	@ zero_extendqisi2
 3223 17b0 9BB2     		uxth	r3, r3
 3224 17b2 0D33     		adds	r3, r3, #13
 3225 17b4 9CB2     		uxth	r4, r3
 3226 17b6 F979     		ldrb	r1, [r7, #7]	@ zero_extendqisi2
 3227 17b8 0123     		movs	r3, #1
 3228 17ba 0093     		str	r3, [sp]
 3229 17bc 0023     		movs	r3, #0
 3230 17be 0193     		str	r3, [sp, #4]
 3231 17c0 4E23     		movs	r3, #78
 3232 17c2 0293     		str	r3, [sp, #8]
 3233 17c4 0846     		mov	r0, r1
 3234 17c6 1146     		mov	r1, r2
 3235 17c8 1422     		movs	r2, #20
 3236 17ca 2346     		mov	r3, r4
 3237 17cc FFF7FEFF 		bl	write_LCD
 407:.\LCD.c       ****                     write_LCD(lcd,bufferLCD2.mileageSale[x],20,x+13,1,0x0000,'N');   //Kilometraje
 3238              		.loc 1 407 0 discriminator 3
 3239 17d0 FB7B     		ldrb	r3, [r7, #15]	@ zero_extendqisi2
 3240 17d2 0133     		adds	r3, r3, #1
 3241 17d4 FB73     		strb	r3, [r7, #15]
 3242              	.L159:
 407:.\LCD.c       ****                     write_LCD(lcd,bufferLCD2.mileageSale[x],20,x+13,1,0x0000,'N');   //Kilometraje
 3243              		.loc 1 407 0 is_stmt 0 discriminator 1
 3244 17d6 A34B     		ldr	r3, .L261
 3245 17d8 93F8F530 		ldrb	r3, [r3, #245]	@ zero_extendqisi2
 3246 17dc FA7B     		ldrb	r2, [r7, #15]	@ zero_extendqisi2
 3247 17de 9A42     		cmp	r2, r3
 3248 17e0 E0D9     		bls	.L160
 410:.\LCD.c       ****                     write_LCD(lcd,bufferLCD2.identySale[x],28,x+13,1,0x0000,'N');   //CC/NIT
 3249              		.loc 1 410 0 is_stmt 1
 3250 17e2 0123     		movs	r3, #1
 3251 17e4 FB73     		strb	r3, [r7, #15]
 3252 17e6 18E0     		b	.L161
 3253              	.L162:
 411:.\LCD.c       ****                 }
ARM GAS  C:\Users\PROYEC~1\AppData\Local\Temp\ccMsBWpv.s 			page 68


 3254              		.loc 1 411 0 discriminator 3
 3255 17e8 FB7B     		ldrb	r3, [r7, #15]	@ zero_extendqisi2
 3256 17ea 9E4A     		ldr	r2, .L261
 3257 17ec 1344     		add	r3, r3, r2
 3258 17ee 93F80021 		ldrb	r2, [r3, #256]	@ zero_extendqisi2
 3259 17f2 FB7B     		ldrb	r3, [r7, #15]	@ zero_extendqisi2
 3260 17f4 9BB2     		uxth	r3, r3
 3261 17f6 0D33     		adds	r3, r3, #13
 3262 17f8 9CB2     		uxth	r4, r3
 3263 17fa F979     		ldrb	r1, [r7, #7]	@ zero_extendqisi2
 3264 17fc 0123     		movs	r3, #1
 3265 17fe 0093     		str	r3, [sp]
 3266 1800 0023     		movs	r3, #0
 3267 1802 0193     		str	r3, [sp, #4]
 3268 1804 4E23     		movs	r3, #78
 3269 1806 0293     		str	r3, [sp, #8]
 3270 1808 0846     		mov	r0, r1
 3271 180a 1146     		mov	r1, r2
 3272 180c 1C22     		movs	r2, #28
 3273 180e 2346     		mov	r3, r4
 3274 1810 FFF7FEFF 		bl	write_LCD
 410:.\LCD.c       ****                     write_LCD(lcd,bufferLCD2.identySale[x],28,x+13,1,0x0000,'N');   //CC/NIT
 3275              		.loc 1 410 0 discriminator 3
 3276 1814 FB7B     		ldrb	r3, [r7, #15]	@ zero_extendqisi2
 3277 1816 0133     		adds	r3, r3, #1
 3278 1818 FB73     		strb	r3, [r7, #15]
 3279              	.L161:
 410:.\LCD.c       ****                     write_LCD(lcd,bufferLCD2.identySale[x],28,x+13,1,0x0000,'N');   //CC/NIT
 3280              		.loc 1 410 0 is_stmt 0 discriminator 1
 3281 181a 924B     		ldr	r3, .L261
 3282 181c 93F80031 		ldrb	r3, [r3, #256]	@ zero_extendqisi2
 3283 1820 FA7B     		ldrb	r2, [r7, #15]	@ zero_extendqisi2
 3284 1822 9A42     		cmp	r2, r3
 3285 1824 E0D9     		bls	.L162
 413:.\LCD.c       ****                     case 'D':
 3286              		.loc 1 413 0 is_stmt 1
 3287 1826 8F4B     		ldr	r3, .L261
 3288 1828 93F86330 		ldrb	r3, [r3, #99]	@ zero_extendqisi2
 3289 182c 313B     		subs	r3, r3, #49
 3290 182e 252B     		cmp	r3, #37
 3291 1830 00F27A81 		bhi	.L163
 3292 1834 01A2     		adr	r2, .L165
 3293 1836 52F823F0 		ldr	pc, [r2, r3, lsl #2]
 3294 183a 00BF     		.p2align 2
 3295              	.L165:
 3296 183c 071A0000 		.word	.L164+1
 3297 1840 711A0000 		.word	.L166+1
 3298 1844 CD1A0000 		.word	.L167+1
 3299 1848 291B0000 		.word	.L163+1
 3300 184c 291B0000 		.word	.L163+1
 3301 1850 291B0000 		.word	.L163+1
 3302 1854 291B0000 		.word	.L163+1
 3303 1858 291B0000 		.word	.L163+1
 3304 185c 291B0000 		.word	.L163+1
 3305 1860 291B0000 		.word	.L163+1
 3306 1864 291B0000 		.word	.L163+1
 3307 1868 291B0000 		.word	.L163+1
ARM GAS  C:\Users\PROYEC~1\AppData\Local\Temp\ccMsBWpv.s 			page 69


 3308 186c 291B0000 		.word	.L163+1
 3309 1870 291B0000 		.word	.L163+1
 3310 1874 291B0000 		.word	.L163+1
 3311 1878 291B0000 		.word	.L163+1
 3312 187c 291B0000 		.word	.L163+1
 3313 1880 291B0000 		.word	.L163+1
 3314 1884 291B0000 		.word	.L163+1
 3315 1888 D5180000 		.word	.L168+1
 3316 188c 291B0000 		.word	.L163+1
 3317 1890 A1190000 		.word	.L169+1
 3318 1894 291B0000 		.word	.L163+1
 3319 1898 291B0000 		.word	.L163+1
 3320 189c 291B0000 		.word	.L163+1
 3321 18a0 291B0000 		.word	.L163+1
 3322 18a4 291B0000 		.word	.L163+1
 3323 18a8 291B0000 		.word	.L163+1
 3324 18ac 291B0000 		.word	.L163+1
 3325 18b0 291B0000 		.word	.L163+1
 3326 18b4 291B0000 		.word	.L163+1
 3327 18b8 291B0000 		.word	.L163+1
 3328 18bc 291B0000 		.word	.L163+1
 3329 18c0 291B0000 		.word	.L163+1
 3330 18c4 291B0000 		.word	.L163+1
 3331 18c8 291B0000 		.word	.L163+1
 3332 18cc 291B0000 		.word	.L163+1
 3333 18d0 3B190000 		.word	.L170+1
 3334              		.p2align 1
 3335              	.L168:
 415:.\LCD.c       ****                             write_LCD(lcd,button[14][x],2,x+40,0,0x2110,'Y');   //Nombre de boton D
 3336              		.loc 1 415 0
 3337 18d4 0023     		movs	r3, #0
 3338 18d6 FB73     		strb	r3, [r7, #15]
 3339 18d8 1AE0     		b	.L171
 3340              	.L172:
 416:.\LCD.c       ****                         }
 3341              		.loc 1 416 0 discriminator 3
 3342 18da FB7B     		ldrb	r3, [r7, #15]	@ zero_extendqisi2
 3343 18dc 624A     		ldr	r2, .L261+4
 3344 18de 1344     		add	r3, r3, r2
 3345 18e0 93F87030 		ldrb	r3, [r3, #112]
 3346 18e4 DAB2     		uxtb	r2, r3
 3347 18e6 FB7B     		ldrb	r3, [r7, #15]	@ zero_extendqisi2
 3348 18e8 9BB2     		uxth	r3, r3
 3349 18ea 2833     		adds	r3, r3, #40
 3350 18ec 9CB2     		uxth	r4, r3
 3351 18ee F979     		ldrb	r1, [r7, #7]	@ zero_extendqisi2
 3352 18f0 0023     		movs	r3, #0
 3353 18f2 0093     		str	r3, [sp]
 3354 18f4 42F21013 		movw	r3, #8464
 3355 18f8 0193     		str	r3, [sp, #4]
 3356 18fa 5923     		movs	r3, #89
 3357 18fc 0293     		str	r3, [sp, #8]
 3358 18fe 0846     		mov	r0, r1
 3359 1900 1146     		mov	r1, r2
 3360 1902 0222     		movs	r2, #2
 3361 1904 2346     		mov	r3, r4
 3362 1906 FFF7FEFF 		bl	write_LCD
ARM GAS  C:\Users\PROYEC~1\AppData\Local\Temp\ccMsBWpv.s 			page 70


 415:.\LCD.c       ****                             write_LCD(lcd,button[14][x],2,x+40,0,0x2110,'Y');   //Nombre de boton D
 3363              		.loc 1 415 0 discriminator 3
 3364 190a FB7B     		ldrb	r3, [r7, #15]	@ zero_extendqisi2
 3365 190c 0133     		adds	r3, r3, #1
 3366 190e FB73     		strb	r3, [r7, #15]
 3367              	.L171:
 415:.\LCD.c       ****                             write_LCD(lcd,button[14][x],2,x+40,0,0x2110,'Y');   //Nombre de boton D
 3368              		.loc 1 415 0 is_stmt 0 discriminator 1
 3369 1910 FB7B     		ldrb	r3, [r7, #15]	@ zero_extendqisi2
 3370 1912 072B     		cmp	r3, #7
 3371 1914 E1D9     		bls	.L172
 418:.\LCD.c       ****                     break;
 3372              		.loc 1 418 0 is_stmt 1
 3373 1916 554B     		ldr	r3, .L261+8
 3374 1918 1B78     		ldrb	r3, [r3]
 3375 191a DAB2     		uxtb	r2, r3
 3376 191c F979     		ldrb	r1, [r7, #7]	@ zero_extendqisi2
 3377 191e 0123     		movs	r3, #1
 3378 1920 0093     		str	r3, [sp]
 3379 1922 4FF45043 		mov	r3, #53248
 3380 1926 0193     		str	r3, [sp, #4]
 3381 1928 5923     		movs	r3, #89
 3382 192a 0293     		str	r3, [sp, #8]
 3383 192c 0846     		mov	r0, r1
 3384 192e 1146     		mov	r1, r2
 3385 1930 0422     		movs	r2, #4
 3386 1932 1023     		movs	r3, #16
 3387 1934 FFF7FEFF 		bl	write_LCD
 419:.\LCD.c       ****                     
 3388              		.loc 1 419 0
 3389 1938 F6E0     		b	.L163
 3390              	.L170:
 422:.\LCD.c       ****                             write_LCD(lcd,button[15][x],2,x+40,0,0x2110,'Y');   //Nombre de boton V
 3391              		.loc 1 422 0
 3392 193a 0023     		movs	r3, #0
 3393 193c FB73     		strb	r3, [r7, #15]
 3394 193e 1AE0     		b	.L173
 3395              	.L174:
 423:.\LCD.c       ****                         }
 3396              		.loc 1 423 0 discriminator 3
 3397 1940 FB7B     		ldrb	r3, [r7, #15]	@ zero_extendqisi2
 3398 1942 494A     		ldr	r2, .L261+4
 3399 1944 1344     		add	r3, r3, r2
 3400 1946 93F87830 		ldrb	r3, [r3, #120]
 3401 194a DAB2     		uxtb	r2, r3
 3402 194c FB7B     		ldrb	r3, [r7, #15]	@ zero_extendqisi2
 3403 194e 9BB2     		uxth	r3, r3
 3404 1950 2833     		adds	r3, r3, #40
 3405 1952 9CB2     		uxth	r4, r3
 3406 1954 F979     		ldrb	r1, [r7, #7]	@ zero_extendqisi2
 3407 1956 0023     		movs	r3, #0
 3408 1958 0093     		str	r3, [sp]
 3409 195a 42F21013 		movw	r3, #8464
 3410 195e 0193     		str	r3, [sp, #4]
 3411 1960 5923     		movs	r3, #89
 3412 1962 0293     		str	r3, [sp, #8]
 3413 1964 0846     		mov	r0, r1
ARM GAS  C:\Users\PROYEC~1\AppData\Local\Temp\ccMsBWpv.s 			page 71


 3414 1966 1146     		mov	r1, r2
 3415 1968 0222     		movs	r2, #2
 3416 196a 2346     		mov	r3, r4
 3417 196c FFF7FEFF 		bl	write_LCD
 422:.\LCD.c       ****                             write_LCD(lcd,button[15][x],2,x+40,0,0x2110,'Y');   //Nombre de boton V
 3418              		.loc 1 422 0 discriminator 3
 3419 1970 FB7B     		ldrb	r3, [r7, #15]	@ zero_extendqisi2
 3420 1972 0133     		adds	r3, r3, #1
 3421 1974 FB73     		strb	r3, [r7, #15]
 3422              	.L173:
 422:.\LCD.c       ****                             write_LCD(lcd,button[15][x],2,x+40,0,0x2110,'Y');   //Nombre de boton V
 3423              		.loc 1 422 0 is_stmt 0 discriminator 1
 3424 1976 FB7B     		ldrb	r3, [r7, #15]	@ zero_extendqisi2
 3425 1978 072B     		cmp	r3, #7
 3426 197a E1D9     		bls	.L174
 425:.\LCD.c       ****                     break;
 3427              		.loc 1 425 0 is_stmt 1
 3428 197c 3B4B     		ldr	r3, .L261+8
 3429 197e 5B78     		ldrb	r3, [r3, #1]
 3430 1980 DAB2     		uxtb	r2, r3
 3431 1982 F979     		ldrb	r1, [r7, #7]	@ zero_extendqisi2
 3432 1984 0123     		movs	r3, #1
 3433 1986 0093     		str	r3, [sp]
 3434 1988 4FF45043 		mov	r3, #53248
 3435 198c 0193     		str	r3, [sp, #4]
 3436 198e 5923     		movs	r3, #89
 3437 1990 0293     		str	r3, [sp, #8]
 3438 1992 0846     		mov	r0, r1
 3439 1994 1146     		mov	r1, r2
 3440 1996 0422     		movs	r2, #4
 3441 1998 1023     		movs	r3, #16
 3442 199a FFF7FEFF 		bl	write_LCD
 426:.\LCD.c       ****                         
 3443              		.loc 1 426 0
 3444 199e C3E0     		b	.L163
 3445              	.L169:
 429:.\LCD.c       ****                             write_LCD(lcd,button[16][x],2,x+40,0,0x2110,'Y');   //Nombre de boton L
 3446              		.loc 1 429 0
 3447 19a0 0023     		movs	r3, #0
 3448 19a2 FB73     		strb	r3, [r7, #15]
 3449 19a4 1AE0     		b	.L175
 3450              	.L176:
 430:.\LCD.c       ****                         }
 3451              		.loc 1 430 0 discriminator 3
 3452 19a6 FB7B     		ldrb	r3, [r7, #15]	@ zero_extendqisi2
 3453 19a8 2F4A     		ldr	r2, .L261+4
 3454 19aa 1344     		add	r3, r3, r2
 3455 19ac 93F88030 		ldrb	r3, [r3, #128]
 3456 19b0 DAB2     		uxtb	r2, r3
 3457 19b2 FB7B     		ldrb	r3, [r7, #15]	@ zero_extendqisi2
 3458 19b4 9BB2     		uxth	r3, r3
 3459 19b6 2833     		adds	r3, r3, #40
 3460 19b8 9CB2     		uxth	r4, r3
 3461 19ba F979     		ldrb	r1, [r7, #7]	@ zero_extendqisi2
 3462 19bc 0023     		movs	r3, #0
 3463 19be 0093     		str	r3, [sp]
 3464 19c0 42F21013 		movw	r3, #8464
ARM GAS  C:\Users\PROYEC~1\AppData\Local\Temp\ccMsBWpv.s 			page 72


 3465 19c4 0193     		str	r3, [sp, #4]
 3466 19c6 5923     		movs	r3, #89
 3467 19c8 0293     		str	r3, [sp, #8]
 3468 19ca 0846     		mov	r0, r1
 3469 19cc 1146     		mov	r1, r2
 3470 19ce 0222     		movs	r2, #2
 3471 19d0 2346     		mov	r3, r4
 3472 19d2 FFF7FEFF 		bl	write_LCD
 429:.\LCD.c       ****                             write_LCD(lcd,button[16][x],2,x+40,0,0x2110,'Y');   //Nombre de boton L
 3473              		.loc 1 429 0 discriminator 3
 3474 19d6 FB7B     		ldrb	r3, [r7, #15]	@ zero_extendqisi2
 3475 19d8 0133     		adds	r3, r3, #1
 3476 19da FB73     		strb	r3, [r7, #15]
 3477              	.L175:
 429:.\LCD.c       ****                             write_LCD(lcd,button[16][x],2,x+40,0,0x2110,'Y');   //Nombre de boton L
 3478              		.loc 1 429 0 is_stmt 0 discriminator 1
 3479 19dc FB7B     		ldrb	r3, [r7, #15]	@ zero_extendqisi2
 3480 19de 072B     		cmp	r3, #7
 3481 19e0 E1D9     		bls	.L176
 432:.\LCD.c       ****                     break;
 3482              		.loc 1 432 0 is_stmt 1
 3483 19e2 224B     		ldr	r3, .L261+8
 3484 19e4 1B78     		ldrb	r3, [r3]
 3485 19e6 DAB2     		uxtb	r2, r3
 3486 19e8 F979     		ldrb	r1, [r7, #7]	@ zero_extendqisi2
 3487 19ea 0123     		movs	r3, #1
 3488 19ec 0093     		str	r3, [sp]
 3489 19ee 4FF45043 		mov	r3, #53248
 3490 19f2 0193     		str	r3, [sp, #4]
 3491 19f4 5923     		movs	r3, #89
 3492 19f6 0293     		str	r3, [sp, #8]
 3493 19f8 0846     		mov	r0, r1
 3494 19fa 1146     		mov	r1, r2
 3495 19fc 0422     		movs	r2, #4
 3496 19fe 1023     		movs	r3, #16
 3497 1a00 FFF7FEFF 		bl	write_LCD
 433:.\LCD.c       ****                     
 3498              		.loc 1 433 0
 3499 1a04 90E0     		b	.L163
 3500              	.L164:
 436:.\LCD.c       ****                         write_LCD(lcd,'1',2,41,0,0x2110,'Y');   //Nombre de boton P1
 3501              		.loc 1 436 0
 3502 1a06 FA79     		ldrb	r2, [r7, #7]	@ zero_extendqisi2
 3503 1a08 0023     		movs	r3, #0
 3504 1a0a 0093     		str	r3, [sp]
 3505 1a0c 42F21013 		movw	r3, #8464
 3506 1a10 0193     		str	r3, [sp, #4]
 3507 1a12 5923     		movs	r3, #89
 3508 1a14 0293     		str	r3, [sp, #8]
 3509 1a16 1046     		mov	r0, r2
 3510 1a18 5021     		movs	r1, #80
 3511 1a1a 0222     		movs	r2, #2
 3512 1a1c 2823     		movs	r3, #40
 3513 1a1e FFF7FEFF 		bl	write_LCD
 437:.\LCD.c       ****                         write_LCD(lcd,symbols[0],4,16,1,0xD000,'Y');   //Simbolo de dinero
 3514              		.loc 1 437 0
 3515 1a22 FA79     		ldrb	r2, [r7, #7]	@ zero_extendqisi2
ARM GAS  C:\Users\PROYEC~1\AppData\Local\Temp\ccMsBWpv.s 			page 73


 3516 1a24 0023     		movs	r3, #0
 3517 1a26 0093     		str	r3, [sp]
 3518 1a28 42F21013 		movw	r3, #8464
 3519 1a2c 0193     		str	r3, [sp, #4]
 3520 1a2e 5923     		movs	r3, #89
 3521 1a30 0293     		str	r3, [sp, #8]
 3522 1a32 1046     		mov	r0, r2
 3523 1a34 3121     		movs	r1, #49
 3524 1a36 0222     		movs	r2, #2
 3525 1a38 2923     		movs	r3, #41
 3526 1a3a FFF7FEFF 		bl	write_LCD
 438:.\LCD.c       ****                     break;
 3527              		.loc 1 438 0
 3528 1a3e 0B4B     		ldr	r3, .L261+8
 3529 1a40 1B78     		ldrb	r3, [r3]
 3530 1a42 DAB2     		uxtb	r2, r3
 3531 1a44 F979     		ldrb	r1, [r7, #7]	@ zero_extendqisi2
 3532 1a46 0123     		movs	r3, #1
 3533 1a48 0093     		str	r3, [sp]
 3534 1a4a 4FF45043 		mov	r3, #53248
 3535 1a4e 0193     		str	r3, [sp, #4]
 3536 1a50 5923     		movs	r3, #89
 3537 1a52 0293     		str	r3, [sp, #8]
 3538 1a54 0846     		mov	r0, r1
 3539 1a56 1146     		mov	r1, r2
 3540 1a58 0422     		movs	r2, #4
 3541 1a5a 1023     		movs	r3, #16
 3542 1a5c FFF7FEFF 		bl	write_LCD
 439:.\LCD.c       ****                     
 3543              		.loc 1 439 0
 3544 1a60 62E0     		b	.L163
 3545              	.L262:
 3546 1a62 00BF     		.align	2
 3547              	.L261:
 3548 1a64 00000000 		.word	bufferLCD2
 3549 1a68 00000000 		.word	button
 3550 1a6c 00000000 		.word	symbols
 3551              	.L166:
 442:.\LCD.c       ****                         write_LCD(lcd,'2',2,41,0,0x2110,'Y');   //Nombre de boton P1
 3552              		.loc 1 442 0
 3553 1a70 FA79     		ldrb	r2, [r7, #7]	@ zero_extendqisi2
 3554 1a72 0023     		movs	r3, #0
 3555 1a74 0093     		str	r3, [sp]
 3556 1a76 42F21013 		movw	r3, #8464
 3557 1a7a 0193     		str	r3, [sp, #4]
 3558 1a7c 5923     		movs	r3, #89
 3559 1a7e 0293     		str	r3, [sp, #8]
 3560 1a80 1046     		mov	r0, r2
 3561 1a82 5021     		movs	r1, #80
 3562 1a84 0222     		movs	r2, #2
 3563 1a86 2823     		movs	r3, #40
 3564 1a88 FFF7FEFF 		bl	write_LCD
 443:.\LCD.c       ****                         write_LCD(lcd,symbols[0],4,16,1,0xD000,'Y');   //Simbolo de dinero
 3565              		.loc 1 443 0
 3566 1a8c FA79     		ldrb	r2, [r7, #7]	@ zero_extendqisi2
 3567 1a8e 0023     		movs	r3, #0
 3568 1a90 0093     		str	r3, [sp]
ARM GAS  C:\Users\PROYEC~1\AppData\Local\Temp\ccMsBWpv.s 			page 74


 3569 1a92 42F21013 		movw	r3, #8464
 3570 1a96 0193     		str	r3, [sp, #4]
 3571 1a98 5923     		movs	r3, #89
 3572 1a9a 0293     		str	r3, [sp, #8]
 3573 1a9c 1046     		mov	r0, r2
 3574 1a9e 3221     		movs	r1, #50
 3575 1aa0 0222     		movs	r2, #2
 3576 1aa2 2923     		movs	r3, #41
 3577 1aa4 FFF7FEFF 		bl	write_LCD
 444:.\LCD.c       ****                     break;
 3578              		.loc 1 444 0
 3579 1aa8 B14B     		ldr	r3, .L263
 3580 1aaa 1B78     		ldrb	r3, [r3]
 3581 1aac DAB2     		uxtb	r2, r3
 3582 1aae F979     		ldrb	r1, [r7, #7]	@ zero_extendqisi2
 3583 1ab0 0123     		movs	r3, #1
 3584 1ab2 0093     		str	r3, [sp]
 3585 1ab4 4FF45043 		mov	r3, #53248
 3586 1ab8 0193     		str	r3, [sp, #4]
 3587 1aba 5923     		movs	r3, #89
 3588 1abc 0293     		str	r3, [sp, #8]
 3589 1abe 0846     		mov	r0, r1
 3590 1ac0 1146     		mov	r1, r2
 3591 1ac2 0422     		movs	r2, #4
 3592 1ac4 1023     		movs	r3, #16
 3593 1ac6 FFF7FEFF 		bl	write_LCD
 445:.\LCD.c       ****                     
 3594              		.loc 1 445 0
 3595 1aca 2DE0     		b	.L163
 3596              	.L167:
 448:.\LCD.c       ****                         write_LCD(lcd,'3',2,41,0,0x2110,'Y');   //Nombre de boton P1
 3597              		.loc 1 448 0
 3598 1acc FA79     		ldrb	r2, [r7, #7]	@ zero_extendqisi2
 3599 1ace 0023     		movs	r3, #0
 3600 1ad0 0093     		str	r3, [sp]
 3601 1ad2 42F21013 		movw	r3, #8464
 3602 1ad6 0193     		str	r3, [sp, #4]
 3603 1ad8 5923     		movs	r3, #89
 3604 1ada 0293     		str	r3, [sp, #8]
 3605 1adc 1046     		mov	r0, r2
 3606 1ade 5021     		movs	r1, #80
 3607 1ae0 0222     		movs	r2, #2
 3608 1ae2 2823     		movs	r3, #40
 3609 1ae4 FFF7FEFF 		bl	write_LCD
 449:.\LCD.c       ****                         write_LCD(lcd,symbols[0],4,16,1,0xD000,'Y');   //Simbolo de dinero
 3610              		.loc 1 449 0
 3611 1ae8 FA79     		ldrb	r2, [r7, #7]	@ zero_extendqisi2
 3612 1aea 0023     		movs	r3, #0
 3613 1aec 0093     		str	r3, [sp]
 3614 1aee 42F21013 		movw	r3, #8464
 3615 1af2 0193     		str	r3, [sp, #4]
 3616 1af4 5923     		movs	r3, #89
 3617 1af6 0293     		str	r3, [sp, #8]
 3618 1af8 1046     		mov	r0, r2
 3619 1afa 3321     		movs	r1, #51
 3620 1afc 0222     		movs	r2, #2
 3621 1afe 2923     		movs	r3, #41
ARM GAS  C:\Users\PROYEC~1\AppData\Local\Temp\ccMsBWpv.s 			page 75


 3622 1b00 FFF7FEFF 		bl	write_LCD
 450:.\LCD.c       ****                     break;
 3623              		.loc 1 450 0
 3624 1b04 9A4B     		ldr	r3, .L263
 3625 1b06 1B78     		ldrb	r3, [r3]
 3626 1b08 DAB2     		uxtb	r2, r3
 3627 1b0a F979     		ldrb	r1, [r7, #7]	@ zero_extendqisi2
 3628 1b0c 0123     		movs	r3, #1
 3629 1b0e 0093     		str	r3, [sp]
 3630 1b10 4FF45043 		mov	r3, #53248
 3631 1b14 0193     		str	r3, [sp, #4]
 3632 1b16 5923     		movs	r3, #89
 3633 1b18 0293     		str	r3, [sp, #8]
 3634 1b1a 0846     		mov	r0, r1
 3635 1b1c 1146     		mov	r1, r2
 3636 1b1e 0422     		movs	r2, #4
 3637 1b20 1023     		movs	r3, #16
 3638 1b22 FFF7FEFF 		bl	write_LCD
 451:.\LCD.c       ****                 }
 3639              		.loc 1 451 0
 3640 1b26 00BF     		nop
 3641              	.L163:
 453:.\LCD.c       ****                 for(x=1;x<=bufferLCD2.presetValue[1][0];x++){
 3642              		.loc 1 453 0
 3643 1b28 0023     		movs	r3, #0
 3644 1b2a 7B73     		strb	r3, [r7, #13]
 454:.\LCD.c       ****                     if(bufferLCD2.presetValue[1][x]=='0' && flag==0){
 3645              		.loc 1 454 0
 3646 1b2c 0123     		movs	r3, #1
 3647 1b2e FB73     		strb	r3, [r7, #15]
 3648 1b30 26E0     		b	.L177
 3649              	.L180:
 455:.\LCD.c       ****                     }else{
 3650              		.loc 1 455 0
 3651 1b32 FB7B     		ldrb	r3, [r7, #15]	@ zero_extendqisi2
 3652 1b34 8F4A     		ldr	r2, .L263+4
 3653 1b36 1344     		add	r3, r3, r2
 3654 1b38 93F86E30 		ldrb	r3, [r3, #110]	@ zero_extendqisi2
 3655 1b3c 302B     		cmp	r3, #48
 3656 1b3e 03D1     		bne	.L178
 455:.\LCD.c       ****                     }else{
 3657              		.loc 1 455 0 is_stmt 0 discriminator 1
 3658 1b40 7B7B     		ldrb	r3, [r7, #13]	@ zero_extendqisi2
 3659 1b42 002B     		cmp	r3, #0
 3660 1b44 00D1     		bne	.L178
 455:.\LCD.c       ****                     }else{
 3661              		.loc 1 455 0
 3662 1b46 18E0     		b	.L179
 3663              	.L178:
 457:.\LCD.c       ****                         flag=1;
 3664              		.loc 1 457 0 is_stmt 1
 3665 1b48 FB7B     		ldrb	r3, [r7, #15]	@ zero_extendqisi2
 3666 1b4a 8A4A     		ldr	r2, .L263+4
 3667 1b4c 1344     		add	r3, r3, r2
 3668 1b4e 93F86E20 		ldrb	r2, [r3, #110]	@ zero_extendqisi2
 3669 1b52 FB7B     		ldrb	r3, [r7, #15]	@ zero_extendqisi2
 3670 1b54 9BB2     		uxth	r3, r3
ARM GAS  C:\Users\PROYEC~1\AppData\Local\Temp\ccMsBWpv.s 			page 76


 3671 1b56 1033     		adds	r3, r3, #16
 3672 1b58 9CB2     		uxth	r4, r3
 3673 1b5a F979     		ldrb	r1, [r7, #7]	@ zero_extendqisi2
 3674 1b5c 0123     		movs	r3, #1
 3675 1b5e 0093     		str	r3, [sp]
 3676 1b60 42F21013 		movw	r3, #8464
 3677 1b64 0193     		str	r3, [sp, #4]
 3678 1b66 5923     		movs	r3, #89
 3679 1b68 0293     		str	r3, [sp, #8]
 3680 1b6a 0846     		mov	r0, r1
 3681 1b6c 1146     		mov	r1, r2
 3682 1b6e 0422     		movs	r2, #4
 3683 1b70 2346     		mov	r3, r4
 3684 1b72 FFF7FEFF 		bl	write_LCD
 458:.\LCD.c       ****                     }
 3685              		.loc 1 458 0
 3686 1b76 0123     		movs	r3, #1
 3687 1b78 7B73     		strb	r3, [r7, #13]
 3688              	.L179:
 454:.\LCD.c       ****                     if(bufferLCD2.presetValue[1][x]=='0' && flag==0){
 3689              		.loc 1 454 0 discriminator 2
 3690 1b7a FB7B     		ldrb	r3, [r7, #15]	@ zero_extendqisi2
 3691 1b7c 0133     		adds	r3, r3, #1
 3692 1b7e FB73     		strb	r3, [r7, #15]
 3693              	.L177:
 454:.\LCD.c       ****                     if(bufferLCD2.presetValue[1][x]=='0' && flag==0){
 3694              		.loc 1 454 0 is_stmt 0 discriminator 1
 3695 1b80 7C4B     		ldr	r3, .L263+4
 3696 1b82 93F86E30 		ldrb	r3, [r3, #110]	@ zero_extendqisi2
 3697 1b86 FA7B     		ldrb	r2, [r7, #15]	@ zero_extendqisi2
 3698 1b88 9A42     		cmp	r2, r3
 3699 1b8a D2D9     		bls	.L180
 3700              		.loc 1 462 0 is_stmt 1 discriminator 2
 3701 1b8c 01F05BBB 		b	.L16
 3702              	.L27:
 463:.\LCD.c       ****             
 464:.\LCD.c       ****         case '3'://Teclado Placa
 465:.\LCD.c       ****             for(x=0;x<8;x++){
 3703              		.loc 1 465 0
 3704 1b90 0023     		movs	r3, #0
 3705 1b92 FB73     		strb	r3, [r7, #15]
 3706 1b94 32E0     		b	.L181
 3707              	.L182:
 466:.\LCD.c       ****                 write_LCD(lcd,button[38][x],7,x+6,1,0x2110,'Y');   //Nombre de imagen Teclado Placa
 3708              		.loc 1 466 0 discriminator 3
 3709 1b96 FB7B     		ldrb	r3, [r7, #15]	@ zero_extendqisi2
 3710 1b98 774A     		ldr	r2, .L263+8
 3711 1b9a 1344     		add	r3, r3, r2
 3712 1b9c 93F83031 		ldrb	r3, [r3, #304]
 3713 1ba0 DAB2     		uxtb	r2, r3
 3714 1ba2 FB7B     		ldrb	r3, [r7, #15]	@ zero_extendqisi2
 3715 1ba4 9BB2     		uxth	r3, r3
 3716 1ba6 0633     		adds	r3, r3, #6
 3717 1ba8 9CB2     		uxth	r4, r3
 3718 1baa F979     		ldrb	r1, [r7, #7]	@ zero_extendqisi2
 3719 1bac 0123     		movs	r3, #1
 3720 1bae 0093     		str	r3, [sp]
ARM GAS  C:\Users\PROYEC~1\AppData\Local\Temp\ccMsBWpv.s 			page 77


 3721 1bb0 42F21013 		movw	r3, #8464
 3722 1bb4 0193     		str	r3, [sp, #4]
 3723 1bb6 5923     		movs	r3, #89
 3724 1bb8 0293     		str	r3, [sp, #8]
 3725 1bba 0846     		mov	r0, r1
 3726 1bbc 1146     		mov	r1, r2
 3727 1bbe 0722     		movs	r2, #7
 3728 1bc0 2346     		mov	r3, r4
 3729 1bc2 FFF7FEFF 		bl	write_LCD
 467:.\LCD.c       ****                 write_LCD(lcd,button[39][x],7,x+14,1,0x2110,'Y');   //Nombre de imagen Teclado Plac
 3730              		.loc 1 467 0 discriminator 3
 3731 1bc6 FB7B     		ldrb	r3, [r7, #15]	@ zero_extendqisi2
 3732 1bc8 6B4A     		ldr	r2, .L263+8
 3733 1bca 1344     		add	r3, r3, r2
 3734 1bcc 93F83831 		ldrb	r3, [r3, #312]
 3735 1bd0 DAB2     		uxtb	r2, r3
 3736 1bd2 FB7B     		ldrb	r3, [r7, #15]	@ zero_extendqisi2
 3737 1bd4 9BB2     		uxth	r3, r3
 3738 1bd6 0E33     		adds	r3, r3, #14
 3739 1bd8 9CB2     		uxth	r4, r3
 3740 1bda F979     		ldrb	r1, [r7, #7]	@ zero_extendqisi2
 3741 1bdc 0123     		movs	r3, #1
 3742 1bde 0093     		str	r3, [sp]
 3743 1be0 42F21013 		movw	r3, #8464
 3744 1be4 0193     		str	r3, [sp, #4]
 3745 1be6 5923     		movs	r3, #89
 3746 1be8 0293     		str	r3, [sp, #8]
 3747 1bea 0846     		mov	r0, r1
 3748 1bec 1146     		mov	r1, r2
 3749 1bee 0722     		movs	r2, #7
 3750 1bf0 2346     		mov	r3, r4
 3751 1bf2 FFF7FEFF 		bl	write_LCD
 465:.\LCD.c       ****                 write_LCD(lcd,button[38][x],7,x+6,1,0x2110,'Y');   //Nombre de imagen Teclado Placa
 3752              		.loc 1 465 0 discriminator 3
 3753 1bf6 FB7B     		ldrb	r3, [r7, #15]	@ zero_extendqisi2
 3754 1bf8 0133     		adds	r3, r3, #1
 3755 1bfa FB73     		strb	r3, [r7, #15]
 3756              	.L181:
 465:.\LCD.c       ****                 write_LCD(lcd,button[38][x],7,x+6,1,0x2110,'Y');   //Nombre de imagen Teclado Placa
 3757              		.loc 1 465 0 is_stmt 0 discriminator 1
 3758 1bfc FB7B     		ldrb	r3, [r7, #15]	@ zero_extendqisi2
 3759 1bfe 072B     		cmp	r3, #7
 3760 1c00 C9D9     		bls	.L182
 468:.\LCD.c       ****             }
 469:.\LCD.c       ****         break;
 3761              		.loc 1 469 0 is_stmt 1
 3762 1c02 01F020BB 		b	.L16
 3763              	.L28:
 470:.\LCD.c       ****             
 471:.\LCD.c       ****         case '4'://Teclado Kilometraje
 472:.\LCD.c       ****             for(x=0;x<8;x++){
 3764              		.loc 1 472 0
 3765 1c06 0023     		movs	r3, #0
 3766 1c08 FB73     		strb	r3, [r7, #15]
 3767 1c0a 32E0     		b	.L183
 3768              	.L184:
 473:.\LCD.c       ****                 write_LCD(lcd,button[40][x],14,x+1,2,0x2110,'Y');   //Nombre de imagen Teclado Kilo
ARM GAS  C:\Users\PROYEC~1\AppData\Local\Temp\ccMsBWpv.s 			page 78


 3769              		.loc 1 473 0 discriminator 3
 3770 1c0c FB7B     		ldrb	r3, [r7, #15]	@ zero_extendqisi2
 3771 1c0e 5A4A     		ldr	r2, .L263+8
 3772 1c10 1344     		add	r3, r3, r2
 3773 1c12 93F84031 		ldrb	r3, [r3, #320]
 3774 1c16 DAB2     		uxtb	r2, r3
 3775 1c18 FB7B     		ldrb	r3, [r7, #15]	@ zero_extendqisi2
 3776 1c1a 9BB2     		uxth	r3, r3
 3777 1c1c 0133     		adds	r3, r3, #1
 3778 1c1e 9CB2     		uxth	r4, r3
 3779 1c20 F979     		ldrb	r1, [r7, #7]	@ zero_extendqisi2
 3780 1c22 0223     		movs	r3, #2
 3781 1c24 0093     		str	r3, [sp]
 3782 1c26 42F21013 		movw	r3, #8464
 3783 1c2a 0193     		str	r3, [sp, #4]
 3784 1c2c 5923     		movs	r3, #89
 3785 1c2e 0293     		str	r3, [sp, #8]
 3786 1c30 0846     		mov	r0, r1
 3787 1c32 1146     		mov	r1, r2
 3788 1c34 0E22     		movs	r2, #14
 3789 1c36 2346     		mov	r3, r4
 3790 1c38 FFF7FEFF 		bl	write_LCD
 474:.\LCD.c       ****                 write_LCD(lcd,button[41][x],18,x+1,2,0x2110,'Y');   //Nombre de imagen Teclado Kilo
 3791              		.loc 1 474 0 discriminator 3
 3792 1c3c FB7B     		ldrb	r3, [r7, #15]	@ zero_extendqisi2
 3793 1c3e 4E4A     		ldr	r2, .L263+8
 3794 1c40 1344     		add	r3, r3, r2
 3795 1c42 93F84831 		ldrb	r3, [r3, #328]
 3796 1c46 DAB2     		uxtb	r2, r3
 3797 1c48 FB7B     		ldrb	r3, [r7, #15]	@ zero_extendqisi2
 3798 1c4a 9BB2     		uxth	r3, r3
 3799 1c4c 0133     		adds	r3, r3, #1
 3800 1c4e 9CB2     		uxth	r4, r3
 3801 1c50 F979     		ldrb	r1, [r7, #7]	@ zero_extendqisi2
 3802 1c52 0223     		movs	r3, #2
 3803 1c54 0093     		str	r3, [sp]
 3804 1c56 42F21013 		movw	r3, #8464
 3805 1c5a 0193     		str	r3, [sp, #4]
 3806 1c5c 5923     		movs	r3, #89
 3807 1c5e 0293     		str	r3, [sp, #8]
 3808 1c60 0846     		mov	r0, r1
 3809 1c62 1146     		mov	r1, r2
 3810 1c64 1222     		movs	r2, #18
 3811 1c66 2346     		mov	r3, r4
 3812 1c68 FFF7FEFF 		bl	write_LCD
 472:.\LCD.c       ****                 write_LCD(lcd,button[40][x],14,x+1,2,0x2110,'Y');   //Nombre de imagen Teclado Kilo
 3813              		.loc 1 472 0 discriminator 3
 3814 1c6c FB7B     		ldrb	r3, [r7, #15]	@ zero_extendqisi2
 3815 1c6e 0133     		adds	r3, r3, #1
 3816 1c70 FB73     		strb	r3, [r7, #15]
 3817              	.L183:
 472:.\LCD.c       ****                 write_LCD(lcd,button[40][x],14,x+1,2,0x2110,'Y');   //Nombre de imagen Teclado Kilo
 3818              		.loc 1 472 0 is_stmt 0 discriminator 1
 3819 1c72 FB7B     		ldrb	r3, [r7, #15]	@ zero_extendqisi2
 3820 1c74 072B     		cmp	r3, #7
 3821 1c76 C9D9     		bls	.L184
 475:.\LCD.c       ****             }
ARM GAS  C:\Users\PROYEC~1\AppData\Local\Temp\ccMsBWpv.s 			page 79


 476:.\LCD.c       ****         break;
 3822              		.loc 1 476 0 is_stmt 1
 3823 1c78 01F0E5BA 		b	.L16
 3824              	.L29:
 477:.\LCD.c       ****             
 478:.\LCD.c       ****         case '5'://Teclado Nit/CC
 479:.\LCD.c       ****             for(x=0;x<8;x++){
 3825              		.loc 1 479 0
 3826 1c7c 0023     		movs	r3, #0
 3827 1c7e FB73     		strb	r3, [r7, #15]
 3828 1c80 32E0     		b	.L185
 3829              	.L186:
 480:.\LCD.c       ****                 write_LCD(lcd,button[42][x],14,x+1,2,0x2110,'Y');   //Nombre de imagen Teclado Nit/
 3830              		.loc 1 480 0 discriminator 3
 3831 1c82 FB7B     		ldrb	r3, [r7, #15]	@ zero_extendqisi2
 3832 1c84 3C4A     		ldr	r2, .L263+8
 3833 1c86 1344     		add	r3, r3, r2
 3834 1c88 93F85031 		ldrb	r3, [r3, #336]
 3835 1c8c DAB2     		uxtb	r2, r3
 3836 1c8e FB7B     		ldrb	r3, [r7, #15]	@ zero_extendqisi2
 3837 1c90 9BB2     		uxth	r3, r3
 3838 1c92 0133     		adds	r3, r3, #1
 3839 1c94 9CB2     		uxth	r4, r3
 3840 1c96 F979     		ldrb	r1, [r7, #7]	@ zero_extendqisi2
 3841 1c98 0223     		movs	r3, #2
 3842 1c9a 0093     		str	r3, [sp]
 3843 1c9c 42F21013 		movw	r3, #8464
 3844 1ca0 0193     		str	r3, [sp, #4]
 3845 1ca2 5923     		movs	r3, #89
 3846 1ca4 0293     		str	r3, [sp, #8]
 3847 1ca6 0846     		mov	r0, r1
 3848 1ca8 1146     		mov	r1, r2
 3849 1caa 0E22     		movs	r2, #14
 3850 1cac 2346     		mov	r3, r4
 3851 1cae FFF7FEFF 		bl	write_LCD
 481:.\LCD.c       ****                 write_LCD(lcd,button[43][x],18,x+1,2,0x2110,'Y');   //Nombre de imagen Teclado Nit/
 3852              		.loc 1 481 0 discriminator 3
 3853 1cb2 FB7B     		ldrb	r3, [r7, #15]	@ zero_extendqisi2
 3854 1cb4 304A     		ldr	r2, .L263+8
 3855 1cb6 1344     		add	r3, r3, r2
 3856 1cb8 93F85831 		ldrb	r3, [r3, #344]
 3857 1cbc DAB2     		uxtb	r2, r3
 3858 1cbe FB7B     		ldrb	r3, [r7, #15]	@ zero_extendqisi2
 3859 1cc0 9BB2     		uxth	r3, r3
 3860 1cc2 0133     		adds	r3, r3, #1
 3861 1cc4 9CB2     		uxth	r4, r3
 3862 1cc6 F979     		ldrb	r1, [r7, #7]	@ zero_extendqisi2
 3863 1cc8 0223     		movs	r3, #2
 3864 1cca 0093     		str	r3, [sp]
 3865 1ccc 42F21013 		movw	r3, #8464
 3866 1cd0 0193     		str	r3, [sp, #4]
 3867 1cd2 5923     		movs	r3, #89
 3868 1cd4 0293     		str	r3, [sp, #8]
 3869 1cd6 0846     		mov	r0, r1
 3870 1cd8 1146     		mov	r1, r2
 3871 1cda 1222     		movs	r2, #18
 3872 1cdc 2346     		mov	r3, r4
ARM GAS  C:\Users\PROYEC~1\AppData\Local\Temp\ccMsBWpv.s 			page 80


 3873 1cde FFF7FEFF 		bl	write_LCD
 479:.\LCD.c       ****                 write_LCD(lcd,button[42][x],14,x+1,2,0x2110,'Y');   //Nombre de imagen Teclado Nit/
 3874              		.loc 1 479 0 discriminator 3
 3875 1ce2 FB7B     		ldrb	r3, [r7, #15]	@ zero_extendqisi2
 3876 1ce4 0133     		adds	r3, r3, #1
 3877 1ce6 FB73     		strb	r3, [r7, #15]
 3878              	.L185:
 479:.\LCD.c       ****                 write_LCD(lcd,button[42][x],14,x+1,2,0x2110,'Y');   //Nombre de imagen Teclado Nit/
 3879              		.loc 1 479 0 is_stmt 0 discriminator 1
 3880 1ce8 FB7B     		ldrb	r3, [r7, #15]	@ zero_extendqisi2
 3881 1cea 072B     		cmp	r3, #7
 3882 1cec C9D9     		bls	.L186
 482:.\LCD.c       ****             }
 483:.\LCD.c       ****         break;
 3883              		.loc 1 483 0 is_stmt 1
 3884 1cee 01F0AABA 		b	.L16
 3885              	.L30:
 484:.\LCD.c       ****         
 485:.\LCD.c       ****         case '6'://Teclado N Venta F. de pago
 486:.\LCD.c       ****             for(x=0;x<8;x++){
 3886              		.loc 1 486 0
 3887 1cf2 0023     		movs	r3, #0
 3888 1cf4 FB73     		strb	r3, [r7, #15]
 3889 1cf6 32E0     		b	.L187
 3890              	.L188:
 487:.\LCD.c       ****                 write_LCD(lcd,button[84][x],14,x+1,2,0x2110,'Y');   //Nombre de imagen Teclado Vent
 3891              		.loc 1 487 0 discriminator 3
 3892 1cf8 FB7B     		ldrb	r3, [r7, #15]	@ zero_extendqisi2
 3893 1cfa 1F4A     		ldr	r2, .L263+8
 3894 1cfc 1344     		add	r3, r3, r2
 3895 1cfe 93F8A032 		ldrb	r3, [r3, #672]
 3896 1d02 DAB2     		uxtb	r2, r3
 3897 1d04 FB7B     		ldrb	r3, [r7, #15]	@ zero_extendqisi2
 3898 1d06 9BB2     		uxth	r3, r3
 3899 1d08 0133     		adds	r3, r3, #1
 3900 1d0a 9CB2     		uxth	r4, r3
 3901 1d0c F979     		ldrb	r1, [r7, #7]	@ zero_extendqisi2
 3902 1d0e 0223     		movs	r3, #2
 3903 1d10 0093     		str	r3, [sp]
 3904 1d12 42F21013 		movw	r3, #8464
 3905 1d16 0193     		str	r3, [sp, #4]
 3906 1d18 5923     		movs	r3, #89
 3907 1d1a 0293     		str	r3, [sp, #8]
 3908 1d1c 0846     		mov	r0, r1
 3909 1d1e 1146     		mov	r1, r2
 3910 1d20 0E22     		movs	r2, #14
 3911 1d22 2346     		mov	r3, r4
 3912 1d24 FFF7FEFF 		bl	write_LCD
 488:.\LCD.c       ****                 write_LCD(lcd,button[85][x],18,x+1,2,0x2110,'Y');   //Nombre de imagen Teclado Vent
 3913              		.loc 1 488 0 discriminator 3
 3914 1d28 FB7B     		ldrb	r3, [r7, #15]	@ zero_extendqisi2
 3915 1d2a 134A     		ldr	r2, .L263+8
 3916 1d2c 1344     		add	r3, r3, r2
 3917 1d2e 93F8A832 		ldrb	r3, [r3, #680]
 3918 1d32 DAB2     		uxtb	r2, r3
 3919 1d34 FB7B     		ldrb	r3, [r7, #15]	@ zero_extendqisi2
 3920 1d36 9BB2     		uxth	r3, r3
ARM GAS  C:\Users\PROYEC~1\AppData\Local\Temp\ccMsBWpv.s 			page 81


 3921 1d38 0133     		adds	r3, r3, #1
 3922 1d3a 9CB2     		uxth	r4, r3
 3923 1d3c F979     		ldrb	r1, [r7, #7]	@ zero_extendqisi2
 3924 1d3e 0223     		movs	r3, #2
 3925 1d40 0093     		str	r3, [sp]
 3926 1d42 42F21013 		movw	r3, #8464
 3927 1d46 0193     		str	r3, [sp, #4]
 3928 1d48 5923     		movs	r3, #89
 3929 1d4a 0293     		str	r3, [sp, #8]
 3930 1d4c 0846     		mov	r0, r1
 3931 1d4e 1146     		mov	r1, r2
 3932 1d50 1222     		movs	r2, #18
 3933 1d52 2346     		mov	r3, r4
 3934 1d54 FFF7FEFF 		bl	write_LCD
 486:.\LCD.c       ****                 write_LCD(lcd,button[84][x],14,x+1,2,0x2110,'Y');   //Nombre de imagen Teclado Vent
 3935              		.loc 1 486 0 discriminator 3
 3936 1d58 FB7B     		ldrb	r3, [r7, #15]	@ zero_extendqisi2
 3937 1d5a 0133     		adds	r3, r3, #1
 3938 1d5c FB73     		strb	r3, [r7, #15]
 3939              	.L187:
 486:.\LCD.c       ****                 write_LCD(lcd,button[84][x],14,x+1,2,0x2110,'Y');   //Nombre de imagen Teclado Vent
 3940              		.loc 1 486 0 is_stmt 0 discriminator 1
 3941 1d5e FB7B     		ldrb	r3, [r7, #15]	@ zero_extendqisi2
 3942 1d60 072B     		cmp	r3, #7
 3943 1d62 C9D9     		bls	.L188
 489:.\LCD.c       ****             }
 490:.\LCD.c       ****         break;
 3944              		.loc 1 490 0 is_stmt 1
 3945 1d64 01F06FBA 		b	.L16
 3946              	.L31:
 491:.\LCD.c       ****             
 492:.\LCD.c       ****         case '7'://Teclado Dinero Venta F. de pago
 493:.\LCD.c       ****             for(x=0;x<8;x++){
 3947              		.loc 1 493 0
 3948 1d68 0023     		movs	r3, #0
 3949 1d6a FB73     		strb	r3, [r7, #15]
 3950 1d6c 39E0     		b	.L189
 3951              	.L264:
 3952 1d6e 00BF     		.align	2
 3953              	.L263:
 3954 1d70 00000000 		.word	symbols
 3955 1d74 00000000 		.word	bufferLCD2
 3956 1d78 00000000 		.word	button
 3957              	.L190:
 494:.\LCD.c       ****                 write_LCD(lcd,button[86][x],14,x+1,2,0x2110,'Y');   //Nombre de imagen Teclado Vent
 3958              		.loc 1 494 0 discriminator 3
 3959 1d7c FB7B     		ldrb	r3, [r7, #15]	@ zero_extendqisi2
 3960 1d7e B04A     		ldr	r2, .L265
 3961 1d80 1344     		add	r3, r3, r2
 3962 1d82 93F8B032 		ldrb	r3, [r3, #688]
 3963 1d86 DAB2     		uxtb	r2, r3
 3964 1d88 FB7B     		ldrb	r3, [r7, #15]	@ zero_extendqisi2
 3965 1d8a 9BB2     		uxth	r3, r3
 3966 1d8c 0133     		adds	r3, r3, #1
 3967 1d8e 9CB2     		uxth	r4, r3
 3968 1d90 F979     		ldrb	r1, [r7, #7]	@ zero_extendqisi2
 3969 1d92 0223     		movs	r3, #2
ARM GAS  C:\Users\PROYEC~1\AppData\Local\Temp\ccMsBWpv.s 			page 82


 3970 1d94 0093     		str	r3, [sp]
 3971 1d96 42F21013 		movw	r3, #8464
 3972 1d9a 0193     		str	r3, [sp, #4]
 3973 1d9c 5923     		movs	r3, #89
 3974 1d9e 0293     		str	r3, [sp, #8]
 3975 1da0 0846     		mov	r0, r1
 3976 1da2 1146     		mov	r1, r2
 3977 1da4 0E22     		movs	r2, #14
 3978 1da6 2346     		mov	r3, r4
 3979 1da8 FFF7FEFF 		bl	write_LCD
 495:.\LCD.c       ****                 write_LCD(lcd,button[87][x],18,x+1,2,0x2110,'Y');   //Nombre de imagen Teclado Vent
 3980              		.loc 1 495 0 discriminator 3
 3981 1dac FB7B     		ldrb	r3, [r7, #15]	@ zero_extendqisi2
 3982 1dae A44A     		ldr	r2, .L265
 3983 1db0 1344     		add	r3, r3, r2
 3984 1db2 93F8B832 		ldrb	r3, [r3, #696]
 3985 1db6 DAB2     		uxtb	r2, r3
 3986 1db8 FB7B     		ldrb	r3, [r7, #15]	@ zero_extendqisi2
 3987 1dba 9BB2     		uxth	r3, r3
 3988 1dbc 0133     		adds	r3, r3, #1
 3989 1dbe 9CB2     		uxth	r4, r3
 3990 1dc0 F979     		ldrb	r1, [r7, #7]	@ zero_extendqisi2
 3991 1dc2 0223     		movs	r3, #2
 3992 1dc4 0093     		str	r3, [sp]
 3993 1dc6 42F21013 		movw	r3, #8464
 3994 1dca 0193     		str	r3, [sp, #4]
 3995 1dcc 5923     		movs	r3, #89
 3996 1dce 0293     		str	r3, [sp, #8]
 3997 1dd0 0846     		mov	r0, r1
 3998 1dd2 1146     		mov	r1, r2
 3999 1dd4 1222     		movs	r2, #18
 4000 1dd6 2346     		mov	r3, r4
 4001 1dd8 FFF7FEFF 		bl	write_LCD
 493:.\LCD.c       ****                 write_LCD(lcd,button[86][x],14,x+1,2,0x2110,'Y');   //Nombre de imagen Teclado Vent
 4002              		.loc 1 493 0 discriminator 3
 4003 1ddc FB7B     		ldrb	r3, [r7, #15]	@ zero_extendqisi2
 4004 1dde 0133     		adds	r3, r3, #1
 4005 1de0 FB73     		strb	r3, [r7, #15]
 4006              	.L189:
 493:.\LCD.c       ****                 write_LCD(lcd,button[86][x],14,x+1,2,0x2110,'Y');   //Nombre de imagen Teclado Vent
 4007              		.loc 1 493 0 is_stmt 0 discriminator 1
 4008 1de2 FB7B     		ldrb	r3, [r7, #15]	@ zero_extendqisi2
 4009 1de4 072B     		cmp	r3, #7
 4010 1de6 C9D9     		bls	.L190
 496:.\LCD.c       ****             }
 497:.\LCD.c       ****         break;
 4011              		.loc 1 497 0 is_stmt 1
 4012 1de8 01F02DBA 		b	.L16
 4013              	.L32:
 498:.\LCD.c       ****         
 499:.\LCD.c       ****         case '8'://Teclado Serial
 500:.\LCD.c       ****             for(x=0;x<8;x++){
 4014              		.loc 1 500 0
 4015 1dec 0023     		movs	r3, #0
 4016 1dee FB73     		strb	r3, [r7, #15]
 4017 1df0 32E0     		b	.L191
 4018              	.L192:
ARM GAS  C:\Users\PROYEC~1\AppData\Local\Temp\ccMsBWpv.s 			page 83


 501:.\LCD.c       ****                 write_LCD(lcd,button[38][x],7,x+6,1,0x2110,'Y');   //Nombre de imagen Teclado Seria
 4019              		.loc 1 501 0 discriminator 3
 4020 1df2 FB7B     		ldrb	r3, [r7, #15]	@ zero_extendqisi2
 4021 1df4 924A     		ldr	r2, .L265
 4022 1df6 1344     		add	r3, r3, r2
 4023 1df8 93F83031 		ldrb	r3, [r3, #304]
 4024 1dfc DAB2     		uxtb	r2, r3
 4025 1dfe FB7B     		ldrb	r3, [r7, #15]	@ zero_extendqisi2
 4026 1e00 9BB2     		uxth	r3, r3
 4027 1e02 0633     		adds	r3, r3, #6
 4028 1e04 9CB2     		uxth	r4, r3
 4029 1e06 F979     		ldrb	r1, [r7, #7]	@ zero_extendqisi2
 4030 1e08 0123     		movs	r3, #1
 4031 1e0a 0093     		str	r3, [sp]
 4032 1e0c 42F21013 		movw	r3, #8464
 4033 1e10 0193     		str	r3, [sp, #4]
 4034 1e12 5923     		movs	r3, #89
 4035 1e14 0293     		str	r3, [sp, #8]
 4036 1e16 0846     		mov	r0, r1
 4037 1e18 1146     		mov	r1, r2
 4038 1e1a 0722     		movs	r2, #7
 4039 1e1c 2346     		mov	r3, r4
 4040 1e1e FFF7FEFF 		bl	write_LCD
 502:.\LCD.c       ****                 write_LCD(lcd,button[81][x],7,x+14,1,0x2110,'Y');   //Nombre de imagen Teclado Seri
 4041              		.loc 1 502 0 discriminator 3
 4042 1e22 FB7B     		ldrb	r3, [r7, #15]	@ zero_extendqisi2
 4043 1e24 864A     		ldr	r2, .L265
 4044 1e26 1344     		add	r3, r3, r2
 4045 1e28 93F88832 		ldrb	r3, [r3, #648]
 4046 1e2c DAB2     		uxtb	r2, r3
 4047 1e2e FB7B     		ldrb	r3, [r7, #15]	@ zero_extendqisi2
 4048 1e30 9BB2     		uxth	r3, r3
 4049 1e32 0E33     		adds	r3, r3, #14
 4050 1e34 9CB2     		uxth	r4, r3
 4051 1e36 F979     		ldrb	r1, [r7, #7]	@ zero_extendqisi2
 4052 1e38 0123     		movs	r3, #1
 4053 1e3a 0093     		str	r3, [sp]
 4054 1e3c 42F21013 		movw	r3, #8464
 4055 1e40 0193     		str	r3, [sp, #4]
 4056 1e42 5923     		movs	r3, #89
 4057 1e44 0293     		str	r3, [sp, #8]
 4058 1e46 0846     		mov	r0, r1
 4059 1e48 1146     		mov	r1, r2
 4060 1e4a 0722     		movs	r2, #7
 4061 1e4c 2346     		mov	r3, r4
 4062 1e4e FFF7FEFF 		bl	write_LCD
 500:.\LCD.c       ****                 write_LCD(lcd,button[38][x],7,x+6,1,0x2110,'Y');   //Nombre de imagen Teclado Seria
 4063              		.loc 1 500 0 discriminator 3
 4064 1e52 FB7B     		ldrb	r3, [r7, #15]	@ zero_extendqisi2
 4065 1e54 0133     		adds	r3, r3, #1
 4066 1e56 FB73     		strb	r3, [r7, #15]
 4067              	.L191:
 500:.\LCD.c       ****                 write_LCD(lcd,button[38][x],7,x+6,1,0x2110,'Y');   //Nombre de imagen Teclado Seria
 4068              		.loc 1 500 0 is_stmt 0 discriminator 1
 4069 1e58 FB7B     		ldrb	r3, [r7, #15]	@ zero_extendqisi2
 4070 1e5a 072B     		cmp	r3, #7
 4071 1e5c C9D9     		bls	.L192
ARM GAS  C:\Users\PROYEC~1\AppData\Local\Temp\ccMsBWpv.s 			page 84


 503:.\LCD.c       ****             }
 504:.\LCD.c       ****         break;
 4072              		.loc 1 504 0 is_stmt 1
 4073 1e5e 01F0F2B9 		b	.L16
 4074              	.L33:
 505:.\LCD.c       ****             
 506:.\LCD.c       ****         case '9'://Teclado Codigo de barras
 507:.\LCD.c       ****             for(x=0;x<8;x++){
 4075              		.loc 1 507 0
 4076 1e62 0023     		movs	r3, #0
 4077 1e64 FB73     		strb	r3, [r7, #15]
 4078 1e66 32E0     		b	.L193
 4079              	.L194:
 508:.\LCD.c       ****                 write_LCD(lcd,button[104][x],7,x+6,1,0x2110,'Y');   //Nombre de imagen Codigo de ba
 4080              		.loc 1 508 0 discriminator 3
 4081 1e68 FB7B     		ldrb	r3, [r7, #15]	@ zero_extendqisi2
 4082 1e6a 754A     		ldr	r2, .L265
 4083 1e6c 1344     		add	r3, r3, r2
 4084 1e6e 93F84033 		ldrb	r3, [r3, #832]
 4085 1e72 DAB2     		uxtb	r2, r3
 4086 1e74 FB7B     		ldrb	r3, [r7, #15]	@ zero_extendqisi2
 4087 1e76 9BB2     		uxth	r3, r3
 4088 1e78 0633     		adds	r3, r3, #6
 4089 1e7a 9CB2     		uxth	r4, r3
 4090 1e7c F979     		ldrb	r1, [r7, #7]	@ zero_extendqisi2
 4091 1e7e 0123     		movs	r3, #1
 4092 1e80 0093     		str	r3, [sp]
 4093 1e82 42F21013 		movw	r3, #8464
 4094 1e86 0193     		str	r3, [sp, #4]
 4095 1e88 5923     		movs	r3, #89
 4096 1e8a 0293     		str	r3, [sp, #8]
 4097 1e8c 0846     		mov	r0, r1
 4098 1e8e 1146     		mov	r1, r2
 4099 1e90 0722     		movs	r2, #7
 4100 1e92 2346     		mov	r3, r4
 4101 1e94 FFF7FEFF 		bl	write_LCD
 509:.\LCD.c       ****                 write_LCD(lcd,button[105][x],7,x+14,1,0x2110,'Y');   //Nombre de imagen Codigo de b
 4102              		.loc 1 509 0 discriminator 3
 4103 1e98 FB7B     		ldrb	r3, [r7, #15]	@ zero_extendqisi2
 4104 1e9a 694A     		ldr	r2, .L265
 4105 1e9c 1344     		add	r3, r3, r2
 4106 1e9e 93F84833 		ldrb	r3, [r3, #840]
 4107 1ea2 DAB2     		uxtb	r2, r3
 4108 1ea4 FB7B     		ldrb	r3, [r7, #15]	@ zero_extendqisi2
 4109 1ea6 9BB2     		uxth	r3, r3
 4110 1ea8 0E33     		adds	r3, r3, #14
 4111 1eaa 9CB2     		uxth	r4, r3
 4112 1eac F979     		ldrb	r1, [r7, #7]	@ zero_extendqisi2
 4113 1eae 0123     		movs	r3, #1
 4114 1eb0 0093     		str	r3, [sp]
 4115 1eb2 42F21013 		movw	r3, #8464
 4116 1eb6 0193     		str	r3, [sp, #4]
 4117 1eb8 5923     		movs	r3, #89
 4118 1eba 0293     		str	r3, [sp, #8]
 4119 1ebc 0846     		mov	r0, r1
 4120 1ebe 1146     		mov	r1, r2
 4121 1ec0 0722     		movs	r2, #7
ARM GAS  C:\Users\PROYEC~1\AppData\Local\Temp\ccMsBWpv.s 			page 85


 4122 1ec2 2346     		mov	r3, r4
 4123 1ec4 FFF7FEFF 		bl	write_LCD
 507:.\LCD.c       ****                 write_LCD(lcd,button[104][x],7,x+6,1,0x2110,'Y');   //Nombre de imagen Codigo de ba
 4124              		.loc 1 507 0 discriminator 3
 4125 1ec8 FB7B     		ldrb	r3, [r7, #15]	@ zero_extendqisi2
 4126 1eca 0133     		adds	r3, r3, #1
 4127 1ecc FB73     		strb	r3, [r7, #15]
 4128              	.L193:
 507:.\LCD.c       ****                 write_LCD(lcd,button[104][x],7,x+6,1,0x2110,'Y');   //Nombre de imagen Codigo de ba
 4129              		.loc 1 507 0 is_stmt 0 discriminator 1
 4130 1ece FB7B     		ldrb	r3, [r7, #15]	@ zero_extendqisi2
 4131 1ed0 072B     		cmp	r3, #7
 4132 1ed2 C9D9     		bls	.L194
 510:.\LCD.c       ****             }
 511:.\LCD.c       ****         break;
 4133              		.loc 1 511 0 is_stmt 1
 4134 1ed4 01F0B7B9 		b	.L16
 4135              	.L24:
 512:.\LCD.c       ****             
 513:.\LCD.c       ****         case '0'://Teclado cantidad canasta
 514:.\LCD.c       ****             for(x=0;x<8;x++){
 4136              		.loc 1 514 0
 4137 1ed8 0023     		movs	r3, #0
 4138 1eda FB73     		strb	r3, [r7, #15]
 4139 1edc 32E0     		b	.L195
 4140              	.L196:
 515:.\LCD.c       ****                 write_LCD(lcd,button[104][x],14,x+1,2,0x2110,'Y');   //Nombre de imagen Teclado Ven
 4141              		.loc 1 515 0 discriminator 3
 4142 1ede FB7B     		ldrb	r3, [r7, #15]	@ zero_extendqisi2
 4143 1ee0 574A     		ldr	r2, .L265
 4144 1ee2 1344     		add	r3, r3, r2
 4145 1ee4 93F84033 		ldrb	r3, [r3, #832]
 4146 1ee8 DAB2     		uxtb	r2, r3
 4147 1eea FB7B     		ldrb	r3, [r7, #15]	@ zero_extendqisi2
 4148 1eec 9BB2     		uxth	r3, r3
 4149 1eee 0133     		adds	r3, r3, #1
 4150 1ef0 9CB2     		uxth	r4, r3
 4151 1ef2 F979     		ldrb	r1, [r7, #7]	@ zero_extendqisi2
 4152 1ef4 0223     		movs	r3, #2
 4153 1ef6 0093     		str	r3, [sp]
 4154 1ef8 42F21013 		movw	r3, #8464
 4155 1efc 0193     		str	r3, [sp, #4]
 4156 1efe 5923     		movs	r3, #89
 4157 1f00 0293     		str	r3, [sp, #8]
 4158 1f02 0846     		mov	r0, r1
 4159 1f04 1146     		mov	r1, r2
 4160 1f06 0E22     		movs	r2, #14
 4161 1f08 2346     		mov	r3, r4
 4162 1f0a FFF7FEFF 		bl	write_LCD
 516:.\LCD.c       ****                 write_LCD(lcd,button[101][x],18,x+1,2,0x2110,'Y');   //Nombre de imagen Teclado Ven
 4163              		.loc 1 516 0 discriminator 3
 4164 1f0e FB7B     		ldrb	r3, [r7, #15]	@ zero_extendqisi2
 4165 1f10 4B4A     		ldr	r2, .L265
 4166 1f12 1344     		add	r3, r3, r2
 4167 1f14 93F82833 		ldrb	r3, [r3, #808]
 4168 1f18 DAB2     		uxtb	r2, r3
 4169 1f1a FB7B     		ldrb	r3, [r7, #15]	@ zero_extendqisi2
ARM GAS  C:\Users\PROYEC~1\AppData\Local\Temp\ccMsBWpv.s 			page 86


 4170 1f1c 9BB2     		uxth	r3, r3
 4171 1f1e 0133     		adds	r3, r3, #1
 4172 1f20 9CB2     		uxth	r4, r3
 4173 1f22 F979     		ldrb	r1, [r7, #7]	@ zero_extendqisi2
 4174 1f24 0223     		movs	r3, #2
 4175 1f26 0093     		str	r3, [sp]
 4176 1f28 42F21013 		movw	r3, #8464
 4177 1f2c 0193     		str	r3, [sp, #4]
 4178 1f2e 5923     		movs	r3, #89
 4179 1f30 0293     		str	r3, [sp, #8]
 4180 1f32 0846     		mov	r0, r1
 4181 1f34 1146     		mov	r1, r2
 4182 1f36 1222     		movs	r2, #18
 4183 1f38 2346     		mov	r3, r4
 4184 1f3a FFF7FEFF 		bl	write_LCD
 514:.\LCD.c       ****                 write_LCD(lcd,button[104][x],14,x+1,2,0x2110,'Y');   //Nombre de imagen Teclado Ven
 4185              		.loc 1 514 0 discriminator 3
 4186 1f3e FB7B     		ldrb	r3, [r7, #15]	@ zero_extendqisi2
 4187 1f40 0133     		adds	r3, r3, #1
 4188 1f42 FB73     		strb	r3, [r7, #15]
 4189              	.L195:
 514:.\LCD.c       ****                 write_LCD(lcd,button[104][x],14,x+1,2,0x2110,'Y');   //Nombre de imagen Teclado Ven
 4190              		.loc 1 514 0 is_stmt 0 discriminator 1
 4191 1f44 FB7B     		ldrb	r3, [r7, #15]	@ zero_extendqisi2
 4192 1f46 072B     		cmp	r3, #7
 4193 1f48 C9D9     		bls	.L196
 517:.\LCD.c       ****             }
 518:.\LCD.c       ****         break;
 4194              		.loc 1 518 0 is_stmt 1
 4195 1f4a 01F07CB9 		b	.L16
 4196              	.L23:
 519:.\LCD.c       ****             
 520:.\LCD.c       ****         case '*'://Teclado contrasea
 521:.\LCD.c       ****             for(x=0;x<8;x++){
 4197              		.loc 1 521 0
 4198 1f4e 0023     		movs	r3, #0
 4199 1f50 FB73     		strb	r3, [r7, #15]
 4200 1f52 32E0     		b	.L197
 4201              	.L198:
 522:.\LCD.c       ****                 write_LCD(lcd,button[112][x],14,x+1,2,0x2110,'Y');   //Nombre de imagen Teclado Con
 4202              		.loc 1 522 0 discriminator 3
 4203 1f54 FB7B     		ldrb	r3, [r7, #15]	@ zero_extendqisi2
 4204 1f56 3A4A     		ldr	r2, .L265
 4205 1f58 1344     		add	r3, r3, r2
 4206 1f5a 93F88033 		ldrb	r3, [r3, #896]
 4207 1f5e DAB2     		uxtb	r2, r3
 4208 1f60 FB7B     		ldrb	r3, [r7, #15]	@ zero_extendqisi2
 4209 1f62 9BB2     		uxth	r3, r3
 4210 1f64 0133     		adds	r3, r3, #1
 4211 1f66 9CB2     		uxth	r4, r3
 4212 1f68 F979     		ldrb	r1, [r7, #7]	@ zero_extendqisi2
 4213 1f6a 0223     		movs	r3, #2
 4214 1f6c 0093     		str	r3, [sp]
 4215 1f6e 42F21013 		movw	r3, #8464
 4216 1f72 0193     		str	r3, [sp, #4]
 4217 1f74 5923     		movs	r3, #89
 4218 1f76 0293     		str	r3, [sp, #8]
ARM GAS  C:\Users\PROYEC~1\AppData\Local\Temp\ccMsBWpv.s 			page 87


 4219 1f78 0846     		mov	r0, r1
 4220 1f7a 1146     		mov	r1, r2
 4221 1f7c 0E22     		movs	r2, #14
 4222 1f7e 2346     		mov	r3, r4
 4223 1f80 FFF7FEFF 		bl	write_LCD
 523:.\LCD.c       ****                 write_LCD(lcd,button[113][x],18,x+1,2,0x2110,'Y');   //Nombre de imagen Teclado Con
 4224              		.loc 1 523 0 discriminator 3
 4225 1f84 FB7B     		ldrb	r3, [r7, #15]	@ zero_extendqisi2
 4226 1f86 2E4A     		ldr	r2, .L265
 4227 1f88 1344     		add	r3, r3, r2
 4228 1f8a 93F88833 		ldrb	r3, [r3, #904]
 4229 1f8e DAB2     		uxtb	r2, r3
 4230 1f90 FB7B     		ldrb	r3, [r7, #15]	@ zero_extendqisi2
 4231 1f92 9BB2     		uxth	r3, r3
 4232 1f94 0133     		adds	r3, r3, #1
 4233 1f96 9CB2     		uxth	r4, r3
 4234 1f98 F979     		ldrb	r1, [r7, #7]	@ zero_extendqisi2
 4235 1f9a 0223     		movs	r3, #2
 4236 1f9c 0093     		str	r3, [sp]
 4237 1f9e 42F21013 		movw	r3, #8464
 4238 1fa2 0193     		str	r3, [sp, #4]
 4239 1fa4 5923     		movs	r3, #89
 4240 1fa6 0293     		str	r3, [sp, #8]
 4241 1fa8 0846     		mov	r0, r1
 4242 1faa 1146     		mov	r1, r2
 4243 1fac 1222     		movs	r2, #18
 4244 1fae 2346     		mov	r3, r4
 4245 1fb0 FFF7FEFF 		bl	write_LCD
 521:.\LCD.c       ****                 write_LCD(lcd,button[112][x],14,x+1,2,0x2110,'Y');   //Nombre de imagen Teclado Con
 4246              		.loc 1 521 0 discriminator 3
 4247 1fb4 FB7B     		ldrb	r3, [r7, #15]	@ zero_extendqisi2
 4248 1fb6 0133     		adds	r3, r3, #1
 4249 1fb8 FB73     		strb	r3, [r7, #15]
 4250              	.L197:
 521:.\LCD.c       ****                 write_LCD(lcd,button[112][x],14,x+1,2,0x2110,'Y');   //Nombre de imagen Teclado Con
 4251              		.loc 1 521 0 is_stmt 0 discriminator 1
 4252 1fba FB7B     		ldrb	r3, [r7, #15]	@ zero_extendqisi2
 4253 1fbc 072B     		cmp	r3, #7
 4254 1fbe C9D9     		bls	.L198
 524:.\LCD.c       ****             }
 525:.\LCD.c       ****         break;
 4255              		.loc 1 525 0 is_stmt 1
 4256 1fc0 01F041B9 		b	.L16
 4257              	.L37:
 526:.\LCD.c       ****             
 527:.\LCD.c       ****         case 'F'://Formas de pago
 528:.\LCD.c       ****             for(x=0;x<8;x++){
 4258              		.loc 1 528 0
 4259 1fc4 0023     		movs	r3, #0
 4260 1fc6 FB73     		strb	r3, [r7, #15]
 4261 1fc8 32E0     		b	.L199
 4262              	.L200:
 529:.\LCD.c       ****                 write_LCD(lcd,button[44][x],2,x+1,2,0x2110,'Y');   //Nombre de imagen Formas de pag
 4263              		.loc 1 529 0 discriminator 3
 4264 1fca FB7B     		ldrb	r3, [r7, #15]	@ zero_extendqisi2
 4265 1fcc 1C4A     		ldr	r2, .L265
 4266 1fce 1344     		add	r3, r3, r2
ARM GAS  C:\Users\PROYEC~1\AppData\Local\Temp\ccMsBWpv.s 			page 88


 4267 1fd0 93F86031 		ldrb	r3, [r3, #352]
 4268 1fd4 DAB2     		uxtb	r2, r3
 4269 1fd6 FB7B     		ldrb	r3, [r7, #15]	@ zero_extendqisi2
 4270 1fd8 9BB2     		uxth	r3, r3
 4271 1fda 0133     		adds	r3, r3, #1
 4272 1fdc 9CB2     		uxth	r4, r3
 4273 1fde F979     		ldrb	r1, [r7, #7]	@ zero_extendqisi2
 4274 1fe0 0223     		movs	r3, #2
 4275 1fe2 0093     		str	r3, [sp]
 4276 1fe4 42F21013 		movw	r3, #8464
 4277 1fe8 0193     		str	r3, [sp, #4]
 4278 1fea 5923     		movs	r3, #89
 4279 1fec 0293     		str	r3, [sp, #8]
 4280 1fee 0846     		mov	r0, r1
 4281 1ff0 1146     		mov	r1, r2
 4282 1ff2 0222     		movs	r2, #2
 4283 1ff4 2346     		mov	r3, r4
 4284 1ff6 FFF7FEFF 		bl	write_LCD
 530:.\LCD.c       ****                 write_LCD(lcd,button[45][x],2,x+9,2,0x2110,'Y');   //Nombre de imagen Formas de pag
 4285              		.loc 1 530 0 discriminator 3
 4286 1ffa FB7B     		ldrb	r3, [r7, #15]	@ zero_extendqisi2
 4287 1ffc 104A     		ldr	r2, .L265
 4288 1ffe 1344     		add	r3, r3, r2
 4289 2000 93F86831 		ldrb	r3, [r3, #360]
 4290 2004 DAB2     		uxtb	r2, r3
 4291 2006 FB7B     		ldrb	r3, [r7, #15]	@ zero_extendqisi2
 4292 2008 9BB2     		uxth	r3, r3
 4293 200a 0933     		adds	r3, r3, #9
 4294 200c 9CB2     		uxth	r4, r3
 4295 200e F979     		ldrb	r1, [r7, #7]	@ zero_extendqisi2
 4296 2010 0223     		movs	r3, #2
 4297 2012 0093     		str	r3, [sp]
 4298 2014 42F21013 		movw	r3, #8464
 4299 2018 0193     		str	r3, [sp, #4]
 4300 201a 5923     		movs	r3, #89
 4301 201c 0293     		str	r3, [sp, #8]
 4302 201e 0846     		mov	r0, r1
 4303 2020 1146     		mov	r1, r2
 4304 2022 0222     		movs	r2, #2
 4305 2024 2346     		mov	r3, r4
 4306 2026 FFF7FEFF 		bl	write_LCD
 528:.\LCD.c       ****                 write_LCD(lcd,button[44][x],2,x+1,2,0x2110,'Y');   //Nombre de imagen Formas de pag
 4307              		.loc 1 528 0 discriminator 3
 4308 202a FB7B     		ldrb	r3, [r7, #15]	@ zero_extendqisi2
 4309 202c 0133     		adds	r3, r3, #1
 4310 202e FB73     		strb	r3, [r7, #15]
 4311              	.L199:
 528:.\LCD.c       ****                 write_LCD(lcd,button[44][x],2,x+1,2,0x2110,'Y');   //Nombre de imagen Formas de pag
 4312              		.loc 1 528 0 is_stmt 0 discriminator 1
 4313 2030 FB7B     		ldrb	r3, [r7, #15]	@ zero_extendqisi2
 4314 2032 072B     		cmp	r3, #7
 4315 2034 C9D9     		bls	.L200
 531:.\LCD.c       ****             }
 532:.\LCD.c       ****         break;
 4316              		.loc 1 532 0 is_stmt 1
 4317 2036 01F006B9 		b	.L16
 4318              	.L18:
ARM GAS  C:\Users\PROYEC~1\AppData\Local\Temp\ccMsBWpv.s 			page 89


 533:.\LCD.c       ****             
 534:.\LCD.c       ****         case 1://Nombres a Formas de pago pagina 1
 535:.\LCD.c       ****             for(x=0;x<8;x++){
 4319              		.loc 1 535 0
 4320 203a 0023     		movs	r3, #0
 4321 203c FB73     		strb	r3, [r7, #15]
 4322 203e 94E0     		b	.L201
 4323              	.L266:
 4324              		.align	2
 4325              	.L265:
 4326 2040 00000000 		.word	button
 4327              	.L202:
 536:.\LCD.c       ****                 write_LCD(lcd,button[46][x],9,x+4,1,0xFFFF,'Y');     //Nombre Forma de pago 1
 4328              		.loc 1 536 0 discriminator 3
 4329 2044 FB7B     		ldrb	r3, [r7, #15]	@ zero_extendqisi2
 4330 2046 9B4A     		ldr	r2, .L267
 4331 2048 1344     		add	r3, r3, r2
 4332 204a 93F87031 		ldrb	r3, [r3, #368]
 4333 204e DAB2     		uxtb	r2, r3
 4334 2050 FB7B     		ldrb	r3, [r7, #15]	@ zero_extendqisi2
 4335 2052 9BB2     		uxth	r3, r3
 4336 2054 0433     		adds	r3, r3, #4
 4337 2056 9CB2     		uxth	r4, r3
 4338 2058 F979     		ldrb	r1, [r7, #7]	@ zero_extendqisi2
 4339 205a 0123     		movs	r3, #1
 4340 205c 0093     		str	r3, [sp]
 4341 205e 4FF6FF73 		movw	r3, #65535
 4342 2062 0193     		str	r3, [sp, #4]
 4343 2064 5923     		movs	r3, #89
 4344 2066 0293     		str	r3, [sp, #8]
 4345 2068 0846     		mov	r0, r1
 4346 206a 1146     		mov	r1, r2
 4347 206c 0922     		movs	r2, #9
 4348 206e 2346     		mov	r3, r4
 4349 2070 FFF7FEFF 		bl	write_LCD
 537:.\LCD.c       ****                 write_LCD(lcd,button[47][x],9,x+15,1,0xFFFF,'Y');    //Nombre Forma de pago 2
 4350              		.loc 1 537 0 discriminator 3
 4351 2074 FB7B     		ldrb	r3, [r7, #15]	@ zero_extendqisi2
 4352 2076 8F4A     		ldr	r2, .L267
 4353 2078 1344     		add	r3, r3, r2
 4354 207a 93F87831 		ldrb	r3, [r3, #376]
 4355 207e DAB2     		uxtb	r2, r3
 4356 2080 FB7B     		ldrb	r3, [r7, #15]	@ zero_extendqisi2
 4357 2082 9BB2     		uxth	r3, r3
 4358 2084 0F33     		adds	r3, r3, #15
 4359 2086 9CB2     		uxth	r4, r3
 4360 2088 F979     		ldrb	r1, [r7, #7]	@ zero_extendqisi2
 4361 208a 0123     		movs	r3, #1
 4362 208c 0093     		str	r3, [sp]
 4363 208e 4FF6FF73 		movw	r3, #65535
 4364 2092 0193     		str	r3, [sp, #4]
 4365 2094 5923     		movs	r3, #89
 4366 2096 0293     		str	r3, [sp, #8]
 4367 2098 0846     		mov	r0, r1
 4368 209a 1146     		mov	r1, r2
 4369 209c 0922     		movs	r2, #9
 4370 209e 2346     		mov	r3, r4
ARM GAS  C:\Users\PROYEC~1\AppData\Local\Temp\ccMsBWpv.s 			page 90


 4371 20a0 FFF7FEFF 		bl	write_LCD
 538:.\LCD.c       ****                 write_LCD(lcd,button[48][x],15,x+4,1,0xFFFF,'Y');    //Nombre Forma de pago 3
 4372              		.loc 1 538 0 discriminator 3
 4373 20a4 FB7B     		ldrb	r3, [r7, #15]	@ zero_extendqisi2
 4374 20a6 834A     		ldr	r2, .L267
 4375 20a8 1344     		add	r3, r3, r2
 4376 20aa 93F88031 		ldrb	r3, [r3, #384]
 4377 20ae DAB2     		uxtb	r2, r3
 4378 20b0 FB7B     		ldrb	r3, [r7, #15]	@ zero_extendqisi2
 4379 20b2 9BB2     		uxth	r3, r3
 4380 20b4 0433     		adds	r3, r3, #4
 4381 20b6 9CB2     		uxth	r4, r3
 4382 20b8 F979     		ldrb	r1, [r7, #7]	@ zero_extendqisi2
 4383 20ba 0123     		movs	r3, #1
 4384 20bc 0093     		str	r3, [sp]
 4385 20be 4FF6FF73 		movw	r3, #65535
 4386 20c2 0193     		str	r3, [sp, #4]
 4387 20c4 5923     		movs	r3, #89
 4388 20c6 0293     		str	r3, [sp, #8]
 4389 20c8 0846     		mov	r0, r1
 4390 20ca 1146     		mov	r1, r2
 4391 20cc 0F22     		movs	r2, #15
 4392 20ce 2346     		mov	r3, r4
 4393 20d0 FFF7FEFF 		bl	write_LCD
 539:.\LCD.c       ****                 write_LCD(lcd,button[49][x],15,x+15,1,0xFFFF,'Y');   //Nombre Forma de pago 4
 4394              		.loc 1 539 0 discriminator 3
 4395 20d4 FB7B     		ldrb	r3, [r7, #15]	@ zero_extendqisi2
 4396 20d6 774A     		ldr	r2, .L267
 4397 20d8 1344     		add	r3, r3, r2
 4398 20da 93F88831 		ldrb	r3, [r3, #392]
 4399 20de DAB2     		uxtb	r2, r3
 4400 20e0 FB7B     		ldrb	r3, [r7, #15]	@ zero_extendqisi2
 4401 20e2 9BB2     		uxth	r3, r3
 4402 20e4 0F33     		adds	r3, r3, #15
 4403 20e6 9CB2     		uxth	r4, r3
 4404 20e8 F979     		ldrb	r1, [r7, #7]	@ zero_extendqisi2
 4405 20ea 0123     		movs	r3, #1
 4406 20ec 0093     		str	r3, [sp]
 4407 20ee 4FF6FF73 		movw	r3, #65535
 4408 20f2 0193     		str	r3, [sp, #4]
 4409 20f4 5923     		movs	r3, #89
 4410 20f6 0293     		str	r3, [sp, #8]
 4411 20f8 0846     		mov	r0, r1
 4412 20fa 1146     		mov	r1, r2
 4413 20fc 0F22     		movs	r2, #15
 4414 20fe 2346     		mov	r3, r4
 4415 2100 FFF7FEFF 		bl	write_LCD
 540:.\LCD.c       ****                 write_LCD(lcd,button[50][x],21,x+4,1,0xFFFF,'Y');    //Nombre Forma de pago 5
 4416              		.loc 1 540 0 discriminator 3
 4417 2104 FB7B     		ldrb	r3, [r7, #15]	@ zero_extendqisi2
 4418 2106 6B4A     		ldr	r2, .L267
 4419 2108 1344     		add	r3, r3, r2
 4420 210a 93F89031 		ldrb	r3, [r3, #400]
 4421 210e DAB2     		uxtb	r2, r3
 4422 2110 FB7B     		ldrb	r3, [r7, #15]	@ zero_extendqisi2
 4423 2112 9BB2     		uxth	r3, r3
 4424 2114 0433     		adds	r3, r3, #4
ARM GAS  C:\Users\PROYEC~1\AppData\Local\Temp\ccMsBWpv.s 			page 91


 4425 2116 9CB2     		uxth	r4, r3
 4426 2118 F979     		ldrb	r1, [r7, #7]	@ zero_extendqisi2
 4427 211a 0123     		movs	r3, #1
 4428 211c 0093     		str	r3, [sp]
 4429 211e 4FF6FF73 		movw	r3, #65535
 4430 2122 0193     		str	r3, [sp, #4]
 4431 2124 5923     		movs	r3, #89
 4432 2126 0293     		str	r3, [sp, #8]
 4433 2128 0846     		mov	r0, r1
 4434 212a 1146     		mov	r1, r2
 4435 212c 1522     		movs	r2, #21
 4436 212e 2346     		mov	r3, r4
 4437 2130 FFF7FEFF 		bl	write_LCD
 541:.\LCD.c       ****                 write_LCD(lcd,button[51][x],21,x+15,1,0xFFFF,'Y');   //Nombre Forma de pago 6
 4438              		.loc 1 541 0 discriminator 3
 4439 2134 FB7B     		ldrb	r3, [r7, #15]	@ zero_extendqisi2
 4440 2136 5F4A     		ldr	r2, .L267
 4441 2138 1344     		add	r3, r3, r2
 4442 213a 93F89831 		ldrb	r3, [r3, #408]
 4443 213e DAB2     		uxtb	r2, r3
 4444 2140 FB7B     		ldrb	r3, [r7, #15]	@ zero_extendqisi2
 4445 2142 9BB2     		uxth	r3, r3
 4446 2144 0F33     		adds	r3, r3, #15
 4447 2146 9CB2     		uxth	r4, r3
 4448 2148 F979     		ldrb	r1, [r7, #7]	@ zero_extendqisi2
 4449 214a 0123     		movs	r3, #1
 4450 214c 0093     		str	r3, [sp]
 4451 214e 4FF6FF73 		movw	r3, #65535
 4452 2152 0193     		str	r3, [sp, #4]
 4453 2154 5923     		movs	r3, #89
 4454 2156 0293     		str	r3, [sp, #8]
 4455 2158 0846     		mov	r0, r1
 4456 215a 1146     		mov	r1, r2
 4457 215c 1522     		movs	r2, #21
 4458 215e 2346     		mov	r3, r4
 4459 2160 FFF7FEFF 		bl	write_LCD
 535:.\LCD.c       ****                 write_LCD(lcd,button[46][x],9,x+4,1,0xFFFF,'Y');     //Nombre Forma de pago 1
 4460              		.loc 1 535 0 discriminator 3
 4461 2164 FB7B     		ldrb	r3, [r7, #15]	@ zero_extendqisi2
 4462 2166 0133     		adds	r3, r3, #1
 4463 2168 FB73     		strb	r3, [r7, #15]
 4464              	.L201:
 535:.\LCD.c       ****                 write_LCD(lcd,button[46][x],9,x+4,1,0xFFFF,'Y');     //Nombre Forma de pago 1
 4465              		.loc 1 535 0 is_stmt 0 discriminator 1
 4466 216a FB7B     		ldrb	r3, [r7, #15]	@ zero_extendqisi2
 4467 216c 072B     		cmp	r3, #7
 4468 216e 7FF669AF 		bls	.L202
 542:.\LCD.c       ****             }
 543:.\LCD.c       ****         break;
 4469              		.loc 1 543 0 is_stmt 1
 4470 2172 01F068B8 		b	.L16
 4471              	.L20:
 544:.\LCD.c       ****             
 545:.\LCD.c       ****         case 2://Nombres a Formas de pago pagina 2
 546:.\LCD.c       ****             for(x=0;x<8;x++){
 4472              		.loc 1 546 0
 4473 2176 0023     		movs	r3, #0
ARM GAS  C:\Users\PROYEC~1\AppData\Local\Temp\ccMsBWpv.s 			page 92


 4474 2178 FB73     		strb	r3, [r7, #15]
 4475 217a 92E0     		b	.L203
 4476              	.L204:
 547:.\LCD.c       ****                 write_LCD(lcd,button[52][x],9,x+4,1,0xFFFF,'Y');     //Nombre Forma de pago 7
 4477              		.loc 1 547 0 discriminator 3
 4478 217c FB7B     		ldrb	r3, [r7, #15]	@ zero_extendqisi2
 4479 217e 4D4A     		ldr	r2, .L267
 4480 2180 1344     		add	r3, r3, r2
 4481 2182 93F8A031 		ldrb	r3, [r3, #416]
 4482 2186 DAB2     		uxtb	r2, r3
 4483 2188 FB7B     		ldrb	r3, [r7, #15]	@ zero_extendqisi2
 4484 218a 9BB2     		uxth	r3, r3
 4485 218c 0433     		adds	r3, r3, #4
 4486 218e 9CB2     		uxth	r4, r3
 4487 2190 F979     		ldrb	r1, [r7, #7]	@ zero_extendqisi2
 4488 2192 0123     		movs	r3, #1
 4489 2194 0093     		str	r3, [sp]
 4490 2196 4FF6FF73 		movw	r3, #65535
 4491 219a 0193     		str	r3, [sp, #4]
 4492 219c 5923     		movs	r3, #89
 4493 219e 0293     		str	r3, [sp, #8]
 4494 21a0 0846     		mov	r0, r1
 4495 21a2 1146     		mov	r1, r2
 4496 21a4 0922     		movs	r2, #9
 4497 21a6 2346     		mov	r3, r4
 4498 21a8 FFF7FEFF 		bl	write_LCD
 548:.\LCD.c       ****                 write_LCD(lcd,button[53][x],9,x+15,1,0xFFFF,'Y');    //Nombre Forma de pago 8
 4499              		.loc 1 548 0 discriminator 3
 4500 21ac FB7B     		ldrb	r3, [r7, #15]	@ zero_extendqisi2
 4501 21ae 414A     		ldr	r2, .L267
 4502 21b0 1344     		add	r3, r3, r2
 4503 21b2 93F8A831 		ldrb	r3, [r3, #424]
 4504 21b6 DAB2     		uxtb	r2, r3
 4505 21b8 FB7B     		ldrb	r3, [r7, #15]	@ zero_extendqisi2
 4506 21ba 9BB2     		uxth	r3, r3
 4507 21bc 0F33     		adds	r3, r3, #15
 4508 21be 9CB2     		uxth	r4, r3
 4509 21c0 F979     		ldrb	r1, [r7, #7]	@ zero_extendqisi2
 4510 21c2 0123     		movs	r3, #1
 4511 21c4 0093     		str	r3, [sp]
 4512 21c6 4FF6FF73 		movw	r3, #65535
 4513 21ca 0193     		str	r3, [sp, #4]
 4514 21cc 5923     		movs	r3, #89
 4515 21ce 0293     		str	r3, [sp, #8]
 4516 21d0 0846     		mov	r0, r1
 4517 21d2 1146     		mov	r1, r2
 4518 21d4 0922     		movs	r2, #9
 4519 21d6 2346     		mov	r3, r4
 4520 21d8 FFF7FEFF 		bl	write_LCD
 549:.\LCD.c       ****                 write_LCD(lcd,button[54][x],15,x+4,1,0xFFFF,'Y');    //Nombre Forma de pago 9
 4521              		.loc 1 549 0 discriminator 3
 4522 21dc FB7B     		ldrb	r3, [r7, #15]	@ zero_extendqisi2
 4523 21de 354A     		ldr	r2, .L267
 4524 21e0 1344     		add	r3, r3, r2
 4525 21e2 93F8B031 		ldrb	r3, [r3, #432]
 4526 21e6 DAB2     		uxtb	r2, r3
 4527 21e8 FB7B     		ldrb	r3, [r7, #15]	@ zero_extendqisi2
ARM GAS  C:\Users\PROYEC~1\AppData\Local\Temp\ccMsBWpv.s 			page 93


 4528 21ea 9BB2     		uxth	r3, r3
 4529 21ec 0433     		adds	r3, r3, #4
 4530 21ee 9CB2     		uxth	r4, r3
 4531 21f0 F979     		ldrb	r1, [r7, #7]	@ zero_extendqisi2
 4532 21f2 0123     		movs	r3, #1
 4533 21f4 0093     		str	r3, [sp]
 4534 21f6 4FF6FF73 		movw	r3, #65535
 4535 21fa 0193     		str	r3, [sp, #4]
 4536 21fc 5923     		movs	r3, #89
 4537 21fe 0293     		str	r3, [sp, #8]
 4538 2200 0846     		mov	r0, r1
 4539 2202 1146     		mov	r1, r2
 4540 2204 0F22     		movs	r2, #15
 4541 2206 2346     		mov	r3, r4
 4542 2208 FFF7FEFF 		bl	write_LCD
 550:.\LCD.c       ****                 write_LCD(lcd,button[55][x],15,x+15,1,0xFFFF,'Y');   //Nombre Forma de pago 10
 4543              		.loc 1 550 0 discriminator 3
 4544 220c FB7B     		ldrb	r3, [r7, #15]	@ zero_extendqisi2
 4545 220e 294A     		ldr	r2, .L267
 4546 2210 1344     		add	r3, r3, r2
 4547 2212 93F8B831 		ldrb	r3, [r3, #440]
 4548 2216 DAB2     		uxtb	r2, r3
 4549 2218 FB7B     		ldrb	r3, [r7, #15]	@ zero_extendqisi2
 4550 221a 9BB2     		uxth	r3, r3
 4551 221c 0F33     		adds	r3, r3, #15
 4552 221e 9CB2     		uxth	r4, r3
 4553 2220 F979     		ldrb	r1, [r7, #7]	@ zero_extendqisi2
 4554 2222 0123     		movs	r3, #1
 4555 2224 0093     		str	r3, [sp]
 4556 2226 4FF6FF73 		movw	r3, #65535
 4557 222a 0193     		str	r3, [sp, #4]
 4558 222c 5923     		movs	r3, #89
 4559 222e 0293     		str	r3, [sp, #8]
 4560 2230 0846     		mov	r0, r1
 4561 2232 1146     		mov	r1, r2
 4562 2234 0F22     		movs	r2, #15
 4563 2236 2346     		mov	r3, r4
 4564 2238 FFF7FEFF 		bl	write_LCD
 551:.\LCD.c       ****                 write_LCD(lcd,button[56][x],21,x+4,1,0xFFFF,'Y');    //Nombre Forma de pago 11
 4565              		.loc 1 551 0 discriminator 3
 4566 223c FB7B     		ldrb	r3, [r7, #15]	@ zero_extendqisi2
 4567 223e 1D4A     		ldr	r2, .L267
 4568 2240 1344     		add	r3, r3, r2
 4569 2242 93F8C031 		ldrb	r3, [r3, #448]
 4570 2246 DAB2     		uxtb	r2, r3
 4571 2248 FB7B     		ldrb	r3, [r7, #15]	@ zero_extendqisi2
 4572 224a 9BB2     		uxth	r3, r3
 4573 224c 0433     		adds	r3, r3, #4
 4574 224e 9CB2     		uxth	r4, r3
 4575 2250 F979     		ldrb	r1, [r7, #7]	@ zero_extendqisi2
 4576 2252 0123     		movs	r3, #1
 4577 2254 0093     		str	r3, [sp]
 4578 2256 4FF6FF73 		movw	r3, #65535
 4579 225a 0193     		str	r3, [sp, #4]
 4580 225c 5923     		movs	r3, #89
 4581 225e 0293     		str	r3, [sp, #8]
 4582 2260 0846     		mov	r0, r1
ARM GAS  C:\Users\PROYEC~1\AppData\Local\Temp\ccMsBWpv.s 			page 94


 4583 2262 1146     		mov	r1, r2
 4584 2264 1522     		movs	r2, #21
 4585 2266 2346     		mov	r3, r4
 4586 2268 FFF7FEFF 		bl	write_LCD
 552:.\LCD.c       ****                 write_LCD(lcd,button[57][x],21,x+15,1,0xFFFF,'Y');   //Nombre Forma de pago 12
 4587              		.loc 1 552 0 discriminator 3
 4588 226c FB7B     		ldrb	r3, [r7, #15]	@ zero_extendqisi2
 4589 226e 114A     		ldr	r2, .L267
 4590 2270 1344     		add	r3, r3, r2
 4591 2272 93F8C831 		ldrb	r3, [r3, #456]
 4592 2276 DAB2     		uxtb	r2, r3
 4593 2278 FB7B     		ldrb	r3, [r7, #15]	@ zero_extendqisi2
 4594 227a 9BB2     		uxth	r3, r3
 4595 227c 0F33     		adds	r3, r3, #15
 4596 227e 9CB2     		uxth	r4, r3
 4597 2280 F979     		ldrb	r1, [r7, #7]	@ zero_extendqisi2
 4598 2282 0123     		movs	r3, #1
 4599 2284 0093     		str	r3, [sp]
 4600 2286 4FF6FF73 		movw	r3, #65535
 4601 228a 0193     		str	r3, [sp, #4]
 4602 228c 5923     		movs	r3, #89
 4603 228e 0293     		str	r3, [sp, #8]
 4604 2290 0846     		mov	r0, r1
 4605 2292 1146     		mov	r1, r2
 4606 2294 1522     		movs	r2, #21
 4607 2296 2346     		mov	r3, r4
 4608 2298 FFF7FEFF 		bl	write_LCD
 546:.\LCD.c       ****                 write_LCD(lcd,button[52][x],9,x+4,1,0xFFFF,'Y');     //Nombre Forma de pago 7
 4609              		.loc 1 546 0 discriminator 3
 4610 229c FB7B     		ldrb	r3, [r7, #15]	@ zero_extendqisi2
 4611 229e 0133     		adds	r3, r3, #1
 4612 22a0 FB73     		strb	r3, [r7, #15]
 4613              	.L203:
 546:.\LCD.c       ****                 write_LCD(lcd,button[52][x],9,x+4,1,0xFFFF,'Y');     //Nombre Forma de pago 7
 4614              		.loc 1 546 0 is_stmt 0 discriminator 1
 4615 22a2 FB7B     		ldrb	r3, [r7, #15]	@ zero_extendqisi2
 4616 22a4 072B     		cmp	r3, #7
 4617 22a6 7FF669AF 		bls	.L204
 553:.\LCD.c       ****             }
 554:.\LCD.c       ****         break;
 4618              		.loc 1 554 0 is_stmt 1
 4619 22aa 00F0CCBF 		b	.L16
 4620              	.L21:
 555:.\LCD.c       ****             
 556:.\LCD.c       ****         case 3://Nombres a Formas de pago pagina 3
 557:.\LCD.c       ****             for(x=0;x<8;x++){
 4621              		.loc 1 557 0
 4622 22ae 0023     		movs	r3, #0
 4623 22b0 FB73     		strb	r3, [r7, #15]
 4624 22b2 94E0     		b	.L205
 4625              	.L268:
 4626              		.align	2
 4627              	.L267:
 4628 22b4 00000000 		.word	button
 4629              	.L206:
 558:.\LCD.c       ****                 write_LCD(lcd,button[58][x],9,x+4,1,0xFFFF,'Y');     //Nombre Forma de pago 13
 4630              		.loc 1 558 0 discriminator 3
ARM GAS  C:\Users\PROYEC~1\AppData\Local\Temp\ccMsBWpv.s 			page 95


 4631 22b8 FB7B     		ldrb	r3, [r7, #15]	@ zero_extendqisi2
 4632 22ba 9B4A     		ldr	r2, .L269
 4633 22bc 1344     		add	r3, r3, r2
 4634 22be 93F8D031 		ldrb	r3, [r3, #464]
 4635 22c2 DAB2     		uxtb	r2, r3
 4636 22c4 FB7B     		ldrb	r3, [r7, #15]	@ zero_extendqisi2
 4637 22c6 9BB2     		uxth	r3, r3
 4638 22c8 0433     		adds	r3, r3, #4
 4639 22ca 9CB2     		uxth	r4, r3
 4640 22cc F979     		ldrb	r1, [r7, #7]	@ zero_extendqisi2
 4641 22ce 0123     		movs	r3, #1
 4642 22d0 0093     		str	r3, [sp]
 4643 22d2 4FF6FF73 		movw	r3, #65535
 4644 22d6 0193     		str	r3, [sp, #4]
 4645 22d8 5923     		movs	r3, #89
 4646 22da 0293     		str	r3, [sp, #8]
 4647 22dc 0846     		mov	r0, r1
 4648 22de 1146     		mov	r1, r2
 4649 22e0 0922     		movs	r2, #9
 4650 22e2 2346     		mov	r3, r4
 4651 22e4 FFF7FEFF 		bl	write_LCD
 559:.\LCD.c       ****                 write_LCD(lcd,button[59][x],9,x+15,1,0xFFFF,'Y');    //Nombre Forma de pago 14
 4652              		.loc 1 559 0 discriminator 3
 4653 22e8 FB7B     		ldrb	r3, [r7, #15]	@ zero_extendqisi2
 4654 22ea 8F4A     		ldr	r2, .L269
 4655 22ec 1344     		add	r3, r3, r2
 4656 22ee 93F8D831 		ldrb	r3, [r3, #472]
 4657 22f2 DAB2     		uxtb	r2, r3
 4658 22f4 FB7B     		ldrb	r3, [r7, #15]	@ zero_extendqisi2
 4659 22f6 9BB2     		uxth	r3, r3
 4660 22f8 0F33     		adds	r3, r3, #15
 4661 22fa 9CB2     		uxth	r4, r3
 4662 22fc F979     		ldrb	r1, [r7, #7]	@ zero_extendqisi2
 4663 22fe 0123     		movs	r3, #1
 4664 2300 0093     		str	r3, [sp]
 4665 2302 4FF6FF73 		movw	r3, #65535
 4666 2306 0193     		str	r3, [sp, #4]
 4667 2308 5923     		movs	r3, #89
 4668 230a 0293     		str	r3, [sp, #8]
 4669 230c 0846     		mov	r0, r1
 4670 230e 1146     		mov	r1, r2
 4671 2310 0922     		movs	r2, #9
 4672 2312 2346     		mov	r3, r4
 4673 2314 FFF7FEFF 		bl	write_LCD
 560:.\LCD.c       ****                 write_LCD(lcd,button[60][x],15,x+4,1,0xFFFF,'Y');    //Nombre Forma de pago 15
 4674              		.loc 1 560 0 discriminator 3
 4675 2318 FB7B     		ldrb	r3, [r7, #15]	@ zero_extendqisi2
 4676 231a 834A     		ldr	r2, .L269
 4677 231c 1344     		add	r3, r3, r2
 4678 231e 93F8E031 		ldrb	r3, [r3, #480]
 4679 2322 DAB2     		uxtb	r2, r3
 4680 2324 FB7B     		ldrb	r3, [r7, #15]	@ zero_extendqisi2
 4681 2326 9BB2     		uxth	r3, r3
 4682 2328 0433     		adds	r3, r3, #4
 4683 232a 9CB2     		uxth	r4, r3
 4684 232c F979     		ldrb	r1, [r7, #7]	@ zero_extendqisi2
 4685 232e 0123     		movs	r3, #1
ARM GAS  C:\Users\PROYEC~1\AppData\Local\Temp\ccMsBWpv.s 			page 96


 4686 2330 0093     		str	r3, [sp]
 4687 2332 4FF6FF73 		movw	r3, #65535
 4688 2336 0193     		str	r3, [sp, #4]
 4689 2338 5923     		movs	r3, #89
 4690 233a 0293     		str	r3, [sp, #8]
 4691 233c 0846     		mov	r0, r1
 4692 233e 1146     		mov	r1, r2
 4693 2340 0F22     		movs	r2, #15
 4694 2342 2346     		mov	r3, r4
 4695 2344 FFF7FEFF 		bl	write_LCD
 561:.\LCD.c       ****                 write_LCD(lcd,button[61][x],15,x+15,1,0xFFFF,'Y');   //Nombre Forma de pago 16
 4696              		.loc 1 561 0 discriminator 3
 4697 2348 FB7B     		ldrb	r3, [r7, #15]	@ zero_extendqisi2
 4698 234a 774A     		ldr	r2, .L269
 4699 234c 1344     		add	r3, r3, r2
 4700 234e 93F8E831 		ldrb	r3, [r3, #488]
 4701 2352 DAB2     		uxtb	r2, r3
 4702 2354 FB7B     		ldrb	r3, [r7, #15]	@ zero_extendqisi2
 4703 2356 9BB2     		uxth	r3, r3
 4704 2358 0F33     		adds	r3, r3, #15
 4705 235a 9CB2     		uxth	r4, r3
 4706 235c F979     		ldrb	r1, [r7, #7]	@ zero_extendqisi2
 4707 235e 0123     		movs	r3, #1
 4708 2360 0093     		str	r3, [sp]
 4709 2362 4FF6FF73 		movw	r3, #65535
 4710 2366 0193     		str	r3, [sp, #4]
 4711 2368 5923     		movs	r3, #89
 4712 236a 0293     		str	r3, [sp, #8]
 4713 236c 0846     		mov	r0, r1
 4714 236e 1146     		mov	r1, r2
 4715 2370 0F22     		movs	r2, #15
 4716 2372 2346     		mov	r3, r4
 4717 2374 FFF7FEFF 		bl	write_LCD
 562:.\LCD.c       ****                 write_LCD(lcd,button[62][x],21,x+4,1,0xFFFF,'Y');    //Nombre Forma de pago 17
 4718              		.loc 1 562 0 discriminator 3
 4719 2378 FB7B     		ldrb	r3, [r7, #15]	@ zero_extendqisi2
 4720 237a 6B4A     		ldr	r2, .L269
 4721 237c 1344     		add	r3, r3, r2
 4722 237e 93F8F031 		ldrb	r3, [r3, #496]
 4723 2382 DAB2     		uxtb	r2, r3
 4724 2384 FB7B     		ldrb	r3, [r7, #15]	@ zero_extendqisi2
 4725 2386 9BB2     		uxth	r3, r3
 4726 2388 0433     		adds	r3, r3, #4
 4727 238a 9CB2     		uxth	r4, r3
 4728 238c F979     		ldrb	r1, [r7, #7]	@ zero_extendqisi2
 4729 238e 0123     		movs	r3, #1
 4730 2390 0093     		str	r3, [sp]
 4731 2392 4FF6FF73 		movw	r3, #65535
 4732 2396 0193     		str	r3, [sp, #4]
 4733 2398 5923     		movs	r3, #89
 4734 239a 0293     		str	r3, [sp, #8]
 4735 239c 0846     		mov	r0, r1
 4736 239e 1146     		mov	r1, r2
 4737 23a0 1522     		movs	r2, #21
 4738 23a2 2346     		mov	r3, r4
 4739 23a4 FFF7FEFF 		bl	write_LCD
 563:.\LCD.c       ****                 write_LCD(lcd,button[63][x],21,x+15,1,0xFFFF,'Y');   //Nombre Forma de pago 18
ARM GAS  C:\Users\PROYEC~1\AppData\Local\Temp\ccMsBWpv.s 			page 97


 4740              		.loc 1 563 0 discriminator 3
 4741 23a8 FB7B     		ldrb	r3, [r7, #15]	@ zero_extendqisi2
 4742 23aa 5F4A     		ldr	r2, .L269
 4743 23ac 1344     		add	r3, r3, r2
 4744 23ae 93F8F831 		ldrb	r3, [r3, #504]
 4745 23b2 DAB2     		uxtb	r2, r3
 4746 23b4 FB7B     		ldrb	r3, [r7, #15]	@ zero_extendqisi2
 4747 23b6 9BB2     		uxth	r3, r3
 4748 23b8 0F33     		adds	r3, r3, #15
 4749 23ba 9CB2     		uxth	r4, r3
 4750 23bc F979     		ldrb	r1, [r7, #7]	@ zero_extendqisi2
 4751 23be 0123     		movs	r3, #1
 4752 23c0 0093     		str	r3, [sp]
 4753 23c2 4FF6FF73 		movw	r3, #65535
 4754 23c6 0193     		str	r3, [sp, #4]
 4755 23c8 5923     		movs	r3, #89
 4756 23ca 0293     		str	r3, [sp, #8]
 4757 23cc 0846     		mov	r0, r1
 4758 23ce 1146     		mov	r1, r2
 4759 23d0 1522     		movs	r2, #21
 4760 23d2 2346     		mov	r3, r4
 4761 23d4 FFF7FEFF 		bl	write_LCD
 557:.\LCD.c       ****                 write_LCD(lcd,button[58][x],9,x+4,1,0xFFFF,'Y');     //Nombre Forma de pago 13
 4762              		.loc 1 557 0 discriminator 3
 4763 23d8 FB7B     		ldrb	r3, [r7, #15]	@ zero_extendqisi2
 4764 23da 0133     		adds	r3, r3, #1
 4765 23dc FB73     		strb	r3, [r7, #15]
 4766              	.L205:
 557:.\LCD.c       ****                 write_LCD(lcd,button[58][x],9,x+4,1,0xFFFF,'Y');     //Nombre Forma de pago 13
 4767              		.loc 1 557 0 is_stmt 0 discriminator 1
 4768 23de FB7B     		ldrb	r3, [r7, #15]	@ zero_extendqisi2
 4769 23e0 072B     		cmp	r3, #7
 4770 23e2 7FF669AF 		bls	.L206
 564:.\LCD.c       ****             }
 565:.\LCD.c       ****         break;
 4771              		.loc 1 565 0 is_stmt 1
 4772 23e6 00F02EBF 		b	.L16
 4773              	.L22:
 566:.\LCD.c       ****             
 567:.\LCD.c       ****         case 4://Nombres a Formas de pago pagina 4
 568:.\LCD.c       ****             for(x=0;x<8;x++){
 4774              		.loc 1 568 0
 4775 23ea 0023     		movs	r3, #0
 4776 23ec FB73     		strb	r3, [r7, #15]
 4777 23ee 92E0     		b	.L207
 4778              	.L208:
 569:.\LCD.c       ****                 write_LCD(lcd,button[64][x],9,x+4,1,0xFFFF,'Y');     //Nombre Forma de pago 19
 4779              		.loc 1 569 0 discriminator 3
 4780 23f0 FB7B     		ldrb	r3, [r7, #15]	@ zero_extendqisi2
 4781 23f2 4D4A     		ldr	r2, .L269
 4782 23f4 1344     		add	r3, r3, r2
 4783 23f6 93F80032 		ldrb	r3, [r3, #512]
 4784 23fa DAB2     		uxtb	r2, r3
 4785 23fc FB7B     		ldrb	r3, [r7, #15]	@ zero_extendqisi2
 4786 23fe 9BB2     		uxth	r3, r3
 4787 2400 0433     		adds	r3, r3, #4
 4788 2402 9CB2     		uxth	r4, r3
ARM GAS  C:\Users\PROYEC~1\AppData\Local\Temp\ccMsBWpv.s 			page 98


 4789 2404 F979     		ldrb	r1, [r7, #7]	@ zero_extendqisi2
 4790 2406 0123     		movs	r3, #1
 4791 2408 0093     		str	r3, [sp]
 4792 240a 4FF6FF73 		movw	r3, #65535
 4793 240e 0193     		str	r3, [sp, #4]
 4794 2410 5923     		movs	r3, #89
 4795 2412 0293     		str	r3, [sp, #8]
 4796 2414 0846     		mov	r0, r1
 4797 2416 1146     		mov	r1, r2
 4798 2418 0922     		movs	r2, #9
 4799 241a 2346     		mov	r3, r4
 4800 241c FFF7FEFF 		bl	write_LCD
 570:.\LCD.c       ****                 write_LCD(lcd,button[65][x],9,x+15,1,0xFFFF,'Y');    //Nombre Forma de pago 20
 4801              		.loc 1 570 0 discriminator 3
 4802 2420 FB7B     		ldrb	r3, [r7, #15]	@ zero_extendqisi2
 4803 2422 414A     		ldr	r2, .L269
 4804 2424 1344     		add	r3, r3, r2
 4805 2426 93F80832 		ldrb	r3, [r3, #520]
 4806 242a DAB2     		uxtb	r2, r3
 4807 242c FB7B     		ldrb	r3, [r7, #15]	@ zero_extendqisi2
 4808 242e 9BB2     		uxth	r3, r3
 4809 2430 0F33     		adds	r3, r3, #15
 4810 2432 9CB2     		uxth	r4, r3
 4811 2434 F979     		ldrb	r1, [r7, #7]	@ zero_extendqisi2
 4812 2436 0123     		movs	r3, #1
 4813 2438 0093     		str	r3, [sp]
 4814 243a 4FF6FF73 		movw	r3, #65535
 4815 243e 0193     		str	r3, [sp, #4]
 4816 2440 5923     		movs	r3, #89
 4817 2442 0293     		str	r3, [sp, #8]
 4818 2444 0846     		mov	r0, r1
 4819 2446 1146     		mov	r1, r2
 4820 2448 0922     		movs	r2, #9
 4821 244a 2346     		mov	r3, r4
 4822 244c FFF7FEFF 		bl	write_LCD
 571:.\LCD.c       ****                 write_LCD(lcd,button[66][x],15,x+4,1,0xFFFF,'Y');    //Nombre Forma de pago 21
 4823              		.loc 1 571 0 discriminator 3
 4824 2450 FB7B     		ldrb	r3, [r7, #15]	@ zero_extendqisi2
 4825 2452 354A     		ldr	r2, .L269
 4826 2454 1344     		add	r3, r3, r2
 4827 2456 93F81032 		ldrb	r3, [r3, #528]
 4828 245a DAB2     		uxtb	r2, r3
 4829 245c FB7B     		ldrb	r3, [r7, #15]	@ zero_extendqisi2
 4830 245e 9BB2     		uxth	r3, r3
 4831 2460 0433     		adds	r3, r3, #4
