ARM GAS  C:\Users\RECEPC~1\AppData\Local\Temp\ccGwunar.s 			page 1


   1              		.syntax unified
   2              		.cpu cortex-m3
   3              		.fpu softvfp
   4              		.eabi_attribute 20, 1
   5              		.eabi_attribute 21, 1
   6              		.eabi_attribute 23, 3
   7              		.eabi_attribute 24, 1
   8              		.eabi_attribute 25, 1
   9              		.eabi_attribute 26, 1
  10              		.eabi_attribute 30, 6
  11              		.eabi_attribute 34, 1
  12              		.eabi_attribute 18, 4
  13              		.thumb
  14              		.file	"main.c"
  15              		.text
  16              	.Ltext0:
  17              		.cfi_sections	.debug_frame
  18              		.comm	countAnimation1,8,8
  19              		.comm	countAnimation2,8,8
  20              		.comm	countBeagleTX,8,8
  21              		.comm	countPump,8,8
  22              		.comm	flowLCD1,4,4
  23              		.comm	flowLCD2,4,4
  24              		.comm	digits,1,1
  25              		.comm	ipAdress,12,4
  26              		.comm	numberKeys1,1,1
  27              		.comm	numberKeys2,1,1
  28              		.comm	flagPoint1,1,1
  29              		.comm	flagPoint2,1,1
  30              		.comm	button,960,4
  31              		.comm	productNumber,1,1
  32              		.comm	presetFast,30,4
  33              		.comm	delayPicture1,4,4
  34              		.comm	delayPicture2,4,4
  35              		.comm	ppux10,1,1
  36              		.comm	decimalMoney,1,1
  37              		.comm	decimalVolume,1,1
  38              		.comm	symbols,2,4
  39              		.comm	time,3,4
  40              		.comm	date,3,4
  41              		.comm	screen,2,4
  42              		.comm	residue,14,4
  43              		.comm	temporal,30,4
  44              		.comm	temporalCom,30,4
  45              		.comm	turn,1,1
  46              		.comm	lockTurn,1,1
  47              		.comm	idSeller,25,4
  48              		.comm	typeIdSeller,1,1
  49              		.comm	passwordSeller,8,4
  50              		.comm	flagResetMux,1,1
  51              		.comm	stateBeagleSoft,1,1
  52              		.comm	bufferLCD1,661,4
  53              		.comm	bufferLCD2,661,4
  54              		.comm	side,512,4
  55              		.global	version
  56              		.data
  57              		.align	2
ARM GAS  C:\Users\RECEPC~1\AppData\Local\Temp\ccGwunar.s 			page 2


  58              		.type	version, %object
  59              		.size	version, 10
  60              	version:
  61 0000 43747220 		.ascii	"Ctr V 2.38"
  61      5620322E 
  61      3338
  62              		.global	passwordPump
  63 000a 0000     		.align	2
  64              		.type	passwordPump, %object
  65              		.size	passwordPump, 6
  66              	passwordPump:
  67 000c 31303230 		.ascii	"102030"
  67      3330
  68 0012 0000     		.section	.text.show_picture,"ax",%progbits
  69              		.align	2
  70              		.global	show_picture
  71              		.thumb
  72              		.thumb_func
  73              		.type	show_picture, %function
  74              	show_picture:
  75              	.LFB56:
  76              		.file 1 "..\\main.c"
   1:..\main.c     **** /*
   2:..\main.c     **** ***************************************************************************************************
   3:..\main.c     **** *                                         MUX ADVANCE CODE
   4:..\main.c     **** *
   5:..\main.c     **** *                             (c) Copyright 2015; Sistemas Insepet LTDA
   6:..\main.c     **** *
   7:..\main.c     **** *               All rights reserved.  Protected by international copyright laws.
   8:..\main.c     **** *               Knowledge of the source code may NOT be used to develop a similar product.
   9:..\main.c     **** *               Please help us continue to provide the Embedded community with the finest
  10:..\main.c     **** *               software available.  Your honesty is greatly appreciated.
  11:..\main.c     **** ***************************************************************************************************
  12:..\main.c     **** */
  13:..\main.c     **** 
  14:..\main.c     **** /*
  15:..\main.c     **** ***************************************************************************************************
  16:..\main.c     **** *
  17:..\main.c     **** *                                             MUX ADVANCE CODE
  18:..\main.c     **** *
  19:..\main.c     **** *                                             CYPRESS PSoC5LP
  20:..\main.c     **** *                                                with the
  21:..\main.c     **** *                                            CY8C5969AXI-LP035
  22:..\main.c     **** *
  23:..\main.c     **** * Filename      : main.c
  24:..\main.c     **** * Version       : V1.00
  25:..\main.c     **** * Programmer(s) : 
  26:..\main.c     ****                   
  27:..\main.c     **** ***************************************************************************************************
  28:..\main.c     **** */
  29:..\main.c     **** 
  30:..\main.c     **** /*
  31:..\main.c     **** ***************************************************************************************************
  32:..\main.c     **** *                                             INCLUDE FILES
  33:..\main.c     **** ***************************************************************************************************
  34:..\main.c     **** */
  35:..\main.c     **** 
ARM GAS  C:\Users\RECEPC~1\AppData\Local\Temp\ccGwunar.s 			page 3


  36:..\main.c     **** #include <device.h>
  37:..\main.c     **** #include <math.h>
  38:..\main.c     **** #include <protocol.h>
  39:..\main.c     **** #include <variables.h>
  40:..\main.c     **** #include <ibutton.h>
  41:..\main.c     **** #include <codebar.h>
  42:..\main.c     **** #include <codetag.h>
  43:..\main.c     **** #include <i2c.h>
  44:..\main.c     **** #include <LCD.h>
  45:..\main.c     **** #include <keyboard.h>
  46:..\main.c     **** #include <operations.h>
  47:..\main.c     **** #include <memoryEP.h>
  48:..\main.c     **** CY_ISR(timerAnimation1);
  49:..\main.c     **** CY_ISR(timerAnimation2);
  50:..\main.c     **** CY_ISR(timerBeagleTX);
  51:..\main.c     **** CY_ISR(timerPump);
  52:..\main.c     **** uint8 version[10]="Ctr V 2.38";
  53:..\main.c     **** uint8 passwordPump[6]="102030";  //Contrase침a para habilitar surtidor
  54:..\main.c     **** 
  55:..\main.c     **** 
  56:..\main.c     **** /*
  57:..\main.c     **** ***************************************************************************************************
  58:..\main.c     **** *              void show_picture(uint8 lcd,uint16 picture,uint8 seconds)
  59:..\main.c     **** *
  60:..\main.c     **** * Description : 
  61:..\main.c     **** *               
  62:..\main.c     **** *
  63:..\main.c     **** * Argument(s) : none
  64:..\main.c     **** *
  65:..\main.c     **** * Return(s)   : none
  66:..\main.c     **** *
  67:..\main.c     **** * Caller(s)   :  
  68:..\main.c     **** *
  69:..\main.c     **** * Note(s)     : none.
  70:..\main.c     **** ***************************************************************************************************
  71:..\main.c     **** */
  72:..\main.c     **** void show_picture(uint8 lcd,uint16 picture,uint8 seconds){
  77              		.loc 1 72 0
  78              		.cfi_startproc
  79              		@ args = 0, pretend = 0, frame = 8
  80              		@ frame_needed = 1, uses_anonymous_args = 0
  81 0000 80B5     		push	{r7, lr}
  82              		.cfi_def_cfa_offset 8
  83              		.cfi_offset 7, -8
  84              		.cfi_offset 14, -4
  85 0002 82B0     		sub	sp, sp, #8
  86              		.cfi_def_cfa_offset 16
  87 0004 00AF     		add	r7, sp, #0
  88              		.cfi_def_cfa_register 7
  89 0006 0346     		mov	r3, r0
  90 0008 FB71     		strb	r3, [r7, #7]
  91 000a 0B46     		mov	r3, r1	@ movhi
  92 000c BB80     		strh	r3, [r7, #4]	@ movhi
  93 000e 1346     		mov	r3, r2
  94 0010 BB71     		strb	r3, [r7, #6]
  73:..\main.c     ****     set_picture(lcd,picture);
  95              		.loc 1 73 0
ARM GAS  C:\Users\RECEPC~1\AppData\Local\Temp\ccGwunar.s 			page 4


  96 0012 FA79     		ldrb	r2, [r7, #7]	@ zero_extendqisi2
  97 0014 BB88     		ldrh	r3, [r7, #4]
  98 0016 1046     		mov	r0, r2
  99 0018 1946     		mov	r1, r3
 100 001a FFF7FEFF 		bl	set_picture
  74:..\main.c     ****     if(lcd==1){
 101              		.loc 1 74 0
 102 001e FB79     		ldrb	r3, [r7, #7]	@ zero_extendqisi2
 103 0020 012B     		cmp	r3, #1
 104 0022 16D1     		bne	.L2
  75:..\main.c     ****         delayPicture1=seconds*7;
 105              		.loc 1 75 0
 106 0024 BA79     		ldrb	r2, [r7, #6]	@ zero_extendqisi2
 107 0026 1346     		mov	r3, r2
 108 0028 DB00     		lsls	r3, r3, #3
 109 002a 9B1A     		subs	r3, r3, r2
 110 002c 1A46     		mov	r2, r3
 111 002e 154B     		ldr	r3, .L4
 112 0030 1A60     		str	r2, [r3]
  76:..\main.c     ****         flowLCD1=0;
 113              		.loc 1 76 0
 114 0032 154B     		ldr	r3, .L4+4
 115 0034 0022     		movs	r2, #0
 116 0036 1A60     		str	r2, [r3]
  77:..\main.c     ****         countAnimation1=0;
 117              		.loc 1 77 0
 118 0038 1449     		ldr	r1, .L4+8
 119 003a 4FF00002 		mov	r2, #0
 120 003e 4FF00003 		mov	r3, #0
 121 0042 C1E90023 		strd	r2, [r1]
  78:..\main.c     ****         isr_1_StartEx(timerAnimation1); 
 122              		.loc 1 78 0
 123 0046 1248     		ldr	r0, .L4+12
 124 0048 FFF7FEFF 		bl	isr_1_StartEx
  79:..\main.c     ****         Waitable_1_Start();
 125              		.loc 1 79 0
 126 004c FFF7FEFF 		bl	Waitable_1_Start
 127 0050 15E0     		b	.L1
 128              	.L2:
  80:..\main.c     ****     }else{
  81:..\main.c     ****         delayPicture2=seconds*7;
 129              		.loc 1 81 0
 130 0052 BA79     		ldrb	r2, [r7, #6]	@ zero_extendqisi2
 131 0054 1346     		mov	r3, r2
 132 0056 DB00     		lsls	r3, r3, #3
 133 0058 9B1A     		subs	r3, r3, r2
 134 005a 1A46     		mov	r2, r3
 135 005c 0D4B     		ldr	r3, .L4+16
 136 005e 1A60     		str	r2, [r3]
  82:..\main.c     ****         flowLCD2=0;
 137              		.loc 1 82 0
 138 0060 0D4B     		ldr	r3, .L4+20
 139 0062 0022     		movs	r2, #0
 140 0064 1A60     		str	r2, [r3]
  83:..\main.c     ****         countAnimation2=0;
 141              		.loc 1 83 0
 142 0066 0D49     		ldr	r1, .L4+24
ARM GAS  C:\Users\RECEPC~1\AppData\Local\Temp\ccGwunar.s 			page 5


 143 0068 4FF00002 		mov	r2, #0
 144 006c 4FF00003 		mov	r3, #0
 145 0070 C1E90023 		strd	r2, [r1]
  84:..\main.c     ****         isr_2_StartEx(timerAnimation2); 
 146              		.loc 1 84 0
 147 0074 0A48     		ldr	r0, .L4+28
 148 0076 FFF7FEFF 		bl	isr_2_StartEx
  85:..\main.c     ****         Waitable_2_Start();
 149              		.loc 1 85 0
 150 007a FFF7FEFF 		bl	Waitable_2_Start
 151              	.L1:
  86:..\main.c     ****     }
  87:..\main.c     **** }
 152              		.loc 1 87 0
 153 007e 0837     		adds	r7, r7, #8
 154              		.cfi_def_cfa_offset 8
 155 0080 BD46     		mov	sp, r7
 156              		.cfi_def_cfa_register 13
 157              		@ sp needed
 158 0082 80BD     		pop	{r7, pc}
 159              	.L5:
 160              		.align	2
 161              	.L4:
 162 0084 00000000 		.word	delayPicture1
 163 0088 00000000 		.word	flowLCD1
 164 008c 00000000 		.word	countAnimation1
 165 0090 00000000 		.word	timerAnimation1
 166 0094 00000000 		.word	delayPicture2
 167 0098 00000000 		.word	flowLCD2
 168 009c 00000000 		.word	countAnimation2
 169 00a0 00000000 		.word	timerAnimation2
 170              		.cfi_endproc
 171              	.LFE56:
 172              		.size	show_picture, .-show_picture
 173              		.section	.text.init_mux,"ax",%progbits
 174              		.align	2
 175              		.global	init_mux
 176              		.thumb
 177              		.thumb_func
 178              		.type	init_mux, %function
 179              	init_mux:
 180              	.LFB57:
  88:..\main.c     **** 
  89:..\main.c     **** /*
  90:..\main.c     **** ***************************************************************************************************
  91:..\main.c     **** *                                         init_mux( void )
  92:..\main.c     **** *
  93:..\main.c     **** * Description : Verifica el serial, inicia los perosfericos, la version y los datos de la estaci칩n
  94:..\main.c     **** *               
  95:..\main.c     **** *
  96:..\main.c     **** * Argument(s) : none
  97:..\main.c     **** *
  98:..\main.c     **** * Return(s)   : none
  99:..\main.c     **** *
 100:..\main.c     **** * Caller(s)   : main()
 101:..\main.c     **** *
 102:..\main.c     **** * Note(s)     : none.
ARM GAS  C:\Users\RECEPC~1\AppData\Local\Temp\ccGwunar.s 			page 6


 103:..\main.c     **** ***************************************************************************************************
 104:..\main.c     **** */
 105:..\main.c     **** void init_mux(void){
 181              		.loc 1 105 0
 182              		.cfi_startproc
 183              		@ args = 0, pretend = 0, frame = 8
 184              		@ frame_needed = 1, uses_anonymous_args = 0
 185 0000 F0B5     		push	{r4, r5, r6, r7, lr}
 186              		.cfi_def_cfa_offset 20
 187              		.cfi_offset 4, -20
 188              		.cfi_offset 5, -16
 189              		.cfi_offset 6, -12
 190              		.cfi_offset 7, -8
 191              		.cfi_offset 14, -4
 192 0002 83B0     		sub	sp, sp, #12
 193              		.cfi_def_cfa_offset 32
 194 0004 00AF     		add	r7, sp, #0
 195              		.cfi_def_cfa_register 7
 106:..\main.c     **** 	/****Inicializaci칩n de perisfericos****/
 107:..\main.c     ****     CyGlobalIntEnable;
 196              		.loc 1 107 0
 197              	@ 107 "..\main.c" 1
 198 0006 62B6     		CPSIE   i
 199              	@ 0 "" 2
 108:..\main.c     ****     Pump_AL_EnableRxInt();
 200              		.loc 1 108 0
 201              		.thumb
 202 0008 FFF7FEFF 		bl	Pump_AL_EnableRxInt
 109:..\main.c     ****     Pump_AL_Start();
 203              		.loc 1 109 0
 204 000c FFF7FEFF 		bl	Pump_AL_Start
 110:..\main.c     ****     Code_Bar_EnableRxInt();
 205              		.loc 1 110 0
 206 0010 FFF7FEFF 		bl	Code_Bar_EnableRxInt
 111:..\main.c     ****     Code_Bar_Start();
 207              		.loc 1 111 0
 208 0014 FFF7FEFF 		bl	Code_Bar_Start
 112:..\main.c     ****     Beagle_EnableRxInt();
 209              		.loc 1 112 0
 210 0018 FFF7FEFF 		bl	Beagle_EnableRxInt
 113:..\main.c     ****     Beagle_Start();
 211              		.loc 1 113 0
 212 001c FFF7FEFF 		bl	Beagle_Start
 114:..\main.c     ****     Tag_EnableRxInt();
 213              		.loc 1 114 0
 214 0020 FFF7FEFF 		bl	Tag_EnableRxInt
 115:..\main.c     ****     Tag_Start();
 215              		.loc 1 115 0
 216 0024 FFF7FEFF 		bl	Tag_Start
 116:..\main.c     ****     LCD1_Start();
 217              		.loc 1 116 0
 218 0028 FFF7FEFF 		bl	LCD1_Start
 117:..\main.c     ****     LCD2_Start();
 219              		.loc 1 117 0
 220 002c FFF7FEFF 		bl	LCD2_Start
 118:..\main.c     ****     I2C_1_Start();
 221              		.loc 1 118 0
ARM GAS  C:\Users\RECEPC~1\AppData\Local\Temp\ccGwunar.s 			page 7


 222 0030 FFF7FEFF 		bl	I2C_1_Start
 119:..\main.c     ****     EEPROM_1_Start();
 223              		.loc 1 119 0
 224 0034 FFF7FEFF 		bl	EEPROM_1_Start
 120:..\main.c     ****     isr_3_StartEx(timerBeagleTX); 
 225              		.loc 1 120 0
 226 0038 B748     		ldr	r0, .L33
 227 003a FFF7FEFF 		bl	isr_3_StartEx
 121:..\main.c     ****     Waitable_3_Start();
 228              		.loc 1 121 0
 229 003e FFF7FEFF 		bl	Waitable_3_Start
 122:..\main.c     ****     isr_4_StartEx(timerPump); 
 230              		.loc 1 122 0
 231 0042 B648     		ldr	r0, .L33+4
 232 0044 FFF7FEFF 		bl	isr_4_StartEx
 123:..\main.c     ****     Waitable_4_Start();
 233              		.loc 1 123 0
 234 0048 FFF7FEFF 		bl	Waitable_4_Start
 124:..\main.c     ****     countBeagleTX=0;
 235              		.loc 1 124 0
 236 004c B449     		ldr	r1, .L33+8
 237 004e 4FF00002 		mov	r2, #0
 238 0052 4FF00003 		mov	r3, #0
 239 0056 C1E90023 		strd	r2, [r1]
 125:..\main.c     ****     CyDelay(1000);
 240              		.loc 1 125 0
 241 005a 4FF47A70 		mov	r0, #1000
 242 005e FFF7FEFF 		bl	CyDelay
 126:..\main.c     **** 
 127:..\main.c     ****     /****Inicializaci칩n de Variables****/
 128:..\main.c     ****     uint8 x,y;
 129:..\main.c     ****     int z;
 130:..\main.c     ****     for(y=0;y<=113;y++){
 243              		.loc 1 130 0
 244 0062 0023     		movs	r3, #0
 245 0064 BB71     		strb	r3, [r7, #6]
 246 0066 1DE0     		b	.L7
 247              	.L10:
 131:..\main.c     ****         for(x=0;x<8;x++){
 248              		.loc 1 131 0
 249 0068 0023     		movs	r3, #0
 250 006a FB71     		strb	r3, [r7, #7]
 251 006c 14E0     		b	.L8
 252              	.L9:
 132:..\main.c     ****             button[y][x]=CY_GET_REG8(CYDEV_EE_BASE + (x+(8*y)));
 253              		.loc 1 132 0 discriminator 3
 254 006e B979     		ldrb	r1, [r7, #6]	@ zero_extendqisi2
 255 0070 FA79     		ldrb	r2, [r7, #7]	@ zero_extendqisi2
 256 0072 F879     		ldrb	r0, [r7, #7]	@ zero_extendqisi2
 257 0074 BB79     		ldrb	r3, [r7, #6]	@ zero_extendqisi2
 258 0076 DB00     		lsls	r3, r3, #3
 259 0078 0344     		add	r3, r3, r0
 260 007a 03F18043 		add	r3, r3, #1073741824
 261 007e 03F50043 		add	r3, r3, #32768
 262 0082 1B78     		ldrb	r3, [r3]
 263 0084 DCB2     		uxtb	r4, r3
 264 0086 A748     		ldr	r0, .L33+12
ARM GAS  C:\Users\RECEPC~1\AppData\Local\Temp\ccGwunar.s 			page 8


 265 0088 CB00     		lsls	r3, r1, #3
 266 008a 1344     		add	r3, r3, r2
 267 008c 0344     		add	r3, r3, r0
 268 008e 2246     		mov	r2, r4
 269 0090 1A70     		strb	r2, [r3]
 131:..\main.c     ****         for(x=0;x<8;x++){
 270              		.loc 1 131 0 discriminator 3
 271 0092 FB79     		ldrb	r3, [r7, #7]	@ zero_extendqisi2
 272 0094 0133     		adds	r3, r3, #1
 273 0096 FB71     		strb	r3, [r7, #7]
 274              	.L8:
 131:..\main.c     ****         for(x=0;x<8;x++){
 275              		.loc 1 131 0 is_stmt 0 discriminator 1
 276 0098 FB79     		ldrb	r3, [r7, #7]	@ zero_extendqisi2
 277 009a 072B     		cmp	r3, #7
 278 009c E7D9     		bls	.L9
 130:..\main.c     ****         for(x=0;x<8;x++){
 279              		.loc 1 130 0 is_stmt 1 discriminator 2
 280 009e BB79     		ldrb	r3, [r7, #6]	@ zero_extendqisi2
 281 00a0 0133     		adds	r3, r3, #1
 282 00a2 BB71     		strb	r3, [r7, #6]
 283              	.L7:
 130:..\main.c     ****         for(x=0;x<8;x++){
 284              		.loc 1 130 0 is_stmt 0 discriminator 1
 285 00a4 BB79     		ldrb	r3, [r7, #6]	@ zero_extendqisi2
 286 00a6 712B     		cmp	r3, #113
 287 00a8 DED9     		bls	.L10
 133:..\main.c     ****         }
 134:..\main.c     ****     }
 135:..\main.c     ****     set_picture(1,55);
 288              		.loc 1 135 0 is_stmt 1
 289 00aa 0120     		movs	r0, #1
 290 00ac 3721     		movs	r1, #55
 291 00ae FFF7FEFF 		bl	set_picture
 136:..\main.c     ****     write_button(1,'W');//Espere 1 momento
 292              		.loc 1 136 0
 293 00b2 0120     		movs	r0, #1
 294 00b4 5721     		movs	r1, #87
 295 00b6 FFF7FEFF 		bl	write_button
 137:..\main.c     ****     set_picture(2,55);
 296              		.loc 1 137 0
 297 00ba 0220     		movs	r0, #2
 298 00bc 3721     		movs	r1, #55
 299 00be FFF7FEFF 		bl	set_picture
 138:..\main.c     ****     write_button(2,'W');//Espere 1 momento
 300              		.loc 1 138 0
 301 00c2 0220     		movs	r0, #2
 302 00c4 5721     		movs	r1, #87
 303 00c6 FFF7FEFF 		bl	write_button
 139:..\main.c     ****     digits=(CY_GET_REG8(CYDEV_EE_BASE + 944))&0x07;
 304              		.loc 1 139 0
 305 00ca 974B     		ldr	r3, .L33+16
 306 00cc 1B78     		ldrb	r3, [r3]
 307 00ce DBB2     		uxtb	r3, r3
 308 00d0 03F00703 		and	r3, r3, #7
 309 00d4 DAB2     		uxtb	r2, r3
 310 00d6 954B     		ldr	r3, .L33+20
ARM GAS  C:\Users\RECEPC~1\AppData\Local\Temp\ccGwunar.s 			page 9


 311 00d8 1A70     		strb	r2, [r3]
 140:..\main.c     ****     decimalMoney=((CY_GET_REG8(CYDEV_EE_BASE + 945))/10)&0x07;
 312              		.loc 1 140 0
 313 00da 954B     		ldr	r3, .L33+24
 314 00dc 1B78     		ldrb	r3, [r3]
 315 00de DBB2     		uxtb	r3, r3
 316 00e0 944A     		ldr	r2, .L33+28
 317 00e2 A2FB0323 		umull	r2, r3, r2, r3
 318 00e6 DB08     		lsrs	r3, r3, #3
 319 00e8 DBB2     		uxtb	r3, r3
 320 00ea 03F00703 		and	r3, r3, #7
 321 00ee DAB2     		uxtb	r2, r3
 322 00f0 914B     		ldr	r3, .L33+32
 323 00f2 1A70     		strb	r2, [r3]
 141:..\main.c     ****     decimalVolume=((CY_GET_REG8(CYDEV_EE_BASE + 945))%10)&0x07;
 324              		.loc 1 141 0
 325 00f4 8E4B     		ldr	r3, .L33+24
 326 00f6 1B78     		ldrb	r3, [r3]
 327 00f8 DAB2     		uxtb	r2, r3
 328 00fa 8E4B     		ldr	r3, .L33+28
 329 00fc A3FB0213 		umull	r1, r3, r3, r2
 330 0100 D908     		lsrs	r1, r3, #3
 331 0102 0B46     		mov	r3, r1
 332 0104 9B00     		lsls	r3, r3, #2
 333 0106 0B44     		add	r3, r3, r1
 334 0108 5B00     		lsls	r3, r3, #1
 335 010a D31A     		subs	r3, r2, r3
 336 010c DBB2     		uxtb	r3, r3
 337 010e 03F00703 		and	r3, r3, #7
 338 0112 DAB2     		uxtb	r2, r3
 339 0114 894B     		ldr	r3, .L33+36
 340 0116 1A70     		strb	r2, [r3]
 142:..\main.c     ****     ppux10=(CY_GET_REG8(CYDEV_EE_BASE + 946))&0x01;
 341              		.loc 1 142 0
 342 0118 894B     		ldr	r3, .L33+40
 343 011a 1B78     		ldrb	r3, [r3]
 344 011c DBB2     		uxtb	r3, r3
 345 011e 03F00103 		and	r3, r3, #1
 346 0122 DAB2     		uxtb	r2, r3
 347 0124 874B     		ldr	r3, .L33+44
 348 0126 1A70     		strb	r2, [r3]
 143:..\main.c     ****     productNumber=(CY_GET_REG8(CYDEV_EE_BASE + 947))&0x07;
 349              		.loc 1 143 0
 350 0128 874B     		ldr	r3, .L33+48
 351 012a 1B78     		ldrb	r3, [r3]
 352 012c DBB2     		uxtb	r3, r3
 353 012e 03F00703 		and	r3, r3, #7
 354 0132 DAB2     		uxtb	r2, r3
 355 0134 854B     		ldr	r3, .L33+52
 356 0136 1A70     		strb	r2, [r3]
 144:..\main.c     ****     symbols[0]=CY_GET_REG8(CYDEV_EE_BASE + 948);
 357              		.loc 1 144 0
 358 0138 854B     		ldr	r3, .L33+56
 359 013a 1B78     		ldrb	r3, [r3]
 360 013c DAB2     		uxtb	r2, r3
 361 013e 854B     		ldr	r3, .L33+60
 362 0140 1A70     		strb	r2, [r3]
ARM GAS  C:\Users\RECEPC~1\AppData\Local\Temp\ccGwunar.s 			page 10


 145:..\main.c     ****     symbols[1]=CY_GET_REG8(CYDEV_EE_BASE + 949);
 363              		.loc 1 145 0
 364 0142 854B     		ldr	r3, .L33+64
 365 0144 1B78     		ldrb	r3, [r3]
 366 0146 DAB2     		uxtb	r2, r3
 367 0148 824B     		ldr	r3, .L33+60
 368 014a 5A70     		strb	r2, [r3, #1]
 146:..\main.c     ****     y=0;
 369              		.loc 1 146 0
 370 014c 0023     		movs	r3, #0
 371 014e BB71     		strb	r3, [r7, #6]
 147:..\main.c     ****     for(x=0;x<4;x++){
 372              		.loc 1 147 0
 373 0150 0023     		movs	r3, #0
 374 0152 FB71     		strb	r3, [r7, #7]
 375 0154 4CE0     		b	.L11
 376              	.L12:
 148:..\main.c     ****         ipAdress[0+y]=(((CY_GET_REG8(CYDEV_EE_BASE + (950+x)))/100)&0x03)+0x30;
 377              		.loc 1 148 0 discriminator 3
 378 0156 BA79     		ldrb	r2, [r7, #6]	@ zero_extendqisi2
 379 0158 F979     		ldrb	r1, [r7, #7]	@ zero_extendqisi2
 380 015a 804B     		ldr	r3, .L33+68
 381 015c 0B44     		add	r3, r3, r1
 382 015e 1B78     		ldrb	r3, [r3]
 383 0160 DBB2     		uxtb	r3, r3
 384 0162 7F49     		ldr	r1, .L33+72
 385 0164 A1FB0313 		umull	r1, r3, r1, r3
 386 0168 5B09     		lsrs	r3, r3, #5
 387 016a DBB2     		uxtb	r3, r3
 388 016c 03F00303 		and	r3, r3, #3
 389 0170 DBB2     		uxtb	r3, r3
 390 0172 3033     		adds	r3, r3, #48
 391 0174 D9B2     		uxtb	r1, r3
 392 0176 7B4B     		ldr	r3, .L33+76
 393 0178 9954     		strb	r1, [r3, r2]
 149:..\main.c     ****         ipAdress[1+y]=((((CY_GET_REG8(CYDEV_EE_BASE + (950+x)))/10)%10)&0x0f)+0x30;
 394              		.loc 1 149 0 discriminator 3
 395 017a BB79     		ldrb	r3, [r7, #6]	@ zero_extendqisi2
 396 017c 581C     		adds	r0, r3, #1
 397 017e FA79     		ldrb	r2, [r7, #7]	@ zero_extendqisi2
 398 0180 764B     		ldr	r3, .L33+68
 399 0182 1344     		add	r3, r3, r2
 400 0184 1B78     		ldrb	r3, [r3]
 401 0186 DBB2     		uxtb	r3, r3
 402 0188 6A4A     		ldr	r2, .L33+28
 403 018a A2FB0323 		umull	r2, r3, r2, r3
 404 018e DB08     		lsrs	r3, r3, #3
 405 0190 DAB2     		uxtb	r2, r3
 406 0192 684B     		ldr	r3, .L33+28
 407 0194 A3FB0213 		umull	r1, r3, r3, r2
 408 0198 D908     		lsrs	r1, r3, #3
 409 019a 0B46     		mov	r3, r1
 410 019c 9B00     		lsls	r3, r3, #2
 411 019e 0B44     		add	r3, r3, r1
 412 01a0 5B00     		lsls	r3, r3, #1
 413 01a2 D31A     		subs	r3, r2, r3
 414 01a4 DBB2     		uxtb	r3, r3
ARM GAS  C:\Users\RECEPC~1\AppData\Local\Temp\ccGwunar.s 			page 11


 415 01a6 03F00F03 		and	r3, r3, #15
 416 01aa DBB2     		uxtb	r3, r3
 417 01ac 3033     		adds	r3, r3, #48
 418 01ae DAB2     		uxtb	r2, r3
 419 01b0 6C4B     		ldr	r3, .L33+76
 420 01b2 1A54     		strb	r2, [r3, r0]
 150:..\main.c     ****         ipAdress[2+y]=(((CY_GET_REG8(CYDEV_EE_BASE + (950+x)))%10)&0x0f)+0x30;
 421              		.loc 1 150 0 discriminator 3
 422 01b4 BB79     		ldrb	r3, [r7, #6]	@ zero_extendqisi2
 423 01b6 981C     		adds	r0, r3, #2
 424 01b8 FA79     		ldrb	r2, [r7, #7]	@ zero_extendqisi2
 425 01ba 684B     		ldr	r3, .L33+68
 426 01bc 1344     		add	r3, r3, r2
 427 01be 1B78     		ldrb	r3, [r3]
 428 01c0 DAB2     		uxtb	r2, r3
 429 01c2 5C4B     		ldr	r3, .L33+28
 430 01c4 A3FB0213 		umull	r1, r3, r3, r2
 431 01c8 D908     		lsrs	r1, r3, #3
 432 01ca 0B46     		mov	r3, r1
 433 01cc 9B00     		lsls	r3, r3, #2
 434 01ce 0B44     		add	r3, r3, r1
 435 01d0 5B00     		lsls	r3, r3, #1
 436 01d2 D31A     		subs	r3, r2, r3
 437 01d4 DBB2     		uxtb	r3, r3
 438 01d6 03F00F03 		and	r3, r3, #15
 439 01da DBB2     		uxtb	r3, r3
 440 01dc 3033     		adds	r3, r3, #48
 441 01de DAB2     		uxtb	r2, r3
 442 01e0 604B     		ldr	r3, .L33+76
 443 01e2 1A54     		strb	r2, [r3, r0]
 151:..\main.c     ****         y=y+3;
 444              		.loc 1 151 0 discriminator 3
 445 01e4 BB79     		ldrb	r3, [r7, #6]
 446 01e6 0333     		adds	r3, r3, #3
 447 01e8 BB71     		strb	r3, [r7, #6]
 147:..\main.c     ****         ipAdress[0+y]=(((CY_GET_REG8(CYDEV_EE_BASE + (950+x)))/100)&0x03)+0x30;
 448              		.loc 1 147 0 discriminator 3
 449 01ea FB79     		ldrb	r3, [r7, #7]	@ zero_extendqisi2
 450 01ec 0133     		adds	r3, r3, #1
 451 01ee FB71     		strb	r3, [r7, #7]
 452              	.L11:
 147:..\main.c     ****         ipAdress[0+y]=(((CY_GET_REG8(CYDEV_EE_BASE + (950+x)))/100)&0x03)+0x30;
 453              		.loc 1 147 0 is_stmt 0 discriminator 1
 454 01f0 FB79     		ldrb	r3, [r7, #7]	@ zero_extendqisi2
 455 01f2 032B     		cmp	r3, #3
 456 01f4 AFD9     		bls	.L12
 152:..\main.c     ****     }
 153:..\main.c     ****     turn=(CY_GET_REG8(CYDEV_EE_BASE + 954))&0x01;
 457              		.loc 1 153 0 is_stmt 1
 458 01f6 5C4B     		ldr	r3, .L33+80
 459 01f8 1B78     		ldrb	r3, [r3]
 460 01fa DBB2     		uxtb	r3, r3
 461 01fc 03F00103 		and	r3, r3, #1
 462 0200 DAB2     		uxtb	r2, r3
 463 0202 5A4B     		ldr	r3, .L33+84
 464 0204 1A70     		strb	r2, [r3]
 154:..\main.c     ****     lockTurn=0;
ARM GAS  C:\Users\RECEPC~1\AppData\Local\Temp\ccGwunar.s 			page 12


 465              		.loc 1 154 0
 466 0206 5A4B     		ldr	r3, .L33+88
 467 0208 0022     		movs	r2, #0
 468 020a 1A70     		strb	r2, [r3]
 155:..\main.c     ****     typeIdSeller=CY_GET_REG8(CYDEV_EE_BASE + 955);
 469              		.loc 1 155 0
 470 020c 594B     		ldr	r3, .L33+92
 471 020e 1B78     		ldrb	r3, [r3]
 472 0210 DAB2     		uxtb	r2, r3
 473 0212 594B     		ldr	r3, .L33+96
 474 0214 1A70     		strb	r2, [r3]
 156:..\main.c     ****     idSeller[0]=20;
 475              		.loc 1 156 0
 476 0216 594B     		ldr	r3, .L33+100
 477 0218 1422     		movs	r2, #20
 478 021a 1A70     		strb	r2, [r3]
 157:..\main.c     ****     for(x=1;x<=20;x++){
 479              		.loc 1 157 0
 480 021c 0123     		movs	r3, #1
 481 021e FB71     		strb	r3, [r7, #7]
 482 0220 0AE0     		b	.L13
 483              	.L14:
 158:..\main.c     ****         idSeller[x]=CY_GET_REG8(CYDEV_EE_BASE + (955+x));
 484              		.loc 1 158 0 discriminator 3
 485 0222 FA79     		ldrb	r2, [r7, #7]	@ zero_extendqisi2
 486 0224 F979     		ldrb	r1, [r7, #7]	@ zero_extendqisi2
 487 0226 534B     		ldr	r3, .L33+92
 488 0228 0B44     		add	r3, r3, r1
 489 022a 1B78     		ldrb	r3, [r3]
 490 022c D9B2     		uxtb	r1, r3
 491 022e 534B     		ldr	r3, .L33+100
 492 0230 9954     		strb	r1, [r3, r2]
 157:..\main.c     ****     for(x=1;x<=20;x++){
 493              		.loc 1 157 0 discriminator 3
 494 0232 FB79     		ldrb	r3, [r7, #7]	@ zero_extendqisi2
 495 0234 0133     		adds	r3, r3, #1
 496 0236 FB71     		strb	r3, [r7, #7]
 497              	.L13:
 157:..\main.c     ****     for(x=1;x<=20;x++){
 498              		.loc 1 157 0 is_stmt 0 discriminator 1
 499 0238 FB79     		ldrb	r3, [r7, #7]	@ zero_extendqisi2
 500 023a 142B     		cmp	r3, #20
 501 023c F1D9     		bls	.L14
 159:..\main.c     ****     }
 160:..\main.c     ****     z=975;
 502              		.loc 1 160 0 is_stmt 1
 503 023e 40F2CF33 		movw	r3, #975
 504 0242 3B60     		str	r3, [r7]
 161:..\main.c     ****     for(y=0;y<4;y++){
 505              		.loc 1 161 0
 506 0244 0023     		movs	r3, #0
 507 0246 BB71     		strb	r3, [r7, #6]
 508 0248 27E0     		b	.L15
 509              	.L18:
 162:..\main.c     ****         for(x=1;x<=6;x++){
 510              		.loc 1 162 0
 511 024a 0123     		movs	r3, #1
ARM GAS  C:\Users\RECEPC~1\AppData\Local\Temp\ccGwunar.s 			page 13


 512 024c FB71     		strb	r3, [r7, #7]
 513 024e 14E0     		b	.L16
 514              	.L17:
 163:..\main.c     ****             side.a.ppuAuthorized[y][x]=CY_GET_REG8(CYDEV_EE_BASE + (z+x));
 515              		.loc 1 163 0 discriminator 3
 516 0250 B979     		ldrb	r1, [r7, #6]	@ zero_extendqisi2
 517 0252 FA79     		ldrb	r2, [r7, #7]	@ zero_extendqisi2
 518 0254 F879     		ldrb	r0, [r7, #7]	@ zero_extendqisi2
 519 0256 3B68     		ldr	r3, [r7]
 520 0258 0344     		add	r3, r3, r0
 521 025a 03F18043 		add	r3, r3, #1073741824
 522 025e 03F50043 		add	r3, r3, #32768
 523 0262 1B78     		ldrb	r3, [r3]
 524 0264 DCB2     		uxtb	r4, r3
 525 0266 4648     		ldr	r0, .L33+104
 526 0268 CB00     		lsls	r3, r1, #3
 527 026a 0344     		add	r3, r3, r0
 528 026c 1344     		add	r3, r3, r2
 529 026e B033     		adds	r3, r3, #176
 530 0270 2246     		mov	r2, r4
 531 0272 5A71     		strb	r2, [r3, #5]
 162:..\main.c     ****         for(x=1;x<=6;x++){
 532              		.loc 1 162 0 discriminator 3
 533 0274 FB79     		ldrb	r3, [r7, #7]	@ zero_extendqisi2
 534 0276 0133     		adds	r3, r3, #1
 535 0278 FB71     		strb	r3, [r7, #7]
 536              	.L16:
 162:..\main.c     ****         for(x=1;x<=6;x++){
 537              		.loc 1 162 0 is_stmt 0 discriminator 1
 538 027a FB79     		ldrb	r3, [r7, #7]	@ zero_extendqisi2
 539 027c 062B     		cmp	r3, #6
 540 027e E7D9     		bls	.L17
 164:..\main.c     ****         }
 165:..\main.c     ****         side.a.ppuAuthorized[y][0]=6;
 541              		.loc 1 165 0 is_stmt 1 discriminator 2
 542 0280 BB79     		ldrb	r3, [r7, #6]	@ zero_extendqisi2
 543 0282 3F4A     		ldr	r2, .L33+104
 544 0284 1633     		adds	r3, r3, #22
 545 0286 DB00     		lsls	r3, r3, #3
 546 0288 1344     		add	r3, r3, r2
 547 028a 0622     		movs	r2, #6
 548 028c 5A71     		strb	r2, [r3, #5]
 166:..\main.c     ****         z=z+6;
 549              		.loc 1 166 0 discriminator 2
 550 028e 3B68     		ldr	r3, [r7]
 551 0290 0633     		adds	r3, r3, #6
 552 0292 3B60     		str	r3, [r7]
 161:..\main.c     ****         for(x=1;x<=6;x++){
 553              		.loc 1 161 0 discriminator 2
 554 0294 BB79     		ldrb	r3, [r7, #6]	@ zero_extendqisi2
 555 0296 0133     		adds	r3, r3, #1
 556 0298 BB71     		strb	r3, [r7, #6]
 557              	.L15:
 161:..\main.c     ****         for(x=1;x<=6;x++){
 558              		.loc 1 161 0 is_stmt 0 discriminator 1
 559 029a BB79     		ldrb	r3, [r7, #6]	@ zero_extendqisi2
 560 029c 032B     		cmp	r3, #3
ARM GAS  C:\Users\RECEPC~1\AppData\Local\Temp\ccGwunar.s 			page 14


 561 029e D4D9     		bls	.L18
 167:..\main.c     ****     }
 168:..\main.c     ****     z=999;
 562              		.loc 1 168 0 is_stmt 1
 563 02a0 40F2E733 		movw	r3, #999
 564 02a4 3B60     		str	r3, [r7]
 169:..\main.c     ****     for(y=0;y<4;y++){
 565              		.loc 1 169 0
 566 02a6 0023     		movs	r3, #0
 567 02a8 BB71     		strb	r3, [r7, #6]
 568 02aa 28E0     		b	.L19
 569              	.L22:
 170:..\main.c     ****         for(x=1;x<=6;x++){
 570              		.loc 1 170 0
 571 02ac 0123     		movs	r3, #1
 572 02ae FB71     		strb	r3, [r7, #7]
 573 02b0 15E0     		b	.L20
 574              	.L21:
 171:..\main.c     ****             side.b.ppuAuthorized[y][x]=CY_GET_REG8(CYDEV_EE_BASE + (z+x));
 575              		.loc 1 171 0 discriminator 3
 576 02b2 B979     		ldrb	r1, [r7, #6]	@ zero_extendqisi2
 577 02b4 FA79     		ldrb	r2, [r7, #7]	@ zero_extendqisi2
 578 02b6 F879     		ldrb	r0, [r7, #7]	@ zero_extendqisi2
 579 02b8 3B68     		ldr	r3, [r7]
 580 02ba 0344     		add	r3, r3, r0
 581 02bc 03F18043 		add	r3, r3, #1073741824
 582 02c0 03F50043 		add	r3, r3, #32768
 583 02c4 1B78     		ldrb	r3, [r3]
 584 02c6 DCB2     		uxtb	r4, r3
 585 02c8 2D48     		ldr	r0, .L33+104
 586 02ca CB00     		lsls	r3, r1, #3
 587 02cc 0344     		add	r3, r3, r0
 588 02ce 1344     		add	r3, r3, r2
 589 02d0 03F5D873 		add	r3, r3, #432
 590 02d4 2246     		mov	r2, r4
 591 02d6 5A71     		strb	r2, [r3, #5]
 170:..\main.c     ****         for(x=1;x<=6;x++){
 592              		.loc 1 170 0 discriminator 3
 593 02d8 FB79     		ldrb	r3, [r7, #7]	@ zero_extendqisi2
 594 02da 0133     		adds	r3, r3, #1
 595 02dc FB71     		strb	r3, [r7, #7]
 596              	.L20:
 170:..\main.c     ****         for(x=1;x<=6;x++){
 597              		.loc 1 170 0 is_stmt 0 discriminator 1
 598 02de FB79     		ldrb	r3, [r7, #7]	@ zero_extendqisi2
 599 02e0 062B     		cmp	r3, #6
 600 02e2 E6D9     		bls	.L21
 172:..\main.c     ****         }
 173:..\main.c     ****         side.b.ppuAuthorized[y][0]=6;
 601              		.loc 1 173 0 is_stmt 1 discriminator 2
 602 02e4 BB79     		ldrb	r3, [r7, #6]	@ zero_extendqisi2
 603 02e6 264A     		ldr	r2, .L33+104
 604 02e8 3633     		adds	r3, r3, #54
 605 02ea DB00     		lsls	r3, r3, #3
 606 02ec 1344     		add	r3, r3, r2
 607 02ee 0622     		movs	r2, #6
 608 02f0 5A71     		strb	r2, [r3, #5]
ARM GAS  C:\Users\RECEPC~1\AppData\Local\Temp\ccGwunar.s 			page 15


 174:..\main.c     ****         z=z+6;
 609              		.loc 1 174 0 discriminator 2
 610 02f2 3B68     		ldr	r3, [r7]
 611 02f4 0633     		adds	r3, r3, #6
 612 02f6 3B60     		str	r3, [r7]
 169:..\main.c     ****         for(x=1;x<=6;x++){
 613              		.loc 1 169 0 discriminator 2
 614 02f8 BB79     		ldrb	r3, [r7, #6]	@ zero_extendqisi2
 615 02fa 0133     		adds	r3, r3, #1
 616 02fc BB71     		strb	r3, [r7, #6]
 617              	.L19:
 169:..\main.c     ****         for(x=1;x<=6;x++){
 618              		.loc 1 169 0 is_stmt 0 discriminator 1
 619 02fe BB79     		ldrb	r3, [r7, #6]	@ zero_extendqisi2
 620 0300 032B     		cmp	r3, #3
 621 0302 D3D9     		bls	.L22
 175:..\main.c     ****     }
 176:..\main.c     ****     z=911;
 622              		.loc 1 176 0 is_stmt 1
 623 0304 40F28F33 		movw	r3, #911
 624 0308 3B60     		str	r3, [r7]
 177:..\main.c     ****     for(y=0;y<3;y++){
 625              		.loc 1 177 0
 626 030a 0023     		movs	r3, #0
 627 030c BB71     		strb	r3, [r7, #6]
 628 030e 62E0     		b	.L23
 629              	.L26:
 178:..\main.c     ****         for(x=1;x<=8;x++){
 630              		.loc 1 178 0
 631 0310 0123     		movs	r3, #1
 632 0312 FB71     		strb	r3, [r7, #7]
 633 0314 4DE0     		b	.L24
 634              	.L34:
 635 0316 00BF     		.align	2
 636              	.L33:
 637 0318 00000000 		.word	timerBeagleTX
 638 031c 00000000 		.word	timerPump
 639 0320 00000000 		.word	countBeagleTX
 640 0324 00000000 		.word	button
 641 0328 B0830040 		.word	1073775536
 642 032c 00000000 		.word	digits
 643 0330 B1830040 		.word	1073775537
 644 0334 CDCCCCCC 		.word	-858993459
 645 0338 00000000 		.word	decimalMoney
 646 033c 00000000 		.word	decimalVolume
 647 0340 B2830040 		.word	1073775538
 648 0344 00000000 		.word	ppux10
 649 0348 B3830040 		.word	1073775539
 650 034c 00000000 		.word	productNumber
 651 0350 B4830040 		.word	1073775540
 652 0354 00000000 		.word	symbols
 653 0358 B5830040 		.word	1073775541
 654 035c B6830040 		.word	1073775542
 655 0360 1F85EB51 		.word	1374389535
 656 0364 00000000 		.word	ipAdress
 657 0368 BA830040 		.word	1073775546
 658 036c 00000000 		.word	turn
ARM GAS  C:\Users\RECEPC~1\AppData\Local\Temp\ccGwunar.s 			page 16


 659 0370 00000000 		.word	lockTurn
 660 0374 BB830040 		.word	1073775547
 661 0378 00000000 		.word	typeIdSeller
 662 037c 00000000 		.word	idSeller
 663 0380 00000000 		.word	side
 664              	.L25:
 179:..\main.c     ****             presetFast[y][x]=CY_GET_REG8(CYDEV_EE_BASE + (z+x));
 665              		.loc 1 179 0 discriminator 3
 666 0384 BA79     		ldrb	r2, [r7, #6]	@ zero_extendqisi2
 667 0386 F979     		ldrb	r1, [r7, #7]	@ zero_extendqisi2
 668 0388 F879     		ldrb	r0, [r7, #7]	@ zero_extendqisi2
 669 038a 3B68     		ldr	r3, [r7]
 670 038c 0344     		add	r3, r3, r0
 671 038e 03F18043 		add	r3, r3, #1073741824
 672 0392 03F50043 		add	r3, r3, #32768
 673 0396 1B78     		ldrb	r3, [r3]
 674 0398 DCB2     		uxtb	r4, r3
 675 039a 5948     		ldr	r0, .L35
 676 039c 1346     		mov	r3, r2
 677 039e 9B00     		lsls	r3, r3, #2
 678 03a0 1344     		add	r3, r3, r2
 679 03a2 5B00     		lsls	r3, r3, #1
 680 03a4 0B44     		add	r3, r3, r1
 681 03a6 0344     		add	r3, r3, r0
 682 03a8 2246     		mov	r2, r4
 683 03aa 1A70     		strb	r2, [r3]
 178:..\main.c     ****         for(x=1;x<=8;x++){
 684              		.loc 1 178 0 discriminator 3
 685 03ac FB79     		ldrb	r3, [r7, #7]	@ zero_extendqisi2
 686 03ae 0133     		adds	r3, r3, #1
 687 03b0 FB71     		strb	r3, [r7, #7]
 688              	.L24:
 178:..\main.c     ****         for(x=1;x<=8;x++){
 689              		.loc 1 178 0 is_stmt 0 discriminator 1
 690 03b2 FB79     		ldrb	r3, [r7, #7]	@ zero_extendqisi2
 691 03b4 082B     		cmp	r3, #8
 692 03b6 E5D9     		bls	.L25
 180:..\main.c     ****         }
 181:..\main.c     ****         presetFast[y][0]=8;
 693              		.loc 1 181 0 is_stmt 1 discriminator 2
 694 03b8 BA79     		ldrb	r2, [r7, #6]	@ zero_extendqisi2
 695 03ba 5149     		ldr	r1, .L35
 696 03bc 1346     		mov	r3, r2
 697 03be 9B00     		lsls	r3, r3, #2
 698 03c0 1344     		add	r3, r3, r2
 699 03c2 5B00     		lsls	r3, r3, #1
 700 03c4 0B44     		add	r3, r3, r1
 701 03c6 0822     		movs	r2, #8
 702 03c8 1A70     		strb	r2, [r3]
 182:..\main.c     ****         z=z+8;
 703              		.loc 1 182 0 discriminator 2
 704 03ca 3B68     		ldr	r3, [r7]
 705 03cc 0833     		adds	r3, r3, #8
 706 03ce 3B60     		str	r3, [r7]
 177:..\main.c     ****         for(x=1;x<=8;x++){
 707              		.loc 1 177 0 discriminator 2
 708 03d0 BB79     		ldrb	r3, [r7, #6]	@ zero_extendqisi2
ARM GAS  C:\Users\RECEPC~1\AppData\Local\Temp\ccGwunar.s 			page 17


 709 03d2 0133     		adds	r3, r3, #1
 710 03d4 BB71     		strb	r3, [r7, #6]
 711              	.L23:
 177:..\main.c     ****         for(x=1;x<=8;x++){
 712              		.loc 1 177 0 is_stmt 0 discriminator 1
 713 03d6 BB79     		ldrb	r3, [r7, #6]	@ zero_extendqisi2
 714 03d8 022B     		cmp	r3, #2
 715 03da 99D9     		bls	.L26
 183:..\main.c     ****     }
 184:..\main.c     ****     for(y=0;y<3;y++){
 716              		.loc 1 184 0 is_stmt 1
 717 03dc 0023     		movs	r3, #0
 718 03de BB71     		strb	r3, [r7, #6]
 719 03e0 3DE0     		b	.L27
 720              	.L30:
 185:..\main.c     ****         for(x=1;x<=digits;x++){
 721              		.loc 1 185 0
 722 03e2 0123     		movs	r3, #1
 723 03e4 FB71     		strb	r3, [r7, #7]
 724 03e6 25E0     		b	.L28
 725              	.L29:
 186:..\main.c     ****             presetFast[y][x]=presetFast[y][x+(presetFast[y][0]-digits)];
 726              		.loc 1 186 0 discriminator 3
 727 03e8 BA79     		ldrb	r2, [r7, #6]	@ zero_extendqisi2
 728 03ea FC79     		ldrb	r4, [r7, #7]	@ zero_extendqisi2
 729 03ec B979     		ldrb	r1, [r7, #6]	@ zero_extendqisi2
 730 03ee FD79     		ldrb	r5, [r7, #7]	@ zero_extendqisi2
 731 03f0 B879     		ldrb	r0, [r7, #6]	@ zero_extendqisi2
 732 03f2 434E     		ldr	r6, .L35
 733 03f4 0346     		mov	r3, r0
 734 03f6 9B00     		lsls	r3, r3, #2
 735 03f8 0344     		add	r3, r3, r0
 736 03fa 5B00     		lsls	r3, r3, #1
 737 03fc 3344     		add	r3, r3, r6
 738 03fe 1B78     		ldrb	r3, [r3]	@ zero_extendqisi2
 739 0400 1846     		mov	r0, r3
 740 0402 404B     		ldr	r3, .L35+4
 741 0404 1B78     		ldrb	r3, [r3]
 742 0406 DBB2     		uxtb	r3, r3
 743 0408 C31A     		subs	r3, r0, r3
 744 040a E818     		adds	r0, r5, r3
 745 040c 3C4D     		ldr	r5, .L35
 746 040e 0B46     		mov	r3, r1
 747 0410 9B00     		lsls	r3, r3, #2
 748 0412 0B44     		add	r3, r3, r1
 749 0414 5B00     		lsls	r3, r3, #1
 750 0416 0344     		add	r3, r3, r0
 751 0418 2B44     		add	r3, r3, r5
 752 041a 1878     		ldrb	r0, [r3]	@ zero_extendqisi2
 753 041c 3849     		ldr	r1, .L35
 754 041e 1346     		mov	r3, r2
 755 0420 9B00     		lsls	r3, r3, #2
 756 0422 1344     		add	r3, r3, r2
 757 0424 5B00     		lsls	r3, r3, #1
 758 0426 2344     		add	r3, r3, r4
 759 0428 0B44     		add	r3, r3, r1
 760 042a 0246     		mov	r2, r0
ARM GAS  C:\Users\RECEPC~1\AppData\Local\Temp\ccGwunar.s 			page 18


 761 042c 1A70     		strb	r2, [r3]
 185:..\main.c     ****         for(x=1;x<=digits;x++){
 762              		.loc 1 185 0 discriminator 3
 763 042e FB79     		ldrb	r3, [r7, #7]	@ zero_extendqisi2
 764 0430 0133     		adds	r3, r3, #1
 765 0432 FB71     		strb	r3, [r7, #7]
 766              	.L28:
 185:..\main.c     ****         for(x=1;x<=digits;x++){
 767              		.loc 1 185 0 is_stmt 0 discriminator 1
 768 0434 334B     		ldr	r3, .L35+4
 769 0436 1B78     		ldrb	r3, [r3]
 770 0438 DBB2     		uxtb	r3, r3
 771 043a FA79     		ldrb	r2, [r7, #7]	@ zero_extendqisi2
 772 043c 9A42     		cmp	r2, r3
 773 043e D3D9     		bls	.L29
 187:..\main.c     ****         }
 188:..\main.c     ****         presetFast[y][0]=digits;
 774              		.loc 1 188 0 is_stmt 1 discriminator 2
 775 0440 BA79     		ldrb	r2, [r7, #6]	@ zero_extendqisi2
 776 0442 304B     		ldr	r3, .L35+4
 777 0444 1B78     		ldrb	r3, [r3]
 778 0446 D8B2     		uxtb	r0, r3
 779 0448 2D49     		ldr	r1, .L35
 780 044a 1346     		mov	r3, r2
 781 044c 9B00     		lsls	r3, r3, #2
 782 044e 1344     		add	r3, r3, r2
 783 0450 5B00     		lsls	r3, r3, #1
 784 0452 0B44     		add	r3, r3, r1
 785 0454 0246     		mov	r2, r0
 786 0456 1A70     		strb	r2, [r3]
 184:..\main.c     ****         for(x=1;x<=digits;x++){
 787              		.loc 1 184 0 discriminator 2
 788 0458 BB79     		ldrb	r3, [r7, #6]	@ zero_extendqisi2
 789 045a 0133     		adds	r3, r3, #1
 790 045c BB71     		strb	r3, [r7, #6]
 791              	.L27:
 184:..\main.c     ****         for(x=1;x<=digits;x++){
 792              		.loc 1 184 0 is_stmt 0 discriminator 1
 793 045e BB79     		ldrb	r3, [r7, #6]	@ zero_extendqisi2
 794 0460 022B     		cmp	r3, #2
 795 0462 BED9     		bls	.L30
 189:..\main.c     ****     }
 190:..\main.c     ****     screen[0]=((CY_GET_REG8(CYDEV_EE_BASE + 936))&0x01)+0x30;
 796              		.loc 1 190 0 is_stmt 1
 797 0464 284B     		ldr	r3, .L35+8
 798 0466 1B78     		ldrb	r3, [r3]
 799 0468 DBB2     		uxtb	r3, r3
 800 046a 03F00103 		and	r3, r3, #1
 801 046e DBB2     		uxtb	r3, r3
 802 0470 3033     		adds	r3, r3, #48
 803 0472 DAB2     		uxtb	r2, r3
 804 0474 254B     		ldr	r3, .L35+12
 805 0476 1A70     		strb	r2, [r3]
 191:..\main.c     ****     screen[1]=((CY_GET_REG8(CYDEV_EE_BASE + 937))&0x01)+0x30;
 806              		.loc 1 191 0
 807 0478 254B     		ldr	r3, .L35+16
 808 047a 1B78     		ldrb	r3, [r3]
ARM GAS  C:\Users\RECEPC~1\AppData\Local\Temp\ccGwunar.s 			page 19


 809 047c DBB2     		uxtb	r3, r3
 810 047e 03F00103 		and	r3, r3, #1
 811 0482 DBB2     		uxtb	r3, r3
 812 0484 3033     		adds	r3, r3, #48
 813 0486 DAB2     		uxtb	r2, r3
 814 0488 204B     		ldr	r3, .L35+12
 815 048a 5A70     		strb	r2, [r3, #1]
 192:..\main.c     ****     for(x=0;x<4;x++){
 816              		.loc 1 192 0
 817 048c 0023     		movs	r3, #0
 818 048e FB71     		strb	r3, [r7, #7]
 819 0490 0BE0     		b	.L31
 820              	.L32:
 193:..\main.c     ****         passwordSeller[x+1]=(CY_GET_REG8(CYDEV_EE_BASE + (938+x)));
 821              		.loc 1 193 0 discriminator 3
 822 0492 FB79     		ldrb	r3, [r7, #7]	@ zero_extendqisi2
 823 0494 5A1C     		adds	r2, r3, #1
 824 0496 F979     		ldrb	r1, [r7, #7]	@ zero_extendqisi2
 825 0498 1E4B     		ldr	r3, .L35+20
 826 049a 0B44     		add	r3, r3, r1
 827 049c 1B78     		ldrb	r3, [r3]
 828 049e D9B2     		uxtb	r1, r3
 829 04a0 1D4B     		ldr	r3, .L35+24
 830 04a2 9954     		strb	r1, [r3, r2]
 192:..\main.c     ****     for(x=0;x<4;x++){
 831              		.loc 1 192 0 discriminator 3
 832 04a4 FB79     		ldrb	r3, [r7, #7]	@ zero_extendqisi2
 833 04a6 0133     		adds	r3, r3, #1
 834 04a8 FB71     		strb	r3, [r7, #7]
 835              	.L31:
 192:..\main.c     ****     for(x=0;x<4;x++){
 836              		.loc 1 192 0 is_stmt 0 discriminator 1
 837 04aa FB79     		ldrb	r3, [r7, #7]	@ zero_extendqisi2
 838 04ac 032B     		cmp	r3, #3
 839 04ae F0D9     		bls	.L32
 194:..\main.c     ****     }
 195:..\main.c     ****     bufferLCD1.stateMux[1]=0x16;
 840              		.loc 1 195 0 is_stmt 1
 841 04b0 1A4B     		ldr	r3, .L35+28
 842 04b2 1622     		movs	r2, #22
 843 04b4 83F89420 		strb	r2, [r3, #148]
 196:..\main.c     ****     bufferLCD2.stateMux[1]=0x16;
 844              		.loc 1 196 0
 845 04b8 194B     		ldr	r3, .L35+32
 846 04ba 1622     		movs	r2, #22
 847 04bc 83F89420 		strb	r2, [r3, #148]
 197:..\main.c     ****     bufferLCD1.stateMux[2]=0;
 848              		.loc 1 197 0
 849 04c0 164B     		ldr	r3, .L35+28
 850 04c2 0022     		movs	r2, #0
 851 04c4 83F89520 		strb	r2, [r3, #149]
 198:..\main.c     ****     bufferLCD2.stateMux[2]=0;
 852              		.loc 1 198 0
 853 04c8 154B     		ldr	r3, .L35+32
 854 04ca 0022     		movs	r2, #0
 855 04cc 83F89520 		strb	r2, [r3, #149]
 199:..\main.c     ****     bufferLCD1.flagChangePPU=0;
ARM GAS  C:\Users\RECEPC~1\AppData\Local\Temp\ccGwunar.s 			page 20


 856              		.loc 1 199 0
 857 04d0 124B     		ldr	r3, .L35+28
 858 04d2 0022     		movs	r2, #0
 859 04d4 83F89422 		strb	r2, [r3, #660]
 200:..\main.c     ****     bufferLCD2.flagChangePPU=0;
 860              		.loc 1 200 0
 861 04d8 114B     		ldr	r3, .L35+32
 862 04da 0022     		movs	r2, #0
 863 04dc 83F89422 		strb	r2, [r3, #660]
 201:..\main.c     ****     flagResetMux=0;
 864              		.loc 1 201 0
 865 04e0 104B     		ldr	r3, .L35+36
 866 04e2 0022     		movs	r2, #0
 867 04e4 1A70     		strb	r2, [r3]
 202:..\main.c     ****     flowLCD1=1;
 868              		.loc 1 202 0
 869 04e6 104B     		ldr	r3, .L35+40
 870 04e8 0122     		movs	r2, #1
 871 04ea 1A60     		str	r2, [r3]
 203:..\main.c     ****     flowLCD2=1;
 872              		.loc 1 203 0
 873 04ec 0F4B     		ldr	r3, .L35+44
 874 04ee 0122     		movs	r2, #1
 875 04f0 1A60     		str	r2, [r3]
 204:..\main.c     ****     stateBeagleSoft=0;//En comunicacion
 876              		.loc 1 204 0
 877 04f2 0F4B     		ldr	r3, .L35+48
 878 04f4 0022     		movs	r2, #0
 879 04f6 1A70     		strb	r2, [r3]
 205:..\main.c     **** }
 880              		.loc 1 205 0
 881 04f8 0C37     		adds	r7, r7, #12
 882              		.cfi_def_cfa_offset 20
 883 04fa BD46     		mov	sp, r7
 884              		.cfi_def_cfa_register 13
 885              		@ sp needed
 886 04fc F0BD     		pop	{r4, r5, r6, r7, pc}
 887              	.L36:
 888 04fe 00BF     		.align	2
 889              	.L35:
 890 0500 00000000 		.word	presetFast
 891 0504 00000000 		.word	digits
 892 0508 A8830040 		.word	1073775528
 893 050c 00000000 		.word	screen
 894 0510 A9830040 		.word	1073775529
 895 0514 AA830040 		.word	1073775530
 896 0518 00000000 		.word	passwordSeller
 897 051c 00000000 		.word	bufferLCD1
 898 0520 00000000 		.word	bufferLCD2
 899 0524 00000000 		.word	flagResetMux
 900 0528 00000000 		.word	flowLCD1
 901 052c 00000000 		.word	flowLCD2
 902 0530 00000000 		.word	stateBeagleSoft
 903              		.cfi_endproc
 904              	.LFE57:
 905              		.size	init_mux, .-init_mux
 906              		.section	.text.init_pump,"ax",%progbits
ARM GAS  C:\Users\RECEPC~1\AppData\Local\Temp\ccGwunar.s 			page 21


 907              		.align	2
 908              		.global	init_pump
 909              		.thumb
 910              		.thumb_func
 911              		.type	init_pump, %function
 912              	init_pump:
 913              	.LFB58:
 206:..\main.c     **** 
 207:..\main.c     **** /*
 208:..\main.c     **** ***************************************************************************************************
 209:..\main.c     **** *                                         init_pump( void )
 210:..\main.c     **** *
 211:..\main.c     **** * Description : Obtiene posiciones y verifica estado del surtidor.
 212:..\main.c     **** *               
 213:..\main.c     **** *
 214:..\main.c     **** * Argument(s) : none
 215:..\main.c     **** *
 216:..\main.c     **** * Return(s)   : none
 217:..\main.c     **** *
 218:..\main.c     **** * Caller(s)   : main()
 219:..\main.c     **** *
 220:..\main.c     **** * Note(s)     : none.
 221:..\main.c     **** ***************************************************************************************************
 222:..\main.c     **** */
 223:..\main.c     **** void init_pump(void){
 914              		.loc 1 223 0
 915              		.cfi_startproc
 916              		@ args = 0, pretend = 0, frame = 8
 917              		@ frame_needed = 1, uses_anonymous_args = 0
 918 0000 80B5     		push	{r7, lr}
 919              		.cfi_def_cfa_offset 8
 920              		.cfi_offset 7, -8
 921              		.cfi_offset 14, -4
 922 0002 82B0     		sub	sp, sp, #8
 923              		.cfi_def_cfa_offset 16
 924 0004 00AF     		add	r7, sp, #0
 925              		.cfi_def_cfa_register 7
 224:..\main.c     ****     uint8 flag=0,x;
 926              		.loc 1 224 0
 927 0006 0023     		movs	r3, #0
 928 0008 FB71     		strb	r3, [r7, #7]
 225:..\main.c     ****     
 226:..\main.c     ****     while(flag==0){
 929              		.loc 1 226 0
 930 000a 8DE0     		b	.L38
 931              	.L48:
 227:..\main.c     **** 		switch(get_position()){
 932              		.loc 1 227 0
 933 000c FFF7FEFF 		bl	get_position
 934 0010 0346     		mov	r3, r0
 935 0012 012B     		cmp	r3, #1
 936 0014 15D0     		beq	.L39
 937 0016 022B     		cmp	r3, #2
 938 0018 24D0     		beq	.L40
 939 001a 002B     		cmp	r3, #0
 940 001c 00D0     		beq	.L41
 941 001e 83E0     		b	.L38
ARM GAS  C:\Users\RECEPC~1\AppData\Local\Temp\ccGwunar.s 			page 22


 942              	.L41:
 228:..\main.c     **** 			case 0://No responde ninguna posicion
 229:..\main.c     **** 				set_picture(1,44);
 943              		.loc 1 229 0
 944 0020 0120     		movs	r0, #1
 945 0022 2C21     		movs	r1, #44
 946 0024 FFF7FEFF 		bl	set_picture
 230:..\main.c     ****                 write_button(1,'Q');//Error de sistema
 947              		.loc 1 230 0
 948 0028 0120     		movs	r0, #1
 949 002a 5121     		movs	r1, #81
 950 002c FFF7FEFF 		bl	write_button
 231:..\main.c     ****                 set_picture(2,44);
 951              		.loc 1 231 0
 952 0030 0220     		movs	r0, #2
 953 0032 2C21     		movs	r1, #44
 954 0034 FFF7FEFF 		bl	set_picture
 232:..\main.c     ****                 write_button(2,'Q');//Error de sistema
 955              		.loc 1 232 0
 956 0038 0220     		movs	r0, #2
 957 003a 5121     		movs	r1, #81
 958 003c FFF7FEFF 		bl	write_button
 233:..\main.c     **** 			break;
 959              		.loc 1 233 0
 960 0040 72E0     		b	.L38
 961              	.L39:
 234:..\main.c     **** 			
 235:..\main.c     **** 			case 1://Una de las pos no responde
 236:..\main.c     **** 				set_picture(1,44);
 962              		.loc 1 236 0
 963 0042 0120     		movs	r0, #1
 964 0044 2C21     		movs	r1, #44
 965 0046 FFF7FEFF 		bl	set_picture
 237:..\main.c     ****                 write_button(1,'Q');//Error de sistema
 966              		.loc 1 237 0
 967 004a 0120     		movs	r0, #1
 968 004c 5121     		movs	r1, #81
 969 004e FFF7FEFF 		bl	write_button
 238:..\main.c     ****                 set_picture(2,44);
 970              		.loc 1 238 0
 971 0052 0220     		movs	r0, #2
 972 0054 2C21     		movs	r1, #44
 973 0056 FFF7FEFF 		bl	set_picture
 239:..\main.c     ****                 write_button(2,'Q');//Error de sistema										
 974              		.loc 1 239 0
 975 005a 0220     		movs	r0, #2
 976 005c 5121     		movs	r1, #81
 977 005e FFF7FEFF 		bl	write_button
 240:..\main.c     **** 			break;
 978              		.loc 1 240 0
 979 0062 61E0     		b	.L38
 980              	.L40:
 241:..\main.c     **** 			
 242:..\main.c     **** 			case 2:
 243:..\main.c     ****     			CyDelay(100);
 981              		.loc 1 243 0
 982 0064 6420     		movs	r0, #100
ARM GAS  C:\Users\RECEPC~1\AppData\Local\Temp\ccGwunar.s 			page 23


 983 0066 FFF7FEFF 		bl	CyDelay
 244:..\main.c     ****                 if(get_state(side.a.dir)==6){	
 984              		.loc 1 244 0
 985 006a 334B     		ldr	r3, .L50
 986 006c 1B78     		ldrb	r3, [r3]	@ zero_extendqisi2
 987 006e 1846     		mov	r0, r3
 988 0070 FFF7FEFF 		bl	get_state
 989 0074 0346     		mov	r3, r0
 990 0076 062B     		cmp	r3, #6
 991 0078 45D1     		bne	.L42
 245:..\main.c     ****     				if(get_state(side.b.dir)==6){
 992              		.loc 1 245 0
 993 007a 2F4B     		ldr	r3, .L50
 994 007c 93F80031 		ldrb	r3, [r3, #256]	@ zero_extendqisi2
 995 0080 1846     		mov	r0, r3
 996 0082 FFF7FEFF 		bl	get_state
 997 0086 0346     		mov	r3, r0
 998 0088 062B     		cmp	r3, #6
 999 008a 2BD1     		bne	.L43
 246:..\main.c     ****                         for(x=0;x<productNumber;x++){
 1000              		.loc 1 246 0
 1001 008c 0023     		movs	r3, #0
 1002 008e BB71     		strb	r3, [r7, #6]
 1003 0090 1FE0     		b	.L44
 1004              	.L45:
 247:..\main.c     ****                             price_change(side.a.dir,x+1,side.a.ppuAuthorized[x]);
 1005              		.loc 1 247 0 discriminator 3
 1006 0092 294B     		ldr	r3, .L50
 1007 0094 1878     		ldrb	r0, [r3]	@ zero_extendqisi2
 1008 0096 BB79     		ldrb	r3, [r7, #6]
 1009 0098 0133     		adds	r3, r3, #1
 1010 009a D9B2     		uxtb	r1, r3
 1011 009c BB79     		ldrb	r3, [r7, #6]	@ zero_extendqisi2
 1012 009e 1633     		adds	r3, r3, #22
 1013 00a0 DB00     		lsls	r3, r3, #3
 1014 00a2 254A     		ldr	r2, .L50
 1015 00a4 1344     		add	r3, r3, r2
 1016 00a6 0533     		adds	r3, r3, #5
 1017 00a8 1A46     		mov	r2, r3
 1018 00aa FFF7FEFF 		bl	price_change
 248:..\main.c     ****                             price_change(side.b.dir,x+1,side.b.ppuAuthorized[x]);
 1019              		.loc 1 248 0 discriminator 3
 1020 00ae 224B     		ldr	r3, .L50
 1021 00b0 93F80001 		ldrb	r0, [r3, #256]	@ zero_extendqisi2
 1022 00b4 BB79     		ldrb	r3, [r7, #6]
 1023 00b6 0133     		adds	r3, r3, #1
 1024 00b8 D9B2     		uxtb	r1, r3
 1025 00ba BB79     		ldrb	r3, [r7, #6]	@ zero_extendqisi2
 1026 00bc 3633     		adds	r3, r3, #54
 1027 00be DB00     		lsls	r3, r3, #3
 1028 00c0 1D4A     		ldr	r2, .L50
 1029 00c2 1344     		add	r3, r3, r2
 1030 00c4 0533     		adds	r3, r3, #5
 1031 00c6 1A46     		mov	r2, r3
 1032 00c8 FFF7FEFF 		bl	price_change
 246:..\main.c     ****                         for(x=0;x<productNumber;x++){
 1033              		.loc 1 246 0 discriminator 3
ARM GAS  C:\Users\RECEPC~1\AppData\Local\Temp\ccGwunar.s 			page 24


 1034 00cc BB79     		ldrb	r3, [r7, #6]	@ zero_extendqisi2
 1035 00ce 0133     		adds	r3, r3, #1
 1036 00d0 BB71     		strb	r3, [r7, #6]
 1037              	.L44:
 246:..\main.c     ****                         for(x=0;x<productNumber;x++){
 1038              		.loc 1 246 0 is_stmt 0 discriminator 1
 1039 00d2 1A4B     		ldr	r3, .L50+4
 1040 00d4 1B78     		ldrb	r3, [r3]
 1041 00d6 DBB2     		uxtb	r3, r3
 1042 00d8 BA79     		ldrb	r2, [r7, #6]	@ zero_extendqisi2
 1043 00da 9A42     		cmp	r2, r3
 1044 00dc D9D3     		bcc	.L45
 249:..\main.c     ****                         }
 250:..\main.c     ****     					flag=2;							//Las dos pos contestaron
 1045              		.loc 1 250 0 is_stmt 1
 1046 00de 0223     		movs	r3, #2
 1047 00e0 FB71     		strb	r3, [r7, #7]
 1048 00e2 20E0     		b	.L47
 1049              	.L43:
 251:..\main.c     ****     				}else{
 252:..\main.c     ****                         set_picture(1,44);
 1050              		.loc 1 252 0
 1051 00e4 0120     		movs	r0, #1
 1052 00e6 2C21     		movs	r1, #44
 1053 00e8 FFF7FEFF 		bl	set_picture
 253:..\main.c     ****                         write_button(1,'Q');//Error de sistema
 1054              		.loc 1 253 0
 1055 00ec 0120     		movs	r0, #1
 1056 00ee 5121     		movs	r1, #81
 1057 00f0 FFF7FEFF 		bl	write_button
 254:..\main.c     ****                         set_picture(2,44);
 1058              		.loc 1 254 0
 1059 00f4 0220     		movs	r0, #2
 1060 00f6 2C21     		movs	r1, #44
 1061 00f8 FFF7FEFF 		bl	set_picture
 255:..\main.c     ****                         write_button(2,'Q');//Error de sistema
 1062              		.loc 1 255 0
 1063 00fc 0220     		movs	r0, #2
 1064 00fe 5121     		movs	r1, #81
 1065 0100 FFF7FEFF 		bl	write_button
 1066 0104 0FE0     		b	.L49
 1067              	.L42:
 256:..\main.c     ****                     }
 257:..\main.c     ****     			}else{
 258:..\main.c     ****                     set_picture(1,44);
 1068              		.loc 1 258 0
 1069 0106 0120     		movs	r0, #1
 1070 0108 2C21     		movs	r1, #44
 1071 010a FFF7FEFF 		bl	set_picture
 259:..\main.c     ****                     write_button(1,'Q');//Error de sistema
 1072              		.loc 1 259 0
 1073 010e 0120     		movs	r0, #1
 1074 0110 5121     		movs	r1, #81
 1075 0112 FFF7FEFF 		bl	write_button
 260:..\main.c     ****                     set_picture(2,44);
 1076              		.loc 1 260 0
 1077 0116 0220     		movs	r0, #2
ARM GAS  C:\Users\RECEPC~1\AppData\Local\Temp\ccGwunar.s 			page 25


 1078 0118 2C21     		movs	r1, #44
 1079 011a FFF7FEFF 		bl	set_picture
 261:..\main.c     ****                     write_button(2,'Q');//Error de sistema
 1080              		.loc 1 261 0
 1081 011e 0220     		movs	r0, #2
 1082 0120 5121     		movs	r1, #81
 1083 0122 FFF7FEFF 		bl	write_button
 1084              	.L47:
 1085              	.L49:
 262:..\main.c     ****                 }
 263:..\main.c     **** 			break;
 1086              		.loc 1 263 0
 1087 0126 00BF     		nop
 1088              	.L38:
 226:..\main.c     **** 		switch(get_position()){
 1089              		.loc 1 226 0
 1090 0128 FB79     		ldrb	r3, [r7, #7]	@ zero_extendqisi2
 1091 012a 002B     		cmp	r3, #0
 1092 012c 3FF46EAF 		beq	.L48
 264:..\main.c     **** 		}
 265:..\main.c     **** 	}
 266:..\main.c     **** }
 1093              		.loc 1 266 0
 1094 0130 0837     		adds	r7, r7, #8
 1095              		.cfi_def_cfa_offset 8
 1096 0132 BD46     		mov	sp, r7
 1097              		.cfi_def_cfa_register 13
 1098              		@ sp needed
 1099 0134 80BD     		pop	{r7, pc}
 1100              	.L51:
 1101 0136 00BF     		.align	2
 1102              	.L50:
 1103 0138 00000000 		.word	side
 1104 013c 00000000 		.word	productNumber
 1105              		.cfi_endproc
 1106              	.LFE58:
 1107              		.size	init_pump, .-init_pump
 1108              		.section	.text.polling_Beagle_RX,"ax",%progbits
 1109              		.align	2
 1110              		.global	polling_Beagle_RX
 1111              		.thumb
 1112              		.thumb_func
 1113              		.type	polling_Beagle_RX, %function
 1114              	polling_Beagle_RX:
 1115              	.LFB59:
 267:..\main.c     **** 
 268:..\main.c     **** /*
 269:..\main.c     **** ***************************************************************************************************
 270:..\main.c     **** *                                      polling_Beagle_RX( void )
 271:..\main.c     **** *
 272:..\main.c     **** * Description : transmite datos por serial de la posicion 1.
 273:..\main.c     **** *               
 274:..\main.c     **** *
 275:..\main.c     **** * Argument(s) : none
 276:..\main.c     **** *
 277:..\main.c     **** * Return(s)   : none
 278:..\main.c     **** *
ARM GAS  C:\Users\RECEPC~1\AppData\Local\Temp\ccGwunar.s 			page 26


 279:..\main.c     **** * Caller(s)   : main()
 280:..\main.c     **** *
 281:..\main.c     **** * Note(s)     : none.
 282:..\main.c     **** ***************************************************************************************************
 283:..\main.c     **** */
 284:..\main.c     **** void polling_Beagle_RX(void){
 1116              		.loc 1 284 0
 1117              		.cfi_startproc
 1118              		@ args = 0, pretend = 0, frame = 1536
 1119              		@ frame_needed = 1, uses_anonymous_args = 0
 1120 0000 90B5     		push	{r4, r7, lr}
 1121              		.cfi_def_cfa_offset 12
 1122              		.cfi_offset 4, -12
 1123              		.cfi_offset 7, -8
 1124              		.cfi_offset 14, -4
 1125 0002 ADF2046D 		subw	sp, sp, #1540
 1126              		.cfi_def_cfa_offset 1552
 1127 0006 00AF     		add	r7, sp, #0
 1128              		.cfi_def_cfa_register 7
 285:..\main.c     ****     unsigned int state1, state2;
 286:..\main.c     ****     uint8 bufferBeagleRX[1100],bufferBeagleTX[400];
 287:..\main.c     ****     uint32 sizeRX,sizeTX,x,y=0,z,w;
 1129              		.loc 1 287 0
 1130 0008 0023     		movs	r3, #0
 1131 000a C7F8F035 		str	r3, [r7, #1520]
 288:..\main.c     **** 	if(Beagle_GetRxBufferSize() >= 1){
 1132              		.loc 1 288 0
 1133 000e FFF7FEFF 		bl	Beagle_GetRxBufferSize
 1134 0012 0346     		mov	r3, r0
 1135 0014 002B     		cmp	r3, #0
 1136 0016 03F04982 		beq	.L52
 289:..\main.c     **** 		state1=Beagle_GetRxBufferSize();
 1137              		.loc 1 289 0
 1138 001a FFF7FEFF 		bl	Beagle_GetRxBufferSize
 1139 001e 0346     		mov	r3, r0
 1140 0020 C7F8E435 		str	r3, [r7, #1508]
 290:..\main.c     **** 		CyDelay(50);
 1141              		.loc 1 290 0
 1142 0024 3220     		movs	r0, #50
 1143 0026 FFF7FEFF 		bl	CyDelay
 291:..\main.c     **** 		state2=Beagle_GetRxBufferSize();
 1144              		.loc 1 291 0
 1145 002a FFF7FEFF 		bl	Beagle_GetRxBufferSize
 1146 002e 0346     		mov	r3, r0
 1147 0030 C7F8E035 		str	r3, [r7, #1504]
 292:..\main.c     **** 		if(state1==state2){
 1148              		.loc 1 292 0
 1149 0034 D7F8E425 		ldr	r2, [r7, #1508]
 1150 0038 D7F8E035 		ldr	r3, [r7, #1504]
 1151 003c 9A42     		cmp	r2, r3
 1152 003e 43F03582 		bne	.L52
 293:..\main.c     **** 			sizeRX=0;
 1153              		.loc 1 293 0
 1154 0042 0023     		movs	r3, #0
 1155 0044 C7F8FC35 		str	r3, [r7, #1532]
 294:..\main.c     **** 			while(Beagle_GetRxBufferSize()>0){
 1156              		.loc 1 294 0
ARM GAS  C:\Users\RECEPC~1\AppData\Local\Temp\ccGwunar.s 			page 27


 1157 0048 0FE0     		b	.L54
 1158              	.L55:
 295:..\main.c     ****         		bufferBeagleRX[sizeRX]=Beagle_ReadRxData();
 1159              		.loc 1 295 0
 1160 004a FFF7FEFF 		bl	Beagle_ReadRxData
 1161 004e 0346     		mov	r3, r0
 1162 0050 1946     		mov	r1, r3
 1163 0052 07F5CA72 		add	r2, r7, #404
 1164 0056 D7F8FC35 		ldr	r3, [r7, #1532]
 1165 005a 1344     		add	r3, r3, r2
 1166 005c 0A46     		mov	r2, r1
 1167 005e 1A70     		strb	r2, [r3]
 296:..\main.c     ****         		sizeRX++;
 1168              		.loc 1 296 0
 1169 0060 D7F8FC35 		ldr	r3, [r7, #1532]
 1170 0064 0133     		adds	r3, r3, #1
 1171 0066 C7F8FC35 		str	r3, [r7, #1532]
 1172              	.L54:
 294:..\main.c     **** 			while(Beagle_GetRxBufferSize()>0){
 1173              		.loc 1 294 0
 1174 006a FFF7FEFF 		bl	Beagle_GetRxBufferSize
 1175 006e 0346     		mov	r3, r0
 1176 0070 002B     		cmp	r3, #0
 1177 0072 EAD1     		bne	.L55
 297:..\main.c     ****         	}
 298:..\main.c     ****         	Beagle_ClearRxBuffer();
 1178              		.loc 1 298 0
 1179 0074 FFF7FEFF 		bl	Beagle_ClearRxBuffer
 299:..\main.c     ****             CyWdtClear();
 1180              		.loc 1 299 0
 1181 0078 FFF7FEFF 		bl	CyWdtClear
 300:..\main.c     ****             bufferBeagleTX[0]='B';
 1182              		.loc 1 300 0
 1183 007c 3B1D     		adds	r3, r7, #4
 1184 007e 4222     		movs	r2, #66
 1185 0080 1A70     		strb	r2, [r3]
 301:..\main.c     ****             bufferBeagleTX[1]='G';
 1186              		.loc 1 301 0
 1187 0082 3B1D     		adds	r3, r7, #4
 1188 0084 4722     		movs	r2, #71
 1189 0086 5A70     		strb	r2, [r3, #1]
 302:..\main.c     ****             bufferBeagleTX[2]='E';
 1190              		.loc 1 302 0
 1191 0088 3B1D     		adds	r3, r7, #4
 1192 008a 4522     		movs	r2, #69
 1193 008c 9A70     		strb	r2, [r3, #2]
 303:..\main.c     ****             bufferBeagleTX[3]=side.a.dir;
 1194              		.loc 1 303 0
 1195 008e B34B     		ldr	r3, .L406
 1196 0090 1A78     		ldrb	r2, [r3]	@ zero_extendqisi2
 1197 0092 3B1D     		adds	r3, r7, #4
 1198 0094 DA70     		strb	r2, [r3, #3]
 304:..\main.c     ****             bufferBeagleTX[4]='c';
 1199              		.loc 1 304 0
 1200 0096 3B1D     		adds	r3, r7, #4
 1201 0098 6322     		movs	r2, #99
 1202 009a 1A71     		strb	r2, [r3, #4]
ARM GAS  C:\Users\RECEPC~1\AppData\Local\Temp\ccGwunar.s 			page 28


 305:..\main.c     ****             bufferBeagleTX[5]=';';
 1203              		.loc 1 305 0
 1204 009c 3B1D     		adds	r3, r7, #4
 1205 009e 3B22     		movs	r2, #59
 1206 00a0 5A71     		strb	r2, [r3, #5]
 306:..\main.c     ****             bufferBeagleTX[7]=';';
 1207              		.loc 1 306 0
 1208 00a2 3B1D     		adds	r3, r7, #4
 1209 00a4 3B22     		movs	r2, #59
 1210 00a6 DA71     		strb	r2, [r3, #7]
 307:..\main.c     ****             bufferBeagleTX[8]='&';
 1211              		.loc 1 307 0
 1212 00a8 3B1D     		adds	r3, r7, #4
 1213 00aa 2622     		movs	r2, #38
 1214 00ac 1A72     		strb	r2, [r3, #8]
 308:..\main.c     ****             if((bufferBeagleRX[0]=='M') && (bufferBeagleRX[1]=='U') && (bufferBeagleRX[2]=='X') && 
 1215              		.loc 1 308 0
 1216 00ae 07F5CA73 		add	r3, r7, #404
 1217 00b2 1B78     		ldrb	r3, [r3]	@ zero_extendqisi2
 1218 00b4 4D2B     		cmp	r3, #77
 1219 00b6 43F04A81 		bne	.L56
 1220              		.loc 1 308 0 is_stmt 0 discriminator 1
 1221 00ba 07F5CA73 		add	r3, r7, #404
 1222 00be 5B78     		ldrb	r3, [r3, #1]	@ zero_extendqisi2
 1223 00c0 552B     		cmp	r3, #85
 1224 00c2 43F04481 		bne	.L56
 1225              		.loc 1 308 0 discriminator 2
 1226 00c6 07F5CA73 		add	r3, r7, #404
 1227 00ca 9B78     		ldrb	r3, [r3, #2]	@ zero_extendqisi2
 1228 00cc 582B     		cmp	r3, #88
 1229 00ce 43F03E81 		bne	.L56
 1230              		.loc 1 308 0 discriminator 3
 1231 00d2 D7F8FC35 		ldr	r3, [r7, #1532]
 1232 00d6 013B     		subs	r3, r3, #1
 1233 00d8 07F5CA72 		add	r2, r7, #404
 1234 00dc D35C     		ldrb	r3, [r2, r3]	@ zero_extendqisi2
 1235 00de 2A2B     		cmp	r3, #42
 1236 00e0 43F03581 		bne	.L56
 309:..\main.c     ****                 if(bufferBeagleRX[3]==side.a.dir){
 1237              		.loc 1 309 0 is_stmt 1
 1238 00e4 07F5CA73 		add	r3, r7, #404
 1239 00e8 DA78     		ldrb	r2, [r3, #3]	@ zero_extendqisi2
 1240 00ea 9C4B     		ldr	r3, .L406
 1241 00ec 1B78     		ldrb	r3, [r3]	@ zero_extendqisi2
 1242 00ee 9A42     		cmp	r2, r3
 1243 00f0 41F0B483 		bne	.L57
 310:..\main.c     ****                     switch(bufferBeagleRX[4]){
 1244              		.loc 1 310 0
 1245 00f4 07F5CA73 		add	r3, r7, #404
 1246 00f8 1B79     		ldrb	r3, [r3, #4]	@ zero_extendqisi2
 1247 00fa 413B     		subs	r3, r3, #65
 1248 00fc 182B     		cmp	r3, #24
 1249 00fe 01F28D83 		bhi	.L58
 1250 0102 01A2     		adr	r2, .L60
 1251 0104 52F823F0 		ldr	pc, [r2, r3, lsl #2]
 1252              		.p2align 2
 1253              	.L60:
ARM GAS  C:\Users\RECEPC~1\AppData\Local\Temp\ccGwunar.s 			page 29


 1254 0108 6D010000 		.word	.L59+1
 1255 010c E7010000 		.word	.L61+1
 1256 0110 13020000 		.word	.L62+1
 1257 0114 2F030000 		.word	.L63+1
 1258 0118 6D050000 		.word	.L64+1
 1259 011c CF050000 		.word	.L65+1
 1260 0120 8D060000 		.word	.L66+1
 1261 0124 290F0000 		.word	.L67+1
 1262 0128 6F120000 		.word	.L68+1
 1263 012c 03130000 		.word	.L69+1
 1264 0130 87130000 		.word	.L70+1
 1265 0134 AD130000 		.word	.L71+1
 1266 0138 2B150000 		.word	.L72+1
 1267 013c 89150000 		.word	.L73+1
 1268 0140 97150000 		.word	.L74+1
 1269 0144 23160000 		.word	.L75+1
 1270 0148 1D180000 		.word	.L58+1
 1271 014c 1D180000 		.word	.L58+1
 1272 0150 1D180000 		.word	.L58+1
 1273 0154 1D180000 		.word	.L58+1
 1274 0158 1D180000 		.word	.L58+1
 1275 015c 1D180000 		.word	.L58+1
 1276 0160 1D180000 		.word	.L58+1
 1277 0164 1D180000 		.word	.L58+1
 1278 0168 49160000 		.word	.L76+1
 1279              		.p2align 1
 1280              	.L59:
 311:..\main.c     ****                         case 0x41://Respuesta a peticion numero de venta a discriminar en forma de 
 312:..\main.c     ****                             if(bufferBeagleRX[6]=='1'){//Aceptado
 1281              		.loc 1 312 0
 1282 016c 07F5CA73 		add	r3, r7, #404
 1283 0170 9B79     		ldrb	r3, [r3, #6]	@ zero_extendqisi2
 1284 0172 312B     		cmp	r3, #49
 1285 0174 2BD1     		bne	.L77
 313:..\main.c     ****                                 bufferLCD1.moneySelectedSale[0]=8;
 1286              		.loc 1 313 0
 1287 0176 7A4B     		ldr	r3, .L406+4
 1288 0178 0822     		movs	r2, #8
 1289 017a 83F83F20 		strb	r2, [r3, #63]
 314:..\main.c     ****                                 for(x=1;x<=8;x++){
 1290              		.loc 1 314 0
 1291 017e 0123     		movs	r3, #1
 1292 0180 C7F8F435 		str	r3, [r7, #1524]
 1293 0184 11E0     		b	.L78
 1294              	.L79:
 315:..\main.c     ****                                     bufferLCD1.moneySelectedSale[x]=bufferBeagleRX[x+7];
 1295              		.loc 1 315 0 discriminator 3
 1296 0186 D7F8F435 		ldr	r3, [r7, #1524]
 1297 018a 0733     		adds	r3, r3, #7
 1298 018c 07F5CA72 		add	r2, r7, #404
 1299 0190 D15C     		ldrb	r1, [r2, r3]	@ zero_extendqisi2
 1300 0192 734A     		ldr	r2, .L406+4
 1301 0194 D7F8F435 		ldr	r3, [r7, #1524]
 1302 0198 1344     		add	r3, r3, r2
 1303 019a 3833     		adds	r3, r3, #56
 1304 019c 0A46     		mov	r2, r1
 1305 019e DA71     		strb	r2, [r3, #7]
ARM GAS  C:\Users\RECEPC~1\AppData\Local\Temp\ccGwunar.s 			page 30


 314:..\main.c     ****                                 for(x=1;x<=8;x++){
 1306              		.loc 1 314 0 discriminator 3
 1307 01a0 D7F8F435 		ldr	r3, [r7, #1524]
 1308 01a4 0133     		adds	r3, r3, #1
 1309 01a6 C7F8F435 		str	r3, [r7, #1524]
 1310              	.L78:
 314:..\main.c     ****                                 for(x=1;x<=8;x++){
 1311              		.loc 1 314 0 is_stmt 0 discriminator 1
 1312 01aa D7F8F435 		ldr	r3, [r7, #1524]
 1313 01ae 082B     		cmp	r3, #8
 1314 01b0 E9D9     		bls	.L79
 316:..\main.c     ****                                 }
 317:..\main.c     ****                                 bufferLCD1.keyboardWayToPay=(bufferBeagleRX[17]&0x01);
 1315              		.loc 1 317 0 is_stmt 1
 1316 01b2 07F5CA73 		add	r3, r7, #404
 1317 01b6 5B7C     		ldrb	r3, [r3, #17]	@ zero_extendqisi2
 1318 01b8 03F00103 		and	r3, r3, #1
 1319 01bc DAB2     		uxtb	r2, r3
 1320 01be 684B     		ldr	r3, .L406+4
 1321 01c0 83F86220 		strb	r2, [r3, #98]
 318:..\main.c     ****                                 bufferLCD1.authorizationFlag=1;
 1322              		.loc 1 318 0
 1323 01c4 664B     		ldr	r3, .L406+4
 1324 01c6 0122     		movs	r2, #1
 1325 01c8 83F86320 		strb	r2, [r3, #99]
 1326 01cc 03E0     		b	.L80
 1327              	.L77:
 319:..\main.c     ****                             }else{//No aceptado
 320:..\main.c     ****                                 bufferLCD1.authorizationFlag=2;
 1328              		.loc 1 320 0
 1329 01ce 644B     		ldr	r3, .L406+4
 1330 01d0 0222     		movs	r2, #2
 1331 01d2 83F86320 		strb	r2, [r3, #99]
 1332              	.L80:
 321:..\main.c     ****                             }
 322:..\main.c     ****                             bufferBeagleTX[6]='1';
 1333              		.loc 1 322 0
 1334 01d6 3B1D     		adds	r3, r7, #4
 1335 01d8 3122     		movs	r2, #49
 1336 01da 9A71     		strb	r2, [r3, #6]
 323:..\main.c     ****                             sizeTX=6;
 1337              		.loc 1 323 0
 1338 01dc 0623     		movs	r3, #6
 1339 01de C7F8F835 		str	r3, [r7, #1528]
 324:..\main.c     ****                         break;
 1340              		.loc 1 324 0
 1341 01e2 01F01BBB 		b	.L58
 1342              	.L61:
 325:..\main.c     ****                         
 326:..\main.c     ****                         case 0x42://Aceptacion de forma de pago 
 327:..\main.c     ****                             if(bufferBeagleRX[6]=='1'){//Aceptado
 1343              		.loc 1 327 0
 1344 01e6 07F5CA73 		add	r3, r7, #404
 1345 01ea 9B79     		ldrb	r3, [r3, #6]	@ zero_extendqisi2
 1346 01ec 312B     		cmp	r3, #49
 1347 01ee 04D1     		bne	.L81
 328:..\main.c     ****                                 bufferLCD1.authorizationFlag=1;
ARM GAS  C:\Users\RECEPC~1\AppData\Local\Temp\ccGwunar.s 			page 31


 1348              		.loc 1 328 0
 1349 01f0 5B4B     		ldr	r3, .L406+4
 1350 01f2 0122     		movs	r2, #1
 1351 01f4 83F86320 		strb	r2, [r3, #99]
 1352 01f8 03E0     		b	.L82
 1353              	.L81:
 329:..\main.c     ****                             }else{//No aceptado
 330:..\main.c     ****                                 bufferLCD1.authorizationFlag=2;
 1354              		.loc 1 330 0
 1355 01fa 594B     		ldr	r3, .L406+4
 1356 01fc 0222     		movs	r2, #2
 1357 01fe 83F86320 		strb	r2, [r3, #99]
 1358              	.L82:
 331:..\main.c     ****                             }
 332:..\main.c     ****                             bufferBeagleTX[6]='1';
 1359              		.loc 1 332 0
 1360 0202 3B1D     		adds	r3, r7, #4
 1361 0204 3122     		movs	r2, #49
 1362 0206 9A71     		strb	r2, [r3, #6]
 333:..\main.c     ****                             sizeTX=6;
 1363              		.loc 1 333 0
 1364 0208 0623     		movs	r3, #6
 1365 020a C7F8F835 		str	r3, [r7, #1528]
 334:..\main.c     ****                         break;
 1366              		.loc 1 334 0
 1367 020e 01F005BB 		b	.L58
 1368              	.L62:
 335:..\main.c     ****                         
 336:..\main.c     ****                         case 0x43://Respuesta a peticion identificacion de usuario para venta combu
 337:..\main.c     ****                             if(bufferBeagleRX[6]=='1'){//Aceptado
 1369              		.loc 1 337 0
 1370 0212 07F5CA73 		add	r3, r7, #404
 1371 0216 9B79     		ldrb	r3, [r3, #6]	@ zero_extendqisi2
 1372 0218 312B     		cmp	r3, #49
 1373 021a 04D1     		bne	.L83
 338:..\main.c     ****                                 bufferLCD1.authorizationFlag=1;
 1374              		.loc 1 338 0
 1375 021c 504B     		ldr	r3, .L406+4
 1376 021e 0122     		movs	r2, #1
 1377 0220 83F86320 		strb	r2, [r3, #99]
 1378 0224 03E0     		b	.L84
 1379              	.L83:
 339:..\main.c     ****                             }else{//No aceptado
 340:..\main.c     ****                                 bufferLCD1.authorizationFlag=2;
 1380              		.loc 1 340 0
 1381 0226 4E4B     		ldr	r3, .L406+4
 1382 0228 0222     		movs	r2, #2
 1383 022a 83F86320 		strb	r2, [r3, #99]
 1384              	.L84:
 341:..\main.c     ****                             }
 342:..\main.c     ****                             bufferLCD1.volumeQuota[0]=8;
 1385              		.loc 1 342 0
 1386 022e 4C4B     		ldr	r3, .L406+4
 1387 0230 0822     		movs	r2, #8
 1388 0232 83F87421 		strb	r2, [r3, #372]
 343:..\main.c     ****                             for(x=1;x<=8;x++){
 1389              		.loc 1 343 0
ARM GAS  C:\Users\RECEPC~1\AppData\Local\Temp\ccGwunar.s 			page 32


 1390 0236 0123     		movs	r3, #1
 1391 0238 C7F8F435 		str	r3, [r7, #1524]
 1392 023c 12E0     		b	.L85
 1393              	.L86:
 344:..\main.c     ****                                 bufferLCD1.volumeQuota[x]=bufferBeagleRX[x+7];
 1394              		.loc 1 344 0 discriminator 3
 1395 023e D7F8F435 		ldr	r3, [r7, #1524]
 1396 0242 0733     		adds	r3, r3, #7
 1397 0244 07F5CA72 		add	r2, r7, #404
 1398 0248 D15C     		ldrb	r1, [r2, r3]	@ zero_extendqisi2
 1399 024a 454A     		ldr	r2, .L406+4
 1400 024c D7F8F435 		ldr	r3, [r7, #1524]
 1401 0250 1344     		add	r3, r3, r2
 1402 0252 03F5B873 		add	r3, r3, #368
 1403 0256 0A46     		mov	r2, r1
 1404 0258 1A71     		strb	r2, [r3, #4]
 343:..\main.c     ****                             for(x=1;x<=8;x++){
 1405              		.loc 1 343 0 discriminator 3
 1406 025a D7F8F435 		ldr	r3, [r7, #1524]
 1407 025e 0133     		adds	r3, r3, #1
 1408 0260 C7F8F435 		str	r3, [r7, #1524]
 1409              	.L85:
 343:..\main.c     ****                             for(x=1;x<=8;x++){
 1410              		.loc 1 343 0 is_stmt 0 discriminator 1
 1411 0264 D7F8F435 		ldr	r3, [r7, #1524]
 1412 0268 082B     		cmp	r3, #8
 1413 026a E8D9     		bls	.L86
 345:..\main.c     ****                             }
 346:..\main.c     ****                             bufferLCD1.moneyQuota[0]=8;
 1414              		.loc 1 346 0 is_stmt 1
 1415 026c 3C4B     		ldr	r3, .L406+4
 1416 026e 0822     		movs	r2, #8
 1417 0270 83F86A21 		strb	r2, [r3, #362]
 347:..\main.c     ****                             for(x=1;x<=8;x++){
 1418              		.loc 1 347 0
 1419 0274 0123     		movs	r3, #1
 1420 0276 C7F8F435 		str	r3, [r7, #1524]
 1421 027a 12E0     		b	.L87
 1422              	.L88:
 348:..\main.c     ****                                 bufferLCD1.moneyQuota[x]=bufferBeagleRX[x+16];
 1423              		.loc 1 348 0 discriminator 3
 1424 027c D7F8F435 		ldr	r3, [r7, #1524]
 1425 0280 1033     		adds	r3, r3, #16
 1426 0282 07F5CA72 		add	r2, r7, #404
 1427 0286 D15C     		ldrb	r1, [r2, r3]	@ zero_extendqisi2
 1428 0288 354A     		ldr	r2, .L406+4
 1429 028a D7F8F435 		ldr	r3, [r7, #1524]
 1430 028e 1344     		add	r3, r3, r2
 1431 0290 03F5B473 		add	r3, r3, #360
 1432 0294 0A46     		mov	r2, r1
 1433 0296 9A70     		strb	r2, [r3, #2]
 347:..\main.c     ****                             for(x=1;x<=8;x++){
 1434              		.loc 1 347 0 discriminator 3
 1435 0298 D7F8F435 		ldr	r3, [r7, #1524]
 1436 029c 0133     		adds	r3, r3, #1
 1437 029e C7F8F435 		str	r3, [r7, #1524]
 1438              	.L87:
ARM GAS  C:\Users\RECEPC~1\AppData\Local\Temp\ccGwunar.s 			page 33


 347:..\main.c     ****                             for(x=1;x<=8;x++){
 1439              		.loc 1 347 0 is_stmt 0 discriminator 1
 1440 02a2 D7F8F435 		ldr	r3, [r7, #1524]
 1441 02a6 082B     		cmp	r3, #8
 1442 02a8 E8D9     		bls	.L88
 349:..\main.c     ****                             }
 350:..\main.c     ****                             bufferLCD1.ppuQuota[0]=6;
 1443              		.loc 1 350 0 is_stmt 1
 1444 02aa 2D4B     		ldr	r3, .L406+4
 1445 02ac 0622     		movs	r2, #6
 1446 02ae 83F87E21 		strb	r2, [r3, #382]
 351:..\main.c     ****                             for(x=1;x<=6;x++){
 1447              		.loc 1 351 0
 1448 02b2 0123     		movs	r3, #1
 1449 02b4 C7F8F435 		str	r3, [r7, #1524]
 1450 02b8 12E0     		b	.L89
 1451              	.L90:
 352:..\main.c     ****                                 bufferLCD1.ppuQuota[x]=bufferBeagleRX[x+25];
 1452              		.loc 1 352 0 discriminator 3
 1453 02ba D7F8F435 		ldr	r3, [r7, #1524]
 1454 02be 1933     		adds	r3, r3, #25
 1455 02c0 07F5CA72 		add	r2, r7, #404
 1456 02c4 D15C     		ldrb	r1, [r2, r3]	@ zero_extendqisi2
 1457 02c6 264A     		ldr	r2, .L406+4
 1458 02c8 D7F8F435 		ldr	r3, [r7, #1524]
 1459 02cc 1344     		add	r3, r3, r2
 1460 02ce 03F5BC73 		add	r3, r3, #376
 1461 02d2 0A46     		mov	r2, r1
 1462 02d4 9A71     		strb	r2, [r3, #6]
 351:..\main.c     ****                             for(x=1;x<=6;x++){
 1463              		.loc 1 351 0 discriminator 3
 1464 02d6 D7F8F435 		ldr	r3, [r7, #1524]
 1465 02da 0133     		adds	r3, r3, #1
 1466 02dc C7F8F435 		str	r3, [r7, #1524]
 1467              	.L89:
 351:..\main.c     ****                             for(x=1;x<=6;x++){
 1468              		.loc 1 351 0 is_stmt 0 discriminator 1
 1469 02e0 D7F8F435 		ldr	r3, [r7, #1524]
 1470 02e4 062B     		cmp	r3, #6
 1471 02e6 E8D9     		bls	.L90
 353:..\main.c     ****                             }
 354:..\main.c     ****                             for(x=0;x<60;x++){
 1472              		.loc 1 354 0 is_stmt 1
 1473 02e8 0023     		movs	r3, #0
 1474 02ea C7F8F435 		str	r3, [r7, #1524]
 1475 02ee 12E0     		b	.L91
 1476              	.L92:
 355:..\main.c     ****                                 bufferLCD1.message[x]=bufferBeagleRX[x+33];
 1477              		.loc 1 355 0 discriminator 3
 1478 02f0 D7F8F435 		ldr	r3, [r7, #1524]
 1479 02f4 2133     		adds	r3, r3, #33
 1480 02f6 07F5CA72 		add	r2, r7, #404
 1481 02fa D15C     		ldrb	r1, [r2, r3]	@ zero_extendqisi2
 1482 02fc 184A     		ldr	r2, .L406+4
 1483 02fe D7F8F435 		ldr	r3, [r7, #1524]
 1484 0302 1344     		add	r3, r3, r2
 1485 0304 03F59473 		add	r3, r3, #296
ARM GAS  C:\Users\RECEPC~1\AppData\Local\Temp\ccGwunar.s 			page 34


 1486 0308 0A46     		mov	r2, r1
 1487 030a 5A70     		strb	r2, [r3, #1]
 354:..\main.c     ****                                 bufferLCD1.message[x]=bufferBeagleRX[x+33];
 1488              		.loc 1 354 0 discriminator 3
 1489 030c D7F8F435 		ldr	r3, [r7, #1524]
 1490 0310 0133     		adds	r3, r3, #1
 1491 0312 C7F8F435 		str	r3, [r7, #1524]
 1492              	.L91:
 354:..\main.c     ****                                 bufferLCD1.message[x]=bufferBeagleRX[x+33];
 1493              		.loc 1 354 0 is_stmt 0 discriminator 1
 1494 0316 D7F8F435 		ldr	r3, [r7, #1524]
 1495 031a 3B2B     		cmp	r3, #59
 1496 031c E8D9     		bls	.L92
 356:..\main.c     ****                             }
 357:..\main.c     ****                             bufferBeagleTX[6]='1';
 1497              		.loc 1 357 0 is_stmt 1
 1498 031e 3B1D     		adds	r3, r7, #4
 1499 0320 3122     		movs	r2, #49
 1500 0322 9A71     		strb	r2, [r3, #6]
 358:..\main.c     ****                             sizeTX=6;
 1501              		.loc 1 358 0
 1502 0324 0623     		movs	r3, #6
 1503 0326 C7F8F835 		str	r3, [r7, #1528]
 359:..\main.c     ****                         break;
 1504              		.loc 1 359 0
 1505 032a 01F077BA 		b	.L58
 1506              	.L63:
 360:..\main.c     ****                         
 361:..\main.c     ****                         case 0x44:////Respuesta a peticion identificacion de producto canasta
 362:..\main.c     ****                             if(bufferBeagleRX[6]=='1'){//Aceptado
 1507              		.loc 1 362 0
 1508 032e 07F5CA73 		add	r3, r7, #404
 1509 0332 9B79     		ldrb	r3, [r3, #6]	@ zero_extendqisi2
 1510 0334 312B     		cmp	r3, #49
 1511 0336 15D1     		bne	.L93
 363:..\main.c     ****                                 bufferLCD1.authorizationFlag=1;
 1512              		.loc 1 363 0
 1513 0338 094B     		ldr	r3, .L406+4
 1514 033a 0122     		movs	r2, #1
 1515 033c 83F86320 		strb	r2, [r3, #99]
 364:..\main.c     ****                                 bufferLCD1.quantityMarket[bufferLCD1.flagProductmarket][3]='1';
 1516              		.loc 1 364 0
 1517 0340 074B     		ldr	r3, .L406+4
 1518 0342 93F88232 		ldrb	r3, [r3, #642]	@ zero_extendqisi2
 1519 0346 1946     		mov	r1, r3
 1520 0348 054A     		ldr	r2, .L406+4
 1521 034a 0B46     		mov	r3, r1
 1522 034c 9B00     		lsls	r3, r3, #2
 1523 034e 0B44     		add	r3, r3, r1
 1524 0350 1344     		add	r3, r3, r2
 1525 0352 03F21B23 		addw	r3, r3, #539
 1526 0356 3122     		movs	r2, #49
 1527 0358 9A71     		strb	r2, [r3, #6]
 1528 035a 32E0     		b	.L94
 1529              	.L407:
 1530              		.align	2
 1531              	.L406:
ARM GAS  C:\Users\RECEPC~1\AppData\Local\Temp\ccGwunar.s 			page 35


 1532 035c 00000000 		.word	side
 1533 0360 00000000 		.word	bufferLCD1
 1534              	.L93:
 365:..\main.c     ****                             }else{//No aceptado
 366:..\main.c     ****                                 bufferLCD1.authorizationFlag=2;
 1535              		.loc 1 366 0
 1536 0364 CE4B     		ldr	r3, .L408
 1537 0366 0222     		movs	r2, #2
 1538 0368 83F86320 		strb	r2, [r3, #99]
 367:..\main.c     ****                                 bufferLCD1.quantityMarket[bufferLCD1.flagProductmarket][3]='0';
 1539              		.loc 1 367 0
 1540 036c CC4B     		ldr	r3, .L408
 1541 036e 93F88232 		ldrb	r3, [r3, #642]	@ zero_extendqisi2
 1542 0372 1946     		mov	r1, r3
 1543 0374 CA4A     		ldr	r2, .L408
 1544 0376 0B46     		mov	r3, r1
 1545 0378 9B00     		lsls	r3, r3, #2
 1546 037a 0B44     		add	r3, r3, r1
 1547 037c 1344     		add	r3, r3, r2
 1548 037e 03F21B23 		addw	r3, r3, #539
 1549 0382 3022     		movs	r2, #48
 1550 0384 9A71     		strb	r2, [r3, #6]
 368:..\main.c     ****                                 bufferLCD1.serialMarket[bufferLCD1.flagProductmarket][0]=1;
 1551              		.loc 1 368 0
 1552 0386 C64B     		ldr	r3, .L408
 1553 0388 93F88232 		ldrb	r3, [r3, #642]	@ zero_extendqisi2
 1554 038c 1A46     		mov	r2, r3
 1555 038e C449     		ldr	r1, .L408
 1556 0390 1346     		mov	r3, r2
 1557 0392 9B00     		lsls	r3, r3, #2
 1558 0394 1344     		add	r3, r3, r2
 1559 0396 9A00     		lsls	r2, r3, #2
 1560 0398 1344     		add	r3, r3, r2
 1561 039a 0B44     		add	r3, r3, r1
 1562 039c 03F5C473 		add	r3, r3, #392
 1563 03a0 0122     		movs	r2, #1
 1564 03a2 1A70     		strb	r2, [r3]
 369:..\main.c     ****                                 bufferLCD1.serialMarket[bufferLCD1.flagProductmarket][1]=' ';
 1565              		.loc 1 369 0
 1566 03a4 BE4B     		ldr	r3, .L408
 1567 03a6 93F88232 		ldrb	r3, [r3, #642]	@ zero_extendqisi2
 1568 03aa 1A46     		mov	r2, r3
 1569 03ac BC49     		ldr	r1, .L408
 1570 03ae 1346     		mov	r3, r2
 1571 03b0 9B00     		lsls	r3, r3, #2
 1572 03b2 1344     		add	r3, r3, r2
 1573 03b4 9A00     		lsls	r2, r3, #2
 1574 03b6 1344     		add	r3, r3, r2
 1575 03b8 0B44     		add	r3, r3, r1
 1576 03ba 03F28913 		addw	r3, r3, #393
 1577 03be 2022     		movs	r2, #32
 1578 03c0 1A70     		strb	r2, [r3]
 1579              	.L94:
 370:..\main.c     ****                             }
 371:..\main.c     ****                             bufferLCD1.quantityMarket[bufferLCD1.flagProductmarket][0]=3;
 1580              		.loc 1 371 0
 1581 03c2 B74B     		ldr	r3, .L408
ARM GAS  C:\Users\RECEPC~1\AppData\Local\Temp\ccGwunar.s 			page 36


 1582 03c4 93F88232 		ldrb	r3, [r3, #642]	@ zero_extendqisi2
 1583 03c8 1946     		mov	r1, r3
 1584 03ca B54A     		ldr	r2, .L408
 1585 03cc 0B46     		mov	r3, r1
 1586 03ce 9B00     		lsls	r3, r3, #2
 1587 03d0 0B44     		add	r3, r3, r1
 1588 03d2 1344     		add	r3, r3, r2
 1589 03d4 03F50673 		add	r3, r3, #536
 1590 03d8 0322     		movs	r2, #3
 1591 03da 9A71     		strb	r2, [r3, #6]
 372:..\main.c     ****                             bufferLCD1.quantityMarket[bufferLCD1.flagProductmarket][1]='0';
 1592              		.loc 1 372 0
 1593 03dc B04B     		ldr	r3, .L408
 1594 03de 93F88232 		ldrb	r3, [r3, #642]	@ zero_extendqisi2
 1595 03e2 1946     		mov	r1, r3
 1596 03e4 AE4A     		ldr	r2, .L408
 1597 03e6 0B46     		mov	r3, r1
 1598 03e8 9B00     		lsls	r3, r3, #2
 1599 03ea 0B44     		add	r3, r3, r1
 1600 03ec 1344     		add	r3, r3, r2
 1601 03ee 03F21923 		addw	r3, r3, #537
 1602 03f2 3022     		movs	r2, #48
 1603 03f4 9A71     		strb	r2, [r3, #6]
 373:..\main.c     ****                             bufferLCD1.quantityMarket[bufferLCD1.flagProductmarket][2]='0';   
 1604              		.loc 1 373 0
 1605 03f6 AA4B     		ldr	r3, .L408
 1606 03f8 93F88232 		ldrb	r3, [r3, #642]	@ zero_extendqisi2
 1607 03fc 1946     		mov	r1, r3
 1608 03fe A84A     		ldr	r2, .L408
 1609 0400 0B46     		mov	r3, r1
 1610 0402 9B00     		lsls	r3, r3, #2
 1611 0404 0B44     		add	r3, r3, r1
 1612 0406 1344     		add	r3, r3, r2
 1613 0408 03F21A23 		addw	r3, r3, #538
 1614 040c 3022     		movs	r2, #48
 1615 040e 9A71     		strb	r2, [r3, #6]
 374:..\main.c     ****                             bufferLCD1.productMarket[bufferLCD1.flagProductmarket][0]=20;
 1616              		.loc 1 374 0
 1617 0410 A34B     		ldr	r3, .L408
 1618 0412 93F88232 		ldrb	r3, [r3, #642]	@ zero_extendqisi2
 1619 0416 1A46     		mov	r2, r3
 1620 0418 A149     		ldr	r1, .L408
 1621 041a 1346     		mov	r3, r2
 1622 041c 9B00     		lsls	r3, r3, #2
 1623 041e 1344     		add	r3, r3, r2
 1624 0420 9A00     		lsls	r2, r3, #2
 1625 0422 1344     		add	r3, r3, r2
 1626 0424 0B44     		add	r3, r3, r1
 1627 0426 03F5E873 		add	r3, r3, #464
 1628 042a 1422     		movs	r2, #20
 1629 042c DA70     		strb	r2, [r3, #3]
 375:..\main.c     ****                             for(x=1;x<=20;x++){
 1630              		.loc 1 375 0
 1631 042e 0123     		movs	r3, #1
 1632 0430 C7F8F435 		str	r3, [r7, #1524]
 1633 0434 1CE0     		b	.L95
 1634              	.L96:
ARM GAS  C:\Users\RECEPC~1\AppData\Local\Temp\ccGwunar.s 			page 37


 376:..\main.c     ****                                 bufferLCD1.productMarket[bufferLCD1.flagProductmarket][x]=bufferBea
 1635              		.loc 1 376 0 discriminator 3
 1636 0436 9A4B     		ldr	r3, .L408
 1637 0438 93F88232 		ldrb	r3, [r3, #642]	@ zero_extendqisi2
 1638 043c 1846     		mov	r0, r3
 1639 043e D7F8F435 		ldr	r3, [r7, #1524]
 1640 0442 0733     		adds	r3, r3, #7
 1641 0444 07F5CA72 		add	r2, r7, #404
 1642 0448 D45C     		ldrb	r4, [r2, r3]	@ zero_extendqisi2
 1643 044a 9549     		ldr	r1, .L408
 1644 044c 0346     		mov	r3, r0
 1645 044e 9B00     		lsls	r3, r3, #2
 1646 0450 0344     		add	r3, r3, r0
 1647 0452 9A00     		lsls	r2, r3, #2
 1648 0454 1344     		add	r3, r3, r2
 1649 0456 CA18     		adds	r2, r1, r3
 1650 0458 D7F8F435 		ldr	r3, [r7, #1524]
 1651 045c 1344     		add	r3, r3, r2
 1652 045e 03F5E873 		add	r3, r3, #464
 1653 0462 2246     		mov	r2, r4
 1654 0464 DA70     		strb	r2, [r3, #3]
 375:..\main.c     ****                             for(x=1;x<=20;x++){
 1655              		.loc 1 375 0 discriminator 3
 1656 0466 D7F8F435 		ldr	r3, [r7, #1524]
 1657 046a 0133     		adds	r3, r3, #1
 1658 046c C7F8F435 		str	r3, [r7, #1524]
 1659              	.L95:
 375:..\main.c     ****                             for(x=1;x<=20;x++){
 1660              		.loc 1 375 0 is_stmt 0 discriminator 1
 1661 0470 D7F8F435 		ldr	r3, [r7, #1524]
 1662 0474 142B     		cmp	r3, #20
 1663 0476 DED9     		bls	.L96
 377:..\main.c     ****                             }
 378:..\main.c     ****                             bufferLCD1.priceUnitMarket[bufferLCD1.flagProductmarket][0]=8;
 1664              		.loc 1 378 0 is_stmt 1
 1665 0478 894B     		ldr	r3, .L408
 1666 047a 93F88232 		ldrb	r3, [r3, #642]	@ zero_extendqisi2
 1667 047e 1946     		mov	r1, r3
 1668 0480 874A     		ldr	r2, .L408
 1669 0482 0B46     		mov	r3, r1
 1670 0484 9B00     		lsls	r3, r3, #2
 1671 0486 0B44     		add	r3, r3, r1
 1672 0488 5B00     		lsls	r3, r3, #1
 1673 048a 1344     		add	r3, r3, r2
 1674 048c 03F51673 		add	r3, r3, #600
 1675 0490 0822     		movs	r2, #8
 1676 0492 9A70     		strb	r2, [r3, #2]
 379:..\main.c     ****                             for(x=1;x<=8;x++){
 1677              		.loc 1 379 0
 1678 0494 0123     		movs	r3, #1
 1679 0496 C7F8F435 		str	r3, [r7, #1524]
 1680 049a 1BE0     		b	.L97
 1681              	.L98:
 380:..\main.c     ****                                 bufferLCD1.priceUnitMarket[bufferLCD1.flagProductmarket][x]=bufferB
 1682              		.loc 1 380 0 discriminator 3
 1683 049c 804B     		ldr	r3, .L408
 1684 049e 93F88232 		ldrb	r3, [r3, #642]	@ zero_extendqisi2
ARM GAS  C:\Users\RECEPC~1\AppData\Local\Temp\ccGwunar.s 			page 38


 1685 04a2 1946     		mov	r1, r3
 1686 04a4 D7F8F435 		ldr	r3, [r7, #1524]
 1687 04a8 1C33     		adds	r3, r3, #28
 1688 04aa 07F5CA72 		add	r2, r7, #404
 1689 04ae D05C     		ldrb	r0, [r2, r3]	@ zero_extendqisi2
 1690 04b0 7B4A     		ldr	r2, .L408
 1691 04b2 0B46     		mov	r3, r1
 1692 04b4 9B00     		lsls	r3, r3, #2
 1693 04b6 0B44     		add	r3, r3, r1
 1694 04b8 5B00     		lsls	r3, r3, #1
 1695 04ba 1A44     		add	r2, r2, r3
 1696 04bc D7F8F435 		ldr	r3, [r7, #1524]
 1697 04c0 1344     		add	r3, r3, r2
 1698 04c2 03F51673 		add	r3, r3, #600
 1699 04c6 0246     		mov	r2, r0
 1700 04c8 9A70     		strb	r2, [r3, #2]
 379:..\main.c     ****                             for(x=1;x<=8;x++){
 1701              		.loc 1 379 0 discriminator 3
 1702 04ca D7F8F435 		ldr	r3, [r7, #1524]
 1703 04ce 0133     		adds	r3, r3, #1
 1704 04d0 C7F8F435 		str	r3, [r7, #1524]
 1705              	.L97:
 379:..\main.c     ****                             for(x=1;x<=8;x++){
 1706              		.loc 1 379 0 is_stmt 0 discriminator 1
 1707 04d4 D7F8F435 		ldr	r3, [r7, #1524]
 1708 04d8 082B     		cmp	r3, #8
 1709 04da DFD9     		bls	.L98
 381:..\main.c     ****                             }
 382:..\main.c     ****                             bufferLCD1.quantAvailableMark[bufferLCD1.flagProductmarket][0]=3;
 1710              		.loc 1 382 0 is_stmt 1
 1711 04dc 704B     		ldr	r3, .L408
 1712 04de 93F88232 		ldrb	r3, [r3, #642]	@ zero_extendqisi2
 1713 04e2 1946     		mov	r1, r3
 1714 04e4 6E4A     		ldr	r2, .L408
 1715 04e6 0B46     		mov	r3, r1
 1716 04e8 9B00     		lsls	r3, r3, #2
 1717 04ea 0B44     		add	r3, r3, r1
 1718 04ec 1344     		add	r3, r3, r2
 1719 04ee 03F50A73 		add	r3, r3, #552
 1720 04f2 0322     		movs	r2, #3
 1721 04f4 5A71     		strb	r2, [r3, #5]
 383:..\main.c     ****                             bufferLCD1.quantAvailableMark[bufferLCD1.flagProductmarket][1]=bufferBe
 1722              		.loc 1 383 0
 1723 04f6 6A4B     		ldr	r3, .L408
 1724 04f8 93F88232 		ldrb	r3, [r3, #642]	@ zero_extendqisi2
 1725 04fc 1946     		mov	r1, r3
 1726 04fe 07F5CA73 		add	r3, r7, #404
 1727 0502 93F82600 		ldrb	r0, [r3, #38]	@ zero_extendqisi2
 1728 0506 664A     		ldr	r2, .L408
 1729 0508 0B46     		mov	r3, r1
 1730 050a 9B00     		lsls	r3, r3, #2
 1731 050c 0B44     		add	r3, r3, r1
 1732 050e 1344     		add	r3, r3, r2
 1733 0510 03F22923 		addw	r3, r3, #553
 1734 0514 0246     		mov	r2, r0
 1735 0516 5A71     		strb	r2, [r3, #5]
 384:..\main.c     ****                             bufferLCD1.quantAvailableMark[bufferLCD1.flagProductmarket][2]=bufferBe
ARM GAS  C:\Users\RECEPC~1\AppData\Local\Temp\ccGwunar.s 			page 39


 1736              		.loc 1 384 0
 1737 0518 614B     		ldr	r3, .L408
 1738 051a 93F88232 		ldrb	r3, [r3, #642]	@ zero_extendqisi2
 1739 051e 1946     		mov	r1, r3
 1740 0520 07F5CA73 		add	r3, r7, #404
 1741 0524 93F82700 		ldrb	r0, [r3, #39]	@ zero_extendqisi2
 1742 0528 5D4A     		ldr	r2, .L408
 1743 052a 0B46     		mov	r3, r1
 1744 052c 9B00     		lsls	r3, r3, #2
 1745 052e 0B44     		add	r3, r3, r1
 1746 0530 1344     		add	r3, r3, r2
 1747 0532 03F22A23 		addw	r3, r3, #554
 1748 0536 0246     		mov	r2, r0
 1749 0538 5A71     		strb	r2, [r3, #5]
 385:..\main.c     ****                             bufferLCD1.quantAvailableMark[bufferLCD1.flagProductmarket][3]=bufferBe
 1750              		.loc 1 385 0
 1751 053a 594B     		ldr	r3, .L408
 1752 053c 93F88232 		ldrb	r3, [r3, #642]	@ zero_extendqisi2
 1753 0540 1946     		mov	r1, r3
 1754 0542 07F5CA73 		add	r3, r7, #404
 1755 0546 93F82800 		ldrb	r0, [r3, #40]	@ zero_extendqisi2
 1756 054a 554A     		ldr	r2, .L408
 1757 054c 0B46     		mov	r3, r1
 1758 054e 9B00     		lsls	r3, r3, #2
 1759 0550 0B44     		add	r3, r3, r1
 1760 0552 1344     		add	r3, r3, r2
 1761 0554 03F22B23 		addw	r3, r3, #555
 1762 0558 0246     		mov	r2, r0
 1763 055a 5A71     		strb	r2, [r3, #5]
 386:..\main.c     ****                             bufferBeagleTX[6]='1';
 1764              		.loc 1 386 0
 1765 055c 3B1D     		adds	r3, r7, #4
 1766 055e 3122     		movs	r2, #49
 1767 0560 9A71     		strb	r2, [r3, #6]
 387:..\main.c     ****                             sizeTX=6;
 1768              		.loc 1 387 0
 1769 0562 0623     		movs	r3, #6
 1770 0564 C7F8F835 		str	r3, [r7, #1528]
 388:..\main.c     ****                         break;
 1771              		.loc 1 388 0
 1772 0568 01F058B9 		b	.L58
 1773              	.L64:
 389:..\main.c     ****                             
 390:..\main.c     ****                         case 0x45://Respuesta a peticion Consignacion
 391:..\main.c     ****                             if(bufferBeagleRX[6]=='1'){//Aceptado
 1774              		.loc 1 391 0
 1775 056c 07F5CA73 		add	r3, r7, #404
 1776 0570 9B79     		ldrb	r3, [r3, #6]	@ zero_extendqisi2
 1777 0572 312B     		cmp	r3, #49
 1778 0574 04D1     		bne	.L99
 392:..\main.c     ****                                 bufferLCD1.authorizationFlag=1;
 1779              		.loc 1 392 0
 1780 0576 4A4B     		ldr	r3, .L408
 1781 0578 0122     		movs	r2, #1
 1782 057a 83F86320 		strb	r2, [r3, #99]
 1783 057e 03E0     		b	.L100
 1784              	.L99:
ARM GAS  C:\Users\RECEPC~1\AppData\Local\Temp\ccGwunar.s 			page 40


 393:..\main.c     ****                             }else{//No aceptado
 394:..\main.c     ****                                 bufferLCD1.authorizationFlag=2;
 1785              		.loc 1 394 0
 1786 0580 474B     		ldr	r3, .L408
 1787 0582 0222     		movs	r2, #2
 1788 0584 83F86320 		strb	r2, [r3, #99]
 1789              	.L100:
 395:..\main.c     ****                             }
 396:..\main.c     ****                             for(x=0;x<60;x++){
 1790              		.loc 1 396 0
 1791 0588 0023     		movs	r3, #0
 1792 058a C7F8F435 		str	r3, [r7, #1524]
 1793 058e 12E0     		b	.L101
 1794              	.L102:
 397:..\main.c     ****                                 bufferLCD1.message[x]=bufferBeagleRX[x+8];
 1795              		.loc 1 397 0 discriminator 3
 1796 0590 D7F8F435 		ldr	r3, [r7, #1524]
 1797 0594 0833     		adds	r3, r3, #8
 1798 0596 07F5CA72 		add	r2, r7, #404
 1799 059a D15C     		ldrb	r1, [r2, r3]	@ zero_extendqisi2
 1800 059c 404A     		ldr	r2, .L408
 1801 059e D7F8F435 		ldr	r3, [r7, #1524]
 1802 05a2 1344     		add	r3, r3, r2
 1803 05a4 03F59473 		add	r3, r3, #296
 1804 05a8 0A46     		mov	r2, r1
 1805 05aa 5A70     		strb	r2, [r3, #1]
 396:..\main.c     ****                                 bufferLCD1.message[x]=bufferBeagleRX[x+8];
 1806              		.loc 1 396 0 discriminator 3
 1807 05ac D7F8F435 		ldr	r3, [r7, #1524]
 1808 05b0 0133     		adds	r3, r3, #1
 1809 05b2 C7F8F435 		str	r3, [r7, #1524]
 1810              	.L101:
 396:..\main.c     ****                                 bufferLCD1.message[x]=bufferBeagleRX[x+8];
 1811              		.loc 1 396 0 is_stmt 0 discriminator 1
 1812 05b6 D7F8F435 		ldr	r3, [r7, #1524]
 1813 05ba 3B2B     		cmp	r3, #59
 1814 05bc E8D9     		bls	.L102
 398:..\main.c     ****                             }
 399:..\main.c     ****                             bufferBeagleTX[6]='1';
 1815              		.loc 1 399 0 is_stmt 1
 1816 05be 3B1D     		adds	r3, r7, #4
 1817 05c0 3122     		movs	r2, #49
 1818 05c2 9A71     		strb	r2, [r3, #6]
 400:..\main.c     ****                             sizeTX=6;
 1819              		.loc 1 400 0
 1820 05c4 0623     		movs	r3, #6
 1821 05c6 C7F8F835 		str	r3, [r7, #1528]
 401:..\main.c     ****                         break; 
 1822              		.loc 1 401 0
 1823 05ca 01F027B9 		b	.L58
 1824              	.L65:
 402:..\main.c     ****                         
 403:..\main.c     ****                         case 0x46://Respuesta a peticion Turno
 404:..\main.c     ****                             if(bufferBeagleRX[6]=='1'){//Aceptado
 1825              		.loc 1 404 0
 1826 05ce 07F5CA73 		add	r3, r7, #404
 1827 05d2 9B79     		ldrb	r3, [r3, #6]	@ zero_extendqisi2
ARM GAS  C:\Users\RECEPC~1\AppData\Local\Temp\ccGwunar.s 			page 41


 1828 05d4 312B     		cmp	r3, #49
 1829 05d6 11D1     		bne	.L103
 405:..\main.c     ****                                 bufferLCD1.authorizationFlag=1;
 1830              		.loc 1 405 0
 1831 05d8 314B     		ldr	r3, .L408
 1832 05da 0122     		movs	r2, #1
 1833 05dc 83F86320 		strb	r2, [r3, #99]
 406:..\main.c     ****                                 turn=(!turn);
 1834              		.loc 1 406 0
 1835 05e0 304B     		ldr	r3, .L408+4
 1836 05e2 1B78     		ldrb	r3, [r3]
 1837 05e4 DBB2     		uxtb	r3, r3
 1838 05e6 002B     		cmp	r3, #0
 1839 05e8 0CBF     		ite	eq
 1840 05ea 0123     		moveq	r3, #1
 1841 05ec 0023     		movne	r3, #0
 1842 05ee DBB2     		uxtb	r3, r3
 1843 05f0 1A46     		mov	r2, r3
 1844 05f2 2C4B     		ldr	r3, .L408+4
 1845 05f4 1A70     		strb	r2, [r3]
 407:..\main.c     ****                                 write_settings();
 1846              		.loc 1 407 0
 1847 05f6 FFF7FEFF 		bl	write_settings
 1848 05fa 24E0     		b	.L104
 1849              	.L103:
 408:..\main.c     ****                             }else{//No aceptado
 409:..\main.c     ****                                 for(x=1;x<=20;x++){
 1850              		.loc 1 409 0
 1851 05fc 0123     		movs	r3, #1
 1852 05fe C7F8F435 		str	r3, [r7, #1524]
 1853 0602 10E0     		b	.L105
 1854              	.L106:
 410:..\main.c     ****                                     idSeller[x]=CY_GET_REG8(CYDEV_EE_BASE + (x+955));
 1855              		.loc 1 410 0 discriminator 3
 1856 0604 D7F8F425 		ldr	r2, [r7, #1524]
 1857 0608 274B     		ldr	r3, .L408+8
 1858 060a 1344     		add	r3, r3, r2
 1859 060c 1B78     		ldrb	r3, [r3]
 1860 060e D9B2     		uxtb	r1, r3
 1861 0610 264A     		ldr	r2, .L408+12
 1862 0612 D7F8F435 		ldr	r3, [r7, #1524]
 1863 0616 1344     		add	r3, r3, r2
 1864 0618 0A46     		mov	r2, r1
 1865 061a 1A70     		strb	r2, [r3]
 409:..\main.c     ****                                     idSeller[x]=CY_GET_REG8(CYDEV_EE_BASE + (x+955));
 1866              		.loc 1 409 0 discriminator 3
 1867 061c D7F8F435 		ldr	r3, [r7, #1524]
 1868 0620 0133     		adds	r3, r3, #1
 1869 0622 C7F8F435 		str	r3, [r7, #1524]
 1870              	.L105:
 409:..\main.c     ****                                     idSeller[x]=CY_GET_REG8(CYDEV_EE_BASE + (x+955));
 1871              		.loc 1 409 0 is_stmt 0 discriminator 1
 1872 0626 D7F8F435 		ldr	r3, [r7, #1524]
 1873 062a 142B     		cmp	r3, #20
 1874 062c EAD9     		bls	.L106
 411:..\main.c     ****                                 }
 412:..\main.c     ****                                 idSeller[0]=20;
ARM GAS  C:\Users\RECEPC~1\AppData\Local\Temp\ccGwunar.s 			page 42


 1875              		.loc 1 412 0 is_stmt 1
 1876 062e 1F4B     		ldr	r3, .L408+12
 1877 0630 1422     		movs	r2, #20
 1878 0632 1A70     		strb	r2, [r3]
 413:..\main.c     ****                                 typeIdSeller=CY_GET_REG8(CYDEV_EE_BASE + 955);
 1879              		.loc 1 413 0
 1880 0634 1C4B     		ldr	r3, .L408+8
 1881 0636 1B78     		ldrb	r3, [r3]
 1882 0638 DAB2     		uxtb	r2, r3
 1883 063a 1D4B     		ldr	r3, .L408+16
 1884 063c 1A70     		strb	r2, [r3]
 414:..\main.c     ****                                 bufferLCD1.authorizationFlag=2;
 1885              		.loc 1 414 0
 1886 063e 184B     		ldr	r3, .L408
 1887 0640 0222     		movs	r2, #2
 1888 0642 83F86320 		strb	r2, [r3, #99]
 1889              	.L104:
 415:..\main.c     ****                             }
 416:..\main.c     ****                             for(x=0;x<60;x++){
 1890              		.loc 1 416 0
 1891 0646 0023     		movs	r3, #0
 1892 0648 C7F8F435 		str	r3, [r7, #1524]
 1893 064c 12E0     		b	.L107
 1894              	.L108:
 417:..\main.c     ****                                 bufferLCD1.message[x]=bufferBeagleRX[x+8];
 1895              		.loc 1 417 0 discriminator 3
 1896 064e D7F8F435 		ldr	r3, [r7, #1524]
 1897 0652 0833     		adds	r3, r3, #8
 1898 0654 07F5CA72 		add	r2, r7, #404
 1899 0658 D15C     		ldrb	r1, [r2, r3]	@ zero_extendqisi2
 1900 065a 114A     		ldr	r2, .L408
 1901 065c D7F8F435 		ldr	r3, [r7, #1524]
 1902 0660 1344     		add	r3, r3, r2
 1903 0662 03F59473 		add	r3, r3, #296
 1904 0666 0A46     		mov	r2, r1
 1905 0668 5A70     		strb	r2, [r3, #1]
 416:..\main.c     ****                                 bufferLCD1.message[x]=bufferBeagleRX[x+8];
 1906              		.loc 1 416 0 discriminator 3
 1907 066a D7F8F435 		ldr	r3, [r7, #1524]
 1908 066e 0133     		adds	r3, r3, #1
 1909 0670 C7F8F435 		str	r3, [r7, #1524]
 1910              	.L107:
 416:..\main.c     ****                                 bufferLCD1.message[x]=bufferBeagleRX[x+8];
 1911              		.loc 1 416 0 is_stmt 0 discriminator 1
 1912 0674 D7F8F435 		ldr	r3, [r7, #1524]
 1913 0678 3B2B     		cmp	r3, #59
 1914 067a E8D9     		bls	.L108
 418:..\main.c     ****                             }
 419:..\main.c     ****                             bufferBeagleTX[6]='1';
 1915              		.loc 1 419 0 is_stmt 1
 1916 067c 3B1D     		adds	r3, r7, #4
 1917 067e 3122     		movs	r2, #49
 1918 0680 9A71     		strb	r2, [r3, #6]
 420:..\main.c     ****                             sizeTX=6;
 1919              		.loc 1 420 0
 1920 0682 0623     		movs	r3, #6
 1921 0684 C7F8F835 		str	r3, [r7, #1528]
ARM GAS  C:\Users\RECEPC~1\AppData\Local\Temp\ccGwunar.s 			page 43


 421:..\main.c     ****                         break;     
 1922              		.loc 1 421 0
 1923 0688 01F0C8B8 		b	.L58
 1924              	.L66:
 422:..\main.c     ****                         
 423:..\main.c     ****                         case 0x47://Peticion de totales
 424:..\main.c     ****                             if(bufferBeagleRX[6]=='1'){//Abrir Turno
 1925              		.loc 1 424 0
 1926 068c 07F5CA73 		add	r3, r7, #404
 1927 0690 9B79     		ldrb	r3, [r3, #6]	@ zero_extendqisi2
 1928 0692 312B     		cmp	r3, #49
 1929 0694 0ED1     		bne	.L109
 425:..\main.c     ****                                 turn=1;
 1930              		.loc 1 425 0
 1931 0696 034B     		ldr	r3, .L408+4
 1932 0698 0122     		movs	r2, #1
 1933 069a 1A70     		strb	r2, [r3]
 1934 069c 0DE0     		b	.L110
 1935              	.L409:
 1936 069e 00BF     		.align	2
 1937              	.L408:
 1938 06a0 00000000 		.word	bufferLCD1
 1939 06a4 00000000 		.word	turn
 1940 06a8 BB830040 		.word	1073775547
 1941 06ac 00000000 		.word	idSeller
 1942 06b0 00000000 		.word	typeIdSeller
 1943              	.L109:
 426:..\main.c     ****                             }else{//Cerrar Turno
 427:..\main.c     ****                                 turn=0;
 1944              		.loc 1 427 0
 1945 06b4 C94B     		ldr	r3, .L410
 1946 06b6 0022     		movs	r2, #0
 1947 06b8 1A70     		strb	r2, [r3]
 1948              	.L110:
 428:..\main.c     **** //                                flowLCD1=1;
 429:..\main.c     **** //                                flowLCD2=1;
 430:..\main.c     ****                             }
 431:..\main.c     ****                             write_settings();
 1949              		.loc 1 431 0
 1950 06ba FFF7FEFF 		bl	write_settings
 432:..\main.c     ****                             if(get_totals(side.a.dir)==0 || get_totals(side.b.dir)==0){
 1951              		.loc 1 432 0
 1952 06be C84B     		ldr	r3, .L410+4
 1953 06c0 1B78     		ldrb	r3, [r3]	@ zero_extendqisi2
 1954 06c2 1846     		mov	r0, r3
 1955 06c4 FFF7FEFF 		bl	get_totals
 1956 06c8 0346     		mov	r3, r0
 1957 06ca 002B     		cmp	r3, #0
 1958 06cc 08D0     		beq	.L111
 1959              		.loc 1 432 0 is_stmt 0 discriminator 1
 1960 06ce C44B     		ldr	r3, .L410+4
 1961 06d0 93F80031 		ldrb	r3, [r3, #256]	@ zero_extendqisi2
 1962 06d4 1846     		mov	r0, r3
 1963 06d6 FFF7FEFF 		bl	get_totals
 1964 06da 0346     		mov	r3, r0
 1965 06dc 002B     		cmp	r3, #0
 1966 06de 50D1     		bne	.L112
ARM GAS  C:\Users\RECEPC~1\AppData\Local\Temp\ccGwunar.s 			page 44


 1967              	.L111:
 433:..\main.c     ****                                 for(x=0;x<4;x++){
 1968              		.loc 1 433 0 is_stmt 1
 1969 06e0 0023     		movs	r3, #0
 1970 06e2 C7F8F435 		str	r3, [r7, #1524]
 1971 06e6 48E0     		b	.L113
 1972              	.L118:
 434:..\main.c     ****                                     for(y=0;y<3;y++){
 1973              		.loc 1 434 0
 1974 06e8 0023     		movs	r3, #0
 1975 06ea C7F8F035 		str	r3, [r7, #1520]
 1976 06ee 3BE0     		b	.L114
 1977              	.L117:
 435:..\main.c     ****                                         for(z=0;z<14;z++){
 1978              		.loc 1 435 0
 1979 06f0 0023     		movs	r3, #0
 1980 06f2 C7F8EC35 		str	r3, [r7, #1516]
 1981 06f6 2EE0     		b	.L115
 1982              	.L116:
 436:..\main.c     ****                                             side.a.totalsHandle[x][y][z]=0;
 1983              		.loc 1 436 0 discriminator 3
 1984 06f8 B948     		ldr	r0, .L410+4
 1985 06fa D7F8F035 		ldr	r3, [r7, #1520]
 1986 06fe D7F8F415 		ldr	r1, [r7, #1524]
 1987 0702 1A46     		mov	r2, r3
 1988 0704 1201     		lsls	r2, r2, #4
 1989 0706 D21A     		subs	r2, r2, r3
 1990 0708 0B46     		mov	r3, r1
 1991 070a 5B00     		lsls	r3, r3, #1
 1992 070c 0B44     		add	r3, r3, r1
 1993 070e 1901     		lsls	r1, r3, #4
 1994 0710 C91A     		subs	r1, r1, r3
 1995 0712 5318     		adds	r3, r2, r1
 1996 0714 C218     		adds	r2, r0, r3
 1997 0716 D7F8EC35 		ldr	r3, [r7, #1516]
 1998 071a 1344     		add	r3, r3, r2
 1999 071c 0022     		movs	r2, #0
 2000 071e 5A70     		strb	r2, [r3, #1]
 437:..\main.c     ****                                             side.b.totalsHandle[x][y][z]=0;
 2001              		.loc 1 437 0 discriminator 3
 2002 0720 AF48     		ldr	r0, .L410+4
 2003 0722 D7F8F035 		ldr	r3, [r7, #1520]
 2004 0726 D7F8F415 		ldr	r1, [r7, #1524]
 2005 072a 1A46     		mov	r2, r3
 2006 072c 1201     		lsls	r2, r2, #4
 2007 072e D21A     		subs	r2, r2, r3
 2008 0730 0B46     		mov	r3, r1
 2009 0732 5B00     		lsls	r3, r3, #1
 2010 0734 0B44     		add	r3, r3, r1
 2011 0736 1901     		lsls	r1, r3, #4
 2012 0738 C91A     		subs	r1, r1, r3
 2013 073a 5318     		adds	r3, r2, r1
 2014 073c C218     		adds	r2, r0, r3
 2015 073e D7F8EC35 		ldr	r3, [r7, #1516]
 2016 0742 1344     		add	r3, r3, r2
 2017 0744 03F58073 		add	r3, r3, #256
 2018 0748 0022     		movs	r2, #0
ARM GAS  C:\Users\RECEPC~1\AppData\Local\Temp\ccGwunar.s 			page 45


 2019 074a 5A70     		strb	r2, [r3, #1]
 435:..\main.c     ****                                         for(z=0;z<14;z++){
 2020              		.loc 1 435 0 discriminator 3
 2021 074c D7F8EC35 		ldr	r3, [r7, #1516]
 2022 0750 0133     		adds	r3, r3, #1
 2023 0752 C7F8EC35 		str	r3, [r7, #1516]
 2024              	.L115:
 435:..\main.c     ****                                         for(z=0;z<14;z++){
 2025              		.loc 1 435 0 is_stmt 0 discriminator 1
 2026 0756 D7F8EC35 		ldr	r3, [r7, #1516]
 2027 075a 0D2B     		cmp	r3, #13
 2028 075c CCD9     		bls	.L116
 434:..\main.c     ****                                         for(z=0;z<14;z++){
 2029              		.loc 1 434 0 is_stmt 1 discriminator 2
 2030 075e D7F8F035 		ldr	r3, [r7, #1520]
 2031 0762 0133     		adds	r3, r3, #1
 2032 0764 C7F8F035 		str	r3, [r7, #1520]
 2033              	.L114:
 434:..\main.c     ****                                         for(z=0;z<14;z++){
 2034              		.loc 1 434 0 is_stmt 0 discriminator 1
 2035 0768 D7F8F035 		ldr	r3, [r7, #1520]
 2036 076c 022B     		cmp	r3, #2
 2037 076e BFD9     		bls	.L117
 433:..\main.c     ****                                     for(y=0;y<3;y++){
 2038              		.loc 1 433 0 is_stmt 1 discriminator 2
 2039 0770 D7F8F435 		ldr	r3, [r7, #1524]
 2040 0774 0133     		adds	r3, r3, #1
 2041 0776 C7F8F435 		str	r3, [r7, #1524]
 2042              	.L113:
 433:..\main.c     ****                                     for(y=0;y<3;y++){
 2043              		.loc 1 433 0 is_stmt 0 discriminator 1
 2044 077a D7F8F435 		ldr	r3, [r7, #1524]
 2045 077e 032B     		cmp	r3, #3
 2046 0780 B2D9     		bls	.L118
 2047              	.L112:
 438:..\main.c     ****                                         }
 439:..\main.c     ****                                     }
 440:..\main.c     ****                                 }
 441:..\main.c     ****                             }
 442:..\main.c     **** 		                    CyWdtClear();
 2048              		.loc 1 442 0 is_stmt 1
 2049 0782 FFF7FEFF 		bl	CyWdtClear
 443:..\main.c     ****                             for(w=0;w<=3;w++){
 2050              		.loc 1 443 0
 2051 0786 0023     		movs	r3, #0
 2052 0788 C7F8E835 		str	r3, [r7, #1512]
 2053 078c D5E1     		b	.L119
 2054              	.L144:
 444:..\main.c     ****                                 bufferBeagleTX[5+(w*35)]=';';
 2055              		.loc 1 444 0
 2056 078e D7F8E825 		ldr	r2, [r7, #1512]
 2057 0792 1346     		mov	r3, r2
 2058 0794 9B00     		lsls	r3, r3, #2
 2059 0796 1344     		add	r3, r3, r2
 2060 0798 DA00     		lsls	r2, r3, #3
 2061 079a D31A     		subs	r3, r2, r3
 2062 079c 0533     		adds	r3, r3, #5
ARM GAS  C:\Users\RECEPC~1\AppData\Local\Temp\ccGwunar.s 			page 46


 2063 079e 3A1D     		adds	r2, r7, #4
 2064 07a0 3B21     		movs	r1, #59
 2065 07a2 D154     		strb	r1, [r2, r3]
 445:..\main.c     ****                                 y=side.a.totalsHandle[w][0][0];
 2066              		.loc 1 445 0
 2067 07a4 8E49     		ldr	r1, .L410+4
 2068 07a6 D7F8E825 		ldr	r2, [r7, #1512]
 2069 07aa 1346     		mov	r3, r2
 2070 07ac 5B00     		lsls	r3, r3, #1
 2071 07ae 1344     		add	r3, r3, r2
 2072 07b0 1A01     		lsls	r2, r3, #4
 2073 07b2 D21A     		subs	r2, r2, r3
 2074 07b4 8B18     		adds	r3, r1, r2
 2075 07b6 5B78     		ldrb	r3, [r3, #1]	@ zero_extendqisi2
 2076 07b8 C7F8F035 		str	r3, [r7, #1520]
 446:..\main.c     ****                                 if(y==0){
 2077              		.loc 1 446 0
 2078 07bc D7F8F035 		ldr	r3, [r7, #1520]
 2079 07c0 002B     		cmp	r3, #0
 2080 07c2 0ED1     		bne	.L120
 447:..\main.c     ****                                     y=1;
 2081              		.loc 1 447 0
 2082 07c4 0123     		movs	r3, #1
 2083 07c6 C7F8F035 		str	r3, [r7, #1520]
 448:..\main.c     ****                                     side.a.totalsHandle[w][0][1]='0';
 2084              		.loc 1 448 0
 2085 07ca 8549     		ldr	r1, .L410+4
 2086 07cc D7F8E825 		ldr	r2, [r7, #1512]
 2087 07d0 1346     		mov	r3, r2
 2088 07d2 5B00     		lsls	r3, r3, #1
 2089 07d4 1344     		add	r3, r3, r2
 2090 07d6 1A01     		lsls	r2, r3, #4
 2091 07d8 D21A     		subs	r2, r2, r3
 2092 07da 8B18     		adds	r3, r1, r2
 2093 07dc 0133     		adds	r3, r3, #1
 2094 07de 3022     		movs	r2, #48
 2095 07e0 5A70     		strb	r2, [r3, #1]
 2096              	.L120:
 449:..\main.c     ****                                 }
 450:..\main.c     ****                                 z=0;
 2097              		.loc 1 450 0
 2098 07e2 0023     		movs	r3, #0
 2099 07e4 C7F8EC35 		str	r3, [r7, #1516]
 451:..\main.c     ****                                 for(x=13;x>0;x--){
 2100              		.loc 1 451 0
 2101 07e8 0D23     		movs	r3, #13
 2102 07ea C7F8F435 		str	r3, [r7, #1524]
 2103 07ee 61E0     		b	.L121
 2104              	.L127:
 452:..\main.c     ****                                     bufferBeagleTX[5+x+(w*35)]=side.a.totalsHandle[w][0][y];
 2105              		.loc 1 452 0
 2106 07f0 D7F8E825 		ldr	r2, [r7, #1512]
 2107 07f4 1346     		mov	r3, r2
 2108 07f6 9B00     		lsls	r3, r3, #2
 2109 07f8 1344     		add	r3, r3, r2
 2110 07fa DA00     		lsls	r2, r3, #3
 2111 07fc D21A     		subs	r2, r2, r3
ARM GAS  C:\Users\RECEPC~1\AppData\Local\Temp\ccGwunar.s 			page 47


 2112 07fe D7F8F435 		ldr	r3, [r7, #1524]
 2113 0802 1344     		add	r3, r3, r2
 2114 0804 591D     		adds	r1, r3, #5
 2115 0806 7648     		ldr	r0, .L410+4
 2116 0808 D7F8E825 		ldr	r2, [r7, #1512]
 2117 080c 1346     		mov	r3, r2
 2118 080e 5B00     		lsls	r3, r3, #1
 2119 0810 1344     		add	r3, r3, r2
 2120 0812 1A01     		lsls	r2, r3, #4
 2121 0814 D21A     		subs	r2, r2, r3
 2122 0816 D7F8F035 		ldr	r3, [r7, #1520]
 2123 081a 1344     		add	r3, r3, r2
 2124 081c 0344     		add	r3, r3, r0
 2125 081e 5A78     		ldrb	r2, [r3, #1]	@ zero_extendqisi2
 2126 0820 3B1D     		adds	r3, r7, #4
 2127 0822 5A54     		strb	r2, [r3, r1]
 453:..\main.c     ****                                     y--;
 2128              		.loc 1 453 0
 2129 0824 D7F8F035 		ldr	r3, [r7, #1520]
 2130 0828 013B     		subs	r3, r3, #1
 2131 082a C7F8F035 		str	r3, [r7, #1520]
 454:..\main.c     ****                                     z++;
 2132              		.loc 1 454 0
 2133 082e D7F8EC35 		ldr	r3, [r7, #1516]
 2134 0832 0133     		adds	r3, r3, #1
 2135 0834 C7F8EC35 		str	r3, [r7, #1516]
 455:..\main.c     ****                                     if(z==(decimalVolume-1)){
 2136              		.loc 1 455 0
 2137 0838 6A4B     		ldr	r3, .L410+8
 2138 083a 1B78     		ldrb	r3, [r3]
 2139 083c DBB2     		uxtb	r3, r3
 2140 083e 013B     		subs	r3, r3, #1
 2141 0840 1A46     		mov	r2, r3
 2142 0842 D7F8EC35 		ldr	r3, [r7, #1516]
 2143 0846 9A42     		cmp	r2, r3
 2144 0848 12D1     		bne	.L122
 456:..\main.c     ****                                         x--;
 2145              		.loc 1 456 0
 2146 084a D7F8F435 		ldr	r3, [r7, #1524]
 2147 084e 013B     		subs	r3, r3, #1
 2148 0850 C7F8F435 		str	r3, [r7, #1524]
 457:..\main.c     ****                                         bufferBeagleTX[5+x+(w*35)]=',';
 2149              		.loc 1 457 0
 2150 0854 D7F8E825 		ldr	r2, [r7, #1512]
 2151 0858 1346     		mov	r3, r2
 2152 085a 9B00     		lsls	r3, r3, #2
 2153 085c 1344     		add	r3, r3, r2
 2154 085e DA00     		lsls	r2, r3, #3
 2155 0860 D21A     		subs	r2, r2, r3
 2156 0862 D7F8F435 		ldr	r3, [r7, #1524]
 2157 0866 1344     		add	r3, r3, r2
 2158 0868 0533     		adds	r3, r3, #5
 2159 086a 3A1D     		adds	r2, r7, #4
 2160 086c 2C21     		movs	r1, #44
 2161 086e D154     		strb	r1, [r2, r3]
 2162              	.L122:
 458:..\main.c     ****                                     }
ARM GAS  C:\Users\RECEPC~1\AppData\Local\Temp\ccGwunar.s 			page 48


 459:..\main.c     ****                                     if(y<=0){
 2163              		.loc 1 459 0
 2164 0870 D7F8F035 		ldr	r3, [r7, #1520]
 2165 0874 002B     		cmp	r3, #0
 2166 0876 18D1     		bne	.L123
 460:..\main.c     ****                                         while(x>1){
 2167              		.loc 1 460 0
 2168 0878 12E0     		b	.L124
 2169              	.L125:
 461:..\main.c     ****                                             x--;
 2170              		.loc 1 461 0
 2171 087a D7F8F435 		ldr	r3, [r7, #1524]
 2172 087e 013B     		subs	r3, r3, #1
 2173 0880 C7F8F435 		str	r3, [r7, #1524]
 462:..\main.c     ****                                             bufferBeagleTX[5+x+(w*35)]='0';
 2174              		.loc 1 462 0
 2175 0884 D7F8E825 		ldr	r2, [r7, #1512]
 2176 0888 1346     		mov	r3, r2
 2177 088a 9B00     		lsls	r3, r3, #2
 2178 088c 1344     		add	r3, r3, r2
 2179 088e DA00     		lsls	r2, r3, #3
 2180 0890 D21A     		subs	r2, r2, r3
 2181 0892 D7F8F435 		ldr	r3, [r7, #1524]
 2182 0896 1344     		add	r3, r3, r2
 2183 0898 0533     		adds	r3, r3, #5
 2184 089a 3A1D     		adds	r2, r7, #4
 2185 089c 3021     		movs	r1, #48
 2186 089e D154     		strb	r1, [r2, r3]
 2187              	.L124:
 460:..\main.c     ****                                         while(x>1){
 2188              		.loc 1 460 0
 2189 08a0 D7F8F435 		ldr	r3, [r7, #1524]
 2190 08a4 012B     		cmp	r3, #1
 2191 08a6 E8D8     		bhi	.L125
 463:..\main.c     ****                                         }
 464:..\main.c     ****                                         break;
 2192              		.loc 1 464 0
 2193 08a8 08E0     		b	.L126
 2194              	.L123:
 451:..\main.c     ****                                     bufferBeagleTX[5+x+(w*35)]=side.a.totalsHandle[w][0][y];
 2195              		.loc 1 451 0 discriminator 2
 2196 08aa D7F8F435 		ldr	r3, [r7, #1524]
 2197 08ae 013B     		subs	r3, r3, #1
 2198 08b0 C7F8F435 		str	r3, [r7, #1524]
 2199              	.L121:
 451:..\main.c     ****                                     bufferBeagleTX[5+x+(w*35)]=side.a.totalsHandle[w][0][y];
 2200              		.loc 1 451 0 is_stmt 0 discriminator 1
 2201 08b4 D7F8F435 		ldr	r3, [r7, #1524]
 2202 08b8 002B     		cmp	r3, #0
 2203 08ba 99D1     		bne	.L127
 2204              	.L126:
 465:..\main.c     ****                                     }
 466:..\main.c     ****                                 }
 467:..\main.c     ****                                 bufferBeagleTX[19+(w*35)]=';';
 2205              		.loc 1 467 0 is_stmt 1
 2206 08bc D7F8E825 		ldr	r2, [r7, #1512]
 2207 08c0 1346     		mov	r3, r2
ARM GAS  C:\Users\RECEPC~1\AppData\Local\Temp\ccGwunar.s 			page 49


 2208 08c2 9B00     		lsls	r3, r3, #2
 2209 08c4 1344     		add	r3, r3, r2
 2210 08c6 DA00     		lsls	r2, r3, #3
 2211 08c8 D31A     		subs	r3, r2, r3
 2212 08ca 1333     		adds	r3, r3, #19
 2213 08cc 3A1D     		adds	r2, r7, #4
 2214 08ce 3B21     		movs	r1, #59
 2215 08d0 D154     		strb	r1, [r2, r3]
 468:..\main.c     ****                                 y=side.a.totalsHandle[w][1][0];
 2216              		.loc 1 468 0
 2217 08d2 4349     		ldr	r1, .L410+4
 2218 08d4 D7F8E825 		ldr	r2, [r7, #1512]
 2219 08d8 1346     		mov	r3, r2
 2220 08da 5B00     		lsls	r3, r3, #1
 2221 08dc 1344     		add	r3, r3, r2
 2222 08de 1A01     		lsls	r2, r3, #4
 2223 08e0 D21A     		subs	r2, r2, r3
 2224 08e2 8B18     		adds	r3, r1, r2
 2225 08e4 0F33     		adds	r3, r3, #15
 2226 08e6 5B78     		ldrb	r3, [r3, #1]	@ zero_extendqisi2
 2227 08e8 C7F8F035 		str	r3, [r7, #1520]
 469:..\main.c     ****                                 if(y==0){
 2228              		.loc 1 469 0
 2229 08ec D7F8F035 		ldr	r3, [r7, #1520]
 2230 08f0 002B     		cmp	r3, #0
 2231 08f2 0ED1     		bne	.L128
 470:..\main.c     ****                                     y=1;
 2232              		.loc 1 470 0
 2233 08f4 0123     		movs	r3, #1
 2234 08f6 C7F8F035 		str	r3, [r7, #1520]
 471:..\main.c     ****                                     side.a.totalsHandle[w][1][1]='0';
 2235              		.loc 1 471 0
 2236 08fa 3949     		ldr	r1, .L410+4
 2237 08fc D7F8E825 		ldr	r2, [r7, #1512]
 2238 0900 1346     		mov	r3, r2
 2239 0902 5B00     		lsls	r3, r3, #1
 2240 0904 1344     		add	r3, r3, r2
 2241 0906 1A01     		lsls	r2, r3, #4
 2242 0908 D21A     		subs	r2, r2, r3
 2243 090a 8B18     		adds	r3, r1, r2
 2244 090c 1033     		adds	r3, r3, #16
 2245 090e 3022     		movs	r2, #48
 2246 0910 5A70     		strb	r2, [r3, #1]
 2247              	.L128:
 472:..\main.c     ****                                 }
 473:..\main.c     ****                                 z=0;
 2248              		.loc 1 473 0
 2249 0912 0023     		movs	r3, #0
 2250 0914 C7F8EC35 		str	r3, [r7, #1516]
 474:..\main.c     ****                                 for(x=13;x>0;x--){
 2251              		.loc 1 474 0
 2252 0918 0D23     		movs	r3, #13
 2253 091a C7F8F435 		str	r3, [r7, #1524]
 2254 091e 6AE0     		b	.L129
 2255              	.L135:
 475:..\main.c     ****                                     bufferBeagleTX[19+x+(w*35)]=side.a.totalsHandle[w][1][y];
 2256              		.loc 1 475 0
ARM GAS  C:\Users\RECEPC~1\AppData\Local\Temp\ccGwunar.s 			page 50


 2257 0920 D7F8E825 		ldr	r2, [r7, #1512]
 2258 0924 1346     		mov	r3, r2
 2259 0926 9B00     		lsls	r3, r3, #2
 2260 0928 1344     		add	r3, r3, r2
 2261 092a DA00     		lsls	r2, r3, #3
 2262 092c D21A     		subs	r2, r2, r3
 2263 092e D7F8F435 		ldr	r3, [r7, #1524]
 2264 0932 1344     		add	r3, r3, r2
 2265 0934 03F11301 		add	r1, r3, #19
 2266 0938 2948     		ldr	r0, .L410+4
 2267 093a D7F8E825 		ldr	r2, [r7, #1512]
 2268 093e 1346     		mov	r3, r2
 2269 0940 5B00     		lsls	r3, r3, #1
 2270 0942 1344     		add	r3, r3, r2
 2271 0944 1A01     		lsls	r2, r3, #4
 2272 0946 D21A     		subs	r2, r2, r3
 2273 0948 0244     		add	r2, r2, r0
 2274 094a D7F8F035 		ldr	r3, [r7, #1520]
 2275 094e 1344     		add	r3, r3, r2
 2276 0950 0F33     		adds	r3, r3, #15
 2277 0952 5A78     		ldrb	r2, [r3, #1]	@ zero_extendqisi2
 2278 0954 3B1D     		adds	r3, r7, #4
 2279 0956 5A54     		strb	r2, [r3, r1]
 476:..\main.c     ****                                     y--;
 2280              		.loc 1 476 0
 2281 0958 D7F8F035 		ldr	r3, [r7, #1520]
 2282 095c 013B     		subs	r3, r3, #1
 2283 095e C7F8F035 		str	r3, [r7, #1520]
 477:..\main.c     ****                                     z++;
 2284              		.loc 1 477 0
 2285 0962 D7F8EC35 		ldr	r3, [r7, #1516]
 2286 0966 0133     		adds	r3, r3, #1
 2287 0968 C7F8EC35 		str	r3, [r7, #1516]
 478:..\main.c     ****                                     if(z==decimalMoney){
 2288              		.loc 1 478 0
 2289 096c 1E4B     		ldr	r3, .L410+12
 2290 096e 1B78     		ldrb	r3, [r3]
 2291 0970 DBB2     		uxtb	r3, r3
 2292 0972 1A46     		mov	r2, r3
 2293 0974 D7F8EC35 		ldr	r3, [r7, #1516]
 2294 0978 9A42     		cmp	r2, r3
 2295 097a 12D1     		bne	.L130
 479:..\main.c     ****                                         x--;
 2296              		.loc 1 479 0
 2297 097c D7F8F435 		ldr	r3, [r7, #1524]
 2298 0980 013B     		subs	r3, r3, #1
 2299 0982 C7F8F435 		str	r3, [r7, #1524]
 480:..\main.c     ****                                         bufferBeagleTX[19+x+(w*35)]=',';
 2300              		.loc 1 480 0
 2301 0986 D7F8E825 		ldr	r2, [r7, #1512]
 2302 098a 1346     		mov	r3, r2
 2303 098c 9B00     		lsls	r3, r3, #2
 2304 098e 1344     		add	r3, r3, r2
 2305 0990 DA00     		lsls	r2, r3, #3
 2306 0992 D21A     		subs	r2, r2, r3
 2307 0994 D7F8F435 		ldr	r3, [r7, #1524]
 2308 0998 1344     		add	r3, r3, r2
ARM GAS  C:\Users\RECEPC~1\AppData\Local\Temp\ccGwunar.s 			page 51


 2309 099a 1333     		adds	r3, r3, #19
 2310 099c 3A1D     		adds	r2, r7, #4
 2311 099e 2C21     		movs	r1, #44
 2312 09a0 D154     		strb	r1, [r2, r3]
 2313              	.L130:
 481:..\main.c     ****                                     }
 482:..\main.c     ****                                     if(y<=0){
 2314              		.loc 1 482 0
 2315 09a2 D7F8F035 		ldr	r3, [r7, #1520]
 2316 09a6 002B     		cmp	r3, #0
 2317 09a8 20D1     		bne	.L131
 483:..\main.c     ****                                         while(x>1){
 2318              		.loc 1 483 0
 2319 09aa 12E0     		b	.L132
 2320              	.L133:
 484:..\main.c     ****                                             x--;
 2321              		.loc 1 484 0
 2322 09ac D7F8F435 		ldr	r3, [r7, #1524]
 2323 09b0 013B     		subs	r3, r3, #1
 2324 09b2 C7F8F435 		str	r3, [r7, #1524]
 485:..\main.c     ****                                             bufferBeagleTX[19+x+(w*35)]='0';
 2325              		.loc 1 485 0
 2326 09b6 D7F8E825 		ldr	r2, [r7, #1512]
 2327 09ba 1346     		mov	r3, r2
 2328 09bc 9B00     		lsls	r3, r3, #2
 2329 09be 1344     		add	r3, r3, r2
 2330 09c0 DA00     		lsls	r2, r3, #3
 2331 09c2 D21A     		subs	r2, r2, r3
 2332 09c4 D7F8F435 		ldr	r3, [r7, #1524]
 2333 09c8 1344     		add	r3, r3, r2
 2334 09ca 1333     		adds	r3, r3, #19
 2335 09cc 3A1D     		adds	r2, r7, #4
 2336 09ce 3021     		movs	r1, #48
 2337 09d0 D154     		strb	r1, [r2, r3]
 2338              	.L132:
 483:..\main.c     ****                                         while(x>1){
 2339              		.loc 1 483 0
 2340 09d2 D7F8F435 		ldr	r3, [r7, #1524]
 2341 09d6 012B     		cmp	r3, #1
 2342 09d8 E8D8     		bhi	.L133
 486:..\main.c     ****                                         }
 487:..\main.c     ****                                         break;
 2343              		.loc 1 487 0
 2344 09da 10E0     		b	.L134
 2345              	.L411:
 2346              		.align	2
 2347              	.L410:
 2348 09dc 00000000 		.word	turn
 2349 09e0 00000000 		.word	side
 2350 09e4 00000000 		.word	decimalVolume
 2351 09e8 00000000 		.word	decimalMoney
 2352              	.L131:
 474:..\main.c     ****                                     bufferBeagleTX[19+x+(w*35)]=side.a.totalsHandle[w][1][y];
 2353              		.loc 1 474 0 discriminator 2
 2354 09ec D7F8F435 		ldr	r3, [r7, #1524]
 2355 09f0 013B     		subs	r3, r3, #1
 2356 09f2 C7F8F435 		str	r3, [r7, #1524]
ARM GAS  C:\Users\RECEPC~1\AppData\Local\Temp\ccGwunar.s 			page 52


 2357              	.L129:
 474:..\main.c     ****                                     bufferBeagleTX[19+x+(w*35)]=side.a.totalsHandle[w][1][y];
 2358              		.loc 1 474 0 is_stmt 0 discriminator 1
 2359 09f6 D7F8F435 		ldr	r3, [r7, #1524]
 2360 09fa 002B     		cmp	r3, #0
 2361 09fc 90D1     		bne	.L135
 2362              	.L134:
 488:..\main.c     ****                                     }
 489:..\main.c     ****                                 }
 490:..\main.c     ****                                 bufferBeagleTX[33+(w*35)]=';';
 2363              		.loc 1 490 0 is_stmt 1
 2364 09fe D7F8E825 		ldr	r2, [r7, #1512]
 2365 0a02 1346     		mov	r3, r2
 2366 0a04 9B00     		lsls	r3, r3, #2
 2367 0a06 1344     		add	r3, r3, r2
 2368 0a08 DA00     		lsls	r2, r3, #3
 2369 0a0a D31A     		subs	r3, r2, r3
 2370 0a0c 2133     		adds	r3, r3, #33
 2371 0a0e 3A1D     		adds	r2, r7, #4
 2372 0a10 3B21     		movs	r1, #59
 2373 0a12 D154     		strb	r1, [r2, r3]
 491:..\main.c     ****                                 y=side.a.totalsHandle[w][2][0];
 2374              		.loc 1 491 0
 2375 0a14 E549     		ldr	r1, .L412
 2376 0a16 D7F8E825 		ldr	r2, [r7, #1512]
 2377 0a1a 1346     		mov	r3, r2
 2378 0a1c 5B00     		lsls	r3, r3, #1
 2379 0a1e 1344     		add	r3, r3, r2
 2380 0a20 1A01     		lsls	r2, r3, #4
 2381 0a22 D21A     		subs	r2, r2, r3
 2382 0a24 8B18     		adds	r3, r1, r2
 2383 0a26 1E33     		adds	r3, r3, #30
 2384 0a28 5B78     		ldrb	r3, [r3, #1]	@ zero_extendqisi2
 2385 0a2a C7F8F035 		str	r3, [r7, #1520]
 492:..\main.c     ****                                 if(y==0){
 2386              		.loc 1 492 0
 2387 0a2e D7F8F035 		ldr	r3, [r7, #1520]
 2388 0a32 002B     		cmp	r3, #0
 2389 0a34 0ED1     		bne	.L136
 493:..\main.c     ****                                     y=1;
 2390              		.loc 1 493 0
 2391 0a36 0123     		movs	r3, #1
 2392 0a38 C7F8F035 		str	r3, [r7, #1520]
 494:..\main.c     ****                                     side.a.totalsHandle[w][2][1]='0';
 2393              		.loc 1 494 0
 2394 0a3c DB49     		ldr	r1, .L412
 2395 0a3e D7F8E825 		ldr	r2, [r7, #1512]
 2396 0a42 1346     		mov	r3, r2
 2397 0a44 5B00     		lsls	r3, r3, #1
 2398 0a46 1344     		add	r3, r3, r2
 2399 0a48 1A01     		lsls	r2, r3, #4
 2400 0a4a D21A     		subs	r2, r2, r3
 2401 0a4c 8B18     		adds	r3, r1, r2
 2402 0a4e 1F33     		adds	r3, r3, #31
 2403 0a50 3022     		movs	r2, #48
 2404 0a52 5A70     		strb	r2, [r3, #1]
 2405              	.L136:
ARM GAS  C:\Users\RECEPC~1\AppData\Local\Temp\ccGwunar.s 			page 53


 495:..\main.c     ****                                 }
 496:..\main.c     ****                                 z=0;
 2406              		.loc 1 496 0
 2407 0a54 0023     		movs	r3, #0
 2408 0a56 C7F8EC35 		str	r3, [r7, #1516]
 497:..\main.c     ****                                 for(x=6;x>0;x--){
 2409              		.loc 1 497 0
 2410 0a5a 0623     		movs	r3, #6
 2411 0a5c C7F8F435 		str	r3, [r7, #1524]
 2412 0a60 62E0     		b	.L137
 2413              	.L143:
 498:..\main.c     ****                                     bufferBeagleTX[33+x+(w*35)]=side.a.totalsHandle[w][2][y];
 2414              		.loc 1 498 0
 2415 0a62 D7F8E825 		ldr	r2, [r7, #1512]
 2416 0a66 1346     		mov	r3, r2
 2417 0a68 9B00     		lsls	r3, r3, #2
 2418 0a6a 1344     		add	r3, r3, r2
 2419 0a6c DA00     		lsls	r2, r3, #3
 2420 0a6e D21A     		subs	r2, r2, r3
 2421 0a70 D7F8F435 		ldr	r3, [r7, #1524]
 2422 0a74 1344     		add	r3, r3, r2
 2423 0a76 03F12101 		add	r1, r3, #33
 2424 0a7a CC48     		ldr	r0, .L412
 2425 0a7c D7F8E825 		ldr	r2, [r7, #1512]
 2426 0a80 1346     		mov	r3, r2
 2427 0a82 5B00     		lsls	r3, r3, #1
 2428 0a84 1344     		add	r3, r3, r2
 2429 0a86 1A01     		lsls	r2, r3, #4
 2430 0a88 D21A     		subs	r2, r2, r3
 2431 0a8a 0244     		add	r2, r2, r0
 2432 0a8c D7F8F035 		ldr	r3, [r7, #1520]
 2433 0a90 1344     		add	r3, r3, r2
 2434 0a92 1E33     		adds	r3, r3, #30
 2435 0a94 5A78     		ldrb	r2, [r3, #1]	@ zero_extendqisi2
 2436 0a96 3B1D     		adds	r3, r7, #4
 2437 0a98 5A54     		strb	r2, [r3, r1]
 499:..\main.c     ****                                     y--;
 2438              		.loc 1 499 0
 2439 0a9a D7F8F035 		ldr	r3, [r7, #1520]
 2440 0a9e 013B     		subs	r3, r3, #1
 2441 0aa0 C7F8F035 		str	r3, [r7, #1520]
 500:..\main.c     ****                                     z++;
 2442              		.loc 1 500 0
 2443 0aa4 D7F8EC35 		ldr	r3, [r7, #1516]
 2444 0aa8 0133     		adds	r3, r3, #1
 2445 0aaa C7F8EC35 		str	r3, [r7, #1516]
 501:..\main.c     ****                                     if(z==decimalMoney){
 2446              		.loc 1 501 0
 2447 0aae C04B     		ldr	r3, .L412+4
 2448 0ab0 1B78     		ldrb	r3, [r3]
 2449 0ab2 DBB2     		uxtb	r3, r3
 2450 0ab4 1A46     		mov	r2, r3
 2451 0ab6 D7F8EC35 		ldr	r3, [r7, #1516]
 2452 0aba 9A42     		cmp	r2, r3
 2453 0abc 12D1     		bne	.L138
 502:..\main.c     ****                                         x--;
 2454              		.loc 1 502 0
ARM GAS  C:\Users\RECEPC~1\AppData\Local\Temp\ccGwunar.s 			page 54


 2455 0abe D7F8F435 		ldr	r3, [r7, #1524]
 2456 0ac2 013B     		subs	r3, r3, #1
 2457 0ac4 C7F8F435 		str	r3, [r7, #1524]
 503:..\main.c     ****                                         bufferBeagleTX[33+x+(w*35)]=',';
 2458              		.loc 1 503 0
 2459 0ac8 D7F8E825 		ldr	r2, [r7, #1512]
 2460 0acc 1346     		mov	r3, r2
 2461 0ace 9B00     		lsls	r3, r3, #2
 2462 0ad0 1344     		add	r3, r3, r2
 2463 0ad2 DA00     		lsls	r2, r3, #3
 2464 0ad4 D21A     		subs	r2, r2, r3
 2465 0ad6 D7F8F435 		ldr	r3, [r7, #1524]
 2466 0ada 1344     		add	r3, r3, r2
 2467 0adc 2133     		adds	r3, r3, #33
 2468 0ade 3A1D     		adds	r2, r7, #4
 2469 0ae0 2C21     		movs	r1, #44
 2470 0ae2 D154     		strb	r1, [r2, r3]
 2471              	.L138:
 504:..\main.c     ****                                     }
 505:..\main.c     ****                                     if(y<=0){
 2472              		.loc 1 505 0
 2473 0ae4 D7F8F035 		ldr	r3, [r7, #1520]
 2474 0ae8 002B     		cmp	r3, #0
 2475 0aea 18D1     		bne	.L139
 506:..\main.c     ****                                         while(x>1){
 2476              		.loc 1 506 0
 2477 0aec 12E0     		b	.L140
 2478              	.L141:
 507:..\main.c     ****                                             x--;
 2479              		.loc 1 507 0
 2480 0aee D7F8F435 		ldr	r3, [r7, #1524]
 2481 0af2 013B     		subs	r3, r3, #1
 2482 0af4 C7F8F435 		str	r3, [r7, #1524]
 508:..\main.c     ****                                             bufferBeagleTX[33+x+(w*35)]='0';
 2483              		.loc 1 508 0
 2484 0af8 D7F8E825 		ldr	r2, [r7, #1512]
 2485 0afc 1346     		mov	r3, r2
 2486 0afe 9B00     		lsls	r3, r3, #2
 2487 0b00 1344     		add	r3, r3, r2
 2488 0b02 DA00     		lsls	r2, r3, #3
 2489 0b04 D21A     		subs	r2, r2, r3
 2490 0b06 D7F8F435 		ldr	r3, [r7, #1524]
 2491 0b0a 1344     		add	r3, r3, r2
 2492 0b0c 2133     		adds	r3, r3, #33
 2493 0b0e 3A1D     		adds	r2, r7, #4
 2494 0b10 3021     		movs	r1, #48
 2495 0b12 D154     		strb	r1, [r2, r3]
 2496              	.L140:
 506:..\main.c     ****                                         while(x>1){
 2497              		.loc 1 506 0
 2498 0b14 D7F8F435 		ldr	r3, [r7, #1524]
 2499 0b18 012B     		cmp	r3, #1
 2500 0b1a E8D8     		bhi	.L141
 509:..\main.c     ****                                         }
 510:..\main.c     ****                                         break;
 2501              		.loc 1 510 0
 2502 0b1c 08E0     		b	.L142
ARM GAS  C:\Users\RECEPC~1\AppData\Local\Temp\ccGwunar.s 			page 55


 2503              	.L139:
 497:..\main.c     ****                                     bufferBeagleTX[33+x+(w*35)]=side.a.totalsHandle[w][2][y];
 2504              		.loc 1 497 0 discriminator 2
 2505 0b1e D7F8F435 		ldr	r3, [r7, #1524]
 2506 0b22 013B     		subs	r3, r3, #1
 2507 0b24 C7F8F435 		str	r3, [r7, #1524]
 2508              	.L137:
 497:..\main.c     ****                                     bufferBeagleTX[33+x+(w*35)]=side.a.totalsHandle[w][2][y];
 2509              		.loc 1 497 0 is_stmt 0 discriminator 1
 2510 0b28 D7F8F435 		ldr	r3, [r7, #1524]
 2511 0b2c 002B     		cmp	r3, #0
 2512 0b2e 98D1     		bne	.L143
 2513              	.L142:
 443:..\main.c     ****                                 bufferBeagleTX[5+(w*35)]=';';
 2514              		.loc 1 443 0 is_stmt 1 discriminator 2
 2515 0b30 D7F8E835 		ldr	r3, [r7, #1512]
 2516 0b34 0133     		adds	r3, r3, #1
 2517 0b36 C7F8E835 		str	r3, [r7, #1512]
 2518              	.L119:
 443:..\main.c     ****                                 bufferBeagleTX[5+(w*35)]=';';
 2519              		.loc 1 443 0 is_stmt 0 discriminator 1
 2520 0b3a D7F8E835 		ldr	r3, [r7, #1512]
 2521 0b3e 032B     		cmp	r3, #3
 2522 0b40 7FF625AE 		bls	.L144
 511:..\main.c     ****                                     }
 512:..\main.c     ****                                 }
 513:..\main.c     ****                             }
 514:..\main.c     ****                             for(w=0;w<=3;w++){
 2523              		.loc 1 514 0 is_stmt 1
 2524 0b44 0023     		movs	r3, #0
 2525 0b46 C7F8E835 		str	r3, [r7, #1512]
 2526 0b4a DFE1     		b	.L145
 2527              	.L170:
 515:..\main.c     ****                                 bufferBeagleTX[145+(w*35)]=';';
 2528              		.loc 1 515 0
 2529 0b4c D7F8E825 		ldr	r2, [r7, #1512]
 2530 0b50 1346     		mov	r3, r2
 2531 0b52 9B00     		lsls	r3, r3, #2
 2532 0b54 1344     		add	r3, r3, r2
 2533 0b56 DA00     		lsls	r2, r3, #3
 2534 0b58 D31A     		subs	r3, r2, r3
 2535 0b5a 9133     		adds	r3, r3, #145
 2536 0b5c 3A1D     		adds	r2, r7, #4
 2537 0b5e 3B21     		movs	r1, #59
 2538 0b60 D154     		strb	r1, [r2, r3]
 516:..\main.c     ****                                 y=side.b.totalsHandle[w][0][0];
 2539              		.loc 1 516 0
 2540 0b62 9249     		ldr	r1, .L412
 2541 0b64 D7F8E825 		ldr	r2, [r7, #1512]
 2542 0b68 1346     		mov	r3, r2
 2543 0b6a 5B00     		lsls	r3, r3, #1
 2544 0b6c 1344     		add	r3, r3, r2
 2545 0b6e 1A01     		lsls	r2, r3, #4
 2546 0b70 D21A     		subs	r2, r2, r3
 2547 0b72 8B18     		adds	r3, r1, r2
 2548 0b74 03F58073 		add	r3, r3, #256
 2549 0b78 5B78     		ldrb	r3, [r3, #1]	@ zero_extendqisi2
ARM GAS  C:\Users\RECEPC~1\AppData\Local\Temp\ccGwunar.s 			page 56


 2550 0b7a C7F8F035 		str	r3, [r7, #1520]
 517:..\main.c     ****                                 if(y==0){
 2551              		.loc 1 517 0
 2552 0b7e D7F8F035 		ldr	r3, [r7, #1520]
 2553 0b82 002B     		cmp	r3, #0
 2554 0b84 0FD1     		bne	.L146
 518:..\main.c     ****                                     y=1;
 2555              		.loc 1 518 0
 2556 0b86 0123     		movs	r3, #1
 2557 0b88 C7F8F035 		str	r3, [r7, #1520]
 519:..\main.c     ****                                     side.b.totalsHandle[w][0][1]='0';
 2558              		.loc 1 519 0
 2559 0b8c 8749     		ldr	r1, .L412
 2560 0b8e D7F8E825 		ldr	r2, [r7, #1512]
 2561 0b92 1346     		mov	r3, r2
 2562 0b94 5B00     		lsls	r3, r3, #1
 2563 0b96 1344     		add	r3, r3, r2
 2564 0b98 1A01     		lsls	r2, r3, #4
 2565 0b9a D21A     		subs	r2, r2, r3
 2566 0b9c 8B18     		adds	r3, r1, r2
 2567 0b9e 03F20113 		addw	r3, r3, #257
 2568 0ba2 3022     		movs	r2, #48
 2569 0ba4 5A70     		strb	r2, [r3, #1]
 2570              	.L146:
 520:..\main.c     ****                                 }
 521:..\main.c     ****                                 z=0;
 2571              		.loc 1 521 0
 2572 0ba6 0023     		movs	r3, #0
 2573 0ba8 C7F8EC35 		str	r3, [r7, #1516]
 522:..\main.c     ****                                 for(x=13;x>0;x--){
 2574              		.loc 1 522 0
 2575 0bac 0D23     		movs	r3, #13
 2576 0bae C7F8F435 		str	r3, [r7, #1524]
 2577 0bb2 64E0     		b	.L147
 2578              	.L153:
 523:..\main.c     ****                                     bufferBeagleTX[145+x+(w*35)]=side.b.totalsHandle[w][0][y];
 2579              		.loc 1 523 0
 2580 0bb4 D7F8E825 		ldr	r2, [r7, #1512]
 2581 0bb8 1346     		mov	r3, r2
 2582 0bba 9B00     		lsls	r3, r3, #2
 2583 0bbc 1344     		add	r3, r3, r2
 2584 0bbe DA00     		lsls	r2, r3, #3
 2585 0bc0 D21A     		subs	r2, r2, r3
 2586 0bc2 D7F8F435 		ldr	r3, [r7, #1524]
 2587 0bc6 1344     		add	r3, r3, r2
 2588 0bc8 03F19101 		add	r1, r3, #145
 2589 0bcc 7748     		ldr	r0, .L412
 2590 0bce D7F8E825 		ldr	r2, [r7, #1512]
 2591 0bd2 1346     		mov	r3, r2
 2592 0bd4 5B00     		lsls	r3, r3, #1
 2593 0bd6 1344     		add	r3, r3, r2
 2594 0bd8 1A01     		lsls	r2, r3, #4
 2595 0bda D21A     		subs	r2, r2, r3
 2596 0bdc 0244     		add	r2, r2, r0
 2597 0bde D7F8F035 		ldr	r3, [r7, #1520]
 2598 0be2 1344     		add	r3, r3, r2
 2599 0be4 03F58073 		add	r3, r3, #256
ARM GAS  C:\Users\RECEPC~1\AppData\Local\Temp\ccGwunar.s 			page 57


 2600 0be8 5A78     		ldrb	r2, [r3, #1]	@ zero_extendqisi2
 2601 0bea 3B1D     		adds	r3, r7, #4
 2602 0bec 5A54     		strb	r2, [r3, r1]
 524:..\main.c     ****                                     y--;
 2603              		.loc 1 524 0
 2604 0bee D7F8F035 		ldr	r3, [r7, #1520]
 2605 0bf2 013B     		subs	r3, r3, #1
 2606 0bf4 C7F8F035 		str	r3, [r7, #1520]
 525:..\main.c     ****                                     z++;
 2607              		.loc 1 525 0
 2608 0bf8 D7F8EC35 		ldr	r3, [r7, #1516]
 2609 0bfc 0133     		adds	r3, r3, #1
 2610 0bfe C7F8EC35 		str	r3, [r7, #1516]
 526:..\main.c     ****                                     if(z==(decimalVolume-1)){
 2611              		.loc 1 526 0
 2612 0c02 6C4B     		ldr	r3, .L412+8
 2613 0c04 1B78     		ldrb	r3, [r3]
 2614 0c06 DBB2     		uxtb	r3, r3
 2615 0c08 013B     		subs	r3, r3, #1
 2616 0c0a 1A46     		mov	r2, r3
 2617 0c0c D7F8EC35 		ldr	r3, [r7, #1516]
 2618 0c10 9A42     		cmp	r2, r3
 2619 0c12 12D1     		bne	.L148
 527:..\main.c     ****                                         x--;
 2620              		.loc 1 527 0
 2621 0c14 D7F8F435 		ldr	r3, [r7, #1524]
 2622 0c18 013B     		subs	r3, r3, #1
 2623 0c1a C7F8F435 		str	r3, [r7, #1524]
 528:..\main.c     ****                                         bufferBeagleTX[145+x+(w*35)]=',';
 2624              		.loc 1 528 0
 2625 0c1e D7F8E825 		ldr	r2, [r7, #1512]
 2626 0c22 1346     		mov	r3, r2
 2627 0c24 9B00     		lsls	r3, r3, #2
 2628 0c26 1344     		add	r3, r3, r2
 2629 0c28 DA00     		lsls	r2, r3, #3
 2630 0c2a D21A     		subs	r2, r2, r3
 2631 0c2c D7F8F435 		ldr	r3, [r7, #1524]
 2632 0c30 1344     		add	r3, r3, r2
 2633 0c32 9133     		adds	r3, r3, #145
 2634 0c34 3A1D     		adds	r2, r7, #4
 2635 0c36 2C21     		movs	r1, #44
 2636 0c38 D154     		strb	r1, [r2, r3]
 2637              	.L148:
 529:..\main.c     ****                                     }
 530:..\main.c     ****                                     if(y<=0){
 2638              		.loc 1 530 0
 2639 0c3a D7F8F035 		ldr	r3, [r7, #1520]
 2640 0c3e 002B     		cmp	r3, #0
 2641 0c40 18D1     		bne	.L149
 531:..\main.c     ****                                         while(x>1){
 2642              		.loc 1 531 0
 2643 0c42 12E0     		b	.L150
 2644              	.L151:
 532:..\main.c     ****                                             x--;
 2645              		.loc 1 532 0
 2646 0c44 D7F8F435 		ldr	r3, [r7, #1524]
 2647 0c48 013B     		subs	r3, r3, #1
ARM GAS  C:\Users\RECEPC~1\AppData\Local\Temp\ccGwunar.s 			page 58


 2648 0c4a C7F8F435 		str	r3, [r7, #1524]
 533:..\main.c     ****                                             bufferBeagleTX[145+x+(w*35)]='0';
 2649              		.loc 1 533 0
 2650 0c4e D7F8E825 		ldr	r2, [r7, #1512]
 2651 0c52 1346     		mov	r3, r2
 2652 0c54 9B00     		lsls	r3, r3, #2
 2653 0c56 1344     		add	r3, r3, r2
 2654 0c58 DA00     		lsls	r2, r3, #3
 2655 0c5a D21A     		subs	r2, r2, r3
 2656 0c5c D7F8F435 		ldr	r3, [r7, #1524]
 2657 0c60 1344     		add	r3, r3, r2
 2658 0c62 9133     		adds	r3, r3, #145
 2659 0c64 3A1D     		adds	r2, r7, #4
 2660 0c66 3021     		movs	r1, #48
 2661 0c68 D154     		strb	r1, [r2, r3]
 2662              	.L150:
 531:..\main.c     ****                                         while(x>1){
 2663              		.loc 1 531 0
 2664 0c6a D7F8F435 		ldr	r3, [r7, #1524]
 2665 0c6e 012B     		cmp	r3, #1
 2666 0c70 E8D8     		bhi	.L151
 534:..\main.c     ****                                         }
 535:..\main.c     ****                                         break;
 2667              		.loc 1 535 0
 2668 0c72 08E0     		b	.L152
 2669              	.L149:
 522:..\main.c     ****                                     bufferBeagleTX[145+x+(w*35)]=side.b.totalsHandle[w][0][y];
 2670              		.loc 1 522 0 discriminator 2
 2671 0c74 D7F8F435 		ldr	r3, [r7, #1524]
 2672 0c78 013B     		subs	r3, r3, #1
 2673 0c7a C7F8F435 		str	r3, [r7, #1524]
 2674              	.L147:
 522:..\main.c     ****                                     bufferBeagleTX[145+x+(w*35)]=side.b.totalsHandle[w][0][y];
 2675              		.loc 1 522 0 is_stmt 0 discriminator 1
 2676 0c7e D7F8F435 		ldr	r3, [r7, #1524]
 2677 0c82 002B     		cmp	r3, #0
 2678 0c84 96D1     		bne	.L153
 2679              	.L152:
 536:..\main.c     ****                                     }
 537:..\main.c     ****                                 }
 538:..\main.c     ****                                 bufferBeagleTX[159+(w*35)]=';';
 2680              		.loc 1 538 0 is_stmt 1
 2681 0c86 D7F8E825 		ldr	r2, [r7, #1512]
 2682 0c8a 1346     		mov	r3, r2
 2683 0c8c 9B00     		lsls	r3, r3, #2
 2684 0c8e 1344     		add	r3, r3, r2
 2685 0c90 DA00     		lsls	r2, r3, #3
 2686 0c92 D31A     		subs	r3, r2, r3
 2687 0c94 9F33     		adds	r3, r3, #159
 2688 0c96 3A1D     		adds	r2, r7, #4
 2689 0c98 3B21     		movs	r1, #59
 2690 0c9a D154     		strb	r1, [r2, r3]
 539:..\main.c     ****                                 y=side.b.totalsHandle[w][1][0];
 2691              		.loc 1 539 0
 2692 0c9c 4349     		ldr	r1, .L412
 2693 0c9e D7F8E825 		ldr	r2, [r7, #1512]
 2694 0ca2 1346     		mov	r3, r2
ARM GAS  C:\Users\RECEPC~1\AppData\Local\Temp\ccGwunar.s 			page 59


 2695 0ca4 5B00     		lsls	r3, r3, #1
 2696 0ca6 1344     		add	r3, r3, r2
 2697 0ca8 1A01     		lsls	r2, r3, #4
 2698 0caa D21A     		subs	r2, r2, r3
 2699 0cac 8B18     		adds	r3, r1, r2
 2700 0cae 03F20F13 		addw	r3, r3, #271
 2701 0cb2 5B78     		ldrb	r3, [r3, #1]	@ zero_extendqisi2
 2702 0cb4 C7F8F035 		str	r3, [r7, #1520]
 540:..\main.c     ****                                 if(y==0){
 2703              		.loc 1 540 0
 2704 0cb8 D7F8F035 		ldr	r3, [r7, #1520]
 2705 0cbc 002B     		cmp	r3, #0
 2706 0cbe 0FD1     		bne	.L154
 541:..\main.c     ****                                     y=1;
 2707              		.loc 1 541 0
 2708 0cc0 0123     		movs	r3, #1
 2709 0cc2 C7F8F035 		str	r3, [r7, #1520]
 542:..\main.c     ****                                     side.b.totalsHandle[w][1][1]='0';
 2710              		.loc 1 542 0
 2711 0cc6 3949     		ldr	r1, .L412
 2712 0cc8 D7F8E825 		ldr	r2, [r7, #1512]
 2713 0ccc 1346     		mov	r3, r2
 2714 0cce 5B00     		lsls	r3, r3, #1
 2715 0cd0 1344     		add	r3, r3, r2
 2716 0cd2 1A01     		lsls	r2, r3, #4
 2717 0cd4 D21A     		subs	r2, r2, r3
 2718 0cd6 8B18     		adds	r3, r1, r2
 2719 0cd8 03F58873 		add	r3, r3, #272
 2720 0cdc 3022     		movs	r2, #48
 2721 0cde 5A70     		strb	r2, [r3, #1]
 2722              	.L154:
 543:..\main.c     ****                                 }
 544:..\main.c     ****                                 z=0;
 2723              		.loc 1 544 0
 2724 0ce0 0023     		movs	r3, #0
 2725 0ce2 C7F8EC35 		str	r3, [r7, #1516]
 545:..\main.c     ****                                 for(x=13;x>0;x--){
 2726              		.loc 1 545 0
 2727 0ce6 0D23     		movs	r3, #13
 2728 0ce8 C7F8F435 		str	r3, [r7, #1524]
 2729 0cec 69E0     		b	.L155
 2730              	.L161:
 546:..\main.c     ****                                     bufferBeagleTX[159+x+(w*35)]=side.b.totalsHandle[w][1][y];
 2731              		.loc 1 546 0
 2732 0cee D7F8E825 		ldr	r2, [r7, #1512]
 2733 0cf2 1346     		mov	r3, r2
 2734 0cf4 9B00     		lsls	r3, r3, #2
 2735 0cf6 1344     		add	r3, r3, r2
 2736 0cf8 DA00     		lsls	r2, r3, #3
 2737 0cfa D21A     		subs	r2, r2, r3
 2738 0cfc D7F8F435 		ldr	r3, [r7, #1524]
 2739 0d00 1344     		add	r3, r3, r2
 2740 0d02 03F19F01 		add	r1, r3, #159
 2741 0d06 2948     		ldr	r0, .L412
 2742 0d08 D7F8E825 		ldr	r2, [r7, #1512]
 2743 0d0c 1346     		mov	r3, r2
 2744 0d0e 5B00     		lsls	r3, r3, #1
ARM GAS  C:\Users\RECEPC~1\AppData\Local\Temp\ccGwunar.s 			page 60


 2745 0d10 1344     		add	r3, r3, r2
 2746 0d12 1A01     		lsls	r2, r3, #4
 2747 0d14 D21A     		subs	r2, r2, r3
 2748 0d16 0244     		add	r2, r2, r0
 2749 0d18 D7F8F035 		ldr	r3, [r7, #1520]
 2750 0d1c 1344     		add	r3, r3, r2
 2751 0d1e 03F20F13 		addw	r3, r3, #271
 2752 0d22 5A78     		ldrb	r2, [r3, #1]	@ zero_extendqisi2
 2753 0d24 3B1D     		adds	r3, r7, #4
 2754 0d26 5A54     		strb	r2, [r3, r1]
 547:..\main.c     ****                                     y--;
 2755              		.loc 1 547 0
 2756 0d28 D7F8F035 		ldr	r3, [r7, #1520]
 2757 0d2c 013B     		subs	r3, r3, #1
 2758 0d2e C7F8F035 		str	r3, [r7, #1520]
 548:..\main.c     ****                                     z++;
 2759              		.loc 1 548 0
 2760 0d32 D7F8EC35 		ldr	r3, [r7, #1516]
 2761 0d36 0133     		adds	r3, r3, #1
 2762 0d38 C7F8EC35 		str	r3, [r7, #1516]
 549:..\main.c     ****                                     if(z==decimalMoney){
 2763              		.loc 1 549 0
 2764 0d3c 1C4B     		ldr	r3, .L412+4
 2765 0d3e 1B78     		ldrb	r3, [r3]
 2766 0d40 DBB2     		uxtb	r3, r3
 2767 0d42 1A46     		mov	r2, r3
 2768 0d44 D7F8EC35 		ldr	r3, [r7, #1516]
 2769 0d48 9A42     		cmp	r2, r3
 2770 0d4a 12D1     		bne	.L156
 550:..\main.c     ****                                         x--;
 2771              		.loc 1 550 0
 2772 0d4c D7F8F435 		ldr	r3, [r7, #1524]
 2773 0d50 013B     		subs	r3, r3, #1
 2774 0d52 C7F8F435 		str	r3, [r7, #1524]
 551:..\main.c     ****                                         bufferBeagleTX[159+x+(w*35)]=',';
 2775              		.loc 1 551 0
 2776 0d56 D7F8E825 		ldr	r2, [r7, #1512]
 2777 0d5a 1346     		mov	r3, r2
 2778 0d5c 9B00     		lsls	r3, r3, #2
 2779 0d5e 1344     		add	r3, r3, r2
 2780 0d60 DA00     		lsls	r2, r3, #3
 2781 0d62 D21A     		subs	r2, r2, r3
 2782 0d64 D7F8F435 		ldr	r3, [r7, #1524]
 2783 0d68 1344     		add	r3, r3, r2
 2784 0d6a 9F33     		adds	r3, r3, #159
 2785 0d6c 3A1D     		adds	r2, r7, #4
 2786 0d6e 2C21     		movs	r1, #44
 2787 0d70 D154     		strb	r1, [r2, r3]
 2788              	.L156:
 552:..\main.c     ****                                     }
 553:..\main.c     ****                                     if(y<=0){
 2789              		.loc 1 553 0
 2790 0d72 D7F8F035 		ldr	r3, [r7, #1520]
 2791 0d76 002B     		cmp	r3, #0
 2792 0d78 1ED1     		bne	.L157
 554:..\main.c     ****                                         while(x>1){
 2793              		.loc 1 554 0
ARM GAS  C:\Users\RECEPC~1\AppData\Local\Temp\ccGwunar.s 			page 61


 2794 0d7a 12E0     		b	.L158
 2795              	.L159:
 555:..\main.c     ****                                             x--;
 2796              		.loc 1 555 0
 2797 0d7c D7F8F435 		ldr	r3, [r7, #1524]
 2798 0d80 013B     		subs	r3, r3, #1
 2799 0d82 C7F8F435 		str	r3, [r7, #1524]
 556:..\main.c     ****                                             bufferBeagleTX[159+x+(w*35)]='0';
 2800              		.loc 1 556 0
 2801 0d86 D7F8E825 		ldr	r2, [r7, #1512]
 2802 0d8a 1346     		mov	r3, r2
 2803 0d8c 9B00     		lsls	r3, r3, #2
 2804 0d8e 1344     		add	r3, r3, r2
 2805 0d90 DA00     		lsls	r2, r3, #3
 2806 0d92 D21A     		subs	r2, r2, r3
 2807 0d94 D7F8F435 		ldr	r3, [r7, #1524]
 2808 0d98 1344     		add	r3, r3, r2
 2809 0d9a 9F33     		adds	r3, r3, #159
 2810 0d9c 3A1D     		adds	r2, r7, #4
 2811 0d9e 3021     		movs	r1, #48
 2812 0da0 D154     		strb	r1, [r2, r3]
 2813              	.L158:
 554:..\main.c     ****                                         while(x>1){
 2814              		.loc 1 554 0
 2815 0da2 D7F8F435 		ldr	r3, [r7, #1524]
 2816 0da6 012B     		cmp	r3, #1
 2817 0da8 E8D8     		bhi	.L159
 557:..\main.c     ****                                         }
 558:..\main.c     ****                                         break;
 2818              		.loc 1 558 0
 2819 0daa 0EE0     		b	.L160
 2820              	.L413:
 2821              		.align	2
 2822              	.L412:
 2823 0dac 00000000 		.word	side
 2824 0db0 00000000 		.word	decimalMoney
 2825 0db4 00000000 		.word	decimalVolume
 2826              	.L157:
 545:..\main.c     ****                                     bufferBeagleTX[159+x+(w*35)]=side.b.totalsHandle[w][1][y];
 2827              		.loc 1 545 0 discriminator 2
 2828 0db8 D7F8F435 		ldr	r3, [r7, #1524]
 2829 0dbc 013B     		subs	r3, r3, #1
 2830 0dbe C7F8F435 		str	r3, [r7, #1524]
 2831              	.L155:
 545:..\main.c     ****                                     bufferBeagleTX[159+x+(w*35)]=side.b.totalsHandle[w][1][y];
 2832              		.loc 1 545 0 is_stmt 0 discriminator 1
 2833 0dc2 D7F8F435 		ldr	r3, [r7, #1524]
 2834 0dc6 002B     		cmp	r3, #0
 2835 0dc8 91D1     		bne	.L161
 2836              	.L160:
 559:..\main.c     ****                                     }
 560:..\main.c     ****                                 }
 561:..\main.c     ****                                 bufferBeagleTX[173+(w*35)]=';';
 2837              		.loc 1 561 0 is_stmt 1
 2838 0dca D7F8E825 		ldr	r2, [r7, #1512]
 2839 0dce 1346     		mov	r3, r2
 2840 0dd0 9B00     		lsls	r3, r3, #2
ARM GAS  C:\Users\RECEPC~1\AppData\Local\Temp\ccGwunar.s 			page 62


 2841 0dd2 1344     		add	r3, r3, r2
 2842 0dd4 DA00     		lsls	r2, r3, #3
 2843 0dd6 D31A     		subs	r3, r2, r3
 2844 0dd8 AD33     		adds	r3, r3, #173
 2845 0dda 3A1D     		adds	r2, r7, #4
 2846 0ddc 3B21     		movs	r1, #59
 2847 0dde D154     		strb	r1, [r2, r3]
 562:..\main.c     ****                                 y=side.b.totalsHandle[w][2][0];
 2848              		.loc 1 562 0
 2849 0de0 C449     		ldr	r1, .L414
 2850 0de2 D7F8E825 		ldr	r2, [r7, #1512]
 2851 0de6 1346     		mov	r3, r2
 2852 0de8 5B00     		lsls	r3, r3, #1
 2853 0dea 1344     		add	r3, r3, r2
 2854 0dec 1A01     		lsls	r2, r3, #4
 2855 0dee D21A     		subs	r2, r2, r3
 2856 0df0 8B18     		adds	r3, r1, r2
 2857 0df2 03F58F73 		add	r3, r3, #286
 2858 0df6 5B78     		ldrb	r3, [r3, #1]	@ zero_extendqisi2
 2859 0df8 C7F8F035 		str	r3, [r7, #1520]
 563:..\main.c     ****                                 if(y==0){
 2860              		.loc 1 563 0
 2861 0dfc D7F8F035 		ldr	r3, [r7, #1520]
 2862 0e00 002B     		cmp	r3, #0
 2863 0e02 0FD1     		bne	.L162
 564:..\main.c     ****                                     y=1;
 2864              		.loc 1 564 0
 2865 0e04 0123     		movs	r3, #1
 2866 0e06 C7F8F035 		str	r3, [r7, #1520]
 565:..\main.c     ****                                     side.b.totalsHandle[w][2][1]='0';
 2867              		.loc 1 565 0
 2868 0e0a BA49     		ldr	r1, .L414
 2869 0e0c D7F8E825 		ldr	r2, [r7, #1512]
 2870 0e10 1346     		mov	r3, r2
 2871 0e12 5B00     		lsls	r3, r3, #1
 2872 0e14 1344     		add	r3, r3, r2
 2873 0e16 1A01     		lsls	r2, r3, #4
 2874 0e18 D21A     		subs	r2, r2, r3
 2875 0e1a 8B18     		adds	r3, r1, r2
 2876 0e1c 03F21F13 		addw	r3, r3, #287
 2877 0e20 3022     		movs	r2, #48
 2878 0e22 5A70     		strb	r2, [r3, #1]
 2879              	.L162:
 566:..\main.c     ****                                 }
 567:..\main.c     ****                                 z=0;
 2880              		.loc 1 567 0
 2881 0e24 0023     		movs	r3, #0
 2882 0e26 C7F8EC35 		str	r3, [r7, #1516]
 568:..\main.c     ****                                 for(x=6;x>0;x--){
 2883              		.loc 1 568 0
 2884 0e2a 0623     		movs	r3, #6
 2885 0e2c C7F8F435 		str	r3, [r7, #1524]
 2886 0e30 63E0     		b	.L163
 2887              	.L169:
 569:..\main.c     ****                                     bufferBeagleTX[173+x+(w*35)]=side.b.totalsHandle[w][2][y];
 2888              		.loc 1 569 0
 2889 0e32 D7F8E825 		ldr	r2, [r7, #1512]
ARM GAS  C:\Users\RECEPC~1\AppData\Local\Temp\ccGwunar.s 			page 63


 2890 0e36 1346     		mov	r3, r2
 2891 0e38 9B00     		lsls	r3, r3, #2
 2892 0e3a 1344     		add	r3, r3, r2
 2893 0e3c DA00     		lsls	r2, r3, #3
 2894 0e3e D21A     		subs	r2, r2, r3
 2895 0e40 D7F8F435 		ldr	r3, [r7, #1524]
 2896 0e44 1344     		add	r3, r3, r2
 2897 0e46 03F1AD01 		add	r1, r3, #173
 2898 0e4a AA48     		ldr	r0, .L414
 2899 0e4c D7F8E825 		ldr	r2, [r7, #1512]
 2900 0e50 1346     		mov	r3, r2
 2901 0e52 5B00     		lsls	r3, r3, #1
 2902 0e54 1344     		add	r3, r3, r2
 2903 0e56 1A01     		lsls	r2, r3, #4
 2904 0e58 D21A     		subs	r2, r2, r3
 2905 0e5a 0244     		add	r2, r2, r0
 2906 0e5c D7F8F035 		ldr	r3, [r7, #1520]
 2907 0e60 1344     		add	r3, r3, r2
 2908 0e62 03F58F73 		add	r3, r3, #286
 2909 0e66 5A78     		ldrb	r2, [r3, #1]	@ zero_extendqisi2
 2910 0e68 3B1D     		adds	r3, r7, #4
 2911 0e6a 5A54     		strb	r2, [r3, r1]
 570:..\main.c     ****                                     y--;
 2912              		.loc 1 570 0
 2913 0e6c D7F8F035 		ldr	r3, [r7, #1520]
 2914 0e70 013B     		subs	r3, r3, #1
 2915 0e72 C7F8F035 		str	r3, [r7, #1520]
 571:..\main.c     ****                                     z++;
 2916              		.loc 1 571 0
 2917 0e76 D7F8EC35 		ldr	r3, [r7, #1516]
 2918 0e7a 0133     		adds	r3, r3, #1
 2919 0e7c C7F8EC35 		str	r3, [r7, #1516]
 572:..\main.c     ****                                     if(z==decimalMoney){
 2920              		.loc 1 572 0
 2921 0e80 9D4B     		ldr	r3, .L414+4
 2922 0e82 1B78     		ldrb	r3, [r3]
 2923 0e84 DBB2     		uxtb	r3, r3
 2924 0e86 1A46     		mov	r2, r3
 2925 0e88 D7F8EC35 		ldr	r3, [r7, #1516]
 2926 0e8c 9A42     		cmp	r2, r3
 2927 0e8e 12D1     		bne	.L164
 573:..\main.c     ****                                         x--;
 2928              		.loc 1 573 0
 2929 0e90 D7F8F435 		ldr	r3, [r7, #1524]
 2930 0e94 013B     		subs	r3, r3, #1
 2931 0e96 C7F8F435 		str	r3, [r7, #1524]
 574:..\main.c     ****                                         bufferBeagleTX[173+x+(w*35)]=',';
 2932              		.loc 1 574 0
 2933 0e9a D7F8E825 		ldr	r2, [r7, #1512]
 2934 0e9e 1346     		mov	r3, r2
 2935 0ea0 9B00     		lsls	r3, r3, #2
 2936 0ea2 1344     		add	r3, r3, r2
 2937 0ea4 DA00     		lsls	r2, r3, #3
 2938 0ea6 D21A     		subs	r2, r2, r3
 2939 0ea8 D7F8F435 		ldr	r3, [r7, #1524]
 2940 0eac 1344     		add	r3, r3, r2
 2941 0eae AD33     		adds	r3, r3, #173
ARM GAS  C:\Users\RECEPC~1\AppData\Local\Temp\ccGwunar.s 			page 64


 2942 0eb0 3A1D     		adds	r2, r7, #4
 2943 0eb2 2C21     		movs	r1, #44
 2944 0eb4 D154     		strb	r1, [r2, r3]
 2945              	.L164:
 575:..\main.c     ****                                     }
 576:..\main.c     ****                                     if(y<=0){
 2946              		.loc 1 576 0
 2947 0eb6 D7F8F035 		ldr	r3, [r7, #1520]
 2948 0eba 002B     		cmp	r3, #0
 2949 0ebc 18D1     		bne	.L165
 577:..\main.c     ****                                         while(x>1){
 2950              		.loc 1 577 0
 2951 0ebe 12E0     		b	.L166
 2952              	.L167:
 578:..\main.c     ****                                             x--;
 2953              		.loc 1 578 0
 2954 0ec0 D7F8F435 		ldr	r3, [r7, #1524]
 2955 0ec4 013B     		subs	r3, r3, #1
 2956 0ec6 C7F8F435 		str	r3, [r7, #1524]
 579:..\main.c     ****                                             bufferBeagleTX[173+x+(w*35)]='0';
 2957              		.loc 1 579 0
 2958 0eca D7F8E825 		ldr	r2, [r7, #1512]
 2959 0ece 1346     		mov	r3, r2
 2960 0ed0 9B00     		lsls	r3, r3, #2
 2961 0ed2 1344     		add	r3, r3, r2
 2962 0ed4 DA00     		lsls	r2, r3, #3
 2963 0ed6 D21A     		subs	r2, r2, r3
 2964 0ed8 D7F8F435 		ldr	r3, [r7, #1524]
 2965 0edc 1344     		add	r3, r3, r2
 2966 0ede AD33     		adds	r3, r3, #173
 2967 0ee0 3A1D     		adds	r2, r7, #4
 2968 0ee2 3021     		movs	r1, #48
 2969 0ee4 D154     		strb	r1, [r2, r3]
 2970              	.L166:
 577:..\main.c     ****                                         while(x>1){
 2971              		.loc 1 577 0
 2972 0ee6 D7F8F435 		ldr	r3, [r7, #1524]
 2973 0eea 012B     		cmp	r3, #1
 2974 0eec E8D8     		bhi	.L167
 580:..\main.c     ****                                         }
 581:..\main.c     ****                                         break;
 2975              		.loc 1 581 0
 2976 0eee 08E0     		b	.L168
 2977              	.L165:
 568:..\main.c     ****                                     bufferBeagleTX[173+x+(w*35)]=side.b.totalsHandle[w][2][y];
 2978              		.loc 1 568 0 discriminator 2
 2979 0ef0 D7F8F435 		ldr	r3, [r7, #1524]
 2980 0ef4 013B     		subs	r3, r3, #1
 2981 0ef6 C7F8F435 		str	r3, [r7, #1524]
 2982              	.L163:
 568:..\main.c     ****                                     bufferBeagleTX[173+x+(w*35)]=side.b.totalsHandle[w][2][y];
 2983              		.loc 1 568 0 is_stmt 0 discriminator 1
 2984 0efa D7F8F435 		ldr	r3, [r7, #1524]
 2985 0efe 002B     		cmp	r3, #0
 2986 0f00 97D1     		bne	.L169
 2987              	.L168:
 514:..\main.c     ****                                 bufferBeagleTX[145+(w*35)]=';';
ARM GAS  C:\Users\RECEPC~1\AppData\Local\Temp\ccGwunar.s 			page 65


 2988              		.loc 1 514 0 is_stmt 1 discriminator 2
 2989 0f02 D7F8E835 		ldr	r3, [r7, #1512]
 2990 0f06 0133     		adds	r3, r3, #1
 2991 0f08 C7F8E835 		str	r3, [r7, #1512]
 2992              	.L145:
 514:..\main.c     ****                                 bufferBeagleTX[145+(w*35)]=';';
 2993              		.loc 1 514 0 is_stmt 0 discriminator 1
 2994 0f0c D7F8E835 		ldr	r3, [r7, #1512]
 2995 0f10 032B     		cmp	r3, #3
 2996 0f12 7FF61BAE 		bls	.L170
 582:..\main.c     ****                                     }
 583:..\main.c     ****                                 }
 584:..\main.c     ****                             }
 585:..\main.c     ****                             bufferBeagleTX[4]='l';
 2997              		.loc 1 585 0 is_stmt 1
 2998 0f16 3B1D     		adds	r3, r7, #4
 2999 0f18 6C22     		movs	r2, #108
 3000 0f1a 1A71     		strb	r2, [r3, #4]
 586:..\main.c     ****                             sizeTX=284;
 3001              		.loc 1 586 0
 3002 0f1c 4FF48E73 		mov	r3, #284
 3003 0f20 C7F8F835 		str	r3, [r7, #1528]
 587:..\main.c     ****                         break;
 3004              		.loc 1 587 0
 3005 0f24 00F07ABC 		b	.L58
 3006              	.L67:
 588:..\main.c     ****                         
 589:..\main.c     ****                         case 0x48://Configuraciones iniciales
 590:..\main.c     ****                             date[2]=(bufferBeagleRX[8]&0x0F)<<4;	//Decenas de a침o
 3007              		.loc 1 590 0
 3008 0f28 07F5CA73 		add	r3, r7, #404
 3009 0f2c 1B7A     		ldrb	r3, [r3, #8]	@ zero_extendqisi2
 3010 0f2e 1B01     		lsls	r3, r3, #4
 3011 0f30 DAB2     		uxtb	r2, r3
 3012 0f32 724B     		ldr	r3, .L414+8
 3013 0f34 9A70     		strb	r2, [r3, #2]
 591:..\main.c     ****                         	date[2]|=(bufferBeagleRX[9]&0x0F);		//Unidades de a침o
 3014              		.loc 1 591 0
 3015 0f36 714B     		ldr	r3, .L414+8
 3016 0f38 9B78     		ldrb	r3, [r3, #2]
 3017 0f3a DBB2     		uxtb	r3, r3
 3018 0f3c DAB2     		uxtb	r2, r3
 3019 0f3e 07F5CA73 		add	r3, r7, #404
 3020 0f42 5B7A     		ldrb	r3, [r3, #9]	@ zero_extendqisi2
 3021 0f44 DBB2     		uxtb	r3, r3
 3022 0f46 03F00F03 		and	r3, r3, #15
 3023 0f4a DBB2     		uxtb	r3, r3
 3024 0f4c 1343     		orrs	r3, r3, r2
 3025 0f4e DBB2     		uxtb	r3, r3
 3026 0f50 DAB2     		uxtb	r2, r3
 3027 0f52 6A4B     		ldr	r3, .L414+8
 3028 0f54 9A70     		strb	r2, [r3, #2]
 592:..\main.c     ****                         	date[1]=(bufferBeagleRX[10]&0x0F)<<4;	//Decenas de mes
 3029              		.loc 1 592 0
 3030 0f56 07F5CA73 		add	r3, r7, #404
 3031 0f5a 9B7A     		ldrb	r3, [r3, #10]	@ zero_extendqisi2
 3032 0f5c 1B01     		lsls	r3, r3, #4
ARM GAS  C:\Users\RECEPC~1\AppData\Local\Temp\ccGwunar.s 			page 66


 3033 0f5e DAB2     		uxtb	r2, r3
 3034 0f60 664B     		ldr	r3, .L414+8
 3035 0f62 5A70     		strb	r2, [r3, #1]
 593:..\main.c     ****                         	date[1]|=(bufferBeagleRX[11]&0x0F);		//Unidades de mes
 3036              		.loc 1 593 0
 3037 0f64 654B     		ldr	r3, .L414+8
 3038 0f66 5B78     		ldrb	r3, [r3, #1]
 3039 0f68 DBB2     		uxtb	r3, r3
 3040 0f6a DAB2     		uxtb	r2, r3
 3041 0f6c 07F5CA73 		add	r3, r7, #404
 3042 0f70 DB7A     		ldrb	r3, [r3, #11]	@ zero_extendqisi2
 3043 0f72 DBB2     		uxtb	r3, r3
 3044 0f74 03F00F03 		and	r3, r3, #15
 3045 0f78 DBB2     		uxtb	r3, r3
 3046 0f7a 1343     		orrs	r3, r3, r2
 3047 0f7c DBB2     		uxtb	r3, r3
 3048 0f7e DAB2     		uxtb	r2, r3
 3049 0f80 5E4B     		ldr	r3, .L414+8
 3050 0f82 5A70     		strb	r2, [r3, #1]
 594:..\main.c     ****                         	date[0]=(bufferBeagleRX[12]&0x0F)<<4; 	//Decenas de dia
 3051              		.loc 1 594 0
 3052 0f84 07F5CA73 		add	r3, r7, #404
 3053 0f88 1B7B     		ldrb	r3, [r3, #12]	@ zero_extendqisi2
 3054 0f8a 1B01     		lsls	r3, r3, #4
 3055 0f8c DAB2     		uxtb	r2, r3
 3056 0f8e 5B4B     		ldr	r3, .L414+8
 3057 0f90 1A70     		strb	r2, [r3]
 595:..\main.c     ****                         	date[0]|=(bufferBeagleRX[13]&0x0F);		//Unidades de dia
 3058              		.loc 1 595 0
 3059 0f92 5A4B     		ldr	r3, .L414+8
 3060 0f94 1B78     		ldrb	r3, [r3]
 3061 0f96 DBB2     		uxtb	r3, r3
 3062 0f98 DAB2     		uxtb	r2, r3
 3063 0f9a 07F5CA73 		add	r3, r7, #404
 3064 0f9e 5B7B     		ldrb	r3, [r3, #13]	@ zero_extendqisi2
 3065 0fa0 DBB2     		uxtb	r3, r3
 3066 0fa2 03F00F03 		and	r3, r3, #15
 3067 0fa6 DBB2     		uxtb	r3, r3
 3068 0fa8 1343     		orrs	r3, r3, r2
 3069 0faa DBB2     		uxtb	r3, r3
 3070 0fac DAB2     		uxtb	r2, r3
 3071 0fae 534B     		ldr	r3, .L414+8
 3072 0fb0 1A70     		strb	r2, [r3]
 596:..\main.c     ****                         	write_date();
 3073              		.loc 1 596 0
 3074 0fb2 FFF7FEFF 		bl	write_date
 597:..\main.c     ****                         	time[2]=(bufferBeagleRX[14]&0x0F)<<4;	//Decenas de hora
 3075              		.loc 1 597 0
 3076 0fb6 07F5CA73 		add	r3, r7, #404
 3077 0fba 9B7B     		ldrb	r3, [r3, #14]	@ zero_extendqisi2
 3078 0fbc 1B01     		lsls	r3, r3, #4
 3079 0fbe DAB2     		uxtb	r2, r3
 3080 0fc0 4F4B     		ldr	r3, .L414+12
 3081 0fc2 9A70     		strb	r2, [r3, #2]
 598:..\main.c     ****                         	time[2]|=(bufferBeagleRX[15]&0x0F);		//Unidades de Hora
 3082              		.loc 1 598 0
 3083 0fc4 4E4B     		ldr	r3, .L414+12
ARM GAS  C:\Users\RECEPC~1\AppData\Local\Temp\ccGwunar.s 			page 67


 3084 0fc6 9B78     		ldrb	r3, [r3, #2]
 3085 0fc8 DBB2     		uxtb	r3, r3
 3086 0fca DAB2     		uxtb	r2, r3
 3087 0fcc 07F5CA73 		add	r3, r7, #404
 3088 0fd0 DB7B     		ldrb	r3, [r3, #15]	@ zero_extendqisi2
 3089 0fd2 DBB2     		uxtb	r3, r3
 3090 0fd4 03F00F03 		and	r3, r3, #15
 3091 0fd8 DBB2     		uxtb	r3, r3
 3092 0fda 1343     		orrs	r3, r3, r2
 3093 0fdc DBB2     		uxtb	r3, r3
 3094 0fde DAB2     		uxtb	r2, r3
 3095 0fe0 474B     		ldr	r3, .L414+12
 3096 0fe2 9A70     		strb	r2, [r3, #2]
 599:..\main.c     ****                         	time[1]=(bufferBeagleRX[16]&0x0F)<<4;	//Decenas de Minutos
 3097              		.loc 1 599 0
 3098 0fe4 07F5CA73 		add	r3, r7, #404
 3099 0fe8 1B7C     		ldrb	r3, [r3, #16]	@ zero_extendqisi2
 3100 0fea 1B01     		lsls	r3, r3, #4
 3101 0fec DAB2     		uxtb	r2, r3
 3102 0fee 444B     		ldr	r3, .L414+12
 3103 0ff0 5A70     		strb	r2, [r3, #1]
 600:..\main.c     ****                         	time[1]|=(bufferBeagleRX[17]&0x0F);		//Unidades de Minutos
 3104              		.loc 1 600 0
 3105 0ff2 434B     		ldr	r3, .L414+12
 3106 0ff4 5B78     		ldrb	r3, [r3, #1]
 3107 0ff6 DBB2     		uxtb	r3, r3
 3108 0ff8 DAB2     		uxtb	r2, r3
 3109 0ffa 07F5CA73 		add	r3, r7, #404
 3110 0ffe 5B7C     		ldrb	r3, [r3, #17]	@ zero_extendqisi2
 3111 1000 DBB2     		uxtb	r3, r3
 3112 1002 03F00F03 		and	r3, r3, #15
 3113 1006 DBB2     		uxtb	r3, r3
 3114 1008 1343     		orrs	r3, r3, r2
 3115 100a DBB2     		uxtb	r3, r3
 3116 100c DAB2     		uxtb	r2, r3
 3117 100e 3C4B     		ldr	r3, .L414+12
 3118 1010 5A70     		strb	r2, [r3, #1]
 601:..\main.c     ****                             time[0]=(bufferBeagleRX[18]&0x0F)<<4;	//Decenas de Segundos
 3119              		.loc 1 601 0
 3120 1012 07F5CA73 		add	r3, r7, #404
 3121 1016 9B7C     		ldrb	r3, [r3, #18]	@ zero_extendqisi2
 3122 1018 1B01     		lsls	r3, r3, #4
 3123 101a DAB2     		uxtb	r2, r3
 3124 101c 384B     		ldr	r3, .L414+12
 3125 101e 1A70     		strb	r2, [r3]
 602:..\main.c     ****                         	time[0]|=(bufferBeagleRX[19]&0x0F);		//Unidades de Segundos
 3126              		.loc 1 602 0
 3127 1020 374B     		ldr	r3, .L414+12
 3128 1022 1B78     		ldrb	r3, [r3]
 3129 1024 DBB2     		uxtb	r3, r3
 3130 1026 DAB2     		uxtb	r2, r3
 3131 1028 07F5CA73 		add	r3, r7, #404
 3132 102c DB7C     		ldrb	r3, [r3, #19]	@ zero_extendqisi2
 3133 102e DBB2     		uxtb	r3, r3
 3134 1030 03F00F03 		and	r3, r3, #15
 3135 1034 DBB2     		uxtb	r3, r3
 3136 1036 1343     		orrs	r3, r3, r2
ARM GAS  C:\Users\RECEPC~1\AppData\Local\Temp\ccGwunar.s 			page 68


 3137 1038 DBB2     		uxtb	r3, r3
 3138 103a DAB2     		uxtb	r2, r3
 3139 103c 304B     		ldr	r3, .L414+12
 3140 103e 1A70     		strb	r2, [r3]
 603:..\main.c     ****                             write_time();
 3141              		.loc 1 603 0
 3142 1040 FFF7FEFF 		bl	write_time
 604:..\main.c     ****                             digits=bufferBeagleRX[21]&0x07;
 3143              		.loc 1 604 0
 3144 1044 07F5CA73 		add	r3, r7, #404
 3145 1048 5B7D     		ldrb	r3, [r3, #21]	@ zero_extendqisi2
 3146 104a 03F00703 		and	r3, r3, #7
 3147 104e DAB2     		uxtb	r2, r3
 3148 1050 2C4B     		ldr	r3, .L414+16
 3149 1052 1A70     		strb	r2, [r3]
 605:..\main.c     ****                             decimalMoney=bufferBeagleRX[23]&0x07;
 3150              		.loc 1 605 0
 3151 1054 07F5CA73 		add	r3, r7, #404
 3152 1058 DB7D     		ldrb	r3, [r3, #23]	@ zero_extendqisi2
 3153 105a 03F00703 		and	r3, r3, #7
 3154 105e DAB2     		uxtb	r2, r3
 3155 1060 254B     		ldr	r3, .L414+4
 3156 1062 1A70     		strb	r2, [r3]
 606:..\main.c     ****                             decimalVolume=bufferBeagleRX[25]&0x07;
 3157              		.loc 1 606 0
 3158 1064 07F5CA73 		add	r3, r7, #404
 3159 1068 5B7E     		ldrb	r3, [r3, #25]	@ zero_extendqisi2
 3160 106a 03F00703 		and	r3, r3, #7
 3161 106e DAB2     		uxtb	r2, r3
 3162 1070 254B     		ldr	r3, .L414+20
 3163 1072 1A70     		strb	r2, [r3]
 607:..\main.c     ****                             ppux10=bufferBeagleRX[27]&0x01;
 3164              		.loc 1 607 0
 3165 1074 07F5CA73 		add	r3, r7, #404
 3166 1078 DB7E     		ldrb	r3, [r3, #27]	@ zero_extendqisi2
 3167 107a 03F00103 		and	r3, r3, #1
 3168 107e DAB2     		uxtb	r2, r3
 3169 1080 224B     		ldr	r3, .L414+24
 3170 1082 1A70     		strb	r2, [r3]
 608:..\main.c     ****                             productNumber=bufferBeagleRX[29]&0x07;
 3171              		.loc 1 608 0
 3172 1084 07F5CA73 		add	r3, r7, #404
 3173 1088 5B7F     		ldrb	r3, [r3, #29]	@ zero_extendqisi2
 3174 108a 03F00703 		and	r3, r3, #7
 3175 108e DAB2     		uxtb	r2, r3
 3176 1090 1F4B     		ldr	r3, .L414+28
 3177 1092 1A70     		strb	r2, [r3]
 609:..\main.c     ****                             symbols[0]=bufferBeagleRX[31];
 3178              		.loc 1 609 0
 3179 1094 07F5CA73 		add	r3, r7, #404
 3180 1098 DA7F     		ldrb	r2, [r3, #31]	@ zero_extendqisi2
 3181 109a 1E4B     		ldr	r3, .L414+32
 3182 109c 1A70     		strb	r2, [r3]
 610:..\main.c     ****                             symbols[1]=bufferBeagleRX[33];
 3183              		.loc 1 610 0
 3184 109e 07F5CA73 		add	r3, r7, #404
 3185 10a2 93F82120 		ldrb	r2, [r3, #33]	@ zero_extendqisi2
ARM GAS  C:\Users\RECEPC~1\AppData\Local\Temp\ccGwunar.s 			page 69


 3186 10a6 1B4B     		ldr	r3, .L414+32
 3187 10a8 5A70     		strb	r2, [r3, #1]
 611:..\main.c     ****                             for(x=0;x<12;x++){
 3188              		.loc 1 611 0
 3189 10aa 0023     		movs	r3, #0
 3190 10ac C7F8F435 		str	r3, [r7, #1524]
 3191 10b0 10E0     		b	.L171
 3192              	.L172:
 612:..\main.c     ****                                 ipAdress[x]=bufferBeagleRX[35+x];
 3193              		.loc 1 612 0 discriminator 3
 3194 10b2 D7F8F435 		ldr	r3, [r7, #1524]
 3195 10b6 2333     		adds	r3, r3, #35
 3196 10b8 07F5CA72 		add	r2, r7, #404
 3197 10bc D15C     		ldrb	r1, [r2, r3]	@ zero_extendqisi2
 3198 10be 164A     		ldr	r2, .L414+36
 3199 10c0 D7F8F435 		ldr	r3, [r7, #1524]
 3200 10c4 1344     		add	r3, r3, r2
 3201 10c6 0A46     		mov	r2, r1
 3202 10c8 1A70     		strb	r2, [r3]
 611:..\main.c     ****                             for(x=0;x<12;x++){
 3203              		.loc 1 611 0 discriminator 3
 3204 10ca D7F8F435 		ldr	r3, [r7, #1524]
 3205 10ce 0133     		adds	r3, r3, #1
 3206 10d0 C7F8F435 		str	r3, [r7, #1524]
 3207              	.L171:
 611:..\main.c     ****                             for(x=0;x<12;x++){
 3208              		.loc 1 611 0 is_stmt 0 discriminator 1
 3209 10d4 D7F8F435 		ldr	r3, [r7, #1524]
 3210 10d8 0B2B     		cmp	r3, #11
 3211 10da EAD9     		bls	.L172
 613:..\main.c     ****                             }
 614:..\main.c     ****                             w=47;
 3212              		.loc 1 614 0 is_stmt 1
 3213 10dc 2F23     		movs	r3, #47
 3214 10de C7F8E835 		str	r3, [r7, #1512]
 615:..\main.c     ****                             for(z=0;z<3;z++){
 3215              		.loc 1 615 0
 3216 10e2 0023     		movs	r3, #0
 3217 10e4 C7F8EC35 		str	r3, [r7, #1516]
 3218 10e8 4AE0     		b	.L173
 3219              	.L176:
 616:..\main.c     ****                                 for(x=1;x<=8;x++){
 3220              		.loc 1 616 0
 3221 10ea 0123     		movs	r3, #1
 3222 10ec C7F8F435 		str	r3, [r7, #1524]
 3223 10f0 2EE0     		b	.L174
 3224              	.L415:
 3225 10f2 00BF     		.align	2
 3226              	.L414:
 3227 10f4 00000000 		.word	side
 3228 10f8 00000000 		.word	decimalMoney
 3229 10fc 00000000 		.word	date
 3230 1100 00000000 		.word	time
 3231 1104 00000000 		.word	digits
 3232 1108 00000000 		.word	decimalVolume
 3233 110c 00000000 		.word	ppux10
 3234 1110 00000000 		.word	productNumber
ARM GAS  C:\Users\RECEPC~1\AppData\Local\Temp\ccGwunar.s 			page 70


 3235 1114 00000000 		.word	symbols
 3236 1118 00000000 		.word	ipAdress
 3237              	.L175:
 617:..\main.c     ****                                     presetFast[z][x]=bufferBeagleRX[w+x];
 3238              		.loc 1 617 0 discriminator 3
 3239 111c D7F8E825 		ldr	r2, [r7, #1512]
 3240 1120 D7F8F435 		ldr	r3, [r7, #1524]
 3241 1124 1344     		add	r3, r3, r2
 3242 1126 07F5CA72 		add	r2, r7, #404
 3243 112a D05C     		ldrb	r0, [r2, r3]	@ zero_extendqisi2
 3244 112c CE49     		ldr	r1, .L416
 3245 112e D7F8EC25 		ldr	r2, [r7, #1516]
 3246 1132 1346     		mov	r3, r2
 3247 1134 9B00     		lsls	r3, r3, #2
 3248 1136 1344     		add	r3, r3, r2
 3249 1138 5B00     		lsls	r3, r3, #1
 3250 113a D7F8F425 		ldr	r2, [r7, #1524]
 3251 113e 1344     		add	r3, r3, r2
 3252 1140 0B44     		add	r3, r3, r1
 3253 1142 0246     		mov	r2, r0
 3254 1144 1A70     		strb	r2, [r3]
 616:..\main.c     ****                                 for(x=1;x<=8;x++){
 3255              		.loc 1 616 0 discriminator 3
 3256 1146 D7F8F435 		ldr	r3, [r7, #1524]
 3257 114a 0133     		adds	r3, r3, #1
 3258 114c C7F8F435 		str	r3, [r7, #1524]
 3259              	.L174:
 616:..\main.c     ****                                 for(x=1;x<=8;x++){
 3260              		.loc 1 616 0 is_stmt 0 discriminator 1
 3261 1150 D7F8F435 		ldr	r3, [r7, #1524]
 3262 1154 082B     		cmp	r3, #8
 3263 1156 E1D9     		bls	.L175
 618:..\main.c     ****                                 }
 619:..\main.c     ****                                 presetFast[z][0]=8;
 3264              		.loc 1 619 0 is_stmt 1 discriminator 2
 3265 1158 C349     		ldr	r1, .L416
 3266 115a D7F8EC25 		ldr	r2, [r7, #1516]
 3267 115e 1346     		mov	r3, r2
 3268 1160 9B00     		lsls	r3, r3, #2
 3269 1162 1344     		add	r3, r3, r2
 3270 1164 5B00     		lsls	r3, r3, #1
 3271 1166 0B44     		add	r3, r3, r1
 3272 1168 0822     		movs	r2, #8
 3273 116a 1A70     		strb	r2, [r3]
 620:..\main.c     ****                                 w=w+9;
 3274              		.loc 1 620 0 discriminator 2
 3275 116c D7F8E835 		ldr	r3, [r7, #1512]
 3276 1170 0933     		adds	r3, r3, #9
 3277 1172 C7F8E835 		str	r3, [r7, #1512]
 615:..\main.c     ****                                 for(x=1;x<=8;x++){
 3278              		.loc 1 615 0 discriminator 2
 3279 1176 D7F8EC35 		ldr	r3, [r7, #1516]
 3280 117a 0133     		adds	r3, r3, #1
 3281 117c C7F8EC35 		str	r3, [r7, #1516]
 3282              	.L173:
 615:..\main.c     ****                                 for(x=1;x<=8;x++){
 3283              		.loc 1 615 0 is_stmt 0 discriminator 1
ARM GAS  C:\Users\RECEPC~1\AppData\Local\Temp\ccGwunar.s 			page 71


 3284 1180 D7F8EC35 		ldr	r3, [r7, #1516]
 3285 1184 022B     		cmp	r3, #2
 3286 1186 B0D9     		bls	.L176
 621:..\main.c     ****                             }
 622:..\main.c     ****                             screen[0]=(bufferBeagleRX[75]&0x01)+0x30;
 3287              		.loc 1 622 0 is_stmt 1
 3288 1188 07F5CA73 		add	r3, r7, #404
 3289 118c 93F84B30 		ldrb	r3, [r3, #75]	@ zero_extendqisi2
 3290 1190 03F00103 		and	r3, r3, #1
 3291 1194 DBB2     		uxtb	r3, r3
 3292 1196 3033     		adds	r3, r3, #48
 3293 1198 DAB2     		uxtb	r2, r3
 3294 119a B44B     		ldr	r3, .L416+4
 3295 119c 1A70     		strb	r2, [r3]
 623:..\main.c     ****                             screen[1]=(bufferBeagleRX[77]&0x01)+0x30;
 3296              		.loc 1 623 0
 3297 119e 07F5CA73 		add	r3, r7, #404
 3298 11a2 93F84D30 		ldrb	r3, [r3, #77]	@ zero_extendqisi2
 3299 11a6 03F00103 		and	r3, r3, #1
 3300 11aa DBB2     		uxtb	r3, r3
 3301 11ac 3033     		adds	r3, r3, #48
 3302 11ae DAB2     		uxtb	r2, r3
 3303 11b0 AE4B     		ldr	r3, .L416+4
 3304 11b2 5A70     		strb	r2, [r3, #1]
 624:..\main.c     ****                             write_settings();
 3305              		.loc 1 624 0
 3306 11b4 FFF7FEFF 		bl	write_settings
 625:..\main.c     ****                             for(z=0;z<3;z++){
 3307              		.loc 1 625 0
 3308 11b8 0023     		movs	r3, #0
 3309 11ba C7F8EC35 		str	r3, [r7, #1516]
 3310 11be 4BE0     		b	.L177
 3311              	.L180:
 626:..\main.c     ****                                 for(x=1;x<=digits;x++){
 3312              		.loc 1 626 0
 3313 11c0 0123     		movs	r3, #1
 3314 11c2 C7F8F435 		str	r3, [r7, #1524]
 3315 11c6 2DE0     		b	.L178
 3316              	.L179:
 627:..\main.c     ****                                     presetFast[z][x]=presetFast[z][x+(presetFast[z][0]-digits)];
 3317              		.loc 1 627 0 discriminator 3
 3318 11c8 A749     		ldr	r1, .L416
 3319 11ca D7F8EC25 		ldr	r2, [r7, #1516]
 3320 11ce 1346     		mov	r3, r2
 3321 11d0 9B00     		lsls	r3, r3, #2
 3322 11d2 1344     		add	r3, r3, r2
 3323 11d4 5B00     		lsls	r3, r3, #1
 3324 11d6 0B44     		add	r3, r3, r1
 3325 11d8 1B78     		ldrb	r3, [r3]	@ zero_extendqisi2
 3326 11da 1A46     		mov	r2, r3
 3327 11dc A44B     		ldr	r3, .L416+8
 3328 11de 1B78     		ldrb	r3, [r3]
 3329 11e0 DBB2     		uxtb	r3, r3
 3330 11e2 D31A     		subs	r3, r2, r3
 3331 11e4 1A46     		mov	r2, r3
 3332 11e6 D7F8F435 		ldr	r3, [r7, #1524]
 3333 11ea D118     		adds	r1, r2, r3
ARM GAS  C:\Users\RECEPC~1\AppData\Local\Temp\ccGwunar.s 			page 72


 3334 11ec 9E48     		ldr	r0, .L416
 3335 11ee D7F8EC25 		ldr	r2, [r7, #1516]
 3336 11f2 1346     		mov	r3, r2
 3337 11f4 9B00     		lsls	r3, r3, #2
 3338 11f6 1344     		add	r3, r3, r2
 3339 11f8 5B00     		lsls	r3, r3, #1
 3340 11fa 0B44     		add	r3, r3, r1
 3341 11fc 0344     		add	r3, r3, r0
 3342 11fe 1878     		ldrb	r0, [r3]	@ zero_extendqisi2
 3343 1200 9949     		ldr	r1, .L416
 3344 1202 D7F8EC25 		ldr	r2, [r7, #1516]
 3345 1206 1346     		mov	r3, r2
 3346 1208 9B00     		lsls	r3, r3, #2
 3347 120a 1344     		add	r3, r3, r2
 3348 120c 5B00     		lsls	r3, r3, #1
 3349 120e D7F8F425 		ldr	r2, [r7, #1524]
 3350 1212 1344     		add	r3, r3, r2
 3351 1214 0B44     		add	r3, r3, r1
 3352 1216 0246     		mov	r2, r0
 3353 1218 1A70     		strb	r2, [r3]
 626:..\main.c     ****                                 for(x=1;x<=digits;x++){
 3354              		.loc 1 626 0 discriminator 3
 3355 121a D7F8F435 		ldr	r3, [r7, #1524]
 3356 121e 0133     		adds	r3, r3, #1
 3357 1220 C7F8F435 		str	r3, [r7, #1524]
 3358              	.L178:
 626:..\main.c     ****                                 for(x=1;x<=digits;x++){
 3359              		.loc 1 626 0 is_stmt 0 discriminator 1
 3360 1224 924B     		ldr	r3, .L416+8
 3361 1226 1B78     		ldrb	r3, [r3]
 3362 1228 DBB2     		uxtb	r3, r3
 3363 122a 1A46     		mov	r2, r3
 3364 122c D7F8F435 		ldr	r3, [r7, #1524]
 3365 1230 9A42     		cmp	r2, r3
 3366 1232 C9D2     		bcs	.L179
 628:..\main.c     ****                                 }
 629:..\main.c     ****                                 presetFast[z][0]=digits;
 3367              		.loc 1 629 0 is_stmt 1 discriminator 2
 3368 1234 8E4B     		ldr	r3, .L416+8
 3369 1236 1B78     		ldrb	r3, [r3]
 3370 1238 D8B2     		uxtb	r0, r3
 3371 123a 8B49     		ldr	r1, .L416
 3372 123c D7F8EC25 		ldr	r2, [r7, #1516]
 3373 1240 1346     		mov	r3, r2
 3374 1242 9B00     		lsls	r3, r3, #2
 3375 1244 1344     		add	r3, r3, r2
 3376 1246 5B00     		lsls	r3, r3, #1
 3377 1248 0B44     		add	r3, r3, r1
 3378 124a 0246     		mov	r2, r0
 3379 124c 1A70     		strb	r2, [r3]
 625:..\main.c     ****                                 for(x=1;x<=digits;x++){
 3380              		.loc 1 625 0 discriminator 2
 3381 124e D7F8EC35 		ldr	r3, [r7, #1516]
 3382 1252 0133     		adds	r3, r3, #1
 3383 1254 C7F8EC35 		str	r3, [r7, #1516]
 3384              	.L177:
 625:..\main.c     ****                                 for(x=1;x<=digits;x++){
ARM GAS  C:\Users\RECEPC~1\AppData\Local\Temp\ccGwunar.s 			page 73


 3385              		.loc 1 625 0 is_stmt 0 discriminator 1
 3386 1258 D7F8EC35 		ldr	r3, [r7, #1516]
 3387 125c 022B     		cmp	r3, #2
 3388 125e AFD9     		bls	.L180
 630:..\main.c     ****                             }
 631:..\main.c     ****                             bufferBeagleTX[6]='1';
 3389              		.loc 1 631 0 is_stmt 1
 3390 1260 3B1D     		adds	r3, r7, #4
 3391 1262 3122     		movs	r2, #49
 3392 1264 9A71     		strb	r2, [r3, #6]
 632:..\main.c     ****                             sizeTX=6;
 3393              		.loc 1 632 0
 3394 1266 0623     		movs	r3, #6
 3395 1268 C7F8F835 		str	r3, [r7, #1528]
 633:..\main.c     ****                         break;    
 3396              		.loc 1 633 0
 3397 126c D6E2     		b	.L58
 3398              	.L68:
 634:..\main.c     ****                         
 635:..\main.c     ****                         case 0x49://PPUs Autorizados
 636:..\main.c     ****                             z=5;
 3399              		.loc 1 636 0
 3400 126e 0523     		movs	r3, #5
 3401 1270 C7F8EC35 		str	r3, [r7, #1516]
 637:..\main.c     ****                             for(w=0;w<4;w++){
 3402              		.loc 1 637 0
 3403 1274 0023     		movs	r3, #0
 3404 1276 C7F8E835 		str	r3, [r7, #1512]
 3405 127a 31E0     		b	.L181
 3406              	.L184:
 638:..\main.c     ****                                 for(x=1;x<=6;x++){
 3407              		.loc 1 638 0
 3408 127c 0123     		movs	r3, #1
 3409 127e C7F8F435 		str	r3, [r7, #1524]
 3410 1282 17E0     		b	.L182
 3411              	.L183:
 639:..\main.c     ****                                     side.a.ppuAuthorized[w][x]=bufferBeagleRX[x+z];
 3412              		.loc 1 639 0 discriminator 3
 3413 1284 D7F8F425 		ldr	r2, [r7, #1524]
 3414 1288 D7F8EC35 		ldr	r3, [r7, #1516]
 3415 128c 1344     		add	r3, r3, r2
 3416 128e 07F5CA72 		add	r2, r7, #404
 3417 1292 D15C     		ldrb	r1, [r2, r3]	@ zero_extendqisi2
 3418 1294 774A     		ldr	r2, .L416+12
 3419 1296 D7F8E835 		ldr	r3, [r7, #1512]
 3420 129a DB00     		lsls	r3, r3, #3
 3421 129c 1A44     		add	r2, r2, r3
 3422 129e D7F8F435 		ldr	r3, [r7, #1524]
 3423 12a2 1344     		add	r3, r3, r2
 3424 12a4 B033     		adds	r3, r3, #176
 3425 12a6 0A46     		mov	r2, r1
 3426 12a8 5A71     		strb	r2, [r3, #5]
 638:..\main.c     ****                                 for(x=1;x<=6;x++){
 3427              		.loc 1 638 0 discriminator 3
 3428 12aa D7F8F435 		ldr	r3, [r7, #1524]
 3429 12ae 0133     		adds	r3, r3, #1
 3430 12b0 C7F8F435 		str	r3, [r7, #1524]
ARM GAS  C:\Users\RECEPC~1\AppData\Local\Temp\ccGwunar.s 			page 74


 3431              	.L182:
 638:..\main.c     ****                                 for(x=1;x<=6;x++){
 3432              		.loc 1 638 0 is_stmt 0 discriminator 1
 3433 12b4 D7F8F435 		ldr	r3, [r7, #1524]
 3434 12b8 062B     		cmp	r3, #6
 3435 12ba E3D9     		bls	.L183
 640:..\main.c     ****                                 }
 641:..\main.c     ****                                 side.a.ppuAuthorized[w][0]=6;
 3436              		.loc 1 641 0 is_stmt 1 discriminator 2
 3437 12bc 6D4A     		ldr	r2, .L416+12
 3438 12be D7F8E835 		ldr	r3, [r7, #1512]
 3439 12c2 1633     		adds	r3, r3, #22
 3440 12c4 DB00     		lsls	r3, r3, #3
 3441 12c6 1344     		add	r3, r3, r2
 3442 12c8 0622     		movs	r2, #6
 3443 12ca 5A71     		strb	r2, [r3, #5]
 642:..\main.c     ****                                 z=z+7;
 3444              		.loc 1 642 0 discriminator 2
 3445 12cc D7F8EC35 		ldr	r3, [r7, #1516]
 3446 12d0 0733     		adds	r3, r3, #7
 3447 12d2 C7F8EC35 		str	r3, [r7, #1516]
 637:..\main.c     ****                                 for(x=1;x<=6;x++){
 3448              		.loc 1 637 0 discriminator 2
 3449 12d6 D7F8E835 		ldr	r3, [r7, #1512]
 3450 12da 0133     		adds	r3, r3, #1
 3451 12dc C7F8E835 		str	r3, [r7, #1512]
 3452              	.L181:
 637:..\main.c     ****                                 for(x=1;x<=6;x++){
 3453              		.loc 1 637 0 is_stmt 0 discriminator 1
 3454 12e0 D7F8E835 		ldr	r3, [r7, #1512]
 3455 12e4 032B     		cmp	r3, #3
 3456 12e6 C9D9     		bls	.L184
 643:..\main.c     ****                             }
 644:..\main.c     ****                             bufferLCD1.flagChangePPU=1;
 3457              		.loc 1 644 0 is_stmt 1
 3458 12e8 634B     		ldr	r3, .L416+16
 3459 12ea 0122     		movs	r2, #1
 3460 12ec 83F89422 		strb	r2, [r3, #660]
 645:..\main.c     ****                             write_ppus();
 3461              		.loc 1 645 0
 3462 12f0 FFF7FEFF 		bl	write_ppus
 646:..\main.c     ****                             bufferBeagleTX[6]='1';
 3463              		.loc 1 646 0
 3464 12f4 3B1D     		adds	r3, r7, #4
 3465 12f6 3122     		movs	r2, #49
 3466 12f8 9A71     		strb	r2, [r3, #6]
 647:..\main.c     ****                             sizeTX=6;
 3467              		.loc 1 647 0
 3468 12fa 0623     		movs	r3, #6
 3469 12fc C7F8F835 		str	r3, [r7, #1528]
 648:..\main.c     ****                         break;    
 3470              		.loc 1 648 0
 3471 1300 8CE2     		b	.L58
 3472              	.L69:
 649:..\main.c     ****                         
 650:..\main.c     ****                         case 0x4A://Nombre de Botones
 651:..\main.c     ****                             w=6;
ARM GAS  C:\Users\RECEPC~1\AppData\Local\Temp\ccGwunar.s 			page 75


 3473              		.loc 1 651 0
 3474 1302 0623     		movs	r3, #6
 3475 1304 C7F8E835 		str	r3, [r7, #1512]
 652:..\main.c     ****                             for(x=0;x<=113;x++){
 3476              		.loc 1 652 0
 3477 1308 0023     		movs	r3, #0
 3478 130a C7F8F435 		str	r3, [r7, #1524]
 3479 130e 2BE0     		b	.L185
 3480              	.L188:
 653:..\main.c     ****                                 for(z=0;z<8;z++){
 3481              		.loc 1 653 0
 3482 1310 0023     		movs	r3, #0
 3483 1312 C7F8EC35 		str	r3, [r7, #1516]
 3484 1316 19E0     		b	.L186
 3485              	.L187:
 654:..\main.c     ****                                     button[x][z]=bufferBeagleRX[w];
 3486              		.loc 1 654 0 discriminator 3
 3487 1318 07F5CA72 		add	r2, r7, #404
 3488 131c D7F8E835 		ldr	r3, [r7, #1512]
 3489 1320 1344     		add	r3, r3, r2
 3490 1322 1878     		ldrb	r0, [r3]	@ zero_extendqisi2
 3491 1324 5549     		ldr	r1, .L416+20
 3492 1326 D7F8F435 		ldr	r3, [r7, #1524]
 3493 132a DA00     		lsls	r2, r3, #3
 3494 132c D7F8EC35 		ldr	r3, [r7, #1516]
 3495 1330 1344     		add	r3, r3, r2
 3496 1332 0B44     		add	r3, r3, r1
 3497 1334 0246     		mov	r2, r0
 3498 1336 1A70     		strb	r2, [r3]
 655:..\main.c     ****                                     w++;
 3499              		.loc 1 655 0 discriminator 3
 3500 1338 D7F8E835 		ldr	r3, [r7, #1512]
 3501 133c 0133     		adds	r3, r3, #1
 3502 133e C7F8E835 		str	r3, [r7, #1512]
 653:..\main.c     ****                                 for(z=0;z<8;z++){
 3503              		.loc 1 653 0 discriminator 3
 3504 1342 D7F8EC35 		ldr	r3, [r7, #1516]
 3505 1346 0133     		adds	r3, r3, #1
 3506 1348 C7F8EC35 		str	r3, [r7, #1516]
 3507              	.L186:
 653:..\main.c     ****                                 for(z=0;z<8;z++){
 3508              		.loc 1 653 0 is_stmt 0 discriminator 1
 3509 134c D7F8EC35 		ldr	r3, [r7, #1516]
 3510 1350 072B     		cmp	r3, #7
 3511 1352 E1D9     		bls	.L187
 656:..\main.c     ****                                 }
 657:..\main.c     ****                                 w++;
 3512              		.loc 1 657 0 is_stmt 1 discriminator 2
 3513 1354 D7F8E835 		ldr	r3, [r7, #1512]
 3514 1358 0133     		adds	r3, r3, #1
 3515 135a C7F8E835 		str	r3, [r7, #1512]
 652:..\main.c     ****                                 for(z=0;z<8;z++){
 3516              		.loc 1 652 0 discriminator 2
 3517 135e D7F8F435 		ldr	r3, [r7, #1524]
 3518 1362 0133     		adds	r3, r3, #1
 3519 1364 C7F8F435 		str	r3, [r7, #1524]
 3520              	.L185:
ARM GAS  C:\Users\RECEPC~1\AppData\Local\Temp\ccGwunar.s 			page 76


 652:..\main.c     ****                                 for(z=0;z<8;z++){
 3521              		.loc 1 652 0 is_stmt 0 discriminator 1
 3522 1368 D7F8F435 		ldr	r3, [r7, #1524]
 3523 136c 712B     		cmp	r3, #113
 3524 136e CFD9     		bls	.L188
 658:..\main.c     ****                             }
 659:..\main.c     ****                             write_buttons();
 3525              		.loc 1 659 0 is_stmt 1
 3526 1370 FFF7FEFF 		bl	write_buttons
 660:..\main.c     **** 		                    CyWdtClear();
 3527              		.loc 1 660 0
 3528 1374 FFF7FEFF 		bl	CyWdtClear
 661:..\main.c     ****                             bufferBeagleTX[6]='1';
 3529              		.loc 1 661 0
 3530 1378 3B1D     		adds	r3, r7, #4
 3531 137a 3122     		movs	r2, #49
 3532 137c 9A71     		strb	r2, [r3, #6]
 662:..\main.c     ****                             sizeTX=6;
 3533              		.loc 1 662 0
 3534 137e 0623     		movs	r3, #6
 3535 1380 C7F8F835 		str	r3, [r7, #1528]
 663:..\main.c     ****                         break;    
 3536              		.loc 1 663 0
 3537 1384 4AE2     		b	.L58
 3538              	.L70:
 664:..\main.c     ****                         
 665:..\main.c     ****                         case 0x4B://Resetear MUX para programar
 666:..\main.c     ****                             if(bufferBeagleRX[6]=='1'){//Reset Modulo
 3539              		.loc 1 666 0
 3540 1386 07F5CA73 		add	r3, r7, #404
 3541 138a 9B79     		ldrb	r3, [r3, #6]	@ zero_extendqisi2
 3542 138c 312B     		cmp	r3, #49
 3543 138e 03D1     		bne	.L189
 667:..\main.c     ****                                 flagResetMux=1;
 3544              		.loc 1 667 0
 3545 1390 3B4B     		ldr	r3, .L416+24
 3546 1392 0122     		movs	r2, #1
 3547 1394 1A70     		strb	r2, [r3]
 3548 1396 02E0     		b	.L190
 3549              	.L189:
 668:..\main.c     ****                             }else{
 669:..\main.c     ****                                 flagResetMux=1;
 3550              		.loc 1 669 0
 3551 1398 394B     		ldr	r3, .L416+24
 3552 139a 0122     		movs	r2, #1
 3553 139c 1A70     		strb	r2, [r3]
 3554              	.L190:
 670:..\main.c     ****                             }
 671:..\main.c     ****                             bufferBeagleTX[6]='1';
 3555              		.loc 1 671 0
 3556 139e 3B1D     		adds	r3, r7, #4
 3557 13a0 3122     		movs	r2, #49
 3558 13a2 9A71     		strb	r2, [r3, #6]
 672:..\main.c     ****                             sizeTX=6;
 3559              		.loc 1 672 0
 3560 13a4 0623     		movs	r3, #6
 3561 13a6 C7F8F835 		str	r3, [r7, #1528]
ARM GAS  C:\Users\RECEPC~1\AppData\Local\Temp\ccGwunar.s 			page 77


 673:..\main.c     ****                         break;
 3562              		.loc 1 673 0
 3563 13aa 37E2     		b	.L58
 3564              	.L71:
 674:..\main.c     ****                             
 675:..\main.c     ****                         case 0x4C://Programar venta Autoservicio
 676:..\main.c     ****                             bufferLCD1.presetType[1]=bufferBeagleRX[6];
 3565              		.loc 1 676 0
 3566 13ac 07F5CA73 		add	r3, r7, #404
 3567 13b0 9A79     		ldrb	r2, [r3, #6]	@ zero_extendqisi2
 3568 13b2 314B     		ldr	r3, .L416+16
 3569 13b4 83F87D20 		strb	r2, [r3, #125]
 677:..\main.c     ****                             if(bufferLCD1.presetType[1]=='V'){
 3570              		.loc 1 677 0
 3571 13b8 2F4B     		ldr	r3, .L416+16
 3572 13ba 93F87D30 		ldrb	r3, [r3, #125]	@ zero_extendqisi2
 3573 13be 562B     		cmp	r3, #86
 3574 13c0 04D1     		bne	.L191
 678:..\main.c     ****                                 bufferLCD1.presetType[0]=1;
 3575              		.loc 1 678 0
 3576 13c2 2D4B     		ldr	r3, .L416+16
 3577 13c4 0122     		movs	r2, #1
 3578 13c6 83F87C20 		strb	r2, [r3, #124]
 3579 13ca 03E0     		b	.L192
 3580              	.L191:
 679:..\main.c     ****                             }else{
 680:..\main.c     ****                                 bufferLCD1.presetType[0]=2;
 3581              		.loc 1 680 0
 3582 13cc 2A4B     		ldr	r3, .L416+16
 3583 13ce 0222     		movs	r2, #2
 3584 13d0 83F87C20 		strb	r2, [r3, #124]
 3585              	.L192:
 681:..\main.c     ****                             }
 682:..\main.c     ****                             z=15;
 3586              		.loc 1 682 0
 3587 13d4 0F23     		movs	r3, #15
 3588 13d6 C7F8EC35 		str	r3, [r7, #1516]
 683:..\main.c     ****                             for(x=digits;x>0;x--){
 3589              		.loc 1 683 0
 3590 13da 254B     		ldr	r3, .L416+8
 3591 13dc 1B78     		ldrb	r3, [r3]
 3592 13de DBB2     		uxtb	r3, r3
 3593 13e0 C7F8F435 		str	r3, [r7, #1524]
 3594 13e4 23E0     		b	.L193
 3595              	.L194:
 684:..\main.c     ****                                 bufferLCD1.presetValue[0][x]=bufferBeagleRX[z];
 3596              		.loc 1 684 0 discriminator 3
 3597 13e6 07F5CA72 		add	r2, r7, #404
 3598 13ea D7F8EC35 		ldr	r3, [r7, #1516]
 3599 13ee 1344     		add	r3, r3, r2
 3600 13f0 1978     		ldrb	r1, [r3]	@ zero_extendqisi2
 3601 13f2 214A     		ldr	r2, .L416+16
 3602 13f4 D7F8F435 		ldr	r3, [r7, #1524]
 3603 13f8 1344     		add	r3, r3, r2
 3604 13fa 7833     		adds	r3, r3, #120
 3605 13fc 0A46     		mov	r2, r1
 3606 13fe 9A71     		strb	r2, [r3, #6]
ARM GAS  C:\Users\RECEPC~1\AppData\Local\Temp\ccGwunar.s 			page 78


 685:..\main.c     ****                                 bufferLCD1.presetValue[1][x]=bufferBeagleRX[z];
 3607              		.loc 1 685 0 discriminator 3
 3608 1400 07F5CA72 		add	r2, r7, #404
 3609 1404 D7F8EC35 		ldr	r3, [r7, #1516]
 3610 1408 1344     		add	r3, r3, r2
 3611 140a 1978     		ldrb	r1, [r3]	@ zero_extendqisi2
 3612 140c 1A4A     		ldr	r2, .L416+16
 3613 140e D7F8F435 		ldr	r3, [r7, #1524]
 3614 1412 1344     		add	r3, r3, r2
 3615 1414 8233     		adds	r3, r3, #130
 3616 1416 0A46     		mov	r2, r1
 3617 1418 9A71     		strb	r2, [r3, #6]
 686:..\main.c     ****                                 z--;
 3618              		.loc 1 686 0 discriminator 3
 3619 141a D7F8EC35 		ldr	r3, [r7, #1516]
 3620 141e 013B     		subs	r3, r3, #1
 3621 1420 C7F8EC35 		str	r3, [r7, #1516]
 683:..\main.c     ****                                 bufferLCD1.presetValue[0][x]=bufferBeagleRX[z];
 3622              		.loc 1 683 0 discriminator 3
 3623 1424 D7F8F435 		ldr	r3, [r7, #1524]
 3624 1428 013B     		subs	r3, r3, #1
 3625 142a C7F8F435 		str	r3, [r7, #1524]
 3626              	.L193:
 683:..\main.c     ****                                 bufferLCD1.presetValue[0][x]=bufferBeagleRX[z];
 3627              		.loc 1 683 0 is_stmt 0 discriminator 1
 3628 142e D7F8F435 		ldr	r3, [r7, #1524]
 3629 1432 002B     		cmp	r3, #0
 3630 1434 D7D1     		bne	.L194
 687:..\main.c     ****                             }
 688:..\main.c     ****                             bufferLCD1.presetValue[0][0]=digits;
 3631              		.loc 1 688 0 is_stmt 1
 3632 1436 0E4B     		ldr	r3, .L416+8
 3633 1438 1B78     		ldrb	r3, [r3]
 3634 143a DAB2     		uxtb	r2, r3
 3635 143c 0E4B     		ldr	r3, .L416+16
 3636 143e 83F87E20 		strb	r2, [r3, #126]
 689:..\main.c     ****                             bufferLCD1.presetValue[1][0]=digits;
 3637              		.loc 1 689 0
 3638 1442 0B4B     		ldr	r3, .L416+8
 3639 1444 1B78     		ldrb	r3, [r3]
 3640 1446 DAB2     		uxtb	r2, r3
 3641 1448 0B4B     		ldr	r3, .L416+16
 3642 144a 83F88820 		strb	r2, [r3, #136]
 690:..\main.c     ****                             bufferLCD1.productType=bufferBeagleRX[17]&0x07;
 3643              		.loc 1 690 0
 3644 144e 07F5CA73 		add	r3, r7, #404
 3645 1452 5B7C     		ldrb	r3, [r3, #17]	@ zero_extendqisi2
 3646 1454 03F00703 		and	r3, r3, #7
 3647 1458 DAB2     		uxtb	r2, r3
 3648 145a 074B     		ldr	r3, .L416+16
 3649 145c 83F89220 		strb	r2, [r3, #146]
 691:..\main.c     ****                             for(x=1;x<=6;x++){
 3650              		.loc 1 691 0
 3651 1460 0123     		movs	r3, #1
 3652 1462 C7F8F435 		str	r3, [r7, #1524]
 3653 1466 20E0     		b	.L195
 3654              	.L417:
ARM GAS  C:\Users\RECEPC~1\AppData\Local\Temp\ccGwunar.s 			page 79


 3655              		.align	2
 3656              	.L416:
 3657 1468 00000000 		.word	presetFast
 3658 146c 00000000 		.word	screen
 3659 1470 00000000 		.word	digits
 3660 1474 00000000 		.word	side
 3661 1478 00000000 		.word	bufferLCD1
 3662 147c 00000000 		.word	button
 3663 1480 00000000 		.word	flagResetMux
 3664              	.L196:
 692:..\main.c     ****                                 bufferLCD1.ppuQuota[x]=bufferBeagleRX[x+18];
 3665              		.loc 1 692 0 discriminator 3
 3666 1484 D7F8F435 		ldr	r3, [r7, #1524]
 3667 1488 1233     		adds	r3, r3, #18
 3668 148a 07F5CA72 		add	r2, r7, #404
 3669 148e D15C     		ldrb	r1, [r2, r3]	@ zero_extendqisi2
 3670 1490 D44A     		ldr	r2, .L418
 3671 1492 D7F8F435 		ldr	r3, [r7, #1524]
 3672 1496 1344     		add	r3, r3, r2
 3673 1498 03F5BC73 		add	r3, r3, #376
 3674 149c 0A46     		mov	r2, r1
 3675 149e 9A71     		strb	r2, [r3, #6]
 691:..\main.c     ****                             for(x=1;x<=6;x++){
 3676              		.loc 1 691 0 discriminator 3
 3677 14a0 D7F8F435 		ldr	r3, [r7, #1524]
 3678 14a4 0133     		adds	r3, r3, #1
 3679 14a6 C7F8F435 		str	r3, [r7, #1524]
 3680              	.L195:
 691:..\main.c     ****                             for(x=1;x<=6;x++){
 3681              		.loc 1 691 0 is_stmt 0 discriminator 1
 3682 14aa D7F8F435 		ldr	r3, [r7, #1524]
 3683 14ae 062B     		cmp	r3, #6
 3684 14b0 E8D9     		bls	.L196
 693:..\main.c     ****                             }
 694:..\main.c     ****                             bufferLCD1.ppuQuota[0]=6;
 3685              		.loc 1 694 0 is_stmt 1
 3686 14b2 CC4B     		ldr	r3, .L418
 3687 14b4 0622     		movs	r2, #6
 3688 14b6 83F87E21 		strb	r2, [r3, #382]
 695:..\main.c     ****                             isr_1_Stop(); 
 3689              		.loc 1 695 0
 3690 14ba FFF7FEFF 		bl	isr_1_Stop
 696:..\main.c     ****                             Waitable_1_Stop();
 3691              		.loc 1 696 0
 3692 14be FFF7FEFF 		bl	Waitable_1_Stop
 697:..\main.c     ****                             bufferLCD1.salePerform='1';
 3693              		.loc 1 697 0
 3694 14c2 C84B     		ldr	r3, .L418
 3695 14c4 3122     		movs	r2, #49
 3696 14c6 83F87B20 		strb	r2, [r3, #123]
 698:..\main.c     ****                             bufferLCD1.saleType='4';
 3697              		.loc 1 698 0
 3698 14ca C64B     		ldr	r3, .L418
 3699 14cc 3422     		movs	r2, #52
 3700 14ce 83F87A20 		strb	r2, [r3, #122]
 699:..\main.c     ****                             bufferLCD1.vehicleType=0;
 3701              		.loc 1 699 0
ARM GAS  C:\Users\RECEPC~1\AppData\Local\Temp\ccGwunar.s 			page 80


 3702 14d2 C44B     		ldr	r3, .L418
 3703 14d4 0022     		movs	r2, #0
 3704 14d6 83F87920 		strb	r2, [r3, #121]
 700:..\main.c     ****                             bufferLCD1.licenceSale[0]=0;
 3705              		.loc 1 700 0
 3706 14da C24B     		ldr	r3, .L418
 3707 14dc 0022     		movs	r2, #0
 3708 14de 83F80421 		strb	r2, [r3, #260]
 701:..\main.c     ****                             bufferLCD1.mileageSale[0]=0;
 3709              		.loc 1 701 0
 3710 14e2 C04B     		ldr	r3, .L418
 3711 14e4 0022     		movs	r2, #0
 3712 14e6 83F80F21 		strb	r2, [r3, #271]
 702:..\main.c     ****                             bufferLCD1.identySale[0]=0;
 3713              		.loc 1 702 0
 3714 14ea BE4B     		ldr	r3, .L418
 3715 14ec 0022     		movs	r2, #0
 3716 14ee 83F81A21 		strb	r2, [r3, #282]
 703:..\main.c     ****                             bufferLCD1.idType=0;
 3717              		.loc 1 703 0
 3718 14f2 BC4B     		ldr	r3, .L418
 3719 14f4 0022     		movs	r2, #0
 3720 14f6 1A70     		strb	r2, [r3]
 704:..\main.c     ****                             bufferLCD1.idSerial[0]=0;
 3721              		.loc 1 704 0
 3722 14f8 BA4B     		ldr	r3, .L418
 3723 14fa 0022     		movs	r2, #0
 3724 14fc 5A70     		strb	r2, [r3, #1]
 705:..\main.c     ****                             set_picture(1,43);
 3725              		.loc 1 705 0
 3726 14fe 0120     		movs	r0, #1
 3727 1500 2B21     		movs	r1, #43
 3728 1502 FFF7FEFF 		bl	set_picture
 706:..\main.c     ****                             write_button(1,'U');    //Suba la manija
 3729              		.loc 1 706 0
 3730 1506 0120     		movs	r0, #1
 3731 1508 5521     		movs	r1, #85
 3732 150a FFF7FEFF 		bl	write_button
 707:..\main.c     ****                             bufferLCD1.stateMux[1]=0x2B;//Espera de subir la manija en venta autose
 3733              		.loc 1 707 0
 3734 150e B54B     		ldr	r3, .L418
 3735 1510 2B22     		movs	r2, #43
 3736 1512 83F89420 		strb	r2, [r3, #148]
 708:..\main.c     ****                             flowLCD1=28; 
 3737              		.loc 1 708 0
 3738 1516 B44B     		ldr	r3, .L418+4
 3739 1518 1C22     		movs	r2, #28
 3740 151a 1A60     		str	r2, [r3]
 709:..\main.c     ****                             bufferBeagleTX[6]='1';
 3741              		.loc 1 709 0
 3742 151c 3B1D     		adds	r3, r7, #4
 3743 151e 3122     		movs	r2, #49
 3744 1520 9A71     		strb	r2, [r3, #6]
 710:..\main.c     ****                             sizeTX=6;
 3745              		.loc 1 710 0
 3746 1522 0623     		movs	r3, #6
 3747 1524 C7F8F835 		str	r3, [r7, #1528]
ARM GAS  C:\Users\RECEPC~1\AppData\Local\Temp\ccGwunar.s 			page 81


 711:..\main.c     ****                         break;
 3748              		.loc 1 711 0
 3749 1528 78E1     		b	.L58
 3750              	.L72:
 712:..\main.c     ****                         
 713:..\main.c     ****                         case 0x4D://Bloquear/Desploquear por corte
 714:..\main.c     ****                             if(bufferBeagleRX[6]=='1'){//Bloquear
 3751              		.loc 1 714 0
 3752 152a 07F5CA73 		add	r3, r7, #404
 3753 152e 9B79     		ldrb	r3, [r3, #6]	@ zero_extendqisi2
 3754 1530 312B     		cmp	r3, #49
 3755 1532 1BD1     		bne	.L197
 715:..\main.c     ****                                 bufferLCD1.stateMux[1]=0x38;
 3756              		.loc 1 715 0
 3757 1534 AB4B     		ldr	r3, .L418
 3758 1536 3822     		movs	r2, #56
 3759 1538 83F89420 		strb	r2, [r3, #148]
 716:..\main.c     ****                                 set_picture(1,65);
 3760              		.loc 1 716 0
 3761 153c 0120     		movs	r0, #1
 3762 153e 4121     		movs	r1, #65
 3763 1540 FFF7FEFF 		bl	set_picture
 717:..\main.c     ****                                 write_button(1,'K');//corte
 3764              		.loc 1 717 0
 3765 1544 0120     		movs	r0, #1
 3766 1546 4B21     		movs	r1, #75
 3767 1548 FFF7FEFF 		bl	write_button
 718:..\main.c     ****                                 isr_1_StartEx(timerAnimation1); 
 3768              		.loc 1 718 0
 3769 154c A748     		ldr	r0, .L418+8
 3770 154e FFF7FEFF 		bl	isr_1_StartEx
 719:..\main.c     ****                                 Waitable_1_Start();
 3771              		.loc 1 719 0
 3772 1552 FFF7FEFF 		bl	Waitable_1_Start
 720:..\main.c     ****                                 countAnimation1=0;
 3773              		.loc 1 720 0
 3774 1556 A649     		ldr	r1, .L418+12
 3775 1558 4FF00002 		mov	r2, #0
 3776 155c 4FF00003 		mov	r3, #0
 3777 1560 C1E90023 		strd	r2, [r1]
 721:..\main.c     ****                                 flowLCD1=44;
 3778              		.loc 1 721 0
 3779 1564 A04B     		ldr	r3, .L418+4
 3780 1566 2C22     		movs	r2, #44
 3781 1568 1A60     		str	r2, [r3]
 3782 156a 06E0     		b	.L198
 3783              	.L197:
 722:..\main.c     ****                             }else{//Desloquear
 723:..\main.c     ****                                 bufferLCD1.stateMux[1]=0x16;
 3784              		.loc 1 723 0
 3785 156c 9D4B     		ldr	r3, .L418
 3786 156e 1622     		movs	r2, #22
 3787 1570 83F89420 		strb	r2, [r3, #148]
 724:..\main.c     ****                                 flowLCD1=1;
 3788              		.loc 1 724 0
 3789 1574 9C4B     		ldr	r3, .L418+4
 3790 1576 0122     		movs	r2, #1
ARM GAS  C:\Users\RECEPC~1\AppData\Local\Temp\ccGwunar.s 			page 82


 3791 1578 1A60     		str	r2, [r3]
 3792              	.L198:
 725:..\main.c     ****                             }
 726:..\main.c     ****                             bufferBeagleTX[6]='1';
 3793              		.loc 1 726 0
 3794 157a 3B1D     		adds	r3, r7, #4
 3795 157c 3122     		movs	r2, #49
 3796 157e 9A71     		strb	r2, [r3, #6]
 727:..\main.c     ****                             sizeTX=6;
 3797              		.loc 1 727 0
 3798 1580 0623     		movs	r3, #6
 3799 1582 C7F8F835 		str	r3, [r7, #1528]
 728:..\main.c     ****                         break;
 3800              		.loc 1 728 0
 3801 1586 49E1     		b	.L58
 3802              	.L73:
 729:..\main.c     ****                             
 730:..\main.c     ****                         case 0x4E://No Ejecutar
 731:..\main.c     ****                             bufferBeagleTX[6]='1';
 3803              		.loc 1 731 0
 3804 1588 3B1D     		adds	r3, r7, #4
 3805 158a 3122     		movs	r2, #49
 3806 158c 9A71     		strb	r2, [r3, #6]
 732:..\main.c     ****                             sizeTX=6;
 3807              		.loc 1 732 0
 3808 158e 0623     		movs	r3, #6
 3809 1590 C7F8F835 		str	r3, [r7, #1528]
 733:..\main.c     ****                         break;
 3810              		.loc 1 733 0
 3811 1594 42E1     		b	.L58
 3812              	.L74:
 734:..\main.c     ****                         
 735:..\main.c     ****                         case 0x4F://Datos Vendedor
 736:..\main.c     ****                             typeIdSeller=bufferBeagleRX[6];
 3813              		.loc 1 736 0
 3814 1596 07F5CA73 		add	r3, r7, #404
 3815 159a 9A79     		ldrb	r2, [r3, #6]	@ zero_extendqisi2
 3816 159c 954B     		ldr	r3, .L418+16
 3817 159e 1A70     		strb	r2, [r3]
 737:..\main.c     ****                             idSeller[0]=20;
 3818              		.loc 1 737 0
 3819 15a0 954B     		ldr	r3, .L418+20
 3820 15a2 1422     		movs	r2, #20
 3821 15a4 1A70     		strb	r2, [r3]
 738:..\main.c     ****                             for(x=1;x<=20;x++){
 3822              		.loc 1 738 0
 3823 15a6 0123     		movs	r3, #1
 3824 15a8 C7F8F435 		str	r3, [r7, #1524]
 3825 15ac 10E0     		b	.L199
 3826              	.L200:
 739:..\main.c     ****                                 idSeller[x]=bufferBeagleRX[x+7];
 3827              		.loc 1 739 0 discriminator 3
 3828 15ae D7F8F435 		ldr	r3, [r7, #1524]
 3829 15b2 0733     		adds	r3, r3, #7
 3830 15b4 07F5CA72 		add	r2, r7, #404
 3831 15b8 D15C     		ldrb	r1, [r2, r3]	@ zero_extendqisi2
 3832 15ba 8F4A     		ldr	r2, .L418+20
ARM GAS  C:\Users\RECEPC~1\AppData\Local\Temp\ccGwunar.s 			page 83


 3833 15bc D7F8F435 		ldr	r3, [r7, #1524]
 3834 15c0 1344     		add	r3, r3, r2
 3835 15c2 0A46     		mov	r2, r1
 3836 15c4 1A70     		strb	r2, [r3]
 738:..\main.c     ****                             for(x=1;x<=20;x++){
 3837              		.loc 1 738 0 discriminator 3
 3838 15c6 D7F8F435 		ldr	r3, [r7, #1524]
 3839 15ca 0133     		adds	r3, r3, #1
 3840 15cc C7F8F435 		str	r3, [r7, #1524]
 3841              	.L199:
 738:..\main.c     ****                             for(x=1;x<=20;x++){
 3842              		.loc 1 738 0 is_stmt 0 discriminator 1
 3843 15d0 D7F8F435 		ldr	r3, [r7, #1524]
 3844 15d4 142B     		cmp	r3, #20
 3845 15d6 EAD9     		bls	.L200
 740:..\main.c     ****                             }
 741:..\main.c     ****                             passwordSeller[0]=4;
 3846              		.loc 1 741 0 is_stmt 1
 3847 15d8 884B     		ldr	r3, .L418+24
 3848 15da 0422     		movs	r2, #4
 3849 15dc 1A70     		strb	r2, [r3]
 742:..\main.c     ****                             for(x=1;x<=4;x++){
 3850              		.loc 1 742 0
 3851 15de 0123     		movs	r3, #1
 3852 15e0 C7F8F435 		str	r3, [r7, #1524]
 3853 15e4 10E0     		b	.L201
 3854              	.L202:
 743:..\main.c     ****                                 passwordSeller[x]=bufferBeagleRX[x+28];
 3855              		.loc 1 743 0 discriminator 3
 3856 15e6 D7F8F435 		ldr	r3, [r7, #1524]
 3857 15ea 1C33     		adds	r3, r3, #28
 3858 15ec 07F5CA72 		add	r2, r7, #404
 3859 15f0 D15C     		ldrb	r1, [r2, r3]	@ zero_extendqisi2
 3860 15f2 824A     		ldr	r2, .L418+24
 3861 15f4 D7F8F435 		ldr	r3, [r7, #1524]
 3862 15f8 1344     		add	r3, r3, r2
 3863 15fa 0A46     		mov	r2, r1
 3864 15fc 1A70     		strb	r2, [r3]
 742:..\main.c     ****                             for(x=1;x<=4;x++){
 3865              		.loc 1 742 0 discriminator 3
 3866 15fe D7F8F435 		ldr	r3, [r7, #1524]
 3867 1602 0133     		adds	r3, r3, #1
 3868 1604 C7F8F435 		str	r3, [r7, #1524]
 3869              	.L201:
 742:..\main.c     ****                             for(x=1;x<=4;x++){
 3870              		.loc 1 742 0 is_stmt 0 discriminator 1
 3871 1608 D7F8F435 		ldr	r3, [r7, #1524]
 3872 160c 042B     		cmp	r3, #4
 3873 160e EAD9     		bls	.L202
 744:..\main.c     ****                             }
 745:..\main.c     ****                             write_settings();
 3874              		.loc 1 745 0 is_stmt 1
 3875 1610 FFF7FEFF 		bl	write_settings
 746:..\main.c     ****                             bufferBeagleTX[6]='1';
 3876              		.loc 1 746 0
 3877 1614 3B1D     		adds	r3, r7, #4
 3878 1616 3122     		movs	r2, #49
ARM GAS  C:\Users\RECEPC~1\AppData\Local\Temp\ccGwunar.s 			page 84


 3879 1618 9A71     		strb	r2, [r3, #6]
 747:..\main.c     ****                             sizeTX=6;
 3880              		.loc 1 747 0
 3881 161a 0623     		movs	r3, #6
 3882 161c C7F8F835 		str	r3, [r7, #1528]
 748:..\main.c     ****                         break;
 3883              		.loc 1 748 0
 3884 1620 FCE0     		b	.L58
 3885              	.L75:
 749:..\main.c     ****                             
 750:..\main.c     ****                         case 0x50://Estado de comunicacion NSX
 751:..\main.c     ****                             if(bufferBeagleRX[6]=='1'){//En comunicacion
 3886              		.loc 1 751 0
 3887 1622 07F5CA73 		add	r3, r7, #404
 3888 1626 9B79     		ldrb	r3, [r3, #6]	@ zero_extendqisi2
 3889 1628 312B     		cmp	r3, #49
 3890 162a 03D1     		bne	.L203
 752:..\main.c     ****                                 stateBeagleSoft=1;
 3891              		.loc 1 752 0
 3892 162c 744B     		ldr	r3, .L418+28
 3893 162e 0122     		movs	r2, #1
 3894 1630 1A70     		strb	r2, [r3]
 3895 1632 02E0     		b	.L204
 3896              	.L203:
 753:..\main.c     ****                             }else{//Sin comunicacion
 754:..\main.c     ****                                 stateBeagleSoft=0;
 3897              		.loc 1 754 0
 3898 1634 724B     		ldr	r3, .L418+28
 3899 1636 0022     		movs	r2, #0
 3900 1638 1A70     		strb	r2, [r3]
 3901              	.L204:
 755:..\main.c     ****                             }
 756:..\main.c     ****                             bufferBeagleTX[6]='1';
 3902              		.loc 1 756 0
 3903 163a 3B1D     		adds	r3, r7, #4
 3904 163c 3122     		movs	r2, #49
 3905 163e 9A71     		strb	r2, [r3, #6]
 757:..\main.c     ****                             sizeTX=6;
 3906              		.loc 1 757 0
 3907 1640 0623     		movs	r3, #6
 3908 1642 C7F8F835 		str	r3, [r7, #1528]
 758:..\main.c     ****                         break;
 3909              		.loc 1 758 0
 3910 1646 E9E0     		b	.L58
 3911              	.L76:
 759:..\main.c     ****                             
 760:..\main.c     ****                         case 0x59://Reset Estado
 761:..\main.c     ****                             switch(bufferLCD1.stateMux[1]){
 3912              		.loc 1 761 0
 3913 1648 664B     		ldr	r3, .L418
 3914 164a 93F89430 		ldrb	r3, [r3, #148]	@ zero_extendqisi2
 3915 164e 193B     		subs	r3, r3, #25
 3916 1650 282B     		cmp	r3, #40
 3917 1652 00F2D780 		bhi	.L205
 3918 1656 01A2     		adr	r2, .L207
 3919 1658 52F823F0 		ldr	pc, [r2, r3, lsl #2]
 3920              		.p2align 2
ARM GAS  C:\Users\RECEPC~1\AppData\Local\Temp\ccGwunar.s 			page 85


 3921              	.L207:
 3922 165c 01170000 		.word	.L206+1
 3923 1660 17170000 		.word	.L208+1
 3924 1664 05180000 		.word	.L205+1
 3925 1668 05180000 		.word	.L205+1
 3926 166c 05180000 		.word	.L205+1
 3927 1670 05180000 		.word	.L205+1
 3928 1674 05180000 		.word	.L205+1
 3929 1678 05180000 		.word	.L205+1
 3930 167c 2D170000 		.word	.L209+1
 3931 1680 05180000 		.word	.L205+1
 3932 1684 05180000 		.word	.L205+1
 3933 1688 43170000 		.word	.L210+1
 3934 168c 05180000 		.word	.L205+1
 3935 1690 59170000 		.word	.L211+1
 3936 1694 05180000 		.word	.L205+1
 3937 1698 05180000 		.word	.L205+1
 3938 169c 6F170000 		.word	.L212+1
 3939 16a0 05180000 		.word	.L205+1
 3940 16a4 05180000 		.word	.L205+1
 3941 16a8 05180000 		.word	.L205+1
 3942 16ac 05180000 		.word	.L205+1
 3943 16b0 05180000 		.word	.L205+1
 3944 16b4 05180000 		.word	.L205+1
 3945 16b8 05180000 		.word	.L205+1
 3946 16bc 85170000 		.word	.L213+1
 3947 16c0 05180000 		.word	.L205+1
 3948 16c4 9B170000 		.word	.L214+1
 3949 16c8 05180000 		.word	.L205+1
 3950 16cc B9170000 		.word	.L215+1
 3951 16d0 05180000 		.word	.L205+1
 3952 16d4 05180000 		.word	.L205+1
 3953 16d8 05180000 		.word	.L205+1
 3954 16dc 05180000 		.word	.L205+1
 3955 16e0 05180000 		.word	.L205+1
 3956 16e4 05180000 		.word	.L205+1
 3957 16e8 05180000 		.word	.L205+1
 3958 16ec 05180000 		.word	.L205+1
 3959 16f0 05180000 		.word	.L205+1
 3960 16f4 05180000 		.word	.L205+1
 3961 16f8 05180000 		.word	.L205+1
 3962 16fc CF170000 		.word	.L216+1
 3963              		.p2align 1
 3964              	.L206:
 762:..\main.c     ****                                 case 0x19://Surtiendo
 763:..\main.c     ****                                     bufferLCD1.flagLiftHandle=1;
 3965              		.loc 1 763 0
 3966 1700 384B     		ldr	r3, .L418
 3967 1702 0122     		movs	r2, #1
 3968 1704 83F82721 		strb	r2, [r3, #295]
 764:..\main.c     ****                                     bufferBeagleTX[6]='1';
 3969              		.loc 1 764 0
 3970 1708 3B1D     		adds	r3, r7, #4
 3971 170a 3122     		movs	r2, #49
 3972 170c 9A71     		strb	r2, [r3, #6]
 765:..\main.c     ****                                     sizeTX=6;
 3973              		.loc 1 765 0
ARM GAS  C:\Users\RECEPC~1\AppData\Local\Temp\ccGwunar.s 			page 86


 3974 170e 0623     		movs	r3, #6
 3975 1710 C7F8F835 		str	r3, [r7, #1528]
 766:..\main.c     ****                                 break;
 3976              		.loc 1 766 0
 3977 1714 81E0     		b	.L217
 3978              	.L208:
 767:..\main.c     ****                                 
 768:..\main.c     ****                                 case 0x1A://Fin Venta Combustible
 769:..\main.c     ****                                     bufferLCD1.stateMux[1]=0x16;
 3979              		.loc 1 769 0
 3980 1716 334B     		ldr	r3, .L418
 3981 1718 1622     		movs	r2, #22
 3982 171a 83F89420 		strb	r2, [r3, #148]
 770:..\main.c     ****                                     bufferBeagleTX[6]='1';
 3983              		.loc 1 770 0
 3984 171e 3B1D     		adds	r3, r7, #4
 3985 1720 3122     		movs	r2, #49
 3986 1722 9A71     		strb	r2, [r3, #6]
 771:..\main.c     ****                                     sizeTX=6;
 3987              		.loc 1 771 0
 3988 1724 0623     		movs	r3, #6
 3989 1726 C7F8F835 		str	r3, [r7, #1528]
 772:..\main.c     ****                                 break;
 3990              		.loc 1 772 0
 3991 172a 76E0     		b	.L217
 3992              	.L209:
 773:..\main.c     ****                                 
 774:..\main.c     ****                                 case 0x21://Peticion Venta Seleccionada Forma de Pago
 775:..\main.c     ****                                     bufferLCD1.stateMux[1]=0x22;
 3993              		.loc 1 775 0
 3994 172c 2D4B     		ldr	r3, .L418
 3995 172e 2222     		movs	r2, #34
 3996 1730 83F89420 		strb	r2, [r3, #148]
 776:..\main.c     ****                                     bufferBeagleTX[6]='1';
 3997              		.loc 1 776 0
 3998 1734 3B1D     		adds	r3, r7, #4
 3999 1736 3122     		movs	r2, #49
 4000 1738 9A71     		strb	r2, [r3, #6]
 777:..\main.c     ****                                     sizeTX=6;
 4001              		.loc 1 777 0
 4002 173a 0623     		movs	r3, #6
 4003 173c C7F8F835 		str	r3, [r7, #1528]
 778:..\main.c     ****                                 break;
 4004              		.loc 1 778 0
 4005 1740 6BE0     		b	.L217
 4006              	.L210:
 779:..\main.c     ****                                 
 780:..\main.c     ****                                 case 0x24://Fin Forma de Pago
 781:..\main.c     ****                                     bufferLCD1.stateMux[1]=0x25;
 4007              		.loc 1 781 0
 4008 1742 284B     		ldr	r3, .L418
 4009 1744 2522     		movs	r2, #37
 4010 1746 83F89420 		strb	r2, [r3, #148]
 782:..\main.c     ****                                     bufferBeagleTX[6]='1';
 4011              		.loc 1 782 0
 4012 174a 3B1D     		adds	r3, r7, #4
 4013 174c 3122     		movs	r2, #49
ARM GAS  C:\Users\RECEPC~1\AppData\Local\Temp\ccGwunar.s 			page 87


 4014 174e 9A71     		strb	r2, [r3, #6]
 783:..\main.c     ****                                     sizeTX=6;
 4015              		.loc 1 783 0
 4016 1750 0623     		movs	r3, #6
 4017 1752 C7F8F835 		str	r3, [r7, #1528]
 784:..\main.c     ****                                 break;
 4018              		.loc 1 784 0
 4019 1756 60E0     		b	.L217
 4020              	.L211:
 785:..\main.c     ****                                  
 786:..\main.c     ****                                 case 0x26://Peticion Identificacion usuario credito
 787:..\main.c     ****                                     bufferLCD1.stateMux[1]=0x27;
 4021              		.loc 1 787 0
 4022 1758 224B     		ldr	r3, .L418
 4023 175a 2722     		movs	r2, #39
 4024 175c 83F89420 		strb	r2, [r3, #148]
 788:..\main.c     ****                                     bufferBeagleTX[6]='1';
 4025              		.loc 1 788 0
 4026 1760 3B1D     		adds	r3, r7, #4
 4027 1762 3122     		movs	r2, #49
 4028 1764 9A71     		strb	r2, [r3, #6]
 789:..\main.c     ****                                     sizeTX=6;
 4029              		.loc 1 789 0
 4030 1766 0623     		movs	r3, #6
 4031 1768 C7F8F835 		str	r3, [r7, #1528]
 790:..\main.c     ****                                 break; 
 4032              		.loc 1 790 0
 4033 176c 55E0     		b	.L217
 4034              	.L212:
 791:..\main.c     ****                                     
 792:..\main.c     ****                                 case 0x29://Peticio Calibracion
 793:..\main.c     ****                                     bufferLCD1.stateMux[1]=0x2A;
 4035              		.loc 1 793 0
 4036 176e 1D4B     		ldr	r3, .L418
 4037 1770 2A22     		movs	r2, #42
 4038 1772 83F89420 		strb	r2, [r3, #148]
 794:..\main.c     ****                                     bufferBeagleTX[6]='1';
 4039              		.loc 1 794 0
 4040 1776 3B1D     		adds	r3, r7, #4
 4041 1778 3122     		movs	r2, #49
 4042 177a 9A71     		strb	r2, [r3, #6]
 795:..\main.c     ****                                     sizeTX=6;
 4043              		.loc 1 795 0
 4044 177c 0623     		movs	r3, #6
 4045 177e C7F8F835 		str	r3, [r7, #1528]
 796:..\main.c     ****                                 break;
 4046              		.loc 1 796 0
 4047 1782 4AE0     		b	.L217
 4048              	.L213:
 797:..\main.c     ****                                     
 798:..\main.c     ****                                 case 0x31://Peticion Identificacion producto canasta
 799:..\main.c     ****                                     bufferLCD1.stateMux[1]=0x32;
 4049              		.loc 1 799 0
 4050 1784 174B     		ldr	r3, .L418
 4051 1786 3222     		movs	r2, #50
 4052 1788 83F89420 		strb	r2, [r3, #148]
 800:..\main.c     ****                                     bufferBeagleTX[6]='1';
ARM GAS  C:\Users\RECEPC~1\AppData\Local\Temp\ccGwunar.s 			page 88


 4053              		.loc 1 800 0
 4054 178c 3B1D     		adds	r3, r7, #4
 4055 178e 3122     		movs	r2, #49
 4056 1790 9A71     		strb	r2, [r3, #6]
 801:..\main.c     ****                                     sizeTX=6;
 4057              		.loc 1 801 0
 4058 1792 0623     		movs	r3, #6
 4059 1794 C7F8F835 		str	r3, [r7, #1528]
 802:..\main.c     ****                                 break;
 4060              		.loc 1 802 0
 4061 1798 3FE0     		b	.L217
 4062              	.L214:
 803:..\main.c     ****                                     
 804:..\main.c     ****                                 case 0x33://Fin Venta Canasta
 805:..\main.c     ****                                     bufferLCD1.stateMux[0]=0;
 4063              		.loc 1 805 0
 4064 179a 124B     		ldr	r3, .L418
 4065 179c 0022     		movs	r2, #0
 4066 179e 83F89320 		strb	r2, [r3, #147]
 806:..\main.c     ****                                     bufferLCD1.stateMux[1]=0x16;
 4067              		.loc 1 806 0
 4068 17a2 104B     		ldr	r3, .L418
 4069 17a4 1622     		movs	r2, #22
 4070 17a6 83F89420 		strb	r2, [r3, #148]
 807:..\main.c     ****                                     bufferBeagleTX[6]='1';
 4071              		.loc 1 807 0
 4072 17aa 3B1D     		adds	r3, r7, #4
 4073 17ac 3122     		movs	r2, #49
 4074 17ae 9A71     		strb	r2, [r3, #6]
 808:..\main.c     ****                                     sizeTX=6;
 4075              		.loc 1 808 0
 4076 17b0 0623     		movs	r3, #6
 4077 17b2 C7F8F835 		str	r3, [r7, #1528]
 809:..\main.c     ****                                 break;  
 4078              		.loc 1 809 0
 4079 17b6 30E0     		b	.L217
 4080              	.L215:
 810:..\main.c     ****                                 
 811:..\main.c     ****                                 case 0x35://Peticion Consignacion
 812:..\main.c     ****                                     bufferLCD1.stateMux[1]=0x36;
 4081              		.loc 1 812 0
 4082 17b8 0A4B     		ldr	r3, .L418
 4083 17ba 3622     		movs	r2, #54
 4084 17bc 83F89420 		strb	r2, [r3, #148]
 813:..\main.c     ****                                     bufferBeagleTX[6]='1';
 4085              		.loc 1 813 0
 4086 17c0 3B1D     		adds	r3, r7, #4
 4087 17c2 3122     		movs	r2, #49
 4088 17c4 9A71     		strb	r2, [r3, #6]
 814:..\main.c     ****                                     sizeTX=6;
 4089              		.loc 1 814 0
 4090 17c6 0623     		movs	r3, #6
 4091 17c8 C7F8F835 		str	r3, [r7, #1528]
 815:..\main.c     ****                                 break;    
 4092              		.loc 1 815 0
 4093 17cc 25E0     		b	.L217
 4094              	.L216:
ARM GAS  C:\Users\RECEPC~1\AppData\Local\Temp\ccGwunar.s 			page 89


 816:..\main.c     ****                                 
 817:..\main.c     ****                                 case 0x41://Peticion Turno
 818:..\main.c     ****                                     bufferLCD1.stateMux[1]=0x42;
 4095              		.loc 1 818 0
 4096 17ce 054B     		ldr	r3, .L418
 4097 17d0 4222     		movs	r2, #66
 4098 17d2 83F89420 		strb	r2, [r3, #148]
 819:..\main.c     ****                                     bufferBeagleTX[6]='1';
 4099              		.loc 1 819 0
 4100 17d6 3B1D     		adds	r3, r7, #4
 4101 17d8 3122     		movs	r2, #49
 4102 17da 9A71     		strb	r2, [r3, #6]
 820:..\main.c     ****                                     sizeTX=6;
 4103              		.loc 1 820 0
 4104 17dc 0623     		movs	r3, #6
 4105 17de C7F8F835 		str	r3, [r7, #1528]
 821:..\main.c     ****                                 break;
 4106              		.loc 1 821 0
 4107 17e2 1AE0     		b	.L217
 4108              	.L419:
 4109              		.align	2
 4110              	.L418:
 4111 17e4 00000000 		.word	bufferLCD1
 4112 17e8 00000000 		.word	flowLCD1
 4113 17ec 00000000 		.word	timerAnimation1
 4114 17f0 00000000 		.word	countAnimation1
 4115 17f4 00000000 		.word	typeIdSeller
 4116 17f8 00000000 		.word	idSeller
 4117 17fc 00000000 		.word	passwordSeller
 4118 1800 00000000 		.word	stateBeagleSoft
 4119              	.L205:
 822:..\main.c     ****                                     
 823:..\main.c     ****                                 default:
 824:..\main.c     ****                                     bufferLCD1.stateMux[1]=0x16;
 4120              		.loc 1 824 0
 4121 1804 DD4B     		ldr	r3, .L420
 4122 1806 1622     		movs	r2, #22
 4123 1808 83F89420 		strb	r2, [r3, #148]
 825:..\main.c     ****                                     bufferBeagleTX[6]='1';
 4124              		.loc 1 825 0
 4125 180c 3B1D     		adds	r3, r7, #4
 4126 180e 3122     		movs	r2, #49
 4127 1810 9A71     		strb	r2, [r3, #6]
 826:..\main.c     ****                                     sizeTX=6;
 4128              		.loc 1 826 0
 4129 1812 0623     		movs	r3, #6
 4130 1814 C7F8F835 		str	r3, [r7, #1528]
 827:..\main.c     ****                                 break;
 4131              		.loc 1 827 0
 4132 1818 00BF     		nop
 4133              	.L217:
 828:..\main.c     ****                             }
 829:..\main.c     ****                         break;
 4134              		.loc 1 829 0
 4135 181a 00BF     		nop
 4136              	.L58:
 830:..\main.c     ****                     }
ARM GAS  C:\Users\RECEPC~1\AppData\Local\Temp\ccGwunar.s 			page 90


 831:..\main.c     **** 		            CyWdtClear();
 4137              		.loc 1 831 0
 4138 181c FFF7FEFF 		bl	CyWdtClear
 832:..\main.c     ****                     for(x=0;x<=sizeTX;x++){
 4139              		.loc 1 832 0
 4140 1820 0023     		movs	r3, #0
 4141 1822 C7F8F435 		str	r3, [r7, #1524]
 4142 1826 0CE0     		b	.L218
 4143              	.L219:
 833:..\main.c     ****                         Beagle_PutChar(bufferBeagleTX[x]);
 4144              		.loc 1 833 0 discriminator 3
 4145 1828 3A1D     		adds	r2, r7, #4
 4146 182a D7F8F435 		ldr	r3, [r7, #1524]
 4147 182e 1344     		add	r3, r3, r2
 4148 1830 1B78     		ldrb	r3, [r3]	@ zero_extendqisi2
 4149 1832 1846     		mov	r0, r3
 4150 1834 FFF7FEFF 		bl	Beagle_PutChar
 832:..\main.c     ****                     for(x=0;x<=sizeTX;x++){
 4151              		.loc 1 832 0 discriminator 3
 4152 1838 D7F8F435 		ldr	r3, [r7, #1524]
 4153 183c 0133     		adds	r3, r3, #1
 4154 183e C7F8F435 		str	r3, [r7, #1524]
 4155              	.L218:
 832:..\main.c     ****                     for(x=0;x<=sizeTX;x++){
 4156              		.loc 1 832 0 is_stmt 0 discriminator 1
 4157 1842 D7F8F425 		ldr	r2, [r7, #1524]
 4158 1846 D7F8F835 		ldr	r3, [r7, #1528]
 4159 184a 9A42     		cmp	r2, r3
 4160 184c ECD9     		bls	.L219
 834:..\main.c     ****                     }
 835:..\main.c     ****                     Beagle_PutChar(';');
 4161              		.loc 1 835 0 is_stmt 1
 4162 184e 3B20     		movs	r0, #59
 4163 1850 FFF7FEFF 		bl	Beagle_PutChar
 836:..\main.c     ****                     Beagle_PutChar('&');
 4164              		.loc 1 836 0
 4165 1854 2620     		movs	r0, #38
 4166 1856 FFF7FEFF 		bl	Beagle_PutChar
 4167 185a 17E0     		b	.L220
 4168              	.L57:
 837:..\main.c     ****                 }else{
 838:..\main.c     ****                     bufferBeagleTX[6]='0';
 4169              		.loc 1 838 0
 4170 185c 3B1D     		adds	r3, r7, #4
 4171 185e 3022     		movs	r2, #48
 4172 1860 9A71     		strb	r2, [r3, #6]
 839:..\main.c     ****                     for(x=0;x<=8;x++){
 4173              		.loc 1 839 0
 4174 1862 0023     		movs	r3, #0
 4175 1864 C7F8F435 		str	r3, [r7, #1524]
 4176 1868 0CE0     		b	.L221
 4177              	.L222:
 840:..\main.c     ****                         Beagle_PutChar(bufferBeagleTX[x]);
 4178              		.loc 1 840 0 discriminator 3
 4179 186a 3A1D     		adds	r2, r7, #4
 4180 186c D7F8F435 		ldr	r3, [r7, #1524]
 4181 1870 1344     		add	r3, r3, r2
ARM GAS  C:\Users\RECEPC~1\AppData\Local\Temp\ccGwunar.s 			page 91


 4182 1872 1B78     		ldrb	r3, [r3]	@ zero_extendqisi2
 4183 1874 1846     		mov	r0, r3
 4184 1876 FFF7FEFF 		bl	Beagle_PutChar
 839:..\main.c     ****                     for(x=0;x<=8;x++){
 4185              		.loc 1 839 0 discriminator 3
 4186 187a D7F8F435 		ldr	r3, [r7, #1524]
 4187 187e 0133     		adds	r3, r3, #1
 4188 1880 C7F8F435 		str	r3, [r7, #1524]
 4189              	.L221:
 839:..\main.c     ****                     for(x=0;x<=8;x++){
 4190              		.loc 1 839 0 is_stmt 0 discriminator 1
 4191 1884 D7F8F435 		ldr	r3, [r7, #1524]
 4192 1888 082B     		cmp	r3, #8
 4193 188a EED9     		bls	.L222
 4194              	.L220:
 841:..\main.c     ****                     }
 842:..\main.c     ****                 }
 843:..\main.c     ****                 for(y=0;y<=sizeRX-1;y++){
 4195              		.loc 1 843 0 is_stmt 1
 4196 188c 0023     		movs	r3, #0
 4197 188e C7F8F035 		str	r3, [r7, #1520]
 4198 1892 12E0     		b	.L223
 4199              	.L226:
 844:..\main.c     ****                     if(bufferBeagleRX[y]=='&'){
 4200              		.loc 1 844 0
 4201 1894 07F5CA72 		add	r2, r7, #404
 4202 1898 D7F8F035 		ldr	r3, [r7, #1520]
 4203 189c 1344     		add	r3, r3, r2
 4204 189e 1B78     		ldrb	r3, [r3]	@ zero_extendqisi2
 4205 18a0 262B     		cmp	r3, #38
 4206 18a2 05D1     		bne	.L224
 845:..\main.c     ****                         y++;
 4207              		.loc 1 845 0
 4208 18a4 D7F8F035 		ldr	r3, [r7, #1520]
 4209 18a8 0133     		adds	r3, r3, #1
 4210 18aa C7F8F035 		str	r3, [r7, #1520]
 846:..\main.c     ****                         break;
 4211              		.loc 1 846 0
 4212 18ae 0BE0     		b	.L225
 4213              	.L224:
 843:..\main.c     ****                     if(bufferBeagleRX[y]=='&'){
 4214              		.loc 1 843 0 discriminator 2
 4215 18b0 D7F8F035 		ldr	r3, [r7, #1520]
 4216 18b4 0133     		adds	r3, r3, #1
 4217 18b6 C7F8F035 		str	r3, [r7, #1520]
 4218              	.L223:
 843:..\main.c     ****                     if(bufferBeagleRX[y]=='&'){
 4219              		.loc 1 843 0 is_stmt 0 discriminator 1
 4220 18ba D7F8FC35 		ldr	r3, [r7, #1532]
 4221 18be 5A1E     		subs	r2, r3, #1
 4222 18c0 D7F8F035 		ldr	r3, [r7, #1520]
 4223 18c4 9A42     		cmp	r2, r3
 4224 18c6 E5D2     		bcs	.L226
 4225              	.L225:
 847:..\main.c     ****                     }
 848:..\main.c     ****                 }
 849:..\main.c     ****                 bufferBeagleTX[4]='c';
ARM GAS  C:\Users\RECEPC~1\AppData\Local\Temp\ccGwunar.s 			page 92


 4226              		.loc 1 849 0 is_stmt 1
 4227 18c8 3B1D     		adds	r3, r7, #4
 4228 18ca 6322     		movs	r2, #99
 4229 18cc 1A71     		strb	r2, [r3, #4]
 850:..\main.c     ****                 bufferBeagleTX[5]=';';
 4230              		.loc 1 850 0
 4231 18ce 3B1D     		adds	r3, r7, #4
 4232 18d0 3B22     		movs	r2, #59
 4233 18d2 5A71     		strb	r2, [r3, #5]
 851:..\main.c     ****                 if(bufferBeagleRX[y]==side.b.dir){
 4234              		.loc 1 851 0
 4235 18d4 07F5CA72 		add	r2, r7, #404
 4236 18d8 D7F8F035 		ldr	r3, [r7, #1520]
 4237 18dc 1344     		add	r3, r3, r2
 4238 18de 1A78     		ldrb	r2, [r3]	@ zero_extendqisi2
 4239 18e0 A74B     		ldr	r3, .L420+4
 4240 18e2 93F80031 		ldrb	r3, [r3, #256]	@ zero_extendqisi2
 4241 18e6 9A42     		cmp	r2, r3
 4242 18e8 41F01385 		bne	.L227
 852:..\main.c     ****                     y++;
 4243              		.loc 1 852 0
 4244 18ec D7F8F035 		ldr	r3, [r7, #1520]
 4245 18f0 0133     		adds	r3, r3, #1
 4246 18f2 C7F8F035 		str	r3, [r7, #1520]
 853:..\main.c     ****                     switch(bufferBeagleRX[y]){
 4247              		.loc 1 853 0
 4248 18f6 07F5CA72 		add	r2, r7, #404
 4249 18fa D7F8F035 		ldr	r3, [r7, #1520]
 4250 18fe 1344     		add	r3, r3, r2
 4251 1900 1B78     		ldrb	r3, [r3]	@ zero_extendqisi2
 4252 1902 413B     		subs	r3, r3, #65
 4253 1904 182B     		cmp	r3, #24
 4254 1906 01F2DF84 		bhi	.L228
 4255 190a 01A2     		adr	r2, .L230
 4256 190c 52F823F0 		ldr	pc, [r2, r3, lsl #2]
 4257              		.p2align 2
 4258              	.L230:
 4259 1910 75190000 		.word	.L229+1
 4260 1914 1D1A0000 		.word	.L231+1
 4261 1918 591A0000 		.word	.L232+1
 4262 191c CB1B0000 		.word	.L233+1
 4263 1920 431E0000 		.word	.L234+1
 4264 1924 C31E0000 		.word	.L235+1
 4265 1928 A71F0000 		.word	.L236+1
 4266 192c 51280000 		.word	.L237+1
 4267 1930 772C0000 		.word	.L238+1
 4268 1934 112D0000 		.word	.L239+1
 4269 1938 992D0000 		.word	.L240+1
 4270 193c CF2D0000 		.word	.L241+1
 4271 1940 872F0000 		.word	.L242+1
 4272 1944 F52F0000 		.word	.L243+1
 4273 1948 03300000 		.word	.L244+1
 4274 194c BB300000 		.word	.L245+1
 4275 1950 C9320000 		.word	.L228+1
 4276 1954 C9320000 		.word	.L228+1
 4277 1958 C9320000 		.word	.L228+1
 4278 195c C9320000 		.word	.L228+1
ARM GAS  C:\Users\RECEPC~1\AppData\Local\Temp\ccGwunar.s 			page 93


 4279 1960 C9320000 		.word	.L228+1
 4280 1964 C9320000 		.word	.L228+1
 4281 1968 C9320000 		.word	.L228+1
 4282 196c C9320000 		.word	.L228+1
 4283 1970 F1300000 		.word	.L246+1
 4284              		.p2align 1
 4285              	.L229:
 854:..\main.c     ****                         case 0x41://Respuesta a peticion numero de venta a discriminar en forma de 
 855:..\main.c     ****                             y=y+2;
 4286              		.loc 1 855 0
 4287 1974 D7F8F035 		ldr	r3, [r7, #1520]
 4288 1978 0233     		adds	r3, r3, #2
 4289 197a C7F8F035 		str	r3, [r7, #1520]
 856:..\main.c     ****                             if(bufferBeagleRX[y]=='1'){//Aceptado
 4290              		.loc 1 856 0
 4291 197e 07F5CA72 		add	r2, r7, #404
 4292 1982 D7F8F035 		ldr	r3, [r7, #1520]
 4293 1986 1344     		add	r3, r3, r2
 4294 1988 1B78     		ldrb	r3, [r3]	@ zero_extendqisi2
 4295 198a 312B     		cmp	r3, #49
 4296 198c 3AD1     		bne	.L247
 857:..\main.c     ****                                 y++;
 4297              		.loc 1 857 0
 4298 198e D7F8F035 		ldr	r3, [r7, #1520]
 4299 1992 0133     		adds	r3, r3, #1
 4300 1994 C7F8F035 		str	r3, [r7, #1520]
 858:..\main.c     ****                                 bufferLCD2.moneySelectedSale[0]=8;
 4301              		.loc 1 858 0
 4302 1998 7A4B     		ldr	r3, .L420+8
 4303 199a 0822     		movs	r2, #8
 4304 199c 83F83F20 		strb	r2, [r3, #63]
 859:..\main.c     ****                                 for(x=1;x<=8;x++){
 4305              		.loc 1 859 0
 4306 19a0 0123     		movs	r3, #1
 4307 19a2 C7F8F435 		str	r3, [r7, #1524]
 4308 19a6 13E0     		b	.L248
 4309              	.L249:
 860:..\main.c     ****                                     bufferLCD2.moneySelectedSale[x]=bufferBeagleRX[x+y];
 4310              		.loc 1 860 0 discriminator 3
 4311 19a8 D7F8F425 		ldr	r2, [r7, #1524]
 4312 19ac D7F8F035 		ldr	r3, [r7, #1520]
 4313 19b0 1344     		add	r3, r3, r2
 4314 19b2 07F5CA72 		add	r2, r7, #404
 4315 19b6 D15C     		ldrb	r1, [r2, r3]	@ zero_extendqisi2
 4316 19b8 724A     		ldr	r2, .L420+8
 4317 19ba D7F8F435 		ldr	r3, [r7, #1524]
 4318 19be 1344     		add	r3, r3, r2
 4319 19c0 3833     		adds	r3, r3, #56
 4320 19c2 0A46     		mov	r2, r1
 4321 19c4 DA71     		strb	r2, [r3, #7]
 859:..\main.c     ****                                 for(x=1;x<=8;x++){
 4322              		.loc 1 859 0 discriminator 3
 4323 19c6 D7F8F435 		ldr	r3, [r7, #1524]
 4324 19ca 0133     		adds	r3, r3, #1
 4325 19cc C7F8F435 		str	r3, [r7, #1524]
 4326              	.L248:
 859:..\main.c     ****                                 for(x=1;x<=8;x++){
ARM GAS  C:\Users\RECEPC~1\AppData\Local\Temp\ccGwunar.s 			page 94


 4327              		.loc 1 859 0 is_stmt 0 discriminator 1
 4328 19d0 D7F8F435 		ldr	r3, [r7, #1524]
 4329 19d4 082B     		cmp	r3, #8
 4330 19d6 E7D9     		bls	.L249
 861:..\main.c     ****                                 }
 862:..\main.c     ****                                 y=y+10;
 4331              		.loc 1 862 0 is_stmt 1
 4332 19d8 D7F8F035 		ldr	r3, [r7, #1520]
 4333 19dc 0A33     		adds	r3, r3, #10
 4334 19de C7F8F035 		str	r3, [r7, #1520]
 863:..\main.c     ****                                 bufferLCD2.keyboardWayToPay=(bufferBeagleRX[y]&0x01);
 4335              		.loc 1 863 0
 4336 19e2 07F5CA72 		add	r2, r7, #404
 4337 19e6 D7F8F035 		ldr	r3, [r7, #1520]
 4338 19ea 1344     		add	r3, r3, r2
 4339 19ec 1B78     		ldrb	r3, [r3]	@ zero_extendqisi2
 4340 19ee 03F00103 		and	r3, r3, #1
 4341 19f2 DAB2     		uxtb	r2, r3
 4342 19f4 634B     		ldr	r3, .L420+8
 4343 19f6 83F86220 		strb	r2, [r3, #98]
 864:..\main.c     ****                                 bufferLCD2.authorizationFlag=1;
 4344              		.loc 1 864 0
 4345 19fa 624B     		ldr	r3, .L420+8
 4346 19fc 0122     		movs	r2, #1
 4347 19fe 83F86320 		strb	r2, [r3, #99]
 4348 1a02 03E0     		b	.L250
 4349              	.L247:
 865:..\main.c     ****                             }else{//No aceptado
 866:..\main.c     ****                                 bufferLCD2.authorizationFlag=2;
 4350              		.loc 1 866 0
 4351 1a04 5F4B     		ldr	r3, .L420+8
 4352 1a06 0222     		movs	r2, #2
 4353 1a08 83F86320 		strb	r2, [r3, #99]
 4354              	.L250:
 867:..\main.c     ****                             }
 868:..\main.c     ****                             bufferBeagleTX[6]='1';
 4355              		.loc 1 868 0
 4356 1a0c 3B1D     		adds	r3, r7, #4
 4357 1a0e 3122     		movs	r2, #49
 4358 1a10 9A71     		strb	r2, [r3, #6]
 869:..\main.c     ****                             sizeTX=6;
 4359              		.loc 1 869 0
 4360 1a12 0623     		movs	r3, #6
 4361 1a14 C7F8F835 		str	r3, [r7, #1528]
 870:..\main.c     ****                         break;
 4362              		.loc 1 870 0
 4363 1a18 01F056BC 		b	.L228
 4364              	.L231:
 871:..\main.c     ****                         
 872:..\main.c     ****                         case 0x42://Aceptacion de forma de pago 
 873:..\main.c     ****                             y=y+2;
 4365              		.loc 1 873 0
 4366 1a1c D7F8F035 		ldr	r3, [r7, #1520]
 4367 1a20 0233     		adds	r3, r3, #2
 4368 1a22 C7F8F035 		str	r3, [r7, #1520]
 874:..\main.c     ****                             if(bufferBeagleRX[y]=='1'){//Aceptado
 4369              		.loc 1 874 0
ARM GAS  C:\Users\RECEPC~1\AppData\Local\Temp\ccGwunar.s 			page 95


 4370 1a26 07F5CA72 		add	r2, r7, #404
 4371 1a2a D7F8F035 		ldr	r3, [r7, #1520]
 4372 1a2e 1344     		add	r3, r3, r2
 4373 1a30 1B78     		ldrb	r3, [r3]	@ zero_extendqisi2
 4374 1a32 312B     		cmp	r3, #49
 4375 1a34 04D1     		bne	.L251
 875:..\main.c     ****                                 bufferLCD2.authorizationFlag=1;
 4376              		.loc 1 875 0
 4377 1a36 534B     		ldr	r3, .L420+8
 4378 1a38 0122     		movs	r2, #1
 4379 1a3a 83F86320 		strb	r2, [r3, #99]
 4380 1a3e 03E0     		b	.L252
 4381              	.L251:
 876:..\main.c     ****                             }else{//No aceptado
 877:..\main.c     ****                                 bufferLCD2.authorizationFlag=2;
 4382              		.loc 1 877 0
 4383 1a40 504B     		ldr	r3, .L420+8
 4384 1a42 0222     		movs	r2, #2
 4385 1a44 83F86320 		strb	r2, [r3, #99]
 4386              	.L252:
 878:..\main.c     ****                             }
 879:..\main.c     ****                             bufferBeagleTX[6]='1';
 4387              		.loc 1 879 0
 4388 1a48 3B1D     		adds	r3, r7, #4
 4389 1a4a 3122     		movs	r2, #49
 4390 1a4c 9A71     		strb	r2, [r3, #6]
 880:..\main.c     ****                             sizeTX=6;
 4391              		.loc 1 880 0
 4392 1a4e 0623     		movs	r3, #6
 4393 1a50 C7F8F835 		str	r3, [r7, #1528]
 881:..\main.c     ****                         break;
 4394              		.loc 1 881 0
 4395 1a54 01F038BC 		b	.L228
 4396              	.L232:
 882:..\main.c     ****                         
 883:..\main.c     ****                         case 0x43://Respuesta a peticion identificacion de usuario para venta combu
 884:..\main.c     ****                             y=y+2;
 4397              		.loc 1 884 0
 4398 1a58 D7F8F035 		ldr	r3, [r7, #1520]
 4399 1a5c 0233     		adds	r3, r3, #2
 4400 1a5e C7F8F035 		str	r3, [r7, #1520]
 885:..\main.c     ****                             if(bufferBeagleRX[y]=='1'){//Aceptado
 4401              		.loc 1 885 0
 4402 1a62 07F5CA72 		add	r2, r7, #404
 4403 1a66 D7F8F035 		ldr	r3, [r7, #1520]
 4404 1a6a 1344     		add	r3, r3, r2
 4405 1a6c 1B78     		ldrb	r3, [r3]	@ zero_extendqisi2
 4406 1a6e 312B     		cmp	r3, #49
 4407 1a70 04D1     		bne	.L253
 886:..\main.c     ****                                 bufferLCD2.authorizationFlag=1;
 4408              		.loc 1 886 0
 4409 1a72 444B     		ldr	r3, .L420+8
 4410 1a74 0122     		movs	r2, #1
 4411 1a76 83F86320 		strb	r2, [r3, #99]
 4412 1a7a 03E0     		b	.L254
 4413              	.L253:
 887:..\main.c     ****                             }else{//No aceptado
ARM GAS  C:\Users\RECEPC~1\AppData\Local\Temp\ccGwunar.s 			page 96


 888:..\main.c     ****                                 bufferLCD2.authorizationFlag=2;
 4414              		.loc 1 888 0
 4415 1a7c 414B     		ldr	r3, .L420+8
 4416 1a7e 0222     		movs	r2, #2
 4417 1a80 83F86320 		strb	r2, [r3, #99]
 4418              	.L254:
 889:..\main.c     ****                             }
 890:..\main.c     ****                             y++;
 4419              		.loc 1 890 0
 4420 1a84 D7F8F035 		ldr	r3, [r7, #1520]
 4421 1a88 0133     		adds	r3, r3, #1
 4422 1a8a C7F8F035 		str	r3, [r7, #1520]
 891:..\main.c     ****                             bufferLCD2.volumeQuota[0]=8;
 4423              		.loc 1 891 0
 4424 1a8e 3D4B     		ldr	r3, .L420+8
 4425 1a90 0822     		movs	r2, #8
 4426 1a92 83F87421 		strb	r2, [r3, #372]
 892:..\main.c     ****                             for(x=1;x<=8;x++){
 4427              		.loc 1 892 0
 4428 1a96 0123     		movs	r3, #1
 4429 1a98 C7F8F435 		str	r3, [r7, #1524]
 4430 1a9c 14E0     		b	.L255
 4431              	.L256:
 893:..\main.c     ****                                 bufferLCD2.volumeQuota[x]=bufferBeagleRX[x+y];
 4432              		.loc 1 893 0 discriminator 3
 4433 1a9e D7F8F425 		ldr	r2, [r7, #1524]
 4434 1aa2 D7F8F035 		ldr	r3, [r7, #1520]
 4435 1aa6 1344     		add	r3, r3, r2
 4436 1aa8 07F5CA72 		add	r2, r7, #404
 4437 1aac D15C     		ldrb	r1, [r2, r3]	@ zero_extendqisi2
 4438 1aae 354A     		ldr	r2, .L420+8
 4439 1ab0 D7F8F435 		ldr	r3, [r7, #1524]
 4440 1ab4 1344     		add	r3, r3, r2
 4441 1ab6 03F5B873 		add	r3, r3, #368
 4442 1aba 0A46     		mov	r2, r1
 4443 1abc 1A71     		strb	r2, [r3, #4]
 892:..\main.c     ****                             for(x=1;x<=8;x++){
 4444              		.loc 1 892 0 discriminator 3
 4445 1abe D7F8F435 		ldr	r3, [r7, #1524]
 4446 1ac2 0133     		adds	r3, r3, #1
 4447 1ac4 C7F8F435 		str	r3, [r7, #1524]
 4448              	.L255:
 892:..\main.c     ****                             for(x=1;x<=8;x++){
 4449              		.loc 1 892 0 is_stmt 0 discriminator 1
 4450 1ac8 D7F8F435 		ldr	r3, [r7, #1524]
 4451 1acc 082B     		cmp	r3, #8
 4452 1ace E6D9     		bls	.L256
 894:..\main.c     ****                             }
 895:..\main.c     ****                             y=y+9;
 4453              		.loc 1 895 0 is_stmt 1
 4454 1ad0 D7F8F035 		ldr	r3, [r7, #1520]
 4455 1ad4 0933     		adds	r3, r3, #9
 4456 1ad6 C7F8F035 		str	r3, [r7, #1520]
 896:..\main.c     ****                             bufferLCD2.moneyQuota[0]=8;
 4457              		.loc 1 896 0
 4458 1ada 2A4B     		ldr	r3, .L420+8
 4459 1adc 0822     		movs	r2, #8
ARM GAS  C:\Users\RECEPC~1\AppData\Local\Temp\ccGwunar.s 			page 97


 4460 1ade 83F86A21 		strb	r2, [r3, #362]
 897:..\main.c     ****                             for(x=1;x<=8;x++){
 4461              		.loc 1 897 0
 4462 1ae2 0123     		movs	r3, #1
 4463 1ae4 C7F8F435 		str	r3, [r7, #1524]
 4464 1ae8 14E0     		b	.L257
 4465              	.L258:
 898:..\main.c     ****                                 bufferLCD2.moneyQuota[x]=bufferBeagleRX[x+y];
 4466              		.loc 1 898 0 discriminator 3
 4467 1aea D7F8F425 		ldr	r2, [r7, #1524]
 4468 1aee D7F8F035 		ldr	r3, [r7, #1520]
 4469 1af2 1344     		add	r3, r3, r2
 4470 1af4 07F5CA72 		add	r2, r7, #404
 4471 1af8 D15C     		ldrb	r1, [r2, r3]	@ zero_extendqisi2
 4472 1afa 224A     		ldr	r2, .L420+8
 4473 1afc D7F8F435 		ldr	r3, [r7, #1524]
 4474 1b00 1344     		add	r3, r3, r2
 4475 1b02 03F5B473 		add	r3, r3, #360
 4476 1b06 0A46     		mov	r2, r1
 4477 1b08 9A70     		strb	r2, [r3, #2]
 897:..\main.c     ****                             for(x=1;x<=8;x++){
 4478              		.loc 1 897 0 discriminator 3
 4479 1b0a D7F8F435 		ldr	r3, [r7, #1524]
 4480 1b0e 0133     		adds	r3, r3, #1
 4481 1b10 C7F8F435 		str	r3, [r7, #1524]
 4482              	.L257:
 897:..\main.c     ****                             for(x=1;x<=8;x++){
 4483              		.loc 1 897 0 is_stmt 0 discriminator 1
 4484 1b14 D7F8F435 		ldr	r3, [r7, #1524]
 4485 1b18 082B     		cmp	r3, #8
 4486 1b1a E6D9     		bls	.L258
 899:..\main.c     ****                             }
 900:..\main.c     ****                             y=y+9;
 4487              		.loc 1 900 0 is_stmt 1
 4488 1b1c D7F8F035 		ldr	r3, [r7, #1520]
 4489 1b20 0933     		adds	r3, r3, #9
 4490 1b22 C7F8F035 		str	r3, [r7, #1520]
 901:..\main.c     ****                             bufferLCD2.ppuQuota[0]=6;
 4491              		.loc 1 901 0
 4492 1b26 174B     		ldr	r3, .L420+8
 4493 1b28 0622     		movs	r2, #6
 4494 1b2a 83F87E21 		strb	r2, [r3, #382]
 902:..\main.c     ****                             for(x=1;x<=6;x++){
 4495              		.loc 1 902 0
 4496 1b2e 0123     		movs	r3, #1
 4497 1b30 C7F8F435 		str	r3, [r7, #1524]
 4498 1b34 14E0     		b	.L259
 4499              	.L260:
 903:..\main.c     ****                                 bufferLCD2.ppuQuota[x]=bufferBeagleRX[x+y];
 4500              		.loc 1 903 0 discriminator 3
 4501 1b36 D7F8F425 		ldr	r2, [r7, #1524]
 4502 1b3a D7F8F035 		ldr	r3, [r7, #1520]
 4503 1b3e 1344     		add	r3, r3, r2
 4504 1b40 07F5CA72 		add	r2, r7, #404
 4505 1b44 D15C     		ldrb	r1, [r2, r3]	@ zero_extendqisi2
 4506 1b46 0F4A     		ldr	r2, .L420+8
 4507 1b48 D7F8F435 		ldr	r3, [r7, #1524]
ARM GAS  C:\Users\RECEPC~1\AppData\Local\Temp\ccGwunar.s 			page 98


 4508 1b4c 1344     		add	r3, r3, r2
 4509 1b4e 03F5BC73 		add	r3, r3, #376
 4510 1b52 0A46     		mov	r2, r1
 4511 1b54 9A71     		strb	r2, [r3, #6]
 902:..\main.c     ****                             for(x=1;x<=6;x++){
 4512              		.loc 1 902 0 discriminator 3
 4513 1b56 D7F8F435 		ldr	r3, [r7, #1524]
 4514 1b5a 0133     		adds	r3, r3, #1
 4515 1b5c C7F8F435 		str	r3, [r7, #1524]
 4516              	.L259:
 902:..\main.c     ****                             for(x=1;x<=6;x++){
 4517              		.loc 1 902 0 is_stmt 0 discriminator 1
 4518 1b60 D7F8F435 		ldr	r3, [r7, #1524]
 4519 1b64 062B     		cmp	r3, #6
 4520 1b66 E6D9     		bls	.L260
 904:..\main.c     ****                             }
 905:..\main.c     ****                             y=y+8;
 4521              		.loc 1 905 0 is_stmt 1
 4522 1b68 D7F8F035 		ldr	r3, [r7, #1520]
 4523 1b6c 0833     		adds	r3, r3, #8
 4524 1b6e C7F8F035 		str	r3, [r7, #1520]
 906:..\main.c     ****                             for(x=0;x<60;x++){
 4525              		.loc 1 906 0
 4526 1b72 0023     		movs	r3, #0
 4527 1b74 C7F8F435 		str	r3, [r7, #1524]
 4528 1b78 1BE0     		b	.L261
 4529              	.L421:
 4530 1b7a 00BF     		.align	2
 4531              	.L420:
 4532 1b7c 00000000 		.word	bufferLCD1
 4533 1b80 00000000 		.word	side
 4534 1b84 00000000 		.word	bufferLCD2
 4535              	.L262:
 907:..\main.c     ****                                 bufferLCD2.message[x]=bufferBeagleRX[x+y];
 4536              		.loc 1 907 0 discriminator 3
 4537 1b88 D7F8F425 		ldr	r2, [r7, #1524]
 4538 1b8c D7F8F035 		ldr	r3, [r7, #1520]
 4539 1b90 1344     		add	r3, r3, r2
 4540 1b92 07F5CA72 		add	r2, r7, #404
 4541 1b96 D15C     		ldrb	r1, [r2, r3]	@ zero_extendqisi2
 4542 1b98 DB4A     		ldr	r2, .L422
 4543 1b9a D7F8F435 		ldr	r3, [r7, #1524]
 4544 1b9e 1344     		add	r3, r3, r2
 4545 1ba0 03F59473 		add	r3, r3, #296
 4546 1ba4 0A46     		mov	r2, r1
 4547 1ba6 5A70     		strb	r2, [r3, #1]
 906:..\main.c     ****                             for(x=0;x<60;x++){
 4548              		.loc 1 906 0 discriminator 3
 4549 1ba8 D7F8F435 		ldr	r3, [r7, #1524]
 4550 1bac 0133     		adds	r3, r3, #1
 4551 1bae C7F8F435 		str	r3, [r7, #1524]
 4552              	.L261:
 906:..\main.c     ****                             for(x=0;x<60;x++){
 4553              		.loc 1 906 0 is_stmt 0 discriminator 1
 4554 1bb2 D7F8F435 		ldr	r3, [r7, #1524]
 4555 1bb6 3B2B     		cmp	r3, #59
 4556 1bb8 E6D9     		bls	.L262
ARM GAS  C:\Users\RECEPC~1\AppData\Local\Temp\ccGwunar.s 			page 99


