ARM GAS  C:\Users\PROYEC~1\AppData\Local\Temp\cco2H3Fd.s 			page 1


   1              		.syntax unified
   2              		.cpu cortex-m3
   3              		.fpu softvfp
   4              		.eabi_attribute 20, 1
   5              		.eabi_attribute 21, 1
   6              		.eabi_attribute 23, 3
   7              		.eabi_attribute 24, 1
   8              		.eabi_attribute 25, 1
   9              		.eabi_attribute 26, 1
  10              		.eabi_attribute 30, 6
  11              		.eabi_attribute 34, 1
  12              		.eabi_attribute 18, 4
  13              		.thumb
  14              		.file	"memoryEP.c"
  15              		.text
  16              	.Ltext0:
  17              		.cfi_sections	.debug_frame
  18              		.comm	countAnimation1,8,8
  19              		.comm	countAnimation2,8,8
  20              		.comm	countBeagleTX,8,8
  21              		.comm	flowLCD1,4,4
  22              		.comm	flowLCD2,4,4
  23              		.comm	digits,1,1
  24              		.comm	ipAdress,12,4
  25              		.comm	numberKeys1,1,1
  26              		.comm	numberKeys2,1,1
  27              		.comm	flagPoint1,1,1
  28              		.comm	flagPoint2,1,1
  29              		.comm	button,960,4
  30              		.comm	productNumber,1,1
  31              		.comm	presetFast,30,4
  32              		.comm	delayPicture1,4,4
  33              		.comm	delayPicture2,4,4
  34              		.comm	ppux10,1,1
  35              		.comm	decimalMoney,1,1
  36              		.comm	decimalVolume,1,1
  37              		.comm	symbols,2,4
  38              		.comm	time,3,4
  39              		.comm	date,3,4
  40              		.comm	screen,2,4
  41              		.comm	residue,14,4
  42              		.comm	temporal,30,4
  43              		.comm	turn,1,1
  44              		.comm	idSeller,25,4
  45              		.comm	typeIdSeller,1,1
  46              		.comm	passwordSeller,8,4
  47              		.comm	flagResetMux,1,1
  48              		.comm	bufferLCD1,635,4
  49              		.comm	bufferLCD2,635,4
  50              		.comm	side,512,4
  51              		.global	__aeabi_i2d
  52              		.global	__aeabi_dmul
  53              		.global	__aeabi_dadd
  54              		.global	__aeabi_d2uiz
  55              		.section	.text.write_settings,"ax",%progbits
  56              		.align	2
  57              		.global	write_settings
ARM GAS  C:\Users\PROYEC~1\AppData\Local\Temp\cco2H3Fd.s 			page 2


  58              		.thumb
  59              		.thumb_func
  60              		.type	write_settings, %function
  61              	write_settings:
  62              	.LFB56:
  63              		.file 1 ".\\memoryEP.c"
   1:.\memoryEP.c  **** /*
   2:.\memoryEP.c  **** ***************************************************************************************************
   3:.\memoryEP.c  **** *                                         MUX ADVANCE CODE
   4:.\memoryEP.c  **** *
   5:.\memoryEP.c  **** *                             (c) Copyright 2016; Sistemas Insepet LTDA
   6:.\memoryEP.c  **** *
   7:.\memoryEP.c  **** *               All rights reserved.  Protected by international copyright laws.
   8:.\memoryEP.c  **** *               Knowledge of the source code may NOT be used to develop a similar product.
   9:.\memoryEP.c  **** *               Please help us continue to provide the Embedded community with the finest
  10:.\memoryEP.c  **** *               software available.  Your honesty is greatly appreciated.
  11:.\memoryEP.c  **** ***************************************************************************************************
  12:.\memoryEP.c  **** */
  13:.\memoryEP.c  **** 
  14:.\memoryEP.c  **** /*
  15:.\memoryEP.c  **** ***************************************************************************************************
  16:.\memoryEP.c  **** *
  17:.\memoryEP.c  **** *                                            MUX ADVANCE CODE
  18:.\memoryEP.c  **** *
  19:.\memoryEP.c  **** *                                             CYPRESS PSoC5LP
  20:.\memoryEP.c  **** *                                                with the
  21:.\memoryEP.c  **** *                                            CY8C5969AXI-LP035
  22:.\memoryEP.c  **** *
  23:.\memoryEP.c  **** * Filename      : memoryEP.c
  24:.\memoryEP.c  **** * Version       : V1.00
  25:.\memoryEP.c  **** * Programmer(s) : 
  26:.\memoryEP.c  ****                   
  27:.\memoryEP.c  **** ***************************************************************************************************
  28:.\memoryEP.c  **** */
  29:.\memoryEP.c  **** 
  30:.\memoryEP.c  **** /*
  31:.\memoryEP.c  **** ***************************************************************************************************
  32:.\memoryEP.c  **** *                                             INCLUDE FILES
  33:.\memoryEP.c  **** ***************************************************************************************************
  34:.\memoryEP.c  **** */
  35:.\memoryEP.c  **** 
  36:.\memoryEP.c  **** #include <device.h>
  37:.\memoryEP.c  **** #include "variables.h"
  38:.\memoryEP.c  **** #include <math.h>
  39:.\memoryEP.c  **** 
  40:.\memoryEP.c  **** /*
  41:.\memoryEP.c  **** ***************************************************************************************************
  42:.\memoryEP.c  **** *                                         void write_settings()
  43:.\memoryEP.c  **** *
  44:.\memoryEP.c  **** * Description : 
  45:.\memoryEP.c  **** *               
  46:.\memoryEP.c  **** *
  47:.\memoryEP.c  **** * Argument(s) : none
  48:.\memoryEP.c  **** *
  49:.\memoryEP.c  **** * Return(s)   : none
  50:.\memoryEP.c  **** *
  51:.\memoryEP.c  **** * Caller(s)   :  
ARM GAS  C:\Users\PROYEC~1\AppData\Local\Temp\cco2H3Fd.s 			page 3


  52:.\memoryEP.c  **** *
  53:.\memoryEP.c  **** * Note(s)     : none.
  54:.\memoryEP.c  **** ***************************************************************************************************
  55:.\memoryEP.c  **** */
  56:.\memoryEP.c  **** 
  57:.\memoryEP.c  **** void write_settings(){
  64              		.loc 1 57 0
  65              		.cfi_startproc
  66              		@ args = 0, pretend = 0, frame = 24
  67              		@ frame_needed = 1, uses_anonymous_args = 0
  68 0000 B0B5     		push	{r4, r5, r7, lr}
  69              		.cfi_def_cfa_offset 16
  70              		.cfi_offset 4, -16
  71              		.cfi_offset 5, -12
  72              		.cfi_offset 7, -8
  73              		.cfi_offset 14, -4
  74 0002 86B0     		sub	sp, sp, #24
  75              		.cfi_def_cfa_offset 40
  76 0004 00AF     		add	r7, sp, #0
  77              		.cfi_def_cfa_register 7
  58:.\memoryEP.c  ****     uint8 memoryData[16]={0,0,0,0,0,0,0,0,0,0,0,0,0,0,0,0},x;
  78              		.loc 1 58 0
  79 0006 3B46     		mov	r3, r7
  80 0008 0022     		movs	r2, #0
  81 000a 1A60     		str	r2, [r3]
  82 000c 0433     		adds	r3, r3, #4
  83 000e 0022     		movs	r2, #0
  84 0010 1A60     		str	r2, [r3]
  85 0012 0433     		adds	r3, r3, #4
  86 0014 0022     		movs	r2, #0
  87 0016 1A60     		str	r2, [r3]
  88 0018 0433     		adds	r3, r3, #4
  89 001a 0022     		movs	r2, #0
  90 001c 1A60     		str	r2, [r3]
  91 001e 0433     		adds	r3, r3, #4
  59:.\memoryEP.c  ****     int y;
  60:.\memoryEP.c  ****     
  61:.\memoryEP.c  ****     memoryData[0]=digits;
  92              		.loc 1 61 0
  93 0020 B34B     		ldr	r3, .L30
  94 0022 1B78     		ldrb	r3, [r3]
  95 0024 DBB2     		uxtb	r3, r3
  96 0026 3B70     		strb	r3, [r7]
  62:.\memoryEP.c  ****     memoryData[1]=((decimalMoney&0x07)*10)+(decimalVolume&0x07);
  97              		.loc 1 62 0
  98 0028 B24B     		ldr	r3, .L30+4
  99 002a 1B78     		ldrb	r3, [r3]
 100 002c DBB2     		uxtb	r3, r3
 101 002e 03F00703 		and	r3, r3, #7
 102 0032 DBB2     		uxtb	r3, r3
 103 0034 1A46     		mov	r2, r3
 104 0036 9200     		lsls	r2, r2, #2
 105 0038 1344     		add	r3, r3, r2
 106 003a 5B00     		lsls	r3, r3, #1
 107 003c DAB2     		uxtb	r2, r3
 108 003e AE4B     		ldr	r3, .L30+8
 109 0040 1B78     		ldrb	r3, [r3]
ARM GAS  C:\Users\PROYEC~1\AppData\Local\Temp\cco2H3Fd.s 			page 4


 110 0042 DBB2     		uxtb	r3, r3
 111 0044 03F00703 		and	r3, r3, #7
 112 0048 DBB2     		uxtb	r3, r3
 113 004a 1344     		add	r3, r3, r2
 114 004c DBB2     		uxtb	r3, r3
 115 004e 7B70     		strb	r3, [r7, #1]
  63:.\memoryEP.c  ****     memoryData[2]=ppux10;
 116              		.loc 1 63 0
 117 0050 AA4B     		ldr	r3, .L30+12
 118 0052 1B78     		ldrb	r3, [r3]
 119 0054 DBB2     		uxtb	r3, r3
 120 0056 BB70     		strb	r3, [r7, #2]
  64:.\memoryEP.c  ****     memoryData[3]=productNumber;
 121              		.loc 1 64 0
 122 0058 A94B     		ldr	r3, .L30+16
 123 005a 1B78     		ldrb	r3, [r3]
 124 005c DBB2     		uxtb	r3, r3
 125 005e FB70     		strb	r3, [r7, #3]
  65:.\memoryEP.c  ****     memoryData[4]=symbols[0];
 126              		.loc 1 65 0
 127 0060 A84B     		ldr	r3, .L30+20
 128 0062 1B78     		ldrb	r3, [r3]
 129 0064 DBB2     		uxtb	r3, r3
 130 0066 3B71     		strb	r3, [r7, #4]
  66:.\memoryEP.c  ****     memoryData[5]=symbols[1];
 131              		.loc 1 66 0
 132 0068 A64B     		ldr	r3, .L30+20
 133 006a 5B78     		ldrb	r3, [r3, #1]
 134 006c DBB2     		uxtb	r3, r3
 135 006e 7B71     		strb	r3, [r7, #5]
  67:.\memoryEP.c  ****     for(x=3;x>0;x--){
 136              		.loc 1 67 0
 137 0070 0323     		movs	r3, #3
 138 0072 FB75     		strb	r3, [r7, #23]
 139 0074 E2E0     		b	.L2
 140              	.L3:
  68:.\memoryEP.c  ****         memoryData[6]+=((ipAdress[x-1]&0x0f)*pow(10,(3-x)));
 141              		.loc 1 68 0 discriminator 3
 142 0076 FB7D     		ldrb	r3, [r7, #23]	@ zero_extendqisi2
 143 0078 013B     		subs	r3, r3, #1
 144 007a A34A     		ldr	r2, .L30+24
 145 007c D35C     		ldrb	r3, [r2, r3]
 146 007e DBB2     		uxtb	r3, r3
 147 0080 03F00F03 		and	r3, r3, #15
 148 0084 1846     		mov	r0, r3
 149 0086 FFF7FEFF 		bl	__aeabi_i2d
 150 008a 0446     		mov	r4, r0
 151 008c 0D46     		mov	r5, r1
 152 008e FB7D     		ldrb	r3, [r7, #23]	@ zero_extendqisi2
 153 0090 C3F10303 		rsb	r3, r3, #3
 154 0094 1846     		mov	r0, r3
 155 0096 FFF7FEFF 		bl	__aeabi_i2d
 156 009a 0246     		mov	r2, r0
 157 009c 0B46     		mov	r3, r1
 158 009e 4FF00000 		mov	r0, #0
 159 00a2 9A49     		ldr	r1, .L30+28
 160 00a4 FFF7FEFF 		bl	pow
ARM GAS  C:\Users\PROYEC~1\AppData\Local\Temp\cco2H3Fd.s 			page 5


 161 00a8 0246     		mov	r2, r0
 162 00aa 0B46     		mov	r3, r1
 163 00ac 2046     		mov	r0, r4
 164 00ae 2946     		mov	r1, r5
 165 00b0 FFF7FEFF 		bl	__aeabi_dmul
 166 00b4 0246     		mov	r2, r0
 167 00b6 0B46     		mov	r3, r1
 168 00b8 1446     		mov	r4, r2
 169 00ba 1D46     		mov	r5, r3
 170 00bc BB79     		ldrb	r3, [r7, #6]	@ zero_extendqisi2
 171 00be 1846     		mov	r0, r3
 172 00c0 FFF7FEFF 		bl	__aeabi_i2d
 173 00c4 0246     		mov	r2, r0
 174 00c6 0B46     		mov	r3, r1
 175 00c8 1046     		mov	r0, r2
 176 00ca 1946     		mov	r1, r3
 177 00cc 2246     		mov	r2, r4
 178 00ce 2B46     		mov	r3, r5
 179 00d0 FFF7FEFF 		bl	__aeabi_dadd
 180 00d4 0246     		mov	r2, r0
 181 00d6 0B46     		mov	r3, r1
 182 00d8 1046     		mov	r0, r2
 183 00da 1946     		mov	r1, r3
 184 00dc FFF7FEFF 		bl	__aeabi_d2uiz
 185 00e0 0346     		mov	r3, r0
 186 00e2 DBB2     		uxtb	r3, r3
 187 00e4 BB71     		strb	r3, [r7, #6]
  69:.\memoryEP.c  ****         memoryData[7]+=((ipAdress[x+2]&0x0f)*pow(10,(3-x)));
 188              		.loc 1 69 0 discriminator 3
 189 00e6 FB7D     		ldrb	r3, [r7, #23]	@ zero_extendqisi2
 190 00e8 0233     		adds	r3, r3, #2
 191 00ea 874A     		ldr	r2, .L30+24
 192 00ec D35C     		ldrb	r3, [r2, r3]
 193 00ee DBB2     		uxtb	r3, r3
 194 00f0 03F00F03 		and	r3, r3, #15
 195 00f4 1846     		mov	r0, r3
 196 00f6 FFF7FEFF 		bl	__aeabi_i2d
 197 00fa 0446     		mov	r4, r0
 198 00fc 0D46     		mov	r5, r1
 199 00fe FB7D     		ldrb	r3, [r7, #23]	@ zero_extendqisi2
 200 0100 C3F10303 		rsb	r3, r3, #3
 201 0104 1846     		mov	r0, r3
 202 0106 FFF7FEFF 		bl	__aeabi_i2d
 203 010a 0246     		mov	r2, r0
 204 010c 0B46     		mov	r3, r1
 205 010e 4FF00000 		mov	r0, #0
 206 0112 7E49     		ldr	r1, .L30+28
 207 0114 FFF7FEFF 		bl	pow
 208 0118 0246     		mov	r2, r0
 209 011a 0B46     		mov	r3, r1
 210 011c 2046     		mov	r0, r4
 211 011e 2946     		mov	r1, r5
 212 0120 FFF7FEFF 		bl	__aeabi_dmul
 213 0124 0246     		mov	r2, r0
 214 0126 0B46     		mov	r3, r1
 215 0128 1446     		mov	r4, r2
 216 012a 1D46     		mov	r5, r3
ARM GAS  C:\Users\PROYEC~1\AppData\Local\Temp\cco2H3Fd.s 			page 6


 217 012c FB79     		ldrb	r3, [r7, #7]	@ zero_extendqisi2
 218 012e 1846     		mov	r0, r3
 219 0130 FFF7FEFF 		bl	__aeabi_i2d
 220 0134 0246     		mov	r2, r0
 221 0136 0B46     		mov	r3, r1
 222 0138 1046     		mov	r0, r2
 223 013a 1946     		mov	r1, r3
 224 013c 2246     		mov	r2, r4
 225 013e 2B46     		mov	r3, r5
 226 0140 FFF7FEFF 		bl	__aeabi_dadd
 227 0144 0246     		mov	r2, r0
 228 0146 0B46     		mov	r3, r1
 229 0148 1046     		mov	r0, r2
 230 014a 1946     		mov	r1, r3
 231 014c FFF7FEFF 		bl	__aeabi_d2uiz
 232 0150 0346     		mov	r3, r0
 233 0152 DBB2     		uxtb	r3, r3
 234 0154 FB71     		strb	r3, [r7, #7]
  70:.\memoryEP.c  ****         memoryData[8]+=((ipAdress[x+5]&0x0f)*pow(10,(3-x)));
 235              		.loc 1 70 0 discriminator 3
 236 0156 FB7D     		ldrb	r3, [r7, #23]	@ zero_extendqisi2
 237 0158 0533     		adds	r3, r3, #5
 238 015a 6B4A     		ldr	r2, .L30+24
 239 015c D35C     		ldrb	r3, [r2, r3]
 240 015e DBB2     		uxtb	r3, r3
 241 0160 03F00F03 		and	r3, r3, #15
 242 0164 1846     		mov	r0, r3
 243 0166 FFF7FEFF 		bl	__aeabi_i2d
 244 016a 0446     		mov	r4, r0
 245 016c 0D46     		mov	r5, r1
 246 016e FB7D     		ldrb	r3, [r7, #23]	@ zero_extendqisi2
 247 0170 C3F10303 		rsb	r3, r3, #3
 248 0174 1846     		mov	r0, r3
 249 0176 FFF7FEFF 		bl	__aeabi_i2d
 250 017a 0246     		mov	r2, r0
 251 017c 0B46     		mov	r3, r1
 252 017e 4FF00000 		mov	r0, #0
 253 0182 6249     		ldr	r1, .L30+28
 254 0184 FFF7FEFF 		bl	pow
 255 0188 0246     		mov	r2, r0
 256 018a 0B46     		mov	r3, r1
 257 018c 2046     		mov	r0, r4
 258 018e 2946     		mov	r1, r5
 259 0190 FFF7FEFF 		bl	__aeabi_dmul
 260 0194 0246     		mov	r2, r0
 261 0196 0B46     		mov	r3, r1
 262 0198 1446     		mov	r4, r2
 263 019a 1D46     		mov	r5, r3
 264 019c 3B7A     		ldrb	r3, [r7, #8]	@ zero_extendqisi2
 265 019e 1846     		mov	r0, r3
 266 01a0 FFF7FEFF 		bl	__aeabi_i2d
 267 01a4 0246     		mov	r2, r0
 268 01a6 0B46     		mov	r3, r1
 269 01a8 1046     		mov	r0, r2
 270 01aa 1946     		mov	r1, r3
 271 01ac 2246     		mov	r2, r4
 272 01ae 2B46     		mov	r3, r5
ARM GAS  C:\Users\PROYEC~1\AppData\Local\Temp\cco2H3Fd.s 			page 7


 273 01b0 FFF7FEFF 		bl	__aeabi_dadd
 274 01b4 0246     		mov	r2, r0
 275 01b6 0B46     		mov	r3, r1
 276 01b8 1046     		mov	r0, r2
 277 01ba 1946     		mov	r1, r3
 278 01bc FFF7FEFF 		bl	__aeabi_d2uiz
 279 01c0 0346     		mov	r3, r0
 280 01c2 DBB2     		uxtb	r3, r3
 281 01c4 3B72     		strb	r3, [r7, #8]
  71:.\memoryEP.c  ****         memoryData[9]+=((ipAdress[x+8]&0x0f)*pow(10,(3-x)));
 282              		.loc 1 71 0 discriminator 3
 283 01c6 FB7D     		ldrb	r3, [r7, #23]	@ zero_extendqisi2
 284 01c8 0833     		adds	r3, r3, #8
 285 01ca 4F4A     		ldr	r2, .L30+24
 286 01cc D35C     		ldrb	r3, [r2, r3]
 287 01ce DBB2     		uxtb	r3, r3
 288 01d0 03F00F03 		and	r3, r3, #15
 289 01d4 1846     		mov	r0, r3
 290 01d6 FFF7FEFF 		bl	__aeabi_i2d
 291 01da 0446     		mov	r4, r0
 292 01dc 0D46     		mov	r5, r1
 293 01de FB7D     		ldrb	r3, [r7, #23]	@ zero_extendqisi2
 294 01e0 C3F10303 		rsb	r3, r3, #3
 295 01e4 1846     		mov	r0, r3
 296 01e6 FFF7FEFF 		bl	__aeabi_i2d
 297 01ea 0246     		mov	r2, r0
 298 01ec 0B46     		mov	r3, r1
 299 01ee 4FF00000 		mov	r0, #0
 300 01f2 4649     		ldr	r1, .L30+28
 301 01f4 FFF7FEFF 		bl	pow
 302 01f8 0246     		mov	r2, r0
 303 01fa 0B46     		mov	r3, r1
 304 01fc 2046     		mov	r0, r4
 305 01fe 2946     		mov	r1, r5
 306 0200 FFF7FEFF 		bl	__aeabi_dmul
 307 0204 0246     		mov	r2, r0
 308 0206 0B46     		mov	r3, r1
 309 0208 1446     		mov	r4, r2
 310 020a 1D46     		mov	r5, r3
 311 020c 7B7A     		ldrb	r3, [r7, #9]	@ zero_extendqisi2
 312 020e 1846     		mov	r0, r3
 313 0210 FFF7FEFF 		bl	__aeabi_i2d
 314 0214 0246     		mov	r2, r0
 315 0216 0B46     		mov	r3, r1
 316 0218 1046     		mov	r0, r2
 317 021a 1946     		mov	r1, r3
 318 021c 2246     		mov	r2, r4
 319 021e 2B46     		mov	r3, r5
 320 0220 FFF7FEFF 		bl	__aeabi_dadd
 321 0224 0246     		mov	r2, r0
 322 0226 0B46     		mov	r3, r1
 323 0228 1046     		mov	r0, r2
 324 022a 1946     		mov	r1, r3
 325 022c FFF7FEFF 		bl	__aeabi_d2uiz
 326 0230 0346     		mov	r3, r0
 327 0232 DBB2     		uxtb	r3, r3
 328 0234 7B72     		strb	r3, [r7, #9]
ARM GAS  C:\Users\PROYEC~1\AppData\Local\Temp\cco2H3Fd.s 			page 8


  67:.\memoryEP.c  ****         memoryData[6]+=((ipAdress[x-1]&0x0f)*pow(10,(3-x)));
 329              		.loc 1 67 0 discriminator 3
 330 0236 FB7D     		ldrb	r3, [r7, #23]	@ zero_extendqisi2
 331 0238 013B     		subs	r3, r3, #1
 332 023a FB75     		strb	r3, [r7, #23]
 333              	.L2:
  67:.\memoryEP.c  ****         memoryData[6]+=((ipAdress[x-1]&0x0f)*pow(10,(3-x)));
 334              		.loc 1 67 0 is_stmt 0 discriminator 1
 335 023c FB7D     		ldrb	r3, [r7, #23]	@ zero_extendqisi2
 336 023e 002B     		cmp	r3, #0
 337 0240 7FF419AF 		bne	.L3
  72:.\memoryEP.c  ****     }
  73:.\memoryEP.c  ****     memoryData[10]=turn;
 338              		.loc 1 73 0 is_stmt 1
 339 0244 324B     		ldr	r3, .L30+32
 340 0246 1B78     		ldrb	r3, [r3]
 341 0248 DBB2     		uxtb	r3, r3
 342 024a BB72     		strb	r3, [r7, #10]
  74:.\memoryEP.c  ****     memoryData[11]=typeIdSeller;
 343              		.loc 1 74 0
 344 024c 314B     		ldr	r3, .L30+36
 345 024e 1B78     		ldrb	r3, [r3]
 346 0250 DBB2     		uxtb	r3, r3
 347 0252 FB72     		strb	r3, [r7, #11]
  75:.\memoryEP.c  ****     if((y=idSeller[0])==0){
 348              		.loc 1 75 0
 349 0254 304B     		ldr	r3, .L30+40
 350 0256 1B78     		ldrb	r3, [r3]
 351 0258 DBB2     		uxtb	r3, r3
 352 025a 3B61     		str	r3, [r7, #16]
 353 025c 3B69     		ldr	r3, [r7, #16]
 354 025e 002B     		cmp	r3, #0
 355 0260 04D1     		bne	.L4
  76:.\memoryEP.c  ****         y=1;
 356              		.loc 1 76 0
 357 0262 0123     		movs	r3, #1
 358 0264 3B61     		str	r3, [r7, #16]
  77:.\memoryEP.c  ****         idSeller[1]='0';
 359              		.loc 1 77 0
 360 0266 2C4B     		ldr	r3, .L30+40
 361 0268 3022     		movs	r2, #48
 362 026a 5A70     		strb	r2, [r3, #1]
 363              	.L4:
  78:.\memoryEP.c  ****     }
  79:.\memoryEP.c  ****     if(y<20){
 364              		.loc 1 79 0
 365 026c 3B69     		ldr	r3, [r7, #16]
 366 026e 132B     		cmp	r3, #19
 367 0270 22DC     		bgt	.L5
  80:.\memoryEP.c  ****         for(x=20;x>0;x--){
 368              		.loc 1 80 0
 369 0272 1423     		movs	r3, #20
 370 0274 FB75     		strb	r3, [r7, #23]
 371 0276 1CE0     		b	.L6
 372              	.L10:
  81:.\memoryEP.c  ****             idSeller[x]=idSeller[y];
 373              		.loc 1 81 0
ARM GAS  C:\Users\PROYEC~1\AppData\Local\Temp\cco2H3Fd.s 			page 9


 374 0278 FB7D     		ldrb	r3, [r7, #23]	@ zero_extendqisi2
 375 027a 2749     		ldr	r1, .L30+40
 376 027c 3A69     		ldr	r2, [r7, #16]
 377 027e 0A44     		add	r2, r2, r1
 378 0280 1278     		ldrb	r2, [r2]
 379 0282 D1B2     		uxtb	r1, r2
 380 0284 244A     		ldr	r2, .L30+40
 381 0286 D154     		strb	r1, [r2, r3]
  82:.\memoryEP.c  ****             y--;
 382              		.loc 1 82 0
 383 0288 3B69     		ldr	r3, [r7, #16]
 384 028a 013B     		subs	r3, r3, #1
 385 028c 3B61     		str	r3, [r7, #16]
  83:.\memoryEP.c  ****             if(y<=0){
 386              		.loc 1 83 0
 387 028e 3B69     		ldr	r3, [r7, #16]
 388 0290 002B     		cmp	r3, #0
 389 0292 0BDC     		bgt	.L7
  84:.\memoryEP.c  ****                 while(x>1){
 390              		.loc 1 84 0
 391 0294 06E0     		b	.L8
 392              	.L9:
  85:.\memoryEP.c  ****                     x--;
 393              		.loc 1 85 0
 394 0296 FB7D     		ldrb	r3, [r7, #23]	@ zero_extendqisi2
 395 0298 013B     		subs	r3, r3, #1
 396 029a FB75     		strb	r3, [r7, #23]
  86:.\memoryEP.c  ****                     idSeller[x]='0';
 397              		.loc 1 86 0
 398 029c FB7D     		ldrb	r3, [r7, #23]	@ zero_extendqisi2
 399 029e 1E4A     		ldr	r2, .L30+40
 400 02a0 3021     		movs	r1, #48
 401 02a2 D154     		strb	r1, [r2, r3]
 402              	.L8:
  84:.\memoryEP.c  ****                 while(x>1){
 403              		.loc 1 84 0
 404 02a4 FB7D     		ldrb	r3, [r7, #23]	@ zero_extendqisi2
 405 02a6 012B     		cmp	r3, #1
 406 02a8 F5D8     		bhi	.L9
  87:.\memoryEP.c  ****                 }
  88:.\memoryEP.c  ****                 break;
 407              		.loc 1 88 0
 408 02aa 05E0     		b	.L5
 409              	.L7:
  80:.\memoryEP.c  ****             idSeller[x]=idSeller[y];
 410              		.loc 1 80 0 discriminator 2
 411 02ac FB7D     		ldrb	r3, [r7, #23]	@ zero_extendqisi2
 412 02ae 013B     		subs	r3, r3, #1
 413 02b0 FB75     		strb	r3, [r7, #23]
 414              	.L6:
  80:.\memoryEP.c  ****             idSeller[x]=idSeller[y];
 415              		.loc 1 80 0 is_stmt 0 discriminator 1
 416 02b2 FB7D     		ldrb	r3, [r7, #23]	@ zero_extendqisi2
 417 02b4 002B     		cmp	r3, #0
 418 02b6 DFD1     		bne	.L10
 419              	.L5:
  89:.\memoryEP.c  ****             }
ARM GAS  C:\Users\PROYEC~1\AppData\Local\Temp\cco2H3Fd.s 			page 10


  90:.\memoryEP.c  ****         }
  91:.\memoryEP.c  ****     }
  92:.\memoryEP.c  ****     idSeller[0]=20;
 420              		.loc 1 92 0 is_stmt 1
 421 02b8 174B     		ldr	r3, .L30+40
 422 02ba 1422     		movs	r2, #20
 423 02bc 1A70     		strb	r2, [r3]
  93:.\memoryEP.c  ****     memoryData[12]=idSeller[1];
 424              		.loc 1 93 0
 425 02be 164B     		ldr	r3, .L30+40
 426 02c0 5B78     		ldrb	r3, [r3, #1]
 427 02c2 DBB2     		uxtb	r3, r3
 428 02c4 3B73     		strb	r3, [r7, #12]
  94:.\memoryEP.c  ****     memoryData[13]=idSeller[2];
 429              		.loc 1 94 0
 430 02c6 144B     		ldr	r3, .L30+40
 431 02c8 9B78     		ldrb	r3, [r3, #2]
 432 02ca DBB2     		uxtb	r3, r3
 433 02cc 7B73     		strb	r3, [r7, #13]
  95:.\memoryEP.c  ****     memoryData[14]=idSeller[3];
 434              		.loc 1 95 0
 435 02ce 124B     		ldr	r3, .L30+40
 436 02d0 DB78     		ldrb	r3, [r3, #3]
 437 02d2 DBB2     		uxtb	r3, r3
 438 02d4 BB73     		strb	r3, [r7, #14]
  96:.\memoryEP.c  ****     memoryData[15]=idSeller[4];
 439              		.loc 1 96 0
 440 02d6 104B     		ldr	r3, .L30+40
 441 02d8 1B79     		ldrb	r3, [r3, #4]
 442 02da DBB2     		uxtb	r3, r3
 443 02dc FB73     		strb	r3, [r7, #15]
  97:.\memoryEP.c  ****     EEPROM_1_Write(memoryData,59);
 444              		.loc 1 97 0
 445 02de 3B46     		mov	r3, r7
 446 02e0 1846     		mov	r0, r3
 447 02e2 3B21     		movs	r1, #59
 448 02e4 FFF7FEFF 		bl	EEPROM_1_Write
  98:.\memoryEP.c  ****     for(x=0;x<16;x++){
 449              		.loc 1 98 0
 450 02e8 0023     		movs	r3, #0
 451 02ea FB75     		strb	r3, [r7, #23]
 452 02ec 24E0     		b	.L11
 453              	.L31:
 454 02ee 00BF     		.align	2
 455              	.L30:
 456 02f0 00000000 		.word	digits
 457 02f4 00000000 		.word	decimalMoney
 458 02f8 00000000 		.word	decimalVolume
 459 02fc 00000000 		.word	ppux10
 460 0300 00000000 		.word	productNumber
 461 0304 00000000 		.word	symbols
 462 0308 00000000 		.word	ipAdress
 463 030c 00002440 		.word	1076101120
 464 0310 00000000 		.word	turn
 465 0314 00000000 		.word	typeIdSeller
 466 0318 00000000 		.word	idSeller
 467              	.L12:
ARM GAS  C:\Users\PROYEC~1\AppData\Local\Temp\cco2H3Fd.s 			page 11


  99:.\memoryEP.c  ****         memoryData[x]=idSeller[5+x];
 468              		.loc 1 99 0 discriminator 3
 469 031c FB7D     		ldrb	r3, [r7, #23]	@ zero_extendqisi2
 470 031e FA7D     		ldrb	r2, [r7, #23]	@ zero_extendqisi2
 471 0320 0532     		adds	r2, r2, #5
 472 0322 5249     		ldr	r1, .L32
 473 0324 8A5C     		ldrb	r2, [r1, r2]
 474 0326 D2B2     		uxtb	r2, r2
 475 0328 07F11801 		add	r1, r7, #24
 476 032c 0B44     		add	r3, r3, r1
 477 032e 03F8182C 		strb	r2, [r3, #-24]
  98:.\memoryEP.c  ****     for(x=0;x<16;x++){
 478              		.loc 1 98 0 discriminator 3
 479 0332 FB7D     		ldrb	r3, [r7, #23]	@ zero_extendqisi2
 480 0334 0133     		adds	r3, r3, #1
 481 0336 FB75     		strb	r3, [r7, #23]
 482              	.L11:
  98:.\memoryEP.c  ****     for(x=0;x<16;x++){
 483              		.loc 1 98 0 is_stmt 0 discriminator 1
 484 0338 FB7D     		ldrb	r3, [r7, #23]	@ zero_extendqisi2
 485 033a 0F2B     		cmp	r3, #15
 486 033c EED9     		bls	.L12
 100:.\memoryEP.c  ****     }
 101:.\memoryEP.c  ****     EEPROM_1_Write(memoryData,60);
 487              		.loc 1 101 0 is_stmt 1
 488 033e 3B46     		mov	r3, r7
 489 0340 1846     		mov	r0, r3
 490 0342 3C21     		movs	r1, #60
 491 0344 FFF7FEFF 		bl	EEPROM_1_Write
 102:.\memoryEP.c  ****     y=presetFast[0][0];
 492              		.loc 1 102 0
 493 0348 494B     		ldr	r3, .L32+4
 494 034a 1B78     		ldrb	r3, [r3]	@ zero_extendqisi2
 495 034c 3B61     		str	r3, [r7, #16]
 103:.\memoryEP.c  ****     for(x=7;x>=0;x--){
 496              		.loc 1 103 0
 497 034e 0723     		movs	r3, #7
 498 0350 FB75     		strb	r3, [r7, #23]
 499              	.L17:
 104:.\memoryEP.c  ****         memoryData[x]=presetFast[0][y];
 500              		.loc 1 104 0
 501 0352 FB7D     		ldrb	r3, [r7, #23]	@ zero_extendqisi2
 502 0354 4649     		ldr	r1, .L32+4
 503 0356 3A69     		ldr	r2, [r7, #16]
 504 0358 0A44     		add	r2, r2, r1
 505 035a 1278     		ldrb	r2, [r2]	@ zero_extendqisi2
 506 035c 07F11801 		add	r1, r7, #24
 507 0360 0B44     		add	r3, r3, r1
 508 0362 03F8182C 		strb	r2, [r3, #-24]
 105:.\memoryEP.c  ****         y--;
 509              		.loc 1 105 0
 510 0366 3B69     		ldr	r3, [r7, #16]
 511 0368 013B     		subs	r3, r3, #1
 512 036a 3B61     		str	r3, [r7, #16]
 106:.\memoryEP.c  ****         if(y<=0){
 513              		.loc 1 106 0
 514 036c 3B69     		ldr	r3, [r7, #16]
ARM GAS  C:\Users\PROYEC~1\AppData\Local\Temp\cco2H3Fd.s 			page 12


 515 036e 002B     		cmp	r3, #0
 516 0370 14DC     		bgt	.L13
 107:.\memoryEP.c  ****             while(x>0){
 517              		.loc 1 107 0
 518 0372 09E0     		b	.L14
 519              	.L15:
 108:.\memoryEP.c  ****                 x--;
 520              		.loc 1 108 0
 521 0374 FB7D     		ldrb	r3, [r7, #23]	@ zero_extendqisi2
 522 0376 013B     		subs	r3, r3, #1
 523 0378 FB75     		strb	r3, [r7, #23]
 109:.\memoryEP.c  ****                 memoryData[x]='0';
 524              		.loc 1 109 0
 525 037a FB7D     		ldrb	r3, [r7, #23]	@ zero_extendqisi2
 526 037c 07F11802 		add	r2, r7, #24
 527 0380 1344     		add	r3, r3, r2
 528 0382 3022     		movs	r2, #48
 529 0384 03F8182C 		strb	r2, [r3, #-24]
 530              	.L14:
 107:.\memoryEP.c  ****             while(x>0){
 531              		.loc 1 107 0
 532 0388 FB7D     		ldrb	r3, [r7, #23]	@ zero_extendqisi2
 533 038a 002B     		cmp	r3, #0
 534 038c F2D1     		bne	.L15
 110:.\memoryEP.c  ****             }
 111:.\memoryEP.c  ****             break;
 535              		.loc 1 111 0
 536 038e 00BF     		nop
 112:.\memoryEP.c  ****         }
 113:.\memoryEP.c  ****     }
 114:.\memoryEP.c  ****     y=presetFast[1][0];
 537              		.loc 1 114 0
 538 0390 374B     		ldr	r3, .L32+4
 539 0392 9B7A     		ldrb	r3, [r3, #10]	@ zero_extendqisi2
 540 0394 3B61     		str	r3, [r7, #16]
 115:.\memoryEP.c  ****     for(x=15;x>=8;x--){
 541              		.loc 1 115 0
 542 0396 0F23     		movs	r3, #15
 543 0398 FB75     		strb	r3, [r7, #23]
 544 039a 26E0     		b	.L18
 545              	.L13:
 103:.\memoryEP.c  ****         memoryData[x]=presetFast[0][y];
 546              		.loc 1 103 0
 547 039c FB7D     		ldrb	r3, [r7, #23]	@ zero_extendqisi2
 548 039e 013B     		subs	r3, r3, #1
 549 03a0 FB75     		strb	r3, [r7, #23]
 113:.\memoryEP.c  ****     y=presetFast[1][0];
 550              		.loc 1 113 0
 551 03a2 D6E7     		b	.L17
 552              	.L23:
 116:.\memoryEP.c  ****         memoryData[x]=presetFast[1][y];
 553              		.loc 1 116 0
 554 03a4 FB7D     		ldrb	r3, [r7, #23]	@ zero_extendqisi2
 555 03a6 3249     		ldr	r1, .L32+4
 556 03a8 3A69     		ldr	r2, [r7, #16]
 557 03aa 0A44     		add	r2, r2, r1
 558 03ac 0A32     		adds	r2, r2, #10
ARM GAS  C:\Users\PROYEC~1\AppData\Local\Temp\cco2H3Fd.s 			page 13


 559 03ae 1278     		ldrb	r2, [r2]	@ zero_extendqisi2
 560 03b0 07F11801 		add	r1, r7, #24
 561 03b4 0B44     		add	r3, r3, r1
 562 03b6 03F8182C 		strb	r2, [r3, #-24]
 117:.\memoryEP.c  ****         y--;
 563              		.loc 1 117 0
 564 03ba 3B69     		ldr	r3, [r7, #16]
 565 03bc 013B     		subs	r3, r3, #1
 566 03be 3B61     		str	r3, [r7, #16]
 118:.\memoryEP.c  ****         if(y<=0){
 567              		.loc 1 118 0
 568 03c0 3B69     		ldr	r3, [r7, #16]
 569 03c2 002B     		cmp	r3, #0
 570 03c4 0EDC     		bgt	.L19
 119:.\memoryEP.c  ****             while(x>8){
 571              		.loc 1 119 0
 572 03c6 09E0     		b	.L20
 573              	.L21:
 120:.\memoryEP.c  ****                 x--;
 574              		.loc 1 120 0
 575 03c8 FB7D     		ldrb	r3, [r7, #23]	@ zero_extendqisi2
 576 03ca 013B     		subs	r3, r3, #1
 577 03cc FB75     		strb	r3, [r7, #23]
 121:.\memoryEP.c  ****                 memoryData[x]='0';
 578              		.loc 1 121 0
 579 03ce FB7D     		ldrb	r3, [r7, #23]	@ zero_extendqisi2
 580 03d0 07F11802 		add	r2, r7, #24
 581 03d4 1344     		add	r3, r3, r2
 582 03d6 3022     		movs	r2, #48
 583 03d8 03F8182C 		strb	r2, [r3, #-24]
 584              	.L20:
 119:.\memoryEP.c  ****             while(x>8){
 585              		.loc 1 119 0
 586 03dc FB7D     		ldrb	r3, [r7, #23]	@ zero_extendqisi2
 587 03de 082B     		cmp	r3, #8
 588 03e0 F2D8     		bhi	.L21
 122:.\memoryEP.c  ****             }
 123:.\memoryEP.c  ****             break;
 589              		.loc 1 123 0
 590 03e2 05E0     		b	.L22
 591              	.L19:
 115:.\memoryEP.c  ****         memoryData[x]=presetFast[1][y];
 592              		.loc 1 115 0 discriminator 2
 593 03e4 FB7D     		ldrb	r3, [r7, #23]	@ zero_extendqisi2
 594 03e6 013B     		subs	r3, r3, #1
 595 03e8 FB75     		strb	r3, [r7, #23]
 596              	.L18:
 115:.\memoryEP.c  ****         memoryData[x]=presetFast[1][y];
 597              		.loc 1 115 0 is_stmt 0 discriminator 1
 598 03ea FB7D     		ldrb	r3, [r7, #23]	@ zero_extendqisi2
 599 03ec 072B     		cmp	r3, #7
 600 03ee D9D8     		bhi	.L23
 601              	.L22:
 124:.\memoryEP.c  ****         }
 125:.\memoryEP.c  ****     }
 126:.\memoryEP.c  ****     EEPROM_1_Write(memoryData,57);
 602              		.loc 1 126 0 is_stmt 1
ARM GAS  C:\Users\PROYEC~1\AppData\Local\Temp\cco2H3Fd.s 			page 14


 603 03f0 3B46     		mov	r3, r7
 604 03f2 1846     		mov	r0, r3
 605 03f4 3921     		movs	r1, #57
 606 03f6 FFF7FEFF 		bl	EEPROM_1_Write
 127:.\memoryEP.c  ****     y=presetFast[2][0];
 607              		.loc 1 127 0
 608 03fa 1D4B     		ldr	r3, .L32+4
 609 03fc 1B7D     		ldrb	r3, [r3, #20]	@ zero_extendqisi2
 610 03fe 3B61     		str	r3, [r7, #16]
 128:.\memoryEP.c  ****     for(x=7;x>=0;x--){
 611              		.loc 1 128 0
 612 0400 0723     		movs	r3, #7
 613 0402 FB75     		strb	r3, [r7, #23]
 614              	.L28:
 129:.\memoryEP.c  ****         memoryData[x]=presetFast[2][y];
 615              		.loc 1 129 0
 616 0404 FB7D     		ldrb	r3, [r7, #23]	@ zero_extendqisi2
 617 0406 1A49     		ldr	r1, .L32+4
 618 0408 3A69     		ldr	r2, [r7, #16]
 619 040a 0A44     		add	r2, r2, r1
 620 040c 1432     		adds	r2, r2, #20
 621 040e 1278     		ldrb	r2, [r2]	@ zero_extendqisi2
 622 0410 07F11801 		add	r1, r7, #24
 623 0414 0B44     		add	r3, r3, r1
 624 0416 03F8182C 		strb	r2, [r3, #-24]
 130:.\memoryEP.c  ****         y--;
 625              		.loc 1 130 0
 626 041a 3B69     		ldr	r3, [r7, #16]
 627 041c 013B     		subs	r3, r3, #1
 628 041e 3B61     		str	r3, [r7, #16]
 131:.\memoryEP.c  ****         if(y<=0){
 629              		.loc 1 131 0
 630 0420 3B69     		ldr	r3, [r7, #16]
 631 0422 002B     		cmp	r3, #0
 632 0424 0EDC     		bgt	.L24
 132:.\memoryEP.c  ****             while(x>0){
 633              		.loc 1 132 0
 634 0426 09E0     		b	.L25
 635              	.L26:
 133:.\memoryEP.c  ****                 x--;
 636              		.loc 1 133 0
 637 0428 FB7D     		ldrb	r3, [r7, #23]	@ zero_extendqisi2
 638 042a 013B     		subs	r3, r3, #1
 639 042c FB75     		strb	r3, [r7, #23]
 134:.\memoryEP.c  ****                 memoryData[x]='0';
 640              		.loc 1 134 0
 641 042e FB7D     		ldrb	r3, [r7, #23]	@ zero_extendqisi2
 642 0430 07F11802 		add	r2, r7, #24
 643 0434 1344     		add	r3, r3, r2
 644 0436 3022     		movs	r2, #48
 645 0438 03F8182C 		strb	r2, [r3, #-24]
 646              	.L25:
 132:.\memoryEP.c  ****             while(x>0){
 647              		.loc 1 132 0
 648 043c FB7D     		ldrb	r3, [r7, #23]	@ zero_extendqisi2
 649 043e 002B     		cmp	r3, #0
 650 0440 F2D1     		bne	.L26
ARM GAS  C:\Users\PROYEC~1\AppData\Local\Temp\cco2H3Fd.s 			page 15


 135:.\memoryEP.c  ****             }
 136:.\memoryEP.c  ****             break;
 651              		.loc 1 136 0
 652 0442 03E0     		b	.L29
 653              	.L24:
 128:.\memoryEP.c  ****         memoryData[x]=presetFast[2][y];
 654              		.loc 1 128 0
 655 0444 FB7D     		ldrb	r3, [r7, #23]	@ zero_extendqisi2
 656 0446 013B     		subs	r3, r3, #1
 657 0448 FB75     		strb	r3, [r7, #23]
 137:.\memoryEP.c  ****         }
 138:.\memoryEP.c  ****     }
 658              		.loc 1 138 0
 659 044a DBE7     		b	.L28
 660              	.L29:
 139:.\memoryEP.c  ****     memoryData[8]=screen[0];
 661              		.loc 1 139 0
 662 044c 094B     		ldr	r3, .L32+8
 663 044e 1B78     		ldrb	r3, [r3]
 664 0450 DBB2     		uxtb	r3, r3
 665 0452 3B72     		strb	r3, [r7, #8]
 140:.\memoryEP.c  ****     memoryData[9]=screen[1];
 666              		.loc 1 140 0
 667 0454 074B     		ldr	r3, .L32+8
 668 0456 5B78     		ldrb	r3, [r3, #1]
 669 0458 DBB2     		uxtb	r3, r3
 670 045a 7B72     		strb	r3, [r7, #9]
 141:.\memoryEP.c  ****     EEPROM_1_Write(memoryData,58);
 671              		.loc 1 141 0
 672 045c 3B46     		mov	r3, r7
 673 045e 1846     		mov	r0, r3
 674 0460 3A21     		movs	r1, #58
 675 0462 FFF7FEFF 		bl	EEPROM_1_Write
 142:.\memoryEP.c  **** }
 676              		.loc 1 142 0
 677 0466 1837     		adds	r7, r7, #24
 678              		.cfi_def_cfa_offset 16
 679 0468 BD46     		mov	sp, r7
 680              		.cfi_def_cfa_register 13
 681              		@ sp needed
 682 046a B0BD     		pop	{r4, r5, r7, pc}
 683              	.L33:
 684              		.align	2
 685              	.L32:
 686 046c 00000000 		.word	idSeller
 687 0470 00000000 		.word	presetFast
 688 0474 00000000 		.word	screen
 689              		.cfi_endproc
 690              	.LFE56:
 691              		.size	write_settings, .-write_settings
 692              		.section	.text.write_ppus,"ax",%progbits
 693              		.align	2
 694              		.global	write_ppus
 695              		.thumb
 696              		.thumb_func
 697              		.type	write_ppus, %function
 698              	write_ppus:
ARM GAS  C:\Users\PROYEC~1\AppData\Local\Temp\cco2H3Fd.s 			page 16


 699              	.LFB57:
 143:.\memoryEP.c  **** 
 144:.\memoryEP.c  **** /*
 145:.\memoryEP.c  **** ***************************************************************************************************
 146:.\memoryEP.c  **** *                                         void write_ppus()
 147:.\memoryEP.c  **** *
 148:.\memoryEP.c  **** * Description : 
 149:.\memoryEP.c  **** *               
 150:.\memoryEP.c  **** *
 151:.\memoryEP.c  **** * Argument(s) : none
 152:.\memoryEP.c  **** *
 153:.\memoryEP.c  **** * Return(s)   : none
 154:.\memoryEP.c  **** *
 155:.\memoryEP.c  **** * Caller(s)   :  
 156:.\memoryEP.c  **** *
 157:.\memoryEP.c  **** * Note(s)     : none.
 158:.\memoryEP.c  **** ***************************************************************************************************
 159:.\memoryEP.c  **** */
 160:.\memoryEP.c  **** 
 161:.\memoryEP.c  **** void write_ppus(){
 700              		.loc 1 161 0
 701              		.cfi_startproc
 702              		@ args = 0, pretend = 0, frame = 24
 703              		@ frame_needed = 1, uses_anonymous_args = 0
 704 0000 80B5     		push	{r7, lr}
 705              		.cfi_def_cfa_offset 8
 706              		.cfi_offset 7, -8
 707              		.cfi_offset 14, -4
 708 0002 86B0     		sub	sp, sp, #24
 709              		.cfi_def_cfa_offset 32
 710 0004 00AF     		add	r7, sp, #0
 711              		.cfi_def_cfa_register 7
 162:.\memoryEP.c  ****     uint8 memoryData[16]={0,0,0,0,0,0,0,0,0,0,0,0,0,0,0,0},x,y;
 712              		.loc 1 162 0
 713 0006 3B1D     		adds	r3, r7, #4
 714 0008 0022     		movs	r2, #0
 715 000a 1A60     		str	r2, [r3]
 716 000c 0433     		adds	r3, r3, #4
 717 000e 0022     		movs	r2, #0
 718 0010 1A60     		str	r2, [r3]
 719 0012 0433     		adds	r3, r3, #4
 720 0014 0022     		movs	r2, #0
 721 0016 1A60     		str	r2, [r3]
 722 0018 0433     		adds	r3, r3, #4
 723 001a 0022     		movs	r2, #0
 724 001c 1A60     		str	r2, [r3]
 725 001e 0433     		adds	r3, r3, #4
 163:.\memoryEP.c  **** 
 164:.\memoryEP.c  ****     y=1;
 726              		.loc 1 164 0
 727 0020 0123     		movs	r3, #1
 728 0022 BB75     		strb	r3, [r7, #22]
 165:.\memoryEP.c  ****     for(x=0;x<6;x++){
 729              		.loc 1 165 0
 730 0024 0023     		movs	r3, #0
 731 0026 FB75     		strb	r3, [r7, #23]
 732 0028 10E0     		b	.L35
ARM GAS  C:\Users\PROYEC~1\AppData\Local\Temp\cco2H3Fd.s 			page 17


 733              	.L36:
 166:.\memoryEP.c  ****         memoryData[x]=side.a.ppuAuthorized[0][y];
 734              		.loc 1 166 0 discriminator 3
 735 002a FB7D     		ldrb	r3, [r7, #23]	@ zero_extendqisi2
 736 002c BA7D     		ldrb	r2, [r7, #22]	@ zero_extendqisi2
 737 002e 7149     		ldr	r1, .L51
 738 0030 0A44     		add	r2, r2, r1
 739 0032 92F8B520 		ldrb	r2, [r2, #181]	@ zero_extendqisi2
 740 0036 07F11801 		add	r1, r7, #24
 741 003a 0B44     		add	r3, r3, r1
 742 003c 03F8142C 		strb	r2, [r3, #-20]
 167:.\memoryEP.c  ****         y++;
 743              		.loc 1 167 0 discriminator 3
 744 0040 BB7D     		ldrb	r3, [r7, #22]	@ zero_extendqisi2
 745 0042 0133     		adds	r3, r3, #1
 746 0044 BB75     		strb	r3, [r7, #22]
 165:.\memoryEP.c  ****     for(x=0;x<6;x++){
 747              		.loc 1 165 0 discriminator 3
 748 0046 FB7D     		ldrb	r3, [r7, #23]	@ zero_extendqisi2
 749 0048 0133     		adds	r3, r3, #1
 750 004a FB75     		strb	r3, [r7, #23]
 751              	.L35:
 165:.\memoryEP.c  ****     for(x=0;x<6;x++){
 752              		.loc 1 165 0 is_stmt 0 discriminator 1
 753 004c FB7D     		ldrb	r3, [r7, #23]	@ zero_extendqisi2
 754 004e 052B     		cmp	r3, #5
 755 0050 EBD9     		bls	.L36
 168:.\memoryEP.c  ****     }
 169:.\memoryEP.c  ****     y=1;
 756              		.loc 1 169 0 is_stmt 1
 757 0052 0123     		movs	r3, #1
 758 0054 BB75     		strb	r3, [r7, #22]
 170:.\memoryEP.c  ****     for(x=6;x<12;x++){
 759              		.loc 1 170 0
 760 0056 0623     		movs	r3, #6
 761 0058 FB75     		strb	r3, [r7, #23]
 762 005a 10E0     		b	.L37
 763              	.L38:
 171:.\memoryEP.c  ****         memoryData[x]=side.a.ppuAuthorized[1][y];
 764              		.loc 1 171 0 discriminator 3
 765 005c FB7D     		ldrb	r3, [r7, #23]	@ zero_extendqisi2
 766 005e BA7D     		ldrb	r2, [r7, #22]	@ zero_extendqisi2
 767 0060 6449     		ldr	r1, .L51
 768 0062 0A44     		add	r2, r2, r1
 769 0064 92F8BD20 		ldrb	r2, [r2, #189]	@ zero_extendqisi2
 770 0068 07F11801 		add	r1, r7, #24
 771 006c 0B44     		add	r3, r3, r1
 772 006e 03F8142C 		strb	r2, [r3, #-20]
 172:.\memoryEP.c  ****         y++;
 773              		.loc 1 172 0 discriminator 3
 774 0072 BB7D     		ldrb	r3, [r7, #22]	@ zero_extendqisi2
 775 0074 0133     		adds	r3, r3, #1
 776 0076 BB75     		strb	r3, [r7, #22]
 170:.\memoryEP.c  ****     for(x=6;x<12;x++){
 777              		.loc 1 170 0 discriminator 3
 778 0078 FB7D     		ldrb	r3, [r7, #23]	@ zero_extendqisi2
 779 007a 0133     		adds	r3, r3, #1
ARM GAS  C:\Users\PROYEC~1\AppData\Local\Temp\cco2H3Fd.s 			page 18


 780 007c FB75     		strb	r3, [r7, #23]
 781              	.L37:
 170:.\memoryEP.c  ****     for(x=6;x<12;x++){
 782              		.loc 1 170 0 is_stmt 0 discriminator 1
 783 007e FB7D     		ldrb	r3, [r7, #23]	@ zero_extendqisi2
 784 0080 0B2B     		cmp	r3, #11
 785 0082 EBD9     		bls	.L38
 173:.\memoryEP.c  ****     }
 174:.\memoryEP.c  ****     y=1;
 786              		.loc 1 174 0 is_stmt 1
 787 0084 0123     		movs	r3, #1
 788 0086 BB75     		strb	r3, [r7, #22]
 175:.\memoryEP.c  ****     for(x=12;x<16;x++){
 789              		.loc 1 175 0
 790 0088 0C23     		movs	r3, #12
 791 008a FB75     		strb	r3, [r7, #23]
 792 008c 10E0     		b	.L39
 793              	.L40:
 176:.\memoryEP.c  ****         memoryData[x]=side.a.ppuAuthorized[2][y];
 794              		.loc 1 176 0 discriminator 3
 795 008e FB7D     		ldrb	r3, [r7, #23]	@ zero_extendqisi2
 796 0090 BA7D     		ldrb	r2, [r7, #22]	@ zero_extendqisi2
 797 0092 5849     		ldr	r1, .L51
 798 0094 0A44     		add	r2, r2, r1
 799 0096 92F8C520 		ldrb	r2, [r2, #197]	@ zero_extendqisi2
 800 009a 07F11801 		add	r1, r7, #24
 801 009e 0B44     		add	r3, r3, r1
 802 00a0 03F8142C 		strb	r2, [r3, #-20]
 177:.\memoryEP.c  ****         y++;
 803              		.loc 1 177 0 discriminator 3
 804 00a4 BB7D     		ldrb	r3, [r7, #22]	@ zero_extendqisi2
 805 00a6 0133     		adds	r3, r3, #1
 806 00a8 BB75     		strb	r3, [r7, #22]
 175:.\memoryEP.c  ****     for(x=12;x<16;x++){
 807              		.loc 1 175 0 discriminator 3
 808 00aa FB7D     		ldrb	r3, [r7, #23]	@ zero_extendqisi2
 809 00ac 0133     		adds	r3, r3, #1
 810 00ae FB75     		strb	r3, [r7, #23]
 811              	.L39:
 175:.\memoryEP.c  ****     for(x=12;x<16;x++){
 812              		.loc 1 175 0 is_stmt 0 discriminator 1
 813 00b0 FB7D     		ldrb	r3, [r7, #23]	@ zero_extendqisi2
 814 00b2 0F2B     		cmp	r3, #15
 815 00b4 EBD9     		bls	.L40
 178:.\memoryEP.c  ****     }
 179:.\memoryEP.c  ****     EEPROM_1_Write(memoryData,61);
 816              		.loc 1 179 0 is_stmt 1
 817 00b6 3B1D     		adds	r3, r7, #4
 818 00b8 1846     		mov	r0, r3
 819 00ba 3D21     		movs	r1, #61
 820 00bc FFF7FEFF 		bl	EEPROM_1_Write
 180:.\memoryEP.c  ****     memoryData[0]=side.a.ppuAuthorized[2][5];
 821              		.loc 1 180 0
 822 00c0 4C4B     		ldr	r3, .L51
 823 00c2 93F8CA30 		ldrb	r3, [r3, #202]	@ zero_extendqisi2
 824 00c6 3B71     		strb	r3, [r7, #4]
 181:.\memoryEP.c  ****     memoryData[1]=side.a.ppuAuthorized[2][6];
ARM GAS  C:\Users\PROYEC~1\AppData\Local\Temp\cco2H3Fd.s 			page 19


 825              		.loc 1 181 0
 826 00c8 4A4B     		ldr	r3, .L51
 827 00ca 93F8CB30 		ldrb	r3, [r3, #203]	@ zero_extendqisi2
 828 00ce 7B71     		strb	r3, [r7, #5]
 182:.\memoryEP.c  ****     y=1;
 829              		.loc 1 182 0
 830 00d0 0123     		movs	r3, #1
 831 00d2 BB75     		strb	r3, [r7, #22]
 183:.\memoryEP.c  ****     for(x=2;x<8;x++){
 832              		.loc 1 183 0
 833 00d4 0223     		movs	r3, #2
 834 00d6 FB75     		strb	r3, [r7, #23]
 835 00d8 10E0     		b	.L41
 836              	.L42:
 184:.\memoryEP.c  ****         memoryData[x]=side.a.ppuAuthorized[3][y];
 837              		.loc 1 184 0 discriminator 3
 838 00da FB7D     		ldrb	r3, [r7, #23]	@ zero_extendqisi2
 839 00dc BA7D     		ldrb	r2, [r7, #22]	@ zero_extendqisi2
 840 00de 4549     		ldr	r1, .L51
 841 00e0 0A44     		add	r2, r2, r1
 842 00e2 92F8CD20 		ldrb	r2, [r2, #205]	@ zero_extendqisi2
 843 00e6 07F11801 		add	r1, r7, #24
 844 00ea 0B44     		add	r3, r3, r1
 845 00ec 03F8142C 		strb	r2, [r3, #-20]
 185:.\memoryEP.c  ****         y++;
 846              		.loc 1 185 0 discriminator 3
 847 00f0 BB7D     		ldrb	r3, [r7, #22]	@ zero_extendqisi2
 848 00f2 0133     		adds	r3, r3, #1
 849 00f4 BB75     		strb	r3, [r7, #22]
 183:.\memoryEP.c  ****     for(x=2;x<8;x++){
 850              		.loc 1 183 0 discriminator 3
 851 00f6 FB7D     		ldrb	r3, [r7, #23]	@ zero_extendqisi2
 852 00f8 0133     		adds	r3, r3, #1
 853 00fa FB75     		strb	r3, [r7, #23]
 854              	.L41:
 183:.\memoryEP.c  ****     for(x=2;x<8;x++){
 855              		.loc 1 183 0 is_stmt 0 discriminator 1
 856 00fc FB7D     		ldrb	r3, [r7, #23]	@ zero_extendqisi2
 857 00fe 072B     		cmp	r3, #7
 858 0100 EBD9     		bls	.L42
 186:.\memoryEP.c  ****     }
 187:.\memoryEP.c  ****     y=1;
 859              		.loc 1 187 0 is_stmt 1
 860 0102 0123     		movs	r3, #1
 861 0104 BB75     		strb	r3, [r7, #22]
 188:.\memoryEP.c  ****     for(x=8;x<14;x++){
 862              		.loc 1 188 0
 863 0106 0823     		movs	r3, #8
 864 0108 FB75     		strb	r3, [r7, #23]
 865 010a 10E0     		b	.L43
 866              	.L44:
 189:.\memoryEP.c  ****         memoryData[x]=side.b.ppuAuthorized[0][y];
 867              		.loc 1 189 0 discriminator 3
 868 010c FB7D     		ldrb	r3, [r7, #23]	@ zero_extendqisi2
 869 010e BA7D     		ldrb	r2, [r7, #22]	@ zero_extendqisi2
 870 0110 3849     		ldr	r1, .L51
 871 0112 0A44     		add	r2, r2, r1
ARM GAS  C:\Users\PROYEC~1\AppData\Local\Temp\cco2H3Fd.s 			page 20


 872 0114 92F8B521 		ldrb	r2, [r2, #437]	@ zero_extendqisi2
 873 0118 07F11801 		add	r1, r7, #24
 874 011c 0B44     		add	r3, r3, r1
 875 011e 03F8142C 		strb	r2, [r3, #-20]
 190:.\memoryEP.c  ****         y++;
 876              		.loc 1 190 0 discriminator 3
 877 0122 BB7D     		ldrb	r3, [r7, #22]	@ zero_extendqisi2
 878 0124 0133     		adds	r3, r3, #1
 879 0126 BB75     		strb	r3, [r7, #22]
 188:.\memoryEP.c  ****     for(x=8;x<14;x++){
 880              		.loc 1 188 0 discriminator 3
 881 0128 FB7D     		ldrb	r3, [r7, #23]	@ zero_extendqisi2
 882 012a 0133     		adds	r3, r3, #1
 883 012c FB75     		strb	r3, [r7, #23]
 884              	.L43:
 188:.\memoryEP.c  ****     for(x=8;x<14;x++){
 885              		.loc 1 188 0 is_stmt 0 discriminator 1
 886 012e FB7D     		ldrb	r3, [r7, #23]	@ zero_extendqisi2
 887 0130 0D2B     		cmp	r3, #13
 888 0132 EBD9     		bls	.L44
 191:.\memoryEP.c  ****     }
 192:.\memoryEP.c  ****     memoryData[14]=side.b.ppuAuthorized[1][1];
 889              		.loc 1 192 0 is_stmt 1
 890 0134 2F4B     		ldr	r3, .L51
 891 0136 93F8BE31 		ldrb	r3, [r3, #446]	@ zero_extendqisi2
 892 013a BB74     		strb	r3, [r7, #18]
 193:.\memoryEP.c  ****     memoryData[15]=side.b.ppuAuthorized[1][2];
 893              		.loc 1 193 0
 894 013c 2D4B     		ldr	r3, .L51
 895 013e 93F8BF31 		ldrb	r3, [r3, #447]	@ zero_extendqisi2
 896 0142 FB74     		strb	r3, [r7, #19]
 194:.\memoryEP.c  ****     EEPROM_1_Write(memoryData,62);
 897              		.loc 1 194 0
 898 0144 3B1D     		adds	r3, r7, #4
 899 0146 1846     		mov	r0, r3
 900 0148 3E21     		movs	r1, #62
 901 014a FFF7FEFF 		bl	EEPROM_1_Write
 195:.\memoryEP.c  ****     y=3;
 902              		.loc 1 195 0
 903 014e 0323     		movs	r3, #3
 904 0150 BB75     		strb	r3, [r7, #22]
 196:.\memoryEP.c  ****     for(x=0;x<4;x++){
 905              		.loc 1 196 0
 906 0152 0023     		movs	r3, #0
 907 0154 FB75     		strb	r3, [r7, #23]
 908 0156 10E0     		b	.L45
 909              	.L46:
 197:.\memoryEP.c  ****         memoryData[x]=side.b.ppuAuthorized[1][y];
 910              		.loc 1 197 0 discriminator 3
 911 0158 FB7D     		ldrb	r3, [r7, #23]	@ zero_extendqisi2
 912 015a BA7D     		ldrb	r2, [r7, #22]	@ zero_extendqisi2
 913 015c 2549     		ldr	r1, .L51
 914 015e 0A44     		add	r2, r2, r1
 915 0160 92F8BD21 		ldrb	r2, [r2, #445]	@ zero_extendqisi2
 916 0164 07F11801 		add	r1, r7, #24
 917 0168 0B44     		add	r3, r3, r1
 918 016a 03F8142C 		strb	r2, [r3, #-20]
ARM GAS  C:\Users\PROYEC~1\AppData\Local\Temp\cco2H3Fd.s 			page 21


 198:.\memoryEP.c  ****         y++;
 919              		.loc 1 198 0 discriminator 3
 920 016e BB7D     		ldrb	r3, [r7, #22]	@ zero_extendqisi2
 921 0170 0133     		adds	r3, r3, #1
 922 0172 BB75     		strb	r3, [r7, #22]
 196:.\memoryEP.c  ****     for(x=0;x<4;x++){
 923              		.loc 1 196 0 discriminator 3
 924 0174 FB7D     		ldrb	r3, [r7, #23]	@ zero_extendqisi2
 925 0176 0133     		adds	r3, r3, #1
 926 0178 FB75     		strb	r3, [r7, #23]
 927              	.L45:
 196:.\memoryEP.c  ****     for(x=0;x<4;x++){
 928              		.loc 1 196 0 is_stmt 0 discriminator 1
 929 017a FB7D     		ldrb	r3, [r7, #23]	@ zero_extendqisi2
 930 017c 032B     		cmp	r3, #3
 931 017e EBD9     		bls	.L46
 199:.\memoryEP.c  ****     }
 200:.\memoryEP.c  ****     y=1;
 932              		.loc 1 200 0 is_stmt 1
 933 0180 0123     		movs	r3, #1
 934 0182 BB75     		strb	r3, [r7, #22]
 201:.\memoryEP.c  ****     for(x=4;x<10;x++){
 935              		.loc 1 201 0
 936 0184 0423     		movs	r3, #4
 937 0186 FB75     		strb	r3, [r7, #23]
 938 0188 10E0     		b	.L47
 939              	.L48:
 202:.\memoryEP.c  ****         memoryData[x]=side.b.ppuAuthorized[2][y];
 940              		.loc 1 202 0 discriminator 3
 941 018a FB7D     		ldrb	r3, [r7, #23]	@ zero_extendqisi2
 942 018c BA7D     		ldrb	r2, [r7, #22]	@ zero_extendqisi2
 943 018e 1949     		ldr	r1, .L51
 944 0190 0A44     		add	r2, r2, r1
 945 0192 92F8C521 		ldrb	r2, [r2, #453]	@ zero_extendqisi2
 946 0196 07F11801 		add	r1, r7, #24
 947 019a 0B44     		add	r3, r3, r1
 948 019c 03F8142C 		strb	r2, [r3, #-20]
 203:.\memoryEP.c  ****         y++;
 949              		.loc 1 203 0 discriminator 3
 950 01a0 BB7D     		ldrb	r3, [r7, #22]	@ zero_extendqisi2
 951 01a2 0133     		adds	r3, r3, #1
 952 01a4 BB75     		strb	r3, [r7, #22]
 201:.\memoryEP.c  ****     for(x=4;x<10;x++){
 953              		.loc 1 201 0 discriminator 3
 954 01a6 FB7D     		ldrb	r3, [r7, #23]	@ zero_extendqisi2
 955 01a8 0133     		adds	r3, r3, #1
 956 01aa FB75     		strb	r3, [r7, #23]
 957              	.L47:
 201:.\memoryEP.c  ****     for(x=4;x<10;x++){
 958              		.loc 1 201 0 is_stmt 0 discriminator 1
 959 01ac FB7D     		ldrb	r3, [r7, #23]	@ zero_extendqisi2
 960 01ae 092B     		cmp	r3, #9
 961 01b0 EBD9     		bls	.L48
 204:.\memoryEP.c  ****     }
 205:.\memoryEP.c  ****     y=1;
 962              		.loc 1 205 0 is_stmt 1
 963 01b2 0123     		movs	r3, #1
ARM GAS  C:\Users\PROYEC~1\AppData\Local\Temp\cco2H3Fd.s 			page 22


 964 01b4 BB75     		strb	r3, [r7, #22]
 206:.\memoryEP.c  ****     for(x=10;x<16;x++){
 965              		.loc 1 206 0
 966 01b6 0A23     		movs	r3, #10
 967 01b8 FB75     		strb	r3, [r7, #23]
 968 01ba 10E0     		b	.L49
 969              	.L50:
 207:.\memoryEP.c  ****         memoryData[x]=side.b.ppuAuthorized[3][y];
 970              		.loc 1 207 0 discriminator 3
 971 01bc FB7D     		ldrb	r3, [r7, #23]	@ zero_extendqisi2
 972 01be BA7D     		ldrb	r2, [r7, #22]	@ zero_extendqisi2
 973 01c0 0C49     		ldr	r1, .L51
 974 01c2 0A44     		add	r2, r2, r1
 975 01c4 92F8CD21 		ldrb	r2, [r2, #461]	@ zero_extendqisi2
 976 01c8 07F11801 		add	r1, r7, #24
 977 01cc 0B44     		add	r3, r3, r1
 978 01ce 03F8142C 		strb	r2, [r3, #-20]
 208:.\memoryEP.c  ****         y++;
 979              		.loc 1 208 0 discriminator 3
 980 01d2 BB7D     		ldrb	r3, [r7, #22]	@ zero_extendqisi2
 981 01d4 0133     		adds	r3, r3, #1
 982 01d6 BB75     		strb	r3, [r7, #22]
 206:.\memoryEP.c  ****     for(x=10;x<16;x++){
 983              		.loc 1 206 0 discriminator 3
 984 01d8 FB7D     		ldrb	r3, [r7, #23]	@ zero_extendqisi2
 985 01da 0133     		adds	r3, r3, #1
 986 01dc FB75     		strb	r3, [r7, #23]
 987              	.L49:
 206:.\memoryEP.c  ****     for(x=10;x<16;x++){
 988              		.loc 1 206 0 is_stmt 0 discriminator 1
 989 01de FB7D     		ldrb	r3, [r7, #23]	@ zero_extendqisi2
 990 01e0 0F2B     		cmp	r3, #15
 991 01e2 EBD9     		bls	.L50
 209:.\memoryEP.c  ****     }
 210:.\memoryEP.c  ****     EEPROM_1_Write(memoryData,63);
 992              		.loc 1 210 0 is_stmt 1
 993 01e4 3B1D     		adds	r3, r7, #4
 994 01e6 1846     		mov	r0, r3
 995 01e8 3F21     		movs	r1, #63
 996 01ea FFF7FEFF 		bl	EEPROM_1_Write
 211:.\memoryEP.c  **** }
 997              		.loc 1 211 0
 998 01ee 1837     		adds	r7, r7, #24
 999              		.cfi_def_cfa_offset 8
 1000 01f0 BD46     		mov	sp, r7
 1001              		.cfi_def_cfa_register 13
 1002              		@ sp needed
 1003 01f2 80BD     		pop	{r7, pc}
 1004              	.L52:
 1005              		.align	2
 1006              	.L51:
 1007 01f4 00000000 		.word	side
 1008              		.cfi_endproc
 1009              	.LFE57:
 1010              		.size	write_ppus, .-write_ppus
 1011              		.section	.text.write_buttons,"ax",%progbits
 1012              		.align	2
ARM GAS  C:\Users\PROYEC~1\AppData\Local\Temp\cco2H3Fd.s 			page 23


 1013              		.global	write_buttons
 1014              		.thumb
 1015              		.thumb_func
 1016              		.type	write_buttons, %function
 1017              	write_buttons:
 1018              	.LFB58:
 212:.\memoryEP.c  **** 
 213:.\memoryEP.c  **** /*
 214:.\memoryEP.c  **** ***************************************************************************************************
 215:.\memoryEP.c  **** *                                         void write_buttons()
 216:.\memoryEP.c  **** *
 217:.\memoryEP.c  **** * Description : 
 218:.\memoryEP.c  **** *               
 219:.\memoryEP.c  **** *
 220:.\memoryEP.c  **** * Argument(s) : none
 221:.\memoryEP.c  **** *
 222:.\memoryEP.c  **** * Return(s)   : none
 223:.\memoryEP.c  **** *
 224:.\memoryEP.c  **** * Caller(s)   :  
 225:.\memoryEP.c  **** *
 226:.\memoryEP.c  **** * Note(s)     : none.
 227:.\memoryEP.c  **** ***************************************************************************************************
 228:.\memoryEP.c  **** */
 229:.\memoryEP.c  **** 
 230:.\memoryEP.c  **** void write_buttons(){
 1019              		.loc 1 230 0
 1020              		.cfi_startproc
 1021              		@ args = 0, pretend = 0, frame = 24
 1022              		@ frame_needed = 1, uses_anonymous_args = 0
 1023 0000 80B5     		push	{r7, lr}
 1024              		.cfi_def_cfa_offset 8
 1025              		.cfi_offset 7, -8
 1026              		.cfi_offset 14, -4
 1027 0002 86B0     		sub	sp, sp, #24
 1028              		.cfi_def_cfa_offset 32
 1029 0004 00AF     		add	r7, sp, #0
 1030              		.cfi_def_cfa_register 7
 231:.\memoryEP.c  ****     uint8 memoryData[16]={0,0,0,0,0,0,0,0,0,0,0,0,0,0,0,0},x,y,z;
 1031              		.loc 1 231 0
 1032 0006 3B1D     		adds	r3, r7, #4
 1033 0008 0022     		movs	r2, #0
 1034 000a 1A60     		str	r2, [r3]
 1035 000c 0433     		adds	r3, r3, #4
 1036 000e 0022     		movs	r2, #0
 1037 0010 1A60     		str	r2, [r3]
 1038 0012 0433     		adds	r3, r3, #4
 1039 0014 0022     		movs	r2, #0
 1040 0016 1A60     		str	r2, [r3]
 1041 0018 0433     		adds	r3, r3, #4
 1042 001a 0022     		movs	r2, #0
 1043 001c 1A60     		str	r2, [r3]
 1044 001e 0433     		adds	r3, r3, #4
 232:.\memoryEP.c  ****     z=0;
 1045              		.loc 1 232 0
 1046 0020 0023     		movs	r3, #0
 1047 0022 7B75     		strb	r3, [r7, #21]
 233:.\memoryEP.c  ****     for(y=0;y<=113;y++){
ARM GAS  C:\Users\PROYEC~1\AppData\Local\Temp\cco2H3Fd.s 			page 24


 1048              		.loc 1 233 0
 1049 0024 0023     		movs	r3, #0
 1050 0026 BB75     		strb	r3, [r7, #22]
 1051 0028 3DE0     		b	.L54
 1052              	.L59:
 234:.\memoryEP.c  ****         for(x=0;x<8;x++){
 1053              		.loc 1 234 0
 1054 002a 0023     		movs	r3, #0
 1055 002c FB75     		strb	r3, [r7, #23]
 1056 002e 10E0     		b	.L55
 1057              	.L56:
 235:.\memoryEP.c  ****             memoryData[x]= button[y][x];
 1058              		.loc 1 235 0 discriminator 3
 1059 0030 FB7D     		ldrb	r3, [r7, #23]	@ zero_extendqisi2
 1060 0032 B97D     		ldrb	r1, [r7, #22]	@ zero_extendqisi2
 1061 0034 FA7D     		ldrb	r2, [r7, #23]	@ zero_extendqisi2
 1062 0036 1F48     		ldr	r0, .L60
 1063 0038 C900     		lsls	r1, r1, #3
 1064 003a 0A44     		add	r2, r2, r1
 1065 003c 0244     		add	r2, r2, r0
 1066 003e 1278     		ldrb	r2, [r2]
 1067 0040 D2B2     		uxtb	r2, r2
 1068 0042 07F11801 		add	r1, r7, #24
 1069 0046 0B44     		add	r3, r3, r1
 1070 0048 03F8142C 		strb	r2, [r3, #-20]
 234:.\memoryEP.c  ****         for(x=0;x<8;x++){
 1071              		.loc 1 234 0 discriminator 3
 1072 004c FB7D     		ldrb	r3, [r7, #23]	@ zero_extendqisi2
 1073 004e 0133     		adds	r3, r3, #1
 1074 0050 FB75     		strb	r3, [r7, #23]
 1075              	.L55:
 234:.\memoryEP.c  ****         for(x=0;x<8;x++){
 1076              		.loc 1 234 0 is_stmt 0 discriminator 1
 1077 0052 FB7D     		ldrb	r3, [r7, #23]	@ zero_extendqisi2
 1078 0054 072B     		cmp	r3, #7
 1079 0056 EBD9     		bls	.L56
 236:.\memoryEP.c  ****         }
 237:.\memoryEP.c  ****         y++;
 1080              		.loc 1 237 0 is_stmt 1
 1081 0058 BB7D     		ldrb	r3, [r7, #22]	@ zero_extendqisi2
 1082 005a 0133     		adds	r3, r3, #1
 1083 005c BB75     		strb	r3, [r7, #22]
 238:.\memoryEP.c  ****         for(x=8;x<16;x++){
 1084              		.loc 1 238 0
 1085 005e 0823     		movs	r3, #8
 1086 0060 FB75     		strb	r3, [r7, #23]
 1087 0062 11E0     		b	.L57
 1088              	.L58:
 239:.\memoryEP.c  ****             memoryData[x]= button[y][x-8];
 1089              		.loc 1 239 0 discriminator 3
 1090 0064 FB7D     		ldrb	r3, [r7, #23]	@ zero_extendqisi2
 1091 0066 B97D     		ldrb	r1, [r7, #22]	@ zero_extendqisi2
 1092 0068 FA7D     		ldrb	r2, [r7, #23]	@ zero_extendqisi2
 1093 006a 083A     		subs	r2, r2, #8
 1094 006c 1148     		ldr	r0, .L60
 1095 006e C900     		lsls	r1, r1, #3
 1096 0070 0A44     		add	r2, r2, r1
ARM GAS  C:\Users\PROYEC~1\AppData\Local\Temp\cco2H3Fd.s 			page 25


 1097 0072 0244     		add	r2, r2, r0
 1098 0074 1278     		ldrb	r2, [r2]
 1099 0076 D2B2     		uxtb	r2, r2
 1100 0078 07F11801 		add	r1, r7, #24
 1101 007c 0B44     		add	r3, r3, r1
 1102 007e 03F8142C 		strb	r2, [r3, #-20]
 238:.\memoryEP.c  ****         for(x=8;x<16;x++){
 1103              		.loc 1 238 0 discriminator 3
 1104 0082 FB7D     		ldrb	r3, [r7, #23]	@ zero_extendqisi2
 1105 0084 0133     		adds	r3, r3, #1
 1106 0086 FB75     		strb	r3, [r7, #23]
 1107              	.L57:
 238:.\memoryEP.c  ****         for(x=8;x<16;x++){
 1108              		.loc 1 238 0 is_stmt 0 discriminator 1
 1109 0088 FB7D     		ldrb	r3, [r7, #23]	@ zero_extendqisi2
 1110 008a 0F2B     		cmp	r3, #15
 1111 008c EAD9     		bls	.L58
 240:.\memoryEP.c  ****         }
 241:.\memoryEP.c  ****         EEPROM_1_Write(memoryData,z);
 1112              		.loc 1 241 0 is_stmt 1 discriminator 2
 1113 008e 3A1D     		adds	r2, r7, #4
 1114 0090 7B7D     		ldrb	r3, [r7, #21]	@ zero_extendqisi2
 1115 0092 1046     		mov	r0, r2
 1116 0094 1946     		mov	r1, r3
 1117 0096 FFF7FEFF 		bl	EEPROM_1_Write
 242:.\memoryEP.c  ****         z++;
 1118              		.loc 1 242 0 discriminator 2
 1119 009a 7B7D     		ldrb	r3, [r7, #21]	@ zero_extendqisi2
 1120 009c 0133     		adds	r3, r3, #1
 1121 009e 7B75     		strb	r3, [r7, #21]
 233:.\memoryEP.c  ****         for(x=0;x<8;x++){
 1122              		.loc 1 233 0 discriminator 2
 1123 00a0 BB7D     		ldrb	r3, [r7, #22]	@ zero_extendqisi2
 1124 00a2 0133     		adds	r3, r3, #1
 1125 00a4 BB75     		strb	r3, [r7, #22]
 1126              	.L54:
 233:.\memoryEP.c  ****         for(x=0;x<8;x++){
 1127              		.loc 1 233 0 is_stmt 0 discriminator 1
 1128 00a6 BB7D     		ldrb	r3, [r7, #22]	@ zero_extendqisi2
 1129 00a8 712B     		cmp	r3, #113
 1130 00aa BED9     		bls	.L59
 243:.\memoryEP.c  ****     }
 244:.\memoryEP.c  **** }...
 1131              		.loc 1 244 0 is_stmt 1
 1132 00ac 1837     		adds	r7, r7, #24
 1133              		.cfi_def_cfa_offset 8
 1134 00ae BD46     		mov	sp, r7
 1135              		.cfi_def_cfa_register 13
 1136              		@ sp needed
 1137 00b0 80BD     		pop	{r7, pc}
 1138              	.L61:
 1139 00b2 00BF     		.align	2
 1140              	.L60:
 1141 00b4 00000000 		.word	button
 1142              		.cfi_endproc
 1143              	.LFE58:
 1144              		.size	write_buttons, .-write_buttons
ARM GAS  C:\Users\PROYEC~1\AppData\Local\Temp\cco2H3Fd.s 			page 26


 1145              		.text
 1146              	.Letext0:
 1147              		.file 2 "c:\\program files (x86)\\cypress\\psoc creator\\3.3\\psoc creator\\import\\gnu\\arm\\4.9.
 1148              		.file 3 "c:\\program files (x86)\\cypress\\psoc creator\\3.3\\psoc creator\\import\\gnu\\arm\\4.9.
 1149              		.file 4 "Generated_Source\\PSoC5/cytypes.h"
 1150              		.file 5 ".\\variables.h"
 1151              		.file 6 "Generated_Source\\PSoC5/core_cm3.h"