ARM GAS  C:\Users\Lenovo\AppData\Local\Temp\cc37sAV3.s 			page 1


   1              		.syntax unified
   2              		.cpu cortex-m3
   3              		.fpu softvfp
   4              		.eabi_attribute 20, 1
   5              		.eabi_attribute 21, 1
   6              		.eabi_attribute 23, 3
   7              		.eabi_attribute 24, 1
   8              		.eabi_attribute 25, 1
   9              		.eabi_attribute 26, 1
  10              		.eabi_attribute 30, 6
  11              		.eabi_attribute 34, 1
  12              		.eabi_attribute 18, 4
  13              		.thumb
  14              		.file	"operations.c"
  15              		.text
  16              	.Ltext0:
  17              		.cfi_sections	.debug_frame
  18              		.comm	countAnimation1,8,8
  19              		.comm	countAnimation2,8,8
  20              		.comm	countBeagleTX,8,8
  21              		.comm	countPump,8,8
  22              		.comm	flowLCD1,4,4
  23              		.comm	flowLCD2,4,4
  24              		.comm	digits,1,1
  25              		.comm	ipAdress,12,4
  26              		.comm	numberKeys1,1,1
  27              		.comm	numberKeys2,1,1
  28              		.comm	flagPoint1,1,1
  29              		.comm	flagPoint2,1,1
  30              		.comm	button,960,4
  31              		.comm	productNumber,1,1
  32              		.comm	presetFast,30,4
  33              		.comm	delayPicture1,4,4
  34              		.comm	delayPicture2,4,4
  35              		.comm	ppux10,1,1
  36              		.comm	decimalMoney,1,1
  37              		.comm	decimalVolume,1,1
  38              		.comm	symbols,2,4
  39              		.comm	time,3,4
  40              		.comm	date,3,4
  41              		.comm	screen,2,4
  42              		.comm	residue,14,4
  43              		.comm	temporal,30,4
  44              		.comm	temporalCom,30,4
  45              		.comm	turn,1,1
  46              		.comm	lockTurn,1,1
  47              		.comm	idSeller,25,4
  48              		.comm	typeIdSeller,1,1
  49              		.comm	passwordSeller,8,4
  50              		.comm	flagResetMux,1,1
  51              		.comm	stateBeagleSoft,1,1
  52              		.comm	bufferLCD1,661,4
  53              		.comm	bufferLCD2,661,4
  54              		.comm	side,512,4
  55              		.section	.text.compare_ppu,"ax",%progbits
  56              		.align	2
  57              		.global	compare_ppu
ARM GAS  C:\Users\Lenovo\AppData\Local\Temp\cc37sAV3.s 			page 2


  58              		.thumb
  59              		.thumb_func
  60              		.type	compare_ppu, %function
  61              	compare_ppu:
  62              	.LFB56:
  63              		.file 1 ".\\operations.c"
   1:.\operations.c **** /*
   2:.\operations.c **** ***************************************************************************************************
   3:.\operations.c **** *                                         MUX ADVANCE CODE
   4:.\operations.c **** *
   5:.\operations.c **** *                             (c) Copyright 2016; Sistemas Insepet LTDA
   6:.\operations.c **** *
   7:.\operations.c **** *               All rights reserved.  Protected by international copyright laws.
   8:.\operations.c **** *               Knowledge of the source code may NOT be used to develop a similar product.
   9:.\operations.c **** *               Please help us continue to provide the Embedded community with the finest
  10:.\operations.c **** *               software available.  Your honesty is greatly appreciated.
  11:.\operations.c **** ***************************************************************************************************
  12:.\operations.c **** */
  13:.\operations.c **** 
  14:.\operations.c **** /*
  15:.\operations.c **** ***************************************************************************************************
  16:.\operations.c **** *
  17:.\operations.c **** *                                             MUX ADVANCE CODE
  18:.\operations.c **** *
  19:.\operations.c **** *                                             CYPRESS PSoC5LP
  20:.\operations.c **** *                                                with the
  21:.\operations.c **** *                                            CY8C5969AXI-LP035
  22:.\operations.c **** *
  23:.\operations.c **** * Filename      : operations.c
  24:.\operations.c **** * Version       : V1.00
  25:.\operations.c **** * Programmer(s) : 
  26:.\operations.c ****                   
  27:.\operations.c **** ***************************************************************************************************
  28:.\operations.c **** */
  29:.\operations.c **** 
  30:.\operations.c **** 
  31:.\operations.c **** /*
  32:.\operations.c **** ***************************************************************************************************
  33:.\operations.c **** *                                             INCLUDE FILES
  34:.\operations.c **** ***************************************************************************************************
  35:.\operations.c **** */
  36:.\operations.c **** #include <device.h>
  37:.\operations.c **** #include <variables.h>
  38:.\operations.c **** #include <math.h>
  39:.\operations.c **** //#include <stdio.h>
  40:.\operations.c **** /*
  41:.\operations.c **** ***************************************************************************************************
  42:.\operations.c **** *                       uint8 compare_ppu(uint8 *ppuPump,uint8 handle,uint8 dir)
  43:.\operations.c **** *
  44:.\operations.c **** * Description : 
  45:.\operations.c **** *               
  46:.\operations.c **** *
  47:.\operations.c **** * Argument(s) : none
  48:.\operations.c **** *
  49:.\operations.c **** * Return(s)   : none
  50:.\operations.c **** *
  51:.\operations.c **** * Caller(s)   : 
ARM GAS  C:\Users\Lenovo\AppData\Local\Temp\cc37sAV3.s 			page 3


  52:.\operations.c **** *
  53:.\operations.c **** * Note(s)     : none.
  54:.\operations.c **** ***************************************************************************************************
  55:.\operations.c **** */
  56:.\operations.c **** 
  57:.\operations.c **** uint8 compare_ppu(uint8 *ppuPump,uint8 handle,uint8 pos){
  64              		.loc 1 57 0
  65              		.cfi_startproc
  66              		@ args = 0, pretend = 0, frame = 24
  67              		@ frame_needed = 1, uses_anonymous_args = 0
  68              		@ link register save eliminated.
  69 0000 80B4     		push	{r7}
  70              		.cfi_def_cfa_offset 4
  71              		.cfi_offset 7, -4
  72 0002 87B0     		sub	sp, sp, #28
  73              		.cfi_def_cfa_offset 32
  74 0004 00AF     		add	r7, sp, #0
  75              		.cfi_def_cfa_register 7
  76 0006 7860     		str	r0, [r7, #4]
  77 0008 0B46     		mov	r3, r1
  78 000a FB70     		strb	r3, [r7, #3]
  79 000c 1346     		mov	r3, r2
  80 000e BB70     		strb	r3, [r7, #2]
  58:.\operations.c ****     uint8 x,y,tempPpu[7];
  59:.\operations.c ****     if(pos==side.a.dir){
  81              		.loc 1 59 0
  82 0010 624B     		ldr	r3, .L25
  83 0012 1B78     		ldrb	r3, [r3]	@ zero_extendqisi2
  84 0014 BA78     		ldrb	r2, [r7, #2]	@ zero_extendqisi2
  85 0016 9A42     		cmp	r2, r3
  86 0018 18D1     		bne	.L2
  60:.\operations.c ****         for(x=0;x<=6;x++){
  87              		.loc 1 60 0
  88 001a 0023     		movs	r3, #0
  89 001c FB75     		strb	r3, [r7, #23]
  90 001e 11E0     		b	.L3
  91              	.L4:
  61:.\operations.c ****             tempPpu[x]=side.a.ppuAuthorized[handle-1][x];
  92              		.loc 1 61 0 discriminator 3
  93 0020 FB7D     		ldrb	r3, [r7, #23]	@ zero_extendqisi2
  94 0022 FA78     		ldrb	r2, [r7, #3]	@ zero_extendqisi2
  95 0024 511E     		subs	r1, r2, #1
  96 0026 FA7D     		ldrb	r2, [r7, #23]	@ zero_extendqisi2
  97 0028 5C48     		ldr	r0, .L25
  98 002a C900     		lsls	r1, r1, #3
  99 002c 0144     		add	r1, r1, r0
 100 002e 0A44     		add	r2, r2, r1
 101 0030 B032     		adds	r2, r2, #176
 102 0032 5279     		ldrb	r2, [r2, #5]	@ zero_extendqisi2
 103 0034 07F11801 		add	r1, r7, #24
 104 0038 0B44     		add	r3, r3, r1
 105 003a 03F80C2C 		strb	r2, [r3, #-12]
  60:.\operations.c ****         for(x=0;x<=6;x++){
 106              		.loc 1 60 0 discriminator 3
 107 003e FB7D     		ldrb	r3, [r7, #23]	@ zero_extendqisi2
 108 0040 0133     		adds	r3, r3, #1
 109 0042 FB75     		strb	r3, [r7, #23]
ARM GAS  C:\Users\Lenovo\AppData\Local\Temp\cc37sAV3.s 			page 4


 110              	.L3:
  60:.\operations.c ****         for(x=0;x<=6;x++){
 111              		.loc 1 60 0 is_stmt 0 discriminator 1
 112 0044 FB7D     		ldrb	r3, [r7, #23]	@ zero_extendqisi2
 113 0046 062B     		cmp	r3, #6
 114 0048 EAD9     		bls	.L4
 115 004a 18E0     		b	.L5
 116              	.L2:
  62:.\operations.c ****         }
  63:.\operations.c ****     }else{
  64:.\operations.c ****         for(x=0;x<=6;x++){
 117              		.loc 1 64 0 is_stmt 1
 118 004c 0023     		movs	r3, #0
 119 004e FB75     		strb	r3, [r7, #23]
 120 0050 12E0     		b	.L6
 121              	.L7:
  65:.\operations.c ****             tempPpu[x]=side.b.ppuAuthorized[handle-1][x];
 122              		.loc 1 65 0 discriminator 3
 123 0052 FB7D     		ldrb	r3, [r7, #23]	@ zero_extendqisi2
 124 0054 FA78     		ldrb	r2, [r7, #3]	@ zero_extendqisi2
 125 0056 511E     		subs	r1, r2, #1
 126 0058 FA7D     		ldrb	r2, [r7, #23]	@ zero_extendqisi2
 127 005a 5048     		ldr	r0, .L25
 128 005c C900     		lsls	r1, r1, #3
 129 005e 0144     		add	r1, r1, r0
 130 0060 0A44     		add	r2, r2, r1
 131 0062 02F5D872 		add	r2, r2, #432
 132 0066 5279     		ldrb	r2, [r2, #5]	@ zero_extendqisi2
 133 0068 07F11801 		add	r1, r7, #24
 134 006c 0B44     		add	r3, r3, r1
 135 006e 03F80C2C 		strb	r2, [r3, #-12]
  64:.\operations.c ****             tempPpu[x]=side.b.ppuAuthorized[handle-1][x];
 136              		.loc 1 64 0 discriminator 3
 137 0072 FB7D     		ldrb	r3, [r7, #23]	@ zero_extendqisi2
 138 0074 0133     		adds	r3, r3, #1
 139 0076 FB75     		strb	r3, [r7, #23]
 140              	.L6:
  64:.\operations.c ****             tempPpu[x]=side.b.ppuAuthorized[handle-1][x];
 141              		.loc 1 64 0 is_stmt 0 discriminator 1
 142 0078 FB7D     		ldrb	r3, [r7, #23]	@ zero_extendqisi2
 143 007a 062B     		cmp	r3, #6
 144 007c E9D9     		bls	.L7
 145              	.L5:
  66:.\operations.c ****         }
  67:.\operations.c ****     }
  68:.\operations.c ****     for(x=1;x<=6;x++){
 146              		.loc 1 68 0 is_stmt 1
 147 007e 0123     		movs	r3, #1
 148 0080 FB75     		strb	r3, [r7, #23]
 149 0082 23E0     		b	.L8
 150              	.L13:
  69:.\operations.c ****         if(tempPpu[x]==','){
 151              		.loc 1 69 0
 152 0084 FB7D     		ldrb	r3, [r7, #23]	@ zero_extendqisi2
 153 0086 07F11802 		add	r2, r7, #24
 154 008a 1344     		add	r3, r3, r2
 155 008c 13F80C3C 		ldrb	r3, [r3, #-12]	@ zero_extendqisi2
ARM GAS  C:\Users\Lenovo\AppData\Local\Temp\cc37sAV3.s 			page 5


 156 0090 2C2B     		cmp	r3, #44
 157 0092 18D1     		bne	.L9
  70:.\operations.c ****             for(y=x;y>=2;y--){
 158              		.loc 1 70 0
 159 0094 FB7D     		ldrb	r3, [r7, #23]
 160 0096 BB75     		strb	r3, [r7, #22]
 161 0098 0FE0     		b	.L10
 162              	.L11:
  71:.\operations.c ****                 tempPpu[y]=tempPpu[y-1];
 163              		.loc 1 71 0 discriminator 3
 164 009a BB7D     		ldrb	r3, [r7, #22]	@ zero_extendqisi2
 165 009c BA7D     		ldrb	r2, [r7, #22]	@ zero_extendqisi2
 166 009e 013A     		subs	r2, r2, #1
 167 00a0 07F11801 		add	r1, r7, #24
 168 00a4 0A44     		add	r2, r2, r1
 169 00a6 12F80C2C 		ldrb	r2, [r2, #-12]	@ zero_extendqisi2
 170 00aa 07F11801 		add	r1, r7, #24
 171 00ae 0B44     		add	r3, r3, r1
 172 00b0 03F80C2C 		strb	r2, [r3, #-12]
  70:.\operations.c ****             for(y=x;y>=2;y--){
 173              		.loc 1 70 0 discriminator 3
 174 00b4 BB7D     		ldrb	r3, [r7, #22]	@ zero_extendqisi2
 175 00b6 013B     		subs	r3, r3, #1
 176 00b8 BB75     		strb	r3, [r7, #22]
 177              	.L10:
  70:.\operations.c ****             for(y=x;y>=2;y--){
 178              		.loc 1 70 0 is_stmt 0 discriminator 1
 179 00ba BB7D     		ldrb	r3, [r7, #22]	@ zero_extendqisi2
 180 00bc 012B     		cmp	r3, #1
 181 00be ECD8     		bhi	.L11
  72:.\operations.c ****             }
  73:.\operations.c ****             tempPpu[1]='0';
 182              		.loc 1 73 0 is_stmt 1
 183 00c0 3023     		movs	r3, #48
 184 00c2 7B73     		strb	r3, [r7, #13]
  74:.\operations.c ****             break;
 185              		.loc 1 74 0
 186 00c4 05E0     		b	.L12
 187              	.L9:
  68:.\operations.c ****         if(tempPpu[x]==','){
 188              		.loc 1 68 0 discriminator 2
 189 00c6 FB7D     		ldrb	r3, [r7, #23]	@ zero_extendqisi2
 190 00c8 0133     		adds	r3, r3, #1
 191 00ca FB75     		strb	r3, [r7, #23]
 192              	.L8:
  68:.\operations.c ****         if(tempPpu[x]==','){
 193              		.loc 1 68 0 is_stmt 0 discriminator 1
 194 00cc FB7D     		ldrb	r3, [r7, #23]	@ zero_extendqisi2
 195 00ce 062B     		cmp	r3, #6
 196 00d0 D8D9     		bls	.L13
 197              	.L12:
  75:.\operations.c ****         }
  76:.\operations.c ****     }
  77:.\operations.c ****     ppuPump[0]=ppuPump[0]&0x07;
 198              		.loc 1 77 0 is_stmt 1
 199 00d2 7B68     		ldr	r3, [r7, #4]
 200 00d4 1B78     		ldrb	r3, [r3]	@ zero_extendqisi2
ARM GAS  C:\Users\Lenovo\AppData\Local\Temp\cc37sAV3.s 			page 6


 201 00d6 03F00703 		and	r3, r3, #7
 202 00da DAB2     		uxtb	r2, r3
 203 00dc 7B68     		ldr	r3, [r7, #4]
 204 00de 1A70     		strb	r2, [r3]
  78:.\operations.c ****     if(ppuPump[0]!=6){
 205              		.loc 1 78 0
 206 00e0 7B68     		ldr	r3, [r7, #4]
 207 00e2 1B78     		ldrb	r3, [r3]	@ zero_extendqisi2
 208 00e4 062B     		cmp	r3, #6
 209 00e6 1CD0     		beq	.L14
  79:.\operations.c ****         for(x=6;x>=3;x--){
 210              		.loc 1 79 0
 211 00e8 0623     		movs	r3, #6
 212 00ea FB75     		strb	r3, [r7, #23]
 213 00ec 0BE0     		b	.L15
 214              	.L16:
  80:.\operations.c ****             ppuPump[x]=ppuPump[x-2];
 215              		.loc 1 80 0 discriminator 3
 216 00ee FB7D     		ldrb	r3, [r7, #23]	@ zero_extendqisi2
 217 00f0 7A68     		ldr	r2, [r7, #4]
 218 00f2 1344     		add	r3, r3, r2
 219 00f4 FA7D     		ldrb	r2, [r7, #23]	@ zero_extendqisi2
 220 00f6 023A     		subs	r2, r2, #2
 221 00f8 7968     		ldr	r1, [r7, #4]
 222 00fa 0A44     		add	r2, r2, r1
 223 00fc 1278     		ldrb	r2, [r2]	@ zero_extendqisi2
 224 00fe 1A70     		strb	r2, [r3]
  79:.\operations.c ****         for(x=6;x>=3;x--){
 225              		.loc 1 79 0 discriminator 3
 226 0100 FB7D     		ldrb	r3, [r7, #23]	@ zero_extendqisi2
 227 0102 013B     		subs	r3, r3, #1
 228 0104 FB75     		strb	r3, [r7, #23]
 229              	.L15:
  79:.\operations.c ****         for(x=6;x>=3;x--){
 230              		.loc 1 79 0 is_stmt 0 discriminator 1
 231 0106 FB7D     		ldrb	r3, [r7, #23]	@ zero_extendqisi2
 232 0108 022B     		cmp	r3, #2
 233 010a F0D8     		bhi	.L16
  81:.\operations.c ****         }
  82:.\operations.c ****         ppuPump[0]=6;
 234              		.loc 1 82 0 is_stmt 1
 235 010c 7B68     		ldr	r3, [r7, #4]
 236 010e 0622     		movs	r2, #6
 237 0110 1A70     		strb	r2, [r3]
  83:.\operations.c ****         ppuPump[1]='0';
 238              		.loc 1 83 0
 239 0112 7B68     		ldr	r3, [r7, #4]
 240 0114 0133     		adds	r3, r3, #1
 241 0116 3022     		movs	r2, #48
 242 0118 1A70     		strb	r2, [r3]
  84:.\operations.c ****         ppuPump[2]='0';
 243              		.loc 1 84 0
 244 011a 7B68     		ldr	r3, [r7, #4]
 245 011c 0233     		adds	r3, r3, #2
 246 011e 3022     		movs	r2, #48
 247 0120 1A70     		strb	r2, [r3]
 248              	.L14:
ARM GAS  C:\Users\Lenovo\AppData\Local\Temp\cc37sAV3.s 			page 7


  85:.\operations.c ****     }
  86:.\operations.c ****     if(ppux10==1){
 249              		.loc 1 86 0
 250 0122 1F4B     		ldr	r3, .L25+4
 251 0124 1B78     		ldrb	r3, [r3]
 252 0126 DBB2     		uxtb	r3, r3
 253 0128 012B     		cmp	r3, #1
 254 012a 18D1     		bne	.L17
  87:.\operations.c ****         for(x=1;x<ppuPump[0];x++){
 255              		.loc 1 87 0
 256 012c 0123     		movs	r3, #1
 257 012e FB75     		strb	r3, [r7, #23]
 258 0130 0BE0     		b	.L18
 259              	.L19:
  88:.\operations.c ****             ppuPump[x]=ppuPump[x+1];
 260              		.loc 1 88 0 discriminator 3
 261 0132 FB7D     		ldrb	r3, [r7, #23]	@ zero_extendqisi2
 262 0134 7A68     		ldr	r2, [r7, #4]
 263 0136 1344     		add	r3, r3, r2
 264 0138 FA7D     		ldrb	r2, [r7, #23]	@ zero_extendqisi2
 265 013a 0132     		adds	r2, r2, #1
 266 013c 7968     		ldr	r1, [r7, #4]
 267 013e 0A44     		add	r2, r2, r1
 268 0140 1278     		ldrb	r2, [r2]	@ zero_extendqisi2
 269 0142 1A70     		strb	r2, [r3]
  87:.\operations.c ****         for(x=1;x<ppuPump[0];x++){
 270              		.loc 1 87 0 discriminator 3
 271 0144 FB7D     		ldrb	r3, [r7, #23]	@ zero_extendqisi2
 272 0146 0133     		adds	r3, r3, #1
 273 0148 FB75     		strb	r3, [r7, #23]
 274              	.L18:
  87:.\operations.c ****         for(x=1;x<ppuPump[0];x++){
 275              		.loc 1 87 0 is_stmt 0 discriminator 1
 276 014a 7B68     		ldr	r3, [r7, #4]
 277 014c 1B78     		ldrb	r3, [r3]	@ zero_extendqisi2
 278 014e FA7D     		ldrb	r2, [r7, #23]	@ zero_extendqisi2
 279 0150 9A42     		cmp	r2, r3
 280 0152 EED3     		bcc	.L19
  89:.\operations.c ****         }
  90:.\operations.c ****         ppuPump[x]='0';
 281              		.loc 1 90 0 is_stmt 1
 282 0154 FB7D     		ldrb	r3, [r7, #23]	@ zero_extendqisi2
 283 0156 7A68     		ldr	r2, [r7, #4]
 284 0158 1344     		add	r3, r3, r2
 285 015a 3022     		movs	r2, #48
 286 015c 1A70     		strb	r2, [r3]
 287              	.L17:
  91:.\operations.c ****     }
  92:.\operations.c ****     for(x=1;x<=6;x++){
 288              		.loc 1 92 0
 289 015e 0123     		movs	r3, #1
 290 0160 FB75     		strb	r3, [r7, #23]
 291 0162 10E0     		b	.L20
 292              	.L23:
  93:.\operations.c ****         if(ppuPump[x]!=tempPpu[x]){
 293              		.loc 1 93 0
 294 0164 FB7D     		ldrb	r3, [r7, #23]	@ zero_extendqisi2
ARM GAS  C:\Users\Lenovo\AppData\Local\Temp\cc37sAV3.s 			page 8


 295 0166 7A68     		ldr	r2, [r7, #4]
 296 0168 1344     		add	r3, r3, r2
 297 016a 1A78     		ldrb	r2, [r3]	@ zero_extendqisi2
 298 016c FB7D     		ldrb	r3, [r7, #23]	@ zero_extendqisi2
 299 016e 07F11801 		add	r1, r7, #24
 300 0172 0B44     		add	r3, r3, r1
 301 0174 13F80C3C 		ldrb	r3, [r3, #-12]	@ zero_extendqisi2
 302 0178 9A42     		cmp	r2, r3
 303 017a 01D0     		beq	.L21
  94:.\operations.c ****             return 0;
 304              		.loc 1 94 0
 305 017c 0023     		movs	r3, #0
 306 017e 06E0     		b	.L24
 307              	.L21:
  92:.\operations.c ****         if(ppuPump[x]!=tempPpu[x]){
 308              		.loc 1 92 0 discriminator 2
 309 0180 FB7D     		ldrb	r3, [r7, #23]	@ zero_extendqisi2
 310 0182 0133     		adds	r3, r3, #1
 311 0184 FB75     		strb	r3, [r7, #23]
 312              	.L20:
  92:.\operations.c ****         if(ppuPump[x]!=tempPpu[x]){
 313              		.loc 1 92 0 is_stmt 0 discriminator 1
 314 0186 FB7D     		ldrb	r3, [r7, #23]	@ zero_extendqisi2
 315 0188 062B     		cmp	r3, #6
 316 018a EBD9     		bls	.L23
  95:.\operations.c ****         }
  96:.\operations.c ****     }
  97:.\operations.c ****     return 1;
 317              		.loc 1 97 0 is_stmt 1
 318 018c 0123     		movs	r3, #1
 319              	.L24:
  98:.\operations.c **** }
 320              		.loc 1 98 0 discriminator 1
 321 018e 1846     		mov	r0, r3
 322 0190 1C37     		adds	r7, r7, #28
 323              		.cfi_def_cfa_offset 4
 324 0192 BD46     		mov	sp, r7
 325              		.cfi_def_cfa_register 13
 326              		@ sp needed
 327 0194 5DF8047B 		ldr	r7, [sp], #4
 328              		.cfi_restore 7
 329              		.cfi_def_cfa_offset 0
 330 0198 7047     		bx	lr
 331              	.L26:
 332 019a 00BF     		.align	2
 333              	.L25:
 334 019c 00000000 		.word	side
 335 01a0 00000000 		.word	ppux10
 336              		.cfi_endproc
 337              	.LFE56:
 338              		.size	compare_ppu, .-compare_ppu
 339              		.section	.rodata
 340              		.align	2
 341              	.LC0:
 342 0000 09       		.byte	9
 343 0001 09       		.byte	9
 344 0002 09       		.byte	9
ARM GAS  C:\Users\Lenovo\AppData\Local\Temp\cc37sAV3.s 			page 9


 345 0003 09       		.byte	9
 346 0004 09       		.byte	9
 347 0005 09       		.byte	9
 348 0006 09       		.byte	9
 349 0007 09       		.byte	9
 350 0008 09       		.byte	9
 351 0009 09       		.byte	9
 352 000a 09       		.byte	9
 353 000b 09       		.byte	9
 354              		.section	.text.subtraction,"ax",%progbits
 355              		.align	2
 356              		.global	subtraction
 357              		.thumb
 358              		.thumb_func
 359              		.type	subtraction, %function
 360              	subtraction:
 361              	.LFB57:
  99:.\operations.c **** 
 100:.\operations.c **** 
 101:.\operations.c **** /*
 102:.\operations.c **** ***************************************************************************************************
 103:.\operations.c **** *                      uint8 subtraction(uint8 *minuendo,uint8 *sustraendo,uint8 decimal)
 104:.\operations.c **** *
 105:.\operations.c **** * Description : 
 106:.\operations.c **** *               
 107:.\operations.c **** *
 108:.\operations.c **** * Argument(s) : none
 109:.\operations.c **** *
 110:.\operations.c **** * Return(s)   : none
 111:.\operations.c **** *
 112:.\operations.c **** * Caller(s)   : 
 113:.\operations.c **** *
 114:.\operations.c **** * Note(s)     : none.
 115:.\operations.c **** ***************************************************************************************************
 116:.\operations.c **** */
 117:.\operations.c **** 
 118:.\operations.c **** uint8 subtraction(uint8 *minuendo,uint8 *sustraendo){
 362              		.loc 1 118 0
 363              		.cfi_startproc
 364              		@ args = 0, pretend = 0, frame = 72
 365              		@ frame_needed = 1, uses_anonymous_args = 0
 366              		@ link register save eliminated.
 367 0000 80B4     		push	{r7}
 368              		.cfi_def_cfa_offset 4
 369              		.cfi_offset 7, -4
 370 0002 93B0     		sub	sp, sp, #76
 371              		.cfi_def_cfa_offset 80
 372 0004 00AF     		add	r7, sp, #0
 373              		.cfi_def_cfa_register 7
 374 0006 7860     		str	r0, [r7, #4]
 375 0008 3960     		str	r1, [r7]
 119:.\operations.c ****     uint8 t_residue[14],t_minuendo[14],t_sustraendo[14],carrier,maximumValue[12]={9,9,9,9,9,9,9,9,9
 376              		.loc 1 119 0
 377 000a D74A     		ldr	r2, .L55
 378 000c 07F10803 		add	r3, r7, #8
 379 0010 1068     		ldr	r0, [r2]	@ unaligned
 380 0012 5168     		ldr	r1, [r2, #4]	@ unaligned
ARM GAS  C:\Users\Lenovo\AppData\Local\Temp\cc37sAV3.s 			page 10


 381 0014 9268     		ldr	r2, [r2, #8]	@ unaligned
 382 0016 07C3     		stmia	r3!, {r0, r1, r2}
 120:.\operations.c ****     t_minuendo[0]=minuendo[0]&0x0f;
 383              		.loc 1 120 0
 384 0018 7B68     		ldr	r3, [r7, #4]
 385 001a 1B78     		ldrb	r3, [r3]	@ zero_extendqisi2
 386 001c 03F00F03 		and	r3, r3, #15
 387 0020 DBB2     		uxtb	r3, r3
 388 0022 87F82430 		strb	r3, [r7, #36]
 121:.\operations.c ****     t_sustraendo[0]=sustraendo[0]&0x0f;
 389              		.loc 1 121 0
 390 0026 3B68     		ldr	r3, [r7]
 391 0028 1B78     		ldrb	r3, [r3]	@ zero_extendqisi2
 392 002a 03F00F03 		and	r3, r3, #15
 393 002e DBB2     		uxtb	r3, r3
 394 0030 3B75     		strb	r3, [r7, #20]
 122:.\operations.c ****     y=1;
 395              		.loc 1 122 0
 396 0032 0123     		movs	r3, #1
 397 0034 87F84530 		strb	r3, [r7, #69]
 123:.\operations.c ****     for(x=t_minuendo[0];x>0;x--){
 398              		.loc 1 123 0
 399 0038 97F82430 		ldrb	r3, [r7, #36]
 400 003c 87F84630 		strb	r3, [r7, #70]
 401 0040 18E0     		b	.L28
 402              	.L29:
 124:.\operations.c ****         t_minuendo[y]=minuendo[x]&0x0f;
 403              		.loc 1 124 0 discriminator 3
 404 0042 97F84530 		ldrb	r3, [r7, #69]	@ zero_extendqisi2
 405 0046 97F84620 		ldrb	r2, [r7, #70]	@ zero_extendqisi2
 406 004a 7968     		ldr	r1, [r7, #4]
 407 004c 0A44     		add	r2, r2, r1
 408 004e 1278     		ldrb	r2, [r2]	@ zero_extendqisi2
 409 0050 02F00F02 		and	r2, r2, #15
 410 0054 D2B2     		uxtb	r2, r2
 411 0056 07F14801 		add	r1, r7, #72
 412 005a 0B44     		add	r3, r3, r1
 413 005c 03F8242C 		strb	r2, [r3, #-36]
 125:.\operations.c ****         y++;
 414              		.loc 1 125 0 discriminator 3
 415 0060 97F84530 		ldrb	r3, [r7, #69]	@ zero_extendqisi2
 416 0064 0133     		adds	r3, r3, #1
 417 0066 87F84530 		strb	r3, [r7, #69]
 123:.\operations.c ****     for(x=t_minuendo[0];x>0;x--){
 418              		.loc 1 123 0 discriminator 3
 419 006a 97F84630 		ldrb	r3, [r7, #70]	@ zero_extendqisi2
 420 006e 013B     		subs	r3, r3, #1
 421 0070 87F84630 		strb	r3, [r7, #70]
 422              	.L28:
 123:.\operations.c ****     for(x=t_minuendo[0];x>0;x--){
 423              		.loc 1 123 0 is_stmt 0 discriminator 1
 424 0074 97F84630 		ldrb	r3, [r7, #70]	@ zero_extendqisi2
 425 0078 002B     		cmp	r3, #0
 426 007a E2D1     		bne	.L29
 126:.\operations.c ****     }
 127:.\operations.c ****     y=1;
 427              		.loc 1 127 0 is_stmt 1
ARM GAS  C:\Users\Lenovo\AppData\Local\Temp\cc37sAV3.s 			page 11


 428 007c 0123     		movs	r3, #1
 429 007e 87F84530 		strb	r3, [r7, #69]
 128:.\operations.c ****     for(x=t_sustraendo[0];x>0;x--){
 430              		.loc 1 128 0
 431 0082 3B7D     		ldrb	r3, [r7, #20]
 432 0084 87F84630 		strb	r3, [r7, #70]
 433 0088 18E0     		b	.L30
 434              	.L31:
 129:.\operations.c ****         t_sustraendo[y]=sustraendo[x]&0x0f;
 435              		.loc 1 129 0 discriminator 3
 436 008a 97F84530 		ldrb	r3, [r7, #69]	@ zero_extendqisi2
 437 008e 97F84620 		ldrb	r2, [r7, #70]	@ zero_extendqisi2
 438 0092 3968     		ldr	r1, [r7]
 439 0094 0A44     		add	r2, r2, r1
 440 0096 1278     		ldrb	r2, [r2]	@ zero_extendqisi2
 441 0098 02F00F02 		and	r2, r2, #15
 442 009c D2B2     		uxtb	r2, r2
 443 009e 07F14801 		add	r1, r7, #72
 444 00a2 0B44     		add	r3, r3, r1
 445 00a4 03F8342C 		strb	r2, [r3, #-52]
 130:.\operations.c ****         y++;
 446              		.loc 1 130 0 discriminator 3
 447 00a8 97F84530 		ldrb	r3, [r7, #69]	@ zero_extendqisi2
 448 00ac 0133     		adds	r3, r3, #1
 449 00ae 87F84530 		strb	r3, [r7, #69]
 128:.\operations.c ****     for(x=t_sustraendo[0];x>0;x--){
 450              		.loc 1 128 0 discriminator 3
 451 00b2 97F84630 		ldrb	r3, [r7, #70]	@ zero_extendqisi2
 452 00b6 013B     		subs	r3, r3, #1
 453 00b8 87F84630 		strb	r3, [r7, #70]
 454              	.L30:
 128:.\operations.c ****     for(x=t_sustraendo[0];x>0;x--){
 455              		.loc 1 128 0 is_stmt 0 discriminator 1
 456 00bc 97F84630 		ldrb	r3, [r7, #70]	@ zero_extendqisi2
 457 00c0 002B     		cmp	r3, #0
 458 00c2 E2D1     		bne	.L31
 131:.\operations.c ****     }
 132:.\operations.c **** 	carrier=0;
 459              		.loc 1 132 0 is_stmt 1
 460 00c4 0023     		movs	r3, #0
 461 00c6 87F84730 		strb	r3, [r7, #71]
 133:.\operations.c **** 	if(t_minuendo[t_minuendo[0]]<t_sustraendo[t_minuendo[0]]){
 462              		.loc 1 133 0
 463 00ca 97F82430 		ldrb	r3, [r7, #36]	@ zero_extendqisi2
 464 00ce 07F14802 		add	r2, r7, #72
 465 00d2 1344     		add	r3, r3, r2
 466 00d4 13F8242C 		ldrb	r2, [r3, #-36]	@ zero_extendqisi2
 467 00d8 97F82430 		ldrb	r3, [r7, #36]	@ zero_extendqisi2
 468 00dc 07F14801 		add	r1, r7, #72
 469 00e0 0B44     		add	r3, r3, r1
 470 00e2 13F8343C 		ldrb	r3, [r3, #-52]	@ zero_extendqisi2
 471 00e6 9A42     		cmp	r2, r3
 472 00e8 80F0C980 		bcs	.L32
 134:.\operations.c **** 		for(x=1;x<=t_minuendo[0];x++){
 473              		.loc 1 134 0
 474 00ec 0123     		movs	r3, #1
 475 00ee 87F84630 		strb	r3, [r7, #70]
ARM GAS  C:\Users\Lenovo\AppData\Local\Temp\cc37sAV3.s 			page 12


 476 00f2 57E0     		b	.L33
 477              	.L36:
 135:.\operations.c **** 			if((maximumValue[x]-carrier)<t_sustraendo[x]){
 478              		.loc 1 135 0
 479 00f4 97F84630 		ldrb	r3, [r7, #70]	@ zero_extendqisi2
 480 00f8 07F14802 		add	r2, r7, #72
 481 00fc 1344     		add	r3, r3, r2
 482 00fe 13F8403C 		ldrb	r3, [r3, #-64]	@ zero_extendqisi2
 483 0102 1A46     		mov	r2, r3
 484 0104 97F84730 		ldrb	r3, [r7, #71]	@ zero_extendqisi2
 485 0108 D31A     		subs	r3, r2, r3
 486 010a 97F84620 		ldrb	r2, [r7, #70]	@ zero_extendqisi2
 487 010e 07F14801 		add	r1, r7, #72
 488 0112 0A44     		add	r2, r2, r1
 489 0114 12F8342C 		ldrb	r2, [r2, #-52]	@ zero_extendqisi2
 490 0118 9342     		cmp	r3, r2
 491 011a 20DA     		bge	.L34
 136:.\operations.c **** 				t_residue[x]=((maximumValue[x]+10)-carrier)-t_sustraendo[x];
 492              		.loc 1 136 0
 493 011c 97F84630 		ldrb	r3, [r7, #70]	@ zero_extendqisi2
 494 0120 97F84620 		ldrb	r2, [r7, #70]	@ zero_extendqisi2
 495 0124 07F14801 		add	r1, r7, #72
 496 0128 0A44     		add	r2, r2, r1
 497 012a 12F8401C 		ldrb	r1, [r2, #-64]	@ zero_extendqisi2
 498 012e 97F84720 		ldrb	r2, [r7, #71]
 499 0132 8A1A     		subs	r2, r1, r2
 500 0134 D1B2     		uxtb	r1, r2
 501 0136 97F84620 		ldrb	r2, [r7, #70]	@ zero_extendqisi2
 502 013a 07F14800 		add	r0, r7, #72
 503 013e 0244     		add	r2, r2, r0
 504 0140 12F8342C 		ldrb	r2, [r2, #-52]	@ zero_extendqisi2
 505 0144 8A1A     		subs	r2, r1, r2
 506 0146 D2B2     		uxtb	r2, r2
 507 0148 0A32     		adds	r2, r2, #10
 508 014a D2B2     		uxtb	r2, r2
 509 014c 07F14801 		add	r1, r7, #72
 510 0150 0B44     		add	r3, r3, r1
 511 0152 03F8142C 		strb	r2, [r3, #-20]
 137:.\operations.c **** 				carrier=1;			
 512              		.loc 1 137 0
 513 0156 0123     		movs	r3, #1
 514 0158 87F84730 		strb	r3, [r7, #71]
 515 015c 1DE0     		b	.L35
 516              	.L34:
 138:.\operations.c **** 			}
 139:.\operations.c **** 			else{
 140:.\operations.c **** 				t_residue[x]=(maximumValue[x]-carrier)-t_sustraendo[x];
 517              		.loc 1 140 0
 518 015e 97F84630 		ldrb	r3, [r7, #70]	@ zero_extendqisi2
 519 0162 97F84620 		ldrb	r2, [r7, #70]	@ zero_extendqisi2
 520 0166 07F14801 		add	r1, r7, #72
 521 016a 0A44     		add	r2, r2, r1
 522 016c 12F8401C 		ldrb	r1, [r2, #-64]	@ zero_extendqisi2
 523 0170 97F84720 		ldrb	r2, [r7, #71]
 524 0174 8A1A     		subs	r2, r1, r2
 525 0176 D1B2     		uxtb	r1, r2
 526 0178 97F84620 		ldrb	r2, [r7, #70]	@ zero_extendqisi2
ARM GAS  C:\Users\Lenovo\AppData\Local\Temp\cc37sAV3.s 			page 13


 527 017c 07F14800 		add	r0, r7, #72
 528 0180 0244     		add	r2, r2, r0
 529 0182 12F8342C 		ldrb	r2, [r2, #-52]	@ zero_extendqisi2
 530 0186 8A1A     		subs	r2, r1, r2
 531 0188 D2B2     		uxtb	r2, r2
 532 018a 07F14801 		add	r1, r7, #72
 533 018e 0B44     		add	r3, r3, r1
 534 0190 03F8142C 		strb	r2, [r3, #-20]
 141:.\operations.c **** 				carrier=0;
 535              		.loc 1 141 0
 536 0194 0023     		movs	r3, #0
 537 0196 87F84730 		strb	r3, [r7, #71]
 538              	.L35:
 134:.\operations.c **** 			if((maximumValue[x]-carrier)<t_sustraendo[x]){
 539              		.loc 1 134 0 discriminator 2
 540 019a 97F84630 		ldrb	r3, [r7, #70]	@ zero_extendqisi2
 541 019e 0133     		adds	r3, r3, #1
 542 01a0 87F84630 		strb	r3, [r7, #70]
 543              	.L33:
 134:.\operations.c **** 			if((maximumValue[x]-carrier)<t_sustraendo[x]){
 544              		.loc 1 134 0 is_stmt 0 discriminator 1
 545 01a4 97F82430 		ldrb	r3, [r7, #36]	@ zero_extendqisi2
 546 01a8 97F84620 		ldrb	r2, [r7, #70]	@ zero_extendqisi2
 547 01ac 9A42     		cmp	r2, r3
 548 01ae A1D9     		bls	.L36
 142:.\operations.c **** 			}
 143:.\operations.c **** 		}
 144:.\operations.c **** 		t_residue[0]=t_minuendo[0];	
 549              		.loc 1 144 0 is_stmt 1
 550 01b0 97F82430 		ldrb	r3, [r7, #36]	@ zero_extendqisi2
 551 01b4 87F83430 		strb	r3, [r7, #52]
 145:.\operations.c **** 		for(x=1;x<=t_minuendo[0];x++){
 552              		.loc 1 145 0
 553 01b8 0123     		movs	r3, #1
 554 01ba 87F84630 		strb	r3, [r7, #70]
 555 01be 3FE0     		b	.L37
 556              	.L40:
 146:.\operations.c **** 			t_residue[x]=t_minuendo[x]+t_residue[x]+carrier;
 557              		.loc 1 146 0
 558 01c0 97F84630 		ldrb	r3, [r7, #70]	@ zero_extendqisi2
 559 01c4 97F84620 		ldrb	r2, [r7, #70]	@ zero_extendqisi2
 560 01c8 07F14801 		add	r1, r7, #72
 561 01cc 0A44     		add	r2, r2, r1
 562 01ce 12F8241C 		ldrb	r1, [r2, #-36]	@ zero_extendqisi2
 563 01d2 97F84620 		ldrb	r2, [r7, #70]	@ zero_extendqisi2
 564 01d6 07F14800 		add	r0, r7, #72
 565 01da 0244     		add	r2, r2, r0
 566 01dc 12F8142C 		ldrb	r2, [r2, #-20]	@ zero_extendqisi2
 567 01e0 0A44     		add	r2, r2, r1
 568 01e2 D1B2     		uxtb	r1, r2
 569 01e4 97F84720 		ldrb	r2, [r7, #71]
 570 01e8 0A44     		add	r2, r2, r1
 571 01ea D2B2     		uxtb	r2, r2
 572 01ec 07F14801 		add	r1, r7, #72
 573 01f0 0B44     		add	r3, r3, r1
 574 01f2 03F8142C 		strb	r2, [r3, #-20]
 147:.\operations.c **** 			if(t_residue[x]>9){
ARM GAS  C:\Users\Lenovo\AppData\Local\Temp\cc37sAV3.s 			page 14


 575              		.loc 1 147 0
 576 01f6 97F84630 		ldrb	r3, [r7, #70]	@ zero_extendqisi2
 577 01fa 07F14802 		add	r2, r7, #72
 578 01fe 1344     		add	r3, r3, r2
 579 0200 13F8143C 		ldrb	r3, [r3, #-20]	@ zero_extendqisi2
 580 0204 092B     		cmp	r3, #9
 581 0206 13D9     		bls	.L38
 148:.\operations.c **** 				t_residue[x]=t_residue[x]-10;
 582              		.loc 1 148 0
 583 0208 97F84630 		ldrb	r3, [r7, #70]	@ zero_extendqisi2
 584 020c 97F84620 		ldrb	r2, [r7, #70]	@ zero_extendqisi2
 585 0210 07F14801 		add	r1, r7, #72
 586 0214 0A44     		add	r2, r2, r1
 587 0216 12F8142C 		ldrb	r2, [r2, #-20]	@ zero_extendqisi2
 588 021a 0A3A     		subs	r2, r2, #10
 589 021c D2B2     		uxtb	r2, r2
 590 021e 07F14801 		add	r1, r7, #72
 591 0222 0B44     		add	r3, r3, r1
 592 0224 03F8142C 		strb	r2, [r3, #-20]
 149:.\operations.c **** 				carrier=1;
 593              		.loc 1 149 0
 594 0228 0123     		movs	r3, #1
 595 022a 87F84730 		strb	r3, [r7, #71]
 596 022e 02E0     		b	.L39
 597              	.L38:
 150:.\operations.c **** 			}
 151:.\operations.c **** 			else{
 152:.\operations.c **** 				carrier=0;
 598              		.loc 1 152 0
 599 0230 0023     		movs	r3, #0
 600 0232 87F84730 		strb	r3, [r7, #71]
 601              	.L39:
 145:.\operations.c **** 			t_residue[x]=t_minuendo[x]+t_residue[x]+carrier;
 602              		.loc 1 145 0 discriminator 2
 603 0236 97F84630 		ldrb	r3, [r7, #70]	@ zero_extendqisi2
 604 023a 0133     		adds	r3, r3, #1
 605 023c 87F84630 		strb	r3, [r7, #70]
 606              	.L37:
 145:.\operations.c **** 			t_residue[x]=t_minuendo[x]+t_residue[x]+carrier;
 607              		.loc 1 145 0 is_stmt 0 discriminator 1
 608 0240 97F82430 		ldrb	r3, [r7, #36]	@ zero_extendqisi2
 609 0244 97F84620 		ldrb	r2, [r7, #70]	@ zero_extendqisi2
 610 0248 9A42     		cmp	r2, r3
 611 024a B9D9     		bls	.L40
 153:.\operations.c **** 			}
 154:.\operations.c **** 		}
 155:.\operations.c **** 		if(carrier==1){
 612              		.loc 1 155 0 is_stmt 1
 613 024c 97F84730 		ldrb	r3, [r7, #71]	@ zero_extendqisi2
 614 0250 012B     		cmp	r3, #1
 615 0252 0FD1     		bne	.L41
 156:.\operations.c **** 			t_residue[x+1]=1;
 616              		.loc 1 156 0
 617 0254 97F84630 		ldrb	r3, [r7, #70]	@ zero_extendqisi2
 618 0258 0133     		adds	r3, r3, #1
 619 025a 07F14802 		add	r2, r7, #72
 620 025e 1344     		add	r3, r3, r2
ARM GAS  C:\Users\Lenovo\AppData\Local\Temp\cc37sAV3.s 			page 15


 621 0260 0122     		movs	r2, #1
 622 0262 03F8142C 		strb	r2, [r3, #-20]
 157:.\operations.c **** 			t_residue[0]=t_minuendo[0]+1;
 623              		.loc 1 157 0
 624 0266 97F82430 		ldrb	r3, [r7, #36]	@ zero_extendqisi2
 625 026a 0133     		adds	r3, r3, #1
 626 026c DBB2     		uxtb	r3, r3
 627 026e 87F83430 		strb	r3, [r7, #52]
 628 0272 6AE0     		b	.L43
 629              	.L41:
 158:.\operations.c **** 		}
 159:.\operations.c **** 		else{
 160:.\operations.c **** 			t_residue[0]=t_minuendo[0];
 630              		.loc 1 160 0
 631 0274 97F82430 		ldrb	r3, [r7, #36]	@ zero_extendqisi2
 632 0278 87F83430 		strb	r3, [r7, #52]
 633 027c 65E0     		b	.L43
 634              	.L32:
 161:.\operations.c **** 		}			
 162:.\operations.c **** 	}
 163:.\operations.c **** 	else{
 164:.\operations.c **** 		for(x=1;x<=t_minuendo[0];x++){
 635              		.loc 1 164 0
 636 027e 0123     		movs	r3, #1
 637 0280 87F84630 		strb	r3, [r7, #70]
 638 0284 57E0     		b	.L44
 639              	.L47:
 165:.\operations.c **** 			if((t_minuendo[x]-carrier)<t_sustraendo[x]){
 640              		.loc 1 165 0
 641 0286 97F84630 		ldrb	r3, [r7, #70]	@ zero_extendqisi2
 642 028a 07F14802 		add	r2, r7, #72
 643 028e 1344     		add	r3, r3, r2
 644 0290 13F8243C 		ldrb	r3, [r3, #-36]	@ zero_extendqisi2
 645 0294 1A46     		mov	r2, r3
 646 0296 97F84730 		ldrb	r3, [r7, #71]	@ zero_extendqisi2
 647 029a D31A     		subs	r3, r2, r3
 648 029c 97F84620 		ldrb	r2, [r7, #70]	@ zero_extendqisi2
 649 02a0 07F14801 		add	r1, r7, #72
 650 02a4 0A44     		add	r2, r2, r1
 651 02a6 12F8342C 		ldrb	r2, [r2, #-52]	@ zero_extendqisi2
 652 02aa 9342     		cmp	r3, r2
 653 02ac 20DA     		bge	.L45
 166:.\operations.c **** 				t_residue[x]=((t_minuendo[x]+10)-carrier)-t_sustraendo[x];
 654              		.loc 1 166 0
 655 02ae 97F84630 		ldrb	r3, [r7, #70]	@ zero_extendqisi2
 656 02b2 97F84620 		ldrb	r2, [r7, #70]	@ zero_extendqisi2
 657 02b6 07F14801 		add	r1, r7, #72
 658 02ba 0A44     		add	r2, r2, r1
 659 02bc 12F8241C 		ldrb	r1, [r2, #-36]	@ zero_extendqisi2
 660 02c0 97F84720 		ldrb	r2, [r7, #71]
 661 02c4 8A1A     		subs	r2, r1, r2
 662 02c6 D1B2     		uxtb	r1, r2
 663 02c8 97F84620 		ldrb	r2, [r7, #70]	@ zero_extendqisi2
 664 02cc 07F14800 		add	r0, r7, #72
 665 02d0 0244     		add	r2, r2, r0
 666 02d2 12F8342C 		ldrb	r2, [r2, #-52]	@ zero_extendqisi2
 667 02d6 8A1A     		subs	r2, r1, r2
ARM GAS  C:\Users\Lenovo\AppData\Local\Temp\cc37sAV3.s 			page 16


 668 02d8 D2B2     		uxtb	r2, r2
 669 02da 0A32     		adds	r2, r2, #10
 670 02dc D2B2     		uxtb	r2, r2
 671 02de 07F14801 		add	r1, r7, #72
 672 02e2 0B44     		add	r3, r3, r1
 673 02e4 03F8142C 		strb	r2, [r3, #-20]
 167:.\operations.c **** 				carrier=1;			
 674              		.loc 1 167 0
 675 02e8 0123     		movs	r3, #1
 676 02ea 87F84730 		strb	r3, [r7, #71]
 677 02ee 1DE0     		b	.L46
 678              	.L45:
 168:.\operations.c **** 			}
 169:.\operations.c **** 			else{
 170:.\operations.c **** 				t_residue[x]=(t_minuendo[x]-carrier)-t_sustraendo[x];
 679              		.loc 1 170 0
 680 02f0 97F84630 		ldrb	r3, [r7, #70]	@ zero_extendqisi2
 681 02f4 97F84620 		ldrb	r2, [r7, #70]	@ zero_extendqisi2
 682 02f8 07F14801 		add	r1, r7, #72
 683 02fc 0A44     		add	r2, r2, r1
 684 02fe 12F8241C 		ldrb	r1, [r2, #-36]	@ zero_extendqisi2
 685 0302 97F84720 		ldrb	r2, [r7, #71]
 686 0306 8A1A     		subs	r2, r1, r2
 687 0308 D1B2     		uxtb	r1, r2
 688 030a 97F84620 		ldrb	r2, [r7, #70]	@ zero_extendqisi2
 689 030e 07F14800 		add	r0, r7, #72
 690 0312 0244     		add	r2, r2, r0
 691 0314 12F8342C 		ldrb	r2, [r2, #-52]	@ zero_extendqisi2
 692 0318 8A1A     		subs	r2, r1, r2
 693 031a D2B2     		uxtb	r2, r2
 694 031c 07F14801 		add	r1, r7, #72
 695 0320 0B44     		add	r3, r3, r1
 696 0322 03F8142C 		strb	r2, [r3, #-20]
 171:.\operations.c **** 				carrier=0;
 697              		.loc 1 171 0
 698 0326 0023     		movs	r3, #0
 699 0328 87F84730 		strb	r3, [r7, #71]
 700              	.L46:
 164:.\operations.c **** 			if((t_minuendo[x]-carrier)<t_sustraendo[x]){
 701              		.loc 1 164 0 discriminator 2
 702 032c 97F84630 		ldrb	r3, [r7, #70]	@ zero_extendqisi2
 703 0330 0133     		adds	r3, r3, #1
 704 0332 87F84630 		strb	r3, [r7, #70]
 705              	.L44:
 164:.\operations.c **** 			if((t_minuendo[x]-carrier)<t_sustraendo[x]){
 706              		.loc 1 164 0 is_stmt 0 discriminator 1
 707 0336 97F82430 		ldrb	r3, [r7, #36]	@ zero_extendqisi2
 708 033a 97F84620 		ldrb	r2, [r7, #70]	@ zero_extendqisi2
 709 033e 9A42     		cmp	r2, r3
 710 0340 A1D9     		bls	.L47
 172:.\operations.c **** 			}
 173:.\operations.c **** 		}
 174:.\operations.c **** 		t_residue[0]=t_minuendo[0];
 711              		.loc 1 174 0 is_stmt 1
 712 0342 97F82430 		ldrb	r3, [r7, #36]	@ zero_extendqisi2
 713 0346 87F83430 		strb	r3, [r7, #52]
 714              	.L43:
ARM GAS  C:\Users\Lenovo\AppData\Local\Temp\cc37sAV3.s 			page 17


 175:.\operations.c **** 	}
 176:.\operations.c ****     residue[0]=t_residue[0]&0x0f;
 715              		.loc 1 176 0
 716 034a 97F83430 		ldrb	r3, [r7, #52]	@ zero_extendqisi2
 717 034e 03F00F03 		and	r3, r3, #15
 718 0352 DAB2     		uxtb	r2, r3
 719 0354 054B     		ldr	r3, .L55+4
 720 0356 1A70     		strb	r2, [r3]
 177:.\operations.c ****     y=1;
 721              		.loc 1 177 0
 722 0358 0123     		movs	r3, #1
 723 035a 87F84530 		strb	r3, [r7, #69]
 178:.\operations.c ****     for(x=residue[0];x>0;x--){
 724              		.loc 1 178 0
 725 035e 034B     		ldr	r3, .L55+4
 726 0360 1B78     		ldrb	r3, [r3]
 727 0362 87F84630 		strb	r3, [r7, #70]
 728 0366 1DE0     		b	.L48
 729              	.L56:
 730              		.align	2
 731              	.L55:
 732 0368 00000000 		.word	.LC0
 733 036c 00000000 		.word	residue
 734              	.L49:
 179:.\operations.c ****         residue[y]=(t_residue[x]&0x0f)+0x30;
 735              		.loc 1 179 0 discriminator 3
 736 0370 97F84530 		ldrb	r3, [r7, #69]	@ zero_extendqisi2
 737 0374 97F84620 		ldrb	r2, [r7, #70]	@ zero_extendqisi2
 738 0378 07F14801 		add	r1, r7, #72
 739 037c 0A44     		add	r2, r2, r1
 740 037e 12F8142C 		ldrb	r2, [r2, #-20]	@ zero_extendqisi2
 741 0382 02F00F02 		and	r2, r2, #15
 742 0386 D2B2     		uxtb	r2, r2
 743 0388 3032     		adds	r2, r2, #48
 744 038a D1B2     		uxtb	r1, r2
 745 038c 174A     		ldr	r2, .L57
 746 038e D154     		strb	r1, [r2, r3]
 180:.\operations.c ****         y++;
 747              		.loc 1 180 0 discriminator 3
 748 0390 97F84530 		ldrb	r3, [r7, #69]	@ zero_extendqisi2
 749 0394 0133     		adds	r3, r3, #1
 750 0396 87F84530 		strb	r3, [r7, #69]
 178:.\operations.c ****     for(x=residue[0];x>0;x--){
 751              		.loc 1 178 0 discriminator 3
 752 039a 97F84630 		ldrb	r3, [r7, #70]	@ zero_extendqisi2
 753 039e 013B     		subs	r3, r3, #1
 754 03a0 87F84630 		strb	r3, [r7, #70]
 755              	.L48:
 178:.\operations.c ****     for(x=residue[0];x>0;x--){
 756              		.loc 1 178 0 is_stmt 0 discriminator 1
 757 03a4 97F84630 		ldrb	r3, [r7, #70]	@ zero_extendqisi2
 758 03a8 002B     		cmp	r3, #0
 759 03aa E1D1     		bne	.L49
 181:.\operations.c ****     }
 182:.\operations.c ****     for(x=1;x<=residue[0];x++){
 760              		.loc 1 182 0 is_stmt 1
 761 03ac 0123     		movs	r3, #1
ARM GAS  C:\Users\Lenovo\AppData\Local\Temp\cc37sAV3.s 			page 18


 762 03ae 87F84630 		strb	r3, [r7, #70]
 763 03b2 0DE0     		b	.L50
 764              	.L53:
 183:.\operations.c ****         if((residue[x])!='0'){
 765              		.loc 1 183 0
 766 03b4 97F84630 		ldrb	r3, [r7, #70]	@ zero_extendqisi2
 767 03b8 0C4A     		ldr	r2, .L57
 768 03ba D35C     		ldrb	r3, [r2, r3]
 769 03bc DBB2     		uxtb	r3, r3
 770 03be 302B     		cmp	r3, #48
 771 03c0 01D0     		beq	.L51
 184:.\operations.c ****             return 0;
 772              		.loc 1 184 0
 773 03c2 0023     		movs	r3, #0
 774 03c4 0CE0     		b	.L54
 775              	.L51:
 182:.\operations.c ****         if((residue[x])!='0'){
 776              		.loc 1 182 0 discriminator 2
 777 03c6 97F84630 		ldrb	r3, [r7, #70]	@ zero_extendqisi2
 778 03ca 0133     		adds	r3, r3, #1
 779 03cc 87F84630 		strb	r3, [r7, #70]
 780              	.L50:
 182:.\operations.c ****         if((residue[x])!='0'){
 781              		.loc 1 182 0 is_stmt 0 discriminator 1
 782 03d0 064B     		ldr	r3, .L57
 783 03d2 1B78     		ldrb	r3, [r3]
 784 03d4 DBB2     		uxtb	r3, r3
 785 03d6 97F84620 		ldrb	r2, [r7, #70]	@ zero_extendqisi2
 786 03da 9A42     		cmp	r2, r3
 787 03dc EAD9     		bls	.L53
 185:.\operations.c ****         }
 186:.\operations.c ****     }
 187:.\operations.c ****     return 1;
 788              		.loc 1 187 0 is_stmt 1
 789 03de 0123     		movs	r3, #1
 790              	.L54:
 188:.\operations.c **** }
 791              		.loc 1 188 0 discriminator 1
 792 03e0 1846     		mov	r0, r3
 793 03e2 4C37     		adds	r7, r7, #76
 794              		.cfi_def_cfa_offset 4
 795 03e4 BD46     		mov	sp, r7
 796              		.cfi_def_cfa_register 13
 797              		@ sp needed
 798 03e6 5DF8047B 		ldr	r7, [sp], #4
 799              		.cfi_restore 7
 800              		.cfi_def_cfa_offset 0
 801 03ea 7047     		bx	lr
 802              	.L58:
 803              		.align	2
 804              	.L57:
 805 03ec 00000000 		.word	residue
 806              		.cfi_endproc
 807              	.LFE57:
 808              		.size	subtraction, .-subtraction
 809              		.global	__aeabi_i2d
 810              		.global	__aeabi_dmul
ARM GAS  C:\Users\Lenovo\AppData\Local\Temp\cc37sAV3.s 			page 19


 811              		.global	__aeabi_dadd
 812              		.global	__aeabi_ddiv
 813              		.global	__aeabi_dcmpgt
 814              		.global	__aeabi_dcmplt
 815              		.section	.text.higher,"ax",%progbits
 816              		.align	2
 817              		.global	higher
 818              		.thumb
 819              		.thumb_func
 820              		.type	higher, %function
 821              	higher:
 822              	.LFB58:
 189:.\operations.c **** 
 190:.\operations.c **** /*
 191:.\operations.c **** ***************************************************************************************************
 192:.\operations.c **** *                                    uint8 higher(uint8 *value1,uint8 *value2)
 193:.\operations.c **** *
 194:.\operations.c **** * Description : 
 195:.\operations.c **** *               
 196:.\operations.c **** *
 197:.\operations.c **** * Argument(s) : none
 198:.\operations.c **** *
 199:.\operations.c **** * Return(s)   : none
 200:.\operations.c **** *
 201:.\operations.c **** * Caller(s)   : 
 202:.\operations.c **** *
 203:.\operations.c **** * Note(s)     : none.
 204:.\operations.c **** ***************************************************************************************************
 205:.\operations.c **** */
 206:.\operations.c **** 
 207:.\operations.c **** uint8 higher(uint8 *value1,uint8 *value2){
 823              		.loc 1 207 0
 824              		.cfi_startproc
 825              		@ args = 0, pretend = 0, frame = 32
 826              		@ frame_needed = 1, uses_anonymous_args = 0
 827 0000 B0B5     		push	{r4, r5, r7, lr}
 828              		.cfi_def_cfa_offset 16
 829              		.cfi_offset 4, -16
 830              		.cfi_offset 5, -12
 831              		.cfi_offset 7, -8
 832              		.cfi_offset 14, -4
 833 0002 88B0     		sub	sp, sp, #32
 834              		.cfi_def_cfa_offset 48
 835 0004 00AF     		add	r7, sp, #0
 836              		.cfi_def_cfa_register 7
 837 0006 7860     		str	r0, [r7, #4]
 838 0008 3960     		str	r1, [r7]
 208:.\operations.c ****     double tempV1=0,tempV2=0;
 839              		.loc 1 208 0
 840 000a 4FF00002 		mov	r2, #0
 841 000e 4FF00003 		mov	r3, #0
 842 0012 C7E90623 		strd	r2, [r7, #24]
 843 0016 4FF00002 		mov	r2, #0
 844 001a 4FF00003 		mov	r3, #0
 845 001e C7E90423 		strd	r2, [r7, #16]
 209:.\operations.c ****     uint8 x,y;
 210:.\operations.c ****     y=value1[0];
ARM GAS  C:\Users\Lenovo\AppData\Local\Temp\cc37sAV3.s 			page 20


 846              		.loc 1 210 0
 847 0022 7B68     		ldr	r3, [r7, #4]
 848 0024 1B78     		ldrb	r3, [r3]
 849 0026 BB73     		strb	r3, [r7, #14]
 211:.\operations.c ****     for(x=value1[0];x>0;x--){
 850              		.loc 1 211 0
 851 0028 7B68     		ldr	r3, [r7, #4]
 852 002a 1B78     		ldrb	r3, [r3]
 853 002c FB73     		strb	r3, [r7, #15]
 854 002e 4BE0     		b	.L60
 855              	.L63:
 212:.\operations.c ****         if(value1[x]!=','){
 856              		.loc 1 212 0
 857 0030 FB7B     		ldrb	r3, [r7, #15]	@ zero_extendqisi2
 858 0032 7A68     		ldr	r2, [r7, #4]
 859 0034 1344     		add	r3, r3, r2
 860 0036 1B78     		ldrb	r3, [r3]	@ zero_extendqisi2
 861 0038 2C2B     		cmp	r3, #44
 862 003a 28D0     		beq	.L61
 213:.\operations.c ****             tempV1+=((double)(value1[x]&0x0f)*pow(10,(y-x)));
 863              		.loc 1 213 0
 864 003c FB7B     		ldrb	r3, [r7, #15]	@ zero_extendqisi2
 865 003e 7A68     		ldr	r2, [r7, #4]
 866 0040 1344     		add	r3, r3, r2
 867 0042 1B78     		ldrb	r3, [r3]	@ zero_extendqisi2
 868 0044 03F00F03 		and	r3, r3, #15
 869 0048 1846     		mov	r0, r3
 870 004a FFF7FEFF 		bl	__aeabi_i2d
 871 004e 0446     		mov	r4, r0
 872 0050 0D46     		mov	r5, r1
 873 0052 BA7B     		ldrb	r2, [r7, #14]	@ zero_extendqisi2
 874 0054 FB7B     		ldrb	r3, [r7, #15]	@ zero_extendqisi2
 875 0056 D31A     		subs	r3, r2, r3
 876 0058 1846     		mov	r0, r3
 877 005a FFF7FEFF 		bl	__aeabi_i2d
 878 005e 0246     		mov	r2, r0
 879 0060 0B46     		mov	r3, r1
 880 0062 4FF00000 		mov	r0, #0
 881 0066 5249     		ldr	r1, .L77
 882 0068 FFF7FEFF 		bl	pow
 883 006c 0246     		mov	r2, r0
 884 006e 0B46     		mov	r3, r1
 885 0070 2046     		mov	r0, r4
 886 0072 2946     		mov	r1, r5
 887 0074 FFF7FEFF 		bl	__aeabi_dmul
 888 0078 0246     		mov	r2, r0
 889 007a 0B46     		mov	r3, r1
 890 007c D7E90601 		ldrd	r0, [r7, #24]
 891 0080 FFF7FEFF 		bl	__aeabi_dadd
 892 0084 0246     		mov	r2, r0
 893 0086 0B46     		mov	r3, r1
 894 0088 C7E90623 		strd	r2, [r7, #24]
 895 008c 19E0     		b	.L62
 896              	.L61:
 214:.\operations.c ****         }else{
 215:.\operations.c ****             tempV1/=pow(10,(y-x));
 897              		.loc 1 215 0
ARM GAS  C:\Users\Lenovo\AppData\Local\Temp\cc37sAV3.s 			page 21


 898 008e BA7B     		ldrb	r2, [r7, #14]	@ zero_extendqisi2
 899 0090 FB7B     		ldrb	r3, [r7, #15]	@ zero_extendqisi2
 900 0092 D31A     		subs	r3, r2, r3
 901 0094 1846     		mov	r0, r3
 902 0096 FFF7FEFF 		bl	__aeabi_i2d
 903 009a 0246     		mov	r2, r0
 904 009c 0B46     		mov	r3, r1
 905 009e 4FF00000 		mov	r0, #0
 906 00a2 4349     		ldr	r1, .L77
 907 00a4 FFF7FEFF 		bl	pow
 908 00a8 0246     		mov	r2, r0
 909 00aa 0B46     		mov	r3, r1
 910 00ac D7E90601 		ldrd	r0, [r7, #24]
 911 00b0 FFF7FEFF 		bl	__aeabi_ddiv
 912 00b4 0246     		mov	r2, r0
 913 00b6 0B46     		mov	r3, r1
 914 00b8 C7E90623 		strd	r2, [r7, #24]
 216:.\operations.c ****             y=x-1;
 915              		.loc 1 216 0
 916 00bc FB7B     		ldrb	r3, [r7, #15]
 917 00be 013B     		subs	r3, r3, #1
 918 00c0 BB73     		strb	r3, [r7, #14]
 919              	.L62:
 211:.\operations.c ****         if(value1[x]!=','){
 920              		.loc 1 211 0 discriminator 2
 921 00c2 FB7B     		ldrb	r3, [r7, #15]	@ zero_extendqisi2
 922 00c4 013B     		subs	r3, r3, #1
 923 00c6 FB73     		strb	r3, [r7, #15]
 924              	.L60:
 211:.\operations.c ****         if(value1[x]!=','){
 925              		.loc 1 211 0 is_stmt 0 discriminator 1
 926 00c8 FB7B     		ldrb	r3, [r7, #15]	@ zero_extendqisi2
 927 00ca 002B     		cmp	r3, #0
 928 00cc B0D1     		bne	.L63
 217:.\operations.c ****         }
 218:.\operations.c ****     }
 219:.\operations.c ****     y=value2[0];
 929              		.loc 1 219 0 is_stmt 1
 930 00ce 3B68     		ldr	r3, [r7]
 931 00d0 1B78     		ldrb	r3, [r3]
 932 00d2 BB73     		strb	r3, [r7, #14]
 220:.\operations.c ****     for(x=value2[0];x>0;x--){
 933              		.loc 1 220 0
 934 00d4 3B68     		ldr	r3, [r7]
 935 00d6 1B78     		ldrb	r3, [r3]
 936 00d8 FB73     		strb	r3, [r7, #15]
 937 00da 4BE0     		b	.L64
 938              	.L67:
 221:.\operations.c ****         if(value2[x]!=','){
 939              		.loc 1 221 0
 940 00dc FB7B     		ldrb	r3, [r7, #15]	@ zero_extendqisi2
 941 00de 3A68     		ldr	r2, [r7]
 942 00e0 1344     		add	r3, r3, r2
 943 00e2 1B78     		ldrb	r3, [r3]	@ zero_extendqisi2
 944 00e4 2C2B     		cmp	r3, #44
 945 00e6 28D0     		beq	.L65
 222:.\operations.c ****             tempV2+=((double)(value2[x]&0x0f)*pow(10,(y-x)));
ARM GAS  C:\Users\Lenovo\AppData\Local\Temp\cc37sAV3.s 			page 22


 946              		.loc 1 222 0
 947 00e8 FB7B     		ldrb	r3, [r7, #15]	@ zero_extendqisi2
 948 00ea 3A68     		ldr	r2, [r7]
 949 00ec 1344     		add	r3, r3, r2
 950 00ee 1B78     		ldrb	r3, [r3]	@ zero_extendqisi2
 951 00f0 03F00F03 		and	r3, r3, #15
 952 00f4 1846     		mov	r0, r3
 953 00f6 FFF7FEFF 		bl	__aeabi_i2d
 954 00fa 0446     		mov	r4, r0
 955 00fc 0D46     		mov	r5, r1
 956 00fe BA7B     		ldrb	r2, [r7, #14]	@ zero_extendqisi2
 957 0100 FB7B     		ldrb	r3, [r7, #15]	@ zero_extendqisi2
 958 0102 D31A     		subs	r3, r2, r3
 959 0104 1846     		mov	r0, r3
 960 0106 FFF7FEFF 		bl	__aeabi_i2d
 961 010a 0246     		mov	r2, r0
 962 010c 0B46     		mov	r3, r1
 963 010e 4FF00000 		mov	r0, #0
 964 0112 2749     		ldr	r1, .L77
 965 0114 FFF7FEFF 		bl	pow
 966 0118 0246     		mov	r2, r0
 967 011a 0B46     		mov	r3, r1
 968 011c 2046     		mov	r0, r4
 969 011e 2946     		mov	r1, r5
 970 0120 FFF7FEFF 		bl	__aeabi_dmul
 971 0124 0246     		mov	r2, r0
 972 0126 0B46     		mov	r3, r1
 973 0128 D7E90401 		ldrd	r0, [r7, #16]
 974 012c FFF7FEFF 		bl	__aeabi_dadd
 975 0130 0246     		mov	r2, r0
 976 0132 0B46     		mov	r3, r1
 977 0134 C7E90423 		strd	r2, [r7, #16]
 978 0138 19E0     		b	.L66
 979              	.L65:
 223:.\operations.c ****         }else{
 224:.\operations.c ****             tempV2/=pow(10,(y-x));
 980              		.loc 1 224 0
 981 013a BA7B     		ldrb	r2, [r7, #14]	@ zero_extendqisi2
 982 013c FB7B     		ldrb	r3, [r7, #15]	@ zero_extendqisi2
 983 013e D31A     		subs	r3, r2, r3
 984 0140 1846     		mov	r0, r3
 985 0142 FFF7FEFF 		bl	__aeabi_i2d
 986 0146 0246     		mov	r2, r0
 987 0148 0B46     		mov	r3, r1
 988 014a 4FF00000 		mov	r0, #0
 989 014e 1849     		ldr	r1, .L77
 990 0150 FFF7FEFF 		bl	pow
 991 0154 0246     		mov	r2, r0
 992 0156 0B46     		mov	r3, r1
 993 0158 D7E90401 		ldrd	r0, [r7, #16]
 994 015c FFF7FEFF 		bl	__aeabi_ddiv
 995 0160 0246     		mov	r2, r0
 996 0162 0B46     		mov	r3, r1
 997 0164 C7E90423 		strd	r2, [r7, #16]
 225:.\operations.c ****             y=x-1;
 998              		.loc 1 225 0
 999 0168 FB7B     		ldrb	r3, [r7, #15]
ARM GAS  C:\Users\Lenovo\AppData\Local\Temp\cc37sAV3.s 			page 23


 1000 016a 013B     		subs	r3, r3, #1
 1001 016c BB73     		strb	r3, [r7, #14]
 1002              	.L66:
 220:.\operations.c ****         if(value2[x]!=','){
 1003              		.loc 1 220 0 discriminator 2
 1004 016e FB7B     		ldrb	r3, [r7, #15]	@ zero_extendqisi2
 1005 0170 013B     		subs	r3, r3, #1
 1006 0172 FB73     		strb	r3, [r7, #15]
 1007              	.L64:
 220:.\operations.c ****         if(value2[x]!=','){
 1008              		.loc 1 220 0 is_stmt 0 discriminator 1
 1009 0174 FB7B     		ldrb	r3, [r7, #15]	@ zero_extendqisi2
 1010 0176 002B     		cmp	r3, #0
 1011 0178 B0D1     		bne	.L67
 226:.\operations.c ****         }
 227:.\operations.c ****     }
 228:.\operations.c ****     if(tempV1>tempV2){
 1012              		.loc 1 228 0 is_stmt 1
 1013 017a D7E90601 		ldrd	r0, [r7, #24]
 1014 017e D7E90423 		ldrd	r2, [r7, #16]
 1015 0182 FFF7FEFF 		bl	__aeabi_dcmpgt
 1016 0186 0346     		mov	r3, r0
 1017 0188 002B     		cmp	r3, #0
 1018 018a 01D0     		beq	.L75
 229:.\operations.c ****         return 1;
 1019              		.loc 1 229 0
 1020 018c 0123     		movs	r3, #1
 1021 018e 0BE0     		b	.L70
 1022              	.L75:
 230:.\operations.c ****     }else if(tempV1<tempV2){
 1023              		.loc 1 230 0
 1024 0190 D7E90601 		ldrd	r0, [r7, #24]
 1025 0194 D7E90423 		ldrd	r2, [r7, #16]
 1026 0198 FFF7FEFF 		bl	__aeabi_dcmplt
 1027 019c 0346     		mov	r3, r0
 1028 019e 002B     		cmp	r3, #0
 1029 01a0 01D0     		beq	.L76
 231:.\operations.c ****         return 2;
 1030              		.loc 1 231 0
 1031 01a2 0223     		movs	r3, #2
 1032 01a4 00E0     		b	.L70
 1033              	.L76:
 232:.\operations.c ****     }else{
 233:.\operations.c ****         return 0;
 1034              		.loc 1 233 0
 1035 01a6 0023     		movs	r3, #0
 1036              	.L70:
 234:.\operations.c ****     }
 235:.\operations.c **** }
 1037              		.loc 1 235 0
 1038 01a8 1846     		mov	r0, r3
 1039 01aa 2037     		adds	r7, r7, #32
 1040              		.cfi_def_cfa_offset 16
 1041 01ac BD46     		mov	sp, r7
 1042              		.cfi_def_cfa_register 13
 1043              		@ sp needed
 1044 01ae B0BD     		pop	{r4, r5, r7, pc}
ARM GAS  C:\Users\Lenovo\AppData\Local\Temp\cc37sAV3.s 			page 24


 1045              	.L78:
 1046              		.align	2
 1047              	.L77:
 1048 01b0 00002440 		.word	1076101120
 1049              		.cfi_endproc
 1050              	.LFE58:
 1051              		.size	higher, .-higher
 1052              		.section	.text.multiplication_market,"ax",%progbits
 1053              		.align	2
 1054              		.global	multiplication_market
 1055              		.thumb
 1056              		.thumb_func
 1057              		.type	multiplication_market, %function
 1058              	multiplication_market:
 1059              	.LFB59:
 236:.\operations.c **** 
 237:.\operations.c **** /*
 238:.\operations.c **** ***************************************************************************************************
 239:.\operations.c **** *                         void multiplication_market(uint8 *value1,uint8 *value2)
 240:.\operations.c **** *
 241:.\operations.c **** * Description : 
 242:.\operations.c **** *               
 243:.\operations.c **** *
 244:.\operations.c **** * Argument(s) : none
 245:.\operations.c **** *
 246:.\operations.c **** * Return(s)   : none
 247:.\operations.c **** *
 248:.\operations.c **** * Caller(s)   : 
 249:.\operations.c **** *
 250:.\operations.c **** * Note(s)     : none.
 251:.\operations.c **** ***************************************************************************************************
 252:.\operations.c **** */
 253:.\operations.c **** 
 254:.\operations.c **** void multiplication_market(uint8 *value1,uint8 *value2){
 1060              		.loc 1 254 0
 1061              		.cfi_startproc
 1062              		@ args = 0, pretend = 0, frame = 96
 1063              		@ frame_needed = 1, uses_anonymous_args = 0
 1064 0000 90B5     		push	{r4, r7, lr}
 1065              		.cfi_def_cfa_offset 12
 1066              		.cfi_offset 4, -12
 1067              		.cfi_offset 7, -8
 1068              		.cfi_offset 14, -4
 1069 0002 99B0     		sub	sp, sp, #100
 1070              		.cfi_def_cfa_offset 112
 1071 0004 00AF     		add	r7, sp, #0
 1072              		.cfi_def_cfa_register 7
 1073 0006 7860     		str	r0, [r7, #4]
 1074 0008 3960     		str	r1, [r7]
 255:.\operations.c ****     /*double tempV1=0,tempV2=0,total;
 256:.\operations.c ****     int x,y;
 257:.\operations.c ****     char valueTotal[16];
 258:.\operations.c ****     char decimal[5]="%.0f*";
 259:.\operations.c ****     decimal[2]=decimalMoney+0x30;
 260:.\operations.c ****     y=value1[0];
 261:.\operations.c ****     for(x=value1[0];x>0;x--){
 262:.\operations.c ****         if(value1[x]!=','){
ARM GAS  C:\Users\Lenovo\AppData\Local\Temp\cc37sAV3.s 			page 25


 263:.\operations.c ****             tempV1+=((double)(value1[x]&0x0f)*pow(10,(y-x)));
 264:.\operations.c ****         }else{
 265:.\operations.c ****             tempV1/=pow(10,(y-x));
 266:.\operations.c ****             y=x-1;
 267:.\operations.c ****         }
 268:.\operations.c ****     }
 269:.\operations.c ****     y=value2[0];
 270:.\operations.c ****     for(x=value2[0];x>0;x--){
 271:.\operations.c ****         if(value2[x]!=','){
 272:.\operations.c ****             tempV2+=((double)(value2[x]&0x0f)*pow(10,(y-x)));
 273:.\operations.c ****         }else{
 274:.\operations.c ****             tempV2/=pow(10,(y-x));
 275:.\operations.c ****             y=x-1;
 276:.\operations.c ****         }
 277:.\operations.c ****     }
 278:.\operations.c ****     total=tempV1*tempV2;
 279:.\operations.c ****     sprintf(valueTotal,decimal,total);
 280:.\operations.c ****     for(y=0;y<16;y++){
 281:.\operations.c ****         if(valueTotal[y]=='*'){
 282:.\operations.c ****             break;
 283:.\operations.c ****         }
 284:.\operations.c ****     }
 285:.\operations.c ****     for(x=1;x<=y;x++){
 286:.\operations.c ****         temporal[x]=valueTotal[x-1];
 287:.\operations.c ****         if(valueTotal[x-1]=='.'){
 288:.\operations.c ****             temporal[x]=',';
 289:.\operations.c ****         }
 290:.\operations.c ****     }
 291:.\operations.c ****     for(x=8;x>0;x--){
 292:.\operations.c ****         temporal[x]=temporal[y];
 293:.\operations.c ****         y--;
 294:.\operations.c ****         if(y<=0){
 295:.\operations.c ****             while(x>1){
 296:.\operations.c ****                 x--;
 297:.\operations.c ****                 temporal[x]='0';
 298:.\operations.c ****             }
 299:.\operations.c ****             break;
 300:.\operations.c ****         }
 301:.\operations.c ****     }
 302:.\operations.c ****     temporal[0]=8;
 303:.\operations.c ****     CyWdtClear();*/
 304:.\operations.c ****     /*double tempV1=0,tempV2=0,total;
 305:.\operations.c ****     int x,y;
 306:.\operations.c ****     y=value1[0];
 307:.\operations.c ****     for(x=value1[0];x>0;x--){
 308:.\operations.c ****         if(value1[x]!=','){
 309:.\operations.c ****             tempV1+=((double)(value1[x]&0x0f)*pow(10,(y-x)));
 310:.\operations.c ****         }else{
 311:.\operations.c ****             tempV1/=pow(10,(y-x));
 312:.\operations.c ****             y=x-1;
 313:.\operations.c ****         }
 314:.\operations.c ****     }
 315:.\operations.c ****     y=value2[0];
 316:.\operations.c ****     for(x=value2[0];x>0;x--){
 317:.\operations.c ****         if(value2[x]!=','){
 318:.\operations.c ****             tempV2+=((double)(value2[x]&0x0f)*pow(10,(y-x)));
 319:.\operations.c ****         }else{
ARM GAS  C:\Users\Lenovo\AppData\Local\Temp\cc37sAV3.s 			page 26


 320:.\operations.c ****             tempV2/=pow(10,(y-x));
 321:.\operations.c ****             y=x-1;
 322:.\operations.c ****         }
 323:.\operations.c ****     }
 324:.\operations.c ****     total=tempV1*tempV2;
 325:.\operations.c ****     for(x=1;x<=8;x++){
 326:.\operations.c **** 		temporal[9-x] = (((int)total%(int)pow(10,x))/pow(10,x-1))+0x30;
 327:.\operations.c **** 	}
 328:.\operations.c **** 	temporal[0]=8;*/
 329:.\operations.c ****     uint8 tempValue1[10],tempValue2[10],tempValue[4][15]={{0},{0}},x,y,z,tenth;
 1075              		.loc 1 329 0
 1076 000a 07F10803 		add	r3, r7, #8
 1077 000e 3C22     		movs	r2, #60
 1078 0010 1846     		mov	r0, r3
 1079 0012 0021     		movs	r1, #0
 1080 0014 FFF7FEFF 		bl	memset
 330:.\operations.c ****     tempValue1[0]=value1[0];
 1081              		.loc 1 330 0
 1082 0018 7B68     		ldr	r3, [r7, #4]
 1083 001a 1B78     		ldrb	r3, [r3]	@ zero_extendqisi2
 1084 001c 87F85030 		strb	r3, [r7, #80]
 331:.\operations.c ****     for(x=value1[0];x>0;x--){
 1085              		.loc 1 331 0
 1086 0020 7B68     		ldr	r3, [r7, #4]
 1087 0022 1B78     		ldrb	r3, [r3]
 1088 0024 87F85F30 		strb	r3, [r7, #95]
 1089 0028 38E0     		b	.L80
 1090              	.L85:
 332:.\operations.c ****         tempValue1[x]=value1[x]&0x0f;
 1091              		.loc 1 332 0
 1092 002a 97F85F30 		ldrb	r3, [r7, #95]	@ zero_extendqisi2
 1093 002e 97F85F20 		ldrb	r2, [r7, #95]	@ zero_extendqisi2
 1094 0032 7968     		ldr	r1, [r7, #4]
 1095 0034 0A44     		add	r2, r2, r1
 1096 0036 1278     		ldrb	r2, [r2]	@ zero_extendqisi2
 1097 0038 02F00F02 		and	r2, r2, #15
 1098 003c D2B2     		uxtb	r2, r2
 1099 003e 07F16001 		add	r1, r7, #96
 1100 0042 0B44     		add	r3, r3, r1
 1101 0044 03F8102C 		strb	r2, [r3, #-16]
 333:.\operations.c ****         if(value1[x]==','){
 1102              		.loc 1 333 0
 1103 0048 97F85F30 		ldrb	r3, [r7, #95]	@ zero_extendqisi2
 1104 004c 7A68     		ldr	r2, [r7, #4]
 1105 004e 1344     		add	r3, r3, r2
 1106 0050 1B78     		ldrb	r3, [r3]	@ zero_extendqisi2
 1107 0052 2C2B     		cmp	r3, #44
 1108 0054 1DD1     		bne	.L81
 334:.\operations.c ****             while(x>0){
 1109              		.loc 1 334 0
 1110 0056 14E0     		b	.L82
 1111              	.L83:
 335:.\operations.c ****                 tempValue1[x]=value1[x-1]&0x0f;
 1112              		.loc 1 335 0
 1113 0058 97F85F30 		ldrb	r3, [r7, #95]	@ zero_extendqisi2
 1114 005c 97F85F20 		ldrb	r2, [r7, #95]	@ zero_extendqisi2
 1115 0060 013A     		subs	r2, r2, #1
ARM GAS  C:\Users\Lenovo\AppData\Local\Temp\cc37sAV3.s 			page 27


 1116 0062 7968     		ldr	r1, [r7, #4]
 1117 0064 0A44     		add	r2, r2, r1
 1118 0066 1278     		ldrb	r2, [r2]	@ zero_extendqisi2
 1119 0068 02F00F02 		and	r2, r2, #15
 1120 006c D2B2     		uxtb	r2, r2
 1121 006e 07F16001 		add	r1, r7, #96
 1122 0072 0B44     		add	r3, r3, r1
 1123 0074 03F8102C 		strb	r2, [r3, #-16]
 336:.\operations.c ****                 x--;
 1124              		.loc 1 336 0
 1125 0078 97F85F30 		ldrb	r3, [r7, #95]	@ zero_extendqisi2
 1126 007c 013B     		subs	r3, r3, #1
 1127 007e 87F85F30 		strb	r3, [r7, #95]
 1128              	.L82:
 334:.\operations.c ****             while(x>0){
 1129              		.loc 1 334 0
 1130 0082 97F85F30 		ldrb	r3, [r7, #95]	@ zero_extendqisi2
 1131 0086 002B     		cmp	r3, #0
 1132 0088 E6D1     		bne	.L83
 337:.\operations.c ****             }
 338:.\operations.c ****             tempValue1[1]=0;
 1133              		.loc 1 338 0
 1134 008a 0023     		movs	r3, #0
 1135 008c 87F85130 		strb	r3, [r7, #81]
 339:.\operations.c ****             break;
 1136              		.loc 1 339 0
 1137 0090 08E0     		b	.L84
 1138              	.L81:
 331:.\operations.c ****         tempValue1[x]=value1[x]&0x0f;
 1139              		.loc 1 331 0 discriminator 2
 1140 0092 97F85F30 		ldrb	r3, [r7, #95]	@ zero_extendqisi2
 1141 0096 013B     		subs	r3, r3, #1
 1142 0098 87F85F30 		strb	r3, [r7, #95]
 1143              	.L80:
 331:.\operations.c ****         tempValue1[x]=value1[x]&0x0f;
 1144              		.loc 1 331 0 is_stmt 0 discriminator 1
 1145 009c 97F85F30 		ldrb	r3, [r7, #95]	@ zero_extendqisi2
 1146 00a0 002B     		cmp	r3, #0
 1147 00a2 C2D1     		bne	.L85
 1148              	.L84:
 340:.\operations.c ****         }
 341:.\operations.c ****     }
 342:.\operations.c ****     tempValue2[0]=value2[0];
 1149              		.loc 1 342 0 is_stmt 1
 1150 00a4 3B68     		ldr	r3, [r7]
 1151 00a6 1B78     		ldrb	r3, [r3]	@ zero_extendqisi2
 1152 00a8 87F84430 		strb	r3, [r7, #68]
 343:.\operations.c ****     for(x=value2[0];x>0;x--){
 1153              		.loc 1 343 0
 1154 00ac 3B68     		ldr	r3, [r7]
 1155 00ae 1B78     		ldrb	r3, [r3]
 1156 00b0 87F85F30 		strb	r3, [r7, #95]
 1157 00b4 38E0     		b	.L86
 1158              	.L91:
 344:.\operations.c ****         tempValue2[x]=value2[x]&0x0f;
 1159              		.loc 1 344 0
 1160 00b6 97F85F30 		ldrb	r3, [r7, #95]	@ zero_extendqisi2
ARM GAS  C:\Users\Lenovo\AppData\Local\Temp\cc37sAV3.s 			page 28


 1161 00ba 97F85F20 		ldrb	r2, [r7, #95]	@ zero_extendqisi2
 1162 00be 3968     		ldr	r1, [r7]
 1163 00c0 0A44     		add	r2, r2, r1
 1164 00c2 1278     		ldrb	r2, [r2]	@ zero_extendqisi2
 1165 00c4 02F00F02 		and	r2, r2, #15
 1166 00c8 D2B2     		uxtb	r2, r2
 1167 00ca 07F16001 		add	r1, r7, #96
 1168 00ce 0B44     		add	r3, r3, r1
 1169 00d0 03F81C2C 		strb	r2, [r3, #-28]
 345:.\operations.c ****         if(value2[x]==','){
 1170              		.loc 1 345 0
 1171 00d4 97F85F30 		ldrb	r3, [r7, #95]	@ zero_extendqisi2
 1172 00d8 3A68     		ldr	r2, [r7]
 1173 00da 1344     		add	r3, r3, r2
 1174 00dc 1B78     		ldrb	r3, [r3]	@ zero_extendqisi2
 1175 00de 2C2B     		cmp	r3, #44
 1176 00e0 1DD1     		bne	.L87
 346:.\operations.c ****             while(x>0){
 1177              		.loc 1 346 0
 1178 00e2 14E0     		b	.L88
 1179              	.L89:
 347:.\operations.c ****                 tempValue2[x]=value2[x-1]&0x0f;
 1180              		.loc 1 347 0
 1181 00e4 97F85F30 		ldrb	r3, [r7, #95]	@ zero_extendqisi2
 1182 00e8 97F85F20 		ldrb	r2, [r7, #95]	@ zero_extendqisi2
 1183 00ec 013A     		subs	r2, r2, #1
 1184 00ee 3968     		ldr	r1, [r7]
 1185 00f0 0A44     		add	r2, r2, r1
 1186 00f2 1278     		ldrb	r2, [r2]	@ zero_extendqisi2
 1187 00f4 02F00F02 		and	r2, r2, #15
 1188 00f8 D2B2     		uxtb	r2, r2
 1189 00fa 07F16001 		add	r1, r7, #96
 1190 00fe 0B44     		add	r3, r3, r1
 1191 0100 03F81C2C 		strb	r2, [r3, #-28]
 348:.\operations.c ****                 x--;
 1192              		.loc 1 348 0
 1193 0104 97F85F30 		ldrb	r3, [r7, #95]	@ zero_extendqisi2
 1194 0108 013B     		subs	r3, r3, #1
 1195 010a 87F85F30 		strb	r3, [r7, #95]
 1196              	.L88:
 346:.\operations.c ****             while(x>0){
 1197              		.loc 1 346 0
 1198 010e 97F85F30 		ldrb	r3, [r7, #95]	@ zero_extendqisi2
 1199 0112 002B     		cmp	r3, #0
 1200 0114 E6D1     		bne	.L89
 349:.\operations.c ****             }
 350:.\operations.c ****             tempValue2[1]=0;
 1201              		.loc 1 350 0
 1202 0116 0023     		movs	r3, #0
 1203 0118 87F84530 		strb	r3, [r7, #69]
 351:.\operations.c ****             break;
 1204              		.loc 1 351 0
 1205 011c 08E0     		b	.L90
 1206              	.L87:
 343:.\operations.c ****         tempValue2[x]=value2[x]&0x0f;
 1207              		.loc 1 343 0 discriminator 2
 1208 011e 97F85F30 		ldrb	r3, [r7, #95]	@ zero_extendqisi2
ARM GAS  C:\Users\Lenovo\AppData\Local\Temp\cc37sAV3.s 			page 29


 1209 0122 013B     		subs	r3, r3, #1
 1210 0124 87F85F30 		strb	r3, [r7, #95]
 1211              	.L86:
 343:.\operations.c ****         tempValue2[x]=value2[x]&0x0f;
 1212              		.loc 1 343 0 is_stmt 0 discriminator 1
 1213 0128 97F85F30 		ldrb	r3, [r7, #95]	@ zero_extendqisi2
 1214 012c 002B     		cmp	r3, #0
 1215 012e C2D1     		bne	.L91
 1216              	.L90:
 352:.\operations.c ****         }
 353:.\operations.c ****     }
 354:.\operations.c ****     z=3;
 1217              		.loc 1 354 0 is_stmt 1
 1218 0130 0323     		movs	r3, #3
 1219 0132 87F85D30 		strb	r3, [r7, #93]
 355:.\operations.c ****     for(x=3;x>0;x--){
 1220              		.loc 1 355 0
 1221 0136 0323     		movs	r3, #3
 1222 0138 87F85F30 		strb	r3, [r7, #95]
 1223 013c 67E0     		b	.L92
 1224              	.L95:
 356:.\operations.c ****         tenth=0;
 1225              		.loc 1 356 0
 1226 013e 0023     		movs	r3, #0
 1227 0140 87F85C30 		strb	r3, [r7, #92]
 357:.\operations.c ****         for(y=8;y>0;y--){
 1228              		.loc 1 357 0
 1229 0144 0823     		movs	r3, #8
 1230 0146 87F85E30 		strb	r3, [r7, #94]
 1231 014a 52E0     		b	.L93
 1232              	.L94:
 358:.\operations.c ****             tempValue[3-x][y+z]=((tempValue1[x]*tempValue2[y])+tenth)%10;
 1233              		.loc 1 358 0 discriminator 3
 1234 014c 97F85F30 		ldrb	r3, [r7, #95]	@ zero_extendqisi2
 1235 0150 C3F10300 		rsb	r0, r3, #3
 1236 0154 97F85E20 		ldrb	r2, [r7, #94]	@ zero_extendqisi2
 1237 0158 97F85D30 		ldrb	r3, [r7, #93]	@ zero_extendqisi2
 1238 015c D418     		adds	r4, r2, r3
 1239 015e 97F85F30 		ldrb	r3, [r7, #95]	@ zero_extendqisi2
 1240 0162 07F16002 		add	r2, r7, #96
 1241 0166 1344     		add	r3, r3, r2
 1242 0168 13F8103C 		ldrb	r3, [r3, #-16]	@ zero_extendqisi2
 1243 016c 1A46     		mov	r2, r3
 1244 016e 97F85E30 		ldrb	r3, [r7, #94]	@ zero_extendqisi2
 1245 0172 07F16001 		add	r1, r7, #96
 1246 0176 0B44     		add	r3, r3, r1
 1247 0178 13F81C3C 		ldrb	r3, [r3, #-28]	@ zero_extendqisi2
 1248 017c 03FB02F2 		mul	r2, r3, r2
 1249 0180 97F85C30 		ldrb	r3, [r7, #92]	@ zero_extendqisi2
 1250 0184 1A44     		add	r2, r2, r3
 1251 0186 774B     		ldr	r3, .L101
 1252 0188 83FB0213 		smull	r1, r3, r3, r2
 1253 018c 9910     		asrs	r1, r3, #2
 1254 018e D317     		asrs	r3, r2, #31
 1255 0190 C91A     		subs	r1, r1, r3
 1256 0192 0B46     		mov	r3, r1
 1257 0194 9B00     		lsls	r3, r3, #2
ARM GAS  C:\Users\Lenovo\AppData\Local\Temp\cc37sAV3.s 			page 30


 1258 0196 0B44     		add	r3, r3, r1
 1259 0198 5B00     		lsls	r3, r3, #1
 1260 019a D11A     		subs	r1, r2, r3
 1261 019c CAB2     		uxtb	r2, r1
 1262 019e 0346     		mov	r3, r0
 1263 01a0 1B01     		lsls	r3, r3, #4
 1264 01a2 1B1A     		subs	r3, r3, r0
 1265 01a4 07F16001 		add	r1, r7, #96
 1266 01a8 0B44     		add	r3, r3, r1
 1267 01aa 2344     		add	r3, r3, r4
 1268 01ac 583B     		subs	r3, r3, #88
 1269 01ae 1A70     		strb	r2, [r3]
 359:.\operations.c ****             tenth=((tempValue1[x]*tempValue2[y])+tenth)/10;
 1270              		.loc 1 359 0 discriminator 3
 1271 01b0 97F85F30 		ldrb	r3, [r7, #95]	@ zero_extendqisi2
 1272 01b4 07F16002 		add	r2, r7, #96
 1273 01b8 1344     		add	r3, r3, r2
 1274 01ba 13F8103C 		ldrb	r3, [r3, #-16]	@ zero_extendqisi2
 1275 01be 1A46     		mov	r2, r3
 1276 01c0 97F85E30 		ldrb	r3, [r7, #94]	@ zero_extendqisi2
 1277 01c4 07F16001 		add	r1, r7, #96
 1278 01c8 0B44     		add	r3, r3, r1
 1279 01ca 13F81C3C 		ldrb	r3, [r3, #-28]	@ zero_extendqisi2
 1280 01ce 03FB02F2 		mul	r2, r3, r2
 1281 01d2 97F85C30 		ldrb	r3, [r7, #92]	@ zero_extendqisi2
 1282 01d6 1344     		add	r3, r3, r2
 1283 01d8 624A     		ldr	r2, .L101
 1284 01da 82FB0312 		smull	r1, r2, r2, r3
 1285 01de 9210     		asrs	r2, r2, #2
 1286 01e0 DB17     		asrs	r3, r3, #31
 1287 01e2 D31A     		subs	r3, r2, r3
 1288 01e4 87F85C30 		strb	r3, [r7, #92]
 357:.\operations.c ****         for(y=8;y>0;y--){
 1289              		.loc 1 357 0 discriminator 3
 1290 01e8 97F85E30 		ldrb	r3, [r7, #94]	@ zero_extendqisi2
 1291 01ec 013B     		subs	r3, r3, #1
 1292 01ee 87F85E30 		strb	r3, [r7, #94]
 1293              	.L93:
 357:.\operations.c ****         for(y=8;y>0;y--){
 1294              		.loc 1 357 0 is_stmt 0 discriminator 1
 1295 01f2 97F85E30 		ldrb	r3, [r7, #94]	@ zero_extendqisi2
 1296 01f6 002B     		cmp	r3, #0
 1297 01f8 A8D1     		bne	.L94
 360:.\operations.c ****         }
 361:.\operations.c ****         z--;
 1298              		.loc 1 361 0 is_stmt 1 discriminator 2
 1299 01fa 97F85D30 		ldrb	r3, [r7, #93]	@ zero_extendqisi2
 1300 01fe 013B     		subs	r3, r3, #1
 1301 0200 87F85D30 		strb	r3, [r7, #93]
 355:.\operations.c ****         tenth=0;
 1302              		.loc 1 355 0 discriminator 2
 1303 0204 97F85F30 		ldrb	r3, [r7, #95]	@ zero_extendqisi2
 1304 0208 013B     		subs	r3, r3, #1
 1305 020a 87F85F30 		strb	r3, [r7, #95]
 1306              	.L92:
 355:.\operations.c ****         tenth=0;
 1307              		.loc 1 355 0 is_stmt 0 discriminator 1
ARM GAS  C:\Users\Lenovo\AppData\Local\Temp\cc37sAV3.s 			page 31


 1308 020e 97F85F30 		ldrb	r3, [r7, #95]	@ zero_extendqisi2
 1309 0212 002B     		cmp	r3, #0
 1310 0214 93D1     		bne	.L95
 362:.\operations.c ****     }
 363:.\operations.c ****     tenth=0;
 1311              		.loc 1 363 0 is_stmt 1
 1312 0216 0023     		movs	r3, #0
 1313 0218 87F85C30 		strb	r3, [r7, #92]
 364:.\operations.c ****     for(x=11;x>0;x--){
 1314              		.loc 1 364 0
 1315 021c 0B23     		movs	r3, #11
 1316 021e 87F85F30 		strb	r3, [r7, #95]
 1317 0222 57E0     		b	.L96
 1318              	.L97:
 365:.\operations.c ****         tempValue[3][x]=((tempValue[0][x]+tempValue[1][x])+(tempValue[2][x]+tenth))%10;
 1319              		.loc 1 365 0 discriminator 3
 1320 0224 97F85F00 		ldrb	r0, [r7, #95]	@ zero_extendqisi2
 1321 0228 97F85F30 		ldrb	r3, [r7, #95]	@ zero_extendqisi2
 1322 022c 07F16002 		add	r2, r7, #96
 1323 0230 1344     		add	r3, r3, r2
 1324 0232 13F8583C 		ldrb	r3, [r3, #-88]	@ zero_extendqisi2
 1325 0236 1A46     		mov	r2, r3
 1326 0238 97F85F30 		ldrb	r3, [r7, #95]	@ zero_extendqisi2
 1327 023c 07F16001 		add	r1, r7, #96
 1328 0240 0B44     		add	r3, r3, r1
 1329 0242 13F8493C 		ldrb	r3, [r3, #-73]	@ zero_extendqisi2
 1330 0246 1A44     		add	r2, r2, r3
 1331 0248 97F85F30 		ldrb	r3, [r7, #95]	@ zero_extendqisi2
 1332 024c 07F16001 		add	r1, r7, #96
 1333 0250 0B44     		add	r3, r3, r1
 1334 0252 13F83A3C 		ldrb	r3, [r3, #-58]	@ zero_extendqisi2
 1335 0256 1946     		mov	r1, r3
 1336 0258 97F85C30 		ldrb	r3, [r7, #92]	@ zero_extendqisi2
 1337 025c 0B44     		add	r3, r3, r1
 1338 025e 1A44     		add	r2, r2, r3
 1339 0260 404B     		ldr	r3, .L101
 1340 0262 83FB0213 		smull	r1, r3, r3, r2
 1341 0266 9910     		asrs	r1, r3, #2
 1342 0268 D317     		asrs	r3, r2, #31
 1343 026a C91A     		subs	r1, r1, r3
 1344 026c 0B46     		mov	r3, r1
 1345 026e 9B00     		lsls	r3, r3, #2
 1346 0270 0B44     		add	r3, r3, r1
 1347 0272 5B00     		lsls	r3, r3, #1
 1348 0274 D11A     		subs	r1, r2, r3
 1349 0276 CAB2     		uxtb	r2, r1
 1350 0278 07F16003 		add	r3, r7, #96
 1351 027c 0344     		add	r3, r3, r0
 1352 027e 03F82B2C 		strb	r2, [r3, #-43]
 366:.\operations.c ****         tenth=((tempValue[0][x]+tempValue[1][x])+(tempValue[2][x]+tenth))/10;
 1353              		.loc 1 366 0 discriminator 3
 1354 0282 97F85F30 		ldrb	r3, [r7, #95]	@ zero_extendqisi2
 1355 0286 07F16002 		add	r2, r7, #96
 1356 028a 1344     		add	r3, r3, r2
 1357 028c 13F8583C 		ldrb	r3, [r3, #-88]	@ zero_extendqisi2
 1358 0290 1A46     		mov	r2, r3
 1359 0292 97F85F30 		ldrb	r3, [r7, #95]	@ zero_extendqisi2
ARM GAS  C:\Users\Lenovo\AppData\Local\Temp\cc37sAV3.s 			page 32


 1360 0296 07F16001 		add	r1, r7, #96
 1361 029a 0B44     		add	r3, r3, r1
 1362 029c 13F8493C 		ldrb	r3, [r3, #-73]	@ zero_extendqisi2
 1363 02a0 1A44     		add	r2, r2, r3
 1364 02a2 97F85F30 		ldrb	r3, [r7, #95]	@ zero_extendqisi2
 1365 02a6 07F16001 		add	r1, r7, #96
 1366 02aa 0B44     		add	r3, r3, r1
 1367 02ac 13F83A3C 		ldrb	r3, [r3, #-58]	@ zero_extendqisi2
 1368 02b0 1946     		mov	r1, r3
 1369 02b2 97F85C30 		ldrb	r3, [r7, #92]	@ zero_extendqisi2
 1370 02b6 0B44     		add	r3, r3, r1
 1371 02b8 1344     		add	r3, r3, r2
 1372 02ba 2A4A     		ldr	r2, .L101
 1373 02bc 82FB0312 		smull	r1, r2, r2, r3
 1374 02c0 9210     		asrs	r2, r2, #2
 1375 02c2 DB17     		asrs	r3, r3, #31
 1376 02c4 D31A     		subs	r3, r2, r3
 1377 02c6 87F85C30 		strb	r3, [r7, #92]
 364:.\operations.c ****     for(x=11;x>0;x--){
 1378              		.loc 1 364 0 discriminator 3
 1379 02ca 97F85F30 		ldrb	r3, [r7, #95]	@ zero_extendqisi2
 1380 02ce 013B     		subs	r3, r3, #1
 1381 02d0 87F85F30 		strb	r3, [r7, #95]
 1382              	.L96:
 364:.\operations.c ****     for(x=11;x>0;x--){
 1383              		.loc 1 364 0 is_stmt 0 discriminator 1
 1384 02d4 97F85F30 		ldrb	r3, [r7, #95]	@ zero_extendqisi2
 1385 02d8 002B     		cmp	r3, #0
 1386 02da A3D1     		bne	.L97
 367:.\operations.c ****     }
 368:.\operations.c ****     y=11;
 1387              		.loc 1 368 0 is_stmt 1
 1388 02dc 0B23     		movs	r3, #11
 1389 02de 87F85E30 		strb	r3, [r7, #94]
 369:.\operations.c ****     z=0;
 1390              		.loc 1 369 0
 1391 02e2 0023     		movs	r3, #0
 1392 02e4 87F85D30 		strb	r3, [r7, #93]
 370:.\operations.c ****     for(x=8;x>0;x--){
 1393              		.loc 1 370 0
 1394 02e8 0823     		movs	r3, #8
 1395 02ea 87F85F30 		strb	r3, [r7, #95]
 1396 02ee 2FE0     		b	.L98
 1397              	.L100:
 371:.\operations.c ****         temporal[x]=(tempValue[3][y]&0x0f)+0x30;
 1398              		.loc 1 371 0
 1399 02f0 97F85F30 		ldrb	r3, [r7, #95]	@ zero_extendqisi2
 1400 02f4 97F85E20 		ldrb	r2, [r7, #94]	@ zero_extendqisi2
 1401 02f8 07F16001 		add	r1, r7, #96
 1402 02fc 0A44     		add	r2, r2, r1
 1403 02fe 12F82B2C 		ldrb	r2, [r2, #-43]	@ zero_extendqisi2
 1404 0302 02F00F02 		and	r2, r2, #15
 1405 0306 D2B2     		uxtb	r2, r2
 1406 0308 3032     		adds	r2, r2, #48
 1407 030a D1B2     		uxtb	r1, r2
 1408 030c 164A     		ldr	r2, .L101+4
 1409 030e D154     		strb	r1, [r2, r3]
ARM GAS  C:\Users\Lenovo\AppData\Local\Temp\cc37sAV3.s 			page 33


 372:.\operations.c ****         y--;
 1410              		.loc 1 372 0
 1411 0310 97F85E30 		ldrb	r3, [r7, #94]	@ zero_extendqisi2
 1412 0314 013B     		subs	r3, r3, #1
 1413 0316 87F85E30 		strb	r3, [r7, #94]
 373:.\operations.c ****         z++;
 1414              		.loc 1 373 0
 1415 031a 97F85D30 		ldrb	r3, [r7, #93]	@ zero_extendqisi2
 1416 031e 0133     		adds	r3, r3, #1
 1417 0320 87F85D30 		strb	r3, [r7, #93]
 374:.\operations.c ****         if(z==decimalMoney){
 1418              		.loc 1 374 0
 1419 0324 114B     		ldr	r3, .L101+8
 1420 0326 1B78     		ldrb	r3, [r3]
 1421 0328 DBB2     		uxtb	r3, r3
 1422 032a 97F85D20 		ldrb	r2, [r7, #93]	@ zero_extendqisi2
 1423 032e 9A42     		cmp	r2, r3
 1424 0330 09D1     		bne	.L99
 375:.\operations.c ****             x--;
 1425              		.loc 1 375 0
 1426 0332 97F85F30 		ldrb	r3, [r7, #95]	@ zero_extendqisi2
 1427 0336 013B     		subs	r3, r3, #1
 1428 0338 87F85F30 		strb	r3, [r7, #95]
 376:.\operations.c ****             temporal[x]=',';
 1429              		.loc 1 376 0
 1430 033c 97F85F30 		ldrb	r3, [r7, #95]	@ zero_extendqisi2
 1431 0340 094A     		ldr	r2, .L101+4
 1432 0342 2C21     		movs	r1, #44
 1433 0344 D154     		strb	r1, [r2, r3]
 1434              	.L99:
 370:.\operations.c ****         temporal[x]=(tempValue[3][y]&0x0f)+0x30;
 1435              		.loc 1 370 0 discriminator 2
 1436 0346 97F85F30 		ldrb	r3, [r7, #95]	@ zero_extendqisi2
 1437 034a 013B     		subs	r3, r3, #1
 1438 034c 87F85F30 		strb	r3, [r7, #95]
 1439              	.L98:
 370:.\operations.c ****         temporal[x]=(tempValue[3][y]&0x0f)+0x30;
 1440              		.loc 1 370 0 is_stmt 0 discriminator 1
 1441 0350 97F85F30 		ldrb	r3, [r7, #95]	@ zero_extendqisi2
 1442 0354 002B     		cmp	r3, #0
 1443 0356 CBD1     		bne	.L100
 377:.\operations.c ****         }
 378:.\operations.c ****     }
 379:.\operations.c ****     temporal[0]=8;
 1444              		.loc 1 379 0 is_stmt 1
 1445 0358 034B     		ldr	r3, .L101+4
 1446 035a 0822     		movs	r2, #8
 1447 035c 1A70     		strb	r2, [r3]
 380:.\operations.c **** }
 1448              		.loc 1 380 0
 1449 035e 6437     		adds	r7, r7, #100
 1450              		.cfi_def_cfa_offset 12
 1451 0360 BD46     		mov	sp, r7
 1452              		.cfi_def_cfa_register 13
 1453              		@ sp needed
 1454 0362 90BD     		pop	{r4, r7, pc}
 1455              	.L102:
ARM GAS  C:\Users\Lenovo\AppData\Local\Temp\cc37sAV3.s 			page 34


 1456              		.align	2
 1457              	.L101:
 1458 0364 67666666 		.word	1717986919
 1459 0368 00000000 		.word	temporal
 1460 036c 00000000 		.word	decimalMoney
 1461              		.cfi_endproc
 1462              	.LFE59:
 1463              		.size	multiplication_market, .-multiplication_market
 1464              		.section	.text.addition_market,"ax",%progbits
 1465              		.align	2
 1466              		.global	addition_market
 1467              		.thumb
 1468              		.thumb_func
 1469              		.type	addition_market, %function
 1470              	addition_market:
 1471              	.LFB60:
 381:.\operations.c **** 
 382:.\operations.c **** /*
 383:.\operations.c **** ***************************************************************************************************
 384:.\operations.c **** *                    void addition_market(uint8 *value1,uint8 *value2, uint8 *value3)
 385:.\operations.c **** *
 386:.\operations.c **** * Description : 
 387:.\operations.c **** *               
 388:.\operations.c **** *
 389:.\operations.c **** * Argument(s) : none
 390:.\operations.c **** *
 391:.\operations.c **** * Return(s)   : none
 392:.\operations.c **** *
 393:.\operations.c **** * Caller(s)   : 
 394:.\operations.c **** *
 395:.\operations.c **** * Note(s)     : none.
 396:.\operations.c **** ***************************************************************************************************
 397:.\operations.c **** */
 398:.\operations.c **** 
 399:.\operations.c **** void addition_market(uint8 *value1,uint8 *value2, uint8 *value3){
 1472              		.loc 1 399 0
 1473              		.cfi_startproc
 1474              		@ args = 0, pretend = 0, frame = 72
 1475              		@ frame_needed = 1, uses_anonymous_args = 0
 1476              		@ link register save eliminated.
 1477 0000 80B4     		push	{r7}
 1478              		.cfi_def_cfa_offset 4
 1479              		.cfi_offset 7, -4
 1480 0002 93B0     		sub	sp, sp, #76
 1481              		.cfi_def_cfa_offset 80
 1482 0004 00AF     		add	r7, sp, #0
 1483              		.cfi_def_cfa_register 7
 1484 0006 F860     		str	r0, [r7, #12]
 1485 0008 B960     		str	r1, [r7, #8]
 1486 000a 7A60     		str	r2, [r7, #4]
 400:.\operations.c ****    /* double tempV1=0,tempV2=0,tempV3=0,total;
 401:.\operations.c ****     int x,y;
 402:.\operations.c ****     char valueTotal[12];
 403:.\operations.c ****     char decimal[5]="%.0f*";
 404:.\operations.c ****     decimal[2]=decimalMoney+0x30;
 405:.\operations.c ****     y=value1[0];
 406:.\operations.c ****     for(x=value1[0];x>0;x--){
ARM GAS  C:\Users\Lenovo\AppData\Local\Temp\cc37sAV3.s 			page 35


 407:.\operations.c ****         if(value1[x]!=','){
 408:.\operations.c ****             tempV1+=((double)(value1[x]&0x0f)*pow(10,(y-x)));
 409:.\operations.c ****         }else{
 410:.\operations.c ****             tempV1/=pow(10,(y-x));
 411:.\operations.c ****             y=x-1;
 412:.\operations.c ****         }
 413:.\operations.c ****     }
 414:.\operations.c ****     y=value2[0];
 415:.\operations.c ****     for(x=value2[0];x>0;x--){
 416:.\operations.c ****         if(value2[x]!=','){
 417:.\operations.c ****             tempV2+=((double)(value2[x]&0x0f)*pow(10,(y-x)));
 418:.\operations.c ****         }else{
 419:.\operations.c ****             tempV2/=pow(10,(y-x));
 420:.\operations.c ****             y=x-1;
 421:.\operations.c ****         }
 422:.\operations.c ****     }
 423:.\operations.c ****     y=value3[0];
 424:.\operations.c ****     for(x=value3[0];x>0;x--){
 425:.\operations.c ****         if(value3[x]!=','){
 426:.\operations.c ****             tempV3+=((double)(value3[x]&0x0f)*pow(10,(y-x)));
 427:.\operations.c ****         }else{
 428:.\operations.c ****             tempV3/=pow(10,(y-x));
 429:.\operations.c ****             y=x-1;
 430:.\operations.c ****         }
 431:.\operations.c ****     }
 432:.\operations.c ****     total=tempV1+tempV2+tempV3;
 433:.\operations.c ****     sprintf(valueTotal,decimal,total);
 434:.\operations.c ****     for(y=0;y<12;y++){
 435:.\operations.c ****         if(valueTotal[y]=='*'){
 436:.\operations.c ****             break;
 437:.\operations.c ****         }
 438:.\operations.c ****     }
 439:.\operations.c ****     for(x=1;x<=y;x++){
 440:.\operations.c ****         temporal[x]=valueTotal[x-1];
 441:.\operations.c ****         if(valueTotal[x-1]=='.'){
 442:.\operations.c ****             temporal[x]=',';
 443:.\operations.c ****         }
 444:.\operations.c ****     }
 445:.\operations.c ****     for(x=9;x>0;x--){
 446:.\operations.c ****         temporal[x]=temporal[y];
 447:.\operations.c ****         y--;
 448:.\operations.c ****         if(y<=0){
 449:.\operations.c ****             while(x>1){
 450:.\operations.c ****                 x--;
 451:.\operations.c ****                 temporal[x]='0';
 452:.\operations.c ****             }
 453:.\operations.c ****             break;
 454:.\operations.c ****         }
 455:.\operations.c ****     }
 456:.\operations.c **** 	temporal[0]=9;
 457:.\operations.c ****     CyWdtClear();*/
 458:.\operations.c ****     
 459:.\operations.c ****     /*double tempV1=0,tempV2=0,tempV3=0,total;
 460:.\operations.c ****     int x,y;
 461:.\operations.c ****     y=value1[0];
 462:.\operations.c ****     for(x=value1[0];x>0;x--){
 463:.\operations.c ****         if(value1[x]!=','){
ARM GAS  C:\Users\Lenovo\AppData\Local\Temp\cc37sAV3.s 			page 36


 464:.\operations.c ****             tempV1+=((double)(value1[x]&0x0f)*pow(10,(y-x)));
 465:.\operations.c ****         }else{
 466:.\operations.c ****             tempV1/=pow(10,(y-x));
 467:.\operations.c ****             y=x-1;
 468:.\operations.c ****         }
 469:.\operations.c ****     }
 470:.\operations.c ****     y=value2[0];
 471:.\operations.c ****     for(x=value2[0];x>0;x--){
 472:.\operations.c ****         if(value2[x]!=','){
 473:.\operations.c ****             tempV2+=((double)(value2[x]&0x0f)*pow(10,(y-x)));
 474:.\operations.c ****         }else{
 475:.\operations.c ****             tempV2/=pow(10,(y-x));
 476:.\operations.c ****             y=x-1;
 477:.\operations.c ****         }
 478:.\operations.c ****     }
 479:.\operations.c ****     y=value3[0];
 480:.\operations.c ****     for(x=value3[0];x>0;x--){
 481:.\operations.c ****         if(value3[x]!=','){
 482:.\operations.c ****             tempV3+=((double)(value3[x]&0x0f)*pow(10,(y-x)));
 483:.\operations.c ****         }else{
 484:.\operations.c ****             tempV3/=pow(10,(y-x));
 485:.\operations.c ****             y=x-1;
 486:.\operations.c ****         }
 487:.\operations.c ****     }
 488:.\operations.c ****     total=tempV1+tempV2+tempV3;
 489:.\operations.c ****     for(x=1;x<=9;x++){
 490:.\operations.c ****         temporal[10-x]=(((int)total%(int)pow(10,x))/pow(10,x-1))+0x30;
 491:.\operations.c ****     }
 492:.\operations.c **** 	temporal[0]=9;*/
 493:.\operations.c ****     uint8 tempValue1[10],tempValue2[10],tempValue3[10],tempValue[10]={0},x,y,z,tenth;
 1487              		.loc 1 493 0
 1488 000c 07F11403 		add	r3, r7, #20
 1489 0010 0022     		movs	r2, #0
 1490 0012 1A60     		str	r2, [r3]
 1491 0014 0433     		adds	r3, r3, #4
 1492 0016 0022     		movs	r2, #0
 1493 0018 1A60     		str	r2, [r3]
 1494 001a 0433     		adds	r3, r3, #4
 1495 001c 0022     		movs	r2, #0
 1496 001e 1A80     		strh	r2, [r3]	@ movhi
 1497 0020 0233     		adds	r3, r3, #2
 494:.\operations.c ****     tempValue1[0]=value1[0];
 1498              		.loc 1 494 0
 1499 0022 FB68     		ldr	r3, [r7, #12]
 1500 0024 1B78     		ldrb	r3, [r3]	@ zero_extendqisi2
 1501 0026 87F83830 		strb	r3, [r7, #56]
 495:.\operations.c ****     for(x=value1[0];x>0;x--){
 1502              		.loc 1 495 0
 1503 002a FB68     		ldr	r3, [r7, #12]
 1504 002c 1B78     		ldrb	r3, [r3]
 1505 002e 87F84730 		strb	r3, [r7, #71]
 1506 0032 38E0     		b	.L104
 1507              	.L109:
 496:.\operations.c ****         tempValue1[x]=value1[x]&0x0f;
 1508              		.loc 1 496 0
 1509 0034 97F84730 		ldrb	r3, [r7, #71]	@ zero_extendqisi2
 1510 0038 97F84720 		ldrb	r2, [r7, #71]	@ zero_extendqisi2
ARM GAS  C:\Users\Lenovo\AppData\Local\Temp\cc37sAV3.s 			page 37


 1511 003c F968     		ldr	r1, [r7, #12]
 1512 003e 0A44     		add	r2, r2, r1
 1513 0040 1278     		ldrb	r2, [r2]	@ zero_extendqisi2
 1514 0042 02F00F02 		and	r2, r2, #15
 1515 0046 D2B2     		uxtb	r2, r2
 1516 0048 07F14801 		add	r1, r7, #72
 1517 004c 0B44     		add	r3, r3, r1
 1518 004e 03F8102C 		strb	r2, [r3, #-16]
 497:.\operations.c ****         if(value1[x]==','){
 1519              		.loc 1 497 0
 1520 0052 97F84730 		ldrb	r3, [r7, #71]	@ zero_extendqisi2
 1521 0056 FA68     		ldr	r2, [r7, #12]
 1522 0058 1344     		add	r3, r3, r2
 1523 005a 1B78     		ldrb	r3, [r3]	@ zero_extendqisi2
 1524 005c 2C2B     		cmp	r3, #44
 1525 005e 1DD1     		bne	.L105
 498:.\operations.c ****             while(x>0){
 1526              		.loc 1 498 0
 1527 0060 14E0     		b	.L106
 1528              	.L107:
 499:.\operations.c ****                 tempValue1[x]=value1[x-1]&0x0f;
 1529              		.loc 1 499 0
 1530 0062 97F84730 		ldrb	r3, [r7, #71]	@ zero_extendqisi2
 1531 0066 97F84720 		ldrb	r2, [r7, #71]	@ zero_extendqisi2
 1532 006a 013A     		subs	r2, r2, #1
 1533 006c F968     		ldr	r1, [r7, #12]
 1534 006e 0A44     		add	r2, r2, r1
 1535 0070 1278     		ldrb	r2, [r2]	@ zero_extendqisi2
 1536 0072 02F00F02 		and	r2, r2, #15
 1537 0076 D2B2     		uxtb	r2, r2
 1538 0078 07F14801 		add	r1, r7, #72
 1539 007c 0B44     		add	r3, r3, r1
 1540 007e 03F8102C 		strb	r2, [r3, #-16]
 500:.\operations.c ****                 x--;
 1541              		.loc 1 500 0
 1542 0082 97F84730 		ldrb	r3, [r7, #71]	@ zero_extendqisi2
 1543 0086 013B     		subs	r3, r3, #1
 1544 0088 87F84730 		strb	r3, [r7, #71]
 1545              	.L106:
 498:.\operations.c ****             while(x>0){
 1546              		.loc 1 498 0
 1547 008c 97F84730 		ldrb	r3, [r7, #71]	@ zero_extendqisi2
 1548 0090 002B     		cmp	r3, #0
 1549 0092 E6D1     		bne	.L107
 501:.\operations.c ****             }
 502:.\operations.c ****             tempValue1[1]=0;
 1550              		.loc 1 502 0
 1551 0094 0023     		movs	r3, #0
 1552 0096 87F83930 		strb	r3, [r7, #57]
 503:.\operations.c ****             break;
 1553              		.loc 1 503 0
 1554 009a 08E0     		b	.L108
 1555              	.L105:
 495:.\operations.c ****         tempValue1[x]=value1[x]&0x0f;
 1556              		.loc 1 495 0 discriminator 2
 1557 009c 97F84730 		ldrb	r3, [r7, #71]	@ zero_extendqisi2
 1558 00a0 013B     		subs	r3, r3, #1
ARM GAS  C:\Users\Lenovo\AppData\Local\Temp\cc37sAV3.s 			page 38


 1559 00a2 87F84730 		strb	r3, [r7, #71]
 1560              	.L104:
 495:.\operations.c ****         tempValue1[x]=value1[x]&0x0f;
 1561              		.loc 1 495 0 is_stmt 0 discriminator 1
 1562 00a6 97F84730 		ldrb	r3, [r7, #71]	@ zero_extendqisi2
 1563 00aa 002B     		cmp	r3, #0
 1564 00ac C2D1     		bne	.L109
 1565              	.L108:
 504:.\operations.c ****         }
 505:.\operations.c ****     }
 506:.\operations.c ****     tempValue2[0]=value2[0];
 1566              		.loc 1 506 0 is_stmt 1
 1567 00ae BB68     		ldr	r3, [r7, #8]
 1568 00b0 1B78     		ldrb	r3, [r3]	@ zero_extendqisi2
 1569 00b2 87F82C30 		strb	r3, [r7, #44]
 507:.\operations.c ****     for(x=value2[0];x>0;x--){
 1570              		.loc 1 507 0
 1571 00b6 BB68     		ldr	r3, [r7, #8]
 1572 00b8 1B78     		ldrb	r3, [r3]
 1573 00ba 87F84730 		strb	r3, [r7, #71]
 1574 00be 38E0     		b	.L110
 1575              	.L115:
 508:.\operations.c ****         tempValue2[x]=value2[x]&0x0f;
 1576              		.loc 1 508 0
 1577 00c0 97F84730 		ldrb	r3, [r7, #71]	@ zero_extendqisi2
 1578 00c4 97F84720 		ldrb	r2, [r7, #71]	@ zero_extendqisi2
 1579 00c8 B968     		ldr	r1, [r7, #8]
 1580 00ca 0A44     		add	r2, r2, r1
 1581 00cc 1278     		ldrb	r2, [r2]	@ zero_extendqisi2
 1582 00ce 02F00F02 		and	r2, r2, #15
 1583 00d2 D2B2     		uxtb	r2, r2
 1584 00d4 07F14801 		add	r1, r7, #72
 1585 00d8 0B44     		add	r3, r3, r1
 1586 00da 03F81C2C 		strb	r2, [r3, #-28]
 509:.\operations.c ****         if(value2[x]==','){
 1587              		.loc 1 509 0
 1588 00de 97F84730 		ldrb	r3, [r7, #71]	@ zero_extendqisi2
 1589 00e2 BA68     		ldr	r2, [r7, #8]
 1590 00e4 1344     		add	r3, r3, r2
 1591 00e6 1B78     		ldrb	r3, [r3]	@ zero_extendqisi2
 1592 00e8 2C2B     		cmp	r3, #44
 1593 00ea 1DD1     		bne	.L111
 510:.\operations.c ****             while(x>0){
 1594              		.loc 1 510 0
 1595 00ec 14E0     		b	.L112
 1596              	.L113:
 511:.\operations.c ****                 tempValue2[x]=value2[x-1]&0x0f;
 1597              		.loc 1 511 0
 1598 00ee 97F84730 		ldrb	r3, [r7, #71]	@ zero_extendqisi2
 1599 00f2 97F84720 		ldrb	r2, [r7, #71]	@ zero_extendqisi2
 1600 00f6 013A     		subs	r2, r2, #1
 1601 00f8 B968     		ldr	r1, [r7, #8]
 1602 00fa 0A44     		add	r2, r2, r1
 1603 00fc 1278     		ldrb	r2, [r2]	@ zero_extendqisi2
 1604 00fe 02F00F02 		and	r2, r2, #15
 1605 0102 D2B2     		uxtb	r2, r2
 1606 0104 07F14801 		add	r1, r7, #72
ARM GAS  C:\Users\Lenovo\AppData\Local\Temp\cc37sAV3.s 			page 39


 1607 0108 0B44     		add	r3, r3, r1
 1608 010a 03F81C2C 		strb	r2, [r3, #-28]
 512:.\operations.c ****                 x--;
 1609              		.loc 1 512 0
 1610 010e 97F84730 		ldrb	r3, [r7, #71]	@ zero_extendqisi2
 1611 0112 013B     		subs	r3, r3, #1
 1612 0114 87F84730 		strb	r3, [r7, #71]
 1613              	.L112:
 510:.\operations.c ****             while(x>0){
 1614              		.loc 1 510 0
 1615 0118 97F84730 		ldrb	r3, [r7, #71]	@ zero_extendqisi2
 1616 011c 002B     		cmp	r3, #0
 1617 011e E6D1     		bne	.L113
 513:.\operations.c ****             }
 514:.\operations.c ****             tempValue2[1]=0;
 1618              		.loc 1 514 0
 1619 0120 0023     		movs	r3, #0
 1620 0122 87F82D30 		strb	r3, [r7, #45]
 515:.\operations.c ****             break;
 1621              		.loc 1 515 0
 1622 0126 08E0     		b	.L114
 1623              	.L111:
 507:.\operations.c ****         tempValue2[x]=value2[x]&0x0f;
 1624              		.loc 1 507 0 discriminator 2
 1625 0128 97F84730 		ldrb	r3, [r7, #71]	@ zero_extendqisi2
 1626 012c 013B     		subs	r3, r3, #1
 1627 012e 87F84730 		strb	r3, [r7, #71]
 1628              	.L110:
 507:.\operations.c ****         tempValue2[x]=value2[x]&0x0f;
 1629              		.loc 1 507 0 is_stmt 0 discriminator 1
 1630 0132 97F84730 		ldrb	r3, [r7, #71]	@ zero_extendqisi2
 1631 0136 002B     		cmp	r3, #0
 1632 0138 C2D1     		bne	.L115
 1633              	.L114:
 516:.\operations.c ****         }
 517:.\operations.c ****     }
 518:.\operations.c ****     tempValue3[0]=value3[0];
 1634              		.loc 1 518 0 is_stmt 1
 1635 013a 7B68     		ldr	r3, [r7, #4]
 1636 013c 1B78     		ldrb	r3, [r3]	@ zero_extendqisi2
 1637 013e 87F82030 		strb	r3, [r7, #32]
 519:.\operations.c ****     for(x=value3[0];x>0;x--){
 1638              		.loc 1 519 0
 1639 0142 7B68     		ldr	r3, [r7, #4]
 1640 0144 1B78     		ldrb	r3, [r3]
 1641 0146 87F84730 		strb	r3, [r7, #71]
 1642 014a 38E0     		b	.L116
 1643              	.L121:
 520:.\operations.c ****         tempValue3[x]=value3[x]&0x0f;
 1644              		.loc 1 520 0
 1645 014c 97F84730 		ldrb	r3, [r7, #71]	@ zero_extendqisi2
 1646 0150 97F84720 		ldrb	r2, [r7, #71]	@ zero_extendqisi2
 1647 0154 7968     		ldr	r1, [r7, #4]
 1648 0156 0A44     		add	r2, r2, r1
 1649 0158 1278     		ldrb	r2, [r2]	@ zero_extendqisi2
 1650 015a 02F00F02 		and	r2, r2, #15
 1651 015e D2B2     		uxtb	r2, r2
ARM GAS  C:\Users\Lenovo\AppData\Local\Temp\cc37sAV3.s 			page 40


 1652 0160 07F14801 		add	r1, r7, #72
 1653 0164 0B44     		add	r3, r3, r1
 1654 0166 03F8282C 		strb	r2, [r3, #-40]
 521:.\operations.c ****         if(value3[x]==','){
 1655              		.loc 1 521 0
 1656 016a 97F84730 		ldrb	r3, [r7, #71]	@ zero_extendqisi2
 1657 016e 7A68     		ldr	r2, [r7, #4]
 1658 0170 1344     		add	r3, r3, r2
 1659 0172 1B78     		ldrb	r3, [r3]	@ zero_extendqisi2
 1660 0174 2C2B     		cmp	r3, #44
 1661 0176 1DD1     		bne	.L117
 522:.\operations.c ****             while(x>0){
 1662              		.loc 1 522 0
 1663 0178 14E0     		b	.L118
 1664              	.L119:
 523:.\operations.c ****                 tempValue3[x]=value3[x-1]&0x0f;
 1665              		.loc 1 523 0
 1666 017a 97F84730 		ldrb	r3, [r7, #71]	@ zero_extendqisi2
 1667 017e 97F84720 		ldrb	r2, [r7, #71]	@ zero_extendqisi2
 1668 0182 013A     		subs	r2, r2, #1
 1669 0184 7968     		ldr	r1, [r7, #4]
 1670 0186 0A44     		add	r2, r2, r1
 1671 0188 1278     		ldrb	r2, [r2]	@ zero_extendqisi2
 1672 018a 02F00F02 		and	r2, r2, #15
 1673 018e D2B2     		uxtb	r2, r2
 1674 0190 07F14801 		add	r1, r7, #72
 1675 0194 0B44     		add	r3, r3, r1
 1676 0196 03F8282C 		strb	r2, [r3, #-40]
 524:.\operations.c ****                 x--;
 1677              		.loc 1 524 0
 1678 019a 97F84730 		ldrb	r3, [r7, #71]	@ zero_extendqisi2
 1679 019e 013B     		subs	r3, r3, #1
 1680 01a0 87F84730 		strb	r3, [r7, #71]
 1681              	.L118:
 522:.\operations.c ****             while(x>0){
 1682              		.loc 1 522 0
 1683 01a4 97F84730 		ldrb	r3, [r7, #71]	@ zero_extendqisi2
 1684 01a8 002B     		cmp	r3, #0
 1685 01aa E6D1     		bne	.L119
 525:.\operations.c ****             }
 526:.\operations.c ****             tempValue3[1]=0;
 1686              		.loc 1 526 0
 1687 01ac 0023     		movs	r3, #0
 1688 01ae 87F82130 		strb	r3, [r7, #33]
 527:.\operations.c ****             break;
 1689              		.loc 1 527 0
 1690 01b2 08E0     		b	.L120
 1691              	.L117:
 519:.\operations.c ****         tempValue3[x]=value3[x]&0x0f;
 1692              		.loc 1 519 0 discriminator 2
 1693 01b4 97F84730 		ldrb	r3, [r7, #71]	@ zero_extendqisi2
 1694 01b8 013B     		subs	r3, r3, #1
 1695 01ba 87F84730 		strb	r3, [r7, #71]
 1696              	.L116:
 519:.\operations.c ****         tempValue3[x]=value3[x]&0x0f;
 1697              		.loc 1 519 0 is_stmt 0 discriminator 1
 1698 01be 97F84730 		ldrb	r3, [r7, #71]	@ zero_extendqisi2
ARM GAS  C:\Users\Lenovo\AppData\Local\Temp\cc37sAV3.s 			page 41


 1699 01c2 002B     		cmp	r3, #0
 1700 01c4 C2D1     		bne	.L121
 1701              	.L120:
 528:.\operations.c ****         }
 529:.\operations.c ****     }
 530:.\operations.c ****     tenth=0;
 1702              		.loc 1 530 0 is_stmt 1
 1703 01c6 0023     		movs	r3, #0
 1704 01c8 87F84430 		strb	r3, [r7, #68]
 531:.\operations.c ****     for(x=8;x>0;x--){
 1705              		.loc 1 531 0
 1706 01cc 0823     		movs	r3, #8
 1707 01ce 87F84730 		strb	r3, [r7, #71]
 1708 01d2 57E0     		b	.L122
 1709              	.L123:
 532:.\operations.c ****         tempValue[x]=((tempValue1[x]+tempValue2[x])+(tempValue3[x]+tenth))%10;
 1710              		.loc 1 532 0 discriminator 3
 1711 01d4 97F84700 		ldrb	r0, [r7, #71]	@ zero_extendqisi2
 1712 01d8 97F84730 		ldrb	r3, [r7, #71]	@ zero_extendqisi2
 1713 01dc 07F14802 		add	r2, r7, #72
 1714 01e0 1344     		add	r3, r3, r2
 1715 01e2 13F8103C 		ldrb	r3, [r3, #-16]	@ zero_extendqisi2
 1716 01e6 1A46     		mov	r2, r3
 1717 01e8 97F84730 		ldrb	r3, [r7, #71]	@ zero_extendqisi2
 1718 01ec 07F14801 		add	r1, r7, #72
 1719 01f0 0B44     		add	r3, r3, r1
 1720 01f2 13F81C3C 		ldrb	r3, [r3, #-28]	@ zero_extendqisi2
 1721 01f6 1A44     		add	r2, r2, r3
 1722 01f8 97F84730 		ldrb	r3, [r7, #71]	@ zero_extendqisi2
 1723 01fc 07F14801 		add	r1, r7, #72
 1724 0200 0B44     		add	r3, r3, r1
 1725 0202 13F8283C 		ldrb	r3, [r3, #-40]	@ zero_extendqisi2
 1726 0206 1946     		mov	r1, r3
 1727 0208 97F84430 		ldrb	r3, [r7, #68]	@ zero_extendqisi2
 1728 020c 0B44     		add	r3, r3, r1
 1729 020e 1A44     		add	r2, r2, r3
 1730 0210 434B     		ldr	r3, .L127
 1731 0212 83FB0213 		smull	r1, r3, r3, r2
 1732 0216 9910     		asrs	r1, r3, #2
 1733 0218 D317     		asrs	r3, r2, #31
 1734 021a C91A     		subs	r1, r1, r3
 1735 021c 0B46     		mov	r3, r1
 1736 021e 9B00     		lsls	r3, r3, #2
 1737 0220 0B44     		add	r3, r3, r1
 1738 0222 5B00     		lsls	r3, r3, #1
 1739 0224 D11A     		subs	r1, r2, r3
 1740 0226 CAB2     		uxtb	r2, r1
 1741 0228 07F14803 		add	r3, r7, #72
 1742 022c 0344     		add	r3, r3, r0
 1743 022e 03F8342C 		strb	r2, [r3, #-52]
 533:.\operations.c ****         tenth=((tempValue1[x]+tempValue2[x])+(tempValue3[x]+tenth))/10;
 1744              		.loc 1 533 0 discriminator 3
 1745 0232 97F84730 		ldrb	r3, [r7, #71]	@ zero_extendqisi2
 1746 0236 07F14802 		add	r2, r7, #72
 1747 023a 1344     		add	r3, r3, r2
 1748 023c 13F8103C 		ldrb	r3, [r3, #-16]	@ zero_extendqisi2
 1749 0240 1A46     		mov	r2, r3
ARM GAS  C:\Users\Lenovo\AppData\Local\Temp\cc37sAV3.s 			page 42


 1750 0242 97F84730 		ldrb	r3, [r7, #71]	@ zero_extendqisi2
 1751 0246 07F14801 		add	r1, r7, #72
 1752 024a 0B44     		add	r3, r3, r1
 1753 024c 13F81C3C 		ldrb	r3, [r3, #-28]	@ zero_extendqisi2
 1754 0250 1A44     		add	r2, r2, r3
 1755 0252 97F84730 		ldrb	r3, [r7, #71]	@ zero_extendqisi2
 1756 0256 07F14801 		add	r1, r7, #72
 1757 025a 0B44     		add	r3, r3, r1
 1758 025c 13F8283C 		ldrb	r3, [r3, #-40]	@ zero_extendqisi2
 1759 0260 1946     		mov	r1, r3
 1760 0262 97F84430 		ldrb	r3, [r7, #68]	@ zero_extendqisi2
 1761 0266 0B44     		add	r3, r3, r1
 1762 0268 1344     		add	r3, r3, r2
 1763 026a 2D4A     		ldr	r2, .L127
 1764 026c 82FB0312 		smull	r1, r2, r2, r3
 1765 0270 9210     		asrs	r2, r2, #2
 1766 0272 DB17     		asrs	r3, r3, #31
 1767 0274 D31A     		subs	r3, r2, r3
 1768 0276 87F84430 		strb	r3, [r7, #68]
 531:.\operations.c ****     for(x=8;x>0;x--){
 1769              		.loc 1 531 0 discriminator 3
 1770 027a 97F84730 		ldrb	r3, [r7, #71]	@ zero_extendqisi2
 1771 027e 013B     		subs	r3, r3, #1
 1772 0280 87F84730 		strb	r3, [r7, #71]
 1773              	.L122:
 531:.\operations.c ****     for(x=8;x>0;x--){
 1774              		.loc 1 531 0 is_stmt 0 discriminator 1
 1775 0284 97F84730 		ldrb	r3, [r7, #71]	@ zero_extendqisi2
 1776 0288 002B     		cmp	r3, #0
 1777 028a A3D1     		bne	.L123
 534:.\operations.c ****     }
 535:.\operations.c ****     y=8;
 1778              		.loc 1 535 0 is_stmt 1
 1779 028c 0823     		movs	r3, #8
 1780 028e 87F84630 		strb	r3, [r7, #70]
 536:.\operations.c ****     z=0;
 1781              		.loc 1 536 0
 1782 0292 0023     		movs	r3, #0
 1783 0294 87F84530 		strb	r3, [r7, #69]
 537:.\operations.c ****     temporal[1]=0;
 1784              		.loc 1 537 0
 1785 0298 224B     		ldr	r3, .L127+4
 1786 029a 0022     		movs	r2, #0
 1787 029c 5A70     		strb	r2, [r3, #1]
 538:.\operations.c ****     for(x=9;x>0;x--){
 1788              		.loc 1 538 0
 1789 029e 0923     		movs	r3, #9
 1790 02a0 87F84730 		strb	r3, [r7, #71]
 1791 02a4 2FE0     		b	.L124
 1792              	.L126:
 539:.\operations.c ****         temporal[x]=(tempValue[y]&0x0f)+0x30;
 1793              		.loc 1 539 0
 1794 02a6 97F84730 		ldrb	r3, [r7, #71]	@ zero_extendqisi2
 1795 02aa 97F84620 		ldrb	r2, [r7, #70]	@ zero_extendqisi2
 1796 02ae 07F14801 		add	r1, r7, #72
 1797 02b2 0A44     		add	r2, r2, r1
 1798 02b4 12F8342C 		ldrb	r2, [r2, #-52]	@ zero_extendqisi2
ARM GAS  C:\Users\Lenovo\AppData\Local\Temp\cc37sAV3.s 			page 43


 1799 02b8 02F00F02 		and	r2, r2, #15
 1800 02bc D2B2     		uxtb	r2, r2
 1801 02be 3032     		adds	r2, r2, #48
 1802 02c0 D1B2     		uxtb	r1, r2
 1803 02c2 184A     		ldr	r2, .L127+4
 1804 02c4 D154     		strb	r1, [r2, r3]
 540:.\operations.c ****         y--;
 1805              		.loc 1 540 0
 1806 02c6 97F84630 		ldrb	r3, [r7, #70]	@ zero_extendqisi2
 1807 02ca 013B     		subs	r3, r3, #1
 1808 02cc 87F84630 		strb	r3, [r7, #70]
 541:.\operations.c ****         z++;
 1809              		.loc 1 541 0
 1810 02d0 97F84530 		ldrb	r3, [r7, #69]	@ zero_extendqisi2
 1811 02d4 0133     		adds	r3, r3, #1
 1812 02d6 87F84530 		strb	r3, [r7, #69]
 542:.\operations.c ****         if(z==decimalMoney){
 1813              		.loc 1 542 0
 1814 02da 134B     		ldr	r3, .L127+8
 1815 02dc 1B78     		ldrb	r3, [r3]
 1816 02de DBB2     		uxtb	r3, r3
 1817 02e0 97F84520 		ldrb	r2, [r7, #69]	@ zero_extendqisi2
 1818 02e4 9A42     		cmp	r2, r3
 1819 02e6 09D1     		bne	.L125
 543:.\operations.c ****             x--;
 1820              		.loc 1 543 0
 1821 02e8 97F84730 		ldrb	r3, [r7, #71]	@ zero_extendqisi2
 1822 02ec 013B     		subs	r3, r3, #1
 1823 02ee 87F84730 		strb	r3, [r7, #71]
 544:.\operations.c ****             temporal[x]=',';
 1824              		.loc 1 544 0
 1825 02f2 97F84730 		ldrb	r3, [r7, #71]	@ zero_extendqisi2
 1826 02f6 0B4A     		ldr	r2, .L127+4
 1827 02f8 2C21     		movs	r1, #44
 1828 02fa D154     		strb	r1, [r2, r3]
 1829              	.L125:
 538:.\operations.c ****         temporal[x]=(tempValue[y]&0x0f)+0x30;
 1830              		.loc 1 538 0 discriminator 2
 1831 02fc 97F84730 		ldrb	r3, [r7, #71]	@ zero_extendqisi2
 1832 0300 013B     		subs	r3, r3, #1
 1833 0302 87F84730 		strb	r3, [r7, #71]
 1834              	.L124:
 538:.\operations.c ****         temporal[x]=(tempValue[y]&0x0f)+0x30;
 1835              		.loc 1 538 0 is_stmt 0 discriminator 1
 1836 0306 97F84730 		ldrb	r3, [r7, #71]	@ zero_extendqisi2
 1837 030a 002B     		cmp	r3, #0
 1838 030c CBD1     		bne	.L126
 545:.\operations.c ****         }
 546:.\operations.c ****     }
 547:.\operations.c ****     temporal[0]=9;
 1839              		.loc 1 547 0 is_stmt 1
 1840 030e 054B     		ldr	r3, .L127+4
 1841 0310 0922     		movs	r2, #9
 1842 0312 1A70     		strb	r2, [r3]
 548:.\operations.c **** }...
 1843              		.loc 1 548 0
 1844 0314 4C37     		adds	r7, r7, #76
ARM GAS  C:\Users\Lenovo\AppData\Local\Temp\cc37sAV3.s 			page 44


 1845              		.cfi_def_cfa_offset 4
 1846 0316 BD46     		mov	sp, r7
 1847              		.cfi_def_cfa_register 13
 1848              		@ sp needed
 1849 0318 5DF8047B 		ldr	r7, [sp], #4
 1850              		.cfi_restore 7
 1851              		.cfi_def_cfa_offset 0
 1852 031c 7047     		bx	lr
 1853              	.L128:
 1854 031e 00BF     		.align	2
 1855              	.L127:
 1856 0320 67666666 		.word	1717986919
 1857 0324 00000000 		.word	temporal
 1858 0328 00000000 		.word	decimalMoney
 1859              		.cfi_endproc
 1860              	.LFE60:
 1861              		.size	addition_market, .-addition_market
 1862              		.text
 1863              	.Letext0:
 1864              		.file 2 "c:\\program files (x86)\\cypress\\psoc creator\\3.3\\psoc creator\\import\\gnu\\arm\\4.9.
 1865              		.file 3 "c:\\program files (x86)\\cypress\\psoc creator\\3.3\\psoc creator\\import\\gnu\\arm\\4.9.
 1866              		.file 4 "Generated_Source\\PSoC5/cytypes.h"
 1867              		.file 5 "./variables.h"
 1868              		.file 6 "Generated_Source\\PSoC5/core_cm3.h"
 1869              		.section	.debug_info,"",%progbits
 1870              	.Ldebug_info0:
 1871 0000 ED0A0000 		.4byte	0xaed
 1872 0004 0400     		.2byte	0x4
 1873 0006 00000000 		.4byte	.Ldebug_abbrev0
 1874 000a 04       		.byte	0x4
 1875 000b 01       		.uleb128 0x1
 1876 000c B2030000 		.4byte	.LASF141
 1877 0010 01       		.byte	0x1
 1878 0011 A1000000 		.4byte	.LASF142
 1879 0015 1E010000 		.4byte	.LASF143
 1880 0019 00000000 		.4byte	.Ldebug_ranges0+0
 1881 001d 00000000 		.4byte	0
 1882 0021 00000000 		.4byte	.Ldebug_line0
 1883 0025 02       		.uleb128 0x2
 1884 0026 01       		.byte	0x1
 1885 0027 06       		.byte	0x6
 1886 0028 B1060000 		.4byte	.LASF0
 1887 002c 02       		.uleb128 0x2
 1888 002d 01       		.byte	0x1
 1889 002e 08       		.byte	0x8
 1890 002f 35060000 		.4byte	.LASF1
 1891 0033 02       		.uleb128 0x2
 1892 0034 02       		.byte	0x2
 1893 0035 05       		.byte	0x5
 1894 0036 36050000 		.4byte	.LASF2
 1895 003a 02       		.uleb128 0x2
 1896 003b 02       		.byte	0x2
 1897 003c 07       		.byte	0x7
 1898 003d BD060000 		.4byte	.LASF3
 1899 0041 03       		.uleb128 0x3
 1900 0042 6C000000 		.4byte	.LASF9
 1901 0046 02       		.byte	0x2
ARM GAS  C:\Users\Lenovo\AppData\Local\Temp\cc37sAV3.s 			page 45


 1902 0047 3F       		.byte	0x3f
 1903 0048 4C000000 		.4byte	0x4c
 1904 004c 02       		.uleb128 0x2
 1905 004d 04       		.byte	0x4
 1906 004e 05       		.byte	0x5
 1907 004f 40050000 		.4byte	.LASF4
 1908 0053 02       		.uleb128 0x2
 1909 0054 04       		.byte	0x4
 1910 0055 07       		.byte	0x7
 1911 0056 CF050000 		.4byte	.LASF5
 1912 005a 02       		.uleb128 0x2
 1913 005b 08       		.byte	0x8
 1914 005c 05       		.byte	0x5
 1915 005d 3A030000 		.4byte	.LASF6
 1916 0061 02       		.uleb128 0x2
 1917 0062 08       		.byte	0x8
 1918 0063 07       		.byte	0x7
 1919 0064 70010000 		.4byte	.LASF7
 1920 0068 04       		.uleb128 0x4
 1921 0069 04       		.byte	0x4
 1922 006a 05       		.byte	0x5
 1923 006b 696E7400 		.ascii	"int\000"
 1924 006f 02       		.uleb128 0x2
 1925 0070 04       		.byte	0x4
 1926 0071 07       		.byte	0x7
 1927 0072 51000000 		.4byte	.LASF8
 1928 0076 03       		.uleb128 0x3
 1929 0077 08060000 		.4byte	.LASF10
 1930 007b 03       		.byte	0x3
 1931 007c 2C       		.byte	0x2c
 1932 007d 41000000 		.4byte	0x41
 1933 0081 03       		.uleb128 0x3
 1934 0082 FE060000 		.4byte	.LASF11
 1935 0086 04       		.byte	0x4
 1936 0087 A1       		.byte	0xa1
 1937 0088 2C000000 		.4byte	0x2c
 1938 008c 03       		.uleb128 0x3
 1939 008d 86040000 		.4byte	.LASF12
 1940 0091 04       		.byte	0x4
 1941 0092 A3       		.byte	0xa3
 1942 0093 53000000 		.4byte	0x53
 1943 0097 02       		.uleb128 0x2
 1944 0098 04       		.byte	0x4
 1945 0099 04       		.byte	0x4
 1946 009a 07010000 		.4byte	.LASF13
 1947 009e 02       		.uleb128 0x2
 1948 009f 08       		.byte	0x8
 1949 00a0 04       		.byte	0x4
 1950 00a1 04070000 		.4byte	.LASF14
 1951 00a5 03       		.uleb128 0x3
 1952 00a6 9A050000 		.4byte	.LASF15
 1953 00aa 04       		.byte	0x4
 1954 00ab AD       		.byte	0xad
 1955 00ac 61000000 		.4byte	0x61
 1956 00b0 02       		.uleb128 0x2
 1957 00b1 01       		.byte	0x1
 1958 00b2 08       		.byte	0x8
ARM GAS  C:\Users\Lenovo\AppData\Local\Temp\cc37sAV3.s 			page 46


 1959 00b3 76020000 		.4byte	.LASF16
 1960 00b7 05       		.uleb128 0x5
 1961 00b8 81000000 		.4byte	0x81
 1962 00bc 05       		.uleb128 0x5
 1963 00bd 8C000000 		.4byte	0x8c
 1964 00c1 02       		.uleb128 0x2
 1965 00c2 04       		.byte	0x4
 1966 00c3 07       		.byte	0x7
 1967 00c4 C6050000 		.4byte	.LASF17
 1968 00c8 06       		.uleb128 0x6
 1969 00c9 28000000 		.4byte	.LASF68
 1970 00cd 9502     		.2byte	0x295
 1971 00cf 05       		.byte	0x5
 1972 00d0 56       		.byte	0x56
 1973 00d1 44030000 		.4byte	0x344
 1974 00d5 07       		.uleb128 0x7
 1975 00d6 8D000000 		.4byte	.LASF18
 1976 00da 05       		.byte	0x5
 1977 00db 57       		.byte	0x57
 1978 00dc 81000000 		.4byte	0x81
 1979 00e0 00       		.byte	0
 1980 00e1 07       		.uleb128 0x7
 1981 00e2 D0010000 		.4byte	.LASF19
 1982 00e6 05       		.byte	0x5
 1983 00e7 58       		.byte	0x58
 1984 00e8 44030000 		.4byte	0x344
 1985 00ec 01       		.byte	0x1
 1986 00ed 07       		.uleb128 0x7
 1987 00ee EC020000 		.4byte	.LASF20
 1988 00f2 05       		.byte	0x5
 1989 00f3 59       		.byte	0x59
 1990 00f4 44030000 		.4byte	0x344
 1991 00f8 1A       		.byte	0x1a
 1992 00f9 07       		.uleb128 0x7
 1993 00fa 0B070000 		.4byte	.LASF21
 1994 00fe 05       		.byte	0x5
 1995 00ff 5A       		.byte	0x5a
 1996 0100 81000000 		.4byte	0x81
 1997 0104 33       		.byte	0x33
 1998 0105 07       		.uleb128 0x7
 1999 0106 23060000 		.4byte	.LASF22
 2000 010a 05       		.byte	0x5
 2001 010b 5B       		.byte	0x5b
 2002 010c 81000000 		.4byte	0x81
 2003 0110 34       		.byte	0x34
 2004 0111 07       		.uleb128 0x7
 2005 0112 B0000000 		.4byte	.LASF23
 2006 0116 05       		.byte	0x5
 2007 0117 5C       		.byte	0x5c
 2008 0118 54030000 		.4byte	0x354
 2009 011c 35       		.byte	0x35
 2010 011d 07       		.uleb128 0x7
 2011 011e 03050000 		.4byte	.LASF24
 2012 0122 05       		.byte	0x5
 2013 0123 5D       		.byte	0x5d
 2014 0124 54030000 		.4byte	0x354
 2015 0128 3F       		.byte	0x3f
ARM GAS  C:\Users\Lenovo\AppData\Local\Temp\cc37sAV3.s 			page 47


 2016 0129 07       		.uleb128 0x7
 2017 012a 31070000 		.4byte	.LASF25
 2018 012e 05       		.byte	0x5
 2019 012f 5E       		.byte	0x5e
 2020 0130 44030000 		.4byte	0x344
 2021 0134 49       		.byte	0x49
 2022 0135 07       		.uleb128 0x7
 2023 0136 CD040000 		.4byte	.LASF26
 2024 013a 05       		.byte	0x5
 2025 013b 5F       		.byte	0x5f
 2026 013c 81000000 		.4byte	0x81
 2027 0140 62       		.byte	0x62
 2028 0141 07       		.uleb128 0x7
 2029 0142 43060000 		.4byte	.LASF27
 2030 0146 05       		.byte	0x5
 2031 0147 60       		.byte	0x60
 2032 0148 81000000 		.4byte	0x81
 2033 014c 63       		.byte	0x63
 2034 014d 07       		.uleb128 0x7
 2035 014e 6C020000 		.4byte	.LASF28
 2036 0152 05       		.byte	0x5
 2037 0153 61       		.byte	0x61
 2038 0154 64030000 		.4byte	0x364
 2039 0158 64       		.byte	0x64
 2040 0159 07       		.uleb128 0x7
 2041 015a 5A040000 		.4byte	.LASF29
 2042 015e 05       		.byte	0x5
 2043 015f 62       		.byte	0x62
 2044 0160 81000000 		.4byte	0x81
 2045 0164 79       		.byte	0x79
 2046 0165 07       		.uleb128 0x7
 2047 0166 63020000 		.4byte	.LASF30
 2048 016a 05       		.byte	0x5
 2049 016b 63       		.byte	0x63
 2050 016c 81000000 		.4byte	0x81
 2051 0170 7A       		.byte	0x7a
 2052 0171 07       		.uleb128 0x7
 2053 0172 45000000 		.4byte	.LASF31
 2054 0176 05       		.byte	0x5
 2055 0177 64       		.byte	0x64
 2056 0178 81000000 		.4byte	0x81
 2057 017c 7B       		.byte	0x7b
 2058 017d 07       		.uleb128 0x7
 2059 017e 7D060000 		.4byte	.LASF32
 2060 0182 05       		.byte	0x5
 2061 0183 65       		.byte	0x65
 2062 0184 74030000 		.4byte	0x374
 2063 0188 7C       		.byte	0x7c
 2064 0189 07       		.uleb128 0x7
 2065 018a 35020000 		.4byte	.LASF33
 2066 018e 05       		.byte	0x5
 2067 018f 66       		.byte	0x66
 2068 0190 84030000 		.4byte	0x384
 2069 0194 7E       		.byte	0x7e
 2070 0195 07       		.uleb128 0x7
 2071 0196 A7010000 		.4byte	.LASF34
 2072 019a 05       		.byte	0x5
ARM GAS  C:\Users\Lenovo\AppData\Local\Temp\cc37sAV3.s 			page 48


 2073 019b 67       		.byte	0x67
 2074 019c 81000000 		.4byte	0x81
 2075 01a0 92       		.byte	0x92
 2076 01a1 07       		.uleb128 0x7
 2077 01a2 BD050000 		.4byte	.LASF35
 2078 01a6 05       		.byte	0x5
 2079 01a7 68       		.byte	0x68
 2080 01a8 9A030000 		.4byte	0x39a
 2081 01ac 93       		.byte	0x93
 2082 01ad 07       		.uleb128 0x7
 2083 01ae 6B050000 		.4byte	.LASF36
 2084 01b2 05       		.byte	0x5
 2085 01b3 69       		.byte	0x69
 2086 01b4 AA030000 		.4byte	0x3aa
 2087 01b8 98       		.byte	0x98
 2088 01b9 07       		.uleb128 0x7
 2089 01ba C1010000 		.4byte	.LASF37
 2090 01be 05       		.byte	0x5
 2091 01bf 6A       		.byte	0x6a
 2092 01c0 AA030000 		.4byte	0x3aa
 2093 01c4 9E       		.byte	0x9e
 2094 01c5 07       		.uleb128 0x7
 2095 01c6 14070000 		.4byte	.LASF38
 2096 01ca 05       		.byte	0x5
 2097 01cb 6B       		.byte	0x6b
 2098 01cc AA030000 		.4byte	0x3aa
 2099 01d0 A4       		.byte	0xa4
 2100 01d1 07       		.uleb128 0x7
 2101 01d2 40040000 		.4byte	.LASF39
 2102 01d6 05       		.byte	0x5
 2103 01d7 6C       		.byte	0x6c
 2104 01d8 AA030000 		.4byte	0x3aa
 2105 01dc AA       		.byte	0xaa
 2106 01dd 07       		.uleb128 0x7
 2107 01de E5040000 		.4byte	.LASF40
 2108 01e2 05       		.byte	0x5
 2109 01e3 6D       		.byte	0x6d
 2110 01e4 BA030000 		.4byte	0x3ba
 2111 01e8 B0       		.byte	0xb0
 2112 01e9 07       		.uleb128 0x7
 2113 01ea 87010000 		.4byte	.LASF41
 2114 01ee 05       		.byte	0x5
 2115 01ef 6E       		.byte	0x6e
 2116 01f0 BA030000 		.4byte	0x3ba
 2117 01f4 BE       		.byte	0xbe
 2118 01f5 07       		.uleb128 0x7
 2119 01f6 85030000 		.4byte	.LASF42
 2120 01fa 05       		.byte	0x5
 2121 01fb 6F       		.byte	0x6f
 2122 01fc BA030000 		.4byte	0x3ba
 2123 0200 CC       		.byte	0xcc
 2124 0201 07       		.uleb128 0x7
 2125 0202 01030000 		.4byte	.LASF43
 2126 0206 05       		.byte	0x5
 2127 0207 70       		.byte	0x70
 2128 0208 BA030000 		.4byte	0x3ba
 2129 020c DA       		.byte	0xda
ARM GAS  C:\Users\Lenovo\AppData\Local\Temp\cc37sAV3.s 			page 49


 2130 020d 07       		.uleb128 0x7
 2131 020e 89050000 		.4byte	.LASF44
 2132 0212 05       		.byte	0x5
 2133 0213 71       		.byte	0x71
 2134 0214 BA030000 		.4byte	0x3ba
 2135 0218 E8       		.byte	0xe8
 2136 0219 07       		.uleb128 0x7
 2137 021a A6040000 		.4byte	.LASF45
 2138 021e 05       		.byte	0x5
 2139 021f 72       		.byte	0x72
 2140 0220 BA030000 		.4byte	0x3ba
 2141 0224 F6       		.byte	0xf6
 2142 0225 08       		.uleb128 0x8
 2143 0226 1D050000 		.4byte	.LASF46
 2144 022a 05       		.byte	0x5
 2145 022b 73       		.byte	0x73
 2146 022c CA030000 		.4byte	0x3ca
 2147 0230 0401     		.2byte	0x104
 2148 0232 08       		.uleb128 0x8
 2149 0233 EF010000 		.4byte	.LASF47
 2150 0237 05       		.byte	0x5
 2151 0238 74       		.byte	0x74
 2152 0239 CA030000 		.4byte	0x3ca
 2153 023d 0F01     		.2byte	0x10f
 2154 023f 08       		.uleb128 0x8
 2155 0240 46020000 		.4byte	.LASF48
 2156 0244 05       		.byte	0x5
 2157 0245 75       		.byte	0x75
 2158 0246 CA030000 		.4byte	0x3ca
 2159 024a 1A01     		.2byte	0x11a
 2160 024c 08       		.uleb128 0x8
 2161 024d 66040000 		.4byte	.LASF49
 2162 0251 05       		.byte	0x5
 2163 0252 76       		.byte	0x76
 2164 0253 81000000 		.4byte	0x81
 2165 0257 2501     		.2byte	0x125
 2166 0259 08       		.uleb128 0x8
 2167 025a D0020000 		.4byte	.LASF50
 2168 025e 05       		.byte	0x5
 2169 025f 77       		.byte	0x77
 2170 0260 81000000 		.4byte	0x81
 2171 0264 2601     		.2byte	0x126
 2172 0266 08       		.uleb128 0x8
 2173 0267 76000000 		.4byte	.LASF51
 2174 026b 05       		.byte	0x5
 2175 026c 78       		.byte	0x78
 2176 026d 81000000 		.4byte	0x81
 2177 0271 2701     		.2byte	0x127
 2178 0273 08       		.uleb128 0x8
 2179 0274 5F050000 		.4byte	.LASF52
 2180 0278 05       		.byte	0x5
 2181 0279 79       		.byte	0x79
 2182 027a 81000000 		.4byte	0x81
 2183 027e 2801     		.2byte	0x128
 2184 0280 08       		.uleb128 0x8
 2185 0281 20000000 		.4byte	.LASF53
 2186 0285 05       		.byte	0x5
ARM GAS  C:\Users\Lenovo\AppData\Local\Temp\cc37sAV3.s 			page 50


 2187 0286 7A       		.byte	0x7a
 2188 0287 DA030000 		.4byte	0x3da
 2189 028b 2901     		.2byte	0x129
 2190 028d 08       		.uleb128 0x8
 2191 028e 11030000 		.4byte	.LASF54
 2192 0292 05       		.byte	0x5
 2193 0293 7B       		.byte	0x7b
 2194 0294 54030000 		.4byte	0x354
 2195 0298 6A01     		.2byte	0x16a
 2196 029a 08       		.uleb128 0x8
 2197 029b FB000000 		.4byte	.LASF55
 2198 029f 05       		.byte	0x5
 2199 02a0 7C       		.byte	0x7c
 2200 02a1 54030000 		.4byte	0x354
 2201 02a5 7401     		.2byte	0x174
 2202 02a7 08       		.uleb128 0x8
 2203 02a8 F8020000 		.4byte	.LASF56
 2204 02ac 05       		.byte	0x5
 2205 02ad 7D       		.byte	0x7d
 2206 02ae 54030000 		.4byte	0x354
 2207 02b2 7E01     		.2byte	0x17e
 2208 02b4 08       		.uleb128 0x8
 2209 02b5 1B020000 		.4byte	.LASF57
 2210 02b9 05       		.byte	0x5
 2211 02ba 7E       		.byte	0x7e
 2212 02bb EA030000 		.4byte	0x3ea
 2213 02bf 8801     		.2byte	0x188
 2214 02c1 08       		.uleb128 0x8
 2215 02c2 5E000000 		.4byte	.LASF58
 2216 02c6 05       		.byte	0x5
 2217 02c7 7F       		.byte	0x7f
 2218 02c8 EA030000 		.4byte	0x3ea
 2219 02cc D301     		.2byte	0x1d3
 2220 02ce 08       		.uleb128 0x8
 2221 02cf C4000000 		.4byte	.LASF59
 2222 02d3 05       		.byte	0x5
 2223 02d4 80       		.byte	0x80
 2224 02d5 00040000 		.4byte	0x400
 2225 02d9 1E02     		.2byte	0x21e
 2226 02db 08       		.uleb128 0x8
 2227 02dc 10060000 		.4byte	.LASF60
 2228 02e0 05       		.byte	0x5
 2229 02e1 81       		.byte	0x81
 2230 02e2 00040000 		.4byte	0x400
 2231 02e6 2D02     		.2byte	0x22d
 2232 02e8 08       		.uleb128 0x8
 2233 02e9 55060000 		.4byte	.LASF61
 2234 02ed 05       		.byte	0x5
 2235 02ee 82       		.byte	0x82
 2236 02ef 16040000 		.4byte	0x416
 2237 02f3 3C02     		.2byte	0x23c
 2238 02f5 08       		.uleb128 0x8
 2239 02f6 88060000 		.4byte	.LASF62
 2240 02fa 05       		.byte	0x5
 2241 02fb 83       		.byte	0x83
 2242 02fc 16040000 		.4byte	0x416
 2243 0300 5A02     		.2byte	0x25a
ARM GAS  C:\Users\Lenovo\AppData\Local\Temp\cc37sAV3.s 			page 51


 2244 0302 08       		.uleb128 0x8
 2245 0303 A6030000 		.4byte	.LASF63
 2246 0307 05       		.byte	0x5
 2247 0308 84       		.byte	0x84
 2248 0309 54030000 		.4byte	0x354
 2249 030d 7802     		.2byte	0x278
 2250 030f 08       		.uleb128 0x8
 2251 0310 F6050000 		.4byte	.LASF64
 2252 0314 05       		.byte	0x5
 2253 0315 85       		.byte	0x85
 2254 0316 81000000 		.4byte	0x81
 2255 031a 8202     		.2byte	0x282
 2256 031c 08       		.uleb128 0x8
 2257 031d 29050000 		.4byte	.LASF65
 2258 0321 05       		.byte	0x5
 2259 0322 86       		.byte	0x86
 2260 0323 2C040000 		.4byte	0x42c
 2261 0327 8302     		.2byte	0x283
 2262 0329 08       		.uleb128 0x8
 2263 032a 1C030000 		.4byte	.LASF66
 2264 032e 05       		.byte	0x5
 2265 032f 87       		.byte	0x87
 2266 0330 74030000 		.4byte	0x374
 2267 0334 9202     		.2byte	0x292
 2268 0336 08       		.uleb128 0x8
 2269 0337 FB010000 		.4byte	.LASF67
 2270 033b 05       		.byte	0x5
 2271 033c 88       		.byte	0x88
 2272 033d 81000000 		.4byte	0x81
 2273 0341 9402     		.2byte	0x294
 2274 0343 00       		.byte	0
 2275 0344 09       		.uleb128 0x9
 2276 0345 81000000 		.4byte	0x81
 2277 0349 54030000 		.4byte	0x354
 2278 034d 0A       		.uleb128 0xa
 2279 034e C1000000 		.4byte	0xc1
 2280 0352 18       		.byte	0x18
 2281 0353 00       		.byte	0
 2282 0354 09       		.uleb128 0x9
 2283 0355 81000000 		.4byte	0x81
 2284 0359 64030000 		.4byte	0x364
 2285 035d 0A       		.uleb128 0xa
 2286 035e C1000000 		.4byte	0xc1
 2287 0362 09       		.byte	0x9
 2288 0363 00       		.byte	0
 2289 0364 09       		.uleb128 0x9
 2290 0365 81000000 		.4byte	0x81
 2291 0369 74030000 		.4byte	0x374
 2292 036d 0A       		.uleb128 0xa
 2293 036e C1000000 		.4byte	0xc1
 2294 0372 14       		.byte	0x14
 2295 0373 00       		.byte	0
 2296 0374 09       		.uleb128 0x9
 2297 0375 81000000 		.4byte	0x81
 2298 0379 84030000 		.4byte	0x384
 2299 037d 0A       		.uleb128 0xa
 2300 037e C1000000 		.4byte	0xc1
ARM GAS  C:\Users\Lenovo\AppData\Local\Temp\cc37sAV3.s 			page 52


 2301 0382 01       		.byte	0x1
 2302 0383 00       		.byte	0
 2303 0384 09       		.uleb128 0x9
 2304 0385 81000000 		.4byte	0x81
 2305 0389 9A030000 		.4byte	0x39a
 2306 038d 0A       		.uleb128 0xa
 2307 038e C1000000 		.4byte	0xc1
 2308 0392 01       		.byte	0x1
 2309 0393 0A       		.uleb128 0xa
 2310 0394 C1000000 		.4byte	0xc1
 2311 0398 09       		.byte	0x9
 2312 0399 00       		.byte	0
 2313 039a 09       		.uleb128 0x9
 2314 039b 81000000 		.4byte	0x81
 2315 039f AA030000 		.4byte	0x3aa
 2316 03a3 0A       		.uleb128 0xa
 2317 03a4 C1000000 		.4byte	0xc1
 2318 03a8 04       		.byte	0x4
 2319 03a9 00       		.byte	0
 2320 03aa 09       		.uleb128 0x9
 2321 03ab 81000000 		.4byte	0x81
 2322 03af BA030000 		.4byte	0x3ba
 2323 03b3 0A       		.uleb128 0xa
 2324 03b4 C1000000 		.4byte	0xc1
 2325 03b8 05       		.byte	0x5
 2326 03b9 00       		.byte	0
 2327 03ba 09       		.uleb128 0x9
 2328 03bb 81000000 		.4byte	0x81
 2329 03bf CA030000 		.4byte	0x3ca
 2330 03c3 0A       		.uleb128 0xa
 2331 03c4 C1000000 		.4byte	0xc1
 2332 03c8 0D       		.byte	0xd
 2333 03c9 00       		.byte	0
 2334 03ca 09       		.uleb128 0x9
 2335 03cb 81000000 		.4byte	0x81
 2336 03cf DA030000 		.4byte	0x3da
 2337 03d3 0A       		.uleb128 0xa
 2338 03d4 C1000000 		.4byte	0xc1
 2339 03d8 0A       		.byte	0xa
 2340 03d9 00       		.byte	0
 2341 03da 09       		.uleb128 0x9
 2342 03db 81000000 		.4byte	0x81
 2343 03df EA030000 		.4byte	0x3ea
 2344 03e3 0A       		.uleb128 0xa
 2345 03e4 C1000000 		.4byte	0xc1
 2346 03e8 40       		.byte	0x40
 2347 03e9 00       		.byte	0
 2348 03ea 09       		.uleb128 0x9
 2349 03eb 81000000 		.4byte	0x81
 2350 03ef 00040000 		.4byte	0x400
 2351 03f3 0A       		.uleb128 0xa
 2352 03f4 C1000000 		.4byte	0xc1
 2353 03f8 02       		.byte	0x2
 2354 03f9 0A       		.uleb128 0xa
 2355 03fa C1000000 		.4byte	0xc1
 2356 03fe 18       		.byte	0x18
 2357 03ff 00       		.byte	0
ARM GAS  C:\Users\Lenovo\AppData\Local\Temp\cc37sAV3.s 			page 53


 2358 0400 09       		.uleb128 0x9
 2359 0401 81000000 		.4byte	0x81
 2360 0405 16040000 		.4byte	0x416
 2361 0409 0A       		.uleb128 0xa
 2362 040a C1000000 		.4byte	0xc1
 2363 040e 02       		.byte	0x2
 2364 040f 0A       		.uleb128 0xa
 2365 0410 C1000000 		.4byte	0xc1
 2366 0414 04       		.byte	0x4
 2367 0415 00       		.byte	0
 2368 0416 09       		.uleb128 0x9
 2369 0417 81000000 		.4byte	0x81
 2370 041b 2C040000 		.4byte	0x42c
 2371 041f 0A       		.uleb128 0xa
 2372 0420 C1000000 		.4byte	0xc1
 2373 0424 02       		.byte	0x2
 2374 0425 0A       		.uleb128 0xa
 2375 0426 C1000000 		.4byte	0xc1
 2376 042a 09       		.byte	0x9
 2377 042b 00       		.byte	0
 2378 042c 09       		.uleb128 0x9
 2379 042d 81000000 		.4byte	0x81
 2380 0431 3C040000 		.4byte	0x43c
 2381 0435 0A       		.uleb128 0xa
 2382 0436 C1000000 		.4byte	0xc1
 2383 043a 0E       		.byte	0xe
 2384 043b 00       		.byte	0
 2385 043c 06       		.uleb128 0x6
 2386 043d 44070000 		.4byte	.LASF69
 2387 0441 0001     		.2byte	0x100
 2388 0443 05       		.byte	0x5
 2389 0444 96       		.byte	0x96
 2390 0445 9E040000 		.4byte	0x49e
 2391 0449 0B       		.uleb128 0xb
 2392 044a 64697200 		.ascii	"dir\000"
 2393 044e 05       		.byte	0x5
 2394 044f 97       		.byte	0x97
 2395 0450 81000000 		.4byte	0x81
 2396 0454 00       		.byte	0
 2397 0455 07       		.uleb128 0x7
 2398 0456 28020000 		.4byte	.LASF70
 2399 045a 05       		.byte	0x5
 2400 045b 98       		.byte	0x98
 2401 045c 9E040000 		.4byte	0x49e
 2402 0460 01       		.byte	0x1
 2403 0461 07       		.uleb128 0x7
 2404 0462 23070000 		.4byte	.LASF71
 2405 0466 05       		.byte	0x5
 2406 0467 99       		.byte	0x99
 2407 0468 BA040000 		.4byte	0x4ba
 2408 046c B5       		.byte	0xb5
 2409 046d 07       		.uleb128 0x7
 2410 046e 30030000 		.4byte	.LASF72
 2411 0472 05       		.byte	0x5
 2412 0473 9A       		.byte	0x9a
 2413 0474 BA030000 		.4byte	0x3ba
 2414 0478 D5       		.byte	0xd5
ARM GAS  C:\Users\Lenovo\AppData\Local\Temp\cc37sAV3.s 			page 54


 2415 0479 07       		.uleb128 0x7
 2416 047a A6060000 		.4byte	.LASF73
 2417 047e 05       		.byte	0x5
 2418 047f 9B       		.byte	0x9b
 2419 0480 BA030000 		.4byte	0x3ba
 2420 0484 E3       		.byte	0xe3
 2421 0485 07       		.uleb128 0x7
 2422 0486 48030000 		.4byte	.LASF74
 2423 048a 05       		.byte	0x5
 2424 048b 9C       		.byte	0x9c
 2425 048c BA030000 		.4byte	0x3ba
 2426 0490 F1       		.byte	0xf1
 2427 0491 07       		.uleb128 0x7
 2428 0492 F2060000 		.4byte	.LASF75
 2429 0496 05       		.byte	0x5
 2430 0497 9D       		.byte	0x9d
 2431 0498 81000000 		.4byte	0x81
 2432 049c FF       		.byte	0xff
 2433 049d 00       		.byte	0
 2434 049e 09       		.uleb128 0x9
 2435 049f 81000000 		.4byte	0x81
 2436 04a3 BA040000 		.4byte	0x4ba
 2437 04a7 0A       		.uleb128 0xa
 2438 04a8 C1000000 		.4byte	0xc1
 2439 04ac 03       		.byte	0x3
 2440 04ad 0A       		.uleb128 0xa
 2441 04ae C1000000 		.4byte	0xc1
 2442 04b2 02       		.byte	0x2
 2443 04b3 0A       		.uleb128 0xa
 2444 04b4 C1000000 		.4byte	0xc1
 2445 04b8 0E       		.byte	0xe
 2446 04b9 00       		.byte	0
 2447 04ba 09       		.uleb128 0x9
 2448 04bb 81000000 		.4byte	0x81
 2449 04bf D0040000 		.4byte	0x4d0
 2450 04c3 0A       		.uleb128 0xa
 2451 04c4 C1000000 		.4byte	0xc1
 2452 04c8 03       		.byte	0x3
 2453 04c9 0A       		.uleb128 0xa
 2454 04ca C1000000 		.4byte	0xc1
 2455 04ce 07       		.byte	0x7
 2456 04cf 00       		.byte	0
 2457 04d0 06       		.uleb128 0x6
 2458 04d1 6F060000 		.4byte	.LASF76
 2459 04d5 0002     		.2byte	0x200
 2460 04d7 05       		.byte	0x5
 2461 04d8 A0       		.byte	0xa0
 2462 04d9 F3040000 		.4byte	0x4f3
 2463 04dd 0B       		.uleb128 0xb
 2464 04de 6100     		.ascii	"a\000"
 2465 04e0 05       		.byte	0x5
 2466 04e1 A1       		.byte	0xa1
 2467 04e2 3C040000 		.4byte	0x43c
 2468 04e6 00       		.byte	0
 2469 04e7 0C       		.uleb128 0xc
 2470 04e8 6200     		.ascii	"b\000"
 2471 04ea 05       		.byte	0x5
ARM GAS  C:\Users\Lenovo\AppData\Local\Temp\cc37sAV3.s 			page 55


 2472 04eb A2       		.byte	0xa2
 2473 04ec 3C040000 		.4byte	0x43c
 2474 04f0 0001     		.2byte	0x100
 2475 04f2 00       		.byte	0
 2476 04f3 02       		.uleb128 0x2
 2477 04f4 08       		.byte	0x8
 2478 04f5 04       		.byte	0x4
 2479 04f6 7A040000 		.4byte	.LASF77
 2480 04fa 0D       		.uleb128 0xd
 2481 04fb 9A040000 		.4byte	.LASF81
 2482 04ff 01       		.byte	0x1
 2483 0500 39       		.byte	0x39
 2484 0501 81000000 		.4byte	0x81
 2485 0505 00000000 		.4byte	.LFB56
 2486 0509 A4010000 		.4byte	.LFE56-.LFB56
 2487 050d 01       		.uleb128 0x1
 2488 050e 9C       		.byte	0x9c
 2489 050f 64050000 		.4byte	0x564
 2490 0513 0E       		.uleb128 0xe
 2491 0514 E1050000 		.4byte	.LASF78
 2492 0518 01       		.byte	0x1
 2493 0519 39       		.byte	0x39
 2494 051a 64050000 		.4byte	0x564
 2495 051e 02       		.uleb128 0x2
 2496 051f 91       		.byte	0x91
 2497 0520 64       		.sleb128 -28
 2498 0521 0E       		.uleb128 0xe
 2499 0522 E3060000 		.4byte	.LASF79
 2500 0526 01       		.byte	0x1
 2501 0527 39       		.byte	0x39
 2502 0528 81000000 		.4byte	0x81
 2503 052c 02       		.uleb128 0x2
 2504 052d 91       		.byte	0x91
 2505 052e 63       		.sleb128 -29
 2506 052f 0F       		.uleb128 0xf
 2507 0530 706F7300 		.ascii	"pos\000"
 2508 0534 01       		.byte	0x1
 2509 0535 39       		.byte	0x39
 2510 0536 81000000 		.4byte	0x81
 2511 053a 02       		.uleb128 0x2
 2512 053b 91       		.byte	0x91
 2513 053c 62       		.sleb128 -30
 2514 053d 10       		.uleb128 0x10
 2515 053e 7800     		.ascii	"x\000"
 2516 0540 01       		.byte	0x1
 2517 0541 3A       		.byte	0x3a
 2518 0542 81000000 		.4byte	0x81
 2519 0546 02       		.uleb128 0x2
 2520 0547 91       		.byte	0x91
 2521 0548 77       		.sleb128 -9
 2522 0549 10       		.uleb128 0x10
 2523 054a 7900     		.ascii	"y\000"
 2524 054c 01       		.byte	0x1
 2525 054d 3A       		.byte	0x3a
 2526 054e 81000000 		.4byte	0x81
 2527 0552 02       		.uleb128 0x2
 2528 0553 91       		.byte	0x91
ARM GAS  C:\Users\Lenovo\AppData\Local\Temp\cc37sAV3.s 			page 56


 2529 0554 76       		.sleb128 -10
 2530 0555 11       		.uleb128 0x11
 2531 0556 99000000 		.4byte	.LASF80
 2532 055a 01       		.byte	0x1
 2533 055b 3A       		.byte	0x3a
 2534 055c 6A050000 		.4byte	0x56a
 2535 0560 02       		.uleb128 0x2
 2536 0561 91       		.byte	0x91
 2537 0562 6C       		.sleb128 -20
 2538 0563 00       		.byte	0
 2539 0564 12       		.uleb128 0x12
 2540 0565 04       		.byte	0x4
 2541 0566 81000000 		.4byte	0x81
 2542 056a 09       		.uleb128 0x9
 2543 056b 81000000 		.4byte	0x81
 2544 056f 7A050000 		.4byte	0x57a
 2545 0573 0A       		.uleb128 0xa
 2546 0574 C1000000 		.4byte	0xc1
 2547 0578 06       		.byte	0x6
 2548 0579 00       		.byte	0
 2549 057a 0D       		.uleb128 0xd
 2550 057b B4040000 		.4byte	.LASF82
 2551 057f 01       		.byte	0x1
 2552 0580 76       		.byte	0x76
 2553 0581 81000000 		.4byte	0x81
 2554 0585 00000000 		.4byte	.LFB57
 2555 0589 F0030000 		.4byte	.LFE57-.LFB57
 2556 058d 01       		.uleb128 0x1
 2557 058e 9C       		.byte	0x9c
 2558 058f 11060000 		.4byte	0x611
 2559 0593 0E       		.uleb128 0xe
 2560 0594 DA060000 		.4byte	.LASF83
 2561 0598 01       		.byte	0x1
 2562 0599 76       		.byte	0x76
 2563 059a 64050000 		.4byte	0x564
 2564 059e 03       		.uleb128 0x3
 2565 059f 91       		.byte	0x91
 2566 05a0 B47F     		.sleb128 -76
 2567 05a2 0E       		.uleb128 0xe
 2568 05a3 10020000 		.4byte	.LASF84
 2569 05a7 01       		.byte	0x1
 2570 05a8 76       		.byte	0x76
 2571 05a9 64050000 		.4byte	0x564
 2572 05ad 03       		.uleb128 0x3
 2573 05ae 91       		.byte	0x91
 2574 05af B07F     		.sleb128 -80
 2575 05b1 11       		.uleb128 0x11
 2576 05b2 B4020000 		.4byte	.LASF85
 2577 05b6 01       		.byte	0x1
 2578 05b7 77       		.byte	0x77
 2579 05b8 BA030000 		.4byte	0x3ba
 2580 05bc 02       		.uleb128 0x2
 2581 05bd 91       		.byte	0x91
 2582 05be 64       		.sleb128 -28
 2583 05bf 11       		.uleb128 0x11
 2584 05c0 4F040000 		.4byte	.LASF86
 2585 05c4 01       		.byte	0x1
ARM GAS  C:\Users\Lenovo\AppData\Local\Temp\cc37sAV3.s 			page 57


 2586 05c5 77       		.byte	0x77
 2587 05c6 BA030000 		.4byte	0x3ba
 2588 05ca 02       		.uleb128 0x2
 2589 05cb 91       		.byte	0x91
 2590 05cc 54       		.sleb128 -44
 2591 05cd 11       		.uleb128 0x11
 2592 05ce C3020000 		.4byte	.LASF87
 2593 05d2 01       		.byte	0x1
 2594 05d3 77       		.byte	0x77
 2595 05d4 BA030000 		.4byte	0x3ba
 2596 05d8 02       		.uleb128 0x2
 2597 05d9 91       		.byte	0x91
 2598 05da 44       		.sleb128 -60
 2599 05db 11       		.uleb128 0x11
 2600 05dc EA060000 		.4byte	.LASF88
 2601 05e0 01       		.byte	0x1
 2602 05e1 77       		.byte	0x77
 2603 05e2 81000000 		.4byte	0x81
 2604 05e6 02       		.uleb128 0x2
 2605 05e7 91       		.byte	0x91
 2606 05e8 77       		.sleb128 -9
 2607 05e9 11       		.uleb128 0x11
 2608 05ea C0040000 		.4byte	.LASF89
 2609 05ee 01       		.byte	0x1
 2610 05ef 77       		.byte	0x77
 2611 05f0 11060000 		.4byte	0x611
 2612 05f4 03       		.uleb128 0x3
 2613 05f5 91       		.byte	0x91
 2614 05f6 B87F     		.sleb128 -72
 2615 05f8 10       		.uleb128 0x10
 2616 05f9 7800     		.ascii	"x\000"
 2617 05fb 01       		.byte	0x1
 2618 05fc 77       		.byte	0x77
 2619 05fd 81000000 		.4byte	0x81
 2620 0601 02       		.uleb128 0x2
 2621 0602 91       		.byte	0x91
 2622 0603 76       		.sleb128 -10
 2623 0604 10       		.uleb128 0x10
 2624 0605 7900     		.ascii	"y\000"
 2625 0607 01       		.byte	0x1
 2626 0608 77       		.byte	0x77
 2627 0609 81000000 		.4byte	0x81
 2628 060d 02       		.uleb128 0x2
 2629 060e 91       		.byte	0x91
 2630 060f 75       		.sleb128 -11
 2631 0610 00       		.byte	0
 2632 0611 09       		.uleb128 0x9
 2633 0612 81000000 		.4byte	0x81
 2634 0616 21060000 		.4byte	0x621
 2635 061a 0A       		.uleb128 0xa
 2636 061b C1000000 		.4byte	0xc1
 2637 061f 0B       		.byte	0xb
 2638 0620 00       		.byte	0
 2639 0621 13       		.uleb128 0x13
 2640 0622 17010000 		.4byte	.LASF90
 2641 0626 01       		.byte	0x1
 2642 0627 CF       		.byte	0xcf
ARM GAS  C:\Users\Lenovo\AppData\Local\Temp\cc37sAV3.s 			page 58


 2643 0628 81000000 		.4byte	0x81
 2644 062c 00000000 		.4byte	.LFB58
 2645 0630 B4010000 		.4byte	.LFE58-.LFB58
 2646 0634 01       		.uleb128 0x1
 2647 0635 9C       		.byte	0x9c
 2648 0636 8B060000 		.4byte	0x68b
 2649 063a 0E       		.uleb128 0xe
 2650 063b 50030000 		.4byte	.LASF91
 2651 063f 01       		.byte	0x1
 2652 0640 CF       		.byte	0xcf
 2653 0641 64050000 		.4byte	0x564
 2654 0645 02       		.uleb128 0x2
 2655 0646 91       		.byte	0x91
 2656 0647 54       		.sleb128 -44
 2657 0648 0E       		.uleb128 0xe
 2658 0649 57030000 		.4byte	.LASF92
 2659 064d 01       		.byte	0x1
 2660 064e CF       		.byte	0xcf
 2661 064f 64050000 		.4byte	0x564
 2662 0653 02       		.uleb128 0x2
 2663 0654 91       		.byte	0x91
 2664 0655 50       		.sleb128 -48
 2665 0656 11       		.uleb128 0x11
 2666 0657 73040000 		.4byte	.LASF93
 2667 065b 01       		.byte	0x1
 2668 065c D0       		.byte	0xd0
 2669 065d 9E000000 		.4byte	0x9e
 2670 0661 02       		.uleb128 0x2
 2671 0662 91       		.byte	0x91
 2672 0663 68       		.sleb128 -24
 2673 0664 11       		.uleb128 0x11
 2674 0665 BD000000 		.4byte	.LASF94
 2675 0669 01       		.byte	0x1
 2676 066a D0       		.byte	0xd0
 2677 066b 9E000000 		.4byte	0x9e
 2678 066f 02       		.uleb128 0x2
 2679 0670 91       		.byte	0x91
 2680 0671 60       		.sleb128 -32
 2681 0672 10       		.uleb128 0x10
 2682 0673 7800     		.ascii	"x\000"
 2683 0675 01       		.byte	0x1
 2684 0676 D1       		.byte	0xd1
 2685 0677 81000000 		.4byte	0x81
 2686 067b 02       		.uleb128 0x2
 2687 067c 91       		.byte	0x91
 2688 067d 5F       		.sleb128 -33
 2689 067e 10       		.uleb128 0x10
 2690 067f 7900     		.ascii	"y\000"
 2691 0681 01       		.byte	0x1
 2692 0682 D1       		.byte	0xd1
 2693 0683 81000000 		.4byte	0x81
 2694 0687 02       		.uleb128 0x2
 2695 0688 91       		.byte	0x91
 2696 0689 5E       		.sleb128 -34
 2697 068a 00       		.byte	0
 2698 068b 14       		.uleb128 0x14
 2699 068c DE000000 		.4byte	.LASF99
ARM GAS  C:\Users\Lenovo\AppData\Local\Temp\cc37sAV3.s 			page 59


 2700 0690 01       		.byte	0x1
 2701 0691 FE       		.byte	0xfe
 2702 0692 00000000 		.4byte	.LFB59
 2703 0696 70030000 		.4byte	.LFE59-.LFB59
 2704 069a 01       		.uleb128 0x1
 2705 069b 9C       		.byte	0x9c
 2706 069c 23070000 		.4byte	0x723
 2707 06a0 0E       		.uleb128 0xe
 2708 06a1 50030000 		.4byte	.LASF91
 2709 06a5 01       		.byte	0x1
 2710 06a6 FE       		.byte	0xfe
 2711 06a7 64050000 		.4byte	0x564
 2712 06ab 03       		.uleb128 0x3
 2713 06ac 91       		.byte	0x91
 2714 06ad 947F     		.sleb128 -108
 2715 06af 0E       		.uleb128 0xe
 2716 06b0 57030000 		.4byte	.LASF92
 2717 06b4 01       		.byte	0x1
 2718 06b5 FE       		.byte	0xfe
 2719 06b6 64050000 		.4byte	0x564
 2720 06ba 03       		.uleb128 0x3
 2721 06bb 91       		.byte	0x91
 2722 06bc 907F     		.sleb128 -112
 2723 06be 15       		.uleb128 0x15
 2724 06bf 93020000 		.4byte	.LASF95
 2725 06c3 01       		.byte	0x1
 2726 06c4 4901     		.2byte	0x149
 2727 06c6 54030000 		.4byte	0x354
 2728 06ca 02       		.uleb128 0x2
 2729 06cb 91       		.byte	0x91
 2730 06cc 60       		.sleb128 -32
 2731 06cd 15       		.uleb128 0x15
 2732 06ce 9E020000 		.4byte	.LASF96
 2733 06d2 01       		.byte	0x1
 2734 06d3 4901     		.2byte	0x149
 2735 06d5 54030000 		.4byte	0x354
 2736 06d9 02       		.uleb128 0x2
 2737 06da 91       		.byte	0x91
 2738 06db 54       		.sleb128 -44
 2739 06dc 15       		.uleb128 0x15
 2740 06dd 0D010000 		.4byte	.LASF97
 2741 06e1 01       		.byte	0x1
 2742 06e2 4901     		.2byte	0x149
 2743 06e4 23070000 		.4byte	0x723
 2744 06e8 03       		.uleb128 0x3
 2745 06e9 91       		.byte	0x91
 2746 06ea 987F     		.sleb128 -104
 2747 06ec 16       		.uleb128 0x16
 2748 06ed 7800     		.ascii	"x\000"
 2749 06ef 01       		.byte	0x1
 2750 06f0 4901     		.2byte	0x149
 2751 06f2 81000000 		.4byte	0x81
 2752 06f6 02       		.uleb128 0x2
 2753 06f7 91       		.byte	0x91
 2754 06f8 6F       		.sleb128 -17
 2755 06f9 16       		.uleb128 0x16
 2756 06fa 7900     		.ascii	"y\000"
ARM GAS  C:\Users\Lenovo\AppData\Local\Temp\cc37sAV3.s 			page 60


 2757 06fc 01       		.byte	0x1
 2758 06fd 4901     		.2byte	0x149
 2759 06ff 81000000 		.4byte	0x81
 2760 0703 02       		.uleb128 0x2
 2761 0704 91       		.byte	0x91
 2762 0705 6E       		.sleb128 -18
 2763 0706 16       		.uleb128 0x16
 2764 0707 7A00     		.ascii	"z\000"
 2765 0709 01       		.byte	0x1
 2766 070a 4901     		.2byte	0x149
 2767 070c 81000000 		.4byte	0x81
 2768 0710 02       		.uleb128 0x2
 2769 0711 91       		.byte	0x91
 2770 0712 6D       		.sleb128 -19
 2771 0713 15       		.uleb128 0x15
 2772 0714 00000000 		.4byte	.LASF98
 2773 0718 01       		.byte	0x1
 2774 0719 4901     		.2byte	0x149
 2775 071b 81000000 		.4byte	0x81
 2776 071f 02       		.uleb128 0x2
 2777 0720 91       		.byte	0x91
 2778 0721 6C       		.sleb128 -20
 2779 0722 00       		.byte	0
 2780 0723 09       		.uleb128 0x9
 2781 0724 81000000 		.4byte	0x81
 2782 0728 39070000 		.4byte	0x739
 2783 072c 0A       		.uleb128 0xa
 2784 072d C1000000 		.4byte	0xc1
 2785 0731 03       		.byte	0x3
 2786 0732 0A       		.uleb128 0xa
 2787 0733 C1000000 		.4byte	0xc1
 2788 0737 0E       		.byte	0xe
 2789 0738 00       		.byte	0
 2790 0739 17       		.uleb128 0x17
 2791 073a DC020000 		.4byte	.LASF100
 2792 073e 01       		.byte	0x1
 2793 073f 8F01     		.2byte	0x18f
 2794 0741 00000000 		.4byte	.LFB60
 2795 0745 2C030000 		.4byte	.LFE60-.LFB60
 2796 0749 01       		.uleb128 0x1
 2797 074a 9C       		.byte	0x9c
 2798 074b F2070000 		.4byte	0x7f2
 2799 074f 18       		.uleb128 0x18
 2800 0750 50030000 		.4byte	.LASF91
 2801 0754 01       		.byte	0x1
 2802 0755 8F01     		.2byte	0x18f
 2803 0757 64050000 		.4byte	0x564
 2804 075b 03       		.uleb128 0x3
 2805 075c 91       		.byte	0x91
 2806 075d BC7F     		.sleb128 -68
 2807 075f 18       		.uleb128 0x18
 2808 0760 57030000 		.4byte	.LASF92
 2809 0764 01       		.byte	0x1
 2810 0765 8F01     		.2byte	0x18f
 2811 0767 64050000 		.4byte	0x564
 2812 076b 03       		.uleb128 0x3
 2813 076c 91       		.byte	0x91
ARM GAS  C:\Users\Lenovo\AppData\Local\Temp\cc37sAV3.s 			page 61


 2814 076d B87F     		.sleb128 -72
 2815 076f 18       		.uleb128 0x18
 2816 0770 5E030000 		.4byte	.LASF101
 2817 0774 01       		.byte	0x1
 2818 0775 8F01     		.2byte	0x18f
 2819 0777 64050000 		.4byte	0x564
 2820 077b 03       		.uleb128 0x3
 2821 077c 91       		.byte	0x91
 2822 077d B47F     		.sleb128 -76
 2823 077f 15       		.uleb128 0x15
 2824 0780 93020000 		.4byte	.LASF95
 2825 0784 01       		.byte	0x1
 2826 0785 ED01     		.2byte	0x1ed
 2827 0787 54030000 		.4byte	0x354
 2828 078b 02       		.uleb128 0x2
 2829 078c 91       		.byte	0x91
 2830 078d 68       		.sleb128 -24
 2831 078e 15       		.uleb128 0x15
 2832 078f 9E020000 		.4byte	.LASF96
 2833 0793 01       		.byte	0x1
 2834 0794 ED01     		.2byte	0x1ed
 2835 0796 54030000 		.4byte	0x354
 2836 079a 02       		.uleb128 0x2
 2837 079b 91       		.byte	0x91
 2838 079c 5C       		.sleb128 -36
 2839 079d 15       		.uleb128 0x15
 2840 079e A9020000 		.4byte	.LASF102
 2841 07a2 01       		.byte	0x1
 2842 07a3 ED01     		.2byte	0x1ed
 2843 07a5 54030000 		.4byte	0x354
 2844 07a9 02       		.uleb128 0x2
 2845 07aa 91       		.byte	0x91
 2846 07ab 50       		.sleb128 -48
 2847 07ac 15       		.uleb128 0x15
 2848 07ad 0D010000 		.4byte	.LASF97
 2849 07b1 01       		.byte	0x1
 2850 07b2 ED01     		.2byte	0x1ed
 2851 07b4 54030000 		.4byte	0x354
 2852 07b8 02       		.uleb128 0x2
 2853 07b9 91       		.byte	0x91
 2854 07ba 44       		.sleb128 -60
 2855 07bb 16       		.uleb128 0x16
 2856 07bc 7800     		.ascii	"x\000"
 2857 07be 01       		.byte	0x1
 2858 07bf ED01     		.2byte	0x1ed
 2859 07c1 81000000 		.4byte	0x81
 2860 07c5 02       		.uleb128 0x2
 2861 07c6 91       		.byte	0x91
 2862 07c7 77       		.sleb128 -9
 2863 07c8 16       		.uleb128 0x16
 2864 07c9 7900     		.ascii	"y\000"
 2865 07cb 01       		.byte	0x1
 2866 07cc ED01     		.2byte	0x1ed
 2867 07ce 81000000 		.4byte	0x81
 2868 07d2 02       		.uleb128 0x2
 2869 07d3 91       		.byte	0x91
 2870 07d4 76       		.sleb128 -10
ARM GAS  C:\Users\Lenovo\AppData\Local\Temp\cc37sAV3.s 			page 62


 2871 07d5 16       		.uleb128 0x16
 2872 07d6 7A00     		.ascii	"z\000"
 2873 07d8 01       		.byte	0x1
 2874 07d9 ED01     		.2byte	0x1ed
 2875 07db 81000000 		.4byte	0x81
 2876 07df 02       		.uleb128 0x2
 2877 07e0 91       		.byte	0x91
 2878 07e1 75       		.sleb128 -11
 2879 07e2 15       		.uleb128 0x15
 2880 07e3 00000000 		.4byte	.LASF98
 2881 07e7 01       		.byte	0x1
 2882 07e8 ED01     		.2byte	0x1ed
 2883 07ea 81000000 		.4byte	0x81
 2884 07ee 02       		.uleb128 0x2
 2885 07ef 91       		.byte	0x91
 2886 07f0 74       		.sleb128 -12
 2887 07f1 00       		.byte	0
 2888 07f2 19       		.uleb128 0x19
 2889 07f3 49050000 		.4byte	.LASF103
 2890 07f7 06       		.byte	0x6
 2891 07f8 1606     		.2byte	0x616
 2892 07fa FE070000 		.4byte	0x7fe
 2893 07fe 05       		.uleb128 0x5
 2894 07ff 76000000 		.4byte	0x76
 2895 0803 1A       		.uleb128 0x1a
 2896 0804 65030000 		.4byte	.LASF104
 2897 0808 05       		.byte	0x5
 2898 0809 2C       		.byte	0x2c
 2899 080a 14080000 		.4byte	0x814
 2900 080e 05       		.uleb128 0x5
 2901 080f 03       		.byte	0x3
 2902 0810 00000000 		.4byte	countAnimation1
 2903 0814 05       		.uleb128 0x5
 2904 0815 A5000000 		.4byte	0xa5
 2905 0819 1A       		.uleb128 0x1a
 2906 081a 96030000 		.4byte	.LASF105
 2907 081e 05       		.byte	0x5
 2908 081f 2D       		.byte	0x2d
 2909 0820 14080000 		.4byte	0x814
 2910 0824 05       		.uleb128 0x5
 2911 0825 03       		.byte	0x3
 2912 0826 00000000 		.4byte	countAnimation2
 2913 082a 1A       		.uleb128 0x1a
 2914 082b 98060000 		.4byte	.LASF106
 2915 082f 05       		.byte	0x5
 2916 0830 2E       		.byte	0x2e
 2917 0831 14080000 		.4byte	0x814
 2918 0835 05       		.uleb128 0x5
 2919 0836 03       		.byte	0x3
 2920 0837 00000000 		.4byte	countBeagleTX
 2921 083b 1A       		.uleb128 0x1a
 2922 083c D0060000 		.4byte	.LASF107
 2923 0840 05       		.byte	0x5
 2924 0841 2F       		.byte	0x2f
 2925 0842 14080000 		.4byte	0x814
 2926 0846 05       		.uleb128 0x5
 2927 0847 03       		.byte	0x3
ARM GAS  C:\Users\Lenovo\AppData\Local\Temp\cc37sAV3.s 			page 63


 2928 0848 00000000 		.4byte	countPump
 2929 084c 1A       		.uleb128 0x1a
 2930 084d 51020000 		.4byte	.LASF108
 2931 0851 05       		.byte	0x5
 2932 0852 30       		.byte	0x30
 2933 0853 BC000000 		.4byte	0xbc
 2934 0857 05       		.uleb128 0x5
 2935 0858 03       		.byte	0x3
 2936 0859 00000000 		.4byte	flowLCD1
 2937 085d 1A       		.uleb128 0x1a
 2938 085e 5A020000 		.4byte	.LASF109
 2939 0862 05       		.byte	0x5
 2940 0863 31       		.byte	0x31
 2941 0864 BC000000 		.4byte	0xbc
 2942 0868 05       		.uleb128 0x5
 2943 0869 03       		.byte	0x3
 2944 086a 00000000 		.4byte	flowLCD2
 2945 086e 1A       		.uleb128 0x1a
 2946 086f 9B010000 		.4byte	.LASF110
 2947 0873 05       		.byte	0x5
 2948 0874 32       		.byte	0x32
 2949 0875 B7000000 		.4byte	0xb7
 2950 0879 05       		.uleb128 0x5
 2951 087a 03       		.byte	0x3
 2952 087b 00000000 		.4byte	digits
 2953 087f 1A       		.uleb128 0x1a
 2954 0880 2F000000 		.4byte	.LASF111
 2955 0884 05       		.byte	0x5
 2956 0885 33       		.byte	0x33
 2957 0886 90080000 		.4byte	0x890
 2958 088a 05       		.uleb128 0x5
 2959 088b 03       		.byte	0x3
 2960 088c 00000000 		.4byte	ipAdress
 2961 0890 05       		.uleb128 0x5
 2962 0891 11060000 		.4byte	0x611
 2963 0895 1A       		.uleb128 0x1a
 2964 0896 7B020000 		.4byte	.LASF112
 2965 089a 05       		.byte	0x5
 2966 089b 34       		.byte	0x34
 2967 089c B7000000 		.4byte	0xb7
 2968 08a0 05       		.uleb128 0x5
 2969 08a1 03       		.byte	0x3
 2970 08a2 00000000 		.4byte	numberKeys1
 2971 08a6 1A       		.uleb128 0x1a
 2972 08a7 87020000 		.4byte	.LASF113
 2973 08ab 05       		.byte	0x5
 2974 08ac 35       		.byte	0x35
 2975 08ad B7000000 		.4byte	0xb7
 2976 08b1 05       		.uleb128 0x5
 2977 08b2 03       		.byte	0x3
 2978 08b3 00000000 		.4byte	numberKeys2
 2979 08b7 1A       		.uleb128 0x1a
 2980 08b8 F8040000 		.4byte	.LASF114
 2981 08bc 05       		.byte	0x5
 2982 08bd 36       		.byte	0x36
 2983 08be B7000000 		.4byte	0xb7
 2984 08c2 05       		.uleb128 0x5
ARM GAS  C:\Users\Lenovo\AppData\Local\Temp\cc37sAV3.s 			page 64


 2985 08c3 03       		.byte	0x3
 2986 08c4 00000000 		.4byte	flagPoint1
 2987 08c8 1A       		.uleb128 0x1a
 2988 08c9 D3000000 		.4byte	.LASF115
 2989 08cd 05       		.byte	0x5
 2990 08ce 37       		.byte	0x37
 2991 08cf B7000000 		.4byte	0xb7
 2992 08d3 05       		.uleb128 0x5
 2993 08d4 03       		.byte	0x3
 2994 08d5 00000000 		.4byte	flagPoint2
 2995 08d9 09       		.uleb128 0x9
 2996 08da 81000000 		.4byte	0x81
 2997 08de EF080000 		.4byte	0x8ef
 2998 08e2 0A       		.uleb128 0xa
 2999 08e3 C1000000 		.4byte	0xc1
 3000 08e7 77       		.byte	0x77
 3001 08e8 0A       		.uleb128 0xa
 3002 08e9 C1000000 		.4byte	0xc1
 3003 08ed 07       		.byte	0x7
 3004 08ee 00       		.byte	0
 3005 08ef 1A       		.uleb128 0x1a
 3006 08f0 09020000 		.4byte	.LASF116
 3007 08f4 05       		.byte	0x5
 3008 08f5 38       		.byte	0x38
 3009 08f6 00090000 		.4byte	0x900
 3010 08fa 05       		.uleb128 0x5
 3011 08fb 03       		.byte	0x3
 3012 08fc 00000000 		.4byte	button
 3013 0900 05       		.uleb128 0x5
 3014 0901 D9080000 		.4byte	0x8d9
 3015 0905 1A       		.uleb128 0x1a
 3016 0906 B3010000 		.4byte	.LASF117
 3017 090a 05       		.byte	0x5
 3018 090b 39       		.byte	0x39
 3019 090c B7000000 		.4byte	0xb7
 3020 0910 05       		.uleb128 0x5
 3021 0911 03       		.byte	0x3
 3022 0912 00000000 		.4byte	productNumber
 3023 0916 1A       		.uleb128 0x1a
 3024 0917 25030000 		.4byte	.LASF118
 3025 091b 05       		.byte	0x5
 3026 091c 3A       		.byte	0x3a
 3027 091d 16040000 		.4byte	0x416
 3028 0921 05       		.uleb128 0x5
 3029 0922 03       		.byte	0x3
 3030 0923 00000000 		.4byte	presetFast
 3031 0927 1A       		.uleb128 0x1a
 3032 0928 A1050000 		.4byte	.LASF119
 3033 092c 05       		.byte	0x5
 3034 092d 3B       		.byte	0x3b
 3035 092e BC000000 		.4byte	0xbc
 3036 0932 05       		.uleb128 0x5
 3037 0933 03       		.byte	0x3
 3038 0934 00000000 		.4byte	delayPicture1
 3039 0938 1A       		.uleb128 0x1a
 3040 0939 AF050000 		.4byte	.LASF120
 3041 093d 05       		.byte	0x5
ARM GAS  C:\Users\Lenovo\AppData\Local\Temp\cc37sAV3.s 			page 65


 3042 093e 3C       		.byte	0x3c
 3043 093f BC000000 		.4byte	0xbc
 3044 0943 05       		.uleb128 0x5
 3045 0944 03       		.byte	0x3
 3046 0945 00000000 		.4byte	delayPicture2
 3047 0949 1A       		.uleb128 0x1a
 3048 094a DE040000 		.4byte	.LASF121
 3049 094e 05       		.byte	0x5
 3050 094f 3D       		.byte	0x3d
 3051 0950 B7000000 		.4byte	0xb7
 3052 0954 05       		.uleb128 0x5
 3053 0955 03       		.byte	0x3
 3054 0956 00000000 		.4byte	ppux10
 3055 095a 1A       		.uleb128 0x1a
 3056 095b 38000000 		.4byte	.LASF122
 3057 095f 05       		.byte	0x5
 3058 0960 3E       		.byte	0x3e
 3059 0961 B7000000 		.4byte	0xb7
 3060 0965 05       		.uleb128 0x5
 3061 0966 03       		.byte	0x3
 3062 0967 00000000 		.4byte	decimalMoney
 3063 096b 1A       		.uleb128 0x1a
 3064 096c 06000000 		.4byte	.LASF123
 3065 0970 05       		.byte	0x5
 3066 0971 3F       		.byte	0x3f
 3067 0972 B7000000 		.4byte	0xb7
 3068 0976 05       		.uleb128 0x5
 3069 0977 03       		.byte	0x3
 3070 0978 00000000 		.4byte	decimalVolume
 3071 097c 1A       		.uleb128 0x1a
 3072 097d 15050000 		.4byte	.LASF124
 3073 0981 05       		.byte	0x5
 3074 0982 40       		.byte	0x40
 3075 0983 8D090000 		.4byte	0x98d
 3076 0987 05       		.uleb128 0x5
 3077 0988 03       		.byte	0x3
 3078 0989 00000000 		.4byte	symbols
 3079 098d 05       		.uleb128 0x5
 3080 098e 74030000 		.4byte	0x374
 3081 0992 09       		.uleb128 0x9
 3082 0993 81000000 		.4byte	0x81
 3083 0997 A2090000 		.4byte	0x9a2
 3084 099b 0A       		.uleb128 0xa
 3085 099c C1000000 		.4byte	0xc1
 3086 09a0 02       		.byte	0x2
 3087 09a1 00       		.byte	0
 3088 09a2 1A       		.uleb128 0x1a
 3089 09a3 A2010000 		.4byte	.LASF125
 3090 09a7 05       		.byte	0x5
 3091 09a8 41       		.byte	0x41
 3092 09a9 B3090000 		.4byte	0x9b3
 3093 09ad 05       		.uleb128 0x5
 3094 09ae 03       		.byte	0x3
 3095 09af 00000000 		.4byte	time
 3096 09b3 05       		.uleb128 0x5
 3097 09b4 92090000 		.4byte	0x992
 3098 09b8 1A       		.uleb128 0x1a
ARM GAS  C:\Users\Lenovo\AppData\Local\Temp\cc37sAV3.s 			page 66


 3099 09b9 BE020000 		.4byte	.LASF126
 3100 09bd 05       		.byte	0x5
 3101 09be 42       		.byte	0x42
 3102 09bf C9090000 		.4byte	0x9c9
 3103 09c3 05       		.uleb128 0x5
 3104 09c4 03       		.byte	0x3
 3105 09c5 00000000 		.4byte	date
 3106 09c9 05       		.uleb128 0x5
 3107 09ca 92090000 		.4byte	0x992
 3108 09ce 1A       		.uleb128 0x1a
 3109 09cf F4000000 		.4byte	.LASF127
 3110 09d3 05       		.byte	0x5
 3111 09d4 43       		.byte	0x43
 3112 09d5 DF090000 		.4byte	0x9df
 3113 09d9 05       		.uleb128 0x5
 3114 09da 03       		.byte	0x3
 3115 09db 00000000 		.4byte	screen
 3116 09df 05       		.uleb128 0x5
 3117 09e0 74030000 		.4byte	0x374
 3118 09e4 1A       		.uleb128 0x1a
 3119 09e5 85000000 		.4byte	.LASF128
 3120 09e9 05       		.byte	0x5
 3121 09ea 44       		.byte	0x44
 3122 09eb F5090000 		.4byte	0x9f5
 3123 09ef 05       		.uleb128 0x5
 3124 09f0 03       		.byte	0x3
 3125 09f1 00000000 		.4byte	residue
 3126 09f5 05       		.uleb128 0x5
 3127 09f6 BA030000 		.4byte	0x3ba
 3128 09fa 09       		.uleb128 0x9
 3129 09fb 81000000 		.4byte	0x81
 3130 09ff 0A0A0000 		.4byte	0xa0a
 3131 0a03 0A       		.uleb128 0xa
 3132 0a04 C1000000 		.4byte	0xc1
 3133 0a08 1D       		.byte	0x1d
 3134 0a09 00       		.byte	0
 3135 0a0a 1A       		.uleb128 0x1a
 3136 0a0b 74060000 		.4byte	.LASF129
 3137 0a0f 05       		.byte	0x5
 3138 0a10 45       		.byte	0x45
 3139 0a11 FA090000 		.4byte	0x9fa
 3140 0a15 05       		.uleb128 0x5
 3141 0a16 03       		.byte	0x3
 3142 0a17 00000000 		.4byte	temporal
 3143 0a1b 1A       		.uleb128 0x1a
 3144 0a1c 14000000 		.4byte	.LASF130
 3145 0a20 05       		.byte	0x5
 3146 0a21 46       		.byte	0x46
 3147 0a22 FA090000 		.4byte	0x9fa
 3148 0a26 05       		.uleb128 0x5
 3149 0a27 03       		.byte	0x3
 3150 0a28 00000000 		.4byte	temporalCom
 3151 0a2c 1A       		.uleb128 0x1a
 3152 0a2d 41020000 		.4byte	.LASF131
 3153 0a31 05       		.byte	0x5
 3154 0a32 47       		.byte	0x47
 3155 0a33 B7000000 		.4byte	0xb7
ARM GAS  C:\Users\Lenovo\AppData\Local\Temp\cc37sAV3.s 			page 67


 3156 0a37 05       		.uleb128 0x5
 3157 0a38 03       		.byte	0x3
 3158 0a39 00000000 		.4byte	turn
 3159 0a3d 1A       		.uleb128 0x1a
 3160 0a3e 56050000 		.4byte	.LASF132
 3161 0a42 05       		.byte	0x5
 3162 0a43 48       		.byte	0x48
 3163 0a44 B7000000 		.4byte	0xb7
 3164 0a48 05       		.uleb128 0x5
 3165 0a49 03       		.byte	0x3
 3166 0a4a 00000000 		.4byte	lockTurn
 3167 0a4e 1A       		.uleb128 0x1a
 3168 0a4f 66060000 		.4byte	.LASF133
 3169 0a53 05       		.byte	0x5
 3170 0a54 49       		.byte	0x49
 3171 0a55 5F0A0000 		.4byte	0xa5f
 3172 0a59 05       		.uleb128 0x5
 3173 0a5a 03       		.byte	0x3
 3174 0a5b 00000000 		.4byte	idSeller
 3175 0a5f 05       		.uleb128 0x5
 3176 0a60 44030000 		.4byte	0x344
 3177 0a64 1A       		.uleb128 0x1a
 3178 0a65 E9050000 		.4byte	.LASF134
 3179 0a69 05       		.byte	0x5
 3180 0a6a 4A       		.byte	0x4a
 3181 0a6b B7000000 		.4byte	0xb7
 3182 0a6f 05       		.uleb128 0x5
 3183 0a70 03       		.byte	0x3
 3184 0a71 00000000 		.4byte	typeIdSeller
 3185 0a75 09       		.uleb128 0x9
 3186 0a76 81000000 		.4byte	0x81
 3187 0a7a 850A0000 		.4byte	0xa85
 3188 0a7e 0A       		.uleb128 0xa
 3189 0a7f C1000000 		.4byte	0xc1
 3190 0a83 07       		.byte	0x7
 3191 0a84 00       		.byte	0
 3192 0a85 1A       		.uleb128 0x1a
 3193 0a86 7A050000 		.4byte	.LASF135
 3194 0a8a 05       		.byte	0x5
 3195 0a8b 4B       		.byte	0x4b
 3196 0a8c 960A0000 		.4byte	0xa96
 3197 0a90 05       		.uleb128 0x5
 3198 0a91 03       		.byte	0x3
 3199 0a92 00000000 		.4byte	passwordSeller
 3200 0a96 05       		.uleb128 0x5
 3201 0a97 750A0000 		.4byte	0xa75
 3202 0a9b 1A       		.uleb128 0x1a
 3203 0a9c 8D040000 		.4byte	.LASF136
 3204 0aa0 05       		.byte	0x5
 3205 0aa1 4C       		.byte	0x4c
 3206 0aa2 B7000000 		.4byte	0xb7
 3207 0aa6 05       		.uleb128 0x5
 3208 0aa7 03       		.byte	0x3
 3209 0aa8 00000000 		.4byte	flagResetMux
 3210 0aac 1A       		.uleb128 0x1a
 3211 0aad 75030000 		.4byte	.LASF137
 3212 0ab1 05       		.byte	0x5
ARM GAS  C:\Users\Lenovo\AppData\Local\Temp\cc37sAV3.s 			page 68


 3213 0ab2 4D       		.byte	0x4d
 3214 0ab3 B7000000 		.4byte	0xb7
 3215 0ab7 05       		.uleb128 0x5
 3216 0ab8 03       		.byte	0x3
 3217 0ab9 00000000 		.4byte	stateBeagleSoft
 3218 0abd 1A       		.uleb128 0x1a
 3219 0abe D9010000 		.4byte	.LASF138
 3220 0ac2 05       		.byte	0x5
 3221 0ac3 8B       		.byte	0x8b
 3222 0ac4 C8000000 		.4byte	0xc8
 3223 0ac8 05       		.uleb128 0x5
 3224 0ac9 03       		.byte	0x3
 3225 0aca 00000000 		.4byte	bufferLCD1
 3226 0ace 1A       		.uleb128 0x1a
 3227 0acf E4010000 		.4byte	.LASF139
 3228 0ad3 05       		.byte	0x5
 3229 0ad4 8C       		.byte	0x8c
 3230 0ad5 C8000000 		.4byte	0xc8
 3231 0ad9 05       		.uleb128 0x5
 3232 0ada 03       		.byte	0x3
 3233 0adb 00000000 		.4byte	bufferLCD2
 3234 0adf 1A       		.uleb128 0x1a
 3235 0ae0 94000000 		.4byte	.LASF140
 3236 0ae4 05       		.byte	0x5
 3237 0ae5 A5       		.byte	0xa5
 3238 0ae6 D0040000 		.4byte	0x4d0
 3239 0aea 05       		.uleb128 0x5
 3240 0aeb 03       		.byte	0x3
 3241 0aec 00000000 		.4byte	side
 3242 0af0 00       		.byte	0
 3243              		.section	.debug_abbrev,"",%progbits
 3244              	.Ldebug_abbrev0:
 3245 0000 01       		.uleb128 0x1
 3246 0001 11       		.uleb128 0x11
 3247 0002 01       		.byte	0x1
 3248 0003 25       		.uleb128 0x25
 3249 0004 0E       		.uleb128 0xe
 3250 0005 13       		.uleb128 0x13
 3251 0006 0B       		.uleb128 0xb
 3252 0007 03       		.uleb128 0x3
 3253 0008 0E       		.uleb128 0xe
 3254 0009 1B       		.uleb128 0x1b
 3255 000a 0E       		.uleb128 0xe
 3256 000b 55       		.uleb128 0x55
 3257 000c 17       		.uleb128 0x17
 3258 000d 11       		.uleb128 0x11
 3259 000e 01       		.uleb128 0x1
 3260 000f 10       		.uleb128 0x10
 3261 0010 17       		.uleb128 0x17
 3262 0011 00       		.byte	0
 3263 0012 00       		.byte	0
 3264 0013 02       		.uleb128 0x2
 3265 0014 24       		.uleb128 0x24
 3266 0015 00       		.byte	0
 3267 0016 0B       		.uleb128 0xb
 3268 0017 0B       		.uleb128 0xb
 3269 0018 3E       		.uleb128 0x3e
ARM GAS  C:\Users\Lenovo\AppData\Local\Temp\cc37sAV3.s 			page 69


 3270 0019 0B       		.uleb128 0xb
 3271 001a 03       		.uleb128 0x3
 3272 001b 0E       		.uleb128 0xe
 3273 001c 00       		.byte	0
 3274 001d 00       		.byte	0
 3275 001e 03       		.uleb128 0x3
 3276 001f 16       		.uleb128 0x16
 3277 0020 00       		.byte	0
 3278 0021 03       		.uleb128 0x3
 3279 0022 0E       		.uleb128 0xe
 3280 0023 3A       		.uleb128 0x3a
 3281 0024 0B       		.uleb128 0xb
 3282 0025 3B       		.uleb128 0x3b
 3283 0026 0B       		.uleb128 0xb
 3284 0027 49       		.uleb128 0x49
 3285 0028 13       		.uleb128 0x13
 3286 0029 00       		.byte	0
 3287 002a 00       		.byte	0
 3288 002b 04       		.uleb128 0x4
 3289 002c 24       		.uleb128 0x24
 3290 002d 00       		.byte	0
 3291 002e 0B       		.uleb128 0xb
 3292 002f 0B       		.uleb128 0xb
 3293 0030 3E       		.uleb128 0x3e
 3294 0031 0B       		.uleb128 0xb
 3295 0032 03       		.uleb128 0x3
 3296 0033 08       		.uleb128 0x8
 3297 0034 00       		.byte	0
 3298 0035 00       		.byte	0
 3299 0036 05       		.uleb128 0x5
 3300 0037 35       		.uleb128 0x35
 3301 0038 00       		.byte	0
 3302 0039 49       		.uleb128 0x49
 3303 003a 13       		.uleb128 0x13
 3304 003b 00       		.byte	0
 3305 003c 00       		.byte	0
 3306 003d 06       		.uleb128 0x6
 3307 003e 13       		.uleb128 0x13
 3308 003f 01       		.byte	0x1
 3309 0040 03       		.uleb128 0x3
 3310 0041 0E       		.uleb128 0xe
 3311 0042 0B       		.uleb128 0xb
 3312 0043 05       		.uleb128 0x5
 3313 0044 3A       		.uleb128 0x3a
 3314 0045 0B       		.uleb128 0xb
 3315 0046 3B       		.uleb128 0x3b
 3316 0047 0B       		.uleb128 0xb
 3317 0048 01       		.uleb128 0x1
 3318 0049 13       		.uleb128 0x13
 3319 004a 00       		.byte	0
 3320 004b 00       		.byte	0
 3321 004c 07       		.uleb128 0x7
 3322 004d 0D       		.uleb128 0xd
 3323 004e 00       		.byte	0
 3324 004f 03       		.uleb128 0x3
 3325 0050 0E       		.uleb128 0xe
 3326 0051 3A       		.uleb128 0x3a
ARM GAS  C:\Users\Lenovo\AppData\Local\Temp\cc37sAV3.s 			page 70


 3327 0052 0B       		.uleb128 0xb
 3328 0053 3B       		.uleb128 0x3b
 3329 0054 0B       		.uleb128 0xb
 3330 0055 49       		.uleb128 0x49
 3331 0056 13       		.uleb128 0x13
 3332 0057 38       		.uleb128 0x38
 3333 0058 0B       		.uleb128 0xb
 3334 0059 00       		.byte	0
 3335 005a 00       		.byte	0
 3336 005b 08       		.uleb128 0x8
 3337 005c 0D       		.uleb128 0xd
 3338 005d 00       		.byte	0
 3339 005e 03       		.uleb128 0x3
 3340 005f 0E       		.uleb128 0xe
 3341 0060 3A       		.uleb128 0x3a
 3342 0061 0B       		.uleb128 0xb
 3343 0062 3B       		.uleb128 0x3b
 3344 0063 0B       		.uleb128 0xb
 3345 0064 49       		.uleb128 0x49
 3346 0065 13       		.uleb128 0x13
 3347 0066 38       		.uleb128 0x38
 3348 0067 05       		.uleb128 0x5
 3349 0068 00       		.byte	0
 3350 0069 00       		.byte	0
 3351 006a 09       		.uleb128 0x9
 3352 006b 01       		.uleb128 0x1
 3353 006c 01       		.byte	0x1
 3354 006d 49       		.uleb128 0x49
 3355 006e 13       		.uleb128 0x13
 3356 006f 01       		.uleb128 0x1
 3357 0070 13       		.uleb128 0x13
 3358 0071 00       		.byte	0
 3359 0072 00       		.byte	0
 3360 0073 0A       		.uleb128 0xa
 3361 0074 21       		.uleb128 0x21
 3362 0075 00       		.byte	0
 3363 0076 49       		.uleb128 0x49
 3364 0077 13       		.uleb128 0x13
 3365 0078 2F       		.uleb128 0x2f
 3366 0079 0B       		.uleb128 0xb
 3367 007a 00       		.byte	0
 3368 007b 00       		.byte	0
 3369 007c 0B       		.uleb128 0xb
 3370 007d 0D       		.uleb128 0xd
 3371 007e 00       		.byte	0
 3372 007f 03       		.uleb128 0x3
 3373 0080 08       		.uleb128 0x8
 3374 0081 3A       		.uleb128 0x3a
 3375 0082 0B       		.uleb128 0xb
 3376 0083 3B       		.uleb128 0x3b
 3377 0084 0B       		.uleb128 0xb
 3378 0085 49       		.uleb128 0x49
 3379 0086 13       		.uleb128 0x13
 3380 0087 38       		.uleb128 0x38
 3381 0088 0B       		.uleb128 0xb
 3382 0089 00       		.byte	0
 3383 008a 00       		.byte	0
ARM GAS  C:\Users\Lenovo\AppData\Local\Temp\cc37sAV3.s 			page 71


 3384 008b 0C       		.uleb128 0xc
 3385 008c 0D       		.uleb128 0xd
 3386 008d 00       		.byte	0
 3387 008e 03       		.uleb128 0x3
 3388 008f 08       		.uleb128 0x8
 3389 0090 3A       		.uleb128 0x3a
 3390 0091 0B       		.uleb128 0xb
 3391 0092 3B       		.uleb128 0x3b
 3392 0093 0B       		.uleb128 0xb
 3393 0094 49       		.uleb128 0x49
 3394 0095 13       		.uleb128 0x13
 3395 0096 38       		.uleb128 0x38
 3396 0097 05       		.uleb128 0x5
 3397 0098 00       		.byte	0
 3398 0099 00       		.byte	0
 3399 009a 0D       		.uleb128 0xd
 3400 009b 2E       		.uleb128 0x2e
 3401 009c 01       		.byte	0x1
 3402 009d 3F       		.uleb128 0x3f
 3403 009e 19       		.uleb128 0x19
 3404 009f 03       		.uleb128 0x3
 3405 00a0 0E       		.uleb128 0xe
 3406 00a1 3A       		.uleb128 0x3a
 3407 00a2 0B       		.uleb128 0xb
 3408 00a3 3B       		.uleb128 0x3b
 3409 00a4 0B       		.uleb128 0xb
 3410 00a5 27       		.uleb128 0x27
 3411 00a6 19       		.uleb128 0x19
 3412 00a7 49       		.uleb128 0x49
 3413 00a8 13       		.uleb128 0x13
 3414 00a9 11       		.uleb128 0x11
 3415 00aa 01       		.uleb128 0x1
 3416 00ab 12       		.uleb128 0x12
 3417 00ac 06       		.uleb128 0x6
 3418 00ad 40       		.uleb128 0x40
 3419 00ae 18       		.uleb128 0x18
 3420 00af 9742     		.uleb128 0x2117
 3421 00b1 19       		.uleb128 0x19
 3422 00b2 01       		.uleb128 0x1
 3423 00b3 13       		.uleb128 0x13
 3424 00b4 00       		.byte	0
 3425 00b5 00       		.byte	0
 3426 00b6 0E       		.uleb128 0xe
 3427 00b7 05       		.uleb128 0x5
 3428 00b8 00       		.byte	0
 3429 00b9 03       		.uleb128 0x3
 3430 00ba 0E       		.uleb128 0xe
 3431 00bb 3A       		.uleb128 0x3a
 3432 00bc 0B       		.uleb128 0xb
 3433 00bd 3B       		.uleb128 0x3b
 3434 00be 0B       		.uleb128 0xb
 3435 00bf 49       		.uleb128 0x49
 3436 00c0 13       		.uleb128 0x13
 3437 00c1 02       		.uleb128 0x2
 3438 00c2 18       		.uleb128 0x18
 3439 00c3 00       		.byte	0
 3440 00c4 00       		.byte	0
ARM GAS  C:\Users\Lenovo\AppData\Local\Temp\cc37sAV3.s 			page 72


 3441 00c5 0F       		.uleb128 0xf
 3442 00c6 05       		.uleb128 0x5
 3443 00c7 00       		.byte	0
 3444 00c8 03       		.uleb128 0x3
 3445 00c9 08       		.uleb128 0x8
 3446 00ca 3A       		.uleb128 0x3a
 3447 00cb 0B       		.uleb128 0xb
 3448 00cc 3B       		.uleb128 0x3b
 3449 00cd 0B       		.uleb128 0xb
 3450 00ce 49       		.uleb128 0x49
 3451 00cf 13       		.uleb128 0x13
 3452 00d0 02       		.uleb128 0x2
 3453 00d1 18       		.uleb128 0x18
 3454 00d2 00       		.byte	0
 3455 00d3 00       		.byte	0
 3456 00d4 10       		.uleb128 0x10
 3457 00d5 34       		.uleb128 0x34
 3458 00d6 00       		.byte	0
 3459 00d7 03       		.uleb128 0x3
 3460 00d8 08       		.uleb128 0x8
 3461 00d9 3A       		.uleb128 0x3a
 3462 00da 0B       		.uleb128 0xb
 3463 00db 3B       		.uleb128 0x3b
 3464 00dc 0B       		.uleb128 0xb
 3465 00dd 49       		.uleb128 0x49
 3466 00de 13       		.uleb128 0x13
 3467 00df 02       		.uleb128 0x2
 3468 00e0 18       		.uleb128 0x18
 3469 00e1 00       		.byte	0
 3470 00e2 00       		.byte	0
 3471 00e3 11       		.uleb128 0x11
 3472 00e4 34       		.uleb128 0x34
 3473 00e5 00       		.byte	0
 3474 00e6 03       		.uleb128 0x3
 3475 00e7 0E       		.uleb128 0xe
 3476 00e8 3A       		.uleb128 0x3a
 3477 00e9 0B       		.uleb128 0xb
 3478 00ea 3B       		.uleb128 0x3b
 3479 00eb 0B       		.uleb128 0xb
 3480 00ec 49       		.uleb128 0x49
 3481 00ed 13       		.uleb128 0x13
 3482 00ee 02       		.uleb128 0x2
 3483 00ef 18       		.uleb128 0x18
 3484 00f0 00       		.byte	0
 3485 00f1 00       		.byte	0
 3486 00f2 12       		.uleb128 0x12
 3487 00f3 0F       		.uleb128 0xf
 3488 00f4 00       		.byte	0
 3489 00f5 0B       		.uleb128 0xb
 3490 00f6 0B       		.uleb128 0xb
 3491 00f7 49       		.uleb128 0x49
 3492 00f8 13       		.uleb128 0x13
 3493 00f9 00       		.byte	0
 3494 00fa 00       		.byte	0
 3495 00fb 13       		.uleb128 0x13
 3496 00fc 2E       		.uleb128 0x2e
 3497 00fd 01       		.byte	0x1
ARM GAS  C:\Users\Lenovo\AppData\Local\Temp\cc37sAV3.s 			page 73


 3498 00fe 3F       		.uleb128 0x3f
 3499 00ff 19       		.uleb128 0x19
 3500 0100 03       		.uleb128 0x3
 3501 0101 0E       		.uleb128 0xe
 3502 0102 3A       		.uleb128 0x3a
 3503 0103 0B       		.uleb128 0xb
 3504 0104 3B       		.uleb128 0x3b
 3505 0105 0B       		.uleb128 0xb
 3506 0106 27       		.uleb128 0x27
 3507 0107 19       		.uleb128 0x19
 3508 0108 49       		.uleb128 0x49
 3509 0109 13       		.uleb128 0x13
 3510 010a 11       		.uleb128 0x11
 3511 010b 01       		.uleb128 0x1
 3512 010c 12       		.uleb128 0x12
 3513 010d 06       		.uleb128 0x6
 3514 010e 40       		.uleb128 0x40
 3515 010f 18       		.uleb128 0x18
 3516 0110 9642     		.uleb128 0x2116
 3517 0112 19       		.uleb128 0x19
 3518 0113 01       		.uleb128 0x1
 3519 0114 13       		.uleb128 0x13
 3520 0115 00       		.byte	0
 3521 0116 00       		.byte	0
 3522 0117 14       		.uleb128 0x14
 3523 0118 2E       		.uleb128 0x2e
 3524 0119 01       		.byte	0x1
 3525 011a 3F       		.uleb128 0x3f
 3526 011b 19       		.uleb128 0x19
 3527 011c 03       		.uleb128 0x3
 3528 011d 0E       		.uleb128 0xe
 3529 011e 3A       		.uleb128 0x3a
 3530 011f 0B       		.uleb128 0xb
 3531 0120 3B       		.uleb128 0x3b
 3532 0121 0B       		.uleb128 0xb
 3533 0122 27       		.uleb128 0x27
 3534 0123 19       		.uleb128 0x19
 3535 0124 11       		.uleb128 0x11
 3536 0125 01       		.uleb128 0x1
 3537 0126 12       		.uleb128 0x12
 3538 0127 06       		.uleb128 0x6
 3539 0128 40       		.uleb128 0x40
 3540 0129 18       		.uleb128 0x18
 3541 012a 9642     		.uleb128 0x2116
 3542 012c 19       		.uleb128 0x19
 3543 012d 01       		.uleb128 0x1
 3544 012e 13       		.uleb128 0x13
 3545 012f 00       		.byte	0
 3546 0130 00       		.byte	0
 3547 0131 15       		.uleb128 0x15
 3548 0132 34       		.uleb128 0x34
 3549 0133 00       		.byte	0
 3550 0134 03       		.uleb128 0x3
 3551 0135 0E       		.uleb128 0xe
 3552 0136 3A       		.uleb128 0x3a
 3553 0137 0B       		.uleb128 0xb
 3554 0138 3B       		.uleb128 0x3b
ARM GAS  C:\Users\Lenovo\AppData\Local\Temp\cc37sAV3.s 			page 74


 3555 0139 05       		.uleb128 0x5
 3556 013a 49       		.uleb128 0x49
 3557 013b 13       		.uleb128 0x13
 3558 013c 02       		.uleb128 0x2
 3559 013d 18       		.uleb128 0x18
 3560 013e 00       		.byte	0
 3561 013f 00       		.byte	0
 3562 0140 16       		.uleb128 0x16
 3563 0141 34       		.uleb128 0x34
 3564 0142 00       		.byte	0
 3565 0143 03       		.uleb128 0x3
 3566 0144 08       		.uleb128 0x8
 3567 0145 3A       		.uleb128 0x3a
 3568 0146 0B       		.uleb128 0xb
 3569 0147 3B       		.uleb128 0x3b
 3570 0148 05       		.uleb128 0x5
 3571 0149 49       		.uleb128 0x49
 3572 014a 13       		.uleb128 0x13
 3573 014b 02       		.uleb128 0x2
 3574 014c 18       		.uleb128 0x18
 3575 014d 00       		.byte	0
 3576 014e 00       		.byte	0
 3577 014f 17       		.uleb128 0x17
 3578 0150 2E       		.uleb128 0x2e
 3579 0151 01       		.byte	0x1
 3580 0152 3F       		.uleb128 0x3f
 3581 0153 19       		.uleb128 0x19
 3582 0154 03       		.uleb128 0x3
 3583 0155 0E       		.uleb128 0xe
 3584 0156 3A       		.uleb128 0x3a
 3585 0157 0B       		.uleb128 0xb
 3586 0158 3B       		.uleb128 0x3b
 3587 0159 05       		.uleb128 0x5
 3588 015a 27       		.uleb128 0x27
 3589 015b 19       		.uleb128 0x19
 3590 015c 11       		.uleb128 0x11
 3591 015d 01       		.uleb128 0x1
 3592 015e 12       		.uleb128 0x12
 3593 015f 06       		.uleb128 0x6
 3594 0160 40       		.uleb128 0x40
 3595 0161 18       		.uleb128 0x18
 3596 0162 9742     		.uleb128 0x2117
 3597 0164 19       		.uleb128 0x19
 3598 0165 01       		.uleb128 0x1
 3599 0166 13       		.uleb128 0x13
 3600 0167 00       		.byte	0
 3601 0168 00       		.byte	0
 3602 0169 18       		.uleb128 0x18
 3603 016a 05       		.uleb128 0x5
 3604 016b 00       		.byte	0
 3605 016c 03       		.uleb128 0x3
 3606 016d 0E       		.uleb128 0xe
 3607 016e 3A       		.uleb128 0x3a
 3608 016f 0B       		.uleb128 0xb
 3609 0170 3B       		.uleb128 0x3b
 3610 0171 05       		.uleb128 0x5
 3611 0172 49       		.uleb128 0x49
ARM GAS  C:\Users\Lenovo\AppData\Local\Temp\cc37sAV3.s 			page 75


 3612 0173 13       		.uleb128 0x13
 3613 0174 02       		.uleb128 0x2
 3614 0175 18       		.uleb128 0x18
 3615 0176 00       		.byte	0
 3616 0177 00       		.byte	0
 3617 0178 19       		.uleb128 0x19
 3618 0179 34       		.uleb128 0x34
 3619 017a 00       		.byte	0
 3620 017b 03       		.uleb128 0x3
 3621 017c 0E       		.uleb128 0xe
 3622 017d 3A       		.uleb128 0x3a
 3623 017e 0B       		.uleb128 0xb
 3624 017f 3B       		.uleb128 0x3b
 3625 0180 05       		.uleb128 0x5
 3626 0181 49       		.uleb128 0x49
 3627 0182 13       		.uleb128 0x13
 3628 0183 3F       		.uleb128 0x3f
 3629 0184 19       		.uleb128 0x19
 3630 0185 3C       		.uleb128 0x3c
 3631 0186 19       		.uleb128 0x19
 3632 0187 00       		.byte	0
 3633 0188 00       		.byte	0
 3634 0189 1A       		.uleb128 0x1a
 3635 018a 34       		.uleb128 0x34
 3636 018b 00       		.byte	0
 3637 018c 03       		.uleb128 0x3
 3638 018d 0E       		.uleb128 0xe
 3639 018e 3A       		.uleb128 0x3a
 3640 018f 0B       		.uleb128 0xb
 3641 0190 3B       		.uleb128 0x3b
 3642 0191 0B       		.uleb128 0xb
 3643 0192 49       		.uleb128 0x49
 3644 0193 13       		.uleb128 0x13
 3645 0194 3F       		.uleb128 0x3f
 3646 0195 19       		.uleb128 0x19
 3647 0196 02       		.uleb128 0x2
 3648 0197 18       		.uleb128 0x18
 3649 0198 00       		.byte	0
 3650 0199 00       		.byte	0
 3651 019a 00       		.byte	0
 3652              		.section	.debug_aranges,"",%progbits
 3653 0000 3C000000 		.4byte	0x3c
 3654 0004 0200     		.2byte	0x2
 3655 0006 00000000 		.4byte	.Ldebug_info0
 3656 000a 04       		.byte	0x4
 3657 000b 00       		.byte	0
 3658 000c 0000     		.2byte	0
 3659 000e 0000     		.2byte	0
 3660 0010 00000000 		.4byte	.LFB56
 3661 0014 A4010000 		.4byte	.LFE56-.LFB56
 3662 0018 00000000 		.4byte	.LFB57
 3663 001c F0030000 		.4byte	.LFE57-.LFB57
 3664 0020 00000000 		.4byte	.LFB58
 3665 0024 B4010000 		.4byte	.LFE58-.LFB58
 3666 0028 00000000 		.4byte	.LFB59
 3667 002c 70030000 		.4byte	.LFE59-.LFB59
 3668 0030 00000000 		.4byte	.LFB60
ARM GAS  C:\Users\Lenovo\AppData\Local\Temp\cc37sAV3.s 			page 76


 3669 0034 2C030000 		.4byte	.LFE60-.LFB60
 3670 0038 00000000 		.4byte	0
 3671 003c 00000000 		.4byte	0
 3672              		.section	.debug_ranges,"",%progbits
 3673              	.Ldebug_ranges0:
 3674 0000 00000000 		.4byte	.LFB56
 3675 0004 A4010000 		.4byte	.LFE56
 3676 0008 00000000 		.4byte	.LFB57
 3677 000c F0030000 		.4byte	.LFE57
 3678 0010 00000000 		.4byte	.LFB58
 3679 0014 B4010000 		.4byte	.LFE58
 3680 0018 00000000 		.4byte	.LFB59
 3681 001c 70030000 		.4byte	.LFE59
 3682 0020 00000000 		.4byte	.LFB60
 3683 0024 2C030000 		.4byte	.LFE60
 3684 0028 00000000 		.4byte	0
 3685 002c 00000000 		.4byte	0
 3686              		.section	.debug_line,"",%progbits
 3687              	.Ldebug_line0:
 3688 0000 4D040000 		.section	.debug_str,"MS",%progbits,1
 3688      02006001 
 3688      00000201 
 3688      FB0E0D00 
 3688      01010101 
 3689              	.LASF98:
 3690 0000 74656E74 		.ascii	"tenth\000"
 3690      6800
 3691              	.LASF123:
 3692 0006 64656369 		.ascii	"decimalVolume\000"
 3692      6D616C56 
 3692      6F6C756D 
 3692      6500
 3693              	.LASF130:
 3694 0014 74656D70 		.ascii	"temporalCom\000"
 3694      6F72616C 
 3694      436F6D00 
 3695              	.LASF53:
 3696 0020 6D657373 		.ascii	"message\000"
 3696      61676500 
 3697              	.LASF68:
 3698 0028 62756666 		.ascii	"buffer\000"
 3698      657200
 3699              	.LASF111:
 3700 002f 69704164 		.ascii	"ipAdress\000"
 3700      72657373 
 3700      00
 3701              	.LASF122:
 3702 0038 64656369 		.ascii	"decimalMoney\000"
 3702      6D616C4D 
 3702      6F6E6579 
 3702      00
 3703              	.LASF31:
 3704 0045 73616C65 		.ascii	"salePerform\000"
 3704      50657266 
 3704      6F726D00 
 3705              	.LASF8:
 3706 0051 756E7369 		.ascii	"unsigned int\000"
ARM GAS  C:\Users\Lenovo\AppData\Local\Temp\cc37sAV3.s 			page 77


 3706      676E6564 
 3706      20696E74 
 3706      00
 3707              	.LASF58:
 3708 005e 70726F64 		.ascii	"productMarket\000"
 3708      7563744D 
 3708      61726B65 
 3708      7400
 3709              	.LASF9:
 3710 006c 5F5F696E 		.ascii	"__int32_t\000"
 3710      7433325F 
 3710      7400
 3711              	.LASF51:
 3712 0076 666C6167 		.ascii	"flagLiftHandle\000"
 3712      4C696674 
 3712      48616E64 
 3712      6C6500
 3713              	.LASF128:
 3714 0085 72657369 		.ascii	"residue\000"
 3714      64756500 
 3715              	.LASF18:
 3716 008d 69645479 		.ascii	"idType\000"
 3716      706500
 3717              	.LASF140:
 3718 0094 73696465 		.ascii	"side\000"
 3718      00
 3719              	.LASF80:
 3720 0099 74656D70 		.ascii	"tempPpu\000"
 3720      50707500 
 3721              	.LASF142:
 3722 00a1 2E5C6F70 		.ascii	".\\operations.c\000"
 3722      65726174 
 3722      696F6E73 
 3722      2E6300
 3723              	.LASF23:
 3724 00b0 73656C65 		.ascii	"selectedSale\000"
 3724      63746564 
 3724      53616C65 
 3724      00
 3725              	.LASF94:
 3726 00bd 74656D70 		.ascii	"tempV2\000"
 3726      563200
 3727              	.LASF59:
 3728 00c4 7175616E 		.ascii	"quantityMarket\000"
 3728      74697479 
 3728      4D61726B 
 3728      657400
 3729              	.LASF115:
 3730 00d3 666C6167 		.ascii	"flagPoint2\000"
 3730      506F696E 
 3730      743200
 3731              	.LASF99:
 3732 00de 6D756C74 		.ascii	"multiplication_market\000"
 3732      69706C69 
 3732      63617469 
 3732      6F6E5F6D 
 3732      61726B65 
ARM GAS  C:\Users\Lenovo\AppData\Local\Temp\cc37sAV3.s 			page 78


 3733              	.LASF127:
 3734 00f4 73637265 		.ascii	"screen\000"
 3734      656E00
 3735              	.LASF55:
 3736 00fb 766F6C75 		.ascii	"volumeQuota\000"
 3736      6D655175 
 3736      6F746100 
 3737              	.LASF13:
 3738 0107 666C6F61 		.ascii	"float\000"
 3738      7400
 3739              	.LASF97:
 3740 010d 74656D70 		.ascii	"tempValue\000"
 3740      56616C75 
 3740      6500
 3741              	.LASF90:
 3742 0117 68696768 		.ascii	"higher\000"
 3742      657200
 3743              	.LASF143:
 3744 011e 433A5C55 		.ascii	"C:\\Users\\Lenovo\\Desktop\\Hardware\\Software Mux\\"
 3744      73657273 
 3744      5C4C656E 
 3744      6F766F5C 
 3744      4465736B 
 3745 014c 4D757820 		.ascii	"Mux Advance Encore\\MuxAdvance.cydsn\000"
 3745      41647661 
 3745      6E636520 
 3745      456E636F 
 3745      72655C4D 
 3746              	.LASF7:
 3747 0170 6C6F6E67 		.ascii	"long long unsigned int\000"
 3747      206C6F6E 
 3747      6720756E 
 3747      7369676E 
 3747      65642069 
 3748              	.LASF41:
 3749 0187 746F7461 		.ascii	"totalVolumePrevious\000"
 3749      6C566F6C 
 3749      756D6550 
 3749      72657669 
 3749      6F757300 
 3750              	.LASF110:
 3751 019b 64696769 		.ascii	"digits\000"
 3751      747300
 3752              	.LASF125:
 3753 01a2 74696D65 		.ascii	"time\000"
 3753      00
 3754              	.LASF34:
 3755 01a7 70726F64 		.ascii	"productType\000"
 3755      75637454 
 3755      79706500 
 3756              	.LASF117:
 3757 01b3 70726F64 		.ascii	"productNumber\000"
 3757      7563744E 
 3757      756D6265 
 3757      7200
 3758              	.LASF37:
 3759 01c1 64617465 		.ascii	"dateDownHandle\000"
ARM GAS  C:\Users\Lenovo\AppData\Local\Temp\cc37sAV3.s 			page 79


 3759      446F776E 
 3759      48616E64 
 3759      6C6500
 3760              	.LASF19:
 3761 01d0 69645365 		.ascii	"idSerial\000"
 3761      7269616C 
 3761      00
 3762              	.LASF138:
 3763 01d9 62756666 		.ascii	"bufferLCD1\000"
 3763      65724C43 
 3763      443100
 3764              	.LASF139:
 3765 01e4 62756666 		.ascii	"bufferLCD2\000"
 3765      65724C43 
 3765      443200
 3766              	.LASF47:
 3767 01ef 6D696C65 		.ascii	"mileageSale\000"
 3767      61676553 
 3767      616C6500 
 3768              	.LASF67:
 3769 01fb 666C6167 		.ascii	"flagChangePPU\000"
 3769      4368616E 
 3769      67655050 
 3769      5500
 3770              	.LASF116:
 3771 0209 62757474 		.ascii	"button\000"
 3771      6F6E00
 3772              	.LASF84:
 3773 0210 73757374 		.ascii	"sustraendo\000"
 3773      7261656E 
 3773      646F00
 3774              	.LASF57:
 3775 021b 73657269 		.ascii	"serialMarket\000"
 3775      616C4D61 
 3775      726B6574 
 3775      00
 3776              	.LASF70:
 3777 0228 746F7461 		.ascii	"totalsHandle\000"
 3777      6C734861 
 3777      6E646C65 
 3777      00
 3778              	.LASF33:
 3779 0235 70726573 		.ascii	"presetValue\000"
 3779      65745661 
 3779      6C756500 
 3780              	.LASF131:
 3781 0241 7475726E 		.ascii	"turn\000"
 3781      00
 3782              	.LASF48:
 3783 0246 6964656E 		.ascii	"identySale\000"
 3783      74795361 
 3783      6C6500
 3784              	.LASF108:
 3785 0251 666C6F77 		.ascii	"flowLCD1\000"
 3785      4C434431 
 3785      00
 3786              	.LASF109:
ARM GAS  C:\Users\Lenovo\AppData\Local\Temp\cc37sAV3.s 			page 80


 3787 025a 666C6F77 		.ascii	"flowLCD2\000"
 3787      4C434432 
 3787      00
 3788              	.LASF30:
 3789 0263 73616C65 		.ascii	"saleType\000"
 3789      54797065 
 3789      00
 3790              	.LASF28:
 3791 026c 76616C75 		.ascii	"valueKeys\000"
 3791      654B6579 
 3791      7300
 3792              	.LASF16:
 3793 0276 63686172 		.ascii	"char\000"
 3793      00
 3794              	.LASF112:
 3795 027b 6E756D62 		.ascii	"numberKeys1\000"
 3795      65724B65 
 3795      79733100 
 3796              	.LASF113:
 3797 0287 6E756D62 		.ascii	"numberKeys2\000"
 3797      65724B65 
 3797      79733200 
 3798              	.LASF95:
 3799 0293 74656D70 		.ascii	"tempValue1\000"
 3799      56616C75 
 3799      653100
 3800              	.LASF96:
 3801 029e 74656D70 		.ascii	"tempValue2\000"
 3801      56616C75 
 3801      653200
 3802              	.LASF102:
 3803 02a9 74656D70 		.ascii	"tempValue3\000"
 3803      56616C75 
 3803      653300
 3804              	.LASF85:
 3805 02b4 745F7265 		.ascii	"t_residue\000"
 3805      73696475 
 3805      6500
 3806              	.LASF126:
 3807 02be 64617465 		.ascii	"date\000"
 3807      00
 3808              	.LASF87:
 3809 02c3 745F7375 		.ascii	"t_sustraendo\000"
 3809      73747261 
 3809      656E646F 
 3809      00
 3810              	.LASF50:
 3811 02d0 666C6167 		.ascii	"flagPayment\000"
 3811      5061796D 
 3811      656E7400 
 3812              	.LASF100:
 3813 02dc 61646469 		.ascii	"addition_market\000"
 3813      74696F6E 
 3813      5F6D6172 
 3813      6B657400 
 3814              	.LASF20:
 3815 02ec 69645365 		.ascii	"idSerialCom\000"
ARM GAS  C:\Users\Lenovo\AppData\Local\Temp\cc37sAV3.s 			page 81


 3815      7269616C 
 3815      436F6D00 
 3816              	.LASF56:
 3817 02f8 70707551 		.ascii	"ppuQuota\000"
 3817      756F7461 
 3817      00
 3818              	.LASF43:
 3819 0301 746F7461 		.ascii	"totalMoneyAfter\000"
 3819      6C4D6F6E 
 3819      65794166 
 3819      74657200 
 3820              	.LASF54:
 3821 0311 6D6F6E65 		.ascii	"moneyQuota\000"
 3821      7951756F 
 3821      746100
 3822              	.LASF66:
 3823 031c 7072696E 		.ascii	"printers\000"
 3823      74657273 
 3823      00
 3824              	.LASF118:
 3825 0325 70726573 		.ascii	"presetFast\000"
 3825      65744661 
 3825      737400
 3826              	.LASF72:
 3827 0330 6D6F6E65 		.ascii	"moneySale\000"
 3827      7953616C 
 3827      6500
 3828              	.LASF6:
 3829 033a 6C6F6E67 		.ascii	"long long int\000"
 3829      206C6F6E 
 3829      6720696E 
 3829      7400
 3830              	.LASF74:
 3831 0348 70707553 		.ascii	"ppuSale\000"
 3831      616C6500 
 3832              	.LASF91:
 3833 0350 76616C75 		.ascii	"value1\000"
 3833      653100
 3834              	.LASF92:
 3835 0357 76616C75 		.ascii	"value2\000"
 3835      653200
 3836              	.LASF101:
 3837 035e 76616C75 		.ascii	"value3\000"
 3837      653300
 3838              	.LASF104:
 3839 0365 636F756E 		.ascii	"countAnimation1\000"
 3839      74416E69 
 3839      6D617469 
 3839      6F6E3100 
 3840              	.LASF137:
 3841 0375 73746174 		.ascii	"stateBeagleSoft\000"
 3841      65426561 
 3841      676C6553 
 3841      6F667400 
 3842              	.LASF42:
 3843 0385 746F7461 		.ascii	"totalPPUPrevious\000"
 3843      6C505055 
ARM GAS  C:\Users\Lenovo\AppData\Local\Temp\cc37sAV3.s 			page 82


 3843      50726576 
 3843      696F7573 
 3843      00
 3844              	.LASF105:
 3845 0396 636F756E 		.ascii	"countAnimation2\000"
 3845      74416E69 
 3845      6D617469 
 3845      6F6E3200 
 3846              	.LASF63:
 3847 03a6 746F7461 		.ascii	"totalMarket\000"
 3847      6C4D6172 
 3847      6B657400 
 3848              	.LASF141:
 3849 03b2 474E5520 		.ascii	"GNU C 4.9.3 20150303 (release) [ARM/embedded-4_9-br"
 3849      4320342E 
 3849      392E3320 
 3849      32303135 
 3849      30333033 
 3850 03e5 616E6368 		.ascii	"anch revision 221220] -mcpu=cortex-m3 -mthumb -g -O"
 3850      20726576 
 3850      6973696F 
 3850      6E203232 
 3850      31323230 
 3851 0418 30202D66 		.ascii	"0 -ffunction-sections -ffat-lto-objects\000"
 3851      66756E63 
 3851      74696F6E 
 3851      2D736563 
 3851      74696F6E 
 3852              	.LASF39:
 3853 0440 74696D65 		.ascii	"timeDownHandle\000"
 3853      446F776E 
 3853      48616E64 
 3853      6C6500
 3854              	.LASF86:
 3855 044f 745F6D69 		.ascii	"t_minuendo\000"
 3855      6E75656E 
 3855      646F00
 3856              	.LASF29:
 3857 045a 76656869 		.ascii	"vehicleType\000"
 3857      636C6554 
 3857      79706500 
 3858              	.LASF49:
 3859 0466 666C6167 		.ascii	"flagKeyboard\000"
 3859      4B657962 
 3859      6F617264 
 3859      00
 3860              	.LASF93:
 3861 0473 74656D70 		.ascii	"tempV1\000"
 3861      563100
 3862              	.LASF77:
 3863 047a 6C6F6E67 		.ascii	"long double\000"
 3863      20646F75 
 3863      626C6500 
 3864              	.LASF12:
 3865 0486 75696E74 		.ascii	"uint32\000"
 3865      333200
 3866              	.LASF136:
ARM GAS  C:\Users\Lenovo\AppData\Local\Temp\cc37sAV3.s 			page 83


 3867 048d 666C6167 		.ascii	"flagResetMux\000"
 3867      52657365 
 3867      744D7578 
 3867      00
 3868              	.LASF81:
 3869 049a 636F6D70 		.ascii	"compare_ppu\000"
 3869      6172655F 
 3869      70707500 
 3870              	.LASF45:
 3871 04a6 746F7461 		.ascii	"totalPPUAfter\000"
 3871      6C505055 
 3871      41667465 
 3871      7200
 3872              	.LASF82:
 3873 04b4 73756274 		.ascii	"subtraction\000"
 3873      72616374 
 3873      696F6E00 
 3874              	.LASF89:
 3875 04c0 6D617869 		.ascii	"maximumValue\000"
 3875      6D756D56 
 3875      616C7565 
 3875      00
 3876              	.LASF26:
 3877 04cd 6B657962 		.ascii	"keyboardWayToPay\000"
 3877      6F617264 
 3877      57617954 
 3877      6F506179 
 3877      00
 3878              	.LASF121:
 3879 04de 70707578 		.ascii	"ppux10\000"
 3879      313000
 3880              	.LASF40:
 3881 04e5 746F7461 		.ascii	"totalMoneyPrevious\000"
 3881      6C4D6F6E 
 3881      65795072 
 3881      6576696F 
 3881      757300
 3882              	.LASF114:
 3883 04f8 666C6167 		.ascii	"flagPoint1\000"
 3883      506F696E 
 3883      743100
 3884              	.LASF24:
 3885 0503 6D6F6E65 		.ascii	"moneySelectedSale\000"
 3885      7953656C 
 3885      65637465 
 3885      6453616C 
 3885      6500
 3886              	.LASF124:
 3887 0515 73796D62 		.ascii	"symbols\000"
 3887      6F6C7300 
 3888              	.LASF46:
 3889 051d 6C696365 		.ascii	"licenceSale\000"
 3889      6E636553 
 3889      616C6500 
 3890              	.LASF65:
 3891 0529 70726963 		.ascii	"priceConsign\000"
 3891      65436F6E 
ARM GAS  C:\Users\Lenovo\AppData\Local\Temp\cc37sAV3.s 			page 84


 3891      7369676E 
 3891      00
 3892              	.LASF2:
 3893 0536 73686F72 		.ascii	"short int\000"
 3893      7420696E 
 3893      7400
 3894              	.LASF4:
 3895 0540 6C6F6E67 		.ascii	"long int\000"
 3895      20696E74 
 3895      00
 3896              	.LASF103:
 3897 0549 49544D5F 		.ascii	"ITM_RxBuffer\000"
 3897      52784275 
 3897      66666572 
 3897      00
 3898              	.LASF132:
 3899 0556 6C6F636B 		.ascii	"lockTurn\000"
 3899      5475726E 
 3899      00
 3900              	.LASF52:
 3901 055f 666C6167 		.ascii	"flagEndSale\000"
 3901      456E6453 
 3901      616C6500 
 3902              	.LASF36:
 3903 056b 64617465 		.ascii	"dateLiftHandle\000"
 3903      4C696674 
 3903      48616E64 
 3903      6C6500
 3904              	.LASF135:
 3905 057a 70617373 		.ascii	"passwordSeller\000"
 3905      776F7264 
 3905      53656C6C 
 3905      657200
 3906              	.LASF44:
 3907 0589 746F7461 		.ascii	"totalVolumeAfter\000"
 3907      6C566F6C 
 3907      756D6541 
 3907      66746572 
 3907      00
 3908              	.LASF15:
 3909 059a 75696E74 		.ascii	"uint64\000"
 3909      363400
 3910              	.LASF119:
 3911 05a1 64656C61 		.ascii	"delayPicture1\000"
 3911      79506963 
 3911      74757265 
 3911      3100
 3912              	.LASF120:
 3913 05af 64656C61 		.ascii	"delayPicture2\000"
 3913      79506963 
 3913      74757265 
 3913      3200
 3914              	.LASF35:
 3915 05bd 73746174 		.ascii	"stateMux\000"
 3915      654D7578 
 3915      00
 3916              	.LASF17:
ARM GAS  C:\Users\Lenovo\AppData\Local\Temp\cc37sAV3.s 			page 85


 3917 05c6 73697A65 		.ascii	"sizetype\000"
 3917      74797065 
 3917      00
 3918              	.LASF5:
 3919 05cf 6C6F6E67 		.ascii	"long unsigned int\000"
 3919      20756E73 
 3919      69676E65 
 3919      6420696E 
 3919      7400
 3920              	.LASF78:
 3921 05e1 70707550 		.ascii	"ppuPump\000"
 3921      756D7000 
 3922              	.LASF134:
 3923 05e9 74797065 		.ascii	"typeIdSeller\000"
 3923      49645365 
 3923      6C6C6572 
 3923      00
 3924              	.LASF64:
 3925 05f6 666C6167 		.ascii	"flagProductmarket\000"
 3925      50726F64 
 3925      7563746D 
 3925      61726B65 
 3925      7400
 3926              	.LASF10:
 3927 0608 696E7433 		.ascii	"int32_t\000"
 3927      325F7400 
 3928              	.LASF60:
 3929 0610 7175616E 		.ascii	"quantAvailableMark\000"
 3929      74417661 
 3929      696C6162 
 3929      6C654D61 
 3929      726B00
 3930              	.LASF22:
 3931 0623 666C6167 		.ascii	"flagWayToPayMixed\000"
 3931      57617954 
 3931      6F506179 
 3931      4D697865 
 3931      6400
 3932              	.LASF1:
 3933 0635 756E7369 		.ascii	"unsigned char\000"
 3933      676E6564 
 3933      20636861 
 3933      7200
 3934              	.LASF27:
 3935 0643 61757468 		.ascii	"authorizationFlag\000"
 3935      6F72697A 
 3935      6174696F 
 3935      6E466C61 
 3935      6700
 3936              	.LASF61:
 3937 0655 70726963 		.ascii	"priceTotalMarket\000"
 3937      65546F74 
 3937      616C4D61 
 3937      726B6574 
 3937      00
 3938              	.LASF133:
 3939 0666 69645365 		.ascii	"idSeller\000"
ARM GAS  C:\Users\Lenovo\AppData\Local\Temp\cc37sAV3.s 			page 86


 3939      6C6C6572 
 3939      00
 3940              	.LASF76:
 3941 066f 70756D70 		.ascii	"pump\000"
 3941      00
 3942              	.LASF129:
 3943 0674 74656D70 		.ascii	"temporal\000"
 3943      6F72616C 
 3943      00
 3944              	.LASF32:
 3945 067d 70726573 		.ascii	"presetType\000"
 3945      65745479 
 3945      706500
 3946              	.LASF62:
 3947 0688 70726963 		.ascii	"priceUnitMarket\000"
 3947      65556E69 
 3947      744D6172 
 3947      6B657400 
 3948              	.LASF106:
 3949 0698 636F756E 		.ascii	"countBeagleTX\000"
 3949      74426561 
 3949      676C6554 
 3949      5800
 3950              	.LASF73:
 3951 06a6 766F6C75 		.ascii	"volumeSale\000"
 3951      6D655361 
 3951      6C6500
 3952              	.LASF0:
 3953 06b1 7369676E 		.ascii	"signed char\000"
 3953      65642063 
 3953      68617200 
 3954              	.LASF3:
 3955 06bd 73686F72 		.ascii	"short unsigned int\000"
 3955      7420756E 
 3955      7369676E 
 3955      65642069 
 3955      6E7400
 3956              	.LASF107:
 3957 06d0 636F756E 		.ascii	"countPump\000"
 3957      7450756D 
 3957      7000
 3958              	.LASF83:
 3959 06da 6D696E75 		.ascii	"minuendo\000"
 3959      656E646F 
 3959      00
 3960              	.LASF79:
 3961 06e3 68616E64 		.ascii	"handle\000"
 3961      6C6500
 3962              	.LASF88:
 3963 06ea 63617272 		.ascii	"carrier\000"
 3963      69657200 
 3964              	.LASF75:
 3965 06f2 70726F64 		.ascii	"productSale\000"
 3965      75637453 
 3965      616C6500 
 3966              	.LASF11:
 3967 06fe 75696E74 		.ascii	"uint8\000"
ARM GAS  C:\Users\Lenovo\AppData\Local\Temp\cc37sAV3.s 			page 87


 3967      3800
 3968              	.LASF14:
 3969 0704 646F7562 		.ascii	"double\000"
 3969      6C6500
 3970              	.LASF21:
 3971 070b 77617954 		.ascii	"wayToPay\000"
 3971      6F506179 
 3971      00
 3972              	.LASF38:
 3973 0714 74696D65 		.ascii	"timeLiftHandle\000"
 3973      4C696674 
 3973      48616E64 
 3973      6C6500
 3974              	.LASF71:
 3975 0723 70707541 		.ascii	"ppuAuthorized\000"
 3975      7574686F 
 3975      72697A65 
 3975      6400
 3976              	.LASF25:
 3977 0731 73657269 		.ascii	"serialSelectedSale\000"
 3977      616C5365 
 3977      6C656374 
 3977      65645361 
 3977      6C6500
 3978              	.LASF69:
 3979 0744 706F7369 		.ascii	"position\000"
 3979      74696F6E 
 3979      00
 3980              		.ident	"GCC: (GNU Tools for ARM Embedded Processors) 4.9.3 20150303 (release) [ARM/embedded-4_9-br
