ARM GAS  C:\Users\PROYEC~1\AppData\Local\Temp\ccczGU2D.s 			page 1


   1              		.syntax unified
   2              		.cpu cortex-m3
   3              		.fpu softvfp
   4              		.eabi_attribute 20, 1
   5              		.eabi_attribute 21, 1
   6              		.eabi_attribute 23, 3
   7              		.eabi_attribute 24, 1
   8              		.eabi_attribute 25, 1
   9              		.eabi_attribute 26, 1
  10              		.eabi_attribute 30, 6
  11              		.eabi_attribute 34, 1
  12              		.eabi_attribute 18, 4
  13              		.thumb
  14              		.file	"operations.c"
  15              		.text
  16              	.Ltext0:
  17              		.cfi_sections	.debug_frame
  18              		.comm	countAnimation1,8,8
  19              		.comm	countAnimation2,8,8
  20              		.comm	countBeagleTX,8,8
  21              		.comm	flowLCD1,4,4
  22              		.comm	flowLCD2,4,4
  23              		.comm	digits,1,1
  24              		.comm	ipAdress,12,4
  25              		.comm	numberKeys1,1,1
  26              		.comm	numberKeys2,1,1
  27              		.comm	flagPoint1,1,1
  28              		.comm	flagPoint2,1,1
  29              		.comm	button,960,4
  30              		.comm	productNumber,1,1
  31              		.comm	presetFast,30,4
  32              		.comm	delayPicture1,4,4
  33              		.comm	delayPicture2,4,4
  34              		.comm	ppux10,1,1
  35              		.comm	decimalMoney,1,1
  36              		.comm	decimalVolume,1,1
  37              		.comm	symbols,2,4
  38              		.comm	time,3,4
  39              		.comm	date,3,4
  40              		.comm	screen,2,4
  41              		.comm	residue,14,4
  42              		.comm	temporal,30,4
  43              		.comm	turn,1,1
  44              		.comm	idSeller,25,4
  45              		.comm	typeIdSeller,1,1
  46              		.comm	passwordSeller,8,4
  47              		.comm	flagResetMux,1,1
  48              		.comm	bufferLCD1,635,4
  49              		.comm	bufferLCD2,635,4
  50              		.comm	side,512,4
  51              		.section	.text.compare_ppu,"ax",%progbits
  52              		.align	2
  53              		.global	compare_ppu
  54              		.thumb
  55              		.thumb_func
  56              		.type	compare_ppu, %function
  57              	compare_ppu:
ARM GAS  C:\Users\PROYEC~1\AppData\Local\Temp\ccczGU2D.s 			page 2


  58              	.LFB56:
  59              		.file 1 ".\\operations.c"
   1:.\operations.c **** /*
   2:.\operations.c **** ***************************************************************************************************
   3:.\operations.c **** *                                         MUX ADVANCE CODE
   4:.\operations.c **** *
   5:.\operations.c **** *                             (c) Copyright 2016; Sistemas Insepet LTDA
   6:.\operations.c **** *
   7:.\operations.c **** *               All rights reserved.  Protected by international copyright laws.
   8:.\operations.c **** *               Knowledge of the source code may NOT be used to develop a similar product.
   9:.\operations.c **** *               Please help us continue to provide the Embedded community with the finest
  10:.\operations.c **** *               software available.  Your honesty is greatly appreciated.
  11:.\operations.c **** ***************************************************************************************************
  12:.\operations.c **** */
  13:.\operations.c **** 
  14:.\operations.c **** /*
  15:.\operations.c **** ***************************************************************************************************
  16:.\operations.c **** *
  17:.\operations.c **** *                                             MUX ADVANCE CODE
  18:.\operations.c **** *
  19:.\operations.c **** *                                             CYPRESS PSoC5LP
  20:.\operations.c **** *                                                with the
  21:.\operations.c **** *                                            CY8C5969AXI-LP035
  22:.\operations.c **** *
  23:.\operations.c **** * Filename      : operations.c
  24:.\operations.c **** * Version       : V1.00
  25:.\operations.c **** * Programmer(s) : 
  26:.\operations.c ****                   
  27:.\operations.c **** ***************************************************************************************************
  28:.\operations.c **** */
  29:.\operations.c **** 
  30:.\operations.c **** 
  31:.\operations.c **** /*
  32:.\operations.c **** ***************************************************************************************************
  33:.\operations.c **** *                                             INCLUDE FILES
  34:.\operations.c **** ***************************************************************************************************
  35:.\operations.c **** */
  36:.\operations.c **** #include <device.h>
  37:.\operations.c **** #include <variables.h>
  38:.\operations.c **** #include <math.h>
  39:.\operations.c **** //#include <stdio.h>
  40:.\operations.c **** /*
  41:.\operations.c **** ***************************************************************************************************
  42:.\operations.c **** *                       uint8 compare_ppu(uint8 *ppuPump,uint8 handle,uint8 dir)
  43:.\operations.c **** *
  44:.\operations.c **** * Description : 
  45:.\operations.c **** *               
  46:.\operations.c **** *
  47:.\operations.c **** * Argument(s) : none
  48:.\operations.c **** *
  49:.\operations.c **** * Return(s)   : none
  50:.\operations.c **** *
  51:.\operations.c **** * Caller(s)   : 
  52:.\operations.c **** *
  53:.\operations.c **** * Note(s)     : none.
  54:.\operations.c **** ***************************************************************************************************
  55:.\operations.c **** */
ARM GAS  C:\Users\PROYEC~1\AppData\Local\Temp\ccczGU2D.s 			page 3


  56:.\operations.c **** 
  57:.\operations.c **** uint8 compare_ppu(uint8 *ppuPump,uint8 handle,uint8 pos){
  60              		.loc 1 57 0
  61              		.cfi_startproc
  62              		@ args = 0, pretend = 0, frame = 24
  63              		@ frame_needed = 1, uses_anonymous_args = 0
  64              		@ link register save eliminated.
  65 0000 80B4     		push	{r7}
  66              		.cfi_def_cfa_offset 4
  67              		.cfi_offset 7, -4
  68 0002 87B0     		sub	sp, sp, #28
  69              		.cfi_def_cfa_offset 32
  70 0004 00AF     		add	r7, sp, #0
  71              		.cfi_def_cfa_register 7
  72 0006 7860     		str	r0, [r7, #4]
  73 0008 0B46     		mov	r3, r1
  74 000a FB70     		strb	r3, [r7, #3]
  75 000c 1346     		mov	r3, r2
  76 000e BB70     		strb	r3, [r7, #2]
  58:.\operations.c ****     uint8 x,y,tempPpu[7];
  59:.\operations.c ****     if(pos==side.a.dir){
  77              		.loc 1 59 0
  78 0010 624B     		ldr	r3, .L25
  79 0012 1B78     		ldrb	r3, [r3]	@ zero_extendqisi2
  80 0014 BA78     		ldrb	r2, [r7, #2]	@ zero_extendqisi2
  81 0016 9A42     		cmp	r2, r3
  82 0018 18D1     		bne	.L2
  60:.\operations.c ****         for(x=0;x<=6;x++){
  83              		.loc 1 60 0
  84 001a 0023     		movs	r3, #0
  85 001c FB75     		strb	r3, [r7, #23]
  86 001e 11E0     		b	.L3
  87              	.L4:
  61:.\operations.c ****             tempPpu[x]=side.a.ppuAuthorized[handle-1][x];
  88              		.loc 1 61 0 discriminator 3
  89 0020 FB7D     		ldrb	r3, [r7, #23]	@ zero_extendqisi2
  90 0022 FA78     		ldrb	r2, [r7, #3]	@ zero_extendqisi2
  91 0024 511E     		subs	r1, r2, #1
  92 0026 FA7D     		ldrb	r2, [r7, #23]	@ zero_extendqisi2
  93 0028 5C48     		ldr	r0, .L25
  94 002a C900     		lsls	r1, r1, #3
  95 002c 0144     		add	r1, r1, r0
  96 002e 0A44     		add	r2, r2, r1
  97 0030 B032     		adds	r2, r2, #176
  98 0032 5279     		ldrb	r2, [r2, #5]	@ zero_extendqisi2
  99 0034 07F11801 		add	r1, r7, #24
 100 0038 0B44     		add	r3, r3, r1
 101 003a 03F80C2C 		strb	r2, [r3, #-12]
  60:.\operations.c ****         for(x=0;x<=6;x++){
 102              		.loc 1 60 0 discriminator 3
 103 003e FB7D     		ldrb	r3, [r7, #23]	@ zero_extendqisi2
 104 0040 0133     		adds	r3, r3, #1
 105 0042 FB75     		strb	r3, [r7, #23]
 106              	.L3:
  60:.\operations.c ****         for(x=0;x<=6;x++){
 107              		.loc 1 60 0 is_stmt 0 discriminator 1
 108 0044 FB7D     		ldrb	r3, [r7, #23]	@ zero_extendqisi2
ARM GAS  C:\Users\PROYEC~1\AppData\Local\Temp\ccczGU2D.s 			page 4


 109 0046 062B     		cmp	r3, #6
 110 0048 EAD9     		bls	.L4
 111 004a 18E0     		b	.L5
 112              	.L2:
  62:.\operations.c ****         }
  63:.\operations.c ****     }else{
  64:.\operations.c ****         for(x=0;x<=6;x++){
 113              		.loc 1 64 0 is_stmt 1
 114 004c 0023     		movs	r3, #0
 115 004e FB75     		strb	r3, [r7, #23]
 116 0050 12E0     		b	.L6
 117              	.L7:
  65:.\operations.c ****             tempPpu[x]=side.b.ppuAuthorized[handle-1][x];
 118              		.loc 1 65 0 discriminator 3
 119 0052 FB7D     		ldrb	r3, [r7, #23]	@ zero_extendqisi2
 120 0054 FA78     		ldrb	r2, [r7, #3]	@ zero_extendqisi2
 121 0056 511E     		subs	r1, r2, #1
 122 0058 FA7D     		ldrb	r2, [r7, #23]	@ zero_extendqisi2
 123 005a 5048     		ldr	r0, .L25
 124 005c C900     		lsls	r1, r1, #3
 125 005e 0144     		add	r1, r1, r0
 126 0060 0A44     		add	r2, r2, r1
 127 0062 02F5D872 		add	r2, r2, #432
 128 0066 5279     		ldrb	r2, [r2, #5]	@ zero_extendqisi2
 129 0068 07F11801 		add	r1, r7, #24
 130 006c 0B44     		add	r3, r3, r1
 131 006e 03F80C2C 		strb	r2, [r3, #-12]
  64:.\operations.c ****             tempPpu[x]=side.b.ppuAuthorized[handle-1][x];
 132              		.loc 1 64 0 discriminator 3
 133 0072 FB7D     		ldrb	r3, [r7, #23]	@ zero_extendqisi2
 134 0074 0133     		adds	r3, r3, #1
 135 0076 FB75     		strb	r3, [r7, #23]
 136              	.L6:
  64:.\operations.c ****             tempPpu[x]=side.b.ppuAuthorized[handle-1][x];
 137              		.loc 1 64 0 is_stmt 0 discriminator 1
 138 0078 FB7D     		ldrb	r3, [r7, #23]	@ zero_extendqisi2
 139 007a 062B     		cmp	r3, #6
 140 007c E9D9     		bls	.L7
 141              	.L5:
  66:.\operations.c ****         }
  67:.\operations.c ****     }
  68:.\operations.c ****     for(x=1;x<=6;x++){
 142              		.loc 1 68 0 is_stmt 1
 143 007e 0123     		movs	r3, #1
 144 0080 FB75     		strb	r3, [r7, #23]
 145 0082 23E0     		b	.L8
 146              	.L13:
  69:.\operations.c ****         if(tempPpu[x]==','){
 147              		.loc 1 69 0
 148 0084 FB7D     		ldrb	r3, [r7, #23]	@ zero_extendqisi2
 149 0086 07F11802 		add	r2, r7, #24
 150 008a 1344     		add	r3, r3, r2
 151 008c 13F80C3C 		ldrb	r3, [r3, #-12]	@ zero_extendqisi2
 152 0090 2C2B     		cmp	r3, #44
 153 0092 18D1     		bne	.L9
  70:.\operations.c ****             for(y=x;y>=2;y--){
 154              		.loc 1 70 0
ARM GAS  C:\Users\PROYEC~1\AppData\Local\Temp\ccczGU2D.s 			page 5


 155 0094 FB7D     		ldrb	r3, [r7, #23]
 156 0096 BB75     		strb	r3, [r7, #22]
 157 0098 0FE0     		b	.L10
 158              	.L11:
  71:.\operations.c ****                 tempPpu[y]=tempPpu[y-1];
 159              		.loc 1 71 0 discriminator 3
 160 009a BB7D     		ldrb	r3, [r7, #22]	@ zero_extendqisi2
 161 009c BA7D     		ldrb	r2, [r7, #22]	@ zero_extendqisi2
 162 009e 013A     		subs	r2, r2, #1
 163 00a0 07F11801 		add	r1, r7, #24
 164 00a4 0A44     		add	r2, r2, r1
 165 00a6 12F80C2C 		ldrb	r2, [r2, #-12]	@ zero_extendqisi2
 166 00aa 07F11801 		add	r1, r7, #24
 167 00ae 0B44     		add	r3, r3, r1
 168 00b0 03F80C2C 		strb	r2, [r3, #-12]
  70:.\operations.c ****             for(y=x;y>=2;y--){
 169              		.loc 1 70 0 discriminator 3
 170 00b4 BB7D     		ldrb	r3, [r7, #22]	@ zero_extendqisi2
 171 00b6 013B     		subs	r3, r3, #1
 172 00b8 BB75     		strb	r3, [r7, #22]
 173              	.L10:
  70:.\operations.c ****             for(y=x;y>=2;y--){
 174              		.loc 1 70 0 is_stmt 0 discriminator 1
 175 00ba BB7D     		ldrb	r3, [r7, #22]	@ zero_extendqisi2
 176 00bc 012B     		cmp	r3, #1
 177 00be ECD8     		bhi	.L11
  72:.\operations.c ****             }
  73:.\operations.c ****             tempPpu[1]='0';
 178              		.loc 1 73 0 is_stmt 1
 179 00c0 3023     		movs	r3, #48
 180 00c2 7B73     		strb	r3, [r7, #13]
  74:.\operations.c ****             break;
 181              		.loc 1 74 0
 182 00c4 05E0     		b	.L12
 183              	.L9:
  68:.\operations.c ****         if(tempPpu[x]==','){
 184              		.loc 1 68 0 discriminator 2
 185 00c6 FB7D     		ldrb	r3, [r7, #23]	@ zero_extendqisi2
 186 00c8 0133     		adds	r3, r3, #1
 187 00ca FB75     		strb	r3, [r7, #23]
 188              	.L8:
  68:.\operations.c ****         if(tempPpu[x]==','){
 189              		.loc 1 68 0 is_stmt 0 discriminator 1
 190 00cc FB7D     		ldrb	r3, [r7, #23]	@ zero_extendqisi2
 191 00ce 062B     		cmp	r3, #6
 192 00d0 D8D9     		bls	.L13
 193              	.L12:
  75:.\operations.c ****         }
  76:.\operations.c ****     }
  77:.\operations.c ****     ppuPump[0]=ppuPump[0]&0x07;
 194              		.loc 1 77 0 is_stmt 1
 195 00d2 7B68     		ldr	r3, [r7, #4]
 196 00d4 1B78     		ldrb	r3, [r3]	@ zero_extendqisi2
 197 00d6 03F00703 		and	r3, r3, #7
 198 00da DAB2     		uxtb	r2, r3
 199 00dc 7B68     		ldr	r3, [r7, #4]
 200 00de 1A70     		strb	r2, [r3]
ARM GAS  C:\Users\PROYEC~1\AppData\Local\Temp\ccczGU2D.s 			page 6


  78:.\operations.c ****     if(ppuPump[0]!=6){
 201              		.loc 1 78 0
 202 00e0 7B68     		ldr	r3, [r7, #4]
 203 00e2 1B78     		ldrb	r3, [r3]	@ zero_extendqisi2
 204 00e4 062B     		cmp	r3, #6
 205 00e6 1CD0     		beq	.L14
  79:.\operations.c ****         for(x=6;x>=3;x--){
 206              		.loc 1 79 0
 207 00e8 0623     		movs	r3, #6
 208 00ea FB75     		strb	r3, [r7, #23]
 209 00ec 0BE0     		b	.L15
 210              	.L16:
  80:.\operations.c ****             ppuPump[x]=ppuPump[x-2];
 211              		.loc 1 80 0 discriminator 3
 212 00ee FB7D     		ldrb	r3, [r7, #23]	@ zero_extendqisi2
 213 00f0 7A68     		ldr	r2, [r7, #4]
 214 00f2 1344     		add	r3, r3, r2
 215 00f4 FA7D     		ldrb	r2, [r7, #23]	@ zero_extendqisi2
 216 00f6 023A     		subs	r2, r2, #2
 217 00f8 7968     		ldr	r1, [r7, #4]
 218 00fa 0A44     		add	r2, r2, r1
 219 00fc 1278     		ldrb	r2, [r2]	@ zero_extendqisi2
 220 00fe 1A70     		strb	r2, [r3]
  79:.\operations.c ****         for(x=6;x>=3;x--){
 221              		.loc 1 79 0 discriminator 3
 222 0100 FB7D     		ldrb	r3, [r7, #23]	@ zero_extendqisi2
 223 0102 013B     		subs	r3, r3, #1
 224 0104 FB75     		strb	r3, [r7, #23]
 225              	.L15:
  79:.\operations.c ****         for(x=6;x>=3;x--){
 226              		.loc 1 79 0 is_stmt 0 discriminator 1
 227 0106 FB7D     		ldrb	r3, [r7, #23]	@ zero_extendqisi2
 228 0108 022B     		cmp	r3, #2
 229 010a F0D8     		bhi	.L16
  81:.\operations.c ****         }
  82:.\operations.c ****         ppuPump[0]=6;
 230              		.loc 1 82 0 is_stmt 1
 231 010c 7B68     		ldr	r3, [r7, #4]
 232 010e 0622     		movs	r2, #6
 233 0110 1A70     		strb	r2, [r3]
  83:.\operations.c ****         ppuPump[1]='0';
 234              		.loc 1 83 0
 235 0112 7B68     		ldr	r3, [r7, #4]
 236 0114 0133     		adds	r3, r3, #1
 237 0116 3022     		movs	r2, #48
 238 0118 1A70     		strb	r2, [r3]
  84:.\operations.c ****         ppuPump[2]='0';
 239              		.loc 1 84 0
 240 011a 7B68     		ldr	r3, [r7, #4]
 241 011c 0233     		adds	r3, r3, #2
 242 011e 3022     		movs	r2, #48
 243 0120 1A70     		strb	r2, [r3]
 244              	.L14:
  85:.\operations.c ****     }
  86:.\operations.c ****     if(ppux10==1){
 245              		.loc 1 86 0
 246 0122 1F4B     		ldr	r3, .L25+4
ARM GAS  C:\Users\PROYEC~1\AppData\Local\Temp\ccczGU2D.s 			page 7


 247 0124 1B78     		ldrb	r3, [r3]
 248 0126 DBB2     		uxtb	r3, r3
 249 0128 012B     		cmp	r3, #1
 250 012a 18D1     		bne	.L17
  87:.\operations.c ****         for(x=1;x<ppuPump[0];x++){
 251              		.loc 1 87 0
 252 012c 0123     		movs	r3, #1
 253 012e FB75     		strb	r3, [r7, #23]
 254 0130 0BE0     		b	.L18
 255              	.L19:
  88:.\operations.c ****             ppuPump[x]=ppuPump[x+1];
 256              		.loc 1 88 0 discriminator 3
 257 0132 FB7D     		ldrb	r3, [r7, #23]	@ zero_extendqisi2
 258 0134 7A68     		ldr	r2, [r7, #4]
 259 0136 1344     		add	r3, r3, r2
 260 0138 FA7D     		ldrb	r2, [r7, #23]	@ zero_extendqisi2
 261 013a 0132     		adds	r2, r2, #1
 262 013c 7968     		ldr	r1, [r7, #4]
 263 013e 0A44     		add	r2, r2, r1
 264 0140 1278     		ldrb	r2, [r2]	@ zero_extendqisi2
 265 0142 1A70     		strb	r2, [r3]
  87:.\operations.c ****         for(x=1;x<ppuPump[0];x++){
 266              		.loc 1 87 0 discriminator 3
 267 0144 FB7D     		ldrb	r3, [r7, #23]	@ zero_extendqisi2
 268 0146 0133     		adds	r3, r3, #1
 269 0148 FB75     		strb	r3, [r7, #23]
 270              	.L18:
  87:.\operations.c ****         for(x=1;x<ppuPump[0];x++){
 271              		.loc 1 87 0 is_stmt 0 discriminator 1
 272 014a 7B68     		ldr	r3, [r7, #4]
 273 014c 1B78     		ldrb	r3, [r3]	@ zero_extendqisi2
 274 014e FA7D     		ldrb	r2, [r7, #23]	@ zero_extendqisi2
 275 0150 9A42     		cmp	r2, r3
 276 0152 EED3     		bcc	.L19
  89:.\operations.c ****         }
  90:.\operations.c ****         ppuPump[x]='0';
 277              		.loc 1 90 0 is_stmt 1
 278 0154 FB7D     		ldrb	r3, [r7, #23]	@ zero_extendqisi2
 279 0156 7A68     		ldr	r2, [r7, #4]
 280 0158 1344     		add	r3, r3, r2
 281 015a 3022     		movs	r2, #48
 282 015c 1A70     		strb	r2, [r3]
 283              	.L17:
  91:.\operations.c ****     }
  92:.\operations.c ****     for(x=1;x<=6;x++){
 284              		.loc 1 92 0
 285 015e 0123     		movs	r3, #1
 286 0160 FB75     		strb	r3, [r7, #23]
 287 0162 10E0     		b	.L20
 288              	.L23:
  93:.\operations.c ****         if(ppuPump[x]!=tempPpu[x]){
 289              		.loc 1 93 0
 290 0164 FB7D     		ldrb	r3, [r7, #23]	@ zero_extendqisi2
 291 0166 7A68     		ldr	r2, [r7, #4]
 292 0168 1344     		add	r3, r3, r2
 293 016a 1A78     		ldrb	r2, [r3]	@ zero_extendqisi2
 294 016c FB7D     		ldrb	r3, [r7, #23]	@ zero_extendqisi2
ARM GAS  C:\Users\PROYEC~1\AppData\Local\Temp\ccczGU2D.s 			page 8


 295 016e 07F11801 		add	r1, r7, #24
 296 0172 0B44     		add	r3, r3, r1
 297 0174 13F80C3C 		ldrb	r3, [r3, #-12]	@ zero_extendqisi2
 298 0178 9A42     		cmp	r2, r3
 299 017a 01D0     		beq	.L21
  94:.\operations.c ****             return 0;
 300              		.loc 1 94 0
 301 017c 0023     		movs	r3, #0
 302 017e 06E0     		b	.L24
 303              	.L21:
  92:.\operations.c ****         if(ppuPump[x]!=tempPpu[x]){
 304              		.loc 1 92 0 discriminator 2
 305 0180 FB7D     		ldrb	r3, [r7, #23]	@ zero_extendqisi2
 306 0182 0133     		adds	r3, r3, #1
 307 0184 FB75     		strb	r3, [r7, #23]
 308              	.L20:
  92:.\operations.c ****         if(ppuPump[x]!=tempPpu[x]){
 309              		.loc 1 92 0 is_stmt 0 discriminator 1
 310 0186 FB7D     		ldrb	r3, [r7, #23]	@ zero_extendqisi2
 311 0188 062B     		cmp	r3, #6
 312 018a EBD9     		bls	.L23
  95:.\operations.c ****         }
  96:.\operations.c ****     }
  97:.\operations.c ****     return 1;
 313              		.loc 1 97 0 is_stmt 1
 314 018c 0123     		movs	r3, #1
 315              	.L24:
  98:.\operations.c **** }
 316              		.loc 1 98 0 discriminator 1
 317 018e 1846     		mov	r0, r3
 318 0190 1C37     		adds	r7, r7, #28
 319              		.cfi_def_cfa_offset 4
 320 0192 BD46     		mov	sp, r7
 321              		.cfi_def_cfa_register 13
 322              		@ sp needed
 323 0194 5DF8047B 		ldr	r7, [sp], #4
 324              		.cfi_restore 7
 325              		.cfi_def_cfa_offset 0
 326 0198 7047     		bx	lr
 327              	.L26:
 328 019a 00BF     		.align	2
 329              	.L25:
 330 019c 00000000 		.word	side
 331 01a0 00000000 		.word	ppux10
 332              		.cfi_endproc
 333              	.LFE56:
 334              		.size	compare_ppu, .-compare_ppu
 335              		.section	.rodata
 336              		.align	2
 337              	.LC0:
 338 0000 09       		.byte	9
 339 0001 09       		.byte	9
 340 0002 09       		.byte	9
 341 0003 09       		.byte	9
 342 0004 09       		.byte	9
 343 0005 09       		.byte	9
 344 0006 09       		.byte	9
ARM GAS  C:\Users\PROYEC~1\AppData\Local\Temp\ccczGU2D.s 			page 9


 345 0007 09       		.byte	9
 346 0008 09       		.byte	9
 347 0009 09       		.byte	9
 348 000a 09       		.byte	9
 349 000b 09       		.byte	9
 350              		.section	.text.subtraction,"ax",%progbits
 351              		.align	2
 352              		.global	subtraction
 353              		.thumb
 354              		.thumb_func
 355              		.type	subtraction, %function
 356              	subtraction:
 357              	.LFB57:
  99:.\operations.c **** 
 100:.\operations.c **** 
 101:.\operations.c **** /*
 102:.\operations.c **** ***************************************************************************************************
 103:.\operations.c **** *                      uint8 subtraction(uint8 *minuendo,uint8 *sustraendo,uint8 decimal)
 104:.\operations.c **** *
 105:.\operations.c **** * Description : 
 106:.\operations.c **** *               
 107:.\operations.c **** *
 108:.\operations.c **** * Argument(s) : none
 109:.\operations.c **** *
 110:.\operations.c **** * Return(s)   : none
 111:.\operations.c **** *
 112:.\operations.c **** * Caller(s)   : 
 113:.\operations.c **** *
 114:.\operations.c **** * Note(s)     : none.
 115:.\operations.c **** ***************************************************************************************************
 116:.\operations.c **** */
 117:.\operations.c **** 
 118:.\operations.c **** uint8 subtraction(uint8 *minuendo,uint8 *sustraendo){
 358              		.loc 1 118 0
 359              		.cfi_startproc
 360              		@ args = 0, pretend = 0, frame = 72
 361              		@ frame_needed = 1, uses_anonymous_args = 0
 362              		@ link register save eliminated.
 363 0000 80B4     		push	{r7}
 364              		.cfi_def_cfa_offset 4
 365              		.cfi_offset 7, -4
 366 0002 93B0     		sub	sp, sp, #76
 367              		.cfi_def_cfa_offset 80
 368 0004 00AF     		add	r7, sp, #0
 369              		.cfi_def_cfa_register 7
 370 0006 7860     		str	r0, [r7, #4]
 371 0008 3960     		str	r1, [r7]
 119:.\operations.c ****     uint8 t_residue[14],t_minuendo[14],t_sustraendo[14],carrier,maximumValue[12]={9,9,9,9,9,9,9,9,9
 372              		.loc 1 119 0
 373 000a D74A     		ldr	r2, .L55
 374 000c 07F10803 		add	r3, r7, #8
 375 0010 1068     		ldr	r0, [r2]	@ unaligned
 376 0012 5168     		ldr	r1, [r2, #4]	@ unaligned
 377 0014 9268     		ldr	r2, [r2, #8]	@ unaligned
 378 0016 07C3     		stmia	r3!, {r0, r1, r2}
 120:.\operations.c ****     t_minuendo[0]=minuendo[0]&0x0f;
 379              		.loc 1 120 0
ARM GAS  C:\Users\PROYEC~1\AppData\Local\Temp\ccczGU2D.s 			page 10


 380 0018 7B68     		ldr	r3, [r7, #4]
 381 001a 1B78     		ldrb	r3, [r3]	@ zero_extendqisi2
 382 001c 03F00F03 		and	r3, r3, #15
 383 0020 DBB2     		uxtb	r3, r3
 384 0022 87F82430 		strb	r3, [r7, #36]
 121:.\operations.c ****     t_sustraendo[0]=sustraendo[0]&0x0f;
 385              		.loc 1 121 0
 386 0026 3B68     		ldr	r3, [r7]
 387 0028 1B78     		ldrb	r3, [r3]	@ zero_extendqisi2
 388 002a 03F00F03 		and	r3, r3, #15
 389 002e DBB2     		uxtb	r3, r3
 390 0030 3B75     		strb	r3, [r7, #20]
 122:.\operations.c ****     y=1;
 391              		.loc 1 122 0
 392 0032 0123     		movs	r3, #1
 393 0034 87F84530 		strb	r3, [r7, #69]
 123:.\operations.c ****     for(x=t_minuendo[0];x>0;x--){
 394              		.loc 1 123 0
 395 0038 97F82430 		ldrb	r3, [r7, #36]
 396 003c 87F84630 		strb	r3, [r7, #70]
 397 0040 18E0     		b	.L28
 398              	.L29:
 124:.\operations.c ****         t_minuendo[y]=minuendo[x]&0x0f;
 399              		.loc 1 124 0 discriminator 3
 400 0042 97F84530 		ldrb	r3, [r7, #69]	@ zero_extendqisi2
 401 0046 97F84620 		ldrb	r2, [r7, #70]	@ zero_extendqisi2
 402 004a 7968     		ldr	r1, [r7, #4]
 403 004c 0A44     		add	r2, r2, r1
 404 004e 1278     		ldrb	r2, [r2]	@ zero_extendqisi2
 405 0050 02F00F02 		and	r2, r2, #15
 406 0054 D2B2     		uxtb	r2, r2
 407 0056 07F14801 		add	r1, r7, #72
 408 005a 0B44     		add	r3, r3, r1
 409 005c 03F8242C 		strb	r2, [r3, #-36]
 125:.\operations.c ****         y++;
 410              		.loc 1 125 0 discriminator 3
 411 0060 97F84530 		ldrb	r3, [r7, #69]	@ zero_extendqisi2
 412 0064 0133     		adds	r3, r3, #1
 413 0066 87F84530 		strb	r3, [r7, #69]
 123:.\operations.c ****     for(x=t_minuendo[0];x>0;x--){
 414              		.loc 1 123 0 discriminator 3
 415 006a 97F84630 		ldrb	r3, [r7, #70]	@ zero_extendqisi2
 416 006e 013B     		subs	r3, r3, #1
 417 0070 87F84630 		strb	r3, [r7, #70]
 418              	.L28:
 123:.\operations.c ****     for(x=t_minuendo[0];x>0;x--){
 419              		.loc 1 123 0 is_stmt 0 discriminator 1
 420 0074 97F84630 		ldrb	r3, [r7, #70]	@ zero_extendqisi2
 421 0078 002B     		cmp	r3, #0
 422 007a E2D1     		bne	.L29
 126:.\operations.c ****     }
 127:.\operations.c ****     y=1;
 423              		.loc 1 127 0 is_stmt 1
 424 007c 0123     		movs	r3, #1
 425 007e 87F84530 		strb	r3, [r7, #69]
 128:.\operations.c ****     for(x=t_sustraendo[0];x>0;x--){
 426              		.loc 1 128 0
ARM GAS  C:\Users\PROYEC~1\AppData\Local\Temp\ccczGU2D.s 			page 11


 427 0082 3B7D     		ldrb	r3, [r7, #20]
 428 0084 87F84630 		strb	r3, [r7, #70]
 429 0088 18E0     		b	.L30
 430              	.L31:
 129:.\operations.c ****         t_sustraendo[y]=sustraendo[x]&0x0f;
 431              		.loc 1 129 0 discriminator 3
 432 008a 97F84530 		ldrb	r3, [r7, #69]	@ zero_extendqisi2
 433 008e 97F84620 		ldrb	r2, [r7, #70]	@ zero_extendqisi2
 434 0092 3968     		ldr	r1, [r7]
 435 0094 0A44     		add	r2, r2, r1
 436 0096 1278     		ldrb	r2, [r2]	@ zero_extendqisi2
 437 0098 02F00F02 		and	r2, r2, #15
 438 009c D2B2     		uxtb	r2, r2
 439 009e 07F14801 		add	r1, r7, #72
 440 00a2 0B44     		add	r3, r3, r1
 441 00a4 03F8342C 		strb	r2, [r3, #-52]
 130:.\operations.c ****         y++;
 442              		.loc 1 130 0 discriminator 3
 443 00a8 97F84530 		ldrb	r3, [r7, #69]	@ zero_extendqisi2
 444 00ac 0133     		adds	r3, r3, #1
 445 00ae 87F84530 		strb	r3, [r7, #69]
 128:.\operations.c ****     for(x=t_sustraendo[0];x>0;x--){
 446              		.loc 1 128 0 discriminator 3
 447 00b2 97F84630 		ldrb	r3, [r7, #70]	@ zero_extendqisi2
 448 00b6 013B     		subs	r3, r3, #1
 449 00b8 87F84630 		strb	r3, [r7, #70]
 450              	.L30:
 128:.\operations.c ****     for(x=t_sustraendo[0];x>0;x--){
 451              		.loc 1 128 0 is_stmt 0 discriminator 1
 452 00bc 97F84630 		ldrb	r3, [r7, #70]	@ zero_extendqisi2
 453 00c0 002B     		cmp	r3, #0
 454 00c2 E2D1     		bne	.L31
 131:.\operations.c ****     }
 132:.\operations.c **** 	carrier=0;
 455              		.loc 1 132 0 is_stmt 1
 456 00c4 0023     		movs	r3, #0
 457 00c6 87F84730 		strb	r3, [r7, #71]
 133:.\operations.c **** 	if(t_minuendo[t_minuendo[0]]<t_sustraendo[t_minuendo[0]]){
 458              		.loc 1 133 0
 459 00ca 97F82430 		ldrb	r3, [r7, #36]	@ zero_extendqisi2
 460 00ce 07F14802 		add	r2, r7, #72
 461 00d2 1344     		add	r3, r3, r2
 462 00d4 13F8242C 		ldrb	r2, [r3, #-36]	@ zero_extendqisi2
 463 00d8 97F82430 		ldrb	r3, [r7, #36]	@ zero_extendqisi2
 464 00dc 07F14801 		add	r1, r7, #72
 465 00e0 0B44     		add	r3, r3, r1
 466 00e2 13F8343C 		ldrb	r3, [r3, #-52]	@ zero_extendqisi2
 467 00e6 9A42     		cmp	r2, r3
 468 00e8 80F0C980 		bcs	.L32
 134:.\operations.c **** 		for(x=1;x<=t_minuendo[0];x++){
 469              		.loc 1 134 0
 470 00ec 0123     		movs	r3, #1
 471 00ee 87F84630 		strb	r3, [r7, #70]
 472 00f2 57E0     		b	.L33
 473              	.L36:
 135:.\operations.c **** 			if((maximumValue[x]-carrier)<t_sustraendo[x]){
 474              		.loc 1 135 0
ARM GAS  C:\Users\PROYEC~1\AppData\Local\Temp\ccczGU2D.s 			page 12


 475 00f4 97F84630 		ldrb	r3, [r7, #70]	@ zero_extendqisi2
 476 00f8 07F14802 		add	r2, r7, #72
 477 00fc 1344     		add	r3, r3, r2
 478 00fe 13F8403C 		ldrb	r3, [r3, #-64]	@ zero_extendqisi2
 479 0102 1A46     		mov	r2, r3
 480 0104 97F84730 		ldrb	r3, [r7, #71]	@ zero_extendqisi2
 481 0108 D31A     		subs	r3, r2, r3
 482 010a 97F84620 		ldrb	r2, [r7, #70]	@ zero_extendqisi2
 483 010e 07F14801 		add	r1, r7, #72
 484 0112 0A44     		add	r2, r2, r1
 485 0114 12F8342C 		ldrb	r2, [r2, #-52]	@ zero_extendqisi2
 486 0118 9342     		cmp	r3, r2
 487 011a 20DA     		bge	.L34
 136:.\operations.c **** 				t_residue[x]=((maximumValue[x]+10)-carrier)-t_sustraendo[x];
 488              		.loc 1 136 0
 489 011c 97F84630 		ldrb	r3, [r7, #70]	@ zero_extendqisi2
 490 0120 97F84620 		ldrb	r2, [r7, #70]	@ zero_extendqisi2
 491 0124 07F14801 		add	r1, r7, #72
 492 0128 0A44     		add	r2, r2, r1
 493 012a 12F8401C 		ldrb	r1, [r2, #-64]	@ zero_extendqisi2
 494 012e 97F84720 		ldrb	r2, [r7, #71]
 495 0132 8A1A     		subs	r2, r1, r2
 496 0134 D1B2     		uxtb	r1, r2
 497 0136 97F84620 		ldrb	r2, [r7, #70]	@ zero_extendqisi2
 498 013a 07F14800 		add	r0, r7, #72
 499 013e 0244     		add	r2, r2, r0
 500 0140 12F8342C 		ldrb	r2, [r2, #-52]	@ zero_extendqisi2
 501 0144 8A1A     		subs	r2, r1, r2
 502 0146 D2B2     		uxtb	r2, r2
 503 0148 0A32     		adds	r2, r2, #10
 504 014a D2B2     		uxtb	r2, r2
 505 014c 07F14801 		add	r1, r7, #72
 506 0150 0B44     		add	r3, r3, r1
 507 0152 03F8142C 		strb	r2, [r3, #-20]
 137:.\operations.c **** 				carrier=1;			
 508              		.loc 1 137 0
 509 0156 0123     		movs	r3, #1
 510 0158 87F84730 		strb	r3, [r7, #71]
 511 015c 1DE0     		b	.L35
 512              	.L34:
 138:.\operations.c **** 			}
 139:.\operations.c **** 			else{
 140:.\operations.c **** 				t_residue[x]=(maximumValue[x]-carrier)-t_sustraendo[x];
 513              		.loc 1 140 0
 514 015e 97F84630 		ldrb	r3, [r7, #70]	@ zero_extendqisi2
 515 0162 97F84620 		ldrb	r2, [r7, #70]	@ zero_extendqisi2
 516 0166 07F14801 		add	r1, r7, #72
 517 016a 0A44     		add	r2, r2, r1
 518 016c 12F8401C 		ldrb	r1, [r2, #-64]	@ zero_extendqisi2
 519 0170 97F84720 		ldrb	r2, [r7, #71]
 520 0174 8A1A     		subs	r2, r1, r2
 521 0176 D1B2     		uxtb	r1, r2
 522 0178 97F84620 		ldrb	r2, [r7, #70]	@ zero_extendqisi2
 523 017c 07F14800 		add	r0, r7, #72
 524 0180 0244     		add	r2, r2, r0
 525 0182 12F8342C 		ldrb	r2, [r2, #-52]	@ zero_extendqisi2
 526 0186 8A1A     		subs	r2, r1, r2
ARM GAS  C:\Users\PROYEC~1\AppData\Local\Temp\ccczGU2D.s 			page 13


 527 0188 D2B2     		uxtb	r2, r2
 528 018a 07F14801 		add	r1, r7, #72
 529 018e 0B44     		add	r3, r3, r1
 530 0190 03F8142C 		strb	r2, [r3, #-20]
 141:.\operations.c **** 				carrier=0;
 531              		.loc 1 141 0
 532 0194 0023     		movs	r3, #0
 533 0196 87F84730 		strb	r3, [r7, #71]
 534              	.L35:
 134:.\operations.c **** 			if((maximumValue[x]-carrier)<t_sustraendo[x]){
 535              		.loc 1 134 0 discriminator 2
 536 019a 97F84630 		ldrb	r3, [r7, #70]	@ zero_extendqisi2
 537 019e 0133     		adds	r3, r3, #1
 538 01a0 87F84630 		strb	r3, [r7, #70]
 539              	.L33:
 134:.\operations.c **** 			if((maximumValue[x]-carrier)<t_sustraendo[x]){
 540              		.loc 1 134 0 is_stmt 0 discriminator 1
 541 01a4 97F82430 		ldrb	r3, [r7, #36]	@ zero_extendqisi2
 542 01a8 97F84620 		ldrb	r2, [r7, #70]	@ zero_extendqisi2
 543 01ac 9A42     		cmp	r2, r3
 544 01ae A1D9     		bls	.L36
 142:.\operations.c **** 			}
 143:.\operations.c **** 		}
 144:.\operations.c **** 		t_residue[0]=t_minuendo[0];	
 545              		.loc 1 144 0 is_stmt 1
 546 01b0 97F82430 		ldrb	r3, [r7, #36]	@ zero_extendqisi2
 547 01b4 87F83430 		strb	r3, [r7, #52]
 145:.\operations.c **** 		for(x=1;x<=t_minuendo[0];x++){
 548              		.loc 1 145 0
 549 01b8 0123     		movs	r3, #1
 550 01ba 87F84630 		strb	r3, [r7, #70]
 551 01be 3FE0     		b	.L37
 552              	.L40:
 146:.\operations.c **** 			t_residue[x]=t_minuendo[x]+t_residue[x]+carrier;
 553              		.loc 1 146 0
 554 01c0 97F84630 		ldrb	r3, [r7, #70]	@ zero_extendqisi2
 555 01c4 97F84620 		ldrb	r2, [r7, #70]	@ zero_extendqisi2
 556 01c8 07F14801 		add	r1, r7, #72
 557 01cc 0A44     		add	r2, r2, r1
 558 01ce 12F8241C 		ldrb	r1, [r2, #-36]	@ zero_extendqisi2
 559 01d2 97F84620 		ldrb	r2, [r7, #70]	@ zero_extendqisi2
 560 01d6 07F14800 		add	r0, r7, #72
 561 01da 0244     		add	r2, r2, r0
 562 01dc 12F8142C 		ldrb	r2, [r2, #-20]	@ zero_extendqisi2
 563 01e0 0A44     		add	r2, r2, r1
 564 01e2 D1B2     		uxtb	r1, r2
 565 01e4 97F84720 		ldrb	r2, [r7, #71]
 566 01e8 0A44     		add	r2, r2, r1
 567 01ea D2B2     		uxtb	r2, r2
 568 01ec 07F14801 		add	r1, r7, #72
 569 01f0 0B44     		add	r3, r3, r1
 570 01f2 03F8142C 		strb	r2, [r3, #-20]
 147:.\operations.c **** 			if(t_residue[x]>9){
 571              		.loc 1 147 0
 572 01f6 97F84630 		ldrb	r3, [r7, #70]	@ zero_extendqisi2
 573 01fa 07F14802 		add	r2, r7, #72
 574 01fe 1344     		add	r3, r3, r2
ARM GAS  C:\Users\PROYEC~1\AppData\Local\Temp\ccczGU2D.s 			page 14


 575 0200 13F8143C 		ldrb	r3, [r3, #-20]	@ zero_extendqisi2
 576 0204 092B     		cmp	r3, #9
 577 0206 13D9     		bls	.L38
 148:.\operations.c **** 				t_residue[x]=t_residue[x]-10;
 578              		.loc 1 148 0
 579 0208 97F84630 		ldrb	r3, [r7, #70]	@ zero_extendqisi2
 580 020c 97F84620 		ldrb	r2, [r7, #70]	@ zero_extendqisi2
 581 0210 07F14801 		add	r1, r7, #72
 582 0214 0A44     		add	r2, r2, r1
 583 0216 12F8142C 		ldrb	r2, [r2, #-20]	@ zero_extendqisi2
 584 021a 0A3A     		subs	r2, r2, #10
 585 021c D2B2     		uxtb	r2, r2
 586 021e 07F14801 		add	r1, r7, #72
 587 0222 0B44     		add	r3, r3, r1
 588 0224 03F8142C 		strb	r2, [r3, #-20]
 149:.\operations.c **** 				carrier=1;
 589              		.loc 1 149 0
 590 0228 0123     		movs	r3, #1
 591 022a 87F84730 		strb	r3, [r7, #71]
 592 022e 02E0     		b	.L39
 593              	.L38:
 150:.\operations.c **** 			}
 151:.\operations.c **** 			else{
 152:.\operations.c **** 				carrier=0;
 594              		.loc 1 152 0
 595 0230 0023     		movs	r3, #0
 596 0232 87F84730 		strb	r3, [r7, #71]
 597              	.L39:
 145:.\operations.c **** 			t_residue[x]=t_minuendo[x]+t_residue[x]+carrier;
 598              		.loc 1 145 0 discriminator 2
 599 0236 97F84630 		ldrb	r3, [r7, #70]	@ zero_extendqisi2
 600 023a 0133     		adds	r3, r3, #1
 601 023c 87F84630 		strb	r3, [r7, #70]
 602              	.L37:
 145:.\operations.c **** 			t_residue[x]=t_minuendo[x]+t_residue[x]+carrier;
 603              		.loc 1 145 0 is_stmt 0 discriminator 1
 604 0240 97F82430 		ldrb	r3, [r7, #36]	@ zero_extendqisi2
 605 0244 97F84620 		ldrb	r2, [r7, #70]	@ zero_extendqisi2
 606 0248 9A42     		cmp	r2, r3
 607 024a B9D9     		bls	.L40
 153:.\operations.c **** 			}
 154:.\operations.c **** 		}
 155:.\operations.c **** 		if(carrier==1){
 608              		.loc 1 155 0 is_stmt 1
 609 024c 97F84730 		ldrb	r3, [r7, #71]	@ zero_extendqisi2
 610 0250 012B     		cmp	r3, #1
 611 0252 0FD1     		bne	.L41
 156:.\operations.c **** 			t_residue[x+1]=1;
 612              		.loc 1 156 0
 613 0254 97F84630 		ldrb	r3, [r7, #70]	@ zero_extendqisi2
 614 0258 0133     		adds	r3, r3, #1
 615 025a 07F14802 		add	r2, r7, #72
 616 025e 1344     		add	r3, r3, r2
 617 0260 0122     		movs	r2, #1
 618 0262 03F8142C 		strb	r2, [r3, #-20]
 157:.\operations.c **** 			t_residue[0]=t_minuendo[0]+1;
 619              		.loc 1 157 0
ARM GAS  C:\Users\PROYEC~1\AppData\Local\Temp\ccczGU2D.s 			page 15


 620 0266 97F82430 		ldrb	r3, [r7, #36]	@ zero_extendqisi2
 621 026a 0133     		adds	r3, r3, #1
 622 026c DBB2     		uxtb	r3, r3
 623 026e 87F83430 		strb	r3, [r7, #52]
 624 0272 6AE0     		b	.L43
 625              	.L41:
 158:.\operations.c **** 		}
 159:.\operations.c **** 		else{
 160:.\operations.c **** 			t_residue[0]=t_minuendo[0];
 626              		.loc 1 160 0
 627 0274 97F82430 		ldrb	r3, [r7, #36]	@ zero_extendqisi2
 628 0278 87F83430 		strb	r3, [r7, #52]
 629 027c 65E0     		b	.L43
 630              	.L32:
 161:.\operations.c **** 		}			
 162:.\operations.c **** 	}
 163:.\operations.c **** 	else{
 164:.\operations.c **** 		for(x=1;x<=t_minuendo[0];x++){
 631              		.loc 1 164 0
 632 027e 0123     		movs	r3, #1
 633 0280 87F84630 		strb	r3, [r7, #70]
 634 0284 57E0     		b	.L44
 635              	.L47:
 165:.\operations.c **** 			if((t_minuendo[x]-carrier)<t_sustraendo[x]){
 636              		.loc 1 165 0
 637 0286 97F84630 		ldrb	r3, [r7, #70]	@ zero_extendqisi2
 638 028a 07F14802 		add	r2, r7, #72
 639 028e 1344     		add	r3, r3, r2
 640 0290 13F8243C 		ldrb	r3, [r3, #-36]	@ zero_extendqisi2
 641 0294 1A46     		mov	r2, r3
 642 0296 97F84730 		ldrb	r3, [r7, #71]	@ zero_extendqisi2
 643 029a D31A     		subs	r3, r2, r3
 644 029c 97F84620 		ldrb	r2, [r7, #70]	@ zero_extendqisi2
 645 02a0 07F14801 		add	r1, r7, #72
 646 02a4 0A44     		add	r2, r2, r1
 647 02a6 12F8342C 		ldrb	r2, [r2, #-52]	@ zero_extendqisi2
 648 02aa 9342     		cmp	r3, r2
 649 02ac 20DA     		bge	.L45
 166:.\operations.c **** 				t_residue[x]=((t_minuendo[x]+10)-carrier)-t_sustraendo[x];
 650              		.loc 1 166 0
 651 02ae 97F84630 		ldrb	r3, [r7, #70]	@ zero_extendqisi2
 652 02b2 97F84620 		ldrb	r2, [r7, #70]	@ zero_extendqisi2
 653 02b6 07F14801 		add	r1, r7, #72
 654 02ba 0A44     		add	r2, r2, r1
 655 02bc 12F8241C 		ldrb	r1, [r2, #-36]	@ zero_extendqisi2
 656 02c0 97F84720 		ldrb	r2, [r7, #71]
 657 02c4 8A1A     		subs	r2, r1, r2
 658 02c6 D1B2     		uxtb	r1, r2
 659 02c8 97F84620 		ldrb	r2, [r7, #70]	@ zero_extendqisi2
 660 02cc 07F14800 		add	r0, r7, #72
 661 02d0 0244     		add	r2, r2, r0
 662 02d2 12F8342C 		ldrb	r2, [r2, #-52]	@ zero_extendqisi2
 663 02d6 8A1A     		subs	r2, r1, r2
 664 02d8 D2B2     		uxtb	r2, r2
 665 02da 0A32     		adds	r2, r2, #10
 666 02dc D2B2     		uxtb	r2, r2
 667 02de 07F14801 		add	r1, r7, #72
ARM GAS  C:\Users\PROYEC~1\AppData\Local\Temp\ccczGU2D.s 			page 16


 668 02e2 0B44     		add	r3, r3, r1
 669 02e4 03F8142C 		strb	r2, [r3, #-20]
 167:.\operations.c **** 				carrier=1;			
 670              		.loc 1 167 0
 671 02e8 0123     		movs	r3, #1
 672 02ea 87F84730 		strb	r3, [r7, #71]
 673 02ee 1DE0     		b	.L46
 674              	.L45:
 168:.\operations.c **** 			}
 169:.\operations.c **** 			else{
 170:.\operations.c **** 				t_residue[x]=(t_minuendo[x]-carrier)-t_sustraendo[x];
 675              		.loc 1 170 0
 676 02f0 97F84630 		ldrb	r3, [r7, #70]	@ zero_extendqisi2
 677 02f4 97F84620 		ldrb	r2, [r7, #70]	@ zero_extendqisi2
 678 02f8 07F14801 		add	r1, r7, #72
 679 02fc 0A44     		add	r2, r2, r1
 680 02fe 12F8241C 		ldrb	r1, [r2, #-36]	@ zero_extendqisi2
 681 0302 97F84720 		ldrb	r2, [r7, #71]
 682 0306 8A1A     		subs	r2, r1, r2
 683 0308 D1B2     		uxtb	r1, r2
 684 030a 97F84620 		ldrb	r2, [r7, #70]	@ zero_extendqisi2
 685 030e 07F14800 		add	r0, r7, #72
 686 0312 0244     		add	r2, r2, r0
 687 0314 12F8342C 		ldrb	r2, [r2, #-52]	@ zero_extendqisi2
 688 0318 8A1A     		subs	r2, r1, r2
 689 031a D2B2     		uxtb	r2, r2
 690 031c 07F14801 		add	r1, r7, #72
 691 0320 0B44     		add	r3, r3, r1
 692 0322 03F8142C 		strb	r2, [r3, #-20]
 171:.\operations.c **** 				carrier=0;
 693              		.loc 1 171 0
 694 0326 0023     		movs	r3, #0
 695 0328 87F84730 		strb	r3, [r7, #71]
 696              	.L46:
 164:.\operations.c **** 			if((t_minuendo[x]-carrier)<t_sustraendo[x]){
 697              		.loc 1 164 0 discriminator 2
 698 032c 97F84630 		ldrb	r3, [r7, #70]	@ zero_extendqisi2
 699 0330 0133     		adds	r3, r3, #1
 700 0332 87F84630 		strb	r3, [r7, #70]
 701              	.L44:
 164:.\operations.c **** 			if((t_minuendo[x]-carrier)<t_sustraendo[x]){
 702              		.loc 1 164 0 is_stmt 0 discriminator 1
 703 0336 97F82430 		ldrb	r3, [r7, #36]	@ zero_extendqisi2
 704 033a 97F84620 		ldrb	r2, [r7, #70]	@ zero_extendqisi2
 705 033e 9A42     		cmp	r2, r3
 706 0340 A1D9     		bls	.L47
 172:.\operations.c **** 			}
 173:.\operations.c **** 		}
 174:.\operations.c **** 		t_residue[0]=t_minuendo[0];
 707              		.loc 1 174 0 is_stmt 1
 708 0342 97F82430 		ldrb	r3, [r7, #36]	@ zero_extendqisi2
 709 0346 87F83430 		strb	r3, [r7, #52]
 710              	.L43:
 175:.\operations.c **** 	}
 176:.\operations.c ****     residue[0]=t_residue[0]&0x0f;
 711              		.loc 1 176 0
 712 034a 97F83430 		ldrb	r3, [r7, #52]	@ zero_extendqisi2
ARM GAS  C:\Users\PROYEC~1\AppData\Local\Temp\ccczGU2D.s 			page 17


 713 034e 03F00F03 		and	r3, r3, #15
 714 0352 DAB2     		uxtb	r2, r3
 715 0354 054B     		ldr	r3, .L55+4
 716 0356 1A70     		strb	r2, [r3]
 177:.\operations.c ****     y=1;
 717              		.loc 1 177 0
 718 0358 0123     		movs	r3, #1
 719 035a 87F84530 		strb	r3, [r7, #69]
 178:.\operations.c ****     for(x=residue[0];x>0;x--){
 720              		.loc 1 178 0
 721 035e 034B     		ldr	r3, .L55+4
 722 0360 1B78     		ldrb	r3, [r3]
 723 0362 87F84630 		strb	r3, [r7, #70]
 724 0366 1DE0     		b	.L48
 725              	.L56:
 726              		.align	2
 727              	.L55:
 728 0368 00000000 		.word	.LC0
 729 036c 00000000 		.word	residue
 730              	.L49:
 179:.\operations.c ****         residue[y]=(t_residue[x]&0x0f)+0x30;
 731              		.loc 1 179 0 discriminator 3
 732 0370 97F84530 		ldrb	r3, [r7, #69]	@ zero_extendqisi2
 733 0374 97F84620 		ldrb	r2, [r7, #70]	@ zero_extendqisi2
 734 0378 07F14801 		add	r1, r7, #72
 735 037c 0A44     		add	r2, r2, r1
 736 037e 12F8142C 		ldrb	r2, [r2, #-20]	@ zero_extendqisi2
 737 0382 02F00F02 		and	r2, r2, #15
 738 0386 D2B2     		uxtb	r2, r2
 739 0388 3032     		adds	r2, r2, #48
 740 038a D1B2     		uxtb	r1, r2
 741 038c 174A     		ldr	r2, .L57
 742 038e D154     		strb	r1, [r2, r3]
 180:.\operations.c ****         y++;
 743              		.loc 1 180 0 discriminator 3
 744 0390 97F84530 		ldrb	r3, [r7, #69]	@ zero_extendqisi2
 745 0394 0133     		adds	r3, r3, #1
 746 0396 87F84530 		strb	r3, [r7, #69]
 178:.\operations.c ****     for(x=residue[0];x>0;x--){
 747              		.loc 1 178 0 discriminator 3
 748 039a 97F84630 		ldrb	r3, [r7, #70]	@ zero_extendqisi2
 749 039e 013B     		subs	r3, r3, #1
 750 03a0 87F84630 		strb	r3, [r7, #70]
 751              	.L48:
 178:.\operations.c ****     for(x=residue[0];x>0;x--){
 752              		.loc 1 178 0 is_stmt 0 discriminator 1
 753 03a4 97F84630 		ldrb	r3, [r7, #70]	@ zero_extendqisi2
 754 03a8 002B     		cmp	r3, #0
 755 03aa E1D1     		bne	.L49
 181:.\operations.c ****     }
 182:.\operations.c ****     for(x=1;x<=residue[0];x++){
 756              		.loc 1 182 0 is_stmt 1
 757 03ac 0123     		movs	r3, #1
 758 03ae 87F84630 		strb	r3, [r7, #70]
 759 03b2 0DE0     		b	.L50
 760              	.L53:
 183:.\operations.c ****         if((residue[x])!='0'){
ARM GAS  C:\Users\PROYEC~1\AppData\Local\Temp\ccczGU2D.s 			page 18


 761              		.loc 1 183 0
 762 03b4 97F84630 		ldrb	r3, [r7, #70]	@ zero_extendqisi2
 763 03b8 0C4A     		ldr	r2, .L57
 764 03ba D35C     		ldrb	r3, [r2, r3]
 765 03bc DBB2     		uxtb	r3, r3
 766 03be 302B     		cmp	r3, #48
 767 03c0 01D0     		beq	.L51
 184:.\operations.c ****             return 0;
 768              		.loc 1 184 0
 769 03c2 0023     		movs	r3, #0
 770 03c4 0CE0     		b	.L54
 771              	.L51:
 182:.\operations.c ****         if((residue[x])!='0'){
 772              		.loc 1 182 0 discriminator 2
 773 03c6 97F84630 		ldrb	r3, [r7, #70]	@ zero_extendqisi2
 774 03ca 0133     		adds	r3, r3, #1
 775 03cc 87F84630 		strb	r3, [r7, #70]
 776              	.L50:
 182:.\operations.c ****         if((residue[x])!='0'){
 777              		.loc 1 182 0 is_stmt 0 discriminator 1
 778 03d0 064B     		ldr	r3, .L57
 779 03d2 1B78     		ldrb	r3, [r3]
 780 03d4 DBB2     		uxtb	r3, r3
 781 03d6 97F84620 		ldrb	r2, [r7, #70]	@ zero_extendqisi2
 782 03da 9A42     		cmp	r2, r3
 783 03dc EAD9     		bls	.L53
 185:.\operations.c ****         }
 186:.\operations.c ****     }
 187:.\operations.c ****     return 1;
 784              		.loc 1 187 0 is_stmt 1
 785 03de 0123     		movs	r3, #1
 786              	.L54:
 188:.\operations.c **** }
 787              		.loc 1 188 0 discriminator 1
 788 03e0 1846     		mov	r0, r3
 789 03e2 4C37     		adds	r7, r7, #76
 790              		.cfi_def_cfa_offset 4
 791 03e4 BD46     		mov	sp, r7
 792              		.cfi_def_cfa_register 13
 793              		@ sp needed
 794 03e6 5DF8047B 		ldr	r7, [sp], #4
 795              		.cfi_restore 7
 796              		.cfi_def_cfa_offset 0
 797 03ea 7047     		bx	lr
 798              	.L58:
 799              		.align	2
 800              	.L57:
 801 03ec 00000000 		.word	residue
 802              		.cfi_endproc
 803              	.LFE57:
 804              		.size	subtraction, .-subtraction
 805              		.global	__aeabi_i2d
 806              		.global	__aeabi_dmul
 807              		.global	__aeabi_dadd
 808              		.global	__aeabi_ddiv
 809              		.global	__aeabi_dcmpgt
 810              		.global	__aeabi_dcmplt
ARM GAS  C:\Users\PROYEC~1\AppData\Local\Temp\ccczGU2D.s 			page 19


 811              		.section	.text.higher,"ax",%progbits
 812              		.align	2
 813              		.global	higher
 814              		.thumb
 815              		.thumb_func
 816              		.type	higher, %function
 817              	higher:
 818              	.LFB58:
 189:.\operations.c **** 
 190:.\operations.c **** /*
 191:.\operations.c **** ***************************************************************************************************
 192:.\operations.c **** *                                    uint8 higher(uint8 *value1,uint8 *value2)
 193:.\operations.c **** *
 194:.\operations.c **** * Description : 
 195:.\operations.c **** *               
 196:.\operations.c **** *
 197:.\operations.c **** * Argument(s) : none
 198:.\operations.c **** *
 199:.\operations.c **** * Return(s)   : none
 200:.\operations.c **** *
 201:.\operations.c **** * Caller(s)   : 
 202:.\operations.c **** *
 203:.\operations.c **** * Note(s)     : none.
 204:.\operations.c **** ***************************************************************************************************
 205:.\operations.c **** */
 206:.\operations.c **** 
 207:.\operations.c **** uint8 higher(uint8 *value1,uint8 *value2){
 819              		.loc 1 207 0
 820              		.cfi_startproc
 821              		@ args = 0, pretend = 0, frame = 32
 822              		@ frame_needed = 1, uses_anonymous_args = 0
 823 0000 B0B5     		push	{r4, r5, r7, lr}
 824              		.cfi_def_cfa_offset 16
 825              		.cfi_offset 4, -16
 826              		.cfi_offset 5, -12
 827              		.cfi_offset 7, -8
 828              		.cfi_offset 14, -4
 829 0002 88B0     		sub	sp, sp, #32
 830              		.cfi_def_cfa_offset 48
 831 0004 00AF     		add	r7, sp, #0
 832              		.cfi_def_cfa_register 7
 833 0006 7860     		str	r0, [r7, #4]
 834 0008 3960     		str	r1, [r7]
 208:.\operations.c ****     double tempV1=0,tempV2=0;
 835              		.loc 1 208 0
 836 000a 4FF00002 		mov	r2, #0
 837 000e 4FF00003 		mov	r3, #0
 838 0012 C7E90623 		strd	r2, [r7, #24]
 839 0016 4FF00002 		mov	r2, #0
 840 001a 4FF00003 		mov	r3, #0
 841 001e C7E90423 		strd	r2, [r7, #16]
 209:.\operations.c ****     uint8 x,y;
 210:.\operations.c ****     y=value1[0];
 842              		.loc 1 210 0
 843 0022 7B68     		ldr	r3, [r7, #4]
 844 0024 1B78     		ldrb	r3, [r3]
 845 0026 BB73     		strb	r3, [r7, #14]
ARM GAS  C:\Users\PROYEC~1\AppData\Local\Temp\ccczGU2D.s 			page 20


 211:.\operations.c ****     for(x=value1[0];x>0;x--){
 846              		.loc 1 211 0
 847 0028 7B68     		ldr	r3, [r7, #4]
 848 002a 1B78     		ldrb	r3, [r3]
 849 002c FB73     		strb	r3, [r7, #15]
 850 002e 4BE0     		b	.L60
 851              	.L63:
 212:.\operations.c ****         if(value1[x]!=','){
 852              		.loc 1 212 0
 853 0030 FB7B     		ldrb	r3, [r7, #15]	@ zero_extendqisi2
 854 0032 7A68     		ldr	r2, [r7, #4]
 855 0034 1344     		add	r3, r3, r2
 856 0036 1B78     		ldrb	r3, [r3]	@ zero_extendqisi2
 857 0038 2C2B     		cmp	r3, #44
 858 003a 28D0     		beq	.L61
 213:.\operations.c ****             tempV1+=((double)(value1[x]&0x0f)*pow(10,(y-x)));
 859              		.loc 1 213 0
 860 003c FB7B     		ldrb	r3, [r7, #15]	@ zero_extendqisi2
 861 003e 7A68     		ldr	r2, [r7, #4]
 862 0040 1344     		add	r3, r3, r2
 863 0042 1B78     		ldrb	r3, [r3]	@ zero_extendqisi2
 864 0044 03F00F03 		and	r3, r3, #15
 865 0048 1846     		mov	r0, r3
 866 004a FFF7FEFF 		bl	__aeabi_i2d
 867 004e 0446     		mov	r4, r0
 868 0050 0D46     		mov	r5, r1
 869 0052 BA7B     		ldrb	r2, [r7, #14]	@ zero_extendqisi2
 870 0054 FB7B     		ldrb	r3, [r7, #15]	@ zero_extendqisi2
 871 0056 D31A     		subs	r3, r2, r3
 872 0058 1846     		mov	r0, r3
 873 005a FFF7FEFF 		bl	__aeabi_i2d
 874 005e 0246     		mov	r2, r0
 875 0060 0B46     		mov	r3, r1
 876 0062 4FF00000 		mov	r0, #0
 877 0066 5249     		ldr	r1, .L77
 878 0068 FFF7FEFF 		bl	pow
 879 006c 0246     		mov	r2, r0
 880 006e 0B46     		mov	r3, r1
 881 0070 2046     		mov	r0, r4
 882 0072 2946     		mov	r1, r5
 883 0074 FFF7FEFF 		bl	__aeabi_dmul
 884 0078 0246     		mov	r2, r0
 885 007a 0B46     		mov	r3, r1
 886 007c D7E90601 		ldrd	r0, [r7, #24]
 887 0080 FFF7FEFF 		bl	__aeabi_dadd
 888 0084 0246     		mov	r2, r0
 889 0086 0B46     		mov	r3, r1
 890 0088 C7E90623 		strd	r2, [r7, #24]
 891 008c 19E0     		b	.L62
 892              	.L61:
 214:.\operations.c ****         }else{
 215:.\operations.c ****             tempV1/=pow(10,(y-x));
 893              		.loc 1 215 0
 894 008e BA7B     		ldrb	r2, [r7, #14]	@ zero_extendqisi2
 895 0090 FB7B     		ldrb	r3, [r7, #15]	@ zero_extendqisi2
 896 0092 D31A     		subs	r3, r2, r3
 897 0094 1846     		mov	r0, r3
ARM GAS  C:\Users\PROYEC~1\AppData\Local\Temp\ccczGU2D.s 			page 21


 898 0096 FFF7FEFF 		bl	__aeabi_i2d
 899 009a 0246     		mov	r2, r0
 900 009c 0B46     		mov	r3, r1
 901 009e 4FF00000 		mov	r0, #0
 902 00a2 4349     		ldr	r1, .L77
 903 00a4 FFF7FEFF 		bl	pow
 904 00a8 0246     		mov	r2, r0
 905 00aa 0B46     		mov	r3, r1
 906 00ac D7E90601 		ldrd	r0, [r7, #24]
 907 00b0 FFF7FEFF 		bl	__aeabi_ddiv
 908 00b4 0246     		mov	r2, r0
 909 00b6 0B46     		mov	r3, r1
 910 00b8 C7E90623 		strd	r2, [r7, #24]
 216:.\operations.c ****             y=x-1;
 911              		.loc 1 216 0
 912 00bc FB7B     		ldrb	r3, [r7, #15]
 913 00be 013B     		subs	r3, r3, #1
 914 00c0 BB73     		strb	r3, [r7, #14]
 915              	.L62:
 211:.\operations.c ****         if(value1[x]!=','){
 916              		.loc 1 211 0 discriminator 2
 917 00c2 FB7B     		ldrb	r3, [r7, #15]	@ zero_extendqisi2
 918 00c4 013B     		subs	r3, r3, #1
 919 00c6 FB73     		strb	r3, [r7, #15]
 920              	.L60:
 211:.\operations.c ****         if(value1[x]!=','){
 921              		.loc 1 211 0 is_stmt 0 discriminator 1
 922 00c8 FB7B     		ldrb	r3, [r7, #15]	@ zero_extendqisi2
 923 00ca 002B     		cmp	r3, #0
 924 00cc B0D1     		bne	.L63
 217:.\operations.c ****         }
 218:.\operations.c ****     }
 219:.\operations.c ****     y=value2[0];
 925              		.loc 1 219 0 is_stmt 1
 926 00ce 3B68     		ldr	r3, [r7]
 927 00d0 1B78     		ldrb	r3, [r3]
 928 00d2 BB73     		strb	r3, [r7, #14]
 220:.\operations.c ****     for(x=value2[0];x>0;x--){
 929              		.loc 1 220 0
 930 00d4 3B68     		ldr	r3, [r7]
 931 00d6 1B78     		ldrb	r3, [r3]
 932 00d8 FB73     		strb	r3, [r7, #15]
 933 00da 4BE0     		b	.L64
 934              	.L67:
 221:.\operations.c ****         if(value2[x]!=','){
 935              		.loc 1 221 0
 936 00dc FB7B     		ldrb	r3, [r7, #15]	@ zero_extendqisi2
 937 00de 3A68     		ldr	r2, [r7]
 938 00e0 1344     		add	r3, r3, r2
 939 00e2 1B78     		ldrb	r3, [r3]	@ zero_extendqisi2
 940 00e4 2C2B     		cmp	r3, #44
 941 00e6 28D0     		beq	.L65
 222:.\operations.c ****             tempV2+=((double)(value2[x]&0x0f)*pow(10,(y-x)));
 942              		.loc 1 222 0
 943 00e8 FB7B     		ldrb	r3, [r7, #15]	@ zero_extendqisi2
 944 00ea 3A68     		ldr	r2, [r7]
 945 00ec 1344     		add	r3, r3, r2
ARM GAS  C:\Users\PROYEC~1\AppData\Local\Temp\ccczGU2D.s 			page 22


 946 00ee 1B78     		ldrb	r3, [r3]	@ zero_extendqisi2
 947 00f0 03F00F03 		and	r3, r3, #15
 948 00f4 1846     		mov	r0, r3
 949 00f6 FFF7FEFF 		bl	__aeabi_i2d
 950 00fa 0446     		mov	r4, r0
 951 00fc 0D46     		mov	r5, r1
 952 00fe BA7B     		ldrb	r2, [r7, #14]	@ zero_extendqisi2
 953 0100 FB7B     		ldrb	r3, [r7, #15]	@ zero_extendqisi2
 954 0102 D31A     		subs	r3, r2, r3
 955 0104 1846     		mov	r0, r3
 956 0106 FFF7FEFF 		bl	__aeabi_i2d
 957 010a 0246     		mov	r2, r0
 958 010c 0B46     		mov	r3, r1
 959 010e 4FF00000 		mov	r0, #0
 960 0112 2749     		ldr	r1, .L77
 961 0114 FFF7FEFF 		bl	pow
 962 0118 0246     		mov	r2, r0
 963 011a 0B46     		mov	r3, r1
 964 011c 2046     		mov	r0, r4
 965 011e 2946     		mov	r1, r5
 966 0120 FFF7FEFF 		bl	__aeabi_dmul
 967 0124 0246     		mov	r2, r0
 968 0126 0B46     		mov	r3, r1
 969 0128 D7E90401 		ldrd	r0, [r7, #16]
 970 012c FFF7FEFF 		bl	__aeabi_dadd
 971 0130 0246     		mov	r2, r0
 972 0132 0B46     		mov	r3, r1
 973 0134 C7E90423 		strd	r2, [r7, #16]
 974 0138 19E0     		b	.L66
 975              	.L65:
 223:.\operations.c ****         }else{
 224:.\operations.c ****             tempV2/=pow(10,(y-x));
 976              		.loc 1 224 0
 977 013a BA7B     		ldrb	r2, [r7, #14]	@ zero_extendqisi2
 978 013c FB7B     		ldrb	r3, [r7, #15]	@ zero_extendqisi2
 979 013e D31A     		subs	r3, r2, r3
 980 0140 1846     		mov	r0, r3
 981 0142 FFF7FEFF 		bl	__aeabi_i2d
 982 0146 0246     		mov	r2, r0
 983 0148 0B46     		mov	r3, r1
 984 014a 4FF00000 		mov	r0, #0
 985 014e 1849     		ldr	r1, .L77
 986 0150 FFF7FEFF 		bl	pow
 987 0154 0246     		mov	r2, r0
 988 0156 0B46     		mov	r3, r1
 989 0158 D7E90401 		ldrd	r0, [r7, #16]
 990 015c FFF7FEFF 		bl	__aeabi_ddiv
 991 0160 0246     		mov	r2, r0
 992 0162 0B46     		mov	r3, r1
 993 0164 C7E90423 		strd	r2, [r7, #16]
 225:.\operations.c ****             y=x-1;
 994              		.loc 1 225 0
 995 0168 FB7B     		ldrb	r3, [r7, #15]
 996 016a 013B     		subs	r3, r3, #1
 997 016c BB73     		strb	r3, [r7, #14]
 998              	.L66:
 220:.\operations.c ****         if(value2[x]!=','){
ARM GAS  C:\Users\PROYEC~1\AppData\Local\Temp\ccczGU2D.s 			page 23


 999              		.loc 1 220 0 discriminator 2
 1000 016e FB7B     		ldrb	r3, [r7, #15]	@ zero_extendqisi2
 1001 0170 013B     		subs	r3, r3, #1
 1002 0172 FB73     		strb	r3, [r7, #15]
 1003              	.L64:
 220:.\operations.c ****         if(value2[x]!=','){
 1004              		.loc 1 220 0 is_stmt 0 discriminator 1
 1005 0174 FB7B     		ldrb	r3, [r7, #15]	@ zero_extendqisi2
 1006 0176 002B     		cmp	r3, #0
 1007 0178 B0D1     		bne	.L67
 226:.\operations.c ****         }
 227:.\operations.c ****     }
 228:.\operations.c ****     if(tempV1>tempV2){
 1008              		.loc 1 228 0 is_stmt 1
 1009 017a D7E90601 		ldrd	r0, [r7, #24]
 1010 017e D7E90423 		ldrd	r2, [r7, #16]
 1011 0182 FFF7FEFF 		bl	__aeabi_dcmpgt
 1012 0186 0346     		mov	r3, r0
 1013 0188 002B     		cmp	r3, #0
 1014 018a 01D0     		beq	.L75
 229:.\operations.c ****         return 1;
 1015              		.loc 1 229 0
 1016 018c 0123     		movs	r3, #1
 1017 018e 0BE0     		b	.L70
 1018              	.L75:
 230:.\operations.c ****     }else if(tempV1<tempV2){
 1019              		.loc 1 230 0
 1020 0190 D7E90601 		ldrd	r0, [r7, #24]
 1021 0194 D7E90423 		ldrd	r2, [r7, #16]
 1022 0198 FFF7FEFF 		bl	__aeabi_dcmplt
 1023 019c 0346     		mov	r3, r0
 1024 019e 002B     		cmp	r3, #0
 1025 01a0 01D0     		beq	.L76
 231:.\operations.c ****         return 2;
 1026              		.loc 1 231 0
 1027 01a2 0223     		movs	r3, #2
 1028 01a4 00E0     		b	.L70
 1029              	.L76:
 232:.\operations.c ****     }else{
 233:.\operations.c ****         return 0;
 1030              		.loc 1 233 0
 1031 01a6 0023     		movs	r3, #0
 1032              	.L70:
 234:.\operations.c ****     }
 235:.\operations.c **** }
 1033              		.loc 1 235 0
 1034 01a8 1846     		mov	r0, r3
 1035 01aa 2037     		adds	r7, r7, #32
 1036              		.cfi_def_cfa_offset 16
 1037 01ac BD46     		mov	sp, r7
 1038              		.cfi_def_cfa_register 13
 1039              		@ sp needed
 1040 01ae B0BD     		pop	{r4, r5, r7, pc}
 1041              	.L78:
 1042              		.align	2
 1043              	.L77:
 1044 01b0 00002440 		.word	1076101120
ARM GAS  C:\Users\PROYEC~1\AppData\Local\Temp\ccczGU2D.s 			page 24


 1045              		.cfi_endproc
 1046              	.LFE58:
 1047              		.size	higher, .-higher
 1048              		.section	.text.multiplication_market,"ax",%progbits
 1049              		.align	2
 1050              		.global	multiplication_market
 1051              		.thumb
 1052              		.thumb_func
 1053              		.type	multiplication_market, %function
 1054              	multiplication_market:
 1055              	.LFB59:
 236:.\operations.c **** 
 237:.\operations.c **** /*
 238:.\operations.c **** ***************************************************************************************************
 239:.\operations.c **** *                         void multiplication_market(uint8 *value1,uint8 *value2)
 240:.\operations.c **** *
 241:.\operations.c **** * Description : 
 242:.\operations.c **** *               
 243:.\operations.c **** *
 244:.\operations.c **** * Argument(s) : none
 245:.\operations.c **** *
 246:.\operations.c **** * Return(s)   : none
 247:.\operations.c **** *
 248:.\operations.c **** * Caller(s)   : 
 249:.\operations.c **** *
 250:.\operations.c **** * Note(s)     : none.
 251:.\operations.c **** ***************************************************************************************************
 252:.\operations.c **** */
 253:.\operations.c **** 
 254:.\operations.c **** void multiplication_market(uint8 *value1,uint8 *value2){
 1056              		.loc 1 254 0
 1057              		.cfi_startproc
 1058              		@ args = 0, pretend = 0, frame = 96
 1059              		@ frame_needed = 1, uses_anonymous_args = 0
 1060 0000 90B5     		push	{r4, r7, lr}
 1061              		.cfi_def_cfa_offset 12
 1062              		.cfi_offset 4, -12
 1063              		.cfi_offset 7, -8
 1064              		.cfi_offset 14, -4
 1065 0002 99B0     		sub	sp, sp, #100
 1066              		.cfi_def_cfa_offset 112
 1067 0004 00AF     		add	r7, sp, #0
 1068              		.cfi_def_cfa_register 7
 1069 0006 7860     		str	r0, [r7, #4]
 1070 0008 3960     		str	r1, [r7]
 255:.\operations.c ****     /*double tempV1=0,tempV2=0,total;
 256:.\operations.c ****     int x,y;
 257:.\operations.c ****     char valueTotal[16];
 258:.\operations.c ****     char decimal[5]="%.0f*";
 259:.\operations.c ****     decimal[2]=decimalMoney+0x30;
 260:.\operations.c ****     y=value1[0];
 261:.\operations.c ****     for(x=value1[0];x>0;x--){
 262:.\operations.c ****         if(value1[x]!=','){
 263:.\operations.c ****             tempV1+=((double)(value1[x]&0x0f)*pow(10,(y-x)));
 264:.\operations.c ****         }else{
 265:.\operations.c ****             tempV1/=pow(10,(y-x));
 266:.\operations.c ****             y=x-1;
ARM GAS  C:\Users\PROYEC~1\AppData\Local\Temp\ccczGU2D.s 			page 25


 267:.\operations.c ****         }
 268:.\operations.c ****     }
 269:.\operations.c ****     y=value2[0];
 270:.\operations.c ****     for(x=value2[0];x>0;x--){
 271:.\operations.c ****         if(value2[x]!=','){
 272:.\operations.c ****             tempV2+=((double)(value2[x]&0x0f)*pow(10,(y-x)));
 273:.\operations.c ****         }else{
 274:.\operations.c ****             tempV2/=pow(10,(y-x));
 275:.\operations.c ****             y=x-1;
 276:.\operations.c ****         }
 277:.\operations.c ****     }
 278:.\operations.c ****     total=tempV1*tempV2;
 279:.\operations.c ****     sprintf(valueTotal,decimal,total);
 280:.\operations.c ****     for(y=0;y<16;y++){
 281:.\operations.c ****         if(valueTotal[y]=='*'){
 282:.\operations.c ****             break;
 283:.\operations.c ****         }
 284:.\operations.c ****     }
 285:.\operations.c ****     for(x=1;x<=y;x++){
 286:.\operations.c ****         temporal[x]=valueTotal[x-1];
 287:.\operations.c ****         if(valueTotal[x-1]=='.'){
 288:.\operations.c ****             temporal[x]=',';
 289:.\operations.c ****         }
 290:.\operations.c ****     }
 291:.\operations.c ****     for(x=8;x>0;x--){
 292:.\operations.c ****         temporal[x]=temporal[y];
 293:.\operations.c ****         y--;
 294:.\operations.c ****         if(y<=0){
 295:.\operations.c ****             while(x>1){
 296:.\operations.c ****                 x--;
 297:.\operations.c ****                 temporal[x]='0';
 298:.\operations.c ****             }
 299:.\operations.c ****             break;
 300:.\operations.c ****         }
 301:.\operations.c ****     }
 302:.\operations.c ****     temporal[0]=8;
 303:.\operations.c ****     CyWdtClear();*/
 304:.\operations.c ****     /*double tempV1=0,tempV2=0,total;
 305:.\operations.c ****     int x,y;
 306:.\operations.c ****     y=value1[0];
 307:.\operations.c ****     for(x=value1[0];x>0;x--){
 308:.\operations.c ****         if(value1[x]!=','){
 309:.\operations.c ****             tempV1+=((double)(value1[x]&0x0f)*pow(10,(y-x)));
 310:.\operations.c ****         }else{
 311:.\operations.c ****             tempV1/=pow(10,(y-x));
 312:.\operations.c ****             y=x-1;
 313:.\operations.c ****         }
 314:.\operations.c ****     }
 315:.\operations.c ****     y=value2[0];
 316:.\operations.c ****     for(x=value2[0];x>0;x--){
 317:.\operations.c ****         if(value2[x]!=','){
 318:.\operations.c ****             tempV2+=((double)(value2[x]&0x0f)*pow(10,(y-x)));
 319:.\operations.c ****         }else{
 320:.\operations.c ****             tempV2/=pow(10,(y-x));
 321:.\operations.c ****             y=x-1;
 322:.\operations.c ****         }
 323:.\operations.c ****     }
ARM GAS  C:\Users\PROYEC~1\AppData\Local\Temp\ccczGU2D.s 			page 26


 324:.\operations.c ****     total=tempV1*tempV2;
 325:.\operations.c ****     for(x=1;x<=8;x++){
 326:.\operations.c **** 		temporal[9-x] = (((int)total%(int)pow(10,x))/pow(10,x-1))+0x30;
 327:.\operations.c **** 	}
 328:.\operations.c **** 	temporal[0]=8;*/
 329:.\operations.c ****     uint8 tempValue1[10],tempValue2[10],tempValue[4][15]={{0},{0}},x,y,z,tenth;
 1071              		.loc 1 329 0
 1072 000a 07F10803 		add	r3, r7, #8
 1073 000e 3C22     		movs	r2, #60
 1074 0010 1846     		mov	r0, r3
 1075 0012 0021     		movs	r1, #0
 1076 0014 FFF7FEFF 		bl	memset
 330:.\operations.c ****     tempValue1[0]=value1[0];
 1077              		.loc 1 330 0
 1078 0018 7B68     		ldr	r3, [r7, #4]
 1079 001a 1B78     		ldrb	r3, [r3]	@ zero_extendqisi2
 1080 001c 87F85030 		strb	r3, [r7, #80]
 331:.\operations.c ****     for(x=value1[0];x>0;x--){
 1081              		.loc 1 331 0
 1082 0020 7B68     		ldr	r3, [r7, #4]
 1083 0022 1B78     		ldrb	r3, [r3]
 1084 0024 87F85F30 		strb	r3, [r7, #95]
 1085 0028 38E0     		b	.L80
 1086              	.L85:
 332:.\operations.c ****         tempValue1[x]=value1[x]&0x0f;
 1087              		.loc 1 332 0
 1088 002a 97F85F30 		ldrb	r3, [r7, #95]	@ zero_extendqisi2
 1089 002e 97F85F20 		ldrb	r2, [r7, #95]	@ zero_extendqisi2
 1090 0032 7968     		ldr	r1, [r7, #4]
 1091 0034 0A44     		add	r2, r2, r1
 1092 0036 1278     		ldrb	r2, [r2]	@ zero_extendqisi2
 1093 0038 02F00F02 		and	r2, r2, #15
 1094 003c D2B2     		uxtb	r2, r2
 1095 003e 07F16001 		add	r1, r7, #96
 1096 0042 0B44     		add	r3, r3, r1
 1097 0044 03F8102C 		strb	r2, [r3, #-16]
 333:.\operations.c ****         if(value1[x]==','){
 1098              		.loc 1 333 0
 1099 0048 97F85F30 		ldrb	r3, [r7, #95]	@ zero_extendqisi2
 1100 004c 7A68     		ldr	r2, [r7, #4]
 1101 004e 1344     		add	r3, r3, r2
 1102 0050 1B78     		ldrb	r3, [r3]	@ zero_extendqisi2
 1103 0052 2C2B     		cmp	r3, #44
 1104 0054 1DD1     		bne	.L81
 334:.\operations.c ****             while(x>0){
 1105              		.loc 1 334 0
 1106 0056 14E0     		b	.L82
 1107              	.L83:
 335:.\operations.c ****                 tempValue1[x]=value1[x-1]&0x0f;
 1108              		.loc 1 335 0
 1109 0058 97F85F30 		ldrb	r3, [r7, #95]	@ zero_extendqisi2
 1110 005c 97F85F20 		ldrb	r2, [r7, #95]	@ zero_extendqisi2
 1111 0060 013A     		subs	r2, r2, #1
 1112 0062 7968     		ldr	r1, [r7, #4]
 1113 0064 0A44     		add	r2, r2, r1
 1114 0066 1278     		ldrb	r2, [r2]	@ zero_extendqisi2
 1115 0068 02F00F02 		and	r2, r2, #15
ARM GAS  C:\Users\PROYEC~1\AppData\Local\Temp\ccczGU2D.s 			page 27


 1116 006c D2B2     		uxtb	r2, r2
 1117 006e 07F16001 		add	r1, r7, #96
 1118 0072 0B44     		add	r3, r3, r1
 1119 0074 03F8102C 		strb	r2, [r3, #-16]
 336:.\operations.c ****                 x--;
 1120              		.loc 1 336 0
 1121 0078 97F85F30 		ldrb	r3, [r7, #95]	@ zero_extendqisi2
 1122 007c 013B     		subs	r3, r3, #1
 1123 007e 87F85F30 		strb	r3, [r7, #95]
 1124              	.L82:
 334:.\operations.c ****             while(x>0){
 1125              		.loc 1 334 0
 1126 0082 97F85F30 		ldrb	r3, [r7, #95]	@ zero_extendqisi2
 1127 0086 002B     		cmp	r3, #0
 1128 0088 E6D1     		bne	.L83
 337:.\operations.c ****             }
 338:.\operations.c ****             tempValue1[1]=0;
 1129              		.loc 1 338 0
 1130 008a 0023     		movs	r3, #0
 1131 008c 87F85130 		strb	r3, [r7, #81]
 339:.\operations.c ****             break;
 1132              		.loc 1 339 0
 1133 0090 08E0     		b	.L84
 1134              	.L81:
 331:.\operations.c ****         tempValue1[x]=value1[x]&0x0f;
 1135              		.loc 1 331 0 discriminator 2
 1136 0092 97F85F30 		ldrb	r3, [r7, #95]	@ zero_extendqisi2
 1137 0096 013B     		subs	r3, r3, #1
 1138 0098 87F85F30 		strb	r3, [r7, #95]
 1139              	.L80:
 331:.\operations.c ****         tempValue1[x]=value1[x]&0x0f;
 1140              		.loc 1 331 0 is_stmt 0 discriminator 1
 1141 009c 97F85F30 		ldrb	r3, [r7, #95]	@ zero_extendqisi2
 1142 00a0 002B     		cmp	r3, #0
 1143 00a2 C2D1     		bne	.L85
 1144              	.L84:
 340:.\operations.c ****         }
 341:.\operations.c ****     }
 342:.\operations.c ****     tempValue2[0]=value2[0];
 1145              		.loc 1 342 0 is_stmt 1
 1146 00a4 3B68     		ldr	r3, [r7]
 1147 00a6 1B78     		ldrb	r3, [r3]	@ zero_extendqisi2
 1148 00a8 87F84430 		strb	r3, [r7, #68]
 343:.\operations.c ****     for(x=value2[0];x>0;x--){
 1149              		.loc 1 343 0
 1150 00ac 3B68     		ldr	r3, [r7]
 1151 00ae 1B78     		ldrb	r3, [r3]
 1152 00b0 87F85F30 		strb	r3, [r7, #95]
 1153 00b4 38E0     		b	.L86
 1154              	.L91:
 344:.\operations.c ****         tempValue2[x]=value2[x]&0x0f;
 1155              		.loc 1 344 0
 1156 00b6 97F85F30 		ldrb	r3, [r7, #95]	@ zero_extendqisi2
 1157 00ba 97F85F20 		ldrb	r2, [r7, #95]	@ zero_extendqisi2
 1158 00be 3968     		ldr	r1, [r7]
 1159 00c0 0A44     		add	r2, r2, r1
 1160 00c2 1278     		ldrb	r2, [r2]	@ zero_extendqisi2
ARM GAS  C:\Users\PROYEC~1\AppData\Local\Temp\ccczGU2D.s 			page 28


 1161 00c4 02F00F02 		and	r2, r2, #15
 1162 00c8 D2B2     		uxtb	r2, r2
 1163 00ca 07F16001 		add	r1, r7, #96
 1164 00ce 0B44     		add	r3, r3, r1
 1165 00d0 03F81C2C 		strb	r2, [r3, #-28]
 345:.\operations.c ****         if(value2[x]==','){
 1166              		.loc 1 345 0
 1167 00d4 97F85F30 		ldrb	r3, [r7, #95]	@ zero_extendqisi2
 1168 00d8 3A68     		ldr	r2, [r7]
 1169 00da 1344     		add	r3, r3, r2
 1170 00dc 1B78     		ldrb	r3, [r3]	@ zero_extendqisi2
 1171 00de 2C2B     		cmp	r3, #44
 1172 00e0 1DD1     		bne	.L87
 346:.\operations.c ****             while(x>0){
 1173              		.loc 1 346 0
 1174 00e2 14E0     		b	.L88
 1175              	.L89:
 347:.\operations.c ****                 tempValue2[x]=value2[x-1]&0x0f;
 1176              		.loc 1 347 0
 1177 00e4 97F85F30 		ldrb	r3, [r7, #95]	@ zero_extendqisi2
 1178 00e8 97F85F20 		ldrb	r2, [r7, #95]	@ zero_extendqisi2
 1179 00ec 013A     		subs	r2, r2, #1
 1180 00ee 3968     		ldr	r1, [r7]
 1181 00f0 0A44     		add	r2, r2, r1
 1182 00f2 1278     		ldrb	r2, [r2]	@ zero_extendqisi2
 1183 00f4 02F00F02 		and	r2, r2, #15
 1184 00f8 D2B2     		uxtb	r2, r2
 1185 00fa 07F16001 		add	r1, r7, #96
 1186 00fe 0B44     		add	r3, r3, r1
 1187 0100 03F81C2C 		strb	r2, [r3, #-28]
 348:.\operations.c ****                 x--;
 1188              		.loc 1 348 0
 1189 0104 97F85F30 		ldrb	r3, [r7, #95]	@ zero_extendqisi2
 1190 0108 013B     		subs	r3, r3, #1
 1191 010a 87F85F30 		strb	r3, [r7, #95]
 1192              	.L88:
 346:.\operations.c ****             while(x>0){
 1193              		.loc 1 346 0
 1194 010e 97F85F30 		ldrb	r3, [r7, #95]	@ zero_extendqisi2
 1195 0112 002B     		cmp	r3, #0
 1196 0114 E6D1     		bne	.L89
 349:.\operations.c ****             }
 350:.\operations.c ****             tempValue2[1]=0;
 1197              		.loc 1 350 0
 1198 0116 0023     		movs	r3, #0
 1199 0118 87F84530 		strb	r3, [r7, #69]
 351:.\operations.c ****             break;
 1200              		.loc 1 351 0
 1201 011c 08E0     		b	.L90
 1202              	.L87:
 343:.\operations.c ****         tempValue2[x]=value2[x]&0x0f;
 1203              		.loc 1 343 0 discriminator 2
 1204 011e 97F85F30 		ldrb	r3, [r7, #95]	@ zero_extendqisi2
 1205 0122 013B     		subs	r3, r3, #1
 1206 0124 87F85F30 		strb	r3, [r7, #95]
 1207              	.L86:
 343:.\operations.c ****         tempValue2[x]=value2[x]&0x0f;
ARM GAS  C:\Users\PROYEC~1\AppData\Local\Temp\ccczGU2D.s 			page 29


 1208              		.loc 1 343 0 is_stmt 0 discriminator 1
 1209 0128 97F85F30 		ldrb	r3, [r7, #95]	@ zero_extendqisi2
 1210 012c 002B     		cmp	r3, #0
 1211 012e C2D1     		bne	.L91
 1212              	.L90:
 352:.\operations.c ****         }
 353:.\operations.c ****     }
 354:.\operations.c ****     z=3;
 1213              		.loc 1 354 0 is_stmt 1
 1214 0130 0323     		movs	r3, #3
 1215 0132 87F85D30 		strb	r3, [r7, #93]
 355:.\operations.c ****     for(x=3;x>0;x--){
 1216              		.loc 1 355 0
 1217 0136 0323     		movs	r3, #3
 1218 0138 87F85F30 		strb	r3, [r7, #95]
 1219 013c 67E0     		b	.L92
 1220              	.L95:
 356:.\operations.c ****         tenth=0;
 1221              		.loc 1 356 0
 1222 013e 0023     		movs	r3, #0
 1223 0140 87F85C30 		strb	r3, [r7, #92]
 357:.\operations.c ****         for(y=8;y>0;y--){
 1224              		.loc 1 357 0
 1225 0144 0823     		movs	r3, #8
 1226 0146 87F85E30 		strb	r3, [r7, #94]
 1227 014a 52E0     		b	.L93
 1228              	.L94:
 358:.\operations.c ****             tempValue[3-x][y+z]=((tempValue1[x]*tempValue2[y])+tenth)%10;
 1229              		.loc 1 358 0 discriminator 3
 1230 014c 97F85F30 		ldrb	r3, [r7, #95]	@ zero_extendqisi2
 1231 0150 C3F10300 		rsb	r0, r3, #3
 1232 0154 97F85E20 		ldrb	r2, [r7, #94]	@ zero_extendqisi2
 1233 0158 97F85D30 		ldrb	r3, [r7, #93]	@ zero_extendqisi2
 1234 015c D418     		adds	r4, r2, r3
 1235 015e 97F85F30 		ldrb	r3, [r7, #95]	@ zero_extendqisi2
 1236 0162 07F16002 		add	r2, r7, #96
 1237 0166 1344     		add	r3, r3, r2
 1238 0168 13F8103C 		ldrb	r3, [r3, #-16]	@ zero_extendqisi2
 1239 016c 1A46     		mov	r2, r3
 1240 016e 97F85E30 		ldrb	r3, [r7, #94]	@ zero_extendqisi2
 1241 0172 07F16001 		add	r1, r7, #96
 1242 0176 0B44     		add	r3, r3, r1
 1243 0178 13F81C3C 		ldrb	r3, [r3, #-28]	@ zero_extendqisi2
 1244 017c 03FB02F2 		mul	r2, r3, r2
 1245 0180 97F85C30 		ldrb	r3, [r7, #92]	@ zero_extendqisi2
 1246 0184 1A44     		add	r2, r2, r3
 1247 0186 774B     		ldr	r3, .L101
 1248 0188 83FB0213 		smull	r1, r3, r3, r2
 1249 018c 9910     		asrs	r1, r3, #2
 1250 018e D317     		asrs	r3, r2, #31
 1251 0190 C91A     		subs	r1, r1, r3
 1252 0192 0B46     		mov	r3, r1
 1253 0194 9B00     		lsls	r3, r3, #2
 1254 0196 0B44     		add	r3, r3, r1
 1255 0198 5B00     		lsls	r3, r3, #1
 1256 019a D11A     		subs	r1, r2, r3
 1257 019c CAB2     		uxtb	r2, r1
ARM GAS  C:\Users\PROYEC~1\AppData\Local\Temp\ccczGU2D.s 			page 30


 1258 019e 0346     		mov	r3, r0
 1259 01a0 1B01     		lsls	r3, r3, #4
 1260 01a2 1B1A     		subs	r3, r3, r0
 1261 01a4 07F16001 		add	r1, r7, #96
 1262 01a8 0B44     		add	r3, r3, r1
 1263 01aa 2344     		add	r3, r3, r4
 1264 01ac 583B     		subs	r3, r3, #88
 1265 01ae 1A70     		strb	r2, [r3]
 359:.\operations.c ****             tenth=((tempValue1[x]*tempValue2[y])+tenth)/10;
 1266              		.loc 1 359 0 discriminator 3
 1267 01b0 97F85F30 		ldrb	r3, [r7, #95]	@ zero_extendqisi2
 1268 01b4 07F16002 		add	r2, r7, #96
 1269 01b8 1344     		add	r3, r3, r2
 1270 01ba 13F8103C 		ldrb	r3, [r3, #-16]	@ zero_extendqisi2
 1271 01be 1A46     		mov	r2, r3
 1272 01c0 97F85E30 		ldrb	r3, [r7, #94]	@ zero_extendqisi2
 1273 01c4 07F16001 		add	r1, r7, #96
 1274 01c8 0B44     		add	r3, r3, r1
 1275 01ca 13F81C3C 		ldrb	r3, [r3, #-28]	@ zero_extendqisi2
 1276 01ce 03FB02F2 		mul	r2, r3, r2
 1277 01d2 97F85C30 		ldrb	r3, [r7, #92]	@ zero_extendqisi2
 1278 01d6 1344     		add	r3, r3, r2
 1279 01d8 624A     		ldr	r2, .L101
 1280 01da 82FB0312 		smull	r1, r2, r2, r3
 1281 01de 9210     		asrs	r2, r2, #2
 1282 01e0 DB17     		asrs	r3, r3, #31
 1283 01e2 D31A     		subs	r3, r2, r3
 1284 01e4 87F85C30 		strb	r3, [r7, #92]
 357:.\operations.c ****         for(y=8;y>0;y--){
 1285              		.loc 1 357 0 discriminator 3
 1286 01e8 97F85E30 		ldrb	r3, [r7, #94]	@ zero_extendqisi2
 1287 01ec 013B     		subs	r3, r3, #1
 1288 01ee 87F85E30 		strb	r3, [r7, #94]
 1289              	.L93:
 357:.\operations.c ****         for(y=8;y>0;y--){
 1290              		.loc 1 357 0 is_stmt 0 discriminator 1
 1291 01f2 97F85E30 		ldrb	r3, [r7, #94]	@ zero_extendqisi2
 1292 01f6 002B     		cmp	r3, #0
 1293 01f8 A8D1     		bne	.L94
 360:.\operations.c ****         }
 361:.\operations.c ****         z--;
 1294              		.loc 1 361 0 is_stmt 1 discriminator 2
 1295 01fa 97F85D30 		ldrb	r3, [r7, #93]	@ zero_extendqisi2
 1296 01fe 013B     		subs	r3, r3, #1
 1297 0200 87F85D30 		strb	r3, [r7, #93]
 355:.\operations.c ****         tenth=0;
 1298              		.loc 1 355 0 discriminator 2
 1299 0204 97F85F30 		ldrb	r3, [r7, #95]	@ zero_extendqisi2
 1300 0208 013B     		subs	r3, r3, #1
 1301 020a 87F85F30 		strb	r3, [r7, #95]
 1302              	.L92:
 355:.\operations.c ****         tenth=0;
 1303              		.loc 1 355 0 is_stmt 0 discriminator 1
 1304 020e 97F85F30 		ldrb	r3, [r7, #95]	@ zero_extendqisi2
 1305 0212 002B     		cmp	r3, #0
 1306 0214 93D1     		bne	.L95
 362:.\operations.c ****     }
ARM GAS  C:\Users\PROYEC~1\AppData\Local\Temp\ccczGU2D.s 			page 31


 363:.\operations.c ****     tenth=0;
 1307              		.loc 1 363 0 is_stmt 1
 1308 0216 0023     		movs	r3, #0
 1309 0218 87F85C30 		strb	r3, [r7, #92]
 364:.\operations.c ****     for(x=11;x>0;x--){
 1310              		.loc 1 364 0
 1311 021c 0B23     		movs	r3, #11
 1312 021e 87F85F30 		strb	r3, [r7, #95]
 1313 0222 57E0     		b	.L96
 1314              	.L97:
 365:.\operations.c ****         tempValue[3][x]=((tempValue[0][x]+tempValue[1][x])+(tempValue[2][x]+tenth))%10;
 1315              		.loc 1 365 0 discriminator 3
 1316 0224 97F85F00 		ldrb	r0, [r7, #95]	@ zero_extendqisi2
 1317 0228 97F85F30 		ldrb	r3, [r7, #95]	@ zero_extendqisi2
 1318 022c 07F16002 		add	r2, r7, #96
 1319 0230 1344     		add	r3, r3, r2
 1320 0232 13F8583C 		ldrb	r3, [r3, #-88]	@ zero_extendqisi2
 1321 0236 1A46     		mov	r2, r3
 1322 0238 97F85F30 		ldrb	r3, [r7, #95]	@ zero_extendqisi2
 1323 023c 07F16001 		add	r1, r7, #96
 1324 0240 0B44     		add	r3, r3, r1
 1325 0242 13F8493C 		ldrb	r3, [r3, #-73]	@ zero_extendqisi2
 1326 0246 1A44     		add	r2, r2, r3
 1327 0248 97F85F30 		ldrb	r3, [r7, #95]	@ zero_extendqisi2
 1328 024c 07F16001 		add	r1, r7, #96
 1329 0250 0B44     		add	r3, r3, r1
 1330 0252 13F83A3C 		ldrb	r3, [r3, #-58]	@ zero_extendqisi2
 1331 0256 1946     		mov	r1, r3
 1332 0258 97F85C30 		ldrb	r3, [r7, #92]	@ zero_extendqisi2
 1333 025c 0B44     		add	r3, r3, r1
 1334 025e 1A44     		add	r2, r2, r3
 1335 0260 404B     		ldr	r3, .L101
 1336 0262 83FB0213 		smull	r1, r3, r3, r2
 1337 0266 9910     		asrs	r1, r3, #2
 1338 0268 D317     		asrs	r3, r2, #31
 1339 026a C91A     		subs	r1, r1, r3
 1340 026c 0B46     		mov	r3, r1
 1341 026e 9B00     		lsls	r3, r3, #2
 1342 0270 0B44     		add	r3, r3, r1
 1343 0272 5B00     		lsls	r3, r3, #1
 1344 0274 D11A     		subs	r1, r2, r3
 1345 0276 CAB2     		uxtb	r2, r1
 1346 0278 07F16003 		add	r3, r7, #96
 1347 027c 0344     		add	r3, r3, r0
 1348 027e 03F82B2C 		strb	r2, [r3, #-43]
 366:.\operations.c ****         tenth=((tempValue[0][x]+tempValue[1][x])+(tempValue[2][x]+tenth))/10;
 1349              		.loc 1 366 0 discriminator 3
 1350 0282 97F85F30 		ldrb	r3, [r7, #95]	@ zero_extendqisi2
 1351 0286 07F16002 		add	r2, r7, #96
 1352 028a 1344     		add	r3, r3, r2
 1353 028c 13F8583C 		ldrb	r3, [r3, #-88]	@ zero_extendqisi2
 1354 0290 1A46     		mov	r2, r3
 1355 0292 97F85F30 		ldrb	r3, [r7, #95]	@ zero_extendqisi2
 1356 0296 07F16001 		add	r1, r7, #96
 1357 029a 0B44     		add	r3, r3, r1
 1358 029c 13F8493C 		ldrb	r3, [r3, #-73]	@ zero_extendqisi2
 1359 02a0 1A44     		add	r2, r2, r3
ARM GAS  C:\Users\PROYEC~1\AppData\Local\Temp\ccczGU2D.s 			page 32


 1360 02a2 97F85F30 		ldrb	r3, [r7, #95]	@ zero_extendqisi2
 1361 02a6 07F16001 		add	r1, r7, #96
 1362 02aa 0B44     		add	r3, r3, r1
 1363 02ac 13F83A3C 		ldrb	r3, [r3, #-58]	@ zero_extendqisi2
 1364 02b0 1946     		mov	r1, r3
 1365 02b2 97F85C30 		ldrb	r3, [r7, #92]	@ zero_extendqisi2
 1366 02b6 0B44     		add	r3, r3, r1
 1367 02b8 1344     		add	r3, r3, r2
 1368 02ba 2A4A     		ldr	r2, .L101
 1369 02bc 82FB0312 		smull	r1, r2, r2, r3
 1370 02c0 9210     		asrs	r2, r2, #2
 1371 02c2 DB17     		asrs	r3, r3, #31
 1372 02c4 D31A     		subs	r3, r2, r3
 1373 02c6 87F85C30 		strb	r3, [r7, #92]
 364:.\operations.c ****     for(x=11;x>0;x--){
 1374              		.loc 1 364 0 discriminator 3
 1375 02ca 97F85F30 		ldrb	r3, [r7, #95]	@ zero_extendqisi2
 1376 02ce 013B     		subs	r3, r3, #1
 1377 02d0 87F85F30 		strb	r3, [r7, #95]
 1378              	.L96:
 364:.\operations.c ****     for(x=11;x>0;x--){
 1379              		.loc 1 364 0 is_stmt 0 discriminator 1
 1380 02d4 97F85F30 		ldrb	r3, [r7, #95]	@ zero_extendqisi2
 1381 02d8 002B     		cmp	r3, #0
 1382 02da A3D1     		bne	.L97
 367:.\operations.c ****     }
 368:.\operations.c ****     y=11;
 1383              		.loc 1 368 0 is_stmt 1
 1384 02dc 0B23     		movs	r3, #11
 1385 02de 87F85E30 		strb	r3, [r7, #94]
 369:.\operations.c ****     z=0;
 1386              		.loc 1 369 0
 1387 02e2 0023     		movs	r3, #0
 1388 02e4 87F85D30 		strb	r3, [r7, #93]
 370:.\operations.c ****     for(x=8;x>0;x--){
 1389              		.loc 1 370 0
 1390 02e8 0823     		movs	r3, #8
 1391 02ea 87F85F30 		strb	r3, [r7, #95]
 1392 02ee 2FE0     		b	.L98
 1393              	.L100:
 371:.\operations.c ****         temporal[x]=(tempValue[3][y]&0x0f)+0x30;
 1394              		.loc 1 371 0
 1395 02f0 97F85F30 		ldrb	r3, [r7, #95]	@ zero_extendqisi2
 1396 02f4 97F85E20 		ldrb	r2, [r7, #94]	@ zero_extendqisi2
 1397 02f8 07F16001 		add	r1, r7, #96
 1398 02fc 0A44     		add	r2, r2, r1
 1399 02fe 12F82B2C 		ldrb	r2, [r2, #-43]	@ zero_extendqisi2
 1400 0302 02F00F02 		and	r2, r2, #15
 1401 0306 D2B2     		uxtb	r2, r2
 1402 0308 3032     		adds	r2, r2, #48
 1403 030a D1B2     		uxtb	r1, r2
 1404 030c 164A     		ldr	r2, .L101+4
 1405 030e D154     		strb	r1, [r2, r3]
 372:.\operations.c ****         y--;
 1406              		.loc 1 372 0
 1407 0310 97F85E30 		ldrb	r3, [r7, #94]	@ zero_extendqisi2
 1408 0314 013B     		subs	r3, r3, #1
ARM GAS  C:\Users\PROYEC~1\AppData\Local\Temp\ccczGU2D.s 			page 33


 1409 0316 87F85E30 		strb	r3, [r7, #94]
 373:.\operations.c ****         z++;
 1410              		.loc 1 373 0
 1411 031a 97F85D30 		ldrb	r3, [r7, #93]	@ zero_extendqisi2
 1412 031e 0133     		adds	r3, r3, #1
 1413 0320 87F85D30 		strb	r3, [r7, #93]
 374:.\operations.c ****         if(z==decimalMoney){
 1414              		.loc 1 374 0
 1415 0324 114B     		ldr	r3, .L101+8
 1416 0326 1B78     		ldrb	r3, [r3]
 1417 0328 DBB2     		uxtb	r3, r3
 1418 032a 97F85D20 		ldrb	r2, [r7, #93]	@ zero_extendqisi2
 1419 032e 9A42     		cmp	r2, r3
 1420 0330 09D1     		bne	.L99
 375:.\operations.c ****             x--;
 1421              		.loc 1 375 0
 1422 0332 97F85F30 		ldrb	r3, [r7, #95]	@ zero_extendqisi2
 1423 0336 013B     		subs	r3, r3, #1
 1424 0338 87F85F30 		strb	r3, [r7, #95]
 376:.\operations.c ****             temporal[x]=',';
 1425              		.loc 1 376 0
 1426 033c 97F85F30 		ldrb	r3, [r7, #95]	@ zero_extendqisi2
 1427 0340 094A     		ldr	r2, .L101+4
 1428 0342 2C21     		movs	r1, #44
 1429 0344 D154     		strb	r1, [r2, r3]
 1430              	.L99:
 370:.\operations.c ****         temporal[x]=(tempValue[3][y]&0x0f)+0x30;
 1431              		.loc 1 370 0 discriminator 2
 1432 0346 97F85F30 		ldrb	r3, [r7, #95]	@ zero_extendqisi2
 1433 034a 013B     		subs	r3, r3, #1
 1434 034c 87F85F30 		strb	r3, [r7, #95]
 1435              	.L98:
 370:.\operations.c ****         temporal[x]=(tempValue[3][y]&0x0f)+0x30;
 1436              		.loc 1 370 0 is_stmt 0 discriminator 1
 1437 0350 97F85F30 		ldrb	r3, [r7, #95]	@ zero_extendqisi2
 1438 0354 002B     		cmp	r3, #0
 1439 0356 CBD1     		bne	.L100
 377:.\operations.c ****         }
 378:.\operations.c ****     }
 379:.\operations.c ****     temporal[0]=8;
 1440              		.loc 1 379 0 is_stmt 1
 1441 0358 034B     		ldr	r3, .L101+4
 1442 035a 0822     		movs	r2, #8
 1443 035c 1A70     		strb	r2, [r3]
 380:.\operations.c **** }
 1444              		.loc 1 380 0
 1445 035e 6437     		adds	r7, r7, #100
 1446              		.cfi_def_cfa_offset 12
 1447 0360 BD46     		mov	sp, r7
 1448              		.cfi_def_cfa_register 13
 1449              		@ sp needed
 1450 0362 90BD     		pop	{r4, r7, pc}
 1451              	.L102:
 1452              		.align	2
 1453              	.L101:
 1454 0364 67666666 		.word	1717986919
 1455 0368 00000000 		.word	temporal
ARM GAS  C:\Users\PROYEC~1\AppData\Local\Temp\ccczGU2D.s 			page 34


 1456 036c 00000000 		.word	decimalMoney
 1457              		.cfi_endproc
 1458              	.LFE59:
 1459              		.size	multiplication_market, .-multiplication_market
 1460              		.section	.text.addition_market,"ax",%progbits
 1461              		.align	2
 1462              		.global	addition_market
 1463              		.thumb
 1464              		.thumb_func
 1465              		.type	addition_market, %function
 1466              	addition_market:
 1467              	.LFB60:
 381:.\operations.c **** 
 382:.\operations.c **** /*
 383:.\operations.c **** ***************************************************************************************************
 384:.\operations.c **** *                    void addition_market(uint8 *value1,uint8 *value2, uint8 *value3)
 385:.\operations.c **** *
 386:.\operations.c **** * Description : 
 387:.\operations.c **** *               
 388:.\operations.c **** *
 389:.\operations.c **** * Argument(s) : none
 390:.\operations.c **** *
 391:.\operations.c **** * Return(s)   : none
 392:.\operations.c **** *
 393:.\operations.c **** * Caller(s)   : 
 394:.\operations.c **** *
 395:.\operations.c **** * Note(s)     : none.
 396:.\operations.c **** ***************************************************************************************************
 397:.\operations.c **** */
 398:.\operations.c **** 
 399:.\operations.c **** void addition_market(uint8 *value1,uint8 *value2, uint8 *value3){
 1468              		.loc 1 399 0
 1469              		.cfi_startproc
 1470              		@ args = 0, pretend = 0, frame = 72
 1471              		@ frame_needed = 1, uses_anonymous_args = 0
 1472              		@ link register save eliminated.
 1473 0000 80B4     		push	{r7}
 1474              		.cfi_def_cfa_offset 4
 1475              		.cfi_offset 7, -4
 1476 0002 93B0     		sub	sp, sp, #76
 1477              		.cfi_def_cfa_offset 80
 1478 0004 00AF     		add	r7, sp, #0
 1479              		.cfi_def_cfa_register 7
 1480 0006 F860     		str	r0, [r7, #12]
 1481 0008 B960     		str	r1, [r7, #8]
 1482 000a 7A60     		str	r2, [r7, #4]
 400:.\operations.c ****    /* double tempV1=0,tempV2=0,tempV3=0,total;
 401:.\operations.c ****     int x,y;
 402:.\operations.c ****     char valueTotal[12];
 403:.\operations.c ****     char decimal[5]="%.0f*";
 404:.\operations.c ****     decimal[2]=decimalMoney+0x30;
 405:.\operations.c ****     y=value1[0];
 406:.\operations.c ****     for(x=value1[0];x>0;x--){
 407:.\operations.c ****         if(value1[x]!=','){
 408:.\operations.c ****             tempV1+=((double)(value1[x]&0x0f)*pow(10,(y-x)));
 409:.\operations.c ****         }else{
 410:.\operations.c ****             tempV1/=pow(10,(y-x));
ARM GAS  C:\Users\PROYEC~1\AppData\Local\Temp\ccczGU2D.s 			page 35


 411:.\operations.c ****             y=x-1;
 412:.\operations.c ****         }
 413:.\operations.c ****     }
 414:.\operations.c ****     y=value2[0];
 415:.\operations.c ****     for(x=value2[0];x>0;x--){
 416:.\operations.c ****         if(value2[x]!=','){
 417:.\operations.c ****             tempV2+=((double)(value2[x]&0x0f)*pow(10,(y-x)));
 418:.\operations.c ****         }else{
 419:.\operations.c ****             tempV2/=pow(10,(y-x));
 420:.\operations.c ****             y=x-1;
 421:.\operations.c ****         }
 422:.\operations.c ****     }
 423:.\operations.c ****     y=value3[0];
 424:.\operations.c ****     for(x=value3[0];x>0;x--){
 425:.\operations.c ****         if(value3[x]!=','){
 426:.\operations.c ****             tempV3+=((double)(value3[x]&0x0f)*pow(10,(y-x)));
 427:.\operations.c ****         }else{
 428:.\operations.c ****             tempV3/=pow(10,(y-x));
 429:.\operations.c ****             y=x-1;
 430:.\operations.c ****         }
 431:.\operations.c ****     }
 432:.\operations.c ****     total=tempV1+tempV2+tempV3;
 433:.\operations.c ****     sprintf(valueTotal,decimal,total);
 434:.\operations.c ****     for(y=0;y<12;y++){
 435:.\operations.c ****         if(valueTotal[y]=='*'){
 436:.\operations.c ****             break;
 437:.\operations.c ****         }
 438:.\operations.c ****     }
 439:.\operations.c ****     for(x=1;x<=y;x++){
 440:.\operations.c ****         temporal[x]=valueTotal[x-1];
 441:.\operations.c ****         if(valueTotal[x-1]=='.'){
 442:.\operations.c ****             temporal[x]=',';
 443:.\operations.c ****         }
 444:.\operations.c ****     }
 445:.\operations.c ****     for(x=9;x>0;x--){
 446:.\operations.c ****         temporal[x]=temporal[y];
 447:.\operations.c ****         y--;
 448:.\operations.c ****         if(y<=0){
 449:.\operations.c ****             while(x>1){
 450:.\operations.c ****                 x--;
 451:.\operations.c ****                 temporal[x]='0';
 452:.\operations.c ****             }
 453:.\operations.c ****             break;
 454:.\operations.c ****         }
 455:.\operations.c ****     }
 456:.\operations.c **** 	temporal[0]=9;
 457:.\operations.c ****     CyWdtClear();*/
 458:.\operations.c ****     
 459:.\operations.c ****     /*double tempV1=0,tempV2=0,tempV3=0,total;
 460:.\operations.c ****     int x,y;
 461:.\operations.c ****     y=value1[0];
 462:.\operations.c ****     for(x=value1[0];x>0;x--){
 463:.\operations.c ****         if(value1[x]!=','){
 464:.\operations.c ****             tempV1+=((double)(value1[x]&0x0f)*pow(10,(y-x)));
 465:.\operations.c ****         }else{
 466:.\operations.c ****             tempV1/=pow(10,(y-x));
 467:.\operations.c ****             y=x-1;
ARM GAS  C:\Users\PROYEC~1\AppData\Local\Temp\ccczGU2D.s 			page 36


 468:.\operations.c ****         }
 469:.\operations.c ****     }
 470:.\operations.c ****     y=value2[0];
 471:.\operations.c ****     for(x=value2[0];x>0;x--){
 472:.\operations.c ****         if(value2[x]!=','){
 473:.\operations.c ****             tempV2+=((double)(value2[x]&0x0f)*pow(10,(y-x)));
 474:.\operations.c ****         }else{
 475:.\operations.c ****             tempV2/=pow(10,(y-x));
 476:.\operations.c ****             y=x-1;
 477:.\operations.c ****         }
 478:.\operations.c ****     }
 479:.\operations.c ****     y=value3[0];
 480:.\operations.c ****     for(x=value3[0];x>0;x--){
 481:.\operations.c ****         if(value3[x]!=','){
 482:.\operations.c ****             tempV3+=((double)(value3[x]&0x0f)*pow(10,(y-x)));
 483:.\operations.c ****         }else{
 484:.\operations.c ****             tempV3/=pow(10,(y-x));
 485:.\operations.c ****             y=x-1;
 486:.\operations.c ****         }
 487:.\operations.c ****     }
 488:.\operations.c ****     total=tempV1+tempV2+tempV3;
 489:.\operations.c ****     for(x=1;x<=9;x++){
 490:.\operations.c ****         temporal[10-x]=(((int)total%(int)pow(10,x))/pow(10,x-1))+0x30;
 491:.\operations.c ****     }
 492:.\operations.c **** 	temporal[0]=9;*/
 493:.\operations.c ****     uint8 tempValue1[10],tempValue2[10],tempValue3[10],tempValue[10]={0},x,y,z,tenth;
 1483              		.loc 1 493 0
 1484 000c 07F11403 		add	r3, r7, #20
 1485 0010 0022     		movs	r2, #0
 1486 0012 1A60     		str	r2, [r3]
 1487 0014 0433     		adds	r3, r3, #4
 1488 0016 0022     		movs	r2, #0
 1489 0018 1A60     		str	r2, [r3]
 1490 001a 0433     		adds	r3, r3, #4
 1491 001c 0022     		movs	r2, #0
 1492 001e 1A80     		strh	r2, [r3]	@ movhi
 1493 0020 0233     		adds	r3, r3, #2
 494:.\operations.c ****     tempValue1[0]=value1[0];
 1494              		.loc 1 494 0
 1495 0022 FB68     		ldr	r3, [r7, #12]
 1496 0024 1B78     		ldrb	r3, [r3]	@ zero_extendqisi2
 1497 0026 87F83830 		strb	r3, [r7, #56]
 495:.\operations.c ****     for(x=value1[0];x>0;x--){
 1498              		.loc 1 495 0
 1499 002a FB68     		ldr	r3, [r7, #12]
 1500 002c 1B78     		ldrb	r3, [r3]
 1501 002e 87F84730 		strb	r3, [r7, #71]
 1502 0032 38E0     		b	.L104
 1503              	.L109:
 496:.\operations.c ****         tempValue1[x]=value1[x]&0x0f;
 1504              		.loc 1 496 0
 1505 0034 97F84730 		ldrb	r3, [r7, #71]	@ zero_extendqisi2
 1506 0038 97F84720 		ldrb	r2, [r7, #71]	@ zero_extendqisi2
 1507 003c F968     		ldr	r1, [r7, #12]
 1508 003e 0A44     		add	r2, r2, r1
 1509 0040 1278     		ldrb	r2, [r2]	@ zero_extendqisi2
 1510 0042 02F00F02 		and	r2, r2, #15
ARM GAS  C:\Users\PROYEC~1\AppData\Local\Temp\ccczGU2D.s 			page 37


 1511 0046 D2B2     		uxtb	r2, r2
 1512 0048 07F14801 		add	r1, r7, #72
 1513 004c 0B44     		add	r3, r3, r1
 1514 004e 03F8102C 		strb	r2, [r3, #-16]
 497:.\operations.c ****         if(value1[x]==','){
 1515              		.loc 1 497 0
 1516 0052 97F84730 		ldrb	r3, [r7, #71]	@ zero_extendqisi2
 1517 0056 FA68     		ldr	r2, [r7, #12]
 1518 0058 1344     		add	r3, r3, r2
 1519 005a 1B78     		ldrb	r3, [r3]	@ zero_extendqisi2
 1520 005c 2C2B     		cmp	r3, #44
 1521 005e 1DD1     		bne	.L105
 498:.\operations.c ****             while(x>0){
 1522              		.loc 1 498 0
 1523 0060 14E0     		b	.L106
 1524              	.L107:
 499:.\operations.c ****                 tempValue1[x]=value1[x-1]&0x0f;
 1525              		.loc 1 499 0
 1526 0062 97F84730 		ldrb	r3, [r7, #71]	@ zero_extendqisi2
 1527 0066 97F84720 		ldrb	r2, [r7, #71]	@ zero_extendqisi2
 1528 006a 013A     		subs	r2, r2, #1
 1529 006c F968     		ldr	r1, [r7, #12]
 1530 006e 0A44     		add	r2, r2, r1
 1531 0070 1278     		ldrb	r2, [r2]	@ zero_extendqisi2
 1532 0072 02F00F02 		and	r2, r2, #15
 1533 0076 D2B2     		uxtb	r2, r2
 1534 0078 07F14801 		add	r1, r7, #72
 1535 007c 0B44     		add	r3, r3, r1
 1536 007e 03F8102C 		strb	r2, [r3, #-16]
 500:.\operations.c ****                 x--;
 1537              		.loc 1 500 0
 1538 0082 97F84730 		ldrb	r3, [r7, #71]	@ zero_extendqisi2
 1539 0086 013B     		subs	r3, r3, #1
 1540 0088 87F84730 		strb	r3, [r7, #71]
 1541              	.L106:
 498:.\operations.c ****             while(x>0){
 1542              		.loc 1 498 0
 1543 008c 97F84730 		ldrb	r3, [r7, #71]	@ zero_extendqisi2
 1544 0090 002B     		cmp	r3, #0
 1545 0092 E6D1     		bne	.L107
 501:.\operations.c ****             }
 502:.\operations.c ****             tempValue1[1]=0;
 1546              		.loc 1 502 0
 1547 0094 0023     		movs	r3, #0
 1548 0096 87F83930 		strb	r3, [r7, #57]
 503:.\operations.c ****             break;
 1549              		.loc 1 503 0
 1550 009a 08E0     		b	.L108
 1551              	.L105:
 495:.\operations.c ****         tempValue1[x]=value1[x]&0x0f;
 1552              		.loc 1 495 0 discriminator 2
 1553 009c 97F84730 		ldrb	r3, [r7, #71]	@ zero_extendqisi2
 1554 00a0 013B     		subs	r3, r3, #1
 1555 00a2 87F84730 		strb	r3, [r7, #71]
 1556              	.L104:
 495:.\operations.c ****         tempValue1[x]=value1[x]&0x0f;
 1557              		.loc 1 495 0 is_stmt 0 discriminator 1
ARM GAS  C:\Users\PROYEC~1\AppData\Local\Temp\ccczGU2D.s 			page 38


 1558 00a6 97F84730 		ldrb	r3, [r7, #71]	@ zero_extendqisi2
 1559 00aa 002B     		cmp	r3, #0
 1560 00ac C2D1     		bne	.L109
 1561              	.L108:
 504:.\operations.c ****         }
 505:.\operations.c ****     }
 506:.\operations.c ****     tempValue2[0]=value2[0];
 1562              		.loc 1 506 0 is_stmt 1
 1563 00ae BB68     		ldr	r3, [r7, #8]
 1564 00b0 1B78     		ldrb	r3, [r3]	@ zero_extendqisi2
 1565 00b2 87F82C30 		strb	r3, [r7, #44]
 507:.\operations.c ****     for(x=value2[0];x>0;x--){
 1566              		.loc 1 507 0
 1567 00b6 BB68     		ldr	r3, [r7, #8]
 1568 00b8 1B78     		ldrb	r3, [r3]
 1569 00ba 87F84730 		strb	r3, [r7, #71]
 1570 00be 38E0     		b	.L110
 1571              	.L115:
 508:.\operations.c ****         tempValue2[x]=value2[x]&0x0f;
 1572              		.loc 1 508 0
 1573 00c0 97F84730 		ldrb	r3, [r7, #71]	@ zero_extendqisi2
 1574 00c4 97F84720 		ldrb	r2, [r7, #71]	@ zero_extendqisi2
 1575 00c8 B968     		ldr	r1, [r7, #8]
 1576 00ca 0A44     		add	r2, r2, r1
 1577 00cc 1278     		ldrb	r2, [r2]	@ zero_extendqisi2
 1578 00ce 02F00F02 		and	r2, r2, #15
 1579 00d2 D2B2     		uxtb	r2, r2
 1580 00d4 07F14801 		add	r1, r7, #72
 1581 00d8 0B44     		add	r3, r3, r1
 1582 00da 03F81C2C 		strb	r2, [r3, #-28]
 509:.\operations.c ****         if(value2[x]==','){
 1583              		.loc 1 509 0
 1584 00de 97F84730 		ldrb	r3, [r7, #71]	@ zero_extendqisi2
 1585 00e2 BA68     		ldr	r2, [r7, #8]
 1586 00e4 1344     		add	r3, r3, r2
 1587 00e6 1B78     		ldrb	r3, [r3]	@ zero_extendqisi2
 1588 00e8 2C2B     		cmp	r3, #44
 1589 00ea 1DD1     		bne	.L111
 510:.\operations.c ****             while(x>0){
 1590              		.loc 1 510 0
 1591 00ec 14E0     		b	.L112
 1592              	.L113:
 511:.\operations.c ****                 tempValue2[x]=value2[x-1]&0x0f;
 1593              		.loc 1 511 0
 1594 00ee 97F84730 		ldrb	r3, [r7, #71]	@ zero_extendqisi2
 1595 00f2 97F84720 		ldrb	r2, [r7, #71]	@ zero_extendqisi2
 1596 00f6 013A     		subs	r2, r2, #1
 1597 00f8 B968     		ldr	r1, [r7, #8]
 1598 00fa 0A44     		add	r2, r2, r1
 1599 00fc 1278     		ldrb	r2, [r2]	@ zero_extendqisi2
 1600 00fe 02F00F02 		and	r2, r2, #15
 1601 0102 D2B2     		uxtb	r2, r2
 1602 0104 07F14801 		add	r1, r7, #72
 1603 0108 0B44     		add	r3, r3, r1
 1604 010a 03F81C2C 		strb	r2, [r3, #-28]
 512:.\operations.c ****                 x--;
 1605              		.loc 1 512 0
ARM GAS  C:\Users\PROYEC~1\AppData\Local\Temp\ccczGU2D.s 			page 39


 1606 010e 97F84730 		ldrb	r3, [r7, #71]	@ zero_extendqisi2
 1607 0112 013B     		subs	r3, r3, #1
 1608 0114 87F84730 		strb	r3, [r7, #71]
 1609              	.L112:
 510:.\operations.c ****             while(x>0){
 1610              		.loc 1 510 0
 1611 0118 97F84730 		ldrb	r3, [r7, #71]	@ zero_extendqisi2
 1612 011c 002B     		cmp	r3, #0
 1613 011e E6D1     		bne	.L113
 513:.\operations.c ****             }
 514:.\operations.c ****             tempValue2[1]=0;
 1614              		.loc 1 514 0
 1615 0120 0023     		movs	r3, #0
 1616 0122 87F82D30 		strb	r3, [r7, #45]
 515:.\operations.c ****             break;
 1617              		.loc 1 515 0
 1618 0126 08E0     		b	.L114
 1619              	.L111:
 507:.\operations.c ****         tempValue2[x]=value2[x]&0x0f;
 1620              		.loc 1 507 0 discriminator 2
 1621 0128 97F84730 		ldrb	r3, [r7, #71]	@ zero_extendqisi2
 1622 012c 013B     		subs	r3, r3, #1
 1623 012e 87F84730 		strb	r3, [r7, #71]
 1624              	.L110:
 507:.\operations.c ****         tempValue2[x]=value2[x]&0x0f;
 1625              		.loc 1 507 0 is_stmt 0 discriminator 1
 1626 0132 97F84730 		ldrb	r3, [r7, #71]	@ zero_extendqisi2
 1627 0136 002B     		cmp	r3, #0
 1628 0138 C2D1     		bne	.L115
 1629              	.L114:
 516:.\operations.c ****         }
 517:.\operations.c ****     }
 518:.\operations.c ****     tempValue3[0]=value3[0];
 1630              		.loc 1 518 0 is_stmt 1
 1631 013a 7B68     		ldr	r3, [r7, #4]
 1632 013c 1B78     		ldrb	r3, [r3]	@ zero_extendqisi2
 1633 013e 87F82030 		strb	r3, [r7, #32]
 519:.\operations.c ****     for(x=value3[0];x>0;x--){
 1634              		.loc 1 519 0
 1635 0142 7B68     		ldr	r3, [r7, #4]
 1636 0144 1B78     		ldrb	r3, [r3]
 1637 0146 87F84730 		strb	r3, [r7, #71]
 1638 014a 38E0     		b	.L116
 1639              	.L121:
 520:.\operations.c ****         tempValue3[x]=value3[x]&0x0f;
 1640              		.loc 1 520 0
 1641 014c 97F84730 		ldrb	r3, [r7, #71]	@ zero_extendqisi2
 1642 0150 97F84720 		ldrb	r2, [r7, #71]	@ zero_extendqisi2
 1643 0154 7968     		ldr	r1, [r7, #4]
 1644 0156 0A44     		add	r2, r2, r1
 1645 0158 1278     		ldrb	r2, [r2]	@ zero_extendqisi2
 1646 015a 02F00F02 		and	r2, r2, #15
 1647 015e D2B2     		uxtb	r2, r2
 1648 0160 07F14801 		add	r1, r7, #72
 1649 0164 0B44     		add	r3, r3, r1
 1650 0166 03F8282C 		strb	r2, [r3, #-40]
 521:.\operations.c ****         if(value3[x]==','){
ARM GAS  C:\Users\PROYEC~1\AppData\Local\Temp\ccczGU2D.s 			page 40


 1651              		.loc 1 521 0
 1652 016a 97F84730 		ldrb	r3, [r7, #71]	@ zero_extendqisi2
 1653 016e 7A68     		ldr	r2, [r7, #4]
 1654 0170 1344     		add	r3, r3, r2
 1655 0172 1B78     		ldrb	r3, [r3]	@ zero_extendqisi2
 1656 0174 2C2B     		cmp	r3, #44
 1657 0176 1DD1     		bne	.L117
 522:.\operations.c ****             while(x>0){
 1658              		.loc 1 522 0
 1659 0178 14E0     		b	.L118
 1660              	.L119:
 523:.\operations.c ****                 tempValue3[x]=value3[x-1]&0x0f;
 1661              		.loc 1 523 0
 1662 017a 97F84730 		ldrb	r3, [r7, #71]	@ zero_extendqisi2
 1663 017e 97F84720 		ldrb	r2, [r7, #71]	@ zero_extendqisi2
 1664 0182 013A     		subs	r2, r2, #1
 1665 0184 7968     		ldr	r1, [r7, #4]
 1666 0186 0A44     		add	r2, r2, r1
 1667 0188 1278     		ldrb	r2, [r2]	@ zero_extendqisi2
 1668 018a 02F00F02 		and	r2, r2, #15
 1669 018e D2B2     		uxtb	r2, r2
 1670 0190 07F14801 		add	r1, r7, #72
 1671 0194 0B44     		add	r3, r3, r1
 1672 0196 03F8282C 		strb	r2, [r3, #-40]
 524:.\operations.c ****                 x--;
 1673              		.loc 1 524 0
 1674 019a 97F84730 		ldrb	r3, [r7, #71]	@ zero_extendqisi2
 1675 019e 013B     		subs	r3, r3, #1
 1676 01a0 87F84730 		strb	r3, [r7, #71]
 1677              	.L118:
 522:.\operations.c ****             while(x>0){
 1678              		.loc 1 522 0
 1679 01a4 97F84730 		ldrb	r3, [r7, #71]	@ zero_extendqisi2
 1680 01a8 002B     		cmp	r3, #0
 1681 01aa E6D1     		bne	.L119
 525:.\operations.c ****             }
 526:.\operations.c ****             tempValue3[1]=0;
 1682              		.loc 1 526 0
 1683 01ac 0023     		movs	r3, #0
 1684 01ae 87F82130 		strb	r3, [r7, #33]
 527:.\operations.c ****             break;
 1685              		.loc 1 527 0
 1686 01b2 08E0     		b	.L120
 1687              	.L117:
 519:.\operations.c ****         tempValue3[x]=value3[x]&0x0f;
 1688              		.loc 1 519 0 discriminator 2
 1689 01b4 97F84730 		ldrb	r3, [r7, #71]	@ zero_extendqisi2
 1690 01b8 013B     		subs	r3, r3, #1
 1691 01ba 87F84730 		strb	r3, [r7, #71]
 1692              	.L116:
 519:.\operations.c ****         tempValue3[x]=value3[x]&0x0f;
 1693              		.loc 1 519 0 is_stmt 0 discriminator 1
 1694 01be 97F84730 		ldrb	r3, [r7, #71]	@ zero_extendqisi2
 1695 01c2 002B     		cmp	r3, #0
 1696 01c4 C2D1     		bne	.L121
 1697              	.L120:
 528:.\operations.c ****         }
ARM GAS  C:\Users\PROYEC~1\AppData\Local\Temp\ccczGU2D.s 			page 41


 529:.\operations.c ****     }
 530:.\operations.c ****     tenth=0;
 1698              		.loc 1 530 0 is_stmt 1
 1699 01c6 0023     		movs	r3, #0
 1700 01c8 87F84430 		strb	r3, [r7, #68]
 531:.\operations.c ****     for(x=8;x>0;x--){
 1701              		.loc 1 531 0
 1702 01cc 0823     		movs	r3, #8
 1703 01ce 87F84730 		strb	r3, [r7, #71]
 1704 01d2 57E0     		b	.L122
 1705              	.L123:
 532:.\operations.c ****         tempValue[x]=((tempValue1[x]+tempValue2[x])+(tempValue3[x]+tenth))%10;
 1706              		.loc 1 532 0 discriminator 3
 1707 01d4 97F84700 		ldrb	r0, [r7, #71]	@ zero_extendqisi2
 1708 01d8 97F84730 		ldrb	r3, [r7, #71]	@ zero_extendqisi2
 1709 01dc 07F14802 		add	r2, r7, #72
 1710 01e0 1344     		add	r3, r3, r2
 1711 01e2 13F8103C 		ldrb	r3, [r3, #-16]	@ zero_extendqisi2
 1712 01e6 1A46     		mov	r2, r3
 1713 01e8 97F84730 		ldrb	r3, [r7, #71]	@ zero_extendqisi2
 1714 01ec 07F14801 		add	r1, r7, #72
 1715 01f0 0B44     		add	r3, r3, r1
 1716 01f2 13F81C3C 		ldrb	r3, [r3, #-28]	@ zero_extendqisi2
 1717 01f6 1A44     		add	r2, r2, r3
 1718 01f8 97F84730 		ldrb	r3, [r7, #71]	@ zero_extendqisi2
 1719 01fc 07F14801 		add	r1, r7, #72
 1720 0200 0B44     		add	r3, r3, r1
 1721 0202 13F8283C 		ldrb	r3, [r3, #-40]	@ zero_extendqisi2
 1722 0206 1946     		mov	r1, r3
 1723 0208 97F84430 		ldrb	r3, [r7, #68]	@ zero_extendqisi2
 1724 020c 0B44     		add	r3, r3, r1
 1725 020e 1A44     		add	r2, r2, r3
 1726 0210 434B     		ldr	r3, .L127
 1727 0212 83FB0213 		smull	r1, r3, r3, r2
 1728 0216 9910     		asrs	r1, r3, #2
 1729 0218 D317     		asrs	r3, r2, #31
 1730 021a C91A     		subs	r1, r1, r3
 1731 021c 0B46     		mov	r3, r1
 1732 021e 9B00     		lsls	r3, r3, #2
 1733 0220 0B44     		add	r3, r3, r1
 1734 0222 5B00     		lsls	r3, r3, #1
 1735 0224 D11A     		subs	r1, r2, r3
 1736 0226 CAB2     		uxtb	r2, r1
 1737 0228 07F14803 		add	r3, r7, #72
 1738 022c 0344     		add	r3, r3, r0
 1739 022e 03F8342C 		strb	r2, [r3, #-52]
 533:.\operations.c ****         tenth=((tempValue1[x]+tempValue2[x])+(tempValue3[x]+tenth))/10;
 1740              		.loc 1 533 0 discriminator 3
 1741 0232 97F84730 		ldrb	r3, [r7, #71]	@ zero_extendqisi2
 1742 0236 07F14802 		add	r2, r7, #72
 1743 023a 1344     		add	r3, r3, r2
 1744 023c 13F8103C 		ldrb	r3, [r3, #-16]	@ zero_extendqisi2
 1745 0240 1A46     		mov	r2, r3
 1746 0242 97F84730 		ldrb	r3, [r7, #71]	@ zero_extendqisi2
 1747 0246 07F14801 		add	r1, r7, #72
 1748 024a 0B44     		add	r3, r3, r1
 1749 024c 13F81C3C 		ldrb	r3, [r3, #-28]	@ zero_extendqisi2
ARM GAS  C:\Users\PROYEC~1\AppData\Local\Temp\ccczGU2D.s 			page 42


 1750 0250 1A44     		add	r2, r2, r3
 1751 0252 97F84730 		ldrb	r3, [r7, #71]	@ zero_extendqisi2
 1752 0256 07F14801 		add	r1, r7, #72
 1753 025a 0B44     		add	r3, r3, r1
 1754 025c 13F8283C 		ldrb	r3, [r3, #-40]	@ zero_extendqisi2
 1755 0260 1946     		mov	r1, r3
 1756 0262 97F84430 		ldrb	r3, [r7, #68]	@ zero_extendqisi2
 1757 0266 0B44     		add	r3, r3, r1
 1758 0268 1344     		add	r3, r3, r2
 1759 026a 2D4A     		ldr	r2, .L127
 1760 026c 82FB0312 		smull	r1, r2, r2, r3
 1761 0270 9210     		asrs	r2, r2, #2
 1762 0272 DB17     		asrs	r3, r3, #31
 1763 0274 D31A     		subs	r3, r2, r3
 1764 0276 87F84430 		strb	r3, [r7, #68]
 531:.\operations.c ****     for(x=8;x>0;x--){
 1765              		.loc 1 531 0 discriminator 3
 1766 027a 97F84730 		ldrb	r3, [r7, #71]	@ zero_extendqisi2
 1767 027e 013B     		subs	r3, r3, #1
 1768 0280 87F84730 		strb	r3, [r7, #71]
 1769              	.L122:
 531:.\operations.c ****     for(x=8;x>0;x--){
 1770              		.loc 1 531 0 is_stmt 0 discriminator 1
 1771 0284 97F84730 		ldrb	r3, [r7, #71]	@ zero_extendqisi2
 1772 0288 002B     		cmp	r3, #0
 1773 028a A3D1     		bne	.L123
 534:.\operations.c ****     }
 535:.\operations.c ****     y=8;
 1774              		.loc 1 535 0 is_stmt 1
 1775 028c 0823     		movs	r3, #8
 1776 028e 87F84630 		strb	r3, [r7, #70]
 536:.\operations.c ****     z=0;
 1777              		.loc 1 536 0
 1778 0292 0023     		movs	r3, #0
 1779 0294 87F84530 		strb	r3, [r7, #69]
 537:.\operations.c ****     temporal[1]=0;
 1780              		.loc 1 537 0
 1781 0298 224B     		ldr	r3, .L127+4
 1782 029a 0022     		movs	r2, #0
 1783 029c 5A70     		strb	r2, [r3, #1]
 538:.\operations.c ****     for(x=9;x>0;x--){
 1784              		.loc 1 538 0
 1785 029e 0923     		movs	r3, #9
 1786 02a0 87F84730 		strb	r3, [r7, #71]
 1787 02a4 2FE0     		b	.L124
 1788              	.L126:
 539:.\operations.c ****         temporal[x]=(tempValue[y]&0x0f)+0x30;
 1789              		.loc 1 539 0
 1790 02a6 97F84730 		ldrb	r3, [r7, #71]	@ zero_extendqisi2
 1791 02aa 97F84620 		ldrb	r2, [r7, #70]	@ zero_extendqisi2
 1792 02ae 07F14801 		add	r1, r7, #72
 1793 02b2 0A44     		add	r2, r2, r1
 1794 02b4 12F8342C 		ldrb	r2, [r2, #-52]	@ zero_extendqisi2
 1795 02b8 02F00F02 		and	r2, r2, #15
 1796 02bc D2B2     		uxtb	r2, r2
 1797 02be 3032     		adds	r2, r2, #48
 1798 02c0 D1B2     		uxtb	r1, r2
ARM GAS  C:\Users\PROYEC~1\AppData\Local\Temp\ccczGU2D.s 			page 43


 1799 02c2 184A     		ldr	r2, .L127+4
 1800 02c4 D154     		strb	r1, [r2, r3]
 540:.\operations.c ****         y--;
 1801              		.loc 1 540 0
 1802 02c6 97F84630 		ldrb	r3, [r7, #70]	@ zero_extendqisi2
 1803 02ca 013B     		subs	r3, r3, #1
 1804 02cc 87F84630 		strb	r3, [r7, #70]
 541:.\operations.c ****         z++;
 1805              		.loc 1 541 0
 1806 02d0 97F84530 		ldrb	r3, [r7, #69]	@ zero_extendqisi2
 1807 02d4 0133     		adds	r3, r3, #1
 1808 02d6 87F84530 		strb	r3, [r7, #69]
 542:.\operations.c ****         if(z==decimalMoney){
 1809              		.loc 1 542 0
 1810 02da 134B     		ldr	r3, .L127+8
 1811 02dc 1B78     		ldrb	r3, [r3]
 1812 02de DBB2     		uxtb	r3, r3
 1813 02e0 97F84520 		ldrb	r2, [r7, #69]	@ zero_extendqisi2
 1814 02e4 9A42     		cmp	r2, r3
 1815 02e6 09D1     		bne	.L125
 543:.\operations.c ****             x--;
 1816              		.loc 1 543 0
 1817 02e8 97F84730 		ldrb	r3, [r7, #71]	@ zero_extendqisi2
 1818 02ec 013B     		subs	r3, r3, #1
 1819 02ee 87F84730 		strb	r3, [r7, #71]
 544:.\operations.c ****             temporal[x]=',';
 1820              		.loc 1 544 0
 1821 02f2 97F84730 		ldrb	r3, [r7, #71]	@ zero_extendqisi2
 1822 02f6 0B4A     		ldr	r2, .L127+4
 1823 02f8 2C21     		movs	r1, #44
 1824 02fa D154     		strb	r1, [r2, r3]
 1825              	.L125:
 538:.\operations.c ****         temporal[x]=(tempValue[y]&0x0f)+0x30;
 1826              		.loc 1 538 0 discriminator 2
 1827 02fc 97F84730 		ldrb	r3, [r7, #71]	@ zero_extendqisi2
 1828 0300 013B     		subs	r3, r3, #1
 1829 0302 87F84730 		strb	r3, [r7, #71]
 1830              	.L124:
 538:.\operations.c ****         temporal[x]=(tempValue[y]&0x0f)+0x30;
 1831              		.loc 1 538 0 is_stmt 0 discriminator 1
 1832 0306 97F84730 		ldrb	r3, [r7, #71]	@ zero_extendqisi2
 1833 030a 002B     		cmp	r3, #0
 1834 030c CBD1     		bne	.L126
 545:.\operations.c ****         }
 546:.\operations.c ****     }
 547:.\operations.c ****     temporal[0]=9;
 1835              		.loc 1 547 0 is_stmt 1
 1836 030e 054B     		ldr	r3, .L127+4
 1837 0310 0922     		movs	r2, #9
 1838 0312 1A70     		strb	r2, [r3]
 548:.\operations.c **** }...
 1839              		.loc 1 548 0
 1840 0314 4C37     		adds	r7, r7, #76
 1841              		.cfi_def_cfa_offset 4
 1842 0316 BD46     		mov	sp, r7
 1843              		.cfi_def_cfa_register 13
 1844              		@ sp needed
ARM GAS  C:\Users\PROYEC~1\AppData\Local\Temp\ccczGU2D.s 			page 44


 1845 0318 5DF8047B 		ldr	r7, [sp], #4
 1846              		.cfi_restore 7
 1847              		.cfi_def_cfa_offset 0
 1848 031c 7047     		bx	lr
 1849              	.L128:
 1850 031e 00BF     		.align	2
 1851              	.L127:
 1852 0320 67666666 		.word	1717986919
 1853 0324 00000000 		.word	temporal
 1854 0328 00000000 		.word	decimalMoney
 1855              		.cfi_endproc
 1856              	.LFE60:
 1857              		.size	addition_market, .-addition_market
 1858              		.text
 1859              	.Letext0:
 1860              		.file 2 "c:\\program files (x86)\\cypress\\psoc creator\\3.3\\psoc creator\\import\\gnu\\arm\\4.9.
 1861              		.file 3 "c:\\program files (x86)\\cypress\\psoc creator\\3.3\\psoc creator\\import\\gnu\\arm\\4.9.
 1862              		.file 4 "Generated_Source\\PSoC5/cytypes.h"
 1863              		.file 5 "./variables.h"
 1864              		.file 6 "Generated_Source\\PSoC5/core_cm3.h"