ARM GAS  C:\Users\PROYEC~1\AppData\Local\Temp\ccggXJIG.s 			page 1


   1              		.syntax unified
   2              		.cpu cortex-m3
   3              		.fpu softvfp
   4              		.eabi_attribute 20, 1
   5              		.eabi_attribute 21, 1
   6              		.eabi_attribute 23, 3
   7              		.eabi_attribute 24, 1
   8              		.eabi_attribute 25, 1
   9              		.eabi_attribute 26, 1
  10              		.eabi_attribute 30, 6
  11              		.eabi_attribute 34, 1
  12              		.eabi_attribute 18, 4
  13              		.thumb
  14              		.file	"Print_Bill.c"
  15              		.text
  16              	.Ltext0:
  17              		.cfi_sections	.debug_frame
  18              		.global	Print_Bill_initVar
  19              		.bss
  20              		.type	Print_Bill_initVar, %object
  21              		.size	Print_Bill_initVar, 1
  22              	Print_Bill_initVar:
  23 0000 00       		.space	1
  24              		.comm	Print_Bill_rxBuffer,20,4
  25              		.global	Print_Bill_rxBufferRead
  26              		.type	Print_Bill_rxBufferRead, %object
  27              		.size	Print_Bill_rxBufferRead, 1
  28              	Print_Bill_rxBufferRead:
  29 0001 00       		.space	1
  30              		.global	Print_Bill_rxBufferWrite
  31              		.type	Print_Bill_rxBufferWrite, %object
  32              		.size	Print_Bill_rxBufferWrite, 1
  33              	Print_Bill_rxBufferWrite:
  34 0002 00       		.space	1
  35              		.global	Print_Bill_rxBufferLoopDetect
  36              		.type	Print_Bill_rxBufferLoopDetect, %object
  37              		.size	Print_Bill_rxBufferLoopDetect, 1
  38              	Print_Bill_rxBufferLoopDetect:
  39 0003 00       		.space	1
  40              		.global	Print_Bill_rxBufferOverflow
  41              		.type	Print_Bill_rxBufferOverflow, %object
  42              		.size	Print_Bill_rxBufferOverflow, 1
  43              	Print_Bill_rxBufferOverflow:
  44 0004 00       		.space	1
  45              		.section	.text.Print_Bill_Start,"ax",%progbits
  46              		.align	2
  47              		.global	Print_Bill_Start
  48              		.thumb
  49              		.thumb_func
  50              		.type	Print_Bill_Start, %function
  51              	Print_Bill_Start:
  52              	.LFB0:
  53              		.file 1 ".\\Generated_Source\\PSoC5\\Print_Bill.c"
   1:.\Generated_Source\PSoC5/Print_Bill.c **** /*******************************************************************************
   2:.\Generated_Source\PSoC5/Print_Bill.c **** * File Name: Print_Bill.c
   3:.\Generated_Source\PSoC5/Print_Bill.c **** * Version 2.30
   4:.\Generated_Source\PSoC5/Print_Bill.c **** *
ARM GAS  C:\Users\PROYEC~1\AppData\Local\Temp\ccggXJIG.s 			page 2


   5:.\Generated_Source\PSoC5/Print_Bill.c **** * Description:
   6:.\Generated_Source\PSoC5/Print_Bill.c **** *  This file provides all API functionality of the UART component
   7:.\Generated_Source\PSoC5/Print_Bill.c **** *
   8:.\Generated_Source\PSoC5/Print_Bill.c **** * Note:
   9:.\Generated_Source\PSoC5/Print_Bill.c **** *
  10:.\Generated_Source\PSoC5/Print_Bill.c **** ********************************************************************************
  11:.\Generated_Source\PSoC5/Print_Bill.c **** * Copyright 2008-2012, Cypress Semiconductor Corporation.  All rights reserved.
  12:.\Generated_Source\PSoC5/Print_Bill.c **** * You may use this file only in accordance with the license, terms, conditions,
  13:.\Generated_Source\PSoC5/Print_Bill.c **** * disclaimers, and limitations in the end user license agreement accompanying
  14:.\Generated_Source\PSoC5/Print_Bill.c **** * the software package with which this file was provided.
  15:.\Generated_Source\PSoC5/Print_Bill.c **** *******************************************************************************/
  16:.\Generated_Source\PSoC5/Print_Bill.c **** 
  17:.\Generated_Source\PSoC5/Print_Bill.c **** #include "Print_Bill.h"
  18:.\Generated_Source\PSoC5/Print_Bill.c **** #include "CyLib.h"
  19:.\Generated_Source\PSoC5/Print_Bill.c **** #if(Print_Bill_INTERNAL_CLOCK_USED)
  20:.\Generated_Source\PSoC5/Print_Bill.c ****     #include "Print_Bill_IntClock.h"
  21:.\Generated_Source\PSoC5/Print_Bill.c **** #endif /* End Print_Bill_INTERNAL_CLOCK_USED */
  22:.\Generated_Source\PSoC5/Print_Bill.c **** 
  23:.\Generated_Source\PSoC5/Print_Bill.c **** 
  24:.\Generated_Source\PSoC5/Print_Bill.c **** /***************************************
  25:.\Generated_Source\PSoC5/Print_Bill.c **** * Global data allocation
  26:.\Generated_Source\PSoC5/Print_Bill.c **** ***************************************/
  27:.\Generated_Source\PSoC5/Print_Bill.c **** 
  28:.\Generated_Source\PSoC5/Print_Bill.c **** uint8 Print_Bill_initVar = 0u;
  29:.\Generated_Source\PSoC5/Print_Bill.c **** #if( Print_Bill_TX_ENABLED && (Print_Bill_TXBUFFERSIZE > Print_Bill_FIFO_LENGTH))
  30:.\Generated_Source\PSoC5/Print_Bill.c ****     volatile uint8 Print_Bill_txBuffer[Print_Bill_TXBUFFERSIZE];
  31:.\Generated_Source\PSoC5/Print_Bill.c ****     volatile uint8 Print_Bill_txBufferRead = 0u;
  32:.\Generated_Source\PSoC5/Print_Bill.c ****     uint8 Print_Bill_txBufferWrite = 0u;
  33:.\Generated_Source\PSoC5/Print_Bill.c **** #endif /* End Print_Bill_TX_ENABLED */
  34:.\Generated_Source\PSoC5/Print_Bill.c **** #if( ( Print_Bill_RX_ENABLED || Print_Bill_HD_ENABLED ) && \
  35:.\Generated_Source\PSoC5/Print_Bill.c ****      (Print_Bill_RXBUFFERSIZE > Print_Bill_FIFO_LENGTH) )
  36:.\Generated_Source\PSoC5/Print_Bill.c ****     volatile uint8 Print_Bill_rxBuffer[Print_Bill_RXBUFFERSIZE];
  37:.\Generated_Source\PSoC5/Print_Bill.c ****     volatile uint8 Print_Bill_rxBufferRead = 0u;
  38:.\Generated_Source\PSoC5/Print_Bill.c ****     volatile uint8 Print_Bill_rxBufferWrite = 0u;
  39:.\Generated_Source\PSoC5/Print_Bill.c ****     volatile uint8 Print_Bill_rxBufferLoopDetect = 0u;
  40:.\Generated_Source\PSoC5/Print_Bill.c ****     volatile uint8 Print_Bill_rxBufferOverflow = 0u;
  41:.\Generated_Source\PSoC5/Print_Bill.c ****     #if (Print_Bill_RXHW_ADDRESS_ENABLED)
  42:.\Generated_Source\PSoC5/Print_Bill.c ****         volatile uint8 Print_Bill_rxAddressMode = Print_Bill_RXADDRESSMODE;
  43:.\Generated_Source\PSoC5/Print_Bill.c ****         volatile uint8 Print_Bill_rxAddressDetected = 0u;
  44:.\Generated_Source\PSoC5/Print_Bill.c ****     #endif /* End EnableHWAddress */
  45:.\Generated_Source\PSoC5/Print_Bill.c **** #endif /* End Print_Bill_RX_ENABLED */
  46:.\Generated_Source\PSoC5/Print_Bill.c **** 
  47:.\Generated_Source\PSoC5/Print_Bill.c **** 
  48:.\Generated_Source\PSoC5/Print_Bill.c **** /*******************************************************************************
  49:.\Generated_Source\PSoC5/Print_Bill.c **** * Function Name: Print_Bill_Start
  50:.\Generated_Source\PSoC5/Print_Bill.c **** ********************************************************************************
  51:.\Generated_Source\PSoC5/Print_Bill.c **** *
  52:.\Generated_Source\PSoC5/Print_Bill.c **** * Summary:
  53:.\Generated_Source\PSoC5/Print_Bill.c **** *  Initialize and Enable the UART component.
  54:.\Generated_Source\PSoC5/Print_Bill.c **** *  Enable the clock input to enable operation.
  55:.\Generated_Source\PSoC5/Print_Bill.c **** *
  56:.\Generated_Source\PSoC5/Print_Bill.c **** * Parameters:
  57:.\Generated_Source\PSoC5/Print_Bill.c **** *  None.
  58:.\Generated_Source\PSoC5/Print_Bill.c **** *
  59:.\Generated_Source\PSoC5/Print_Bill.c **** * Return:
  60:.\Generated_Source\PSoC5/Print_Bill.c **** *  None.
  61:.\Generated_Source\PSoC5/Print_Bill.c **** *
ARM GAS  C:\Users\PROYEC~1\AppData\Local\Temp\ccggXJIG.s 			page 3


  62:.\Generated_Source\PSoC5/Print_Bill.c **** * Global variables:
  63:.\Generated_Source\PSoC5/Print_Bill.c **** *  The Print_Bill_intiVar variable is used to indicate initial
  64:.\Generated_Source\PSoC5/Print_Bill.c **** *  configuration of this component. The variable is initialized to zero (0u)
  65:.\Generated_Source\PSoC5/Print_Bill.c **** *  and set to one (1u) the first time UART_Start() is called. This allows for
  66:.\Generated_Source\PSoC5/Print_Bill.c **** *  component initialization without re-initialization in all subsequent calls
  67:.\Generated_Source\PSoC5/Print_Bill.c **** *  to the Print_Bill_Start() routine.
  68:.\Generated_Source\PSoC5/Print_Bill.c **** *
  69:.\Generated_Source\PSoC5/Print_Bill.c **** * Reentrant:
  70:.\Generated_Source\PSoC5/Print_Bill.c **** *  No.
  71:.\Generated_Source\PSoC5/Print_Bill.c **** *
  72:.\Generated_Source\PSoC5/Print_Bill.c **** *******************************************************************************/
  73:.\Generated_Source\PSoC5/Print_Bill.c **** void Print_Bill_Start(void) 
  74:.\Generated_Source\PSoC5/Print_Bill.c **** {
  54              		.loc 1 74 0
  55              		.cfi_startproc
  56              		@ args = 0, pretend = 0, frame = 0
  57              		@ frame_needed = 1, uses_anonymous_args = 0
  58 0000 80B5     		push	{r7, lr}
  59              		.cfi_def_cfa_offset 8
  60              		.cfi_offset 7, -8
  61              		.cfi_offset 14, -4
  62 0002 00AF     		add	r7, sp, #0
  63              		.cfi_def_cfa_register 7
  75:.\Generated_Source\PSoC5/Print_Bill.c ****     /* If not Initialized then initialize all required hardware and software */
  76:.\Generated_Source\PSoC5/Print_Bill.c ****     if(Print_Bill_initVar == 0u)
  64              		.loc 1 76 0
  65 0004 054B     		ldr	r3, .L3
  66 0006 1B78     		ldrb	r3, [r3]	@ zero_extendqisi2
  67 0008 002B     		cmp	r3, #0
  68 000a 04D1     		bne	.L2
  77:.\Generated_Source\PSoC5/Print_Bill.c ****     {
  78:.\Generated_Source\PSoC5/Print_Bill.c ****         Print_Bill_Init();
  69              		.loc 1 78 0
  70 000c FFF7FEFF 		bl	Print_Bill_Init
  79:.\Generated_Source\PSoC5/Print_Bill.c ****         Print_Bill_initVar = 1u;
  71              		.loc 1 79 0
  72 0010 024B     		ldr	r3, .L3
  73 0012 0122     		movs	r2, #1
  74 0014 1A70     		strb	r2, [r3]
  75              	.L2:
  80:.\Generated_Source\PSoC5/Print_Bill.c ****     }
  81:.\Generated_Source\PSoC5/Print_Bill.c ****     Print_Bill_Enable();
  76              		.loc 1 81 0
  77 0016 FFF7FEFF 		bl	Print_Bill_Enable
  82:.\Generated_Source\PSoC5/Print_Bill.c **** }
  78              		.loc 1 82 0
  79 001a 80BD     		pop	{r7, pc}
  80              	.L4:
  81              		.align	2
  82              	.L3:
  83 001c 00000000 		.word	Print_Bill_initVar
  84              		.cfi_endproc
  85              	.LFE0:
  86              		.size	Print_Bill_Start, .-Print_Bill_Start
  87              		.section	.text.Print_Bill_Init,"ax",%progbits
  88              		.align	2
  89              		.global	Print_Bill_Init
ARM GAS  C:\Users\PROYEC~1\AppData\Local\Temp\ccggXJIG.s 			page 4


  90              		.thumb
  91              		.thumb_func
  92              		.type	Print_Bill_Init, %function
  93              	Print_Bill_Init:
  94              	.LFB1:
  83:.\Generated_Source\PSoC5/Print_Bill.c **** 
  84:.\Generated_Source\PSoC5/Print_Bill.c **** 
  85:.\Generated_Source\PSoC5/Print_Bill.c **** /*******************************************************************************
  86:.\Generated_Source\PSoC5/Print_Bill.c **** * Function Name: Print_Bill_Init
  87:.\Generated_Source\PSoC5/Print_Bill.c **** ********************************************************************************
  88:.\Generated_Source\PSoC5/Print_Bill.c **** *
  89:.\Generated_Source\PSoC5/Print_Bill.c **** * Summary:
  90:.\Generated_Source\PSoC5/Print_Bill.c **** *  Initialize component's parameters to the parameters set by user in the
  91:.\Generated_Source\PSoC5/Print_Bill.c **** *  customizer of the component placed onto schematic. Usually called in
  92:.\Generated_Source\PSoC5/Print_Bill.c **** *  Print_Bill_Start().
  93:.\Generated_Source\PSoC5/Print_Bill.c **** *
  94:.\Generated_Source\PSoC5/Print_Bill.c **** * Parameters:
  95:.\Generated_Source\PSoC5/Print_Bill.c **** *  None.
  96:.\Generated_Source\PSoC5/Print_Bill.c **** *
  97:.\Generated_Source\PSoC5/Print_Bill.c **** * Return:
  98:.\Generated_Source\PSoC5/Print_Bill.c **** *  None.
  99:.\Generated_Source\PSoC5/Print_Bill.c **** *
 100:.\Generated_Source\PSoC5/Print_Bill.c **** *******************************************************************************/
 101:.\Generated_Source\PSoC5/Print_Bill.c **** void Print_Bill_Init(void) 
 102:.\Generated_Source\PSoC5/Print_Bill.c **** {
  95              		.loc 1 102 0
  96              		.cfi_startproc
  97              		@ args = 0, pretend = 0, frame = 0
  98              		@ frame_needed = 1, uses_anonymous_args = 0
  99 0000 80B5     		push	{r7, lr}
 100              		.cfi_def_cfa_offset 8
 101              		.cfi_offset 7, -8
 102              		.cfi_offset 14, -4
 103 0002 00AF     		add	r7, sp, #0
 104              		.cfi_def_cfa_register 7
 103:.\Generated_Source\PSoC5/Print_Bill.c ****     #if(Print_Bill_RX_ENABLED || Print_Bill_HD_ENABLED)
 104:.\Generated_Source\PSoC5/Print_Bill.c **** 
 105:.\Generated_Source\PSoC5/Print_Bill.c ****         #if(Print_Bill_RX_INTERRUPT_ENABLED && (Print_Bill_RXBUFFERSIZE > Print_Bill_FIFO_LENGTH))
 106:.\Generated_Source\PSoC5/Print_Bill.c ****             /* Set the RX Interrupt. */
 107:.\Generated_Source\PSoC5/Print_Bill.c ****             (void)CyIntSetVector(Print_Bill_RX_VECT_NUM, &Print_Bill_RXISR);
 105              		.loc 1 107 0
 106 0004 0120     		movs	r0, #1
 107 0006 0B49     		ldr	r1, .L6
 108 0008 FFF7FEFF 		bl	CyIntSetVector
 108:.\Generated_Source\PSoC5/Print_Bill.c ****             CyIntSetPriority(Print_Bill_RX_VECT_NUM, Print_Bill_RX_PRIOR_NUM);
 109              		.loc 1 108 0
 110 000c 0120     		movs	r0, #1
 111 000e 0721     		movs	r1, #7
 112 0010 FFF7FEFF 		bl	CyIntSetPriority
 109:.\Generated_Source\PSoC5/Print_Bill.c ****         #endif /* End Print_Bill_RX_INTERRUPT_ENABLED */
 110:.\Generated_Source\PSoC5/Print_Bill.c **** 
 111:.\Generated_Source\PSoC5/Print_Bill.c ****         #if (Print_Bill_RXHW_ADDRESS_ENABLED)
 112:.\Generated_Source\PSoC5/Print_Bill.c ****             Print_Bill_SetRxAddressMode(Print_Bill_RXAddressMode);
 113:.\Generated_Source\PSoC5/Print_Bill.c ****             Print_Bill_SetRxAddress1(Print_Bill_RXHWADDRESS1);
 114:.\Generated_Source\PSoC5/Print_Bill.c ****             Print_Bill_SetRxAddress2(Print_Bill_RXHWADDRESS2);
 115:.\Generated_Source\PSoC5/Print_Bill.c ****         #endif /* End Print_Bill_RXHW_ADDRESS_ENABLED */
 116:.\Generated_Source\PSoC5/Print_Bill.c **** 
ARM GAS  C:\Users\PROYEC~1\AppData\Local\Temp\ccggXJIG.s 			page 5


 117:.\Generated_Source\PSoC5/Print_Bill.c ****         /* Init Count7 period */
 118:.\Generated_Source\PSoC5/Print_Bill.c ****         Print_Bill_RXBITCTR_PERIOD_REG = Print_Bill_RXBITCTR_INIT;
 113              		.loc 1 118 0
 114 0014 084B     		ldr	r3, .L6+4
 115 0016 7222     		movs	r2, #114
 116 0018 1A70     		strb	r2, [r3]
 119:.\Generated_Source\PSoC5/Print_Bill.c ****         /* Configure the Initial RX interrupt mask */
 120:.\Generated_Source\PSoC5/Print_Bill.c ****         Print_Bill_RXSTATUS_MASK_REG  = Print_Bill_INIT_RX_INTERRUPTS_MASK;
 117              		.loc 1 120 0
 118 001a 084B     		ldr	r3, .L6+8
 119 001c 2022     		movs	r2, #32
 120 001e 1A70     		strb	r2, [r3]
 121:.\Generated_Source\PSoC5/Print_Bill.c ****     #endif /* End Print_Bill_RX_ENABLED || Print_Bill_HD_ENABLED*/
 122:.\Generated_Source\PSoC5/Print_Bill.c **** 
 123:.\Generated_Source\PSoC5/Print_Bill.c ****     #if(Print_Bill_TX_ENABLED)
 124:.\Generated_Source\PSoC5/Print_Bill.c ****         #if(Print_Bill_TX_INTERRUPT_ENABLED && (Print_Bill_TXBUFFERSIZE > Print_Bill_FIFO_LENGTH))
 125:.\Generated_Source\PSoC5/Print_Bill.c ****             /* Set the TX Interrupt. */
 126:.\Generated_Source\PSoC5/Print_Bill.c ****             (void)CyIntSetVector(Print_Bill_TX_VECT_NUM, &Print_Bill_TXISR);
 127:.\Generated_Source\PSoC5/Print_Bill.c ****             CyIntSetPriority(Print_Bill_TX_VECT_NUM, Print_Bill_TX_PRIOR_NUM);
 128:.\Generated_Source\PSoC5/Print_Bill.c ****         #endif /* End Print_Bill_TX_INTERRUPT_ENABLED */
 129:.\Generated_Source\PSoC5/Print_Bill.c **** 
 130:.\Generated_Source\PSoC5/Print_Bill.c ****         /* Write Counter Value for TX Bit Clk Generator*/
 131:.\Generated_Source\PSoC5/Print_Bill.c ****         #if(Print_Bill_TXCLKGEN_DP)
 132:.\Generated_Source\PSoC5/Print_Bill.c ****             Print_Bill_TXBITCLKGEN_CTR_REG = Print_Bill_BIT_CENTER;
 121              		.loc 1 132 0
 122 0020 074B     		ldr	r3, .L6+12
 123 0022 0722     		movs	r2, #7
 124 0024 1A70     		strb	r2, [r3]
 133:.\Generated_Source\PSoC5/Print_Bill.c ****             Print_Bill_TXBITCLKTX_COMPLETE_REG = (Print_Bill_NUMBER_OF_DATA_BITS +
 125              		.loc 1 133 0
 126 0026 074B     		ldr	r3, .L6+16
 127 0028 4822     		movs	r2, #72
 128 002a 1A70     		strb	r2, [r3]
 134:.\Generated_Source\PSoC5/Print_Bill.c ****                         Print_Bill_NUMBER_OF_START_BIT) * Print_Bill_OVER_SAMPLE_COUNT;
 135:.\Generated_Source\PSoC5/Print_Bill.c ****         #else
 136:.\Generated_Source\PSoC5/Print_Bill.c ****             Print_Bill_TXBITCTR_PERIOD_REG = ((Print_Bill_NUMBER_OF_DATA_BITS +
 137:.\Generated_Source\PSoC5/Print_Bill.c ****                         Print_Bill_NUMBER_OF_START_BIT) * Print_Bill_OVER_SAMPLE_8) - 1u;
 138:.\Generated_Source\PSoC5/Print_Bill.c ****         #endif /* End Print_Bill_TXCLKGEN_DP */
 139:.\Generated_Source\PSoC5/Print_Bill.c **** 
 140:.\Generated_Source\PSoC5/Print_Bill.c ****         /* Configure the Initial TX interrupt mask */
 141:.\Generated_Source\PSoC5/Print_Bill.c ****         #if(Print_Bill_TX_INTERRUPT_ENABLED && (Print_Bill_TXBUFFERSIZE > Print_Bill_FIFO_LENGTH))
 142:.\Generated_Source\PSoC5/Print_Bill.c ****             Print_Bill_TXSTATUS_MASK_REG = Print_Bill_TX_STS_FIFO_EMPTY;
 143:.\Generated_Source\PSoC5/Print_Bill.c ****         #else
 144:.\Generated_Source\PSoC5/Print_Bill.c ****             Print_Bill_TXSTATUS_MASK_REG = Print_Bill_INIT_TX_INTERRUPTS_MASK;
 129              		.loc 1 144 0
 130 002c 064B     		ldr	r3, .L6+20
 131 002e 0022     		movs	r2, #0
 132 0030 1A70     		strb	r2, [r3]
 145:.\Generated_Source\PSoC5/Print_Bill.c ****         #endif /*End Print_Bill_TX_INTERRUPT_ENABLED*/
 146:.\Generated_Source\PSoC5/Print_Bill.c **** 
 147:.\Generated_Source\PSoC5/Print_Bill.c ****     #endif /* End Print_Bill_TX_ENABLED */
 148:.\Generated_Source\PSoC5/Print_Bill.c **** 
 149:.\Generated_Source\PSoC5/Print_Bill.c ****     #if(Print_Bill_PARITY_TYPE_SW)  /* Write Parity to Control Register */
 150:.\Generated_Source\PSoC5/Print_Bill.c ****         Print_Bill_WriteControlRegister( \
 151:.\Generated_Source\PSoC5/Print_Bill.c ****             (Print_Bill_ReadControlRegister() & (uint8)~Print_Bill_CTRL_PARITY_TYPE_MASK) | \
 152:.\Generated_Source\PSoC5/Print_Bill.c ****             (uint8)(Print_Bill_PARITY_TYPE << Print_Bill_CTRL_PARITY_TYPE0_SHIFT) );
 153:.\Generated_Source\PSoC5/Print_Bill.c ****     #endif /* End Print_Bill_PARITY_TYPE_SW */
ARM GAS  C:\Users\PROYEC~1\AppData\Local\Temp\ccggXJIG.s 			page 6


 154:.\Generated_Source\PSoC5/Print_Bill.c **** }
 133              		.loc 1 154 0
 134 0032 80BD     		pop	{r7, pc}
 135              	.L7:
 136              		.align	2
 137              	.L6:
 138 0034 00000000 		.word	Print_Bill_RXISR
 139 0038 8F640040 		.word	1073767567
 140 003c 8C640040 		.word	1073767564
 141 0040 27640040 		.word	1073767463
 142 0044 37640040 		.word	1073767479
 143 0048 89640040 		.word	1073767561
 144              		.cfi_endproc
 145              	.LFE1:
 146              		.size	Print_Bill_Init, .-Print_Bill_Init
 147              		.section	.text.Print_Bill_Enable,"ax",%progbits
 148              		.align	2
 149              		.global	Print_Bill_Enable
 150              		.thumb
 151              		.thumb_func
 152              		.type	Print_Bill_Enable, %function
 153              	Print_Bill_Enable:
 154              	.LFB2:
 155:.\Generated_Source\PSoC5/Print_Bill.c **** 
 156:.\Generated_Source\PSoC5/Print_Bill.c **** 
 157:.\Generated_Source\PSoC5/Print_Bill.c **** /*******************************************************************************
 158:.\Generated_Source\PSoC5/Print_Bill.c **** * Function Name: Print_Bill_Enable
 159:.\Generated_Source\PSoC5/Print_Bill.c **** ********************************************************************************
 160:.\Generated_Source\PSoC5/Print_Bill.c **** *
 161:.\Generated_Source\PSoC5/Print_Bill.c **** * Summary:
 162:.\Generated_Source\PSoC5/Print_Bill.c **** *  Enables the UART block operation
 163:.\Generated_Source\PSoC5/Print_Bill.c **** *
 164:.\Generated_Source\PSoC5/Print_Bill.c **** * Parameters:
 165:.\Generated_Source\PSoC5/Print_Bill.c **** *  None.
 166:.\Generated_Source\PSoC5/Print_Bill.c **** *
 167:.\Generated_Source\PSoC5/Print_Bill.c **** * Return:
 168:.\Generated_Source\PSoC5/Print_Bill.c **** *  None.
 169:.\Generated_Source\PSoC5/Print_Bill.c **** *
 170:.\Generated_Source\PSoC5/Print_Bill.c **** * Global Variables:
 171:.\Generated_Source\PSoC5/Print_Bill.c **** *  Print_Bill_rxAddressDetected - set to initial state (0).
 172:.\Generated_Source\PSoC5/Print_Bill.c **** *
 173:.\Generated_Source\PSoC5/Print_Bill.c **** *******************************************************************************/
 174:.\Generated_Source\PSoC5/Print_Bill.c **** void Print_Bill_Enable(void) 
 175:.\Generated_Source\PSoC5/Print_Bill.c **** {
 155              		.loc 1 175 0
 156              		.cfi_startproc
 157              		@ args = 0, pretend = 0, frame = 8
 158              		@ frame_needed = 1, uses_anonymous_args = 0
 159 0000 80B5     		push	{r7, lr}
 160              		.cfi_def_cfa_offset 8
 161              		.cfi_offset 7, -8
 162              		.cfi_offset 14, -4
 163 0002 82B0     		sub	sp, sp, #8
 164              		.cfi_def_cfa_offset 16
 165 0004 00AF     		add	r7, sp, #0
 166              		.cfi_def_cfa_register 7
 176:.\Generated_Source\PSoC5/Print_Bill.c ****     uint8 enableInterrupts;
ARM GAS  C:\Users\PROYEC~1\AppData\Local\Temp\ccggXJIG.s 			page 7


 177:.\Generated_Source\PSoC5/Print_Bill.c ****     enableInterrupts = CyEnterCriticalSection();
 167              		.loc 1 177 0
 168 0006 FFF7FEFF 		bl	CyEnterCriticalSection
 169 000a 0346     		mov	r3, r0
 170 000c FB71     		strb	r3, [r7, #7]
 178:.\Generated_Source\PSoC5/Print_Bill.c **** 
 179:.\Generated_Source\PSoC5/Print_Bill.c ****     #if(Print_Bill_RX_ENABLED || Print_Bill_HD_ENABLED)
 180:.\Generated_Source\PSoC5/Print_Bill.c ****         /*RX Counter (Count7) Enable */
 181:.\Generated_Source\PSoC5/Print_Bill.c ****         Print_Bill_RXBITCTR_CONTROL_REG |= Print_Bill_CNTR_ENABLE;
 171              		.loc 1 181 0
 172 000e 124A     		ldr	r2, .L9
 173 0010 114B     		ldr	r3, .L9
 174 0012 1B78     		ldrb	r3, [r3]
 175 0014 DBB2     		uxtb	r3, r3
 176 0016 43F02003 		orr	r3, r3, #32
 177 001a DBB2     		uxtb	r3, r3
 178 001c 1370     		strb	r3, [r2]
 182:.\Generated_Source\PSoC5/Print_Bill.c ****         /* Enable the RX Interrupt. */
 183:.\Generated_Source\PSoC5/Print_Bill.c ****         Print_Bill_RXSTATUS_ACTL_REG  |= Print_Bill_INT_ENABLE;
 179              		.loc 1 183 0
 180 001e 0F4A     		ldr	r2, .L9+4
 181 0020 0E4B     		ldr	r3, .L9+4
 182 0022 1B78     		ldrb	r3, [r3]
 183 0024 DBB2     		uxtb	r3, r3
 184 0026 43F01003 		orr	r3, r3, #16
 185 002a DBB2     		uxtb	r3, r3
 186 002c 1370     		strb	r3, [r2]
 184:.\Generated_Source\PSoC5/Print_Bill.c ****         #if(Print_Bill_RX_INTERRUPT_ENABLED && (Print_Bill_RXBUFFERSIZE > Print_Bill_FIFO_LENGTH))
 185:.\Generated_Source\PSoC5/Print_Bill.c ****             CyIntEnable(Print_Bill_RX_VECT_NUM);
 187              		.loc 1 185 0
 188 002e 0C4B     		ldr	r3, .L9+8
 189 0030 0222     		movs	r2, #2
 190 0032 1A60     		str	r2, [r3]
 186:.\Generated_Source\PSoC5/Print_Bill.c ****             #if (Print_Bill_RXHW_ADDRESS_ENABLED)
 187:.\Generated_Source\PSoC5/Print_Bill.c ****                 Print_Bill_rxAddressDetected = 0u;
 188:.\Generated_Source\PSoC5/Print_Bill.c ****             #endif /* End Print_Bill_RXHW_ADDRESS_ENABLED */
 189:.\Generated_Source\PSoC5/Print_Bill.c ****         #endif /* End Print_Bill_RX_INTERRUPT_ENABLED */
 190:.\Generated_Source\PSoC5/Print_Bill.c ****     #endif /* End Print_Bill_RX_ENABLED || Print_Bill_HD_ENABLED*/
 191:.\Generated_Source\PSoC5/Print_Bill.c **** 
 192:.\Generated_Source\PSoC5/Print_Bill.c ****     #if(Print_Bill_TX_ENABLED)
 193:.\Generated_Source\PSoC5/Print_Bill.c ****         /*TX Counter (DP/Count7) Enable */
 194:.\Generated_Source\PSoC5/Print_Bill.c ****         #if(!Print_Bill_TXCLKGEN_DP)
 195:.\Generated_Source\PSoC5/Print_Bill.c ****             Print_Bill_TXBITCTR_CONTROL_REG |= Print_Bill_CNTR_ENABLE;
 196:.\Generated_Source\PSoC5/Print_Bill.c ****         #endif /* End Print_Bill_TXCLKGEN_DP */
 197:.\Generated_Source\PSoC5/Print_Bill.c ****         /* Enable the TX Interrupt. */
 198:.\Generated_Source\PSoC5/Print_Bill.c ****         Print_Bill_TXSTATUS_ACTL_REG |= Print_Bill_INT_ENABLE;
 191              		.loc 1 198 0
 192 0034 0B4A     		ldr	r2, .L9+12
 193 0036 0B4B     		ldr	r3, .L9+12
 194 0038 1B78     		ldrb	r3, [r3]
 195 003a DBB2     		uxtb	r3, r3
 196 003c 43F01003 		orr	r3, r3, #16
 197 0040 DBB2     		uxtb	r3, r3
 198 0042 1370     		strb	r3, [r2]
 199:.\Generated_Source\PSoC5/Print_Bill.c ****         #if(Print_Bill_TX_INTERRUPT_ENABLED && (Print_Bill_TXBUFFERSIZE > Print_Bill_FIFO_LENGTH))
 200:.\Generated_Source\PSoC5/Print_Bill.c ****             CyIntEnable(Print_Bill_TX_VECT_NUM);
 201:.\Generated_Source\PSoC5/Print_Bill.c ****         #endif /* End Print_Bill_TX_INTERRUPT_ENABLED*/
ARM GAS  C:\Users\PROYEC~1\AppData\Local\Temp\ccggXJIG.s 			page 8


 202:.\Generated_Source\PSoC5/Print_Bill.c ****      #endif /* End Print_Bill_TX_ENABLED */
 203:.\Generated_Source\PSoC5/Print_Bill.c **** 
 204:.\Generated_Source\PSoC5/Print_Bill.c ****     #if(Print_Bill_INTERNAL_CLOCK_USED)
 205:.\Generated_Source\PSoC5/Print_Bill.c ****         /* Enable the clock. */
 206:.\Generated_Source\PSoC5/Print_Bill.c ****         Print_Bill_IntClock_Start();
 199              		.loc 1 206 0
 200 0044 FFF7FEFF 		bl	Print_Bill_IntClock_Start
 207:.\Generated_Source\PSoC5/Print_Bill.c ****     #endif /* End Print_Bill_INTERNAL_CLOCK_USED */
 208:.\Generated_Source\PSoC5/Print_Bill.c **** 
 209:.\Generated_Source\PSoC5/Print_Bill.c ****     CyExitCriticalSection(enableInterrupts);
 201              		.loc 1 209 0
 202 0048 FB79     		ldrb	r3, [r7, #7]	@ zero_extendqisi2
 203 004a 1846     		mov	r0, r3
 204 004c FFF7FEFF 		bl	CyExitCriticalSection
 210:.\Generated_Source\PSoC5/Print_Bill.c **** }
 205              		.loc 1 210 0
 206 0050 0837     		adds	r7, r7, #8
 207              		.cfi_def_cfa_offset 8
 208 0052 BD46     		mov	sp, r7
 209              		.cfi_def_cfa_register 13
 210              		@ sp needed
 211 0054 80BD     		pop	{r7, pc}
 212              	.L10:
 213 0056 00BF     		.align	2
 214              	.L9:
 215 0058 9F640040 		.word	1073767583
 216 005c 9C640040 		.word	1073767580
 217 0060 00E100E0 		.word	-536813312
 218 0064 99640040 		.word	1073767577
 219              		.cfi_endproc
 220              	.LFE2:
 221              		.size	Print_Bill_Enable, .-Print_Bill_Enable
 222              		.section	.text.Print_Bill_Stop,"ax",%progbits
 223              		.align	2
 224              		.global	Print_Bill_Stop
 225              		.thumb
 226              		.thumb_func
 227              		.type	Print_Bill_Stop, %function
 228              	Print_Bill_Stop:
 229              	.LFB3:
 211:.\Generated_Source\PSoC5/Print_Bill.c **** 
 212:.\Generated_Source\PSoC5/Print_Bill.c **** 
 213:.\Generated_Source\PSoC5/Print_Bill.c **** /*******************************************************************************
 214:.\Generated_Source\PSoC5/Print_Bill.c **** * Function Name: Print_Bill_Stop
 215:.\Generated_Source\PSoC5/Print_Bill.c **** ********************************************************************************
 216:.\Generated_Source\PSoC5/Print_Bill.c **** *
 217:.\Generated_Source\PSoC5/Print_Bill.c **** * Summary:
 218:.\Generated_Source\PSoC5/Print_Bill.c **** *  Disable the UART component
 219:.\Generated_Source\PSoC5/Print_Bill.c **** *
 220:.\Generated_Source\PSoC5/Print_Bill.c **** * Parameters:
 221:.\Generated_Source\PSoC5/Print_Bill.c **** *  None.
 222:.\Generated_Source\PSoC5/Print_Bill.c **** *
 223:.\Generated_Source\PSoC5/Print_Bill.c **** * Return:
 224:.\Generated_Source\PSoC5/Print_Bill.c **** *  None.
 225:.\Generated_Source\PSoC5/Print_Bill.c **** *
 226:.\Generated_Source\PSoC5/Print_Bill.c **** *******************************************************************************/
 227:.\Generated_Source\PSoC5/Print_Bill.c **** void Print_Bill_Stop(void) 
ARM GAS  C:\Users\PROYEC~1\AppData\Local\Temp\ccggXJIG.s 			page 9


 228:.\Generated_Source\PSoC5/Print_Bill.c **** {
 230              		.loc 1 228 0
 231              		.cfi_startproc
 232              		@ args = 0, pretend = 0, frame = 8
 233              		@ frame_needed = 1, uses_anonymous_args = 0
 234 0000 80B5     		push	{r7, lr}
 235              		.cfi_def_cfa_offset 8
 236              		.cfi_offset 7, -8
 237              		.cfi_offset 14, -4
 238 0002 82B0     		sub	sp, sp, #8
 239              		.cfi_def_cfa_offset 16
 240 0004 00AF     		add	r7, sp, #0
 241              		.cfi_def_cfa_register 7
 229:.\Generated_Source\PSoC5/Print_Bill.c ****     uint8 enableInterrupts;
 230:.\Generated_Source\PSoC5/Print_Bill.c ****     enableInterrupts = CyEnterCriticalSection();
 242              		.loc 1 230 0
 243 0006 FFF7FEFF 		bl	CyEnterCriticalSection
 244 000a 0346     		mov	r3, r0
 245 000c FB71     		strb	r3, [r7, #7]
 231:.\Generated_Source\PSoC5/Print_Bill.c **** 
 232:.\Generated_Source\PSoC5/Print_Bill.c ****     /* Write Bit Counter Disable */
 233:.\Generated_Source\PSoC5/Print_Bill.c ****     #if(Print_Bill_RX_ENABLED || Print_Bill_HD_ENABLED)
 234:.\Generated_Source\PSoC5/Print_Bill.c ****         Print_Bill_RXBITCTR_CONTROL_REG &= (uint8)~Print_Bill_CNTR_ENABLE;
 246              		.loc 1 234 0
 247 000e 114A     		ldr	r2, .L12
 248 0010 104B     		ldr	r3, .L12
 249 0012 1B78     		ldrb	r3, [r3]
 250 0014 DBB2     		uxtb	r3, r3
 251 0016 23F02003 		bic	r3, r3, #32
 252 001a DBB2     		uxtb	r3, r3
 253 001c 1370     		strb	r3, [r2]
 235:.\Generated_Source\PSoC5/Print_Bill.c ****     #endif /* End Print_Bill_RX_ENABLED */
 236:.\Generated_Source\PSoC5/Print_Bill.c **** 
 237:.\Generated_Source\PSoC5/Print_Bill.c ****     #if(Print_Bill_TX_ENABLED)
 238:.\Generated_Source\PSoC5/Print_Bill.c ****         #if(!Print_Bill_TXCLKGEN_DP)
 239:.\Generated_Source\PSoC5/Print_Bill.c ****             Print_Bill_TXBITCTR_CONTROL_REG &= (uint8)~Print_Bill_CNTR_ENABLE;
 240:.\Generated_Source\PSoC5/Print_Bill.c ****         #endif /* End Print_Bill_TXCLKGEN_DP */
 241:.\Generated_Source\PSoC5/Print_Bill.c ****     #endif /* Print_Bill_TX_ENABLED */
 242:.\Generated_Source\PSoC5/Print_Bill.c **** 
 243:.\Generated_Source\PSoC5/Print_Bill.c ****     #if(Print_Bill_INTERNAL_CLOCK_USED)
 244:.\Generated_Source\PSoC5/Print_Bill.c ****         /* Disable the clock. */
 245:.\Generated_Source\PSoC5/Print_Bill.c ****         Print_Bill_IntClock_Stop();
 254              		.loc 1 245 0
 255 001e FFF7FEFF 		bl	Print_Bill_IntClock_Stop
 246:.\Generated_Source\PSoC5/Print_Bill.c ****     #endif /* End Print_Bill_INTERNAL_CLOCK_USED */
 247:.\Generated_Source\PSoC5/Print_Bill.c **** 
 248:.\Generated_Source\PSoC5/Print_Bill.c ****     /* Disable internal interrupt component */
 249:.\Generated_Source\PSoC5/Print_Bill.c ****     #if(Print_Bill_RX_ENABLED || Print_Bill_HD_ENABLED)
 250:.\Generated_Source\PSoC5/Print_Bill.c ****         Print_Bill_RXSTATUS_ACTL_REG  &= (uint8)~Print_Bill_INT_ENABLE;
 256              		.loc 1 250 0
 257 0022 0D4A     		ldr	r2, .L12+4
 258 0024 0C4B     		ldr	r3, .L12+4
 259 0026 1B78     		ldrb	r3, [r3]
 260 0028 DBB2     		uxtb	r3, r3
 261 002a 23F01003 		bic	r3, r3, #16
 262 002e DBB2     		uxtb	r3, r3
 263 0030 1370     		strb	r3, [r2]
ARM GAS  C:\Users\PROYEC~1\AppData\Local\Temp\ccggXJIG.s 			page 10


 251:.\Generated_Source\PSoC5/Print_Bill.c ****         #if(Print_Bill_RX_INTERRUPT_ENABLED && (Print_Bill_RXBUFFERSIZE > Print_Bill_FIFO_LENGTH))
 252:.\Generated_Source\PSoC5/Print_Bill.c ****             Print_Bill_DisableRxInt();
 264              		.loc 1 252 0
 265 0032 FFF7FEFF 		bl	Print_Bill_DisableRxInt
 253:.\Generated_Source\PSoC5/Print_Bill.c ****         #endif /* End Print_Bill_RX_INTERRUPT_ENABLED */
 254:.\Generated_Source\PSoC5/Print_Bill.c ****     #endif /* End Print_Bill_RX_ENABLED */
 255:.\Generated_Source\PSoC5/Print_Bill.c **** 
 256:.\Generated_Source\PSoC5/Print_Bill.c ****     #if(Print_Bill_TX_ENABLED)
 257:.\Generated_Source\PSoC5/Print_Bill.c ****         Print_Bill_TXSTATUS_ACTL_REG &= (uint8)~Print_Bill_INT_ENABLE;
 266              		.loc 1 257 0
 267 0036 094A     		ldr	r2, .L12+8
 268 0038 084B     		ldr	r3, .L12+8
 269 003a 1B78     		ldrb	r3, [r3]
 270 003c DBB2     		uxtb	r3, r3
 271 003e 23F01003 		bic	r3, r3, #16
 272 0042 DBB2     		uxtb	r3, r3
 273 0044 1370     		strb	r3, [r2]
 258:.\Generated_Source\PSoC5/Print_Bill.c ****         #if(Print_Bill_TX_INTERRUPT_ENABLED && (Print_Bill_TXBUFFERSIZE > Print_Bill_FIFO_LENGTH))
 259:.\Generated_Source\PSoC5/Print_Bill.c ****             Print_Bill_DisableTxInt();
 260:.\Generated_Source\PSoC5/Print_Bill.c ****         #endif /* End Print_Bill_TX_INTERRUPT_ENABLED */
 261:.\Generated_Source\PSoC5/Print_Bill.c ****     #endif /* End Print_Bill_TX_ENABLED */
 262:.\Generated_Source\PSoC5/Print_Bill.c **** 
 263:.\Generated_Source\PSoC5/Print_Bill.c ****     CyExitCriticalSection(enableInterrupts);
 274              		.loc 1 263 0
 275 0046 FB79     		ldrb	r3, [r7, #7]	@ zero_extendqisi2
 276 0048 1846     		mov	r0, r3
 277 004a FFF7FEFF 		bl	CyExitCriticalSection
 264:.\Generated_Source\PSoC5/Print_Bill.c **** }
 278              		.loc 1 264 0
 279 004e 0837     		adds	r7, r7, #8
 280              		.cfi_def_cfa_offset 8
 281 0050 BD46     		mov	sp, r7
 282              		.cfi_def_cfa_register 13
 283              		@ sp needed
 284 0052 80BD     		pop	{r7, pc}
 285              	.L13:
 286              		.align	2
 287              	.L12:
 288 0054 9F640040 		.word	1073767583
 289 0058 9C640040 		.word	1073767580
 290 005c 99640040 		.word	1073767577
 291              		.cfi_endproc
 292              	.LFE3:
 293              		.size	Print_Bill_Stop, .-Print_Bill_Stop
 294              		.section	.text.Print_Bill_ReadControlRegister,"ax",%progbits
 295              		.align	2
 296              		.global	Print_Bill_ReadControlRegister
 297              		.thumb
 298              		.thumb_func
 299              		.type	Print_Bill_ReadControlRegister, %function
 300              	Print_Bill_ReadControlRegister:
 301              	.LFB4:
 265:.\Generated_Source\PSoC5/Print_Bill.c **** 
 266:.\Generated_Source\PSoC5/Print_Bill.c **** 
 267:.\Generated_Source\PSoC5/Print_Bill.c **** /*******************************************************************************
 268:.\Generated_Source\PSoC5/Print_Bill.c **** * Function Name: Print_Bill_ReadControlRegister
 269:.\Generated_Source\PSoC5/Print_Bill.c **** ********************************************************************************
ARM GAS  C:\Users\PROYEC~1\AppData\Local\Temp\ccggXJIG.s 			page 11


 270:.\Generated_Source\PSoC5/Print_Bill.c **** *
 271:.\Generated_Source\PSoC5/Print_Bill.c **** * Summary:
 272:.\Generated_Source\PSoC5/Print_Bill.c **** *  Read the current state of the control register
 273:.\Generated_Source\PSoC5/Print_Bill.c **** *
 274:.\Generated_Source\PSoC5/Print_Bill.c **** * Parameters:
 275:.\Generated_Source\PSoC5/Print_Bill.c **** *  None.
 276:.\Generated_Source\PSoC5/Print_Bill.c **** *
 277:.\Generated_Source\PSoC5/Print_Bill.c **** * Return:
 278:.\Generated_Source\PSoC5/Print_Bill.c **** *  Current state of the control register.
 279:.\Generated_Source\PSoC5/Print_Bill.c **** *
 280:.\Generated_Source\PSoC5/Print_Bill.c **** *******************************************************************************/
 281:.\Generated_Source\PSoC5/Print_Bill.c **** uint8 Print_Bill_ReadControlRegister(void) 
 282:.\Generated_Source\PSoC5/Print_Bill.c **** {
 302              		.loc 1 282 0
 303              		.cfi_startproc
 304              		@ args = 0, pretend = 0, frame = 0
 305              		@ frame_needed = 1, uses_anonymous_args = 0
 306              		@ link register save eliminated.
 307 0000 80B4     		push	{r7}
 308              		.cfi_def_cfa_offset 4
 309              		.cfi_offset 7, -4
 310 0002 00AF     		add	r7, sp, #0
 311              		.cfi_def_cfa_register 7
 283:.\Generated_Source\PSoC5/Print_Bill.c ****     #if( Print_Bill_CONTROL_REG_REMOVED )
 284:.\Generated_Source\PSoC5/Print_Bill.c ****         return(0u);
 312              		.loc 1 284 0
 313 0004 0023     		movs	r3, #0
 285:.\Generated_Source\PSoC5/Print_Bill.c ****     #else
 286:.\Generated_Source\PSoC5/Print_Bill.c ****         return(Print_Bill_CONTROL_REG);
 287:.\Generated_Source\PSoC5/Print_Bill.c ****     #endif /* End Print_Bill_CONTROL_REG_REMOVED */
 288:.\Generated_Source\PSoC5/Print_Bill.c **** }
 314              		.loc 1 288 0
 315 0006 1846     		mov	r0, r3
 316 0008 BD46     		mov	sp, r7
 317              		.cfi_def_cfa_register 13
 318              		@ sp needed
 319 000a 5DF8047B 		ldr	r7, [sp], #4
 320              		.cfi_restore 7
 321              		.cfi_def_cfa_offset 0
 322 000e 7047     		bx	lr
 323              		.cfi_endproc
 324              	.LFE4:
 325              		.size	Print_Bill_ReadControlRegister, .-Print_Bill_ReadControlRegister
 326              		.section	.text.Print_Bill_WriteControlRegister,"ax",%progbits
 327              		.align	2
 328              		.global	Print_Bill_WriteControlRegister
 329              		.thumb
 330              		.thumb_func
 331              		.type	Print_Bill_WriteControlRegister, %function
 332              	Print_Bill_WriteControlRegister:
 333              	.LFB5:
 289:.\Generated_Source\PSoC5/Print_Bill.c **** 
 290:.\Generated_Source\PSoC5/Print_Bill.c **** 
 291:.\Generated_Source\PSoC5/Print_Bill.c **** /*******************************************************************************
 292:.\Generated_Source\PSoC5/Print_Bill.c **** * Function Name: Print_Bill_WriteControlRegister
 293:.\Generated_Source\PSoC5/Print_Bill.c **** ********************************************************************************
 294:.\Generated_Source\PSoC5/Print_Bill.c **** *
ARM GAS  C:\Users\PROYEC~1\AppData\Local\Temp\ccggXJIG.s 			page 12


 295:.\Generated_Source\PSoC5/Print_Bill.c **** * Summary:
 296:.\Generated_Source\PSoC5/Print_Bill.c **** *  Writes an 8-bit value into the control register
 297:.\Generated_Source\PSoC5/Print_Bill.c **** *
 298:.\Generated_Source\PSoC5/Print_Bill.c **** * Parameters:
 299:.\Generated_Source\PSoC5/Print_Bill.c **** *  control:  control register value
 300:.\Generated_Source\PSoC5/Print_Bill.c **** *
 301:.\Generated_Source\PSoC5/Print_Bill.c **** * Return:
 302:.\Generated_Source\PSoC5/Print_Bill.c **** *  None.
 303:.\Generated_Source\PSoC5/Print_Bill.c **** *
 304:.\Generated_Source\PSoC5/Print_Bill.c **** *******************************************************************************/
 305:.\Generated_Source\PSoC5/Print_Bill.c **** void  Print_Bill_WriteControlRegister(uint8 control) 
 306:.\Generated_Source\PSoC5/Print_Bill.c **** {
 334              		.loc 1 306 0
 335              		.cfi_startproc
 336              		@ args = 0, pretend = 0, frame = 8
 337              		@ frame_needed = 1, uses_anonymous_args = 0
 338              		@ link register save eliminated.
 339 0000 80B4     		push	{r7}
 340              		.cfi_def_cfa_offset 4
 341              		.cfi_offset 7, -4
 342 0002 83B0     		sub	sp, sp, #12
 343              		.cfi_def_cfa_offset 16
 344 0004 00AF     		add	r7, sp, #0
 345              		.cfi_def_cfa_register 7
 346 0006 0346     		mov	r3, r0
 347 0008 FB71     		strb	r3, [r7, #7]
 307:.\Generated_Source\PSoC5/Print_Bill.c ****     #if( Print_Bill_CONTROL_REG_REMOVED )
 308:.\Generated_Source\PSoC5/Print_Bill.c ****         if(control != 0u) { }      /* release compiler warning */
 309:.\Generated_Source\PSoC5/Print_Bill.c ****     #else
 310:.\Generated_Source\PSoC5/Print_Bill.c ****        Print_Bill_CONTROL_REG = control;
 311:.\Generated_Source\PSoC5/Print_Bill.c ****     #endif /* End Print_Bill_CONTROL_REG_REMOVED */
 312:.\Generated_Source\PSoC5/Print_Bill.c **** }
 348              		.loc 1 312 0
 349 000a 0C37     		adds	r7, r7, #12
 350              		.cfi_def_cfa_offset 4
 351 000c BD46     		mov	sp, r7
 352              		.cfi_def_cfa_register 13
 353              		@ sp needed
 354 000e 5DF8047B 		ldr	r7, [sp], #4
 355              		.cfi_restore 7
 356              		.cfi_def_cfa_offset 0
 357 0012 7047     		bx	lr
 358              		.cfi_endproc
 359              	.LFE5:
 360              		.size	Print_Bill_WriteControlRegister, .-Print_Bill_WriteControlRegister
 361              		.section	.text.Print_Bill_EnableRxInt,"ax",%progbits
 362              		.align	2
 363              		.global	Print_Bill_EnableRxInt
 364              		.thumb
 365              		.thumb_func
 366              		.type	Print_Bill_EnableRxInt, %function
 367              	Print_Bill_EnableRxInt:
 368              	.LFB6:
 313:.\Generated_Source\PSoC5/Print_Bill.c **** 
 314:.\Generated_Source\PSoC5/Print_Bill.c **** 
 315:.\Generated_Source\PSoC5/Print_Bill.c **** #if(Print_Bill_RX_ENABLED || Print_Bill_HD_ENABLED)
 316:.\Generated_Source\PSoC5/Print_Bill.c **** 
ARM GAS  C:\Users\PROYEC~1\AppData\Local\Temp\ccggXJIG.s 			page 13


 317:.\Generated_Source\PSoC5/Print_Bill.c ****     #if(Print_Bill_RX_INTERRUPT_ENABLED)
 318:.\Generated_Source\PSoC5/Print_Bill.c **** 
 319:.\Generated_Source\PSoC5/Print_Bill.c ****         /*******************************************************************************
 320:.\Generated_Source\PSoC5/Print_Bill.c ****         * Function Name: Print_Bill_EnableRxInt
 321:.\Generated_Source\PSoC5/Print_Bill.c ****         ********************************************************************************
 322:.\Generated_Source\PSoC5/Print_Bill.c ****         *
 323:.\Generated_Source\PSoC5/Print_Bill.c ****         * Summary:
 324:.\Generated_Source\PSoC5/Print_Bill.c ****         *  Enable RX interrupt generation
 325:.\Generated_Source\PSoC5/Print_Bill.c ****         *
 326:.\Generated_Source\PSoC5/Print_Bill.c ****         * Parameters:
 327:.\Generated_Source\PSoC5/Print_Bill.c ****         *  None.
 328:.\Generated_Source\PSoC5/Print_Bill.c ****         *
 329:.\Generated_Source\PSoC5/Print_Bill.c ****         * Return:
 330:.\Generated_Source\PSoC5/Print_Bill.c ****         *  None.
 331:.\Generated_Source\PSoC5/Print_Bill.c ****         *
 332:.\Generated_Source\PSoC5/Print_Bill.c ****         * Theory:
 333:.\Generated_Source\PSoC5/Print_Bill.c ****         *  Enable the interrupt output -or- the interrupt component itself
 334:.\Generated_Source\PSoC5/Print_Bill.c ****         *
 335:.\Generated_Source\PSoC5/Print_Bill.c ****         *******************************************************************************/
 336:.\Generated_Source\PSoC5/Print_Bill.c ****         void Print_Bill_EnableRxInt(void) 
 337:.\Generated_Source\PSoC5/Print_Bill.c ****         {
 369              		.loc 1 337 0
 370              		.cfi_startproc
 371              		@ args = 0, pretend = 0, frame = 0
 372              		@ frame_needed = 1, uses_anonymous_args = 0
 373              		@ link register save eliminated.
 374 0000 80B4     		push	{r7}
 375              		.cfi_def_cfa_offset 4
 376              		.cfi_offset 7, -4
 377 0002 00AF     		add	r7, sp, #0
 378              		.cfi_def_cfa_register 7
 338:.\Generated_Source\PSoC5/Print_Bill.c ****             CyIntEnable(Print_Bill_RX_VECT_NUM);
 379              		.loc 1 338 0
 380 0004 034B     		ldr	r3, .L18
 381 0006 0222     		movs	r2, #2
 382 0008 1A60     		str	r2, [r3]
 339:.\Generated_Source\PSoC5/Print_Bill.c ****         }
 383              		.loc 1 339 0
 384 000a BD46     		mov	sp, r7
 385              		.cfi_def_cfa_register 13
 386              		@ sp needed
 387 000c 5DF8047B 		ldr	r7, [sp], #4
 388              		.cfi_restore 7
 389              		.cfi_def_cfa_offset 0
 390 0010 7047     		bx	lr
 391              	.L19:
 392 0012 00BF     		.align	2
 393              	.L18:
 394 0014 00E100E0 		.word	-536813312
 395              		.cfi_endproc
 396              	.LFE6:
 397              		.size	Print_Bill_EnableRxInt, .-Print_Bill_EnableRxInt
 398              		.section	.text.Print_Bill_DisableRxInt,"ax",%progbits
 399              		.align	2
 400              		.global	Print_Bill_DisableRxInt
 401              		.thumb
 402              		.thumb_func
ARM GAS  C:\Users\PROYEC~1\AppData\Local\Temp\ccggXJIG.s 			page 14


 403              		.type	Print_Bill_DisableRxInt, %function
 404              	Print_Bill_DisableRxInt:
 405              	.LFB7:
 340:.\Generated_Source\PSoC5/Print_Bill.c **** 
 341:.\Generated_Source\PSoC5/Print_Bill.c **** 
 342:.\Generated_Source\PSoC5/Print_Bill.c ****         /*******************************************************************************
 343:.\Generated_Source\PSoC5/Print_Bill.c ****         * Function Name: Print_Bill_DisableRxInt
 344:.\Generated_Source\PSoC5/Print_Bill.c ****         ********************************************************************************
 345:.\Generated_Source\PSoC5/Print_Bill.c ****         *
 346:.\Generated_Source\PSoC5/Print_Bill.c ****         * Summary:
 347:.\Generated_Source\PSoC5/Print_Bill.c ****         *  Disable RX interrupt generation
 348:.\Generated_Source\PSoC5/Print_Bill.c ****         *
 349:.\Generated_Source\PSoC5/Print_Bill.c ****         * Parameters:
 350:.\Generated_Source\PSoC5/Print_Bill.c ****         *  None.
 351:.\Generated_Source\PSoC5/Print_Bill.c ****         *
 352:.\Generated_Source\PSoC5/Print_Bill.c ****         * Return:
 353:.\Generated_Source\PSoC5/Print_Bill.c ****         *  None.
 354:.\Generated_Source\PSoC5/Print_Bill.c ****         *
 355:.\Generated_Source\PSoC5/Print_Bill.c ****         * Theory:
 356:.\Generated_Source\PSoC5/Print_Bill.c ****         *  Disable the interrupt output -or- the interrupt component itself
 357:.\Generated_Source\PSoC5/Print_Bill.c ****         *
 358:.\Generated_Source\PSoC5/Print_Bill.c ****         *******************************************************************************/
 359:.\Generated_Source\PSoC5/Print_Bill.c ****         void Print_Bill_DisableRxInt(void) 
 360:.\Generated_Source\PSoC5/Print_Bill.c ****         {
 406              		.loc 1 360 0
 407              		.cfi_startproc
 408              		@ args = 0, pretend = 0, frame = 0
 409              		@ frame_needed = 1, uses_anonymous_args = 0
 410              		@ link register save eliminated.
 411 0000 80B4     		push	{r7}
 412              		.cfi_def_cfa_offset 4
 413              		.cfi_offset 7, -4
 414 0002 00AF     		add	r7, sp, #0
 415              		.cfi_def_cfa_register 7
 361:.\Generated_Source\PSoC5/Print_Bill.c ****             CyIntDisable(Print_Bill_RX_VECT_NUM);
 416              		.loc 1 361 0
 417 0004 034B     		ldr	r3, .L21
 418 0006 0222     		movs	r2, #2
 419 0008 1A60     		str	r2, [r3]
 362:.\Generated_Source\PSoC5/Print_Bill.c ****         }
 420              		.loc 1 362 0
 421 000a BD46     		mov	sp, r7
 422              		.cfi_def_cfa_register 13
 423              		@ sp needed
 424 000c 5DF8047B 		ldr	r7, [sp], #4
 425              		.cfi_restore 7
 426              		.cfi_def_cfa_offset 0
 427 0010 7047     		bx	lr
 428              	.L22:
 429 0012 00BF     		.align	2
 430              	.L21:
 431 0014 80E100E0 		.word	-536813184
 432              		.cfi_endproc
 433              	.LFE7:
 434              		.size	Print_Bill_DisableRxInt, .-Print_Bill_DisableRxInt
 435              		.section	.text.Print_Bill_SetRxInterruptMode,"ax",%progbits
 436              		.align	2
ARM GAS  C:\Users\PROYEC~1\AppData\Local\Temp\ccggXJIG.s 			page 15


 437              		.global	Print_Bill_SetRxInterruptMode
 438              		.thumb
 439              		.thumb_func
 440              		.type	Print_Bill_SetRxInterruptMode, %function
 441              	Print_Bill_SetRxInterruptMode:
 442              	.LFB8:
 363:.\Generated_Source\PSoC5/Print_Bill.c **** 
 364:.\Generated_Source\PSoC5/Print_Bill.c ****     #endif /* Print_Bill_RX_INTERRUPT_ENABLED */
 365:.\Generated_Source\PSoC5/Print_Bill.c **** 
 366:.\Generated_Source\PSoC5/Print_Bill.c **** 
 367:.\Generated_Source\PSoC5/Print_Bill.c ****     /*******************************************************************************
 368:.\Generated_Source\PSoC5/Print_Bill.c ****     * Function Name: Print_Bill_SetRxInterruptMode
 369:.\Generated_Source\PSoC5/Print_Bill.c ****     ********************************************************************************
 370:.\Generated_Source\PSoC5/Print_Bill.c ****     *
 371:.\Generated_Source\PSoC5/Print_Bill.c ****     * Summary:
 372:.\Generated_Source\PSoC5/Print_Bill.c ****     *  Configure which status bits trigger an interrupt event
 373:.\Generated_Source\PSoC5/Print_Bill.c ****     *
 374:.\Generated_Source\PSoC5/Print_Bill.c ****     * Parameters:
 375:.\Generated_Source\PSoC5/Print_Bill.c ****     *  IntSrc:  An or'd combination of the desired status bit masks (defined in
 376:.\Generated_Source\PSoC5/Print_Bill.c ****     *           the header file)
 377:.\Generated_Source\PSoC5/Print_Bill.c ****     *
 378:.\Generated_Source\PSoC5/Print_Bill.c ****     * Return:
 379:.\Generated_Source\PSoC5/Print_Bill.c ****     *  None.
 380:.\Generated_Source\PSoC5/Print_Bill.c ****     *
 381:.\Generated_Source\PSoC5/Print_Bill.c ****     * Theory:
 382:.\Generated_Source\PSoC5/Print_Bill.c ****     *  Enables the output of specific status bits to the interrupt controller
 383:.\Generated_Source\PSoC5/Print_Bill.c ****     *
 384:.\Generated_Source\PSoC5/Print_Bill.c ****     *******************************************************************************/
 385:.\Generated_Source\PSoC5/Print_Bill.c ****     void Print_Bill_SetRxInterruptMode(uint8 intSrc) 
 386:.\Generated_Source\PSoC5/Print_Bill.c ****     {
 443              		.loc 1 386 0
 444              		.cfi_startproc
 445              		@ args = 0, pretend = 0, frame = 8
 446              		@ frame_needed = 1, uses_anonymous_args = 0
 447              		@ link register save eliminated.
 448 0000 80B4     		push	{r7}
 449              		.cfi_def_cfa_offset 4
 450              		.cfi_offset 7, -4
 451 0002 83B0     		sub	sp, sp, #12
 452              		.cfi_def_cfa_offset 16
 453 0004 00AF     		add	r7, sp, #0
 454              		.cfi_def_cfa_register 7
 455 0006 0346     		mov	r3, r0
 456 0008 FB71     		strb	r3, [r7, #7]
 387:.\Generated_Source\PSoC5/Print_Bill.c ****         Print_Bill_RXSTATUS_MASK_REG  = intSrc;
 457              		.loc 1 387 0
 458 000a 044A     		ldr	r2, .L24
 459 000c FB79     		ldrb	r3, [r7, #7]
 460 000e 1370     		strb	r3, [r2]
 388:.\Generated_Source\PSoC5/Print_Bill.c ****     }
 461              		.loc 1 388 0
 462 0010 0C37     		adds	r7, r7, #12
 463              		.cfi_def_cfa_offset 4
 464 0012 BD46     		mov	sp, r7
 465              		.cfi_def_cfa_register 13
 466              		@ sp needed
 467 0014 5DF8047B 		ldr	r7, [sp], #4
ARM GAS  C:\Users\PROYEC~1\AppData\Local\Temp\ccggXJIG.s 			page 16


 468              		.cfi_restore 7
 469              		.cfi_def_cfa_offset 0
 470 0018 7047     		bx	lr
 471              	.L25:
 472 001a 00BF     		.align	2
 473              	.L24:
 474 001c 8C640040 		.word	1073767564
 475              		.cfi_endproc
 476              	.LFE8:
 477              		.size	Print_Bill_SetRxInterruptMode, .-Print_Bill_SetRxInterruptMode
 478              		.section	.text.Print_Bill_ReadRxData,"ax",%progbits
 479              		.align	2
 480              		.global	Print_Bill_ReadRxData
 481              		.thumb
 482              		.thumb_func
 483              		.type	Print_Bill_ReadRxData, %function
 484              	Print_Bill_ReadRxData:
 485              	.LFB9:
 389:.\Generated_Source\PSoC5/Print_Bill.c **** 
 390:.\Generated_Source\PSoC5/Print_Bill.c **** 
 391:.\Generated_Source\PSoC5/Print_Bill.c ****     /*******************************************************************************
 392:.\Generated_Source\PSoC5/Print_Bill.c ****     * Function Name: Print_Bill_ReadRxData
 393:.\Generated_Source\PSoC5/Print_Bill.c ****     ********************************************************************************
 394:.\Generated_Source\PSoC5/Print_Bill.c ****     *
 395:.\Generated_Source\PSoC5/Print_Bill.c ****     * Summary:
 396:.\Generated_Source\PSoC5/Print_Bill.c ****     *  Returns data in RX Data register without checking status register to
 397:.\Generated_Source\PSoC5/Print_Bill.c ****     *  determine if data is valid
 398:.\Generated_Source\PSoC5/Print_Bill.c ****     *
 399:.\Generated_Source\PSoC5/Print_Bill.c ****     * Parameters:
 400:.\Generated_Source\PSoC5/Print_Bill.c ****     *  None.
 401:.\Generated_Source\PSoC5/Print_Bill.c ****     *
 402:.\Generated_Source\PSoC5/Print_Bill.c ****     * Return:
 403:.\Generated_Source\PSoC5/Print_Bill.c ****     *  Received data from RX register
 404:.\Generated_Source\PSoC5/Print_Bill.c ****     *
 405:.\Generated_Source\PSoC5/Print_Bill.c ****     * Global Variables:
 406:.\Generated_Source\PSoC5/Print_Bill.c ****     *  Print_Bill_rxBuffer - RAM buffer pointer for save received data.
 407:.\Generated_Source\PSoC5/Print_Bill.c ****     *  Print_Bill_rxBufferWrite - cyclic index for write to rxBuffer,
 408:.\Generated_Source\PSoC5/Print_Bill.c ****     *     checked to identify new data.
 409:.\Generated_Source\PSoC5/Print_Bill.c ****     *  Print_Bill_rxBufferRead - cyclic index for read from rxBuffer,
 410:.\Generated_Source\PSoC5/Print_Bill.c ****     *     incremented after each byte has been read from buffer.
 411:.\Generated_Source\PSoC5/Print_Bill.c ****     *  Print_Bill_rxBufferLoopDetect - creared if loop condition was detected
 412:.\Generated_Source\PSoC5/Print_Bill.c ****     *     in RX ISR.
 413:.\Generated_Source\PSoC5/Print_Bill.c ****     *
 414:.\Generated_Source\PSoC5/Print_Bill.c ****     * Reentrant:
 415:.\Generated_Source\PSoC5/Print_Bill.c ****     *  No.
 416:.\Generated_Source\PSoC5/Print_Bill.c ****     *
 417:.\Generated_Source\PSoC5/Print_Bill.c ****     *******************************************************************************/
 418:.\Generated_Source\PSoC5/Print_Bill.c ****     uint8 Print_Bill_ReadRxData(void) 
 419:.\Generated_Source\PSoC5/Print_Bill.c ****     {
 486              		.loc 1 419 0
 487              		.cfi_startproc
 488              		@ args = 0, pretend = 0, frame = 8
 489              		@ frame_needed = 1, uses_anonymous_args = 0
 490 0000 80B5     		push	{r7, lr}
 491              		.cfi_def_cfa_offset 8
 492              		.cfi_offset 7, -8
 493              		.cfi_offset 14, -4
ARM GAS  C:\Users\PROYEC~1\AppData\Local\Temp\ccggXJIG.s 			page 17


 494 0002 82B0     		sub	sp, sp, #8
 495              		.cfi_def_cfa_offset 16
 496 0004 00AF     		add	r7, sp, #0
 497              		.cfi_def_cfa_register 7
 420:.\Generated_Source\PSoC5/Print_Bill.c ****         uint8 rxData;
 421:.\Generated_Source\PSoC5/Print_Bill.c **** 
 422:.\Generated_Source\PSoC5/Print_Bill.c ****         #if(Print_Bill_RXBUFFERSIZE > Print_Bill_FIFO_LENGTH)
 423:.\Generated_Source\PSoC5/Print_Bill.c ****             uint8 loc_rxBufferRead;
 424:.\Generated_Source\PSoC5/Print_Bill.c ****             uint8 loc_rxBufferWrite;
 425:.\Generated_Source\PSoC5/Print_Bill.c ****             /* Protect variables that could change on interrupt. */
 426:.\Generated_Source\PSoC5/Print_Bill.c ****             /* Disable Rx interrupt. */
 427:.\Generated_Source\PSoC5/Print_Bill.c ****             #if(Print_Bill_RX_INTERRUPT_ENABLED)
 428:.\Generated_Source\PSoC5/Print_Bill.c ****                 Print_Bill_DisableRxInt();
 498              		.loc 1 428 0
 499 0006 FFF7FEFF 		bl	Print_Bill_DisableRxInt
 429:.\Generated_Source\PSoC5/Print_Bill.c ****             #endif /* Print_Bill_RX_INTERRUPT_ENABLED */
 430:.\Generated_Source\PSoC5/Print_Bill.c ****             loc_rxBufferRead = Print_Bill_rxBufferRead;
 500              		.loc 1 430 0
 501 000a 194B     		ldr	r3, .L33
 502 000c 1B78     		ldrb	r3, [r3]
 503 000e BB71     		strb	r3, [r7, #6]
 431:.\Generated_Source\PSoC5/Print_Bill.c ****             loc_rxBufferWrite = Print_Bill_rxBufferWrite;
 504              		.loc 1 431 0
 505 0010 184B     		ldr	r3, .L33+4
 506 0012 1B78     		ldrb	r3, [r3]
 507 0014 7B71     		strb	r3, [r7, #5]
 432:.\Generated_Source\PSoC5/Print_Bill.c **** 
 433:.\Generated_Source\PSoC5/Print_Bill.c ****             if( (Print_Bill_rxBufferLoopDetect != 0u) || (loc_rxBufferRead != loc_rxBufferWrite) )
 508              		.loc 1 433 0
 509 0016 184B     		ldr	r3, .L33+8
 510 0018 1B78     		ldrb	r3, [r3]
 511 001a DBB2     		uxtb	r3, r3
 512 001c 002B     		cmp	r3, #0
 513 001e 03D1     		bne	.L27
 514              		.loc 1 433 0 is_stmt 0 discriminator 1
 515 0020 BA79     		ldrb	r2, [r7, #6]	@ zero_extendqisi2
 516 0022 7B79     		ldrb	r3, [r7, #5]	@ zero_extendqisi2
 517 0024 9A42     		cmp	r2, r3
 518 0026 18D0     		beq	.L28
 519              	.L27:
 434:.\Generated_Source\PSoC5/Print_Bill.c ****             {
 435:.\Generated_Source\PSoC5/Print_Bill.c ****                 rxData = Print_Bill_rxBuffer[loc_rxBufferRead];
 520              		.loc 1 435 0 is_stmt 1
 521 0028 BB79     		ldrb	r3, [r7, #6]	@ zero_extendqisi2
 522 002a 144A     		ldr	r2, .L33+12
 523 002c D35C     		ldrb	r3, [r2, r3]
 524 002e FB71     		strb	r3, [r7, #7]
 436:.\Generated_Source\PSoC5/Print_Bill.c ****                 loc_rxBufferRead++;
 525              		.loc 1 436 0
 526 0030 BB79     		ldrb	r3, [r7, #6]	@ zero_extendqisi2
 527 0032 0133     		adds	r3, r3, #1
 528 0034 BB71     		strb	r3, [r7, #6]
 437:.\Generated_Source\PSoC5/Print_Bill.c **** 
 438:.\Generated_Source\PSoC5/Print_Bill.c ****                 if(loc_rxBufferRead >= Print_Bill_RXBUFFERSIZE)
 529              		.loc 1 438 0
 530 0036 BB79     		ldrb	r3, [r7, #6]	@ zero_extendqisi2
 531 0038 132B     		cmp	r3, #19
ARM GAS  C:\Users\PROYEC~1\AppData\Local\Temp\ccggXJIG.s 			page 18


 532 003a 01D9     		bls	.L29
 439:.\Generated_Source\PSoC5/Print_Bill.c ****                 {
 440:.\Generated_Source\PSoC5/Print_Bill.c ****                     loc_rxBufferRead = 0u;
 533              		.loc 1 440 0
 534 003c 0023     		movs	r3, #0
 535 003e BB71     		strb	r3, [r7, #6]
 536              	.L29:
 441:.\Generated_Source\PSoC5/Print_Bill.c ****                 }
 442:.\Generated_Source\PSoC5/Print_Bill.c ****                 /* Update the real pointer */
 443:.\Generated_Source\PSoC5/Print_Bill.c ****                 Print_Bill_rxBufferRead = loc_rxBufferRead;
 537              		.loc 1 443 0
 538 0040 0B4A     		ldr	r2, .L33
 539 0042 BB79     		ldrb	r3, [r7, #6]
 540 0044 1370     		strb	r3, [r2]
 444:.\Generated_Source\PSoC5/Print_Bill.c **** 
 445:.\Generated_Source\PSoC5/Print_Bill.c ****                 if(Print_Bill_rxBufferLoopDetect != 0u )
 541              		.loc 1 445 0
 542 0046 0C4B     		ldr	r3, .L33+8
 543 0048 1B78     		ldrb	r3, [r3]
 544 004a DBB2     		uxtb	r3, r3
 545 004c 002B     		cmp	r3, #0
 546 004e 03D0     		beq	.L30
 446:.\Generated_Source\PSoC5/Print_Bill.c ****                 {
 447:.\Generated_Source\PSoC5/Print_Bill.c ****                     Print_Bill_rxBufferLoopDetect = 0u;
 547              		.loc 1 447 0
 548 0050 094B     		ldr	r3, .L33+8
 549 0052 0022     		movs	r2, #0
 550 0054 1A70     		strb	r2, [r3]
 445:.\Generated_Source\PSoC5/Print_Bill.c ****                 {
 551              		.loc 1 445 0
 552 0056 03E0     		b	.L31
 553              	.L30:
 554 0058 02E0     		b	.L31
 555              	.L28:
 448:.\Generated_Source\PSoC5/Print_Bill.c ****                     #if( (Print_Bill_RX_INTERRUPT_ENABLED) && (Print_Bill_FLOW_CONTROL != 0u) && \
 449:.\Generated_Source\PSoC5/Print_Bill.c ****                          (Print_Bill_RXBUFFERSIZE > Print_Bill_FIFO_LENGTH) )
 450:.\Generated_Source\PSoC5/Print_Bill.c ****                         /* When Hardware Flow Control selected - return RX mask */
 451:.\Generated_Source\PSoC5/Print_Bill.c ****                         #if( Print_Bill_HD_ENABLED )
 452:.\Generated_Source\PSoC5/Print_Bill.c ****                             if((Print_Bill_CONTROL_REG & Print_Bill_CTRL_HD_SEND) == 0u)
 453:.\Generated_Source\PSoC5/Print_Bill.c ****                             {   /* In Half duplex mode return RX mask only in RX
 454:.\Generated_Source\PSoC5/Print_Bill.c ****                                 *  configuration set, otherwise
 455:.\Generated_Source\PSoC5/Print_Bill.c ****                                 *  mask will be returned in LoadRxConfig() API.
 456:.\Generated_Source\PSoC5/Print_Bill.c ****                                 */
 457:.\Generated_Source\PSoC5/Print_Bill.c ****                                 Print_Bill_RXSTATUS_MASK_REG  |= Print_Bill_RX_STS_FIFO_NOTEMPTY;
 458:.\Generated_Source\PSoC5/Print_Bill.c ****                             }
 459:.\Generated_Source\PSoC5/Print_Bill.c ****                         #else
 460:.\Generated_Source\PSoC5/Print_Bill.c ****                             Print_Bill_RXSTATUS_MASK_REG  |= Print_Bill_RX_STS_FIFO_NOTEMPTY;
 461:.\Generated_Source\PSoC5/Print_Bill.c ****                         #endif /* end Print_Bill_HD_ENABLED */
 462:.\Generated_Source\PSoC5/Print_Bill.c ****                     #endif /* Print_Bill_RX_INTERRUPT_ENABLED and Hardware flow control*/
 463:.\Generated_Source\PSoC5/Print_Bill.c ****                 }
 464:.\Generated_Source\PSoC5/Print_Bill.c ****             }
 465:.\Generated_Source\PSoC5/Print_Bill.c ****             else
 466:.\Generated_Source\PSoC5/Print_Bill.c ****             {   /* Needs to check status for RX_STS_FIFO_NOTEMPTY bit*/
 467:.\Generated_Source\PSoC5/Print_Bill.c ****                 rxData = Print_Bill_RXDATA_REG;
 556              		.loc 1 467 0
 557 005a 094B     		ldr	r3, .L33+16
 558 005c 1B78     		ldrb	r3, [r3]
ARM GAS  C:\Users\PROYEC~1\AppData\Local\Temp\ccggXJIG.s 			page 19


 559 005e FB71     		strb	r3, [r7, #7]
 560              	.L31:
 468:.\Generated_Source\PSoC5/Print_Bill.c ****             }
 469:.\Generated_Source\PSoC5/Print_Bill.c **** 
 470:.\Generated_Source\PSoC5/Print_Bill.c ****             /* Enable Rx interrupt. */
 471:.\Generated_Source\PSoC5/Print_Bill.c ****             #if(Print_Bill_RX_INTERRUPT_ENABLED)
 472:.\Generated_Source\PSoC5/Print_Bill.c ****                 Print_Bill_EnableRxInt();
 561              		.loc 1 472 0
 562 0060 FFF7FEFF 		bl	Print_Bill_EnableRxInt
 473:.\Generated_Source\PSoC5/Print_Bill.c ****             #endif /* End Print_Bill_RX_INTERRUPT_ENABLED */
 474:.\Generated_Source\PSoC5/Print_Bill.c **** 
 475:.\Generated_Source\PSoC5/Print_Bill.c ****         #else /* Print_Bill_RXBUFFERSIZE > Print_Bill_FIFO_LENGTH */
 476:.\Generated_Source\PSoC5/Print_Bill.c **** 
 477:.\Generated_Source\PSoC5/Print_Bill.c ****             /* Needs to check status for RX_STS_FIFO_NOTEMPTY bit*/
 478:.\Generated_Source\PSoC5/Print_Bill.c ****             rxData = Print_Bill_RXDATA_REG;
 479:.\Generated_Source\PSoC5/Print_Bill.c **** 
 480:.\Generated_Source\PSoC5/Print_Bill.c ****         #endif /* Print_Bill_RXBUFFERSIZE > Print_Bill_FIFO_LENGTH */
 481:.\Generated_Source\PSoC5/Print_Bill.c **** 
 482:.\Generated_Source\PSoC5/Print_Bill.c ****         return(rxData);
 563              		.loc 1 482 0
 564 0064 FB79     		ldrb	r3, [r7, #7]	@ zero_extendqisi2
 483:.\Generated_Source\PSoC5/Print_Bill.c ****     }
 565              		.loc 1 483 0
 566 0066 1846     		mov	r0, r3
 567 0068 0837     		adds	r7, r7, #8
 568              		.cfi_def_cfa_offset 8
 569 006a BD46     		mov	sp, r7
 570              		.cfi_def_cfa_register 13
 571              		@ sp needed
 572 006c 80BD     		pop	{r7, pc}
 573              	.L34:
 574 006e 00BF     		.align	2
 575              	.L33:
 576 0070 00000000 		.word	Print_Bill_rxBufferRead
 577 0074 00000000 		.word	Print_Bill_rxBufferWrite
 578 0078 00000000 		.word	Print_Bill_rxBufferLoopDetect
 579 007c 00000000 		.word	Print_Bill_rxBuffer
 580 0080 4C640040 		.word	1073767500
 581              		.cfi_endproc
 582              	.LFE9:
 583              		.size	Print_Bill_ReadRxData, .-Print_Bill_ReadRxData
 584              		.section	.text.Print_Bill_ReadRxStatus,"ax",%progbits
 585              		.align	2
 586              		.global	Print_Bill_ReadRxStatus
 587              		.thumb
 588              		.thumb_func
 589              		.type	Print_Bill_ReadRxStatus, %function
 590              	Print_Bill_ReadRxStatus:
 591              	.LFB10:
 484:.\Generated_Source\PSoC5/Print_Bill.c **** 
 485:.\Generated_Source\PSoC5/Print_Bill.c **** 
 486:.\Generated_Source\PSoC5/Print_Bill.c ****     /*******************************************************************************
 487:.\Generated_Source\PSoC5/Print_Bill.c ****     * Function Name: Print_Bill_ReadRxStatus
 488:.\Generated_Source\PSoC5/Print_Bill.c ****     ********************************************************************************
 489:.\Generated_Source\PSoC5/Print_Bill.c ****     *
 490:.\Generated_Source\PSoC5/Print_Bill.c ****     * Summary:
 491:.\Generated_Source\PSoC5/Print_Bill.c ****     *  Read the current state of the status register
ARM GAS  C:\Users\PROYEC~1\AppData\Local\Temp\ccggXJIG.s 			page 20


 492:.\Generated_Source\PSoC5/Print_Bill.c ****     *  And detect software buffer overflow.
 493:.\Generated_Source\PSoC5/Print_Bill.c ****     *
 494:.\Generated_Source\PSoC5/Print_Bill.c ****     * Parameters:
 495:.\Generated_Source\PSoC5/Print_Bill.c ****     *  None.
 496:.\Generated_Source\PSoC5/Print_Bill.c ****     *
 497:.\Generated_Source\PSoC5/Print_Bill.c ****     * Return:
 498:.\Generated_Source\PSoC5/Print_Bill.c ****     *  Current state of the status register.
 499:.\Generated_Source\PSoC5/Print_Bill.c ****     *
 500:.\Generated_Source\PSoC5/Print_Bill.c ****     * Global Variables:
 501:.\Generated_Source\PSoC5/Print_Bill.c ****     *  Print_Bill_rxBufferOverflow - used to indicate overload condition.
 502:.\Generated_Source\PSoC5/Print_Bill.c ****     *   It set to one in RX interrupt when there isn?t free space in
 503:.\Generated_Source\PSoC5/Print_Bill.c ****     *   Print_Bill_rxBufferRead to write new data. This condition returned
 504:.\Generated_Source\PSoC5/Print_Bill.c ****     *   and cleared to zero by this API as an
 505:.\Generated_Source\PSoC5/Print_Bill.c ****     *   Print_Bill_RX_STS_SOFT_BUFF_OVER bit along with RX Status register
 506:.\Generated_Source\PSoC5/Print_Bill.c ****     *   bits.
 507:.\Generated_Source\PSoC5/Print_Bill.c ****     *
 508:.\Generated_Source\PSoC5/Print_Bill.c ****     *******************************************************************************/
 509:.\Generated_Source\PSoC5/Print_Bill.c ****     uint8 Print_Bill_ReadRxStatus(void) 
 510:.\Generated_Source\PSoC5/Print_Bill.c ****     {
 592              		.loc 1 510 0
 593              		.cfi_startproc
 594              		@ args = 0, pretend = 0, frame = 8
 595              		@ frame_needed = 1, uses_anonymous_args = 0
 596              		@ link register save eliminated.
 597 0000 80B4     		push	{r7}
 598              		.cfi_def_cfa_offset 4
 599              		.cfi_offset 7, -4
 600 0002 83B0     		sub	sp, sp, #12
 601              		.cfi_def_cfa_offset 16
 602 0004 00AF     		add	r7, sp, #0
 603              		.cfi_def_cfa_register 7
 511:.\Generated_Source\PSoC5/Print_Bill.c ****         uint8 status;
 512:.\Generated_Source\PSoC5/Print_Bill.c **** 
 513:.\Generated_Source\PSoC5/Print_Bill.c ****         status = Print_Bill_RXSTATUS_REG & Print_Bill_RX_HW_MASK;
 604              		.loc 1 513 0
 605 0006 0C4B     		ldr	r3, .L38
 606 0008 1B78     		ldrb	r3, [r3]
 607 000a DBB2     		uxtb	r3, r3
 608 000c 03F07F03 		and	r3, r3, #127
 609 0010 FB71     		strb	r3, [r7, #7]
 514:.\Generated_Source\PSoC5/Print_Bill.c **** 
 515:.\Generated_Source\PSoC5/Print_Bill.c ****         #if(Print_Bill_RXBUFFERSIZE > Print_Bill_FIFO_LENGTH)
 516:.\Generated_Source\PSoC5/Print_Bill.c ****             if( Print_Bill_rxBufferOverflow != 0u )
 610              		.loc 1 516 0
 611 0012 0A4B     		ldr	r3, .L38+4
 612 0014 1B78     		ldrb	r3, [r3]
 613 0016 DBB2     		uxtb	r3, r3
 614 0018 002B     		cmp	r3, #0
 615 001a 06D0     		beq	.L36
 517:.\Generated_Source\PSoC5/Print_Bill.c ****             {
 518:.\Generated_Source\PSoC5/Print_Bill.c ****                 status |= Print_Bill_RX_STS_SOFT_BUFF_OVER;
 616              		.loc 1 518 0
 617 001c FB79     		ldrb	r3, [r7, #7]
 618 001e 63F07F03 		orn	r3, r3, #127
 619 0022 FB71     		strb	r3, [r7, #7]
 519:.\Generated_Source\PSoC5/Print_Bill.c ****                 Print_Bill_rxBufferOverflow = 0u;
 620              		.loc 1 519 0
ARM GAS  C:\Users\PROYEC~1\AppData\Local\Temp\ccggXJIG.s 			page 21


 621 0024 054B     		ldr	r3, .L38+4
 622 0026 0022     		movs	r2, #0
 623 0028 1A70     		strb	r2, [r3]
 624              	.L36:
 520:.\Generated_Source\PSoC5/Print_Bill.c ****             }
 521:.\Generated_Source\PSoC5/Print_Bill.c ****         #endif /* Print_Bill_RXBUFFERSIZE */
 522:.\Generated_Source\PSoC5/Print_Bill.c **** 
 523:.\Generated_Source\PSoC5/Print_Bill.c ****         return(status);
 625              		.loc 1 523 0
 626 002a FB79     		ldrb	r3, [r7, #7]	@ zero_extendqisi2
 524:.\Generated_Source\PSoC5/Print_Bill.c ****     }
 627              		.loc 1 524 0
 628 002c 1846     		mov	r0, r3
 629 002e 0C37     		adds	r7, r7, #12
 630              		.cfi_def_cfa_offset 4
 631 0030 BD46     		mov	sp, r7
 632              		.cfi_def_cfa_register 13
 633              		@ sp needed
 634 0032 5DF8047B 		ldr	r7, [sp], #4
 635              		.cfi_restore 7
 636              		.cfi_def_cfa_offset 0
 637 0036 7047     		bx	lr
 638              	.L39:
 639              		.align	2
 640              	.L38:
 641 0038 6C640040 		.word	1073767532
 642 003c 00000000 		.word	Print_Bill_rxBufferOverflow
 643              		.cfi_endproc
 644              	.LFE10:
 645              		.size	Print_Bill_ReadRxStatus, .-Print_Bill_ReadRxStatus
 646              		.section	.text.Print_Bill_GetChar,"ax",%progbits
 647              		.align	2
 648              		.global	Print_Bill_GetChar
 649              		.thumb
 650              		.thumb_func
 651              		.type	Print_Bill_GetChar, %function
 652              	Print_Bill_GetChar:
 653              	.LFB11:
 525:.\Generated_Source\PSoC5/Print_Bill.c **** 
 526:.\Generated_Source\PSoC5/Print_Bill.c **** 
 527:.\Generated_Source\PSoC5/Print_Bill.c ****     /*******************************************************************************
 528:.\Generated_Source\PSoC5/Print_Bill.c ****     * Function Name: Print_Bill_GetChar
 529:.\Generated_Source\PSoC5/Print_Bill.c ****     ********************************************************************************
 530:.\Generated_Source\PSoC5/Print_Bill.c ****     *
 531:.\Generated_Source\PSoC5/Print_Bill.c ****     * Summary:
 532:.\Generated_Source\PSoC5/Print_Bill.c ****     *  Reads UART RX buffer immediately, if data is not available or an error
 533:.\Generated_Source\PSoC5/Print_Bill.c ****     *  condition exists, zero is returned; otherwise, character is read and
 534:.\Generated_Source\PSoC5/Print_Bill.c ****     *  returned.
 535:.\Generated_Source\PSoC5/Print_Bill.c ****     *
 536:.\Generated_Source\PSoC5/Print_Bill.c ****     * Parameters:
 537:.\Generated_Source\PSoC5/Print_Bill.c ****     *  None.
 538:.\Generated_Source\PSoC5/Print_Bill.c ****     *
 539:.\Generated_Source\PSoC5/Print_Bill.c ****     * Return:
 540:.\Generated_Source\PSoC5/Print_Bill.c ****     *  Character read from UART RX buffer. ASCII characters from 1 to 255 are valid.
 541:.\Generated_Source\PSoC5/Print_Bill.c ****     *  A returned zero signifies an error condition or no data available.
 542:.\Generated_Source\PSoC5/Print_Bill.c ****     *
 543:.\Generated_Source\PSoC5/Print_Bill.c ****     * Global Variables:
ARM GAS  C:\Users\PROYEC~1\AppData\Local\Temp\ccggXJIG.s 			page 22


 544:.\Generated_Source\PSoC5/Print_Bill.c ****     *  Print_Bill_rxBuffer - RAM buffer pointer for save received data.
 545:.\Generated_Source\PSoC5/Print_Bill.c ****     *  Print_Bill_rxBufferWrite - cyclic index for write to rxBuffer,
 546:.\Generated_Source\PSoC5/Print_Bill.c ****     *     checked to identify new data.
 547:.\Generated_Source\PSoC5/Print_Bill.c ****     *  Print_Bill_rxBufferRead - cyclic index for read from rxBuffer,
 548:.\Generated_Source\PSoC5/Print_Bill.c ****     *     incremented after each byte has been read from buffer.
 549:.\Generated_Source\PSoC5/Print_Bill.c ****     *  Print_Bill_rxBufferLoopDetect - creared if loop condition was detected
 550:.\Generated_Source\PSoC5/Print_Bill.c ****     *     in RX ISR.
 551:.\Generated_Source\PSoC5/Print_Bill.c ****     *
 552:.\Generated_Source\PSoC5/Print_Bill.c ****     * Reentrant:
 553:.\Generated_Source\PSoC5/Print_Bill.c ****     *  No.
 554:.\Generated_Source\PSoC5/Print_Bill.c ****     *
 555:.\Generated_Source\PSoC5/Print_Bill.c ****     *******************************************************************************/
 556:.\Generated_Source\PSoC5/Print_Bill.c ****     uint8 Print_Bill_GetChar(void) 
 557:.\Generated_Source\PSoC5/Print_Bill.c ****     {
 654              		.loc 1 557 0
 655              		.cfi_startproc
 656              		@ args = 0, pretend = 0, frame = 8
 657              		@ frame_needed = 1, uses_anonymous_args = 0
 658 0000 80B5     		push	{r7, lr}
 659              		.cfi_def_cfa_offset 8
 660              		.cfi_offset 7, -8
 661              		.cfi_offset 14, -4
 662 0002 82B0     		sub	sp, sp, #8
 663              		.cfi_def_cfa_offset 16
 664 0004 00AF     		add	r7, sp, #0
 665              		.cfi_def_cfa_register 7
 558:.\Generated_Source\PSoC5/Print_Bill.c ****         uint8 rxData = 0u;
 666              		.loc 1 558 0
 667 0006 0023     		movs	r3, #0
 668 0008 FB71     		strb	r3, [r7, #7]
 559:.\Generated_Source\PSoC5/Print_Bill.c ****         uint8 rxStatus;
 560:.\Generated_Source\PSoC5/Print_Bill.c **** 
 561:.\Generated_Source\PSoC5/Print_Bill.c ****         #if(Print_Bill_RXBUFFERSIZE > Print_Bill_FIFO_LENGTH)
 562:.\Generated_Source\PSoC5/Print_Bill.c ****             uint8 loc_rxBufferRead;
 563:.\Generated_Source\PSoC5/Print_Bill.c ****             uint8 loc_rxBufferWrite;
 564:.\Generated_Source\PSoC5/Print_Bill.c ****             /* Protect variables that could change on interrupt. */
 565:.\Generated_Source\PSoC5/Print_Bill.c ****             /* Disable Rx interrupt. */
 566:.\Generated_Source\PSoC5/Print_Bill.c ****             #if(Print_Bill_RX_INTERRUPT_ENABLED)
 567:.\Generated_Source\PSoC5/Print_Bill.c ****                 Print_Bill_DisableRxInt();
 669              		.loc 1 567 0
 670 000a FFF7FEFF 		bl	Print_Bill_DisableRxInt
 568:.\Generated_Source\PSoC5/Print_Bill.c ****             #endif /* Print_Bill_RX_INTERRUPT_ENABLED */
 569:.\Generated_Source\PSoC5/Print_Bill.c ****             loc_rxBufferRead = Print_Bill_rxBufferRead;
 671              		.loc 1 569 0
 672 000e 204B     		ldr	r3, .L47
 673 0010 1B78     		ldrb	r3, [r3]
 674 0012 BB71     		strb	r3, [r7, #6]
 570:.\Generated_Source\PSoC5/Print_Bill.c ****             loc_rxBufferWrite = Print_Bill_rxBufferWrite;
 675              		.loc 1 570 0
 676 0014 1F4B     		ldr	r3, .L47+4
 677 0016 1B78     		ldrb	r3, [r3]
 678 0018 7B71     		strb	r3, [r7, #5]
 571:.\Generated_Source\PSoC5/Print_Bill.c **** 
 572:.\Generated_Source\PSoC5/Print_Bill.c ****             if( (Print_Bill_rxBufferLoopDetect != 0u) || (loc_rxBufferRead != loc_rxBufferWrite) )
 679              		.loc 1 572 0
 680 001a 1F4B     		ldr	r3, .L47+8
 681 001c 1B78     		ldrb	r3, [r3]
ARM GAS  C:\Users\PROYEC~1\AppData\Local\Temp\ccggXJIG.s 			page 23


 682 001e DBB2     		uxtb	r3, r3
 683 0020 002B     		cmp	r3, #0
 684 0022 03D1     		bne	.L41
 685              		.loc 1 572 0 is_stmt 0 discriminator 1
 686 0024 BA79     		ldrb	r2, [r7, #6]	@ zero_extendqisi2
 687 0026 7B79     		ldrb	r3, [r7, #5]	@ zero_extendqisi2
 688 0028 9A42     		cmp	r2, r3
 689 002a 18D0     		beq	.L42
 690              	.L41:
 573:.\Generated_Source\PSoC5/Print_Bill.c ****             {
 574:.\Generated_Source\PSoC5/Print_Bill.c ****                 rxData = Print_Bill_rxBuffer[loc_rxBufferRead];
 691              		.loc 1 574 0 is_stmt 1
 692 002c BB79     		ldrb	r3, [r7, #6]	@ zero_extendqisi2
 693 002e 1B4A     		ldr	r2, .L47+12
 694 0030 D35C     		ldrb	r3, [r2, r3]
 695 0032 FB71     		strb	r3, [r7, #7]
 575:.\Generated_Source\PSoC5/Print_Bill.c ****                 loc_rxBufferRead++;
 696              		.loc 1 575 0
 697 0034 BB79     		ldrb	r3, [r7, #6]	@ zero_extendqisi2
 698 0036 0133     		adds	r3, r3, #1
 699 0038 BB71     		strb	r3, [r7, #6]
 576:.\Generated_Source\PSoC5/Print_Bill.c ****                 if(loc_rxBufferRead >= Print_Bill_RXBUFFERSIZE)
 700              		.loc 1 576 0
 701 003a BB79     		ldrb	r3, [r7, #6]	@ zero_extendqisi2
 702 003c 132B     		cmp	r3, #19
 703 003e 01D9     		bls	.L43
 577:.\Generated_Source\PSoC5/Print_Bill.c ****                 {
 578:.\Generated_Source\PSoC5/Print_Bill.c ****                     loc_rxBufferRead = 0u;
 704              		.loc 1 578 0
 705 0040 0023     		movs	r3, #0
 706 0042 BB71     		strb	r3, [r7, #6]
 707              	.L43:
 579:.\Generated_Source\PSoC5/Print_Bill.c ****                 }
 580:.\Generated_Source\PSoC5/Print_Bill.c ****                 /* Update the real pointer */
 581:.\Generated_Source\PSoC5/Print_Bill.c ****                 Print_Bill_rxBufferRead = loc_rxBufferRead;
 708              		.loc 1 581 0
 709 0044 124A     		ldr	r2, .L47
 710 0046 BB79     		ldrb	r3, [r7, #6]
 711 0048 1370     		strb	r3, [r2]
 582:.\Generated_Source\PSoC5/Print_Bill.c **** 
 583:.\Generated_Source\PSoC5/Print_Bill.c ****                 if(Print_Bill_rxBufferLoopDetect > 0u )
 712              		.loc 1 583 0
 713 004a 134B     		ldr	r3, .L47+8
 714 004c 1B78     		ldrb	r3, [r3]
 715 004e DBB2     		uxtb	r3, r3
 716 0050 002B     		cmp	r3, #0
 717 0052 03D0     		beq	.L44
 584:.\Generated_Source\PSoC5/Print_Bill.c ****                 {
 585:.\Generated_Source\PSoC5/Print_Bill.c ****                     Print_Bill_rxBufferLoopDetect = 0u;
 718              		.loc 1 585 0
 719 0054 104B     		ldr	r3, .L47+8
 720 0056 0022     		movs	r2, #0
 721 0058 1A70     		strb	r2, [r3]
 583:.\Generated_Source\PSoC5/Print_Bill.c ****                 {
 722              		.loc 1 583 0
 723 005a 12E0     		b	.L45
 724              	.L44:
ARM GAS  C:\Users\PROYEC~1\AppData\Local\Temp\ccggXJIG.s 			page 24


 725 005c 11E0     		b	.L45
 726              	.L42:
 586:.\Generated_Source\PSoC5/Print_Bill.c ****                     #if( (Print_Bill_RX_INTERRUPT_ENABLED) && (Print_Bill_FLOW_CONTROL != 0u) )
 587:.\Generated_Source\PSoC5/Print_Bill.c ****                         /* When Hardware Flow Control selected - return RX mask */
 588:.\Generated_Source\PSoC5/Print_Bill.c ****                         #if( Print_Bill_HD_ENABLED )
 589:.\Generated_Source\PSoC5/Print_Bill.c ****                             if((Print_Bill_CONTROL_REG & Print_Bill_CTRL_HD_SEND) == 0u)
 590:.\Generated_Source\PSoC5/Print_Bill.c ****                             {   /* In Half duplex mode return RX mask only if
 591:.\Generated_Source\PSoC5/Print_Bill.c ****                                 *  RX configuration set, otherwise
 592:.\Generated_Source\PSoC5/Print_Bill.c ****                                 *  mask will be returned in LoadRxConfig() API.
 593:.\Generated_Source\PSoC5/Print_Bill.c ****                                 */
 594:.\Generated_Source\PSoC5/Print_Bill.c ****                                 Print_Bill_RXSTATUS_MASK_REG  |= Print_Bill_RX_STS_FIFO_NOTEMPTY;
 595:.\Generated_Source\PSoC5/Print_Bill.c ****                             }
 596:.\Generated_Source\PSoC5/Print_Bill.c ****                         #else
 597:.\Generated_Source\PSoC5/Print_Bill.c ****                             Print_Bill_RXSTATUS_MASK_REG  |= Print_Bill_RX_STS_FIFO_NOTEMPTY;
 598:.\Generated_Source\PSoC5/Print_Bill.c ****                         #endif /* end Print_Bill_HD_ENABLED */
 599:.\Generated_Source\PSoC5/Print_Bill.c ****                     #endif /* Print_Bill_RX_INTERRUPT_ENABLED and Hardware flow control*/
 600:.\Generated_Source\PSoC5/Print_Bill.c ****                 }
 601:.\Generated_Source\PSoC5/Print_Bill.c **** 
 602:.\Generated_Source\PSoC5/Print_Bill.c ****             }
 603:.\Generated_Source\PSoC5/Print_Bill.c ****             else
 604:.\Generated_Source\PSoC5/Print_Bill.c ****             {   rxStatus = Print_Bill_RXSTATUS_REG;
 727              		.loc 1 604 0
 728 005e 104B     		ldr	r3, .L47+16
 729 0060 1B78     		ldrb	r3, [r3]
 730 0062 3B71     		strb	r3, [r7, #4]
 605:.\Generated_Source\PSoC5/Print_Bill.c ****                 if((rxStatus & Print_Bill_RX_STS_FIFO_NOTEMPTY) != 0u)
 731              		.loc 1 605 0
 732 0064 3B79     		ldrb	r3, [r7, #4]	@ zero_extendqisi2
 733 0066 03F02003 		and	r3, r3, #32
 734 006a 002B     		cmp	r3, #0
 735 006c 09D0     		beq	.L45
 606:.\Generated_Source\PSoC5/Print_Bill.c ****                 {   /* Read received data from FIFO*/
 607:.\Generated_Source\PSoC5/Print_Bill.c ****                     rxData = Print_Bill_RXDATA_REG;
 736              		.loc 1 607 0
 737 006e 0D4B     		ldr	r3, .L47+20
 738 0070 1B78     		ldrb	r3, [r3]
 739 0072 FB71     		strb	r3, [r7, #7]
 608:.\Generated_Source\PSoC5/Print_Bill.c ****                     /*Check status on error*/
 609:.\Generated_Source\PSoC5/Print_Bill.c ****                     if((rxStatus & (Print_Bill_RX_STS_BREAK | Print_Bill_RX_STS_PAR_ERROR |
 610:.\Generated_Source\PSoC5/Print_Bill.c ****                                    Print_Bill_RX_STS_STOP_ERROR | Print_Bill_RX_STS_OVERRUN)) != 0u
 740              		.loc 1 610 0
 741 0074 3B79     		ldrb	r3, [r7, #4]	@ zero_extendqisi2
 742 0076 03F01E03 		and	r3, r3, #30
 609:.\Generated_Source\PSoC5/Print_Bill.c ****                                    Print_Bill_RX_STS_STOP_ERROR | Print_Bill_RX_STS_OVERRUN)) != 0u
 743              		.loc 1 609 0
 744 007a 002B     		cmp	r3, #0
 745 007c 01D0     		beq	.L45
 611:.\Generated_Source\PSoC5/Print_Bill.c ****                     {
 612:.\Generated_Source\PSoC5/Print_Bill.c ****                         rxData = 0u;
 746              		.loc 1 612 0
 747 007e 0023     		movs	r3, #0
 748 0080 FB71     		strb	r3, [r7, #7]
 749              	.L45:
 613:.\Generated_Source\PSoC5/Print_Bill.c ****                     }
 614:.\Generated_Source\PSoC5/Print_Bill.c ****                 }
 615:.\Generated_Source\PSoC5/Print_Bill.c ****             }
 616:.\Generated_Source\PSoC5/Print_Bill.c **** 
ARM GAS  C:\Users\PROYEC~1\AppData\Local\Temp\ccggXJIG.s 			page 25


 617:.\Generated_Source\PSoC5/Print_Bill.c ****             /* Enable Rx interrupt. */
 618:.\Generated_Source\PSoC5/Print_Bill.c ****             #if(Print_Bill_RX_INTERRUPT_ENABLED)
 619:.\Generated_Source\PSoC5/Print_Bill.c ****                 Print_Bill_EnableRxInt();
 750              		.loc 1 619 0
 751 0082 FFF7FEFF 		bl	Print_Bill_EnableRxInt
 620:.\Generated_Source\PSoC5/Print_Bill.c ****             #endif /* Print_Bill_RX_INTERRUPT_ENABLED */
 621:.\Generated_Source\PSoC5/Print_Bill.c **** 
 622:.\Generated_Source\PSoC5/Print_Bill.c ****         #else /* Print_Bill_RXBUFFERSIZE > Print_Bill_FIFO_LENGTH */
 623:.\Generated_Source\PSoC5/Print_Bill.c **** 
 624:.\Generated_Source\PSoC5/Print_Bill.c ****             rxStatus =Print_Bill_RXSTATUS_REG;
 625:.\Generated_Source\PSoC5/Print_Bill.c ****             if((rxStatus & Print_Bill_RX_STS_FIFO_NOTEMPTY) != 0u)
 626:.\Generated_Source\PSoC5/Print_Bill.c ****             {   /* Read received data from FIFO*/
 627:.\Generated_Source\PSoC5/Print_Bill.c ****                 rxData = Print_Bill_RXDATA_REG;
 628:.\Generated_Source\PSoC5/Print_Bill.c ****                 /*Check status on error*/
 629:.\Generated_Source\PSoC5/Print_Bill.c ****                 if((rxStatus & (Print_Bill_RX_STS_BREAK | Print_Bill_RX_STS_PAR_ERROR |
 630:.\Generated_Source\PSoC5/Print_Bill.c ****                                Print_Bill_RX_STS_STOP_ERROR | Print_Bill_RX_STS_OVERRUN)) != 0u)
 631:.\Generated_Source\PSoC5/Print_Bill.c ****                 {
 632:.\Generated_Source\PSoC5/Print_Bill.c ****                     rxData = 0u;
 633:.\Generated_Source\PSoC5/Print_Bill.c ****                 }
 634:.\Generated_Source\PSoC5/Print_Bill.c ****             }
 635:.\Generated_Source\PSoC5/Print_Bill.c ****         #endif /* Print_Bill_RXBUFFERSIZE > Print_Bill_FIFO_LENGTH */
 636:.\Generated_Source\PSoC5/Print_Bill.c **** 
 637:.\Generated_Source\PSoC5/Print_Bill.c ****         return(rxData);
 752              		.loc 1 637 0
 753 0086 FB79     		ldrb	r3, [r7, #7]	@ zero_extendqisi2
 638:.\Generated_Source\PSoC5/Print_Bill.c ****     }
 754              		.loc 1 638 0
 755 0088 1846     		mov	r0, r3
 756 008a 0837     		adds	r7, r7, #8
 757              		.cfi_def_cfa_offset 8
 758 008c BD46     		mov	sp, r7
 759              		.cfi_def_cfa_register 13
 760              		@ sp needed
 761 008e 80BD     		pop	{r7, pc}
 762              	.L48:
 763              		.align	2
 764              	.L47:
 765 0090 00000000 		.word	Print_Bill_rxBufferRead
 766 0094 00000000 		.word	Print_Bill_rxBufferWrite
 767 0098 00000000 		.word	Print_Bill_rxBufferLoopDetect
 768 009c 00000000 		.word	Print_Bill_rxBuffer
 769 00a0 6C640040 		.word	1073767532
 770 00a4 4C640040 		.word	1073767500
 771              		.cfi_endproc
 772              	.LFE11:
 773              		.size	Print_Bill_GetChar, .-Print_Bill_GetChar
 774              		.section	.text.Print_Bill_GetByte,"ax",%progbits
 775              		.align	2
 776              		.global	Print_Bill_GetByte
 777              		.thumb
 778              		.thumb_func
 779              		.type	Print_Bill_GetByte, %function
 780              	Print_Bill_GetByte:
 781              	.LFB12:
 639:.\Generated_Source\PSoC5/Print_Bill.c **** 
 640:.\Generated_Source\PSoC5/Print_Bill.c **** 
 641:.\Generated_Source\PSoC5/Print_Bill.c ****     /*******************************************************************************
ARM GAS  C:\Users\PROYEC~1\AppData\Local\Temp\ccggXJIG.s 			page 26


 642:.\Generated_Source\PSoC5/Print_Bill.c ****     * Function Name: Print_Bill_GetByte
 643:.\Generated_Source\PSoC5/Print_Bill.c ****     ********************************************************************************
 644:.\Generated_Source\PSoC5/Print_Bill.c ****     *
 645:.\Generated_Source\PSoC5/Print_Bill.c ****     * Summary:
 646:.\Generated_Source\PSoC5/Print_Bill.c ****     *  Grab the next available byte of data from the recieve FIFO
 647:.\Generated_Source\PSoC5/Print_Bill.c ****     *
 648:.\Generated_Source\PSoC5/Print_Bill.c ****     * Parameters:
 649:.\Generated_Source\PSoC5/Print_Bill.c ****     *  None.
 650:.\Generated_Source\PSoC5/Print_Bill.c ****     *
 651:.\Generated_Source\PSoC5/Print_Bill.c ****     * Return:
 652:.\Generated_Source\PSoC5/Print_Bill.c ****     *  MSB contains Status Register and LSB contains UART RX data
 653:.\Generated_Source\PSoC5/Print_Bill.c ****     *
 654:.\Generated_Source\PSoC5/Print_Bill.c ****     * Reentrant:
 655:.\Generated_Source\PSoC5/Print_Bill.c ****     *  No.
 656:.\Generated_Source\PSoC5/Print_Bill.c ****     *
 657:.\Generated_Source\PSoC5/Print_Bill.c ****     *******************************************************************************/
 658:.\Generated_Source\PSoC5/Print_Bill.c ****     uint16 Print_Bill_GetByte(void) 
 659:.\Generated_Source\PSoC5/Print_Bill.c ****     {
 782              		.loc 1 659 0
 783              		.cfi_startproc
 784              		@ args = 0, pretend = 0, frame = 0
 785              		@ frame_needed = 1, uses_anonymous_args = 0
 786 0000 98B5     		push	{r3, r4, r7, lr}
 787              		.cfi_def_cfa_offset 16
 788              		.cfi_offset 3, -16
 789              		.cfi_offset 4, -12
 790              		.cfi_offset 7, -8
 791              		.cfi_offset 14, -4
 792 0002 00AF     		add	r7, sp, #0
 793              		.cfi_def_cfa_register 7
 660:.\Generated_Source\PSoC5/Print_Bill.c ****         return ( ((uint16)Print_Bill_ReadRxStatus() << 8u) | Print_Bill_ReadRxData() );
 794              		.loc 1 660 0
 795 0004 FFF7FEFF 		bl	Print_Bill_ReadRxStatus
 796 0008 0346     		mov	r3, r0
 797 000a 1B02     		lsls	r3, r3, #8
 798 000c 9CB2     		uxth	r4, r3
 799 000e FFF7FEFF 		bl	Print_Bill_ReadRxData
 800 0012 0346     		mov	r3, r0
 801 0014 9BB2     		uxth	r3, r3
 802 0016 2246     		mov	r2, r4	@ movhi
 803 0018 1343     		orrs	r3, r3, r2
 804 001a 9BB2     		uxth	r3, r3
 805 001c 9BB2     		uxth	r3, r3
 661:.\Generated_Source\PSoC5/Print_Bill.c ****     }
 806              		.loc 1 661 0
 807 001e 1846     		mov	r0, r3
 808 0020 98BD     		pop	{r3, r4, r7, pc}
 809              		.cfi_endproc
 810              	.LFE12:
 811              		.size	Print_Bill_GetByte, .-Print_Bill_GetByte
 812 0022 00BF     		.section	.text.Print_Bill_GetRxBufferSize,"ax",%progbits
 813              		.align	2
 814              		.global	Print_Bill_GetRxBufferSize
 815              		.thumb
 816              		.thumb_func
 817              		.type	Print_Bill_GetRxBufferSize, %function
 818              	Print_Bill_GetRxBufferSize:
ARM GAS  C:\Users\PROYEC~1\AppData\Local\Temp\ccggXJIG.s 			page 27


 819              	.LFB13:
 662:.\Generated_Source\PSoC5/Print_Bill.c **** 
 663:.\Generated_Source\PSoC5/Print_Bill.c **** 
 664:.\Generated_Source\PSoC5/Print_Bill.c ****     /*******************************************************************************
 665:.\Generated_Source\PSoC5/Print_Bill.c ****     * Function Name: Print_Bill_GetRxBufferSize
 666:.\Generated_Source\PSoC5/Print_Bill.c ****     ********************************************************************************
 667:.\Generated_Source\PSoC5/Print_Bill.c ****     *
 668:.\Generated_Source\PSoC5/Print_Bill.c ****     * Summary:
 669:.\Generated_Source\PSoC5/Print_Bill.c ****     *  Determine the amount of bytes left in the RX buffer and return the count in
 670:.\Generated_Source\PSoC5/Print_Bill.c ****     *  bytes
 671:.\Generated_Source\PSoC5/Print_Bill.c ****     *
 672:.\Generated_Source\PSoC5/Print_Bill.c ****     * Parameters:
 673:.\Generated_Source\PSoC5/Print_Bill.c ****     *  None.
 674:.\Generated_Source\PSoC5/Print_Bill.c ****     *
 675:.\Generated_Source\PSoC5/Print_Bill.c ****     * Return:
 676:.\Generated_Source\PSoC5/Print_Bill.c ****     *  uint8: Integer count of the number of bytes left
 677:.\Generated_Source\PSoC5/Print_Bill.c ****     *  in the RX buffer
 678:.\Generated_Source\PSoC5/Print_Bill.c ****     *
 679:.\Generated_Source\PSoC5/Print_Bill.c ****     * Global Variables:
 680:.\Generated_Source\PSoC5/Print_Bill.c ****     *  Print_Bill_rxBufferWrite - used to calculate left bytes.
 681:.\Generated_Source\PSoC5/Print_Bill.c ****     *  Print_Bill_rxBufferRead - used to calculate left bytes.
 682:.\Generated_Source\PSoC5/Print_Bill.c ****     *  Print_Bill_rxBufferLoopDetect - checked to decide left bytes amount.
 683:.\Generated_Source\PSoC5/Print_Bill.c ****     *
 684:.\Generated_Source\PSoC5/Print_Bill.c ****     * Reentrant:
 685:.\Generated_Source\PSoC5/Print_Bill.c ****     *  No.
 686:.\Generated_Source\PSoC5/Print_Bill.c ****     *
 687:.\Generated_Source\PSoC5/Print_Bill.c ****     * Theory:
 688:.\Generated_Source\PSoC5/Print_Bill.c ****     *  Allows the user to find out how full the RX Buffer is.
 689:.\Generated_Source\PSoC5/Print_Bill.c ****     *
 690:.\Generated_Source\PSoC5/Print_Bill.c ****     *******************************************************************************/
 691:.\Generated_Source\PSoC5/Print_Bill.c ****     uint8 Print_Bill_GetRxBufferSize(void)
 692:.\Generated_Source\PSoC5/Print_Bill.c ****                                                             
 693:.\Generated_Source\PSoC5/Print_Bill.c ****     {
 820              		.loc 1 693 0
 821              		.cfi_startproc
 822              		@ args = 0, pretend = 0, frame = 8
 823              		@ frame_needed = 1, uses_anonymous_args = 0
 824 0000 80B5     		push	{r7, lr}
 825              		.cfi_def_cfa_offset 8
 826              		.cfi_offset 7, -8
 827              		.cfi_offset 14, -4
 828 0002 82B0     		sub	sp, sp, #8
 829              		.cfi_def_cfa_offset 16
 830 0004 00AF     		add	r7, sp, #0
 831              		.cfi_def_cfa_register 7
 694:.\Generated_Source\PSoC5/Print_Bill.c ****         uint8 size;
 695:.\Generated_Source\PSoC5/Print_Bill.c **** 
 696:.\Generated_Source\PSoC5/Print_Bill.c ****         #if(Print_Bill_RXBUFFERSIZE > Print_Bill_FIFO_LENGTH)
 697:.\Generated_Source\PSoC5/Print_Bill.c **** 
 698:.\Generated_Source\PSoC5/Print_Bill.c ****             /* Disable Rx interrupt. */
 699:.\Generated_Source\PSoC5/Print_Bill.c ****             /* Protect variables that could change on interrupt. */
 700:.\Generated_Source\PSoC5/Print_Bill.c ****             #if(Print_Bill_RX_INTERRUPT_ENABLED)
 701:.\Generated_Source\PSoC5/Print_Bill.c ****                 Print_Bill_DisableRxInt();
 832              		.loc 1 701 0
 833 0006 FFF7FEFF 		bl	Print_Bill_DisableRxInt
 702:.\Generated_Source\PSoC5/Print_Bill.c ****             #endif /* Print_Bill_RX_INTERRUPT_ENABLED */
 703:.\Generated_Source\PSoC5/Print_Bill.c **** 
ARM GAS  C:\Users\PROYEC~1\AppData\Local\Temp\ccggXJIG.s 			page 28


 704:.\Generated_Source\PSoC5/Print_Bill.c ****             if(Print_Bill_rxBufferRead == Print_Bill_rxBufferWrite)
 834              		.loc 1 704 0
 835 000a 1A4B     		ldr	r3, .L58
 836 000c 1B78     		ldrb	r3, [r3]
 837 000e DAB2     		uxtb	r2, r3
 838 0010 194B     		ldr	r3, .L58+4
 839 0012 1B78     		ldrb	r3, [r3]
 840 0014 DBB2     		uxtb	r3, r3
 841 0016 9A42     		cmp	r2, r3
 842 0018 0AD1     		bne	.L52
 705:.\Generated_Source\PSoC5/Print_Bill.c ****             {
 706:.\Generated_Source\PSoC5/Print_Bill.c ****                 if(Print_Bill_rxBufferLoopDetect > 0u)
 843              		.loc 1 706 0
 844 001a 184B     		ldr	r3, .L58+8
 845 001c 1B78     		ldrb	r3, [r3]
 846 001e DBB2     		uxtb	r3, r3
 847 0020 002B     		cmp	r3, #0
 848 0022 02D0     		beq	.L53
 707:.\Generated_Source\PSoC5/Print_Bill.c ****                 {
 708:.\Generated_Source\PSoC5/Print_Bill.c ****                     size = Print_Bill_RXBUFFERSIZE;
 849              		.loc 1 708 0
 850 0024 1423     		movs	r3, #20
 851 0026 FB71     		strb	r3, [r7, #7]
 852 0028 1DE0     		b	.L55
 853              	.L53:
 709:.\Generated_Source\PSoC5/Print_Bill.c ****                 }
 710:.\Generated_Source\PSoC5/Print_Bill.c ****                 else
 711:.\Generated_Source\PSoC5/Print_Bill.c ****                 {
 712:.\Generated_Source\PSoC5/Print_Bill.c ****                     size = 0u;
 854              		.loc 1 712 0
 855 002a 0023     		movs	r3, #0
 856 002c FB71     		strb	r3, [r7, #7]
 857 002e 1AE0     		b	.L55
 858              	.L52:
 713:.\Generated_Source\PSoC5/Print_Bill.c ****                 }
 714:.\Generated_Source\PSoC5/Print_Bill.c ****             }
 715:.\Generated_Source\PSoC5/Print_Bill.c ****             else if(Print_Bill_rxBufferRead < Print_Bill_rxBufferWrite)
 859              		.loc 1 715 0
 860 0030 104B     		ldr	r3, .L58
 861 0032 1B78     		ldrb	r3, [r3]
 862 0034 DAB2     		uxtb	r2, r3
 863 0036 104B     		ldr	r3, .L58+4
 864 0038 1B78     		ldrb	r3, [r3]
 865 003a DBB2     		uxtb	r3, r3
 866 003c 9A42     		cmp	r2, r3
 867 003e 08D2     		bcs	.L56
 716:.\Generated_Source\PSoC5/Print_Bill.c ****             {
 717:.\Generated_Source\PSoC5/Print_Bill.c ****                 size = (Print_Bill_rxBufferWrite - Print_Bill_rxBufferRead);
 868              		.loc 1 717 0
 869 0040 0D4B     		ldr	r3, .L58+4
 870 0042 1B78     		ldrb	r3, [r3]
 871 0044 DAB2     		uxtb	r2, r3
 872 0046 0B4B     		ldr	r3, .L58
 873 0048 1B78     		ldrb	r3, [r3]
 874 004a DBB2     		uxtb	r3, r3
 875 004c D31A     		subs	r3, r2, r3
 876 004e FB71     		strb	r3, [r7, #7]
ARM GAS  C:\Users\PROYEC~1\AppData\Local\Temp\ccggXJIG.s 			page 29


 877 0050 09E0     		b	.L55
 878              	.L56:
 718:.\Generated_Source\PSoC5/Print_Bill.c ****             }
 719:.\Generated_Source\PSoC5/Print_Bill.c ****             else
 720:.\Generated_Source\PSoC5/Print_Bill.c ****             {
 721:.\Generated_Source\PSoC5/Print_Bill.c ****                 size = (Print_Bill_RXBUFFERSIZE - Print_Bill_rxBufferRead) + Print_Bill_rxBufferWri
 879              		.loc 1 721 0
 880 0052 094B     		ldr	r3, .L58+4
 881 0054 1B78     		ldrb	r3, [r3]
 882 0056 DAB2     		uxtb	r2, r3
 883 0058 064B     		ldr	r3, .L58
 884 005a 1B78     		ldrb	r3, [r3]
 885 005c DBB2     		uxtb	r3, r3
 886 005e D31A     		subs	r3, r2, r3
 887 0060 DBB2     		uxtb	r3, r3
 888 0062 1433     		adds	r3, r3, #20
 889 0064 FB71     		strb	r3, [r7, #7]
 890              	.L55:
 722:.\Generated_Source\PSoC5/Print_Bill.c ****             }
 723:.\Generated_Source\PSoC5/Print_Bill.c **** 
 724:.\Generated_Source\PSoC5/Print_Bill.c ****             /* Enable Rx interrupt. */
 725:.\Generated_Source\PSoC5/Print_Bill.c ****             #if(Print_Bill_RX_INTERRUPT_ENABLED)
 726:.\Generated_Source\PSoC5/Print_Bill.c ****                 Print_Bill_EnableRxInt();
 891              		.loc 1 726 0
 892 0066 FFF7FEFF 		bl	Print_Bill_EnableRxInt
 727:.\Generated_Source\PSoC5/Print_Bill.c ****             #endif /* End Print_Bill_RX_INTERRUPT_ENABLED */
 728:.\Generated_Source\PSoC5/Print_Bill.c **** 
 729:.\Generated_Source\PSoC5/Print_Bill.c ****         #else /* Print_Bill_RXBUFFERSIZE > Print_Bill_FIFO_LENGTH */
 730:.\Generated_Source\PSoC5/Print_Bill.c **** 
 731:.\Generated_Source\PSoC5/Print_Bill.c ****             /* We can only know if there is data in the fifo. */
 732:.\Generated_Source\PSoC5/Print_Bill.c ****             size = ((Print_Bill_RXSTATUS_REG & Print_Bill_RX_STS_FIFO_NOTEMPTY) != 0u) ? 1u : 0u;
 733:.\Generated_Source\PSoC5/Print_Bill.c **** 
 734:.\Generated_Source\PSoC5/Print_Bill.c ****         #endif /* End Print_Bill_RXBUFFERSIZE > Print_Bill_FIFO_LENGTH */
 735:.\Generated_Source\PSoC5/Print_Bill.c **** 
 736:.\Generated_Source\PSoC5/Print_Bill.c ****         return(size);
 893              		.loc 1 736 0
 894 006a FB79     		ldrb	r3, [r7, #7]	@ zero_extendqisi2
 737:.\Generated_Source\PSoC5/Print_Bill.c ****     }
 895              		.loc 1 737 0
 896 006c 1846     		mov	r0, r3
 897 006e 0837     		adds	r7, r7, #8
 898              		.cfi_def_cfa_offset 8
 899 0070 BD46     		mov	sp, r7
 900              		.cfi_def_cfa_register 13
 901              		@ sp needed
 902 0072 80BD     		pop	{r7, pc}
 903              	.L59:
 904              		.align	2
 905              	.L58:
 906 0074 00000000 		.word	Print_Bill_rxBufferRead
 907 0078 00000000 		.word	Print_Bill_rxBufferWrite
 908 007c 00000000 		.word	Print_Bill_rxBufferLoopDetect
 909              		.cfi_endproc
 910              	.LFE13:
 911              		.size	Print_Bill_GetRxBufferSize, .-Print_Bill_GetRxBufferSize
 912              		.section	.text.Print_Bill_ClearRxBuffer,"ax",%progbits
 913              		.align	2
ARM GAS  C:\Users\PROYEC~1\AppData\Local\Temp\ccggXJIG.s 			page 30


 914              		.global	Print_Bill_ClearRxBuffer
 915              		.thumb
 916              		.thumb_func
 917              		.type	Print_Bill_ClearRxBuffer, %function
 918              	Print_Bill_ClearRxBuffer:
 919              	.LFB14:
 738:.\Generated_Source\PSoC5/Print_Bill.c **** 
 739:.\Generated_Source\PSoC5/Print_Bill.c **** 
 740:.\Generated_Source\PSoC5/Print_Bill.c ****     /*******************************************************************************
 741:.\Generated_Source\PSoC5/Print_Bill.c ****     * Function Name: Print_Bill_ClearRxBuffer
 742:.\Generated_Source\PSoC5/Print_Bill.c ****     ********************************************************************************
 743:.\Generated_Source\PSoC5/Print_Bill.c ****     *
 744:.\Generated_Source\PSoC5/Print_Bill.c ****     * Summary:
 745:.\Generated_Source\PSoC5/Print_Bill.c ****     *  Clears the RX RAM buffer by setting the read and write pointers both to zero.
 746:.\Generated_Source\PSoC5/Print_Bill.c ****     *  Clears hardware RX FIFO.
 747:.\Generated_Source\PSoC5/Print_Bill.c ****     *
 748:.\Generated_Source\PSoC5/Print_Bill.c ****     * Parameters:
 749:.\Generated_Source\PSoC5/Print_Bill.c ****     *  None.
 750:.\Generated_Source\PSoC5/Print_Bill.c ****     *
 751:.\Generated_Source\PSoC5/Print_Bill.c ****     * Return:
 752:.\Generated_Source\PSoC5/Print_Bill.c ****     *  None.
 753:.\Generated_Source\PSoC5/Print_Bill.c ****     *
 754:.\Generated_Source\PSoC5/Print_Bill.c ****     * Global Variables:
 755:.\Generated_Source\PSoC5/Print_Bill.c ****     *  Print_Bill_rxBufferWrite - cleared to zero.
 756:.\Generated_Source\PSoC5/Print_Bill.c ****     *  Print_Bill_rxBufferRead - cleared to zero.
 757:.\Generated_Source\PSoC5/Print_Bill.c ****     *  Print_Bill_rxBufferLoopDetect - cleared to zero.
 758:.\Generated_Source\PSoC5/Print_Bill.c ****     *  Print_Bill_rxBufferOverflow - cleared to zero.
 759:.\Generated_Source\PSoC5/Print_Bill.c ****     *
 760:.\Generated_Source\PSoC5/Print_Bill.c ****     * Reentrant:
 761:.\Generated_Source\PSoC5/Print_Bill.c ****     *  No.
 762:.\Generated_Source\PSoC5/Print_Bill.c ****     *
 763:.\Generated_Source\PSoC5/Print_Bill.c ****     * Theory:
 764:.\Generated_Source\PSoC5/Print_Bill.c ****     *  Setting the pointers to zero makes the system believe there is no data to
 765:.\Generated_Source\PSoC5/Print_Bill.c ****     *  read and writing will resume at address 0 overwriting any data that may
 766:.\Generated_Source\PSoC5/Print_Bill.c ****     *  have remained in the RAM.
 767:.\Generated_Source\PSoC5/Print_Bill.c ****     *
 768:.\Generated_Source\PSoC5/Print_Bill.c ****     * Side Effects:
 769:.\Generated_Source\PSoC5/Print_Bill.c ****     *  Any received data not read from the RAM or FIFO buffer will be lost.
 770:.\Generated_Source\PSoC5/Print_Bill.c ****     *******************************************************************************/
 771:.\Generated_Source\PSoC5/Print_Bill.c ****     void Print_Bill_ClearRxBuffer(void) 
 772:.\Generated_Source\PSoC5/Print_Bill.c ****     {
 920              		.loc 1 772 0
 921              		.cfi_startproc
 922              		@ args = 0, pretend = 0, frame = 8
 923              		@ frame_needed = 1, uses_anonymous_args = 0
 924 0000 80B5     		push	{r7, lr}
 925              		.cfi_def_cfa_offset 8
 926              		.cfi_offset 7, -8
 927              		.cfi_offset 14, -4
 928 0002 82B0     		sub	sp, sp, #8
 929              		.cfi_def_cfa_offset 16
 930 0004 00AF     		add	r7, sp, #0
 931              		.cfi_def_cfa_register 7
 773:.\Generated_Source\PSoC5/Print_Bill.c ****         uint8 enableInterrupts;
 774:.\Generated_Source\PSoC5/Print_Bill.c **** 
 775:.\Generated_Source\PSoC5/Print_Bill.c ****         /* clear the HW FIFO */
 776:.\Generated_Source\PSoC5/Print_Bill.c ****         /* Enter critical section */
ARM GAS  C:\Users\PROYEC~1\AppData\Local\Temp\ccggXJIG.s 			page 31


 777:.\Generated_Source\PSoC5/Print_Bill.c ****         enableInterrupts = CyEnterCriticalSection();
 932              		.loc 1 777 0
 933 0006 FFF7FEFF 		bl	CyEnterCriticalSection
 934 000a 0346     		mov	r3, r0
 935 000c FB71     		strb	r3, [r7, #7]
 778:.\Generated_Source\PSoC5/Print_Bill.c ****         Print_Bill_RXDATA_AUX_CTL_REG |=  Print_Bill_RX_FIFO_CLR;
 936              		.loc 1 778 0
 937 000e 134A     		ldr	r2, .L61
 938 0010 124B     		ldr	r3, .L61
 939 0012 1B78     		ldrb	r3, [r3]
 940 0014 DBB2     		uxtb	r3, r3
 941 0016 43F00103 		orr	r3, r3, #1
 942 001a DBB2     		uxtb	r3, r3
 943 001c 1370     		strb	r3, [r2]
 779:.\Generated_Source\PSoC5/Print_Bill.c ****         Print_Bill_RXDATA_AUX_CTL_REG &= (uint8)~Print_Bill_RX_FIFO_CLR;
 944              		.loc 1 779 0
 945 001e 0F4A     		ldr	r2, .L61
 946 0020 0E4B     		ldr	r3, .L61
 947 0022 1B78     		ldrb	r3, [r3]
 948 0024 DBB2     		uxtb	r3, r3
 949 0026 23F00103 		bic	r3, r3, #1
 950 002a DBB2     		uxtb	r3, r3
 951 002c 1370     		strb	r3, [r2]
 780:.\Generated_Source\PSoC5/Print_Bill.c ****         /* Exit critical section */
 781:.\Generated_Source\PSoC5/Print_Bill.c ****         CyExitCriticalSection(enableInterrupts);
 952              		.loc 1 781 0
 953 002e FB79     		ldrb	r3, [r7, #7]	@ zero_extendqisi2
 954 0030 1846     		mov	r0, r3
 955 0032 FFF7FEFF 		bl	CyExitCriticalSection
 782:.\Generated_Source\PSoC5/Print_Bill.c **** 
 783:.\Generated_Source\PSoC5/Print_Bill.c ****         #if(Print_Bill_RXBUFFERSIZE > Print_Bill_FIFO_LENGTH)
 784:.\Generated_Source\PSoC5/Print_Bill.c ****             /* Disable Rx interrupt. */
 785:.\Generated_Source\PSoC5/Print_Bill.c ****             /* Protect variables that could change on interrupt. */
 786:.\Generated_Source\PSoC5/Print_Bill.c ****             #if(Print_Bill_RX_INTERRUPT_ENABLED)
 787:.\Generated_Source\PSoC5/Print_Bill.c ****                 Print_Bill_DisableRxInt();
 956              		.loc 1 787 0
 957 0036 FFF7FEFF 		bl	Print_Bill_DisableRxInt
 788:.\Generated_Source\PSoC5/Print_Bill.c ****             #endif /* End Print_Bill_RX_INTERRUPT_ENABLED */
 789:.\Generated_Source\PSoC5/Print_Bill.c **** 
 790:.\Generated_Source\PSoC5/Print_Bill.c ****             Print_Bill_rxBufferRead = 0u;
 958              		.loc 1 790 0
 959 003a 094B     		ldr	r3, .L61+4
 960 003c 0022     		movs	r2, #0
 961 003e 1A70     		strb	r2, [r3]
 791:.\Generated_Source\PSoC5/Print_Bill.c ****             Print_Bill_rxBufferWrite = 0u;
 962              		.loc 1 791 0
 963 0040 084B     		ldr	r3, .L61+8
 964 0042 0022     		movs	r2, #0
 965 0044 1A70     		strb	r2, [r3]
 792:.\Generated_Source\PSoC5/Print_Bill.c ****             Print_Bill_rxBufferLoopDetect = 0u;
 966              		.loc 1 792 0
 967 0046 084B     		ldr	r3, .L61+12
 968 0048 0022     		movs	r2, #0
 969 004a 1A70     		strb	r2, [r3]
 793:.\Generated_Source\PSoC5/Print_Bill.c ****             Print_Bill_rxBufferOverflow = 0u;
 970              		.loc 1 793 0
 971 004c 074B     		ldr	r3, .L61+16
ARM GAS  C:\Users\PROYEC~1\AppData\Local\Temp\ccggXJIG.s 			page 32


 972 004e 0022     		movs	r2, #0
 973 0050 1A70     		strb	r2, [r3]
 794:.\Generated_Source\PSoC5/Print_Bill.c **** 
 795:.\Generated_Source\PSoC5/Print_Bill.c ****             /* Enable Rx interrupt. */
 796:.\Generated_Source\PSoC5/Print_Bill.c ****             #if(Print_Bill_RX_INTERRUPT_ENABLED)
 797:.\Generated_Source\PSoC5/Print_Bill.c ****                 Print_Bill_EnableRxInt();
 974              		.loc 1 797 0
 975 0052 FFF7FEFF 		bl	Print_Bill_EnableRxInt
 798:.\Generated_Source\PSoC5/Print_Bill.c ****             #endif /* End Print_Bill_RX_INTERRUPT_ENABLED */
 799:.\Generated_Source\PSoC5/Print_Bill.c ****         #endif /* End Print_Bill_RXBUFFERSIZE > Print_Bill_FIFO_LENGTH */
 800:.\Generated_Source\PSoC5/Print_Bill.c **** 
 801:.\Generated_Source\PSoC5/Print_Bill.c ****     }
 976              		.loc 1 801 0
 977 0056 0837     		adds	r7, r7, #8
 978              		.cfi_def_cfa_offset 8
 979 0058 BD46     		mov	sp, r7
 980              		.cfi_def_cfa_register 13
 981              		@ sp needed
 982 005a 80BD     		pop	{r7, pc}
 983              	.L62:
 984              		.align	2
 985              	.L61:
 986 005c 9C640040 		.word	1073767580
 987 0060 00000000 		.word	Print_Bill_rxBufferRead
 988 0064 00000000 		.word	Print_Bill_rxBufferWrite
 989 0068 00000000 		.word	Print_Bill_rxBufferLoopDetect
 990 006c 00000000 		.word	Print_Bill_rxBufferOverflow
 991              		.cfi_endproc
 992              	.LFE14:
 993              		.size	Print_Bill_ClearRxBuffer, .-Print_Bill_ClearRxBuffer
 994              		.section	.text.Print_Bill_SetRxAddressMode,"ax",%progbits
 995              		.align	2
 996              		.global	Print_Bill_SetRxAddressMode
 997              		.thumb
 998              		.thumb_func
 999              		.type	Print_Bill_SetRxAddressMode, %function
 1000              	Print_Bill_SetRxAddressMode:
 1001              	.LFB15:
 802:.\Generated_Source\PSoC5/Print_Bill.c **** 
 803:.\Generated_Source\PSoC5/Print_Bill.c **** 
 804:.\Generated_Source\PSoC5/Print_Bill.c ****     /*******************************************************************************
 805:.\Generated_Source\PSoC5/Print_Bill.c ****     * Function Name: Print_Bill_SetRxAddressMode
 806:.\Generated_Source\PSoC5/Print_Bill.c ****     ********************************************************************************
 807:.\Generated_Source\PSoC5/Print_Bill.c ****     *
 808:.\Generated_Source\PSoC5/Print_Bill.c ****     * Summary:
 809:.\Generated_Source\PSoC5/Print_Bill.c ****     *  Set the receive addressing mode
 810:.\Generated_Source\PSoC5/Print_Bill.c ****     *
 811:.\Generated_Source\PSoC5/Print_Bill.c ****     * Parameters:
 812:.\Generated_Source\PSoC5/Print_Bill.c ****     *  addressMode: Enumerated value indicating the mode of RX addressing
 813:.\Generated_Source\PSoC5/Print_Bill.c ****     *  Print_Bill__B_UART__AM_SW_BYTE_BYTE -  Software Byte-by-Byte address
 814:.\Generated_Source\PSoC5/Print_Bill.c ****     *                                               detection
 815:.\Generated_Source\PSoC5/Print_Bill.c ****     *  Print_Bill__B_UART__AM_SW_DETECT_TO_BUFFER - Software Detect to Buffer
 816:.\Generated_Source\PSoC5/Print_Bill.c ****     *                                               address detection
 817:.\Generated_Source\PSoC5/Print_Bill.c ****     *  Print_Bill__B_UART__AM_HW_BYTE_BY_BYTE - Hardware Byte-by-Byte address
 818:.\Generated_Source\PSoC5/Print_Bill.c ****     *                                               detection
 819:.\Generated_Source\PSoC5/Print_Bill.c ****     *  Print_Bill__B_UART__AM_HW_DETECT_TO_BUFFER - Hardware Detect to Buffer
 820:.\Generated_Source\PSoC5/Print_Bill.c ****     *                                               address detection
ARM GAS  C:\Users\PROYEC~1\AppData\Local\Temp\ccggXJIG.s 			page 33


 821:.\Generated_Source\PSoC5/Print_Bill.c ****     *  Print_Bill__B_UART__AM_NONE - No address detection
 822:.\Generated_Source\PSoC5/Print_Bill.c ****     *
 823:.\Generated_Source\PSoC5/Print_Bill.c ****     * Return:
 824:.\Generated_Source\PSoC5/Print_Bill.c ****     *  None.
 825:.\Generated_Source\PSoC5/Print_Bill.c ****     *
 826:.\Generated_Source\PSoC5/Print_Bill.c ****     * Global Variables:
 827:.\Generated_Source\PSoC5/Print_Bill.c ****     *  Print_Bill_rxAddressMode - the parameter stored in this variable for
 828:.\Generated_Source\PSoC5/Print_Bill.c ****     *   the farther usage in RX ISR.
 829:.\Generated_Source\PSoC5/Print_Bill.c ****     *  Print_Bill_rxAddressDetected - set to initial state (0).
 830:.\Generated_Source\PSoC5/Print_Bill.c ****     *
 831:.\Generated_Source\PSoC5/Print_Bill.c ****     *******************************************************************************/
 832:.\Generated_Source\PSoC5/Print_Bill.c ****     void Print_Bill_SetRxAddressMode(uint8 addressMode)
 833:.\Generated_Source\PSoC5/Print_Bill.c ****                                                         
 834:.\Generated_Source\PSoC5/Print_Bill.c ****     {
 1002              		.loc 1 834 0
 1003              		.cfi_startproc
 1004              		@ args = 0, pretend = 0, frame = 8
 1005              		@ frame_needed = 1, uses_anonymous_args = 0
 1006              		@ link register save eliminated.
 1007 0000 80B4     		push	{r7}
 1008              		.cfi_def_cfa_offset 4
 1009              		.cfi_offset 7, -4
 1010 0002 83B0     		sub	sp, sp, #12
 1011              		.cfi_def_cfa_offset 16
 1012 0004 00AF     		add	r7, sp, #0
 1013              		.cfi_def_cfa_register 7
 1014 0006 0346     		mov	r3, r0
 1015 0008 FB71     		strb	r3, [r7, #7]
 835:.\Generated_Source\PSoC5/Print_Bill.c ****         #if(Print_Bill_RXHW_ADDRESS_ENABLED)
 836:.\Generated_Source\PSoC5/Print_Bill.c ****             #if(Print_Bill_CONTROL_REG_REMOVED)
 837:.\Generated_Source\PSoC5/Print_Bill.c ****                 if(addressMode != 0u) { }     /* release compiler warning */
 838:.\Generated_Source\PSoC5/Print_Bill.c ****             #else /* Print_Bill_CONTROL_REG_REMOVED */
 839:.\Generated_Source\PSoC5/Print_Bill.c ****                 uint8 tmpCtrl;
 840:.\Generated_Source\PSoC5/Print_Bill.c ****                 tmpCtrl = Print_Bill_CONTROL_REG & (uint8)~Print_Bill_CTRL_RXADDR_MODE_MASK;
 841:.\Generated_Source\PSoC5/Print_Bill.c ****                 tmpCtrl |= (uint8)(addressMode << Print_Bill_CTRL_RXADDR_MODE0_SHIFT);
 842:.\Generated_Source\PSoC5/Print_Bill.c ****                 Print_Bill_CONTROL_REG = tmpCtrl;
 843:.\Generated_Source\PSoC5/Print_Bill.c ****                 #if(Print_Bill_RX_INTERRUPT_ENABLED && \
 844:.\Generated_Source\PSoC5/Print_Bill.c ****                    (Print_Bill_RXBUFFERSIZE > Print_Bill_FIFO_LENGTH) )
 845:.\Generated_Source\PSoC5/Print_Bill.c ****                     Print_Bill_rxAddressMode = addressMode;
 846:.\Generated_Source\PSoC5/Print_Bill.c ****                     Print_Bill_rxAddressDetected = 0u;
 847:.\Generated_Source\PSoC5/Print_Bill.c ****                 #endif /* End Print_Bill_RXBUFFERSIZE > Print_Bill_FIFO_LENGTH*/
 848:.\Generated_Source\PSoC5/Print_Bill.c ****             #endif /* End Print_Bill_CONTROL_REG_REMOVED */
 849:.\Generated_Source\PSoC5/Print_Bill.c ****         #else /* Print_Bill_RXHW_ADDRESS_ENABLED */
 850:.\Generated_Source\PSoC5/Print_Bill.c ****             if(addressMode != 0u) { }     /* release compiler warning */
 851:.\Generated_Source\PSoC5/Print_Bill.c ****         #endif /* End Print_Bill_RXHW_ADDRESS_ENABLED */
 852:.\Generated_Source\PSoC5/Print_Bill.c ****     }
 1016              		.loc 1 852 0
 1017 000a 0C37     		adds	r7, r7, #12
 1018              		.cfi_def_cfa_offset 4
 1019 000c BD46     		mov	sp, r7
 1020              		.cfi_def_cfa_register 13
 1021              		@ sp needed
 1022 000e 5DF8047B 		ldr	r7, [sp], #4
 1023              		.cfi_restore 7
 1024              		.cfi_def_cfa_offset 0
 1025 0012 7047     		bx	lr
 1026              		.cfi_endproc
ARM GAS  C:\Users\PROYEC~1\AppData\Local\Temp\ccggXJIG.s 			page 34


 1027              	.LFE15:
 1028              		.size	Print_Bill_SetRxAddressMode, .-Print_Bill_SetRxAddressMode
 1029              		.section	.text.Print_Bill_SetRxAddress1,"ax",%progbits
 1030              		.align	2
 1031              		.global	Print_Bill_SetRxAddress1
 1032              		.thumb
 1033              		.thumb_func
 1034              		.type	Print_Bill_SetRxAddress1, %function
 1035              	Print_Bill_SetRxAddress1:
 1036              	.LFB16:
 853:.\Generated_Source\PSoC5/Print_Bill.c **** 
 854:.\Generated_Source\PSoC5/Print_Bill.c **** 
 855:.\Generated_Source\PSoC5/Print_Bill.c ****     /*******************************************************************************
 856:.\Generated_Source\PSoC5/Print_Bill.c ****     * Function Name: Print_Bill_SetRxAddress1
 857:.\Generated_Source\PSoC5/Print_Bill.c ****     ********************************************************************************
 858:.\Generated_Source\PSoC5/Print_Bill.c ****     *
 859:.\Generated_Source\PSoC5/Print_Bill.c ****     * Summary:
 860:.\Generated_Source\PSoC5/Print_Bill.c ****     *  Set the first hardware address compare value
 861:.\Generated_Source\PSoC5/Print_Bill.c ****     *
 862:.\Generated_Source\PSoC5/Print_Bill.c ****     * Parameters:
 863:.\Generated_Source\PSoC5/Print_Bill.c ****     *  address
 864:.\Generated_Source\PSoC5/Print_Bill.c ****     *
 865:.\Generated_Source\PSoC5/Print_Bill.c ****     * Return:
 866:.\Generated_Source\PSoC5/Print_Bill.c ****     *  None.
 867:.\Generated_Source\PSoC5/Print_Bill.c ****     *
 868:.\Generated_Source\PSoC5/Print_Bill.c ****     *******************************************************************************/
 869:.\Generated_Source\PSoC5/Print_Bill.c ****     void Print_Bill_SetRxAddress1(uint8 address) 
 870:.\Generated_Source\PSoC5/Print_Bill.c **** 
 871:.\Generated_Source\PSoC5/Print_Bill.c ****     {
 1037              		.loc 1 871 0
 1038              		.cfi_startproc
 1039              		@ args = 0, pretend = 0, frame = 8
 1040              		@ frame_needed = 1, uses_anonymous_args = 0
 1041              		@ link register save eliminated.
 1042 0000 80B4     		push	{r7}
 1043              		.cfi_def_cfa_offset 4
 1044              		.cfi_offset 7, -4
 1045 0002 83B0     		sub	sp, sp, #12
 1046              		.cfi_def_cfa_offset 16
 1047 0004 00AF     		add	r7, sp, #0
 1048              		.cfi_def_cfa_register 7
 1049 0006 0346     		mov	r3, r0
 1050 0008 FB71     		strb	r3, [r7, #7]
 872:.\Generated_Source\PSoC5/Print_Bill.c ****         Print_Bill_RXADDRESS1_REG = address;
 1051              		.loc 1 872 0
 1052 000a 044A     		ldr	r2, .L65
 1053 000c FB79     		ldrb	r3, [r7, #7]
 1054 000e 1370     		strb	r3, [r2]
 873:.\Generated_Source\PSoC5/Print_Bill.c ****     }
 1055              		.loc 1 873 0
 1056 0010 0C37     		adds	r7, r7, #12
 1057              		.cfi_def_cfa_offset 4
 1058 0012 BD46     		mov	sp, r7
 1059              		.cfi_def_cfa_register 13
 1060              		@ sp needed
 1061 0014 5DF8047B 		ldr	r7, [sp], #4
 1062              		.cfi_restore 7
ARM GAS  C:\Users\PROYEC~1\AppData\Local\Temp\ccggXJIG.s 			page 35


 1063              		.cfi_def_cfa_offset 0
 1064 0018 7047     		bx	lr
 1065              	.L66:
 1066 001a 00BF     		.align	2
 1067              	.L65:
 1068 001c 2C640040 		.word	1073767468
 1069              		.cfi_endproc
 1070              	.LFE16:
 1071              		.size	Print_Bill_SetRxAddress1, .-Print_Bill_SetRxAddress1
 1072              		.section	.text.Print_Bill_SetRxAddress2,"ax",%progbits
 1073              		.align	2
 1074              		.global	Print_Bill_SetRxAddress2
 1075              		.thumb
 1076              		.thumb_func
 1077              		.type	Print_Bill_SetRxAddress2, %function
 1078              	Print_Bill_SetRxAddress2:
 1079              	.LFB17:
 874:.\Generated_Source\PSoC5/Print_Bill.c **** 
 875:.\Generated_Source\PSoC5/Print_Bill.c **** 
 876:.\Generated_Source\PSoC5/Print_Bill.c ****     /*******************************************************************************
 877:.\Generated_Source\PSoC5/Print_Bill.c ****     * Function Name: Print_Bill_SetRxAddress2
 878:.\Generated_Source\PSoC5/Print_Bill.c ****     ********************************************************************************
 879:.\Generated_Source\PSoC5/Print_Bill.c ****     *
 880:.\Generated_Source\PSoC5/Print_Bill.c ****     * Summary:
 881:.\Generated_Source\PSoC5/Print_Bill.c ****     *  Set the second hardware address compare value
 882:.\Generated_Source\PSoC5/Print_Bill.c ****     *
 883:.\Generated_Source\PSoC5/Print_Bill.c ****     * Parameters:
 884:.\Generated_Source\PSoC5/Print_Bill.c ****     *  address
 885:.\Generated_Source\PSoC5/Print_Bill.c ****     *
 886:.\Generated_Source\PSoC5/Print_Bill.c ****     * Return:
 887:.\Generated_Source\PSoC5/Print_Bill.c ****     *  None.
 888:.\Generated_Source\PSoC5/Print_Bill.c ****     *
 889:.\Generated_Source\PSoC5/Print_Bill.c ****     *******************************************************************************/
 890:.\Generated_Source\PSoC5/Print_Bill.c ****     void Print_Bill_SetRxAddress2(uint8 address) 
 891:.\Generated_Source\PSoC5/Print_Bill.c ****     {
 1080              		.loc 1 891 0
 1081              		.cfi_startproc
 1082              		@ args = 0, pretend = 0, frame = 8
 1083              		@ frame_needed = 1, uses_anonymous_args = 0
 1084              		@ link register save eliminated.
 1085 0000 80B4     		push	{r7}
 1086              		.cfi_def_cfa_offset 4
 1087              		.cfi_offset 7, -4
 1088 0002 83B0     		sub	sp, sp, #12
 1089              		.cfi_def_cfa_offset 16
 1090 0004 00AF     		add	r7, sp, #0
 1091              		.cfi_def_cfa_register 7
 1092 0006 0346     		mov	r3, r0
 1093 0008 FB71     		strb	r3, [r7, #7]
 892:.\Generated_Source\PSoC5/Print_Bill.c ****         Print_Bill_RXADDRESS2_REG = address;
 1094              		.loc 1 892 0
 1095 000a 044A     		ldr	r2, .L68
 1096 000c FB79     		ldrb	r3, [r7, #7]
 1097 000e 1370     		strb	r3, [r2]
 893:.\Generated_Source\PSoC5/Print_Bill.c ****     }
 1098              		.loc 1 893 0
 1099 0010 0C37     		adds	r7, r7, #12
ARM GAS  C:\Users\PROYEC~1\AppData\Local\Temp\ccggXJIG.s 			page 36


 1100              		.cfi_def_cfa_offset 4
 1101 0012 BD46     		mov	sp, r7
 1102              		.cfi_def_cfa_register 13
 1103              		@ sp needed
 1104 0014 5DF8047B 		ldr	r7, [sp], #4
 1105              		.cfi_restore 7
 1106              		.cfi_def_cfa_offset 0
 1107 0018 7047     		bx	lr
 1108              	.L69:
 1109 001a 00BF     		.align	2
 1110              	.L68:
 1111 001c 3C640040 		.word	1073767484
 1112              		.cfi_endproc
 1113              	.LFE17:
 1114              		.size	Print_Bill_SetRxAddress2, .-Print_Bill_SetRxAddress2
 1115              		.section	.text.Print_Bill_SetTxInterruptMode,"ax",%progbits
 1116              		.align	2
 1117              		.global	Print_Bill_SetTxInterruptMode
 1118              		.thumb
 1119              		.thumb_func
 1120              		.type	Print_Bill_SetTxInterruptMode, %function
 1121              	Print_Bill_SetTxInterruptMode:
 1122              	.LFB18:
 894:.\Generated_Source\PSoC5/Print_Bill.c **** 
 895:.\Generated_Source\PSoC5/Print_Bill.c **** #endif  /* Print_Bill_RX_ENABLED || Print_Bill_HD_ENABLED*/
 896:.\Generated_Source\PSoC5/Print_Bill.c **** 
 897:.\Generated_Source\PSoC5/Print_Bill.c **** 
 898:.\Generated_Source\PSoC5/Print_Bill.c **** #if( (Print_Bill_TX_ENABLED) || (Print_Bill_HD_ENABLED) )
 899:.\Generated_Source\PSoC5/Print_Bill.c **** 
 900:.\Generated_Source\PSoC5/Print_Bill.c ****     #if(Print_Bill_TX_INTERRUPT_ENABLED)
 901:.\Generated_Source\PSoC5/Print_Bill.c **** 
 902:.\Generated_Source\PSoC5/Print_Bill.c ****         /*******************************************************************************
 903:.\Generated_Source\PSoC5/Print_Bill.c ****         * Function Name: Print_Bill_EnableTxInt
 904:.\Generated_Source\PSoC5/Print_Bill.c ****         ********************************************************************************
 905:.\Generated_Source\PSoC5/Print_Bill.c ****         *
 906:.\Generated_Source\PSoC5/Print_Bill.c ****         * Summary:
 907:.\Generated_Source\PSoC5/Print_Bill.c ****         *  Enable TX interrupt generation
 908:.\Generated_Source\PSoC5/Print_Bill.c ****         *
 909:.\Generated_Source\PSoC5/Print_Bill.c ****         * Parameters:
 910:.\Generated_Source\PSoC5/Print_Bill.c ****         *  None.
 911:.\Generated_Source\PSoC5/Print_Bill.c ****         *
 912:.\Generated_Source\PSoC5/Print_Bill.c ****         * Return:
 913:.\Generated_Source\PSoC5/Print_Bill.c ****         *  None.
 914:.\Generated_Source\PSoC5/Print_Bill.c ****         *
 915:.\Generated_Source\PSoC5/Print_Bill.c ****         * Theory:
 916:.\Generated_Source\PSoC5/Print_Bill.c ****         *  Enable the interrupt output -or- the interrupt component itself
 917:.\Generated_Source\PSoC5/Print_Bill.c ****         *
 918:.\Generated_Source\PSoC5/Print_Bill.c ****         *******************************************************************************/
 919:.\Generated_Source\PSoC5/Print_Bill.c ****         void Print_Bill_EnableTxInt(void) 
 920:.\Generated_Source\PSoC5/Print_Bill.c ****         {
 921:.\Generated_Source\PSoC5/Print_Bill.c ****             CyIntEnable(Print_Bill_TX_VECT_NUM);
 922:.\Generated_Source\PSoC5/Print_Bill.c ****         }
 923:.\Generated_Source\PSoC5/Print_Bill.c **** 
 924:.\Generated_Source\PSoC5/Print_Bill.c **** 
 925:.\Generated_Source\PSoC5/Print_Bill.c ****         /*******************************************************************************
 926:.\Generated_Source\PSoC5/Print_Bill.c ****         * Function Name: Print_Bill_DisableTxInt
 927:.\Generated_Source\PSoC5/Print_Bill.c ****         ********************************************************************************
ARM GAS  C:\Users\PROYEC~1\AppData\Local\Temp\ccggXJIG.s 			page 37


 928:.\Generated_Source\PSoC5/Print_Bill.c ****         *
 929:.\Generated_Source\PSoC5/Print_Bill.c ****         * Summary:
 930:.\Generated_Source\PSoC5/Print_Bill.c ****         *  Disable TX interrupt generation
 931:.\Generated_Source\PSoC5/Print_Bill.c ****         *
 932:.\Generated_Source\PSoC5/Print_Bill.c ****         * Parameters:
 933:.\Generated_Source\PSoC5/Print_Bill.c ****         *  None.
 934:.\Generated_Source\PSoC5/Print_Bill.c ****         *
 935:.\Generated_Source\PSoC5/Print_Bill.c ****         * Return:
 936:.\Generated_Source\PSoC5/Print_Bill.c ****         *  None.
 937:.\Generated_Source\PSoC5/Print_Bill.c ****         *
 938:.\Generated_Source\PSoC5/Print_Bill.c ****         * Theory:
 939:.\Generated_Source\PSoC5/Print_Bill.c ****         *  Disable the interrupt output -or- the interrupt component itself
 940:.\Generated_Source\PSoC5/Print_Bill.c ****         *
 941:.\Generated_Source\PSoC5/Print_Bill.c ****         *******************************************************************************/
 942:.\Generated_Source\PSoC5/Print_Bill.c ****         void Print_Bill_DisableTxInt(void) 
 943:.\Generated_Source\PSoC5/Print_Bill.c ****         {
 944:.\Generated_Source\PSoC5/Print_Bill.c ****             CyIntDisable(Print_Bill_TX_VECT_NUM);
 945:.\Generated_Source\PSoC5/Print_Bill.c ****         }
 946:.\Generated_Source\PSoC5/Print_Bill.c **** 
 947:.\Generated_Source\PSoC5/Print_Bill.c ****     #endif /* Print_Bill_TX_INTERRUPT_ENABLED */
 948:.\Generated_Source\PSoC5/Print_Bill.c **** 
 949:.\Generated_Source\PSoC5/Print_Bill.c **** 
 950:.\Generated_Source\PSoC5/Print_Bill.c ****     /*******************************************************************************
 951:.\Generated_Source\PSoC5/Print_Bill.c ****     * Function Name: Print_Bill_SetTxInterruptMode
 952:.\Generated_Source\PSoC5/Print_Bill.c ****     ********************************************************************************
 953:.\Generated_Source\PSoC5/Print_Bill.c ****     *
 954:.\Generated_Source\PSoC5/Print_Bill.c ****     * Summary:
 955:.\Generated_Source\PSoC5/Print_Bill.c ****     *  Configure which status bits trigger an interrupt event
 956:.\Generated_Source\PSoC5/Print_Bill.c ****     *
 957:.\Generated_Source\PSoC5/Print_Bill.c ****     * Parameters:
 958:.\Generated_Source\PSoC5/Print_Bill.c ****     *  intSrc: An or'd combination of the desired status bit masks (defined in
 959:.\Generated_Source\PSoC5/Print_Bill.c ****     *          the header file)
 960:.\Generated_Source\PSoC5/Print_Bill.c ****     *
 961:.\Generated_Source\PSoC5/Print_Bill.c ****     * Return:
 962:.\Generated_Source\PSoC5/Print_Bill.c ****     *  None.
 963:.\Generated_Source\PSoC5/Print_Bill.c ****     *
 964:.\Generated_Source\PSoC5/Print_Bill.c ****     * Theory:
 965:.\Generated_Source\PSoC5/Print_Bill.c ****     *  Enables the output of specific status bits to the interrupt controller
 966:.\Generated_Source\PSoC5/Print_Bill.c ****     *
 967:.\Generated_Source\PSoC5/Print_Bill.c ****     *******************************************************************************/
 968:.\Generated_Source\PSoC5/Print_Bill.c ****     void Print_Bill_SetTxInterruptMode(uint8 intSrc) 
 969:.\Generated_Source\PSoC5/Print_Bill.c ****     {
 1123              		.loc 1 969 0
 1124              		.cfi_startproc
 1125              		@ args = 0, pretend = 0, frame = 8
 1126              		@ frame_needed = 1, uses_anonymous_args = 0
 1127              		@ link register save eliminated.
 1128 0000 80B4     		push	{r7}
 1129              		.cfi_def_cfa_offset 4
 1130              		.cfi_offset 7, -4
 1131 0002 83B0     		sub	sp, sp, #12
 1132              		.cfi_def_cfa_offset 16
 1133 0004 00AF     		add	r7, sp, #0
 1134              		.cfi_def_cfa_register 7
 1135 0006 0346     		mov	r3, r0
 1136 0008 FB71     		strb	r3, [r7, #7]
 970:.\Generated_Source\PSoC5/Print_Bill.c ****         Print_Bill_TXSTATUS_MASK_REG = intSrc;
ARM GAS  C:\Users\PROYEC~1\AppData\Local\Temp\ccggXJIG.s 			page 38


 1137              		.loc 1 970 0
 1138 000a 044A     		ldr	r2, .L71
 1139 000c FB79     		ldrb	r3, [r7, #7]
 1140 000e 1370     		strb	r3, [r2]
 971:.\Generated_Source\PSoC5/Print_Bill.c ****     }
 1141              		.loc 1 971 0
 1142 0010 0C37     		adds	r7, r7, #12
 1143              		.cfi_def_cfa_offset 4
 1144 0012 BD46     		mov	sp, r7
 1145              		.cfi_def_cfa_register 13
 1146              		@ sp needed
 1147 0014 5DF8047B 		ldr	r7, [sp], #4
 1148              		.cfi_restore 7
 1149              		.cfi_def_cfa_offset 0
 1150 0018 7047     		bx	lr
 1151              	.L72:
 1152 001a 00BF     		.align	2
 1153              	.L71:
 1154 001c 89640040 		.word	1073767561
 1155              		.cfi_endproc
 1156              	.LFE18:
 1157              		.size	Print_Bill_SetTxInterruptMode, .-Print_Bill_SetTxInterruptMode
 1158              		.section	.text.Print_Bill_WriteTxData,"ax",%progbits
 1159              		.align	2
 1160              		.global	Print_Bill_WriteTxData
 1161              		.thumb
 1162              		.thumb_func
 1163              		.type	Print_Bill_WriteTxData, %function
 1164              	Print_Bill_WriteTxData:
 1165              	.LFB19:
 972:.\Generated_Source\PSoC5/Print_Bill.c **** 
 973:.\Generated_Source\PSoC5/Print_Bill.c **** 
 974:.\Generated_Source\PSoC5/Print_Bill.c ****     /*******************************************************************************
 975:.\Generated_Source\PSoC5/Print_Bill.c ****     * Function Name: Print_Bill_WriteTxData
 976:.\Generated_Source\PSoC5/Print_Bill.c ****     ********************************************************************************
 977:.\Generated_Source\PSoC5/Print_Bill.c ****     *
 978:.\Generated_Source\PSoC5/Print_Bill.c ****     * Summary:
 979:.\Generated_Source\PSoC5/Print_Bill.c ****     *  Write a byte of data to the Transmit FIFO or TX buffer to be sent when the
 980:.\Generated_Source\PSoC5/Print_Bill.c ****     *  bus is available. WriteTxData sends a byte without checking for buffer room
 981:.\Generated_Source\PSoC5/Print_Bill.c ****     *  or status. It is up to the user to separately check status.
 982:.\Generated_Source\PSoC5/Print_Bill.c ****     *
 983:.\Generated_Source\PSoC5/Print_Bill.c ****     * Parameters:
 984:.\Generated_Source\PSoC5/Print_Bill.c ****     *  TXDataByte: byte of data to place in the transmit FIFO
 985:.\Generated_Source\PSoC5/Print_Bill.c ****     *
 986:.\Generated_Source\PSoC5/Print_Bill.c ****     * Return:
 987:.\Generated_Source\PSoC5/Print_Bill.c ****     * void
 988:.\Generated_Source\PSoC5/Print_Bill.c ****     *
 989:.\Generated_Source\PSoC5/Print_Bill.c ****     * Global Variables:
 990:.\Generated_Source\PSoC5/Print_Bill.c ****     *  Print_Bill_txBuffer - RAM buffer pointer for save data for transmission
 991:.\Generated_Source\PSoC5/Print_Bill.c ****     *  Print_Bill_txBufferWrite - cyclic index for write to txBuffer,
 992:.\Generated_Source\PSoC5/Print_Bill.c ****     *    incremented after each byte saved to buffer.
 993:.\Generated_Source\PSoC5/Print_Bill.c ****     *  Print_Bill_txBufferRead - cyclic index for read from txBuffer,
 994:.\Generated_Source\PSoC5/Print_Bill.c ****     *    checked to identify the condition to write to FIFO directly or to TX buffer
 995:.\Generated_Source\PSoC5/Print_Bill.c ****     *  Print_Bill_initVar - checked to identify that the component has been
 996:.\Generated_Source\PSoC5/Print_Bill.c ****     *    initialized.
 997:.\Generated_Source\PSoC5/Print_Bill.c ****     *
 998:.\Generated_Source\PSoC5/Print_Bill.c ****     * Reentrant:
ARM GAS  C:\Users\PROYEC~1\AppData\Local\Temp\ccggXJIG.s 			page 39


 999:.\Generated_Source\PSoC5/Print_Bill.c ****     *  No.
1000:.\Generated_Source\PSoC5/Print_Bill.c ****     *
1001:.\Generated_Source\PSoC5/Print_Bill.c ****     *******************************************************************************/
1002:.\Generated_Source\PSoC5/Print_Bill.c ****     void Print_Bill_WriteTxData(uint8 txDataByte) 
1003:.\Generated_Source\PSoC5/Print_Bill.c ****     {
 1166              		.loc 1 1003 0
 1167              		.cfi_startproc
 1168              		@ args = 0, pretend = 0, frame = 8
 1169              		@ frame_needed = 1, uses_anonymous_args = 0
 1170              		@ link register save eliminated.
 1171 0000 80B4     		push	{r7}
 1172              		.cfi_def_cfa_offset 4
 1173              		.cfi_offset 7, -4
 1174 0002 83B0     		sub	sp, sp, #12
 1175              		.cfi_def_cfa_offset 16
 1176 0004 00AF     		add	r7, sp, #0
 1177              		.cfi_def_cfa_register 7
 1178 0006 0346     		mov	r3, r0
 1179 0008 FB71     		strb	r3, [r7, #7]
1004:.\Generated_Source\PSoC5/Print_Bill.c ****         /* If not Initialized then skip this function*/
1005:.\Generated_Source\PSoC5/Print_Bill.c ****         if(Print_Bill_initVar != 0u)
 1180              		.loc 1 1005 0
 1181 000a 064B     		ldr	r3, .L75
 1182 000c 1B78     		ldrb	r3, [r3]	@ zero_extendqisi2
 1183 000e 002B     		cmp	r3, #0
 1184 0010 02D0     		beq	.L73
1006:.\Generated_Source\PSoC5/Print_Bill.c ****         {
1007:.\Generated_Source\PSoC5/Print_Bill.c ****             #if(Print_Bill_TXBUFFERSIZE > Print_Bill_FIFO_LENGTH)
1008:.\Generated_Source\PSoC5/Print_Bill.c **** 
1009:.\Generated_Source\PSoC5/Print_Bill.c ****                 /* Disable Tx interrupt. */
1010:.\Generated_Source\PSoC5/Print_Bill.c ****                 /* Protect variables that could change on interrupt. */
1011:.\Generated_Source\PSoC5/Print_Bill.c ****                 #if(Print_Bill_TX_INTERRUPT_ENABLED)
1012:.\Generated_Source\PSoC5/Print_Bill.c ****                     Print_Bill_DisableTxInt();
1013:.\Generated_Source\PSoC5/Print_Bill.c ****                 #endif /* End Print_Bill_TX_INTERRUPT_ENABLED */
1014:.\Generated_Source\PSoC5/Print_Bill.c **** 
1015:.\Generated_Source\PSoC5/Print_Bill.c ****                 if( (Print_Bill_txBufferRead == Print_Bill_txBufferWrite) &&
1016:.\Generated_Source\PSoC5/Print_Bill.c ****                     ((Print_Bill_TXSTATUS_REG & Print_Bill_TX_STS_FIFO_FULL) == 0u) )
1017:.\Generated_Source\PSoC5/Print_Bill.c ****                 {
1018:.\Generated_Source\PSoC5/Print_Bill.c ****                     /* Add directly to the FIFO. */
1019:.\Generated_Source\PSoC5/Print_Bill.c ****                     Print_Bill_TXDATA_REG = txDataByte;
1020:.\Generated_Source\PSoC5/Print_Bill.c ****                 }
1021:.\Generated_Source\PSoC5/Print_Bill.c ****                 else
1022:.\Generated_Source\PSoC5/Print_Bill.c ****                 {
1023:.\Generated_Source\PSoC5/Print_Bill.c ****                     if(Print_Bill_txBufferWrite >= Print_Bill_TXBUFFERSIZE)
1024:.\Generated_Source\PSoC5/Print_Bill.c ****                     {
1025:.\Generated_Source\PSoC5/Print_Bill.c ****                         Print_Bill_txBufferWrite = 0u;
1026:.\Generated_Source\PSoC5/Print_Bill.c ****                     }
1027:.\Generated_Source\PSoC5/Print_Bill.c **** 
1028:.\Generated_Source\PSoC5/Print_Bill.c ****                     Print_Bill_txBuffer[Print_Bill_txBufferWrite] = txDataByte;
1029:.\Generated_Source\PSoC5/Print_Bill.c **** 
1030:.\Generated_Source\PSoC5/Print_Bill.c ****                     /* Add to the software buffer. */
1031:.\Generated_Source\PSoC5/Print_Bill.c ****                     Print_Bill_txBufferWrite++;
1032:.\Generated_Source\PSoC5/Print_Bill.c **** 
1033:.\Generated_Source\PSoC5/Print_Bill.c ****                 }
1034:.\Generated_Source\PSoC5/Print_Bill.c **** 
1035:.\Generated_Source\PSoC5/Print_Bill.c ****                 /* Enable Tx interrupt. */
1036:.\Generated_Source\PSoC5/Print_Bill.c ****                 #if(Print_Bill_TX_INTERRUPT_ENABLED)
ARM GAS  C:\Users\PROYEC~1\AppData\Local\Temp\ccggXJIG.s 			page 40


1037:.\Generated_Source\PSoC5/Print_Bill.c ****                     Print_Bill_EnableTxInt();
1038:.\Generated_Source\PSoC5/Print_Bill.c ****                 #endif /* End Print_Bill_TX_INTERRUPT_ENABLED */
1039:.\Generated_Source\PSoC5/Print_Bill.c **** 
1040:.\Generated_Source\PSoC5/Print_Bill.c ****             #else /* Print_Bill_TXBUFFERSIZE > Print_Bill_FIFO_LENGTH */
1041:.\Generated_Source\PSoC5/Print_Bill.c **** 
1042:.\Generated_Source\PSoC5/Print_Bill.c ****                 /* Add directly to the FIFO. */
1043:.\Generated_Source\PSoC5/Print_Bill.c ****                 Print_Bill_TXDATA_REG = txDataByte;
 1185              		.loc 1 1043 0
 1186 0012 054A     		ldr	r2, .L75+4
 1187 0014 FB79     		ldrb	r3, [r7, #7]
 1188 0016 1370     		strb	r3, [r2]
 1189              	.L73:
1044:.\Generated_Source\PSoC5/Print_Bill.c **** 
1045:.\Generated_Source\PSoC5/Print_Bill.c ****             #endif /* End Print_Bill_TXBUFFERSIZE > Print_Bill_FIFO_LENGTH */
1046:.\Generated_Source\PSoC5/Print_Bill.c ****         }
1047:.\Generated_Source\PSoC5/Print_Bill.c ****     }
 1190              		.loc 1 1047 0
 1191 0018 0C37     		adds	r7, r7, #12
 1192              		.cfi_def_cfa_offset 4
 1193 001a BD46     		mov	sp, r7
 1194              		.cfi_def_cfa_register 13
 1195              		@ sp needed
 1196 001c 5DF8047B 		ldr	r7, [sp], #4
 1197              		.cfi_restore 7
 1198              		.cfi_def_cfa_offset 0
 1199 0020 7047     		bx	lr
 1200              	.L76:
 1201 0022 00BF     		.align	2
 1202              	.L75:
 1203 0024 00000000 		.word	Print_Bill_initVar
 1204 0028 49640040 		.word	1073767497
 1205              		.cfi_endproc
 1206              	.LFE19:
 1207              		.size	Print_Bill_WriteTxData, .-Print_Bill_WriteTxData
 1208              		.section	.text.Print_Bill_ReadTxStatus,"ax",%progbits
 1209              		.align	2
 1210              		.global	Print_Bill_ReadTxStatus
 1211              		.thumb
 1212              		.thumb_func
 1213              		.type	Print_Bill_ReadTxStatus, %function
 1214              	Print_Bill_ReadTxStatus:
 1215              	.LFB20:
1048:.\Generated_Source\PSoC5/Print_Bill.c **** 
1049:.\Generated_Source\PSoC5/Print_Bill.c **** 
1050:.\Generated_Source\PSoC5/Print_Bill.c ****     /*******************************************************************************
1051:.\Generated_Source\PSoC5/Print_Bill.c ****     * Function Name: Print_Bill_ReadTxStatus
1052:.\Generated_Source\PSoC5/Print_Bill.c ****     ********************************************************************************
1053:.\Generated_Source\PSoC5/Print_Bill.c ****     *
1054:.\Generated_Source\PSoC5/Print_Bill.c ****     * Summary:
1055:.\Generated_Source\PSoC5/Print_Bill.c ****     *  Read the status register for the component
1056:.\Generated_Source\PSoC5/Print_Bill.c ****     *
1057:.\Generated_Source\PSoC5/Print_Bill.c ****     * Parameters:
1058:.\Generated_Source\PSoC5/Print_Bill.c ****     *  None.
1059:.\Generated_Source\PSoC5/Print_Bill.c ****     *
1060:.\Generated_Source\PSoC5/Print_Bill.c ****     * Return:
1061:.\Generated_Source\PSoC5/Print_Bill.c ****     *  Contents of the status register
1062:.\Generated_Source\PSoC5/Print_Bill.c ****     *
ARM GAS  C:\Users\PROYEC~1\AppData\Local\Temp\ccggXJIG.s 			page 41


1063:.\Generated_Source\PSoC5/Print_Bill.c ****     * Theory:
1064:.\Generated_Source\PSoC5/Print_Bill.c ****     *  This function reads the status register which is clear on read. It is up to
1065:.\Generated_Source\PSoC5/Print_Bill.c ****     *  the user to handle all bits in this return value accordingly, even if the bit
1066:.\Generated_Source\PSoC5/Print_Bill.c ****     *  was not enabled as an interrupt source the event happened and must be handled
1067:.\Generated_Source\PSoC5/Print_Bill.c ****     *  accordingly.
1068:.\Generated_Source\PSoC5/Print_Bill.c ****     *
1069:.\Generated_Source\PSoC5/Print_Bill.c ****     *******************************************************************************/
1070:.\Generated_Source\PSoC5/Print_Bill.c ****     uint8 Print_Bill_ReadTxStatus(void) 
1071:.\Generated_Source\PSoC5/Print_Bill.c ****     {
 1216              		.loc 1 1071 0
 1217              		.cfi_startproc
 1218              		@ args = 0, pretend = 0, frame = 0
 1219              		@ frame_needed = 1, uses_anonymous_args = 0
 1220              		@ link register save eliminated.
 1221 0000 80B4     		push	{r7}
 1222              		.cfi_def_cfa_offset 4
 1223              		.cfi_offset 7, -4
 1224 0002 00AF     		add	r7, sp, #0
 1225              		.cfi_def_cfa_register 7
1072:.\Generated_Source\PSoC5/Print_Bill.c ****         return(Print_Bill_TXSTATUS_REG);
 1226              		.loc 1 1072 0
 1227 0004 034B     		ldr	r3, .L79
 1228 0006 1B78     		ldrb	r3, [r3]
 1229 0008 DBB2     		uxtb	r3, r3
1073:.\Generated_Source\PSoC5/Print_Bill.c ****     }
 1230              		.loc 1 1073 0
 1231 000a 1846     		mov	r0, r3
 1232 000c BD46     		mov	sp, r7
 1233              		.cfi_def_cfa_register 13
 1234              		@ sp needed
 1235 000e 5DF8047B 		ldr	r7, [sp], #4
 1236              		.cfi_restore 7
 1237              		.cfi_def_cfa_offset 0
 1238 0012 7047     		bx	lr
 1239              	.L80:
 1240              		.align	2
 1241              	.L79:
 1242 0014 69640040 		.word	1073767529
 1243              		.cfi_endproc
 1244              	.LFE20:
 1245              		.size	Print_Bill_ReadTxStatus, .-Print_Bill_ReadTxStatus
 1246              		.section	.text.Print_Bill_PutChar,"ax",%progbits
 1247              		.align	2
 1248              		.global	Print_Bill_PutChar
 1249              		.thumb
 1250              		.thumb_func
 1251              		.type	Print_Bill_PutChar, %function
 1252              	Print_Bill_PutChar:
 1253              	.LFB21:
1074:.\Generated_Source\PSoC5/Print_Bill.c **** 
1075:.\Generated_Source\PSoC5/Print_Bill.c **** 
1076:.\Generated_Source\PSoC5/Print_Bill.c ****     /*******************************************************************************
1077:.\Generated_Source\PSoC5/Print_Bill.c ****     * Function Name: Print_Bill_PutChar
1078:.\Generated_Source\PSoC5/Print_Bill.c ****     ********************************************************************************
1079:.\Generated_Source\PSoC5/Print_Bill.c ****     *
1080:.\Generated_Source\PSoC5/Print_Bill.c ****     * Summary:
1081:.\Generated_Source\PSoC5/Print_Bill.c ****     *  Wait to send byte until TX register or buffer has room.
ARM GAS  C:\Users\PROYEC~1\AppData\Local\Temp\ccggXJIG.s 			page 42


1082:.\Generated_Source\PSoC5/Print_Bill.c ****     *
1083:.\Generated_Source\PSoC5/Print_Bill.c ****     * Parameters:
1084:.\Generated_Source\PSoC5/Print_Bill.c ****     *  txDataByte: The 8-bit data value to send across the UART.
1085:.\Generated_Source\PSoC5/Print_Bill.c ****     *
1086:.\Generated_Source\PSoC5/Print_Bill.c ****     * Return:
1087:.\Generated_Source\PSoC5/Print_Bill.c ****     *  None.
1088:.\Generated_Source\PSoC5/Print_Bill.c ****     *
1089:.\Generated_Source\PSoC5/Print_Bill.c ****     * Global Variables:
1090:.\Generated_Source\PSoC5/Print_Bill.c ****     *  Print_Bill_txBuffer - RAM buffer pointer for save data for transmission
1091:.\Generated_Source\PSoC5/Print_Bill.c ****     *  Print_Bill_txBufferWrite - cyclic index for write to txBuffer,
1092:.\Generated_Source\PSoC5/Print_Bill.c ****     *     checked to identify free space in txBuffer and incremented after each byte
1093:.\Generated_Source\PSoC5/Print_Bill.c ****     *     saved to buffer.
1094:.\Generated_Source\PSoC5/Print_Bill.c ****     *  Print_Bill_txBufferRead - cyclic index for read from txBuffer,
1095:.\Generated_Source\PSoC5/Print_Bill.c ****     *     checked to identify free space in txBuffer.
1096:.\Generated_Source\PSoC5/Print_Bill.c ****     *  Print_Bill_initVar - checked to identify that the component has been
1097:.\Generated_Source\PSoC5/Print_Bill.c ****     *     initialized.
1098:.\Generated_Source\PSoC5/Print_Bill.c ****     *
1099:.\Generated_Source\PSoC5/Print_Bill.c ****     * Reentrant:
1100:.\Generated_Source\PSoC5/Print_Bill.c ****     *  No.
1101:.\Generated_Source\PSoC5/Print_Bill.c ****     *
1102:.\Generated_Source\PSoC5/Print_Bill.c ****     * Theory:
1103:.\Generated_Source\PSoC5/Print_Bill.c ****     *  Allows the user to transmit any byte of data in a single transfer
1104:.\Generated_Source\PSoC5/Print_Bill.c ****     *
1105:.\Generated_Source\PSoC5/Print_Bill.c ****     *******************************************************************************/
1106:.\Generated_Source\PSoC5/Print_Bill.c ****     void Print_Bill_PutChar(uint8 txDataByte) 
1107:.\Generated_Source\PSoC5/Print_Bill.c ****     {
 1254              		.loc 1 1107 0
 1255              		.cfi_startproc
 1256              		@ args = 0, pretend = 0, frame = 8
 1257              		@ frame_needed = 1, uses_anonymous_args = 0
 1258              		@ link register save eliminated.
 1259 0000 80B4     		push	{r7}
 1260              		.cfi_def_cfa_offset 4
 1261              		.cfi_offset 7, -4
 1262 0002 83B0     		sub	sp, sp, #12
 1263              		.cfi_def_cfa_offset 16
 1264 0004 00AF     		add	r7, sp, #0
 1265              		.cfi_def_cfa_register 7
 1266 0006 0346     		mov	r3, r0
 1267 0008 FB71     		strb	r3, [r7, #7]
1108:.\Generated_Source\PSoC5/Print_Bill.c ****             #if(Print_Bill_TXBUFFERSIZE > Print_Bill_FIFO_LENGTH)
1109:.\Generated_Source\PSoC5/Print_Bill.c ****                 /* The temporary output pointer is used since it takes two instructions
1110:.\Generated_Source\PSoC5/Print_Bill.c ****                 *  to increment with a wrap, and we can't risk doing that with the real
1111:.\Generated_Source\PSoC5/Print_Bill.c ****                 *  pointer and getting an interrupt in between instructions.
1112:.\Generated_Source\PSoC5/Print_Bill.c ****                 */
1113:.\Generated_Source\PSoC5/Print_Bill.c ****                 uint8 loc_txBufferWrite;
1114:.\Generated_Source\PSoC5/Print_Bill.c ****                 uint8 loc_txBufferRead;
1115:.\Generated_Source\PSoC5/Print_Bill.c **** 
1116:.\Generated_Source\PSoC5/Print_Bill.c ****                 do{
1117:.\Generated_Source\PSoC5/Print_Bill.c ****                     /* Block if software buffer is full, so we don't overwrite. */
1118:.\Generated_Source\PSoC5/Print_Bill.c ****                     #if ((Print_Bill_TXBUFFERSIZE > Print_Bill_MAX_BYTE_VALUE) && (CY_PSOC3))
1119:.\Generated_Source\PSoC5/Print_Bill.c ****                         /* Disable TX interrupt to protect variables that could change on interrupt
1120:.\Generated_Source\PSoC5/Print_Bill.c ****                         CyIntDisable(Print_Bill_TX_VECT_NUM);
1121:.\Generated_Source\PSoC5/Print_Bill.c ****                     #endif /* End TXBUFFERSIZE > 255 */
1122:.\Generated_Source\PSoC5/Print_Bill.c ****                     loc_txBufferWrite = Print_Bill_txBufferWrite;
1123:.\Generated_Source\PSoC5/Print_Bill.c ****                     loc_txBufferRead = Print_Bill_txBufferRead;
1124:.\Generated_Source\PSoC5/Print_Bill.c ****                     #if ((Print_Bill_TXBUFFERSIZE > Print_Bill_MAX_BYTE_VALUE) && (CY_PSOC3))
ARM GAS  C:\Users\PROYEC~1\AppData\Local\Temp\ccggXJIG.s 			page 43


1125:.\Generated_Source\PSoC5/Print_Bill.c ****                         /* Enable interrupt to continue transmission */
1126:.\Generated_Source\PSoC5/Print_Bill.c ****                         CyIntEnable(Print_Bill_TX_VECT_NUM);
1127:.\Generated_Source\PSoC5/Print_Bill.c ****                     #endif /* End TXBUFFERSIZE > 255 */
1128:.\Generated_Source\PSoC5/Print_Bill.c ****                 }while( (loc_txBufferWrite < loc_txBufferRead) ? (loc_txBufferWrite == (loc_txBuffe
1129:.\Generated_Source\PSoC5/Print_Bill.c ****                                         ((loc_txBufferWrite - loc_txBufferRead) ==
1130:.\Generated_Source\PSoC5/Print_Bill.c ****                                         (uint8)(Print_Bill_TXBUFFERSIZE - 1u)) );
1131:.\Generated_Source\PSoC5/Print_Bill.c **** 
1132:.\Generated_Source\PSoC5/Print_Bill.c ****                 if( (loc_txBufferRead == loc_txBufferWrite) &&
1133:.\Generated_Source\PSoC5/Print_Bill.c ****                     ((Print_Bill_TXSTATUS_REG & Print_Bill_TX_STS_FIFO_FULL) == 0u) )
1134:.\Generated_Source\PSoC5/Print_Bill.c ****                 {
1135:.\Generated_Source\PSoC5/Print_Bill.c ****                     /* Add directly to the FIFO. */
1136:.\Generated_Source\PSoC5/Print_Bill.c ****                     Print_Bill_TXDATA_REG = txDataByte;
1137:.\Generated_Source\PSoC5/Print_Bill.c ****                 }
1138:.\Generated_Source\PSoC5/Print_Bill.c ****                 else
1139:.\Generated_Source\PSoC5/Print_Bill.c ****                 {
1140:.\Generated_Source\PSoC5/Print_Bill.c ****                     if(loc_txBufferWrite >= Print_Bill_TXBUFFERSIZE)
1141:.\Generated_Source\PSoC5/Print_Bill.c ****                     {
1142:.\Generated_Source\PSoC5/Print_Bill.c ****                         loc_txBufferWrite = 0u;
1143:.\Generated_Source\PSoC5/Print_Bill.c ****                     }
1144:.\Generated_Source\PSoC5/Print_Bill.c ****                     /* Add to the software buffer. */
1145:.\Generated_Source\PSoC5/Print_Bill.c ****                     Print_Bill_txBuffer[loc_txBufferWrite] = txDataByte;
1146:.\Generated_Source\PSoC5/Print_Bill.c ****                     loc_txBufferWrite++;
1147:.\Generated_Source\PSoC5/Print_Bill.c **** 
1148:.\Generated_Source\PSoC5/Print_Bill.c ****                     /* Finally, update the real output pointer */
1149:.\Generated_Source\PSoC5/Print_Bill.c ****                     #if ((Print_Bill_TXBUFFERSIZE > Print_Bill_MAX_BYTE_VALUE) && (CY_PSOC3))
1150:.\Generated_Source\PSoC5/Print_Bill.c ****                         CyIntDisable(Print_Bill_TX_VECT_NUM);
1151:.\Generated_Source\PSoC5/Print_Bill.c ****                     #endif /* End TXBUFFERSIZE > 255 */
1152:.\Generated_Source\PSoC5/Print_Bill.c ****                     Print_Bill_txBufferWrite = loc_txBufferWrite;
1153:.\Generated_Source\PSoC5/Print_Bill.c ****                     #if ((Print_Bill_TXBUFFERSIZE > Print_Bill_MAX_BYTE_VALUE) && (CY_PSOC3))
1154:.\Generated_Source\PSoC5/Print_Bill.c ****                         CyIntEnable(Print_Bill_TX_VECT_NUM);
1155:.\Generated_Source\PSoC5/Print_Bill.c ****                     #endif /* End TXBUFFERSIZE > 255 */
1156:.\Generated_Source\PSoC5/Print_Bill.c ****                 }
1157:.\Generated_Source\PSoC5/Print_Bill.c **** 
1158:.\Generated_Source\PSoC5/Print_Bill.c ****             #else /* Print_Bill_TXBUFFERSIZE > Print_Bill_FIFO_LENGTH */
1159:.\Generated_Source\PSoC5/Print_Bill.c **** 
1160:.\Generated_Source\PSoC5/Print_Bill.c ****                 while((Print_Bill_TXSTATUS_REG & Print_Bill_TX_STS_FIFO_FULL) != 0u)
 1268              		.loc 1 1160 0
 1269 000a 00BF     		nop
 1270              	.L82:
 1271              		.loc 1 1160 0 is_stmt 0 discriminator 1
 1272 000c 074B     		ldr	r3, .L83
 1273 000e 1B78     		ldrb	r3, [r3]
 1274 0010 DBB2     		uxtb	r3, r3
 1275 0012 03F00403 		and	r3, r3, #4
 1276 0016 002B     		cmp	r3, #0
 1277 0018 F8D1     		bne	.L82
1161:.\Generated_Source\PSoC5/Print_Bill.c ****                 {
1162:.\Generated_Source\PSoC5/Print_Bill.c ****                     ; /* Wait for room in the FIFO. */
1163:.\Generated_Source\PSoC5/Print_Bill.c ****                 }
1164:.\Generated_Source\PSoC5/Print_Bill.c **** 
1165:.\Generated_Source\PSoC5/Print_Bill.c ****                 /* Add directly to the FIFO. */
1166:.\Generated_Source\PSoC5/Print_Bill.c ****                 Print_Bill_TXDATA_REG = txDataByte;
 1278              		.loc 1 1166 0 is_stmt 1
 1279 001a 054A     		ldr	r2, .L83+4
 1280 001c FB79     		ldrb	r3, [r7, #7]
 1281 001e 1370     		strb	r3, [r2]
1167:.\Generated_Source\PSoC5/Print_Bill.c **** 
ARM GAS  C:\Users\PROYEC~1\AppData\Local\Temp\ccggXJIG.s 			page 44


1168:.\Generated_Source\PSoC5/Print_Bill.c ****             #endif /* End Print_Bill_TXBUFFERSIZE > Print_Bill_FIFO_LENGTH */
1169:.\Generated_Source\PSoC5/Print_Bill.c ****     }
 1282              		.loc 1 1169 0
 1283 0020 0C37     		adds	r7, r7, #12
 1284              		.cfi_def_cfa_offset 4
 1285 0022 BD46     		mov	sp, r7
 1286              		.cfi_def_cfa_register 13
 1287              		@ sp needed
 1288 0024 5DF8047B 		ldr	r7, [sp], #4
 1289              		.cfi_restore 7
 1290              		.cfi_def_cfa_offset 0
 1291 0028 7047     		bx	lr
 1292              	.L84:
 1293 002a 00BF     		.align	2
 1294              	.L83:
 1295 002c 69640040 		.word	1073767529
 1296 0030 49640040 		.word	1073767497
 1297              		.cfi_endproc
 1298              	.LFE21:
 1299              		.size	Print_Bill_PutChar, .-Print_Bill_PutChar
 1300              		.section	.text.Print_Bill_PutString,"ax",%progbits
 1301              		.align	2
 1302              		.global	Print_Bill_PutString
 1303              		.thumb
 1304              		.thumb_func
 1305              		.type	Print_Bill_PutString, %function
 1306              	Print_Bill_PutString:
 1307              	.LFB22:
1170:.\Generated_Source\PSoC5/Print_Bill.c **** 
1171:.\Generated_Source\PSoC5/Print_Bill.c **** 
1172:.\Generated_Source\PSoC5/Print_Bill.c ****     /*******************************************************************************
1173:.\Generated_Source\PSoC5/Print_Bill.c ****     * Function Name: Print_Bill_PutString
1174:.\Generated_Source\PSoC5/Print_Bill.c ****     ********************************************************************************
1175:.\Generated_Source\PSoC5/Print_Bill.c ****     *
1176:.\Generated_Source\PSoC5/Print_Bill.c ****     * Summary:
1177:.\Generated_Source\PSoC5/Print_Bill.c ****     *  Write a Sequence of bytes on the Transmit line. Data comes from RAM or ROM.
1178:.\Generated_Source\PSoC5/Print_Bill.c ****     *
1179:.\Generated_Source\PSoC5/Print_Bill.c ****     * Parameters:
1180:.\Generated_Source\PSoC5/Print_Bill.c ****     *  string: char pointer to character string of Data to Send.
1181:.\Generated_Source\PSoC5/Print_Bill.c ****     *
1182:.\Generated_Source\PSoC5/Print_Bill.c ****     * Return:
1183:.\Generated_Source\PSoC5/Print_Bill.c ****     *  None.
1184:.\Generated_Source\PSoC5/Print_Bill.c ****     *
1185:.\Generated_Source\PSoC5/Print_Bill.c ****     * Global Variables:
1186:.\Generated_Source\PSoC5/Print_Bill.c ****     *  Print_Bill_initVar - checked to identify that the component has been
1187:.\Generated_Source\PSoC5/Print_Bill.c ****     *     initialized.
1188:.\Generated_Source\PSoC5/Print_Bill.c ****     *
1189:.\Generated_Source\PSoC5/Print_Bill.c ****     * Reentrant:
1190:.\Generated_Source\PSoC5/Print_Bill.c ****     *  No.
1191:.\Generated_Source\PSoC5/Print_Bill.c ****     *
1192:.\Generated_Source\PSoC5/Print_Bill.c ****     * Theory:
1193:.\Generated_Source\PSoC5/Print_Bill.c ****     *  This function will block if there is not enough memory to place the whole
1194:.\Generated_Source\PSoC5/Print_Bill.c ****     *  string, it will block until the entire string has been written to the
1195:.\Generated_Source\PSoC5/Print_Bill.c ****     *  transmit buffer.
1196:.\Generated_Source\PSoC5/Print_Bill.c ****     *
1197:.\Generated_Source\PSoC5/Print_Bill.c ****     *******************************************************************************/
1198:.\Generated_Source\PSoC5/Print_Bill.c ****     void Print_Bill_PutString(const char8 string[]) 
ARM GAS  C:\Users\PROYEC~1\AppData\Local\Temp\ccggXJIG.s 			page 45


1199:.\Generated_Source\PSoC5/Print_Bill.c ****     {
 1308              		.loc 1 1199 0
 1309              		.cfi_startproc
 1310              		@ args = 0, pretend = 0, frame = 16
 1311              		@ frame_needed = 1, uses_anonymous_args = 0
 1312 0000 80B5     		push	{r7, lr}
 1313              		.cfi_def_cfa_offset 8
 1314              		.cfi_offset 7, -8
 1315              		.cfi_offset 14, -4
 1316 0002 84B0     		sub	sp, sp, #16
 1317              		.cfi_def_cfa_offset 24
 1318 0004 00AF     		add	r7, sp, #0
 1319              		.cfi_def_cfa_register 7
 1320 0006 7860     		str	r0, [r7, #4]
1200:.\Generated_Source\PSoC5/Print_Bill.c ****         uint16 buf_index = 0u;
 1321              		.loc 1 1200 0
 1322 0008 0023     		movs	r3, #0
 1323 000a FB81     		strh	r3, [r7, #14]	@ movhi
1201:.\Generated_Source\PSoC5/Print_Bill.c ****         /* If not Initialized then skip this function*/
1202:.\Generated_Source\PSoC5/Print_Bill.c ****         if(Print_Bill_initVar != 0u)
 1324              		.loc 1 1202 0
 1325 000c 0B4B     		ldr	r3, .L89
 1326 000e 1B78     		ldrb	r3, [r3]	@ zero_extendqisi2
 1327 0010 002B     		cmp	r3, #0
 1328 0012 10D0     		beq	.L85
1203:.\Generated_Source\PSoC5/Print_Bill.c ****         {
1204:.\Generated_Source\PSoC5/Print_Bill.c ****             /* This is a blocking function, it will not exit until all data is sent*/
1205:.\Generated_Source\PSoC5/Print_Bill.c ****             while(string[buf_index] != (char8)0)
 1329              		.loc 1 1205 0
 1330 0014 09E0     		b	.L87
 1331              	.L88:
1206:.\Generated_Source\PSoC5/Print_Bill.c ****             {
1207:.\Generated_Source\PSoC5/Print_Bill.c ****                 Print_Bill_PutChar((uint8)string[buf_index]);
 1332              		.loc 1 1207 0
 1333 0016 FB89     		ldrh	r3, [r7, #14]
 1334 0018 7A68     		ldr	r2, [r7, #4]
 1335 001a 1344     		add	r3, r3, r2
 1336 001c 1B78     		ldrb	r3, [r3]	@ zero_extendqisi2
 1337 001e 1846     		mov	r0, r3
 1338 0020 FFF7FEFF 		bl	Print_Bill_PutChar
1208:.\Generated_Source\PSoC5/Print_Bill.c ****                 buf_index++;
 1339              		.loc 1 1208 0
 1340 0024 FB89     		ldrh	r3, [r7, #14]
 1341 0026 0133     		adds	r3, r3, #1
 1342 0028 FB81     		strh	r3, [r7, #14]	@ movhi
 1343              	.L87:
1205:.\Generated_Source\PSoC5/Print_Bill.c ****             {
 1344              		.loc 1 1205 0
 1345 002a FB89     		ldrh	r3, [r7, #14]
 1346 002c 7A68     		ldr	r2, [r7, #4]
 1347 002e 1344     		add	r3, r3, r2
 1348 0030 1B78     		ldrb	r3, [r3]	@ zero_extendqisi2
 1349 0032 002B     		cmp	r3, #0
 1350 0034 EFD1     		bne	.L88
 1351              	.L85:
1209:.\Generated_Source\PSoC5/Print_Bill.c ****             }
1210:.\Generated_Source\PSoC5/Print_Bill.c ****         }
ARM GAS  C:\Users\PROYEC~1\AppData\Local\Temp\ccggXJIG.s 			page 46


1211:.\Generated_Source\PSoC5/Print_Bill.c ****     }
 1352              		.loc 1 1211 0
 1353 0036 1037     		adds	r7, r7, #16
 1354              		.cfi_def_cfa_offset 8
 1355 0038 BD46     		mov	sp, r7
 1356              		.cfi_def_cfa_register 13
 1357              		@ sp needed
 1358 003a 80BD     		pop	{r7, pc}
 1359              	.L90:
 1360              		.align	2
 1361              	.L89:
 1362 003c 00000000 		.word	Print_Bill_initVar
 1363              		.cfi_endproc
 1364              	.LFE22:
 1365              		.size	Print_Bill_PutString, .-Print_Bill_PutString
 1366              		.section	.text.Print_Bill_PutArray,"ax",%progbits
 1367              		.align	2
 1368              		.global	Print_Bill_PutArray
 1369              		.thumb
 1370              		.thumb_func
 1371              		.type	Print_Bill_PutArray, %function
 1372              	Print_Bill_PutArray:
 1373              	.LFB23:
1212:.\Generated_Source\PSoC5/Print_Bill.c **** 
1213:.\Generated_Source\PSoC5/Print_Bill.c **** 
1214:.\Generated_Source\PSoC5/Print_Bill.c ****     /*******************************************************************************
1215:.\Generated_Source\PSoC5/Print_Bill.c ****     * Function Name: Print_Bill_PutArray
1216:.\Generated_Source\PSoC5/Print_Bill.c ****     ********************************************************************************
1217:.\Generated_Source\PSoC5/Print_Bill.c ****     *
1218:.\Generated_Source\PSoC5/Print_Bill.c ****     * Summary:
1219:.\Generated_Source\PSoC5/Print_Bill.c ****     *  Write a Sequence of bytes on the Transmit line. Data comes from RAM or ROM.
1220:.\Generated_Source\PSoC5/Print_Bill.c ****     *
1221:.\Generated_Source\PSoC5/Print_Bill.c ****     * Parameters:
1222:.\Generated_Source\PSoC5/Print_Bill.c ****     *  string: Address of the memory array residing in RAM or ROM.
1223:.\Generated_Source\PSoC5/Print_Bill.c ****     *  byteCount: Number of Bytes to be transmitted.
1224:.\Generated_Source\PSoC5/Print_Bill.c ****     *
1225:.\Generated_Source\PSoC5/Print_Bill.c ****     * Return:
1226:.\Generated_Source\PSoC5/Print_Bill.c ****     *  None.
1227:.\Generated_Source\PSoC5/Print_Bill.c ****     *
1228:.\Generated_Source\PSoC5/Print_Bill.c ****     * Global Variables:
1229:.\Generated_Source\PSoC5/Print_Bill.c ****     *  Print_Bill_initVar - checked to identify that the component has been
1230:.\Generated_Source\PSoC5/Print_Bill.c ****     *     initialized.
1231:.\Generated_Source\PSoC5/Print_Bill.c ****     *
1232:.\Generated_Source\PSoC5/Print_Bill.c ****     * Reentrant:
1233:.\Generated_Source\PSoC5/Print_Bill.c ****     *  No.
1234:.\Generated_Source\PSoC5/Print_Bill.c ****     *
1235:.\Generated_Source\PSoC5/Print_Bill.c ****     *******************************************************************************/
1236:.\Generated_Source\PSoC5/Print_Bill.c ****     void Print_Bill_PutArray(const uint8 string[], uint8 byteCount)
1237:.\Generated_Source\PSoC5/Print_Bill.c ****                                                                     
1238:.\Generated_Source\PSoC5/Print_Bill.c ****     {
 1374              		.loc 1 1238 0
 1375              		.cfi_startproc
 1376              		@ args = 0, pretend = 0, frame = 16
 1377              		@ frame_needed = 1, uses_anonymous_args = 0
 1378 0000 80B5     		push	{r7, lr}
 1379              		.cfi_def_cfa_offset 8
 1380              		.cfi_offset 7, -8
ARM GAS  C:\Users\PROYEC~1\AppData\Local\Temp\ccggXJIG.s 			page 47


 1381              		.cfi_offset 14, -4
 1382 0002 84B0     		sub	sp, sp, #16
 1383              		.cfi_def_cfa_offset 24
 1384 0004 00AF     		add	r7, sp, #0
 1385              		.cfi_def_cfa_register 7
 1386 0006 7860     		str	r0, [r7, #4]
 1387 0008 0B46     		mov	r3, r1
 1388 000a FB70     		strb	r3, [r7, #3]
1239:.\Generated_Source\PSoC5/Print_Bill.c ****         uint8 buf_index = 0u;
 1389              		.loc 1 1239 0
 1390 000c 0023     		movs	r3, #0
 1391 000e FB73     		strb	r3, [r7, #15]
1240:.\Generated_Source\PSoC5/Print_Bill.c ****         /* If not Initialized then skip this function*/
1241:.\Generated_Source\PSoC5/Print_Bill.c ****         if(Print_Bill_initVar != 0u)
 1392              		.loc 1 1241 0
 1393 0010 0A4B     		ldr	r3, .L94
 1394 0012 1B78     		ldrb	r3, [r3]	@ zero_extendqisi2
 1395 0014 002B     		cmp	r3, #0
 1396 0016 0DD0     		beq	.L91
 1397              	.L93:
1242:.\Generated_Source\PSoC5/Print_Bill.c ****         {
1243:.\Generated_Source\PSoC5/Print_Bill.c ****             do
1244:.\Generated_Source\PSoC5/Print_Bill.c ****             {
1245:.\Generated_Source\PSoC5/Print_Bill.c ****                 Print_Bill_PutChar(string[buf_index]);
 1398              		.loc 1 1245 0 discriminator 1
 1399 0018 FB7B     		ldrb	r3, [r7, #15]	@ zero_extendqisi2
 1400 001a 7A68     		ldr	r2, [r7, #4]
 1401 001c 1344     		add	r3, r3, r2
 1402 001e 1B78     		ldrb	r3, [r3]	@ zero_extendqisi2
 1403 0020 1846     		mov	r0, r3
 1404 0022 FFF7FEFF 		bl	Print_Bill_PutChar
1246:.\Generated_Source\PSoC5/Print_Bill.c ****                 buf_index++;
 1405              		.loc 1 1246 0 discriminator 1
 1406 0026 FB7B     		ldrb	r3, [r7, #15]	@ zero_extendqisi2
 1407 0028 0133     		adds	r3, r3, #1
 1408 002a FB73     		strb	r3, [r7, #15]
1247:.\Generated_Source\PSoC5/Print_Bill.c ****             }while(buf_index < byteCount);
 1409              		.loc 1 1247 0 discriminator 1
 1410 002c FA7B     		ldrb	r2, [r7, #15]	@ zero_extendqisi2
 1411 002e FB78     		ldrb	r3, [r7, #3]	@ zero_extendqisi2
 1412 0030 9A42     		cmp	r2, r3
 1413 0032 F1D3     		bcc	.L93
 1414              	.L91:
1248:.\Generated_Source\PSoC5/Print_Bill.c ****         }
1249:.\Generated_Source\PSoC5/Print_Bill.c ****     }
 1415              		.loc 1 1249 0
 1416 0034 1037     		adds	r7, r7, #16
 1417              		.cfi_def_cfa_offset 8
 1418 0036 BD46     		mov	sp, r7
 1419              		.cfi_def_cfa_register 13
 1420              		@ sp needed
 1421 0038 80BD     		pop	{r7, pc}
 1422              	.L95:
 1423 003a 00BF     		.align	2
 1424              	.L94:
 1425 003c 00000000 		.word	Print_Bill_initVar
 1426              		.cfi_endproc
ARM GAS  C:\Users\PROYEC~1\AppData\Local\Temp\ccggXJIG.s 			page 48


 1427              	.LFE23:
 1428              		.size	Print_Bill_PutArray, .-Print_Bill_PutArray
 1429              		.section	.text.Print_Bill_PutCRLF,"ax",%progbits
 1430              		.align	2
 1431              		.global	Print_Bill_PutCRLF
 1432              		.thumb
 1433              		.thumb_func
 1434              		.type	Print_Bill_PutCRLF, %function
 1435              	Print_Bill_PutCRLF:
 1436              	.LFB24:
1250:.\Generated_Source\PSoC5/Print_Bill.c **** 
1251:.\Generated_Source\PSoC5/Print_Bill.c **** 
1252:.\Generated_Source\PSoC5/Print_Bill.c ****     /*******************************************************************************
1253:.\Generated_Source\PSoC5/Print_Bill.c ****     * Function Name: Print_Bill_PutCRLF
1254:.\Generated_Source\PSoC5/Print_Bill.c ****     ********************************************************************************
1255:.\Generated_Source\PSoC5/Print_Bill.c ****     *
1256:.\Generated_Source\PSoC5/Print_Bill.c ****     * Summary:
1257:.\Generated_Source\PSoC5/Print_Bill.c ****     *  Write a character and then carriage return and line feed.
1258:.\Generated_Source\PSoC5/Print_Bill.c ****     *
1259:.\Generated_Source\PSoC5/Print_Bill.c ****     * Parameters:
1260:.\Generated_Source\PSoC5/Print_Bill.c ****     *  txDataByte: uint8 Character to send.
1261:.\Generated_Source\PSoC5/Print_Bill.c ****     *
1262:.\Generated_Source\PSoC5/Print_Bill.c ****     * Return:
1263:.\Generated_Source\PSoC5/Print_Bill.c ****     *  None.
1264:.\Generated_Source\PSoC5/Print_Bill.c ****     *
1265:.\Generated_Source\PSoC5/Print_Bill.c ****     * Global Variables:
1266:.\Generated_Source\PSoC5/Print_Bill.c ****     *  Print_Bill_initVar - checked to identify that the component has been
1267:.\Generated_Source\PSoC5/Print_Bill.c ****     *     initialized.
1268:.\Generated_Source\PSoC5/Print_Bill.c ****     *
1269:.\Generated_Source\PSoC5/Print_Bill.c ****     * Reentrant:
1270:.\Generated_Source\PSoC5/Print_Bill.c ****     *  No.
1271:.\Generated_Source\PSoC5/Print_Bill.c ****     *
1272:.\Generated_Source\PSoC5/Print_Bill.c ****     *******************************************************************************/
1273:.\Generated_Source\PSoC5/Print_Bill.c ****     void Print_Bill_PutCRLF(uint8 txDataByte) 
1274:.\Generated_Source\PSoC5/Print_Bill.c ****     {
 1437              		.loc 1 1274 0
 1438              		.cfi_startproc
 1439              		@ args = 0, pretend = 0, frame = 8
 1440              		@ frame_needed = 1, uses_anonymous_args = 0
 1441 0000 80B5     		push	{r7, lr}
 1442              		.cfi_def_cfa_offset 8
 1443              		.cfi_offset 7, -8
 1444              		.cfi_offset 14, -4
 1445 0002 82B0     		sub	sp, sp, #8
 1446              		.cfi_def_cfa_offset 16
 1447 0004 00AF     		add	r7, sp, #0
 1448              		.cfi_def_cfa_register 7
 1449 0006 0346     		mov	r3, r0
 1450 0008 FB71     		strb	r3, [r7, #7]
1275:.\Generated_Source\PSoC5/Print_Bill.c ****         /* If not Initialized then skip this function*/
1276:.\Generated_Source\PSoC5/Print_Bill.c ****         if(Print_Bill_initVar != 0u)
 1451              		.loc 1 1276 0
 1452 000a 084B     		ldr	r3, .L98
 1453 000c 1B78     		ldrb	r3, [r3]	@ zero_extendqisi2
 1454 000e 002B     		cmp	r3, #0
 1455 0010 09D0     		beq	.L96
1277:.\Generated_Source\PSoC5/Print_Bill.c ****         {
ARM GAS  C:\Users\PROYEC~1\AppData\Local\Temp\ccggXJIG.s 			page 49


1278:.\Generated_Source\PSoC5/Print_Bill.c ****             Print_Bill_PutChar(txDataByte);
 1456              		.loc 1 1278 0
 1457 0012 FB79     		ldrb	r3, [r7, #7]	@ zero_extendqisi2
 1458 0014 1846     		mov	r0, r3
 1459 0016 FFF7FEFF 		bl	Print_Bill_PutChar
1279:.\Generated_Source\PSoC5/Print_Bill.c ****             Print_Bill_PutChar(0x0Du);
 1460              		.loc 1 1279 0
 1461 001a 0D20     		movs	r0, #13
 1462 001c FFF7FEFF 		bl	Print_Bill_PutChar
1280:.\Generated_Source\PSoC5/Print_Bill.c ****             Print_Bill_PutChar(0x0Au);
 1463              		.loc 1 1280 0
 1464 0020 0A20     		movs	r0, #10
 1465 0022 FFF7FEFF 		bl	Print_Bill_PutChar
 1466              	.L96:
1281:.\Generated_Source\PSoC5/Print_Bill.c ****         }
1282:.\Generated_Source\PSoC5/Print_Bill.c ****     }
 1467              		.loc 1 1282 0
 1468 0026 0837     		adds	r7, r7, #8
 1469              		.cfi_def_cfa_offset 8
 1470 0028 BD46     		mov	sp, r7
 1471              		.cfi_def_cfa_register 13
 1472              		@ sp needed
 1473 002a 80BD     		pop	{r7, pc}
 1474              	.L99:
 1475              		.align	2
 1476              	.L98:
 1477 002c 00000000 		.word	Print_Bill_initVar
 1478              		.cfi_endproc
 1479              	.LFE24:
 1480              		.size	Print_Bill_PutCRLF, .-Print_Bill_PutCRLF
 1481              		.section	.text.Print_Bill_GetTxBufferSize,"ax",%progbits
 1482              		.align	2
 1483              		.global	Print_Bill_GetTxBufferSize
 1484              		.thumb
 1485              		.thumb_func
 1486              		.type	Print_Bill_GetTxBufferSize, %function
 1487              	Print_Bill_GetTxBufferSize:
 1488              	.LFB25:
1283:.\Generated_Source\PSoC5/Print_Bill.c **** 
1284:.\Generated_Source\PSoC5/Print_Bill.c **** 
1285:.\Generated_Source\PSoC5/Print_Bill.c ****     /*******************************************************************************
1286:.\Generated_Source\PSoC5/Print_Bill.c ****     * Function Name: Print_Bill_GetTxBufferSize
1287:.\Generated_Source\PSoC5/Print_Bill.c ****     ********************************************************************************
1288:.\Generated_Source\PSoC5/Print_Bill.c ****     *
1289:.\Generated_Source\PSoC5/Print_Bill.c ****     * Summary:
1290:.\Generated_Source\PSoC5/Print_Bill.c ****     *  Determine the amount of space left in the TX buffer and return the count in
1291:.\Generated_Source\PSoC5/Print_Bill.c ****     *  bytes
1292:.\Generated_Source\PSoC5/Print_Bill.c ****     *
1293:.\Generated_Source\PSoC5/Print_Bill.c ****     * Parameters:
1294:.\Generated_Source\PSoC5/Print_Bill.c ****     *  None.
1295:.\Generated_Source\PSoC5/Print_Bill.c ****     *
1296:.\Generated_Source\PSoC5/Print_Bill.c ****     * Return:
1297:.\Generated_Source\PSoC5/Print_Bill.c ****     *  Integer count of the number of bytes left in the TX buffer
1298:.\Generated_Source\PSoC5/Print_Bill.c ****     *
1299:.\Generated_Source\PSoC5/Print_Bill.c ****     * Global Variables:
1300:.\Generated_Source\PSoC5/Print_Bill.c ****     *  Print_Bill_txBufferWrite - used to calculate left space.
1301:.\Generated_Source\PSoC5/Print_Bill.c ****     *  Print_Bill_txBufferRead - used to calculate left space.
ARM GAS  C:\Users\PROYEC~1\AppData\Local\Temp\ccggXJIG.s 			page 50


1302:.\Generated_Source\PSoC5/Print_Bill.c ****     *
1303:.\Generated_Source\PSoC5/Print_Bill.c ****     * Reentrant:
1304:.\Generated_Source\PSoC5/Print_Bill.c ****     *  No.
1305:.\Generated_Source\PSoC5/Print_Bill.c ****     *
1306:.\Generated_Source\PSoC5/Print_Bill.c ****     * Theory:
1307:.\Generated_Source\PSoC5/Print_Bill.c ****     *  Allows the user to find out how full the TX Buffer is.
1308:.\Generated_Source\PSoC5/Print_Bill.c ****     *
1309:.\Generated_Source\PSoC5/Print_Bill.c ****     *******************************************************************************/
1310:.\Generated_Source\PSoC5/Print_Bill.c ****     uint8 Print_Bill_GetTxBufferSize(void)
1311:.\Generated_Source\PSoC5/Print_Bill.c ****                                                             
1312:.\Generated_Source\PSoC5/Print_Bill.c ****     {
 1489              		.loc 1 1312 0
 1490              		.cfi_startproc
 1491              		@ args = 0, pretend = 0, frame = 8
 1492              		@ frame_needed = 1, uses_anonymous_args = 0
 1493              		@ link register save eliminated.
 1494 0000 80B4     		push	{r7}
 1495              		.cfi_def_cfa_offset 4
 1496              		.cfi_offset 7, -4
 1497 0002 83B0     		sub	sp, sp, #12
 1498              		.cfi_def_cfa_offset 16
 1499 0004 00AF     		add	r7, sp, #0
 1500              		.cfi_def_cfa_register 7
1313:.\Generated_Source\PSoC5/Print_Bill.c ****         uint8 size;
1314:.\Generated_Source\PSoC5/Print_Bill.c **** 
1315:.\Generated_Source\PSoC5/Print_Bill.c ****         #if(Print_Bill_TXBUFFERSIZE > Print_Bill_FIFO_LENGTH)
1316:.\Generated_Source\PSoC5/Print_Bill.c **** 
1317:.\Generated_Source\PSoC5/Print_Bill.c ****             /* Disable Tx interrupt. */
1318:.\Generated_Source\PSoC5/Print_Bill.c ****             /* Protect variables that could change on interrupt. */
1319:.\Generated_Source\PSoC5/Print_Bill.c ****             #if(Print_Bill_TX_INTERRUPT_ENABLED)
1320:.\Generated_Source\PSoC5/Print_Bill.c ****                 Print_Bill_DisableTxInt();
1321:.\Generated_Source\PSoC5/Print_Bill.c ****             #endif /* End Print_Bill_TX_INTERRUPT_ENABLED */
1322:.\Generated_Source\PSoC5/Print_Bill.c **** 
1323:.\Generated_Source\PSoC5/Print_Bill.c ****             if(Print_Bill_txBufferRead == Print_Bill_txBufferWrite)
1324:.\Generated_Source\PSoC5/Print_Bill.c ****             {
1325:.\Generated_Source\PSoC5/Print_Bill.c ****                 size = 0u;
1326:.\Generated_Source\PSoC5/Print_Bill.c ****             }
1327:.\Generated_Source\PSoC5/Print_Bill.c ****             else if(Print_Bill_txBufferRead < Print_Bill_txBufferWrite)
1328:.\Generated_Source\PSoC5/Print_Bill.c ****             {
1329:.\Generated_Source\PSoC5/Print_Bill.c ****                 size = (Print_Bill_txBufferWrite - Print_Bill_txBufferRead);
1330:.\Generated_Source\PSoC5/Print_Bill.c ****             }
1331:.\Generated_Source\PSoC5/Print_Bill.c ****             else
1332:.\Generated_Source\PSoC5/Print_Bill.c ****             {
1333:.\Generated_Source\PSoC5/Print_Bill.c ****                 size = (Print_Bill_TXBUFFERSIZE - Print_Bill_txBufferRead) + Print_Bill_txBufferWri
1334:.\Generated_Source\PSoC5/Print_Bill.c ****             }
1335:.\Generated_Source\PSoC5/Print_Bill.c **** 
1336:.\Generated_Source\PSoC5/Print_Bill.c ****             /* Enable Tx interrupt. */
1337:.\Generated_Source\PSoC5/Print_Bill.c ****             #if(Print_Bill_TX_INTERRUPT_ENABLED)
1338:.\Generated_Source\PSoC5/Print_Bill.c ****                 Print_Bill_EnableTxInt();
1339:.\Generated_Source\PSoC5/Print_Bill.c ****             #endif /* End Print_Bill_TX_INTERRUPT_ENABLED */
1340:.\Generated_Source\PSoC5/Print_Bill.c **** 
1341:.\Generated_Source\PSoC5/Print_Bill.c ****         #else /* Print_Bill_TXBUFFERSIZE > Print_Bill_FIFO_LENGTH */
1342:.\Generated_Source\PSoC5/Print_Bill.c **** 
1343:.\Generated_Source\PSoC5/Print_Bill.c ****             size = Print_Bill_TXSTATUS_REG;
 1501              		.loc 1 1343 0
 1502 0006 0E4B     		ldr	r3, .L105
 1503 0008 1B78     		ldrb	r3, [r3]
ARM GAS  C:\Users\PROYEC~1\AppData\Local\Temp\ccggXJIG.s 			page 51


 1504 000a FB71     		strb	r3, [r7, #7]
1344:.\Generated_Source\PSoC5/Print_Bill.c **** 
1345:.\Generated_Source\PSoC5/Print_Bill.c ****             /* Is the fifo is full. */
1346:.\Generated_Source\PSoC5/Print_Bill.c ****             if((size & Print_Bill_TX_STS_FIFO_FULL) != 0u)
 1505              		.loc 1 1346 0
 1506 000c FB79     		ldrb	r3, [r7, #7]	@ zero_extendqisi2
 1507 000e 03F00403 		and	r3, r3, #4
 1508 0012 002B     		cmp	r3, #0
 1509 0014 02D0     		beq	.L101
1347:.\Generated_Source\PSoC5/Print_Bill.c ****             {
1348:.\Generated_Source\PSoC5/Print_Bill.c ****                 size = Print_Bill_FIFO_LENGTH;
 1510              		.loc 1 1348 0
 1511 0016 0423     		movs	r3, #4
 1512 0018 FB71     		strb	r3, [r7, #7]
 1513 001a 09E0     		b	.L102
 1514              	.L101:
1349:.\Generated_Source\PSoC5/Print_Bill.c ****             }
1350:.\Generated_Source\PSoC5/Print_Bill.c ****             else if((size & Print_Bill_TX_STS_FIFO_EMPTY) != 0u)
 1515              		.loc 1 1350 0
 1516 001c FB79     		ldrb	r3, [r7, #7]	@ zero_extendqisi2
 1517 001e 03F00203 		and	r3, r3, #2
 1518 0022 002B     		cmp	r3, #0
 1519 0024 02D0     		beq	.L103
1351:.\Generated_Source\PSoC5/Print_Bill.c ****             {
1352:.\Generated_Source\PSoC5/Print_Bill.c ****                 size = 0u;
 1520              		.loc 1 1352 0
 1521 0026 0023     		movs	r3, #0
 1522 0028 FB71     		strb	r3, [r7, #7]
 1523 002a 01E0     		b	.L102
 1524              	.L103:
1353:.\Generated_Source\PSoC5/Print_Bill.c ****             }
1354:.\Generated_Source\PSoC5/Print_Bill.c ****             else
1355:.\Generated_Source\PSoC5/Print_Bill.c ****             {
1356:.\Generated_Source\PSoC5/Print_Bill.c ****                 /* We only know there is data in the fifo. */
1357:.\Generated_Source\PSoC5/Print_Bill.c ****                 size = 1u;
 1525              		.loc 1 1357 0
 1526 002c 0123     		movs	r3, #1
 1527 002e FB71     		strb	r3, [r7, #7]
 1528              	.L102:
1358:.\Generated_Source\PSoC5/Print_Bill.c ****             }
1359:.\Generated_Source\PSoC5/Print_Bill.c **** 
1360:.\Generated_Source\PSoC5/Print_Bill.c ****         #endif /* End Print_Bill_TXBUFFERSIZE > Print_Bill_FIFO_LENGTH */
1361:.\Generated_Source\PSoC5/Print_Bill.c **** 
1362:.\Generated_Source\PSoC5/Print_Bill.c ****         return(size);
 1529              		.loc 1 1362 0
 1530 0030 FB79     		ldrb	r3, [r7, #7]	@ zero_extendqisi2
1363:.\Generated_Source\PSoC5/Print_Bill.c ****     }
 1531              		.loc 1 1363 0
 1532 0032 1846     		mov	r0, r3
 1533 0034 0C37     		adds	r7, r7, #12
 1534              		.cfi_def_cfa_offset 4
 1535 0036 BD46     		mov	sp, r7
 1536              		.cfi_def_cfa_register 13
 1537              		@ sp needed
 1538 0038 5DF8047B 		ldr	r7, [sp], #4
 1539              		.cfi_restore 7
 1540              		.cfi_def_cfa_offset 0
ARM GAS  C:\Users\PROYEC~1\AppData\Local\Temp\ccggXJIG.s 			page 52


 1541 003c 7047     		bx	lr
 1542              	.L106:
 1543 003e 00BF     		.align	2
 1544              	.L105:
 1545 0040 69640040 		.word	1073767529
 1546              		.cfi_endproc
 1547              	.LFE25:
 1548              		.size	Print_Bill_GetTxBufferSize, .-Print_Bill_GetTxBufferSize
 1549              		.section	.text.Print_Bill_ClearTxBuffer,"ax",%progbits
 1550              		.align	2
 1551              		.global	Print_Bill_ClearTxBuffer
 1552              		.thumb
 1553              		.thumb_func
 1554              		.type	Print_Bill_ClearTxBuffer, %function
 1555              	Print_Bill_ClearTxBuffer:
 1556              	.LFB26:
1364:.\Generated_Source\PSoC5/Print_Bill.c **** 
1365:.\Generated_Source\PSoC5/Print_Bill.c **** 
1366:.\Generated_Source\PSoC5/Print_Bill.c ****     /*******************************************************************************
1367:.\Generated_Source\PSoC5/Print_Bill.c ****     * Function Name: Print_Bill_ClearTxBuffer
1368:.\Generated_Source\PSoC5/Print_Bill.c ****     ********************************************************************************
1369:.\Generated_Source\PSoC5/Print_Bill.c ****     *
1370:.\Generated_Source\PSoC5/Print_Bill.c ****     * Summary:
1371:.\Generated_Source\PSoC5/Print_Bill.c ****     *  Clears the TX RAM buffer by setting the read and write pointers both to zero.
1372:.\Generated_Source\PSoC5/Print_Bill.c ****     *  Clears the hardware TX FIFO.  Any data present in the FIFO will not be sent.
1373:.\Generated_Source\PSoC5/Print_Bill.c ****     *
1374:.\Generated_Source\PSoC5/Print_Bill.c ****     * Parameters:
1375:.\Generated_Source\PSoC5/Print_Bill.c ****     *  None.
1376:.\Generated_Source\PSoC5/Print_Bill.c ****     *
1377:.\Generated_Source\PSoC5/Print_Bill.c ****     * Return:
1378:.\Generated_Source\PSoC5/Print_Bill.c ****     *  None.
1379:.\Generated_Source\PSoC5/Print_Bill.c ****     *
1380:.\Generated_Source\PSoC5/Print_Bill.c ****     * Global Variables:
1381:.\Generated_Source\PSoC5/Print_Bill.c ****     *  Print_Bill_txBufferWrite - cleared to zero.
1382:.\Generated_Source\PSoC5/Print_Bill.c ****     *  Print_Bill_txBufferRead - cleared to zero.
1383:.\Generated_Source\PSoC5/Print_Bill.c ****     *
1384:.\Generated_Source\PSoC5/Print_Bill.c ****     * Reentrant:
1385:.\Generated_Source\PSoC5/Print_Bill.c ****     *  No.
1386:.\Generated_Source\PSoC5/Print_Bill.c ****     *
1387:.\Generated_Source\PSoC5/Print_Bill.c ****     * Theory:
1388:.\Generated_Source\PSoC5/Print_Bill.c ****     *  Setting the pointers to zero makes the system believe there is no data to
1389:.\Generated_Source\PSoC5/Print_Bill.c ****     *  read and writing will resume at address 0 overwriting any data that may have
1390:.\Generated_Source\PSoC5/Print_Bill.c ****     *  remained in the RAM.
1391:.\Generated_Source\PSoC5/Print_Bill.c ****     *
1392:.\Generated_Source\PSoC5/Print_Bill.c ****     * Side Effects:
1393:.\Generated_Source\PSoC5/Print_Bill.c ****     *  Any received data not read from the RAM buffer will be lost when overwritten.
1394:.\Generated_Source\PSoC5/Print_Bill.c ****     *
1395:.\Generated_Source\PSoC5/Print_Bill.c ****     *******************************************************************************/
1396:.\Generated_Source\PSoC5/Print_Bill.c ****     void Print_Bill_ClearTxBuffer(void) 
1397:.\Generated_Source\PSoC5/Print_Bill.c ****     {
 1557              		.loc 1 1397 0
 1558              		.cfi_startproc
 1559              		@ args = 0, pretend = 0, frame = 8
 1560              		@ frame_needed = 1, uses_anonymous_args = 0
 1561 0000 80B5     		push	{r7, lr}
 1562              		.cfi_def_cfa_offset 8
 1563              		.cfi_offset 7, -8
ARM GAS  C:\Users\PROYEC~1\AppData\Local\Temp\ccggXJIG.s 			page 53


 1564              		.cfi_offset 14, -4
 1565 0002 82B0     		sub	sp, sp, #8
 1566              		.cfi_def_cfa_offset 16
 1567 0004 00AF     		add	r7, sp, #0
 1568              		.cfi_def_cfa_register 7
1398:.\Generated_Source\PSoC5/Print_Bill.c ****         uint8 enableInterrupts;
1399:.\Generated_Source\PSoC5/Print_Bill.c **** 
1400:.\Generated_Source\PSoC5/Print_Bill.c ****         /* Enter critical section */
1401:.\Generated_Source\PSoC5/Print_Bill.c ****         enableInterrupts = CyEnterCriticalSection();
 1569              		.loc 1 1401 0
 1570 0006 FFF7FEFF 		bl	CyEnterCriticalSection
 1571 000a 0346     		mov	r3, r0
 1572 000c FB71     		strb	r3, [r7, #7]
1402:.\Generated_Source\PSoC5/Print_Bill.c ****         /* clear the HW FIFO */
1403:.\Generated_Source\PSoC5/Print_Bill.c ****         Print_Bill_TXDATA_AUX_CTL_REG |=  Print_Bill_TX_FIFO_CLR;
 1573              		.loc 1 1403 0
 1574 000e 0B4A     		ldr	r2, .L108
 1575 0010 0A4B     		ldr	r3, .L108
 1576 0012 1B78     		ldrb	r3, [r3]
 1577 0014 DBB2     		uxtb	r3, r3
 1578 0016 43F00103 		orr	r3, r3, #1
 1579 001a DBB2     		uxtb	r3, r3
 1580 001c 1370     		strb	r3, [r2]
1404:.\Generated_Source\PSoC5/Print_Bill.c ****         Print_Bill_TXDATA_AUX_CTL_REG &= (uint8)~Print_Bill_TX_FIFO_CLR;
 1581              		.loc 1 1404 0
 1582 001e 074A     		ldr	r2, .L108
 1583 0020 064B     		ldr	r3, .L108
 1584 0022 1B78     		ldrb	r3, [r3]
 1585 0024 DBB2     		uxtb	r3, r3
 1586 0026 23F00103 		bic	r3, r3, #1
 1587 002a DBB2     		uxtb	r3, r3
 1588 002c 1370     		strb	r3, [r2]
1405:.\Generated_Source\PSoC5/Print_Bill.c ****         /* Exit critical section */
1406:.\Generated_Source\PSoC5/Print_Bill.c ****         CyExitCriticalSection(enableInterrupts);
 1589              		.loc 1 1406 0
 1590 002e FB79     		ldrb	r3, [r7, #7]	@ zero_extendqisi2
 1591 0030 1846     		mov	r0, r3
 1592 0032 FFF7FEFF 		bl	CyExitCriticalSection
1407:.\Generated_Source\PSoC5/Print_Bill.c **** 
1408:.\Generated_Source\PSoC5/Print_Bill.c ****         #if(Print_Bill_TXBUFFERSIZE > Print_Bill_FIFO_LENGTH)
1409:.\Generated_Source\PSoC5/Print_Bill.c **** 
1410:.\Generated_Source\PSoC5/Print_Bill.c ****             /* Disable Tx interrupt. */
1411:.\Generated_Source\PSoC5/Print_Bill.c ****             /* Protect variables that could change on interrupt. */
1412:.\Generated_Source\PSoC5/Print_Bill.c ****             #if(Print_Bill_TX_INTERRUPT_ENABLED)
1413:.\Generated_Source\PSoC5/Print_Bill.c ****                 Print_Bill_DisableTxInt();
1414:.\Generated_Source\PSoC5/Print_Bill.c ****             #endif /* End Print_Bill_TX_INTERRUPT_ENABLED */
1415:.\Generated_Source\PSoC5/Print_Bill.c **** 
1416:.\Generated_Source\PSoC5/Print_Bill.c ****             Print_Bill_txBufferRead = 0u;
1417:.\Generated_Source\PSoC5/Print_Bill.c ****             Print_Bill_txBufferWrite = 0u;
1418:.\Generated_Source\PSoC5/Print_Bill.c **** 
1419:.\Generated_Source\PSoC5/Print_Bill.c ****             /* Enable Tx interrupt. */
1420:.\Generated_Source\PSoC5/Print_Bill.c ****             #if(Print_Bill_TX_INTERRUPT_ENABLED)
1421:.\Generated_Source\PSoC5/Print_Bill.c ****                 Print_Bill_EnableTxInt();
1422:.\Generated_Source\PSoC5/Print_Bill.c ****             #endif /* End Print_Bill_TX_INTERRUPT_ENABLED */
1423:.\Generated_Source\PSoC5/Print_Bill.c **** 
1424:.\Generated_Source\PSoC5/Print_Bill.c ****         #endif /* End Print_Bill_TXBUFFERSIZE > Print_Bill_FIFO_LENGTH */
1425:.\Generated_Source\PSoC5/Print_Bill.c ****     }
ARM GAS  C:\Users\PROYEC~1\AppData\Local\Temp\ccggXJIG.s 			page 54


 1593              		.loc 1 1425 0
 1594 0036 0837     		adds	r7, r7, #8
 1595              		.cfi_def_cfa_offset 8
 1596 0038 BD46     		mov	sp, r7
 1597              		.cfi_def_cfa_register 13
 1598              		@ sp needed
 1599 003a 80BD     		pop	{r7, pc}
 1600              	.L109:
 1601              		.align	2
 1602              	.L108:
 1603 003c 99640040 		.word	1073767577
 1604              		.cfi_endproc
 1605              	.LFE26:
 1606              		.size	Print_Bill_ClearTxBuffer, .-Print_Bill_ClearTxBuffer
 1607              		.section	.text.Print_Bill_SendBreak,"ax",%progbits
 1608              		.align	2
 1609              		.global	Print_Bill_SendBreak
 1610              		.thumb
 1611              		.thumb_func
 1612              		.type	Print_Bill_SendBreak, %function
 1613              	Print_Bill_SendBreak:
 1614              	.LFB27:
1426:.\Generated_Source\PSoC5/Print_Bill.c **** 
1427:.\Generated_Source\PSoC5/Print_Bill.c **** 
1428:.\Generated_Source\PSoC5/Print_Bill.c ****     /*******************************************************************************
1429:.\Generated_Source\PSoC5/Print_Bill.c ****     * Function Name: Print_Bill_SendBreak
1430:.\Generated_Source\PSoC5/Print_Bill.c ****     ********************************************************************************
1431:.\Generated_Source\PSoC5/Print_Bill.c ****     *
1432:.\Generated_Source\PSoC5/Print_Bill.c ****     * Summary:
1433:.\Generated_Source\PSoC5/Print_Bill.c ****     *  Write a Break command to the UART
1434:.\Generated_Source\PSoC5/Print_Bill.c ****     *
1435:.\Generated_Source\PSoC5/Print_Bill.c ****     * Parameters:
1436:.\Generated_Source\PSoC5/Print_Bill.c ****     *  uint8 retMode:  Wait mode,
1437:.\Generated_Source\PSoC5/Print_Bill.c ****     *   0 - Initialize registers for Break, sends the Break signal and return
1438:.\Generated_Source\PSoC5/Print_Bill.c ****     *       imediately.
1439:.\Generated_Source\PSoC5/Print_Bill.c ****     *   1 - Wait until Break sending is complete, reinitialize registers to normal
1440:.\Generated_Source\PSoC5/Print_Bill.c ****     *       transmission mode then return.
1441:.\Generated_Source\PSoC5/Print_Bill.c ****     *   2 - Reinitialize registers to normal transmission mode then return.
1442:.\Generated_Source\PSoC5/Print_Bill.c ****     *   3 - both steps: 0 and 1
1443:.\Generated_Source\PSoC5/Print_Bill.c ****     *       init registers for Break, send Break signal
1444:.\Generated_Source\PSoC5/Print_Bill.c ****     *       wait until Break sending is complete, reinit registers to normal
1445:.\Generated_Source\PSoC5/Print_Bill.c ****     *       transmission mode then return.
1446:.\Generated_Source\PSoC5/Print_Bill.c ****     *
1447:.\Generated_Source\PSoC5/Print_Bill.c ****     * Return:
1448:.\Generated_Source\PSoC5/Print_Bill.c ****     *  None.
1449:.\Generated_Source\PSoC5/Print_Bill.c ****     *
1450:.\Generated_Source\PSoC5/Print_Bill.c ****     * Global Variables:
1451:.\Generated_Source\PSoC5/Print_Bill.c ****     *  Print_Bill_initVar - checked to identify that the component has been
1452:.\Generated_Source\PSoC5/Print_Bill.c ****     *     initialized.
1453:.\Generated_Source\PSoC5/Print_Bill.c ****     *  tx_period - static variable, used for keeping TX period configuration.
1454:.\Generated_Source\PSoC5/Print_Bill.c ****     *
1455:.\Generated_Source\PSoC5/Print_Bill.c ****     * Reentrant:
1456:.\Generated_Source\PSoC5/Print_Bill.c ****     *  No.
1457:.\Generated_Source\PSoC5/Print_Bill.c ****     *
1458:.\Generated_Source\PSoC5/Print_Bill.c ****     * Theory:
1459:.\Generated_Source\PSoC5/Print_Bill.c ****     *  SendBreak function initializes registers to send 13-bit break signal. It is
1460:.\Generated_Source\PSoC5/Print_Bill.c ****     *  important to return the registers configuration to normal for continue 8-bit
ARM GAS  C:\Users\PROYEC~1\AppData\Local\Temp\ccggXJIG.s 			page 55


1461:.\Generated_Source\PSoC5/Print_Bill.c ****     *  operation.
1462:.\Generated_Source\PSoC5/Print_Bill.c ****     *  Trere are 3 variants for this API usage:
1463:.\Generated_Source\PSoC5/Print_Bill.c ****     *  1) SendBreak(3) - function will send the Break signal and take care on the
1464:.\Generated_Source\PSoC5/Print_Bill.c ****     *     configuration returning. Funcition will block CPU untill transmition
1465:.\Generated_Source\PSoC5/Print_Bill.c ****     *     complete.
1466:.\Generated_Source\PSoC5/Print_Bill.c ****     *  2) User may want to use bloking time if UART configured to the low speed
1467:.\Generated_Source\PSoC5/Print_Bill.c ****     *     operation
1468:.\Generated_Source\PSoC5/Print_Bill.c ****     *     Emample for this case:
1469:.\Generated_Source\PSoC5/Print_Bill.c ****     *     SendBreak(0);     - init Break signal transmition
1470:.\Generated_Source\PSoC5/Print_Bill.c ****     *         Add your code here to use CPU time
1471:.\Generated_Source\PSoC5/Print_Bill.c ****     *     SendBreak(1);     - complete Break operation
1472:.\Generated_Source\PSoC5/Print_Bill.c ****     *  3) Same to 2) but user may want to init and use the interrupt for complete
1473:.\Generated_Source\PSoC5/Print_Bill.c ****     *     break operation.
1474:.\Generated_Source\PSoC5/Print_Bill.c ****     *     Example for this case:
1475:.\Generated_Source\PSoC5/Print_Bill.c ****     *     Init TX interrupt whith "TX - On TX Complete" parameter
1476:.\Generated_Source\PSoC5/Print_Bill.c ****     *     SendBreak(0);     - init Break signal transmition
1477:.\Generated_Source\PSoC5/Print_Bill.c ****     *         Add your code here to use CPU time
1478:.\Generated_Source\PSoC5/Print_Bill.c ****     *     When interrupt appear with UART_TX_STS_COMPLETE status:
1479:.\Generated_Source\PSoC5/Print_Bill.c ****     *     SendBreak(2);     - complete Break operation
1480:.\Generated_Source\PSoC5/Print_Bill.c ****     *
1481:.\Generated_Source\PSoC5/Print_Bill.c ****     * Side Effects:
1482:.\Generated_Source\PSoC5/Print_Bill.c ****     *   Uses static variable to keep registers configuration.
1483:.\Generated_Source\PSoC5/Print_Bill.c ****     *
1484:.\Generated_Source\PSoC5/Print_Bill.c ****     *******************************************************************************/
1485:.\Generated_Source\PSoC5/Print_Bill.c ****     void Print_Bill_SendBreak(uint8 retMode) 
1486:.\Generated_Source\PSoC5/Print_Bill.c ****     {
 1615              		.loc 1 1486 0
 1616              		.cfi_startproc
 1617              		@ args = 0, pretend = 0, frame = 16
 1618              		@ frame_needed = 1, uses_anonymous_args = 0
 1619              		@ link register save eliminated.
 1620 0000 80B4     		push	{r7}
 1621              		.cfi_def_cfa_offset 4
 1622              		.cfi_offset 7, -4
 1623 0002 85B0     		sub	sp, sp, #20
 1624              		.cfi_def_cfa_offset 24
 1625 0004 00AF     		add	r7, sp, #0
 1626              		.cfi_def_cfa_register 7
 1627 0006 0346     		mov	r3, r0
 1628 0008 FB71     		strb	r3, [r7, #7]
1487:.\Generated_Source\PSoC5/Print_Bill.c **** 
1488:.\Generated_Source\PSoC5/Print_Bill.c ****         /* If not Initialized then skip this function*/
1489:.\Generated_Source\PSoC5/Print_Bill.c ****         if(Print_Bill_initVar != 0u)
 1629              		.loc 1 1489 0
 1630 000a 1F4B     		ldr	r3, .L118
 1631 000c 1B78     		ldrb	r3, [r3]	@ zero_extendqisi2
 1632 000e 002B     		cmp	r3, #0
 1633 0010 35D0     		beq	.L110
 1634              	.LBB2:
1490:.\Generated_Source\PSoC5/Print_Bill.c ****         {
1491:.\Generated_Source\PSoC5/Print_Bill.c ****             /*Set the Counter to 13-bits and transmit a 00 byte*/
1492:.\Generated_Source\PSoC5/Print_Bill.c ****             /*When that is done then reset the counter value back*/
1493:.\Generated_Source\PSoC5/Print_Bill.c ****             uint8 tmpStat;
1494:.\Generated_Source\PSoC5/Print_Bill.c **** 
1495:.\Generated_Source\PSoC5/Print_Bill.c ****             #if(Print_Bill_HD_ENABLED) /* Half Duplex mode*/
1496:.\Generated_Source\PSoC5/Print_Bill.c **** 
1497:.\Generated_Source\PSoC5/Print_Bill.c ****                 if( (retMode == Print_Bill_SEND_BREAK) ||
ARM GAS  C:\Users\PROYEC~1\AppData\Local\Temp\ccggXJIG.s 			page 56


1498:.\Generated_Source\PSoC5/Print_Bill.c ****                     (retMode == Print_Bill_SEND_WAIT_REINIT ) )
1499:.\Generated_Source\PSoC5/Print_Bill.c ****                 {
1500:.\Generated_Source\PSoC5/Print_Bill.c ****                     /* CTRL_HD_SEND_BREAK - sends break bits in HD mode*/
1501:.\Generated_Source\PSoC5/Print_Bill.c ****                     Print_Bill_WriteControlRegister(Print_Bill_ReadControlRegister() |
1502:.\Generated_Source\PSoC5/Print_Bill.c ****                                                           Print_Bill_CTRL_HD_SEND_BREAK);
1503:.\Generated_Source\PSoC5/Print_Bill.c ****                     /* Send zeros*/
1504:.\Generated_Source\PSoC5/Print_Bill.c ****                     Print_Bill_TXDATA_REG = 0u;
1505:.\Generated_Source\PSoC5/Print_Bill.c **** 
1506:.\Generated_Source\PSoC5/Print_Bill.c ****                     do /*wait until transmit starts*/
1507:.\Generated_Source\PSoC5/Print_Bill.c ****                     {
1508:.\Generated_Source\PSoC5/Print_Bill.c ****                         tmpStat = Print_Bill_TXSTATUS_REG;
1509:.\Generated_Source\PSoC5/Print_Bill.c ****                     }while((tmpStat & Print_Bill_TX_STS_FIFO_EMPTY) != 0u);
1510:.\Generated_Source\PSoC5/Print_Bill.c ****                 }
1511:.\Generated_Source\PSoC5/Print_Bill.c **** 
1512:.\Generated_Source\PSoC5/Print_Bill.c ****                 if( (retMode == Print_Bill_WAIT_FOR_COMPLETE_REINIT) ||
1513:.\Generated_Source\PSoC5/Print_Bill.c ****                     (retMode == Print_Bill_SEND_WAIT_REINIT) )
1514:.\Generated_Source\PSoC5/Print_Bill.c ****                 {
1515:.\Generated_Source\PSoC5/Print_Bill.c ****                     do /*wait until transmit complete*/
1516:.\Generated_Source\PSoC5/Print_Bill.c ****                     {
1517:.\Generated_Source\PSoC5/Print_Bill.c ****                         tmpStat = Print_Bill_TXSTATUS_REG;
1518:.\Generated_Source\PSoC5/Print_Bill.c ****                     }while(((uint8)~tmpStat & Print_Bill_TX_STS_COMPLETE) != 0u);
1519:.\Generated_Source\PSoC5/Print_Bill.c ****                 }
1520:.\Generated_Source\PSoC5/Print_Bill.c **** 
1521:.\Generated_Source\PSoC5/Print_Bill.c ****                 if( (retMode == Print_Bill_WAIT_FOR_COMPLETE_REINIT) ||
1522:.\Generated_Source\PSoC5/Print_Bill.c ****                     (retMode == Print_Bill_REINIT) ||
1523:.\Generated_Source\PSoC5/Print_Bill.c ****                     (retMode == Print_Bill_SEND_WAIT_REINIT) )
1524:.\Generated_Source\PSoC5/Print_Bill.c ****                 {
1525:.\Generated_Source\PSoC5/Print_Bill.c ****                     Print_Bill_WriteControlRegister(Print_Bill_ReadControlRegister() &
1526:.\Generated_Source\PSoC5/Print_Bill.c ****                                                   (uint8)~Print_Bill_CTRL_HD_SEND_BREAK);
1527:.\Generated_Source\PSoC5/Print_Bill.c ****                 }
1528:.\Generated_Source\PSoC5/Print_Bill.c **** 
1529:.\Generated_Source\PSoC5/Print_Bill.c ****             #else /* Print_Bill_HD_ENABLED Full Duplex mode */
1530:.\Generated_Source\PSoC5/Print_Bill.c **** 
1531:.\Generated_Source\PSoC5/Print_Bill.c ****                 static uint8 tx_period;
1532:.\Generated_Source\PSoC5/Print_Bill.c **** 
1533:.\Generated_Source\PSoC5/Print_Bill.c ****                 if( (retMode == Print_Bill_SEND_BREAK) ||
 1635              		.loc 1 1533 0
 1636 0012 FB79     		ldrb	r3, [r7, #7]	@ zero_extendqisi2
 1637 0014 002B     		cmp	r3, #0
 1638 0016 02D0     		beq	.L112
 1639              		.loc 1 1533 0 is_stmt 0 discriminator 1
 1640 0018 FB79     		ldrb	r3, [r7, #7]	@ zero_extendqisi2
 1641 001a 032B     		cmp	r3, #3
 1642 001c 12D1     		bne	.L113
 1643              	.L112:
1534:.\Generated_Source\PSoC5/Print_Bill.c ****                     (retMode == Print_Bill_SEND_WAIT_REINIT) )
1535:.\Generated_Source\PSoC5/Print_Bill.c ****                 {
1536:.\Generated_Source\PSoC5/Print_Bill.c ****                     /* CTRL_HD_SEND_BREAK - skip to send parity bit at Break signal in Full Duplex 
1537:.\Generated_Source\PSoC5/Print_Bill.c ****                     #if( (Print_Bill_PARITY_TYPE != Print_Bill__B_UART__NONE_REVB) || \
1538:.\Generated_Source\PSoC5/Print_Bill.c ****                                         (Print_Bill_PARITY_TYPE_SW != 0u) )
1539:.\Generated_Source\PSoC5/Print_Bill.c ****                         Print_Bill_WriteControlRegister(Print_Bill_ReadControlRegister() |
1540:.\Generated_Source\PSoC5/Print_Bill.c ****                                                               Print_Bill_CTRL_HD_SEND_BREAK);
1541:.\Generated_Source\PSoC5/Print_Bill.c ****                     #endif /* End Print_Bill_PARITY_TYPE != Print_Bill__B_UART__NONE_REVB  */
1542:.\Generated_Source\PSoC5/Print_Bill.c **** 
1543:.\Generated_Source\PSoC5/Print_Bill.c ****                     #if(Print_Bill_TXCLKGEN_DP)
1544:.\Generated_Source\PSoC5/Print_Bill.c ****                         tx_period = Print_Bill_TXBITCLKTX_COMPLETE_REG;
 1644              		.loc 1 1544 0 is_stmt 1
ARM GAS  C:\Users\PROYEC~1\AppData\Local\Temp\ccggXJIG.s 			page 57


 1645 001e 1B4B     		ldr	r3, .L118+4
 1646 0020 1B78     		ldrb	r3, [r3]
 1647 0022 DAB2     		uxtb	r2, r3
 1648 0024 1A4B     		ldr	r3, .L118+8
 1649 0026 1A70     		strb	r2, [r3]
1545:.\Generated_Source\PSoC5/Print_Bill.c ****                         Print_Bill_TXBITCLKTX_COMPLETE_REG = Print_Bill_TXBITCTR_BREAKBITS;
 1650              		.loc 1 1545 0
 1651 0028 184B     		ldr	r3, .L118+4
 1652 002a 6722     		movs	r2, #103
 1653 002c 1A70     		strb	r2, [r3]
1546:.\Generated_Source\PSoC5/Print_Bill.c ****                     #else
1547:.\Generated_Source\PSoC5/Print_Bill.c ****                         tx_period = Print_Bill_TXBITCTR_PERIOD_REG;
1548:.\Generated_Source\PSoC5/Print_Bill.c ****                         Print_Bill_TXBITCTR_PERIOD_REG = Print_Bill_TXBITCTR_BREAKBITS8X;
1549:.\Generated_Source\PSoC5/Print_Bill.c ****                     #endif /* End Print_Bill_TXCLKGEN_DP */
1550:.\Generated_Source\PSoC5/Print_Bill.c **** 
1551:.\Generated_Source\PSoC5/Print_Bill.c ****                     /* Send zeros*/
1552:.\Generated_Source\PSoC5/Print_Bill.c ****                     Print_Bill_TXDATA_REG = 0u;
 1654              		.loc 1 1552 0
 1655 002e 194B     		ldr	r3, .L118+12
 1656 0030 0022     		movs	r2, #0
 1657 0032 1A70     		strb	r2, [r3]
 1658              	.L114:
1553:.\Generated_Source\PSoC5/Print_Bill.c **** 
1554:.\Generated_Source\PSoC5/Print_Bill.c ****                     do /* wait until transmit starts */
1555:.\Generated_Source\PSoC5/Print_Bill.c ****                     {
1556:.\Generated_Source\PSoC5/Print_Bill.c ****                         tmpStat = Print_Bill_TXSTATUS_REG;
 1659              		.loc 1 1556 0 discriminator 1
 1660 0034 184B     		ldr	r3, .L118+16
 1661 0036 1B78     		ldrb	r3, [r3]
 1662 0038 FB73     		strb	r3, [r7, #15]
1557:.\Generated_Source\PSoC5/Print_Bill.c ****                     }while((tmpStat & Print_Bill_TX_STS_FIFO_EMPTY) != 0u);
 1663              		.loc 1 1557 0 discriminator 1
 1664 003a FB7B     		ldrb	r3, [r7, #15]	@ zero_extendqisi2
 1665 003c 03F00203 		and	r3, r3, #2
 1666 0040 002B     		cmp	r3, #0
 1667 0042 F7D1     		bne	.L114
 1668              	.L113:
1558:.\Generated_Source\PSoC5/Print_Bill.c ****                 }
1559:.\Generated_Source\PSoC5/Print_Bill.c **** 
1560:.\Generated_Source\PSoC5/Print_Bill.c ****                 if( (retMode == Print_Bill_WAIT_FOR_COMPLETE_REINIT) ||
 1669              		.loc 1 1560 0
 1670 0044 FB79     		ldrb	r3, [r7, #7]	@ zero_extendqisi2
 1671 0046 012B     		cmp	r3, #1
 1672 0048 02D0     		beq	.L115
 1673              		.loc 1 1560 0 is_stmt 0 discriminator 1
 1674 004a FB79     		ldrb	r3, [r7, #7]	@ zero_extendqisi2
 1675 004c 032B     		cmp	r3, #3
 1676 004e 09D1     		bne	.L116
 1677              	.L115:
1561:.\Generated_Source\PSoC5/Print_Bill.c ****                     (retMode == Print_Bill_SEND_WAIT_REINIT) )
1562:.\Generated_Source\PSoC5/Print_Bill.c ****                 {
1563:.\Generated_Source\PSoC5/Print_Bill.c ****                     do /*wait until transmit complete*/
1564:.\Generated_Source\PSoC5/Print_Bill.c ****                     {
1565:.\Generated_Source\PSoC5/Print_Bill.c ****                         tmpStat = Print_Bill_TXSTATUS_REG;
 1678              		.loc 1 1565 0 is_stmt 1 discriminator 1
 1679 0050 114B     		ldr	r3, .L118+16
 1680 0052 1B78     		ldrb	r3, [r3]
ARM GAS  C:\Users\PROYEC~1\AppData\Local\Temp\ccggXJIG.s 			page 58


 1681 0054 FB73     		strb	r3, [r7, #15]
1566:.\Generated_Source\PSoC5/Print_Bill.c ****                     }while(((uint8)~tmpStat & Print_Bill_TX_STS_COMPLETE) != 0u);
 1682              		.loc 1 1566 0 discriminator 1
 1683 0056 FB7B     		ldrb	r3, [r7, #15]
 1684 0058 DB43     		mvns	r3, r3
 1685 005a DBB2     		uxtb	r3, r3
 1686 005c 03F00103 		and	r3, r3, #1
 1687 0060 002B     		cmp	r3, #0
 1688 0062 F5D1     		bne	.L115
 1689              	.L116:
1567:.\Generated_Source\PSoC5/Print_Bill.c ****                 }
1568:.\Generated_Source\PSoC5/Print_Bill.c **** 
1569:.\Generated_Source\PSoC5/Print_Bill.c ****                 if( (retMode == Print_Bill_WAIT_FOR_COMPLETE_REINIT) ||
 1690              		.loc 1 1569 0
 1691 0064 FB79     		ldrb	r3, [r7, #7]	@ zero_extendqisi2
 1692 0066 012B     		cmp	r3, #1
 1693 0068 05D0     		beq	.L117
 1694              		.loc 1 1569 0 is_stmt 0 discriminator 1
 1695 006a FB79     		ldrb	r3, [r7, #7]	@ zero_extendqisi2
 1696 006c 022B     		cmp	r3, #2
 1697 006e 02D0     		beq	.L117
1570:.\Generated_Source\PSoC5/Print_Bill.c ****                     (retMode == Print_Bill_REINIT) ||
 1698              		.loc 1 1570 0 is_stmt 1
 1699 0070 FB79     		ldrb	r3, [r7, #7]	@ zero_extendqisi2
 1700 0072 032B     		cmp	r3, #3
 1701 0074 03D1     		bne	.L110
 1702              	.L117:
1571:.\Generated_Source\PSoC5/Print_Bill.c ****                     (retMode == Print_Bill_SEND_WAIT_REINIT) )
1572:.\Generated_Source\PSoC5/Print_Bill.c ****                 {
1573:.\Generated_Source\PSoC5/Print_Bill.c **** 
1574:.\Generated_Source\PSoC5/Print_Bill.c ****                     #if(Print_Bill_TXCLKGEN_DP)
1575:.\Generated_Source\PSoC5/Print_Bill.c ****                         Print_Bill_TXBITCLKTX_COMPLETE_REG = tx_period;
 1703              		.loc 1 1575 0
 1704 0076 054B     		ldr	r3, .L118+4
 1705 0078 054A     		ldr	r2, .L118+8
 1706 007a 1278     		ldrb	r2, [r2]	@ zero_extendqisi2
 1707 007c 1A70     		strb	r2, [r3]
 1708              	.L110:
 1709              	.LBE2:
1576:.\Generated_Source\PSoC5/Print_Bill.c ****                     #else
1577:.\Generated_Source\PSoC5/Print_Bill.c ****                         Print_Bill_TXBITCTR_PERIOD_REG = tx_period;
1578:.\Generated_Source\PSoC5/Print_Bill.c ****                     #endif /* End Print_Bill_TXCLKGEN_DP */
1579:.\Generated_Source\PSoC5/Print_Bill.c **** 
1580:.\Generated_Source\PSoC5/Print_Bill.c ****                     #if( (Print_Bill_PARITY_TYPE != Print_Bill__B_UART__NONE_REVB) || \
1581:.\Generated_Source\PSoC5/Print_Bill.c ****                          (Print_Bill_PARITY_TYPE_SW != 0u) )
1582:.\Generated_Source\PSoC5/Print_Bill.c ****                         Print_Bill_WriteControlRegister(Print_Bill_ReadControlRegister() &
1583:.\Generated_Source\PSoC5/Print_Bill.c ****                                                       (uint8)~Print_Bill_CTRL_HD_SEND_BREAK);
1584:.\Generated_Source\PSoC5/Print_Bill.c ****                     #endif /* End Print_Bill_PARITY_TYPE != NONE */
1585:.\Generated_Source\PSoC5/Print_Bill.c ****                 }
1586:.\Generated_Source\PSoC5/Print_Bill.c ****             #endif    /* End Print_Bill_HD_ENABLED */
1587:.\Generated_Source\PSoC5/Print_Bill.c ****         }
1588:.\Generated_Source\PSoC5/Print_Bill.c ****     }
 1710              		.loc 1 1588 0
 1711 007e 1437     		adds	r7, r7, #20
 1712              		.cfi_def_cfa_offset 4
 1713 0080 BD46     		mov	sp, r7
 1714              		.cfi_def_cfa_register 13
ARM GAS  C:\Users\PROYEC~1\AppData\Local\Temp\ccggXJIG.s 			page 59


 1715              		@ sp needed
 1716 0082 5DF8047B 		ldr	r7, [sp], #4
 1717              		.cfi_restore 7
 1718              		.cfi_def_cfa_offset 0
 1719 0086 7047     		bx	lr
 1720              	.L119:
 1721              		.align	2
 1722              	.L118:
 1723 0088 00000000 		.word	Print_Bill_initVar
 1724 008c 37640040 		.word	1073767479
 1725 0090 05000000 		.word	tx_period.5012
 1726 0094 49640040 		.word	1073767497
 1727 0098 69640040 		.word	1073767529
 1728              		.cfi_endproc
 1729              	.LFE27:
 1730              		.size	Print_Bill_SendBreak, .-Print_Bill_SendBreak
 1731              		.section	.text.Print_Bill_SetTxAddressMode,"ax",%progbits
 1732              		.align	2
 1733              		.global	Print_Bill_SetTxAddressMode
 1734              		.thumb
 1735              		.thumb_func
 1736              		.type	Print_Bill_SetTxAddressMode, %function
 1737              	Print_Bill_SetTxAddressMode:
 1738              	.LFB28:
1589:.\Generated_Source\PSoC5/Print_Bill.c **** 
1590:.\Generated_Source\PSoC5/Print_Bill.c **** 
1591:.\Generated_Source\PSoC5/Print_Bill.c ****     /*******************************************************************************
1592:.\Generated_Source\PSoC5/Print_Bill.c ****     * Function Name: Print_Bill_SetTxAddressMode
1593:.\Generated_Source\PSoC5/Print_Bill.c ****     ********************************************************************************
1594:.\Generated_Source\PSoC5/Print_Bill.c ****     *
1595:.\Generated_Source\PSoC5/Print_Bill.c ****     * Summary:
1596:.\Generated_Source\PSoC5/Print_Bill.c ****     *  Set the transmit addressing mode
1597:.\Generated_Source\PSoC5/Print_Bill.c ****     *
1598:.\Generated_Source\PSoC5/Print_Bill.c ****     * Parameters:
1599:.\Generated_Source\PSoC5/Print_Bill.c ****     *  addressMode: 0 -> Space
1600:.\Generated_Source\PSoC5/Print_Bill.c ****     *               1 -> Mark
1601:.\Generated_Source\PSoC5/Print_Bill.c ****     *
1602:.\Generated_Source\PSoC5/Print_Bill.c ****     * Return:
1603:.\Generated_Source\PSoC5/Print_Bill.c ****     *  None.
1604:.\Generated_Source\PSoC5/Print_Bill.c ****     *
1605:.\Generated_Source\PSoC5/Print_Bill.c ****     *******************************************************************************/
1606:.\Generated_Source\PSoC5/Print_Bill.c ****     void Print_Bill_SetTxAddressMode(uint8 addressMode) 
1607:.\Generated_Source\PSoC5/Print_Bill.c ****     {
 1739              		.loc 1 1607 0
 1740              		.cfi_startproc
 1741              		@ args = 0, pretend = 0, frame = 8
 1742              		@ frame_needed = 1, uses_anonymous_args = 0
 1743              		@ link register save eliminated.
 1744 0000 80B4     		push	{r7}
 1745              		.cfi_def_cfa_offset 4
 1746              		.cfi_offset 7, -4
 1747 0002 83B0     		sub	sp, sp, #12
 1748              		.cfi_def_cfa_offset 16
 1749 0004 00AF     		add	r7, sp, #0
 1750              		.cfi_def_cfa_register 7
 1751 0006 0346     		mov	r3, r0
 1752 0008 FB71     		strb	r3, [r7, #7]
ARM GAS  C:\Users\PROYEC~1\AppData\Local\Temp\ccggXJIG.s 			page 60


1608:.\Generated_Source\PSoC5/Print_Bill.c ****         /* Mark/Space sending enable*/
1609:.\Generated_Source\PSoC5/Print_Bill.c ****         if(addressMode != 0u)
1610:.\Generated_Source\PSoC5/Print_Bill.c ****         {
1611:.\Generated_Source\PSoC5/Print_Bill.c ****             #if( Print_Bill_CONTROL_REG_REMOVED == 0u )
1612:.\Generated_Source\PSoC5/Print_Bill.c ****                 Print_Bill_WriteControlRegister(Print_Bill_ReadControlRegister() |
1613:.\Generated_Source\PSoC5/Print_Bill.c ****                                                       Print_Bill_CTRL_MARK);
1614:.\Generated_Source\PSoC5/Print_Bill.c ****             #endif /* End Print_Bill_CONTROL_REG_REMOVED == 0u */
1615:.\Generated_Source\PSoC5/Print_Bill.c ****         }
1616:.\Generated_Source\PSoC5/Print_Bill.c ****         else
1617:.\Generated_Source\PSoC5/Print_Bill.c ****         {
1618:.\Generated_Source\PSoC5/Print_Bill.c ****             #if( Print_Bill_CONTROL_REG_REMOVED == 0u )
1619:.\Generated_Source\PSoC5/Print_Bill.c ****                 Print_Bill_WriteControlRegister(Print_Bill_ReadControlRegister() &
1620:.\Generated_Source\PSoC5/Print_Bill.c ****                                                     (uint8)~Print_Bill_CTRL_MARK);
1621:.\Generated_Source\PSoC5/Print_Bill.c ****             #endif /* End Print_Bill_CONTROL_REG_REMOVED == 0u */
1622:.\Generated_Source\PSoC5/Print_Bill.c ****         }
1623:.\Generated_Source\PSoC5/Print_Bill.c ****     }
 1753              		.loc 1 1623 0
 1754 000a 0C37     		adds	r7, r7, #12
 1755              		.cfi_def_cfa_offset 4
 1756 000c BD46     		mov	sp, r7
 1757              		.cfi_def_cfa_register 13
 1758              		@ sp needed
 1759 000e 5DF8047B 		ldr	r7, [sp], #4
 1760              		.cfi_restore 7
 1761              		.cfi_def_cfa_offset 0
 1762 0012 7047     		bx	lr
 1763              		.cfi_endproc
 1764              	.LFE28:
 1765              		.size	Print_Bill_SetTxAddressMode, .-Print_Bill_SetTxAddressMode
 1766              		.bss
 1767              	tx_period.5012:
 1768 0005 00       		.space	1
 1769              		.text
 1770              	.Letext0:
 1771              		.file 2 ".\\Generated_Source\\PSoC5\\cytypes.h"
 1772              		.section	.debug_info,"",%progbits
 1773              	.Ldebug_info0:
 1774 0000 E2050000 		.4byte	0x5e2
 1775 0004 0400     		.2byte	0x4
 1776 0006 00000000 		.4byte	.Ldebug_abbrev0
 1777 000a 04       		.byte	0x4
 1778 000b 01       		.uleb128 0x1
 1779 000c E5020000 		.4byte	.LASF72
 1780 0010 01       		.byte	0x1
 1781 0011 24000000 		.4byte	.LASF73
 1782 0015 1F040000 		.4byte	.LASF74
 1783 0019 00000000 		.4byte	.Ldebug_ranges0+0
 1784 001d 00000000 		.4byte	0
 1785 0021 00000000 		.4byte	.Ldebug_line0
 1786 0025 02       		.uleb128 0x2
 1787 0026 01       		.byte	0x1
 1788 0027 06       		.byte	0x6
 1789 0028 D7000000 		.4byte	.LASF0
 1790 002c 02       		.uleb128 0x2
 1791 002d 01       		.byte	0x1
 1792 002e 08       		.byte	0x8
 1793 002f A3030000 		.4byte	.LASF1
ARM GAS  C:\Users\PROYEC~1\AppData\Local\Temp\ccggXJIG.s 			page 61


 1794 0033 02       		.uleb128 0x2
 1795 0034 02       		.byte	0x2
 1796 0035 05       		.byte	0x5
 1797 0036 C9030000 		.4byte	.LASF2
 1798 003a 02       		.uleb128 0x2
 1799 003b 02       		.byte	0x2
 1800 003c 07       		.byte	0x7
 1801 003d C5010000 		.4byte	.LASF3
 1802 0041 02       		.uleb128 0x2
 1803 0042 04       		.byte	0x4
 1804 0043 05       		.byte	0x5
 1805 0044 E3000000 		.4byte	.LASF4
 1806 0048 02       		.uleb128 0x2
 1807 0049 04       		.byte	0x4
 1808 004a 07       		.byte	0x7
 1809 004b 90010000 		.4byte	.LASF5
 1810 004f 02       		.uleb128 0x2
 1811 0050 08       		.byte	0x8
 1812 0051 05       		.byte	0x5
 1813 0052 C9000000 		.4byte	.LASF6
 1814 0056 02       		.uleb128 0x2
 1815 0057 08       		.byte	0x8
 1816 0058 07       		.byte	0x7
 1817 0059 64000000 		.4byte	.LASF7
 1818 005d 03       		.uleb128 0x3
 1819 005e 04       		.byte	0x4
 1820 005f 05       		.byte	0x5
 1821 0060 696E7400 		.ascii	"int\000"
 1822 0064 02       		.uleb128 0x2
 1823 0065 04       		.byte	0x4
 1824 0066 07       		.byte	0x7
 1825 0067 83010000 		.4byte	.LASF8
 1826 006b 04       		.uleb128 0x4
 1827 006c EC000000 		.4byte	.LASF9
 1828 0070 02       		.byte	0x2
 1829 0071 A1       		.byte	0xa1
 1830 0072 2C000000 		.4byte	0x2c
 1831 0076 04       		.uleb128 0x4
 1832 0077 00000000 		.4byte	.LASF10
 1833 007b 02       		.byte	0x2
 1834 007c A2       		.byte	0xa2
 1835 007d 3A000000 		.4byte	0x3a
 1836 0081 04       		.uleb128 0x4
 1837 0082 44010000 		.4byte	.LASF11
 1838 0086 02       		.byte	0x2
 1839 0087 A3       		.byte	0xa3
 1840 0088 48000000 		.4byte	0x48
 1841 008c 02       		.uleb128 0x2
 1842 008d 04       		.byte	0x4
 1843 008e 04       		.byte	0x4
 1844 008f 7C030000 		.4byte	.LASF12
 1845 0093 02       		.uleb128 0x2
 1846 0094 08       		.byte	0x8
 1847 0095 04       		.byte	0x4
 1848 0096 1D010000 		.4byte	.LASF13
 1849 009a 04       		.uleb128 0x4
 1850 009b 9B040000 		.4byte	.LASF14
ARM GAS  C:\Users\PROYEC~1\AppData\Local\Temp\ccggXJIG.s 			page 62


 1851 009f 02       		.byte	0x2
 1852 00a0 B2       		.byte	0xb2
 1853 00a1 A5000000 		.4byte	0xa5
 1854 00a5 02       		.uleb128 0x2
 1855 00a6 01       		.byte	0x1
 1856 00a7 08       		.byte	0x8
 1857 00a8 82040000 		.4byte	.LASF15
 1858 00ac 05       		.uleb128 0x5
 1859 00ad 9E030000 		.4byte	.LASF16
 1860 00b1 02       		.byte	0x2
 1861 00b2 4B01     		.2byte	0x14b
 1862 00b4 B8000000 		.4byte	0xb8
 1863 00b8 06       		.uleb128 0x6
 1864 00b9 6B000000 		.4byte	0x6b
 1865 00bd 05       		.uleb128 0x5
 1866 00be 71020000 		.4byte	.LASF17
 1867 00c2 02       		.byte	0x2
 1868 00c3 4D01     		.2byte	0x14d
 1869 00c5 C9000000 		.4byte	0xc9
 1870 00c9 06       		.uleb128 0x6
 1871 00ca 81000000 		.4byte	0x81
 1872 00ce 02       		.uleb128 0x2
 1873 00cf 04       		.byte	0x4
 1874 00d0 07       		.byte	0x7
 1875 00d1 96020000 		.4byte	.LASF18
 1876 00d5 07       		.uleb128 0x7
 1877 00d6 F6010000 		.4byte	.LASF19
 1878 00da 01       		.byte	0x1
 1879 00db 49       		.byte	0x49
 1880 00dc 00000000 		.4byte	.LFB0
 1881 00e0 20000000 		.4byte	.LFE0-.LFB0
 1882 00e4 01       		.uleb128 0x1
 1883 00e5 9C       		.byte	0x9c
 1884 00e6 07       		.uleb128 0x7
 1885 00e7 6B010000 		.4byte	.LASF20
 1886 00eb 01       		.byte	0x1
 1887 00ec 65       		.byte	0x65
 1888 00ed 00000000 		.4byte	.LFB1
 1889 00f1 4C000000 		.4byte	.LFE1-.LFB1
 1890 00f5 01       		.uleb128 0x1
 1891 00f6 9C       		.byte	0x9c
 1892 00f7 08       		.uleb128 0x8
 1893 00f8 9F020000 		.4byte	.LASF21
 1894 00fc 01       		.byte	0x1
 1895 00fd AE       		.byte	0xae
 1896 00fe 00000000 		.4byte	.LFB2
 1897 0102 68000000 		.4byte	.LFE2-.LFB2
 1898 0106 01       		.uleb128 0x1
 1899 0107 9C       		.byte	0x9c
 1900 0108 1B010000 		.4byte	0x11b
 1901 010c 09       		.uleb128 0x9
 1902 010d D9040000 		.4byte	.LASF23
 1903 0111 01       		.byte	0x1
 1904 0112 B0       		.byte	0xb0
 1905 0113 6B000000 		.4byte	0x6b
 1906 0117 02       		.uleb128 0x2
 1907 0118 91       		.byte	0x91
ARM GAS  C:\Users\PROYEC~1\AppData\Local\Temp\ccggXJIG.s 			page 63


 1908 0119 77       		.sleb128 -9
 1909 011a 00       		.byte	0
 1910 011b 08       		.uleb128 0x8
 1911 011c 04050000 		.4byte	.LASF22
 1912 0120 01       		.byte	0x1
 1913 0121 E3       		.byte	0xe3
 1914 0122 00000000 		.4byte	.LFB3
 1915 0126 60000000 		.4byte	.LFE3-.LFB3
 1916 012a 01       		.uleb128 0x1
 1917 012b 9C       		.byte	0x9c
 1918 012c 3F010000 		.4byte	0x13f
 1919 0130 09       		.uleb128 0x9
 1920 0131 D9040000 		.4byte	.LASF23
 1921 0135 01       		.byte	0x1
 1922 0136 E5       		.byte	0xe5
 1923 0137 6B000000 		.4byte	0x6b
 1924 013b 02       		.uleb128 0x2
 1925 013c 91       		.byte	0x91
 1926 013d 77       		.sleb128 -9
 1927 013e 00       		.byte	0
 1928 013f 0A       		.uleb128 0xa
 1929 0140 A1040000 		.4byte	.LASF38
 1930 0144 01       		.byte	0x1
 1931 0145 1901     		.2byte	0x119
 1932 0147 6B000000 		.4byte	0x6b
 1933 014b 00000000 		.4byte	.LFB4
 1934 014f 10000000 		.4byte	.LFE4-.LFB4
 1935 0153 01       		.uleb128 0x1
 1936 0154 9C       		.byte	0x9c
 1937 0155 0B       		.uleb128 0xb
 1938 0156 D3030000 		.4byte	.LASF24
 1939 015a 01       		.byte	0x1
 1940 015b 3101     		.2byte	0x131
 1941 015d 00000000 		.4byte	.LFB5
 1942 0161 14000000 		.4byte	.LFE5-.LFB5
 1943 0165 01       		.uleb128 0x1
 1944 0166 9C       		.byte	0x9c
 1945 0167 7B010000 		.4byte	0x17b
 1946 016b 0C       		.uleb128 0xc
 1947 016c 63010000 		.4byte	.LASF28
 1948 0170 01       		.byte	0x1
 1949 0171 3101     		.2byte	0x131
 1950 0173 6B000000 		.4byte	0x6b
 1951 0177 02       		.uleb128 0x2
 1952 0178 91       		.byte	0x91
 1953 0179 77       		.sleb128 -9
 1954 017a 00       		.byte	0
 1955 017b 0D       		.uleb128 0xd
 1956 017c 6B050000 		.4byte	.LASF25
 1957 0180 01       		.byte	0x1
 1958 0181 5001     		.2byte	0x150
 1959 0183 00000000 		.4byte	.LFB6
 1960 0187 18000000 		.4byte	.LFE6-.LFB6
 1961 018b 01       		.uleb128 0x1
 1962 018c 9C       		.byte	0x9c
 1963 018d 0D       		.uleb128 0xd
 1964 018e 07020000 		.4byte	.LASF26
ARM GAS  C:\Users\PROYEC~1\AppData\Local\Temp\ccggXJIG.s 			page 64


 1965 0192 01       		.byte	0x1
 1966 0193 6701     		.2byte	0x167
 1967 0195 00000000 		.4byte	.LFB7
 1968 0199 18000000 		.4byte	.LFE7-.LFB7
 1969 019d 01       		.uleb128 0x1
 1970 019e 9C       		.byte	0x9c
 1971 019f 0B       		.uleb128 0xb
 1972 01a0 A2010000 		.4byte	.LASF27
 1973 01a4 01       		.byte	0x1
 1974 01a5 8101     		.2byte	0x181
 1975 01a7 00000000 		.4byte	.LFB8
 1976 01ab 20000000 		.4byte	.LFE8-.LFB8
 1977 01af 01       		.uleb128 0x1
 1978 01b0 9C       		.byte	0x9c
 1979 01b1 C5010000 		.4byte	0x1c5
 1980 01b5 0C       		.uleb128 0xc
 1981 01b6 3A020000 		.4byte	.LASF29
 1982 01ba 01       		.byte	0x1
 1983 01bb 8101     		.2byte	0x181
 1984 01bd 6B000000 		.4byte	0x6b
 1985 01c1 02       		.uleb128 0x2
 1986 01c2 91       		.byte	0x91
 1987 01c3 77       		.sleb128 -9
 1988 01c4 00       		.byte	0
 1989 01c5 0E       		.uleb128 0xe
 1990 01c6 07010000 		.4byte	.LASF33
 1991 01ca 01       		.byte	0x1
 1992 01cb A201     		.2byte	0x1a2
 1993 01cd 6B000000 		.4byte	0x6b
 1994 01d1 00000000 		.4byte	.LFB9
 1995 01d5 84000000 		.4byte	.LFE9-.LFB9
 1996 01d9 01       		.uleb128 0x1
 1997 01da 9C       		.byte	0x9c
 1998 01db 0D020000 		.4byte	0x20d
 1999 01df 0F       		.uleb128 0xf
 2000 01e0 18040000 		.4byte	.LASF30
 2001 01e4 01       		.byte	0x1
 2002 01e5 A401     		.2byte	0x1a4
 2003 01e7 6B000000 		.4byte	0x6b
 2004 01eb 02       		.uleb128 0x2
 2005 01ec 91       		.byte	0x91
 2006 01ed 77       		.sleb128 -9
 2007 01ee 0F       		.uleb128 0xf
 2008 01ef 1F020000 		.4byte	.LASF31
 2009 01f3 01       		.byte	0x1
 2010 01f4 A701     		.2byte	0x1a7
 2011 01f6 6B000000 		.4byte	0x6b
 2012 01fa 02       		.uleb128 0x2
 2013 01fb 91       		.byte	0x91
 2014 01fc 76       		.sleb128 -10
 2015 01fd 0F       		.uleb128 0xf
 2016 01fe 07000000 		.4byte	.LASF32
 2017 0202 01       		.byte	0x1
 2018 0203 A801     		.2byte	0x1a8
 2019 0205 6B000000 		.4byte	0x6b
 2020 0209 02       		.uleb128 0x2
 2021 020a 91       		.byte	0x91
ARM GAS  C:\Users\PROYEC~1\AppData\Local\Temp\ccggXJIG.s 			page 65


 2022 020b 75       		.sleb128 -11
 2023 020c 00       		.byte	0
 2024 020d 10       		.uleb128 0x10
 2025 020e 4B010000 		.4byte	.LASF34
 2026 0212 01       		.byte	0x1
 2027 0213 FD01     		.2byte	0x1fd
 2028 0215 6B000000 		.4byte	0x6b
 2029 0219 00000000 		.4byte	.LFB10
 2030 021d 40000000 		.4byte	.LFE10-.LFB10
 2031 0221 01       		.uleb128 0x1
 2032 0222 9C       		.byte	0x9c
 2033 0223 37020000 		.4byte	0x237
 2034 0227 0F       		.uleb128 0xf
 2035 0228 FD040000 		.4byte	.LASF35
 2036 022c 01       		.byte	0x1
 2037 022d FF01     		.2byte	0x1ff
 2038 022f 6B000000 		.4byte	0x6b
 2039 0233 02       		.uleb128 0x2
 2040 0234 91       		.byte	0x91
 2041 0235 77       		.sleb128 -9
 2042 0236 00       		.byte	0
 2043 0237 0E       		.uleb128 0xe
 2044 0238 51000000 		.4byte	.LASF36
 2045 023c 01       		.byte	0x1
 2046 023d 2C02     		.2byte	0x22c
 2047 023f 6B000000 		.4byte	0x6b
 2048 0243 00000000 		.4byte	.LFB11
 2049 0247 A8000000 		.4byte	.LFE11-.LFB11
 2050 024b 01       		.uleb128 0x1
 2051 024c 9C       		.byte	0x9c
 2052 024d 8E020000 		.4byte	0x28e
 2053 0251 0F       		.uleb128 0xf
 2054 0252 18040000 		.4byte	.LASF30
 2055 0256 01       		.byte	0x1
 2056 0257 2E02     		.2byte	0x22e
 2057 0259 6B000000 		.4byte	0x6b
 2058 025d 02       		.uleb128 0x2
 2059 025e 91       		.byte	0x91
 2060 025f 77       		.sleb128 -9
 2061 0260 0F       		.uleb128 0xf
 2062 0261 73030000 		.4byte	.LASF37
 2063 0265 01       		.byte	0x1
 2064 0266 2F02     		.2byte	0x22f
 2065 0268 6B000000 		.4byte	0x6b
 2066 026c 02       		.uleb128 0x2
 2067 026d 91       		.byte	0x91
 2068 026e 74       		.sleb128 -12
 2069 026f 0F       		.uleb128 0xf
 2070 0270 1F020000 		.4byte	.LASF31
 2071 0274 01       		.byte	0x1
 2072 0275 3202     		.2byte	0x232
 2073 0277 6B000000 		.4byte	0x6b
 2074 027b 02       		.uleb128 0x2
 2075 027c 91       		.byte	0x91
 2076 027d 76       		.sleb128 -10
 2077 027e 0F       		.uleb128 0xf
 2078 027f 07000000 		.4byte	.LASF32
ARM GAS  C:\Users\PROYEC~1\AppData\Local\Temp\ccggXJIG.s 			page 66


 2079 0283 01       		.byte	0x1
 2080 0284 3302     		.2byte	0x233
 2081 0286 6B000000 		.4byte	0x6b
 2082 028a 02       		.uleb128 0x2
 2083 028b 91       		.byte	0x91
 2084 028c 75       		.sleb128 -11
 2085 028d 00       		.byte	0
 2086 028e 11       		.uleb128 0x11
 2087 028f A0050000 		.4byte	.LASF39
 2088 0293 01       		.byte	0x1
 2089 0294 9202     		.2byte	0x292
 2090 0296 76000000 		.4byte	0x76
 2091 029a 00000000 		.4byte	.LFB12
 2092 029e 22000000 		.4byte	.LFE12-.LFB12
 2093 02a2 01       		.uleb128 0x1
 2094 02a3 9C       		.byte	0x9c
 2095 02a4 0E       		.uleb128 0xe
 2096 02a5 FD030000 		.4byte	.LASF40
 2097 02a9 01       		.byte	0x1
 2098 02aa B302     		.2byte	0x2b3
 2099 02ac 6B000000 		.4byte	0x6b
 2100 02b0 00000000 		.4byte	.LFB13
 2101 02b4 80000000 		.4byte	.LFE13-.LFB13
 2102 02b8 01       		.uleb128 0x1
 2103 02b9 9C       		.byte	0x9c
 2104 02ba CE020000 		.4byte	0x2ce
 2105 02be 0F       		.uleb128 0xf
 2106 02bf C0010000 		.4byte	.LASF41
 2107 02c3 01       		.byte	0x1
 2108 02c4 B602     		.2byte	0x2b6
 2109 02c6 6B000000 		.4byte	0x6b
 2110 02ca 02       		.uleb128 0x2
 2111 02cb 91       		.byte	0x91
 2112 02cc 77       		.sleb128 -9
 2113 02cd 00       		.byte	0
 2114 02ce 12       		.uleb128 0x12
 2115 02cf CC020000 		.4byte	.LASF42
 2116 02d3 01       		.byte	0x1
 2117 02d4 0303     		.2byte	0x303
 2118 02d6 00000000 		.4byte	.LFB14
 2119 02da 70000000 		.4byte	.LFE14-.LFB14
 2120 02de 01       		.uleb128 0x1
 2121 02df 9C       		.byte	0x9c
 2122 02e0 F4020000 		.4byte	0x2f4
 2123 02e4 0F       		.uleb128 0xf
 2124 02e5 D9040000 		.4byte	.LASF23
 2125 02e9 01       		.byte	0x1
 2126 02ea 0503     		.2byte	0x305
 2127 02ec 6B000000 		.4byte	0x6b
 2128 02f0 02       		.uleb128 0x2
 2129 02f1 91       		.byte	0x91
 2130 02f2 77       		.sleb128 -9
 2131 02f3 00       		.byte	0
 2132 02f4 0B       		.uleb128 0xb
 2133 02f5 7B000000 		.4byte	.LASF43
 2134 02f9 01       		.byte	0x1
 2135 02fa 4003     		.2byte	0x340
ARM GAS  C:\Users\PROYEC~1\AppData\Local\Temp\ccggXJIG.s 			page 67


 2136 02fc 00000000 		.4byte	.LFB15
 2137 0300 14000000 		.4byte	.LFE15-.LFB15
 2138 0304 01       		.uleb128 0x1
 2139 0305 9C       		.byte	0x9c
 2140 0306 1A030000 		.4byte	0x31a
 2141 030a 0C       		.uleb128 0xc
 2142 030b 24010000 		.4byte	.LASF44
 2143 030f 01       		.byte	0x1
 2144 0310 4003     		.2byte	0x340
 2145 0312 6B000000 		.4byte	0x6b
 2146 0316 02       		.uleb128 0x2
 2147 0317 91       		.byte	0x91
 2148 0318 77       		.sleb128 -9
 2149 0319 00       		.byte	0
 2150 031a 0B       		.uleb128 0xb
 2151 031b 97000000 		.4byte	.LASF45
 2152 031f 01       		.byte	0x1
 2153 0320 6503     		.2byte	0x365
 2154 0322 00000000 		.4byte	.LFB16
 2155 0326 20000000 		.4byte	.LFE16-.LFB16
 2156 032a 01       		.uleb128 0x1
 2157 032b 9C       		.byte	0x9c
 2158 032c 40030000 		.4byte	0x340
 2159 0330 0C       		.uleb128 0xc
 2160 0331 B1020000 		.4byte	.LASF46
 2161 0335 01       		.byte	0x1
 2162 0336 6503     		.2byte	0x365
 2163 0338 6B000000 		.4byte	0x6b
 2164 033c 02       		.uleb128 0x2
 2165 033d 91       		.byte	0x91
 2166 033e 77       		.sleb128 -9
 2167 033f 00       		.byte	0
 2168 0340 0B       		.uleb128 0xb
 2169 0341 B0000000 		.4byte	.LASF47
 2170 0345 01       		.byte	0x1
 2171 0346 7A03     		.2byte	0x37a
 2172 0348 00000000 		.4byte	.LFB17
 2173 034c 20000000 		.4byte	.LFE17-.LFB17
 2174 0350 01       		.uleb128 0x1
 2175 0351 9C       		.byte	0x9c
 2176 0352 66030000 		.4byte	0x366
 2177 0356 0C       		.uleb128 0xc
 2178 0357 B1020000 		.4byte	.LASF46
 2179 035b 01       		.byte	0x1
 2180 035c 7A03     		.2byte	0x37a
 2181 035e 6B000000 		.4byte	0x6b
 2182 0362 02       		.uleb128 0x2
 2183 0363 91       		.byte	0x91
 2184 0364 77       		.sleb128 -9
 2185 0365 00       		.byte	0
 2186 0366 0B       		.uleb128 0xb
 2187 0367 D8010000 		.4byte	.LASF48
 2188 036b 01       		.byte	0x1
 2189 036c C803     		.2byte	0x3c8
 2190 036e 00000000 		.4byte	.LFB18
 2191 0372 20000000 		.4byte	.LFE18-.LFB18
 2192 0376 01       		.uleb128 0x1
ARM GAS  C:\Users\PROYEC~1\AppData\Local\Temp\ccggXJIG.s 			page 68


 2193 0377 9C       		.byte	0x9c
 2194 0378 8C030000 		.4byte	0x38c
 2195 037c 0C       		.uleb128 0xc
 2196 037d 3A020000 		.4byte	.LASF29
 2197 0381 01       		.byte	0x1
 2198 0382 C803     		.2byte	0x3c8
 2199 0384 6B000000 		.4byte	0x6b
 2200 0388 02       		.uleb128 0x2
 2201 0389 91       		.byte	0x91
 2202 038a 77       		.sleb128 -9
 2203 038b 00       		.byte	0
 2204 038c 0B       		.uleb128 0xb
 2205 038d 7F020000 		.4byte	.LASF49
 2206 0391 01       		.byte	0x1
 2207 0392 EA03     		.2byte	0x3ea
 2208 0394 00000000 		.4byte	.LFB19
 2209 0398 2C000000 		.4byte	.LFE19-.LFB19
 2210 039c 01       		.uleb128 0x1
 2211 039d 9C       		.byte	0x9c
 2212 039e B2030000 		.4byte	0x3b2
 2213 03a2 0C       		.uleb128 0xc
 2214 03a3 19000000 		.4byte	.LASF50
 2215 03a7 01       		.byte	0x1
 2216 03a8 EA03     		.2byte	0x3ea
 2217 03aa 6B000000 		.4byte	0x6b
 2218 03ae 02       		.uleb128 0x2
 2219 03af 91       		.byte	0x91
 2220 03b0 77       		.sleb128 -9
 2221 03b1 00       		.byte	0
 2222 03b2 0A       		.uleb128 0xa
 2223 03b3 B1030000 		.4byte	.LASF51
 2224 03b7 01       		.byte	0x1
 2225 03b8 2E04     		.2byte	0x42e
 2226 03ba 6B000000 		.4byte	0x6b
 2227 03be 00000000 		.4byte	.LFB20
 2228 03c2 18000000 		.4byte	.LFE20-.LFB20
 2229 03c6 01       		.uleb128 0x1
 2230 03c7 9C       		.byte	0x9c
 2231 03c8 0B       		.uleb128 0xb
 2232 03c9 EA040000 		.4byte	.LASF52
 2233 03cd 01       		.byte	0x1
 2234 03ce 5204     		.2byte	0x452
 2235 03d0 00000000 		.4byte	.LFB21
 2236 03d4 34000000 		.4byte	.LFE21-.LFB21
 2237 03d8 01       		.uleb128 0x1
 2238 03d9 9C       		.byte	0x9c
 2239 03da EE030000 		.4byte	0x3ee
 2240 03de 0C       		.uleb128 0xc
 2241 03df 19000000 		.4byte	.LASF50
 2242 03e3 01       		.byte	0x1
 2243 03e4 5204     		.2byte	0x452
 2244 03e6 6B000000 		.4byte	0x6b
 2245 03ea 02       		.uleb128 0x2
 2246 03eb 91       		.byte	0x91
 2247 03ec 77       		.sleb128 -9
 2248 03ed 00       		.byte	0
 2249 03ee 12       		.uleb128 0x12
ARM GAS  C:\Users\PROYEC~1\AppData\Local\Temp\ccggXJIG.s 			page 69


 2250 03ef 5C020000 		.4byte	.LASF53
 2251 03f3 01       		.byte	0x1
 2252 03f4 AE04     		.2byte	0x4ae
 2253 03f6 00000000 		.4byte	.LFB22
 2254 03fa 40000000 		.4byte	.LFE22-.LFB22
 2255 03fe 01       		.uleb128 0x1
 2256 03ff 9C       		.byte	0x9c
 2257 0400 23040000 		.4byte	0x423
 2258 0404 0C       		.uleb128 0xc
 2259 0405 4A000000 		.4byte	.LASF54
 2260 0409 01       		.byte	0x1
 2261 040a AE04     		.2byte	0x4ae
 2262 040c 23040000 		.4byte	0x423
 2263 0410 02       		.uleb128 0x2
 2264 0411 91       		.byte	0x91
 2265 0412 6C       		.sleb128 -20
 2266 0413 0F       		.uleb128 0xf
 2267 0414 61050000 		.4byte	.LASF55
 2268 0418 01       		.byte	0x1
 2269 0419 B004     		.2byte	0x4b0
 2270 041b 76000000 		.4byte	0x76
 2271 041f 02       		.uleb128 0x2
 2272 0420 91       		.byte	0x91
 2273 0421 76       		.sleb128 -10
 2274 0422 00       		.byte	0
 2275 0423 13       		.uleb128 0x13
 2276 0424 04       		.byte	0x4
 2277 0425 29040000 		.4byte	0x429
 2278 0429 14       		.uleb128 0x14
 2279 042a 9A000000 		.4byte	0x9a
 2280 042e 12       		.uleb128 0x12
 2281 042f 30010000 		.4byte	.LASF56
 2282 0433 01       		.byte	0x1
 2283 0434 D404     		.2byte	0x4d4
 2284 0436 00000000 		.4byte	.LFB23
 2285 043a 40000000 		.4byte	.LFE23-.LFB23
 2286 043e 01       		.uleb128 0x1
 2287 043f 9C       		.byte	0x9c
 2288 0440 72040000 		.4byte	0x472
 2289 0444 0C       		.uleb128 0xc
 2290 0445 4A000000 		.4byte	.LASF54
 2291 0449 01       		.byte	0x1
 2292 044a D404     		.2byte	0x4d4
 2293 044c 72040000 		.4byte	0x472
 2294 0450 02       		.uleb128 0x2
 2295 0451 91       		.byte	0x91
 2296 0452 6C       		.sleb128 -20
 2297 0453 0C       		.uleb128 0xc
 2298 0454 F3030000 		.4byte	.LASF57
 2299 0458 01       		.byte	0x1
 2300 0459 D404     		.2byte	0x4d4
 2301 045b 6B000000 		.4byte	0x6b
 2302 045f 02       		.uleb128 0x2
 2303 0460 91       		.byte	0x91
 2304 0461 6B       		.sleb128 -21
 2305 0462 0F       		.uleb128 0xf
 2306 0463 61050000 		.4byte	.LASF55
ARM GAS  C:\Users\PROYEC~1\AppData\Local\Temp\ccggXJIG.s 			page 70


 2307 0467 01       		.byte	0x1
 2308 0468 D704     		.2byte	0x4d7
 2309 046a 6B000000 		.4byte	0x6b
 2310 046e 02       		.uleb128 0x2
 2311 046f 91       		.byte	0x91
 2312 0470 77       		.sleb128 -9
 2313 0471 00       		.byte	0
 2314 0472 13       		.uleb128 0x13
 2315 0473 04       		.byte	0x4
 2316 0474 78040000 		.4byte	0x478
 2317 0478 14       		.uleb128 0x14
 2318 0479 6B000000 		.4byte	0x6b
 2319 047d 12       		.uleb128 0x12
 2320 047e B3050000 		.4byte	.LASF58
 2321 0482 01       		.byte	0x1
 2322 0483 F904     		.2byte	0x4f9
 2323 0485 00000000 		.4byte	.LFB24
 2324 0489 30000000 		.4byte	.LFE24-.LFB24
 2325 048d 01       		.uleb128 0x1
 2326 048e 9C       		.byte	0x9c
 2327 048f A3040000 		.4byte	0x4a3
 2328 0493 0C       		.uleb128 0xc
 2329 0494 19000000 		.4byte	.LASF50
 2330 0498 01       		.byte	0x1
 2331 0499 F904     		.2byte	0x4f9
 2332 049b 6B000000 		.4byte	0x6b
 2333 049f 02       		.uleb128 0x2
 2334 04a0 91       		.byte	0x91
 2335 04a1 77       		.sleb128 -9
 2336 04a2 00       		.byte	0
 2337 04a3 10       		.uleb128 0x10
 2338 04a4 41020000 		.4byte	.LASF59
 2339 04a8 01       		.byte	0x1
 2340 04a9 1E05     		.2byte	0x51e
 2341 04ab 6B000000 		.4byte	0x6b
 2342 04af 00000000 		.4byte	.LFB25
 2343 04b3 44000000 		.4byte	.LFE25-.LFB25
 2344 04b7 01       		.uleb128 0x1
 2345 04b8 9C       		.byte	0x9c
 2346 04b9 CD040000 		.4byte	0x4cd
 2347 04bd 0F       		.uleb128 0xf
 2348 04be C0010000 		.4byte	.LASF41
 2349 04c2 01       		.byte	0x1
 2350 04c3 2105     		.2byte	0x521
 2351 04c5 6B000000 		.4byte	0x6b
 2352 04c9 02       		.uleb128 0x2
 2353 04ca 91       		.byte	0x91
 2354 04cb 77       		.sleb128 -9
 2355 04cc 00       		.byte	0
 2356 04cd 12       		.uleb128 0x12
 2357 04ce 48050000 		.4byte	.LASF60
 2358 04d2 01       		.byte	0x1
 2359 04d3 7405     		.2byte	0x574
 2360 04d5 00000000 		.4byte	.LFB26
 2361 04d9 40000000 		.4byte	.LFE26-.LFB26
 2362 04dd 01       		.uleb128 0x1
 2363 04de 9C       		.byte	0x9c
ARM GAS  C:\Users\PROYEC~1\AppData\Local\Temp\ccggXJIG.s 			page 71


 2364 04df F3040000 		.4byte	0x4f3
 2365 04e3 0F       		.uleb128 0xf
 2366 04e4 D9040000 		.4byte	.LASF23
 2367 04e8 01       		.byte	0x1
 2368 04e9 7605     		.2byte	0x576
 2369 04eb 6B000000 		.4byte	0x6b
 2370 04ef 02       		.uleb128 0x2
 2371 04f0 91       		.byte	0x91
 2372 04f1 77       		.sleb128 -9
 2373 04f2 00       		.byte	0
 2374 04f3 0B       		.uleb128 0xb
 2375 04f4 F2000000 		.4byte	.LASF61
 2376 04f8 01       		.byte	0x1
 2377 04f9 CD05     		.2byte	0x5cd
 2378 04fb 00000000 		.4byte	.LFB27
 2379 04ff 9C000000 		.4byte	.LFE27-.LFB27
 2380 0503 01       		.uleb128 0x1
 2381 0504 9C       		.byte	0x9c
 2382 0505 44050000 		.4byte	0x544
 2383 0509 0C       		.uleb128 0xc
 2384 050a 7B010000 		.4byte	.LASF62
 2385 050e 01       		.byte	0x1
 2386 050f CD05     		.2byte	0x5cd
 2387 0511 6B000000 		.4byte	0x6b
 2388 0515 02       		.uleb128 0x2
 2389 0516 91       		.byte	0x91
 2390 0517 6F       		.sleb128 -17
 2391 0518 15       		.uleb128 0x15
 2392 0519 12000000 		.4byte	.LBB2
 2393 051d 6C000000 		.4byte	.LBE2-.LBB2
 2394 0521 0F       		.uleb128 0xf
 2395 0522 77020000 		.4byte	.LASF63
 2396 0526 01       		.byte	0x1
 2397 0527 D505     		.2byte	0x5d5
 2398 0529 6B000000 		.4byte	0x6b
 2399 052d 02       		.uleb128 0x2
 2400 052e 91       		.byte	0x91
 2401 052f 77       		.sleb128 -9
 2402 0530 0F       		.uleb128 0xf
 2403 0531 30020000 		.4byte	.LASF64
 2404 0535 01       		.byte	0x1
 2405 0536 FB05     		.2byte	0x5fb
 2406 0538 6B000000 		.4byte	0x6b
 2407 053c 05       		.uleb128 0x5
 2408 053d 03       		.byte	0x3
 2409 053e 05000000 		.4byte	tx_period.5012
 2410 0542 00       		.byte	0
 2411 0543 00       		.byte	0
 2412 0544 0B       		.uleb128 0xb
 2413 0545 14050000 		.4byte	.LASF65
 2414 0549 01       		.byte	0x1
 2415 054a 4606     		.2byte	0x646
 2416 054c 00000000 		.4byte	.LFB28
 2417 0550 14000000 		.4byte	.LFE28-.LFB28
 2418 0554 01       		.uleb128 0x1
 2419 0555 9C       		.byte	0x9c
 2420 0556 6A050000 		.4byte	0x56a
ARM GAS  C:\Users\PROYEC~1\AppData\Local\Temp\ccggXJIG.s 			page 72


 2421 055a 0C       		.uleb128 0xc
 2422 055b 24010000 		.4byte	.LASF44
 2423 055f 01       		.byte	0x1
 2424 0560 4606     		.2byte	0x646
 2425 0562 6B000000 		.4byte	0x6b
 2426 0566 02       		.uleb128 0x2
 2427 0567 91       		.byte	0x91
 2428 0568 77       		.sleb128 -9
 2429 0569 00       		.byte	0
 2430 056a 16       		.uleb128 0x16
 2431 056b B9020000 		.4byte	.LASF66
 2432 056f 01       		.byte	0x1
 2433 0570 1C       		.byte	0x1c
 2434 0571 6B000000 		.4byte	0x6b
 2435 0575 05       		.uleb128 0x5
 2436 0576 03       		.byte	0x3
 2437 0577 00000000 		.4byte	Print_Bill_initVar
 2438 057b 17       		.uleb128 0x17
 2439 057c 6B000000 		.4byte	0x6b
 2440 0580 8B050000 		.4byte	0x58b
 2441 0584 18       		.uleb128 0x18
 2442 0585 CE000000 		.4byte	0xce
 2443 0589 13       		.byte	0x13
 2444 058a 00       		.byte	0
 2445 058b 16       		.uleb128 0x16
 2446 058c 87040000 		.4byte	.LASF67
 2447 0590 01       		.byte	0x1
 2448 0591 24       		.byte	0x24
 2449 0592 9C050000 		.4byte	0x59c
 2450 0596 05       		.uleb128 0x5
 2451 0597 03       		.byte	0x3
 2452 0598 00000000 		.4byte	Print_Bill_rxBuffer
 2453 059c 06       		.uleb128 0x6
 2454 059d 7B050000 		.4byte	0x57b
 2455 05a1 16       		.uleb128 0x16
 2456 05a2 30050000 		.4byte	.LASF68
 2457 05a6 01       		.byte	0x1
 2458 05a7 25       		.byte	0x25
 2459 05a8 B8000000 		.4byte	0xb8
 2460 05ac 05       		.uleb128 0x5
 2461 05ad 03       		.byte	0x3
 2462 05ae 00000000 		.4byte	Print_Bill_rxBufferRead
 2463 05b2 16       		.uleb128 0x16
 2464 05b3 C0040000 		.4byte	.LASF69
 2465 05b7 01       		.byte	0x1
 2466 05b8 26       		.byte	0x26
 2467 05b9 B8000000 		.4byte	0xb8
 2468 05bd 05       		.uleb128 0x5
 2469 05be 03       		.byte	0x3
 2470 05bf 00000000 		.4byte	Print_Bill_rxBufferWrite
 2471 05c3 16       		.uleb128 0x16
 2472 05c4 82050000 		.4byte	.LASF70
 2473 05c8 01       		.byte	0x1
 2474 05c9 27       		.byte	0x27
 2475 05ca B8000000 		.4byte	0xb8
 2476 05ce 05       		.uleb128 0x5
 2477 05cf 03       		.byte	0x3
ARM GAS  C:\Users\PROYEC~1\AppData\Local\Temp\ccggXJIG.s 			page 73


 2478 05d0 00000000 		.4byte	Print_Bill_rxBufferLoopDetect
 2479 05d4 16       		.uleb128 0x16
 2480 05d5 82030000 		.4byte	.LASF71
 2481 05d9 01       		.byte	0x1
 2482 05da 28       		.byte	0x28
 2483 05db B8000000 		.4byte	0xb8
 2484 05df 05       		.uleb128 0x5
 2485 05e0 03       		.byte	0x3
 2486 05e1 00000000 		.4byte	Print_Bill_rxBufferOverflow
 2487 05e5 00       		.byte	0
 2488              		.section	.debug_abbrev,"",%progbits
 2489              	.Ldebug_abbrev0:
 2490 0000 01       		.uleb128 0x1
 2491 0001 11       		.uleb128 0x11
 2492 0002 01       		.byte	0x1
 2493 0003 25       		.uleb128 0x25
 2494 0004 0E       		.uleb128 0xe
 2495 0005 13       		.uleb128 0x13
 2496 0006 0B       		.uleb128 0xb
 2497 0007 03       		.uleb128 0x3
 2498 0008 0E       		.uleb128 0xe
 2499 0009 1B       		.uleb128 0x1b
 2500 000a 0E       		.uleb128 0xe
 2501 000b 55       		.uleb128 0x55
 2502 000c 17       		.uleb128 0x17
 2503 000d 11       		.uleb128 0x11
 2504 000e 01       		.uleb128 0x1
 2505 000f 10       		.uleb128 0x10
 2506 0010 17       		.uleb128 0x17
 2507 0011 00       		.byte	0
 2508 0012 00       		.byte	0
 2509 0013 02       		.uleb128 0x2
 2510 0014 24       		.uleb128 0x24
 2511 0015 00       		.byte	0
 2512 0016 0B       		.uleb128 0xb
 2513 0017 0B       		.uleb128 0xb
 2514 0018 3E       		.uleb128 0x3e
 2515 0019 0B       		.uleb128 0xb
 2516 001a 03       		.uleb128 0x3
 2517 001b 0E       		.uleb128 0xe
 2518 001c 00       		.byte	0
 2519 001d 00       		.byte	0
 2520 001e 03       		.uleb128 0x3
 2521 001f 24       		.uleb128 0x24
 2522 0020 00       		.byte	0
 2523 0021 0B       		.uleb128 0xb
 2524 0022 0B       		.uleb128 0xb
 2525 0023 3E       		.uleb128 0x3e
 2526 0024 0B       		.uleb128 0xb
 2527 0025 03       		.uleb128 0x3
 2528 0026 08       		.uleb128 0x8
 2529 0027 00       		.byte	0
 2530 0028 00       		.byte	0
 2531 0029 04       		.uleb128 0x4
 2532 002a 16       		.uleb128 0x16
 2533 002b 00       		.byte	0
 2534 002c 03       		.uleb128 0x3
ARM GAS  C:\Users\PROYEC~1\AppData\Local\Temp\ccggXJIG.s 			page 74


 2535 002d 0E       		.uleb128 0xe
 2536 002e 3A       		.uleb128 0x3a
 2537 002f 0B       		.uleb128 0xb
 2538 0030 3B       		.uleb128 0x3b
 2539 0031 0B       		.uleb128 0xb
 2540 0032 49       		.uleb128 0x49
 2541 0033 13       		.uleb128 0x13
 2542 0034 00       		.byte	0
 2543 0035 00       		.byte	0
 2544 0036 05       		.uleb128 0x5
 2545 0037 16       		.uleb128 0x16
 2546 0038 00       		.byte	0
 2547 0039 03       		.uleb128 0x3
 2548 003a 0E       		.uleb128 0xe
 2549 003b 3A       		.uleb128 0x3a
 2550 003c 0B       		.uleb128 0xb
 2551 003d 3B       		.uleb128 0x3b
 2552 003e 05       		.uleb128 0x5
 2553 003f 49       		.uleb128 0x49
 2554 0040 13       		.uleb128 0x13
 2555 0041 00       		.byte	0
 2556 0042 00       		.byte	0
 2557 0043 06       		.uleb128 0x6
 2558 0044 35       		.uleb128 0x35
 2559 0045 00       		.byte	0
 2560 0046 49       		.uleb128 0x49
 2561 0047 13       		.uleb128 0x13
 2562 0048 00       		.byte	0
 2563 0049 00       		.byte	0
 2564 004a 07       		.uleb128 0x7
 2565 004b 2E       		.uleb128 0x2e
 2566 004c 00       		.byte	0
 2567 004d 3F       		.uleb128 0x3f
 2568 004e 19       		.uleb128 0x19
 2569 004f 03       		.uleb128 0x3
 2570 0050 0E       		.uleb128 0xe
 2571 0051 3A       		.uleb128 0x3a
 2572 0052 0B       		.uleb128 0xb
 2573 0053 3B       		.uleb128 0x3b
 2574 0054 0B       		.uleb128 0xb
 2575 0055 27       		.uleb128 0x27
 2576 0056 19       		.uleb128 0x19
 2577 0057 11       		.uleb128 0x11
 2578 0058 01       		.uleb128 0x1
 2579 0059 12       		.uleb128 0x12
 2580 005a 06       		.uleb128 0x6
 2581 005b 40       		.uleb128 0x40
 2582 005c 18       		.uleb128 0x18
 2583 005d 9642     		.uleb128 0x2116
 2584 005f 19       		.uleb128 0x19
 2585 0060 00       		.byte	0
 2586 0061 00       		.byte	0
 2587 0062 08       		.uleb128 0x8
 2588 0063 2E       		.uleb128 0x2e
 2589 0064 01       		.byte	0x1
 2590 0065 3F       		.uleb128 0x3f
 2591 0066 19       		.uleb128 0x19
ARM GAS  C:\Users\PROYEC~1\AppData\Local\Temp\ccggXJIG.s 			page 75


 2592 0067 03       		.uleb128 0x3
 2593 0068 0E       		.uleb128 0xe
 2594 0069 3A       		.uleb128 0x3a
 2595 006a 0B       		.uleb128 0xb
 2596 006b 3B       		.uleb128 0x3b
 2597 006c 0B       		.uleb128 0xb
 2598 006d 27       		.uleb128 0x27
 2599 006e 19       		.uleb128 0x19
 2600 006f 11       		.uleb128 0x11
 2601 0070 01       		.uleb128 0x1
 2602 0071 12       		.uleb128 0x12
 2603 0072 06       		.uleb128 0x6
 2604 0073 40       		.uleb128 0x40
 2605 0074 18       		.uleb128 0x18
 2606 0075 9642     		.uleb128 0x2116
 2607 0077 19       		.uleb128 0x19
 2608 0078 01       		.uleb128 0x1
 2609 0079 13       		.uleb128 0x13
 2610 007a 00       		.byte	0
 2611 007b 00       		.byte	0
 2612 007c 09       		.uleb128 0x9
 2613 007d 34       		.uleb128 0x34
 2614 007e 00       		.byte	0
 2615 007f 03       		.uleb128 0x3
 2616 0080 0E       		.uleb128 0xe
 2617 0081 3A       		.uleb128 0x3a
 2618 0082 0B       		.uleb128 0xb
 2619 0083 3B       		.uleb128 0x3b
 2620 0084 0B       		.uleb128 0xb
 2621 0085 49       		.uleb128 0x49
 2622 0086 13       		.uleb128 0x13
 2623 0087 02       		.uleb128 0x2
 2624 0088 18       		.uleb128 0x18
 2625 0089 00       		.byte	0
 2626 008a 00       		.byte	0
 2627 008b 0A       		.uleb128 0xa
 2628 008c 2E       		.uleb128 0x2e
 2629 008d 00       		.byte	0
 2630 008e 3F       		.uleb128 0x3f
 2631 008f 19       		.uleb128 0x19
 2632 0090 03       		.uleb128 0x3
 2633 0091 0E       		.uleb128 0xe
 2634 0092 3A       		.uleb128 0x3a
 2635 0093 0B       		.uleb128 0xb
 2636 0094 3B       		.uleb128 0x3b
 2637 0095 05       		.uleb128 0x5
 2638 0096 27       		.uleb128 0x27
 2639 0097 19       		.uleb128 0x19
 2640 0098 49       		.uleb128 0x49
 2641 0099 13       		.uleb128 0x13
 2642 009a 11       		.uleb128 0x11
 2643 009b 01       		.uleb128 0x1
 2644 009c 12       		.uleb128 0x12
 2645 009d 06       		.uleb128 0x6
 2646 009e 40       		.uleb128 0x40
 2647 009f 18       		.uleb128 0x18
 2648 00a0 9742     		.uleb128 0x2117
ARM GAS  C:\Users\PROYEC~1\AppData\Local\Temp\ccggXJIG.s 			page 76


 2649 00a2 19       		.uleb128 0x19
 2650 00a3 00       		.byte	0
 2651 00a4 00       		.byte	0
 2652 00a5 0B       		.uleb128 0xb
 2653 00a6 2E       		.uleb128 0x2e
 2654 00a7 01       		.byte	0x1
 2655 00a8 3F       		.uleb128 0x3f
 2656 00a9 19       		.uleb128 0x19
 2657 00aa 03       		.uleb128 0x3
 2658 00ab 0E       		.uleb128 0xe
 2659 00ac 3A       		.uleb128 0x3a
 2660 00ad 0B       		.uleb128 0xb
 2661 00ae 3B       		.uleb128 0x3b
 2662 00af 05       		.uleb128 0x5
 2663 00b0 27       		.uleb128 0x27
 2664 00b1 19       		.uleb128 0x19
 2665 00b2 11       		.uleb128 0x11
 2666 00b3 01       		.uleb128 0x1
 2667 00b4 12       		.uleb128 0x12
 2668 00b5 06       		.uleb128 0x6
 2669 00b6 40       		.uleb128 0x40
 2670 00b7 18       		.uleb128 0x18
 2671 00b8 9742     		.uleb128 0x2117
 2672 00ba 19       		.uleb128 0x19
 2673 00bb 01       		.uleb128 0x1
 2674 00bc 13       		.uleb128 0x13
 2675 00bd 00       		.byte	0
 2676 00be 00       		.byte	0
 2677 00bf 0C       		.uleb128 0xc
 2678 00c0 05       		.uleb128 0x5
 2679 00c1 00       		.byte	0
 2680 00c2 03       		.uleb128 0x3
 2681 00c3 0E       		.uleb128 0xe
 2682 00c4 3A       		.uleb128 0x3a
 2683 00c5 0B       		.uleb128 0xb
 2684 00c6 3B       		.uleb128 0x3b
 2685 00c7 05       		.uleb128 0x5
 2686 00c8 49       		.uleb128 0x49
 2687 00c9 13       		.uleb128 0x13
 2688 00ca 02       		.uleb128 0x2
 2689 00cb 18       		.uleb128 0x18
 2690 00cc 00       		.byte	0
 2691 00cd 00       		.byte	0
 2692 00ce 0D       		.uleb128 0xd
 2693 00cf 2E       		.uleb128 0x2e
 2694 00d0 00       		.byte	0
 2695 00d1 3F       		.uleb128 0x3f
 2696 00d2 19       		.uleb128 0x19
 2697 00d3 03       		.uleb128 0x3
 2698 00d4 0E       		.uleb128 0xe
 2699 00d5 3A       		.uleb128 0x3a
 2700 00d6 0B       		.uleb128 0xb
 2701 00d7 3B       		.uleb128 0x3b
 2702 00d8 05       		.uleb128 0x5
 2703 00d9 27       		.uleb128 0x27
 2704 00da 19       		.uleb128 0x19
 2705 00db 11       		.uleb128 0x11
ARM GAS  C:\Users\PROYEC~1\AppData\Local\Temp\ccggXJIG.s 			page 77


 2706 00dc 01       		.uleb128 0x1
 2707 00dd 12       		.uleb128 0x12
 2708 00de 06       		.uleb128 0x6
 2709 00df 40       		.uleb128 0x40
 2710 00e0 18       		.uleb128 0x18
 2711 00e1 9742     		.uleb128 0x2117
 2712 00e3 19       		.uleb128 0x19
 2713 00e4 00       		.byte	0
 2714 00e5 00       		.byte	0
 2715 00e6 0E       		.uleb128 0xe
 2716 00e7 2E       		.uleb128 0x2e
 2717 00e8 01       		.byte	0x1
 2718 00e9 3F       		.uleb128 0x3f
 2719 00ea 19       		.uleb128 0x19
 2720 00eb 03       		.uleb128 0x3
 2721 00ec 0E       		.uleb128 0xe
 2722 00ed 3A       		.uleb128 0x3a
 2723 00ee 0B       		.uleb128 0xb
 2724 00ef 3B       		.uleb128 0x3b
 2725 00f0 05       		.uleb128 0x5
 2726 00f1 27       		.uleb128 0x27
 2727 00f2 19       		.uleb128 0x19
 2728 00f3 49       		.uleb128 0x49
 2729 00f4 13       		.uleb128 0x13
 2730 00f5 11       		.uleb128 0x11
 2731 00f6 01       		.uleb128 0x1
 2732 00f7 12       		.uleb128 0x12
 2733 00f8 06       		.uleb128 0x6
 2734 00f9 40       		.uleb128 0x40
 2735 00fa 18       		.uleb128 0x18
 2736 00fb 9642     		.uleb128 0x2116
 2737 00fd 19       		.uleb128 0x19
 2738 00fe 01       		.uleb128 0x1
 2739 00ff 13       		.uleb128 0x13
 2740 0100 00       		.byte	0
 2741 0101 00       		.byte	0
 2742 0102 0F       		.uleb128 0xf
 2743 0103 34       		.uleb128 0x34
 2744 0104 00       		.byte	0
 2745 0105 03       		.uleb128 0x3
 2746 0106 0E       		.uleb128 0xe
 2747 0107 3A       		.uleb128 0x3a
 2748 0108 0B       		.uleb128 0xb
 2749 0109 3B       		.uleb128 0x3b
 2750 010a 05       		.uleb128 0x5
 2751 010b 49       		.uleb128 0x49
 2752 010c 13       		.uleb128 0x13
 2753 010d 02       		.uleb128 0x2
 2754 010e 18       		.uleb128 0x18
 2755 010f 00       		.byte	0
 2756 0110 00       		.byte	0
 2757 0111 10       		.uleb128 0x10
 2758 0112 2E       		.uleb128 0x2e
 2759 0113 01       		.byte	0x1
 2760 0114 3F       		.uleb128 0x3f
 2761 0115 19       		.uleb128 0x19
 2762 0116 03       		.uleb128 0x3
ARM GAS  C:\Users\PROYEC~1\AppData\Local\Temp\ccggXJIG.s 			page 78


 2763 0117 0E       		.uleb128 0xe
 2764 0118 3A       		.uleb128 0x3a
 2765 0119 0B       		.uleb128 0xb
 2766 011a 3B       		.uleb128 0x3b
 2767 011b 05       		.uleb128 0x5
 2768 011c 27       		.uleb128 0x27
 2769 011d 19       		.uleb128 0x19
 2770 011e 49       		.uleb128 0x49
 2771 011f 13       		.uleb128 0x13
 2772 0120 11       		.uleb128 0x11
 2773 0121 01       		.uleb128 0x1
 2774 0122 12       		.uleb128 0x12
 2775 0123 06       		.uleb128 0x6
 2776 0124 40       		.uleb128 0x40
 2777 0125 18       		.uleb128 0x18
 2778 0126 9742     		.uleb128 0x2117
 2779 0128 19       		.uleb128 0x19
 2780 0129 01       		.uleb128 0x1
 2781 012a 13       		.uleb128 0x13
 2782 012b 00       		.byte	0
 2783 012c 00       		.byte	0
 2784 012d 11       		.uleb128 0x11
 2785 012e 2E       		.uleb128 0x2e
 2786 012f 00       		.byte	0
 2787 0130 3F       		.uleb128 0x3f
 2788 0131 19       		.uleb128 0x19
 2789 0132 03       		.uleb128 0x3
 2790 0133 0E       		.uleb128 0xe
 2791 0134 3A       		.uleb128 0x3a
 2792 0135 0B       		.uleb128 0xb
 2793 0136 3B       		.uleb128 0x3b
 2794 0137 05       		.uleb128 0x5
 2795 0138 27       		.uleb128 0x27
 2796 0139 19       		.uleb128 0x19
 2797 013a 49       		.uleb128 0x49
 2798 013b 13       		.uleb128 0x13
 2799 013c 11       		.uleb128 0x11
 2800 013d 01       		.uleb128 0x1
 2801 013e 12       		.uleb128 0x12
 2802 013f 06       		.uleb128 0x6
 2803 0140 40       		.uleb128 0x40
 2804 0141 18       		.uleb128 0x18
 2805 0142 9642     		.uleb128 0x2116
 2806 0144 19       		.uleb128 0x19
 2807 0145 00       		.byte	0
 2808 0146 00       		.byte	0
 2809 0147 12       		.uleb128 0x12
 2810 0148 2E       		.uleb128 0x2e
 2811 0149 01       		.byte	0x1
 2812 014a 3F       		.uleb128 0x3f
 2813 014b 19       		.uleb128 0x19
 2814 014c 03       		.uleb128 0x3
 2815 014d 0E       		.uleb128 0xe
 2816 014e 3A       		.uleb128 0x3a
 2817 014f 0B       		.uleb128 0xb
 2818 0150 3B       		.uleb128 0x3b
 2819 0151 05       		.uleb128 0x5
ARM GAS  C:\Users\PROYEC~1\AppData\Local\Temp\ccggXJIG.s 			page 79


 2820 0152 27       		.uleb128 0x27
 2821 0153 19       		.uleb128 0x19
 2822 0154 11       		.uleb128 0x11
 2823 0155 01       		.uleb128 0x1
 2824 0156 12       		.uleb128 0x12
 2825 0157 06       		.uleb128 0x6
 2826 0158 40       		.uleb128 0x40
 2827 0159 18       		.uleb128 0x18
 2828 015a 9642     		.uleb128 0x2116
 2829 015c 19       		.uleb128 0x19
 2830 015d 01       		.uleb128 0x1
 2831 015e 13       		.uleb128 0x13
 2832 015f 00       		.byte	0
 2833 0160 00       		.byte	0
 2834 0161 13       		.uleb128 0x13
 2835 0162 0F       		.uleb128 0xf
 2836 0163 00       		.byte	0
 2837 0164 0B       		.uleb128 0xb
 2838 0165 0B       		.uleb128 0xb
 2839 0166 49       		.uleb128 0x49
 2840 0167 13       		.uleb128 0x13
 2841 0168 00       		.byte	0
 2842 0169 00       		.byte	0
 2843 016a 14       		.uleb128 0x14
 2844 016b 26       		.uleb128 0x26
 2845 016c 00       		.byte	0
 2846 016d 49       		.uleb128 0x49
 2847 016e 13       		.uleb128 0x13
 2848 016f 00       		.byte	0
 2849 0170 00       		.byte	0
 2850 0171 15       		.uleb128 0x15
 2851 0172 0B       		.uleb128 0xb
 2852 0173 01       		.byte	0x1
 2853 0174 11       		.uleb128 0x11
 2854 0175 01       		.uleb128 0x1
 2855 0176 12       		.uleb128 0x12
 2856 0177 06       		.uleb128 0x6
 2857 0178 00       		.byte	0
 2858 0179 00       		.byte	0
 2859 017a 16       		.uleb128 0x16
 2860 017b 34       		.uleb128 0x34
 2861 017c 00       		.byte	0
 2862 017d 03       		.uleb128 0x3
 2863 017e 0E       		.uleb128 0xe
 2864 017f 3A       		.uleb128 0x3a
 2865 0180 0B       		.uleb128 0xb
 2866 0181 3B       		.uleb128 0x3b
 2867 0182 0B       		.uleb128 0xb
 2868 0183 49       		.uleb128 0x49
 2869 0184 13       		.uleb128 0x13
 2870 0185 3F       		.uleb128 0x3f
 2871 0186 19       		.uleb128 0x19
 2872 0187 02       		.uleb128 0x2
 2873 0188 18       		.uleb128 0x18
 2874 0189 00       		.byte	0
 2875 018a 00       		.byte	0
 2876 018b 17       		.uleb128 0x17
ARM GAS  C:\Users\PROYEC~1\AppData\Local\Temp\ccggXJIG.s 			page 80


 2877 018c 01       		.uleb128 0x1
 2878 018d 01       		.byte	0x1
 2879 018e 49       		.uleb128 0x49
 2880 018f 13       		.uleb128 0x13
 2881 0190 01       		.uleb128 0x1
 2882 0191 13       		.uleb128 0x13
 2883 0192 00       		.byte	0
 2884 0193 00       		.byte	0
 2885 0194 18       		.uleb128 0x18
 2886 0195 21       		.uleb128 0x21
 2887 0196 00       		.byte	0
 2888 0197 49       		.uleb128 0x49
 2889 0198 13       		.uleb128 0x13
 2890 0199 2F       		.uleb128 0x2f
 2891 019a 0B       		.uleb128 0xb
 2892 019b 00       		.byte	0
 2893 019c 00       		.byte	0
 2894 019d 00       		.byte	0
 2895              		.section	.debug_aranges,"",%progbits
 2896 0000 FC000000 		.4byte	0xfc
 2897 0004 0200     		.2byte	0x2
 2898 0006 00000000 		.4byte	.Ldebug_info0
 2899 000a 04       		.byte	0x4
 2900 000b 00       		.byte	0
 2901 000c 0000     		.2byte	0
 2902 000e 0000     		.2byte	0
 2903 0010 00000000 		.4byte	.LFB0
 2904 0014 20000000 		.4byte	.LFE0-.LFB0
 2905 0018 00000000 		.4byte	.LFB1
 2906 001c 4C000000 		.4byte	.LFE1-.LFB1
 2907 0020 00000000 		.4byte	.LFB2
 2908 0024 68000000 		.4byte	.LFE2-.LFB2
 2909 0028 00000000 		.4byte	.LFB3
 2910 002c 60000000 		.4byte	.LFE3-.LFB3
 2911 0030 00000000 		.4byte	.LFB4
 2912 0034 10000000 		.4byte	.LFE4-.LFB4
 2913 0038 00000000 		.4byte	.LFB5
 2914 003c 14000000 		.4byte	.LFE5-.LFB5
 2915 0040 00000000 		.4byte	.LFB6
 2916 0044 18000000 		.4byte	.LFE6-.LFB6
 2917 0048 00000000 		.4byte	.LFB7
 2918 004c 18000000 		.4byte	.LFE7-.LFB7
 2919 0050 00000000 		.4byte	.LFB8
 2920 0054 20000000 		.4byte	.LFE8-.LFB8
 2921 0058 00000000 		.4byte	.LFB9
 2922 005c 84000000 		.4byte	.LFE9-.LFB9
 2923 0060 00000000 		.4byte	.LFB10
 2924 0064 40000000 		.4byte	.LFE10-.LFB10
 2925 0068 00000000 		.4byte	.LFB11
 2926 006c A8000000 		.4byte	.LFE11-.LFB11
 2927 0070 00000000 		.4byte	.LFB12
 2928 0074 22000000 		.4byte	.LFE12-.LFB12
 2929 0078 00000000 		.4byte	.LFB13
 2930 007c 80000000 		.4byte	.LFE13-.LFB13
 2931 0080 00000000 		.4byte	.LFB14
 2932 0084 70000000 		.4byte	.LFE14-.LFB14
 2933 0088 00000000 		.4byte	.LFB15
ARM GAS  C:\Users\PROYEC~1\AppData\Local\Temp\ccggXJIG.s 			page 81


 2934 008c 14000000 		.4byte	.LFE15-.LFB15
 2935 0090 00000000 		.4byte	.LFB16
 2936 0094 20000000 		.4byte	.LFE16-.LFB16
 2937 0098 00000000 		.4byte	.LFB17
 2938 009c 20000000 		.4byte	.LFE17-.LFB17
 2939 00a0 00000000 		.4byte	.LFB18
 2940 00a4 20000000 		.4byte	.LFE18-.LFB18
 2941 00a8 00000000 		.4byte	.LFB19
 2942 00ac 2C000000 		.4byte	.LFE19-.LFB19
 2943 00b0 00000000 		.4byte	.LFB20
 2944 00b4 18000000 		.4byte	.LFE20-.LFB20
 2945 00b8 00000000 		.4byte	.LFB21
 2946 00bc 34000000 		.4byte	.LFE21-.LFB21
 2947 00c0 00000000 		.4byte	.LFB22
 2948 00c4 40000000 		.4byte	.LFE22-.LFB22
 2949 00c8 00000000 		.4byte	.LFB23
 2950 00cc 40000000 		.4byte	.LFE23-.LFB23
 2951 00d0 00000000 		.4byte	.LFB24
 2952 00d4 30000000 		.4byte	.LFE24-.LFB24
 2953 00d8 00000000 		.4byte	.LFB25
 2954 00dc 44000000 		.4byte	.LFE25-.LFB25
 2955 00e0 00000000 		.4byte	.LFB26
 2956 00e4 40000000 		.4byte	.LFE26-.LFB26
 2957 00e8 00000000 		.4byte	.LFB27
 2958 00ec 9C000000 		.4byte	.LFE27-.LFB27
 2959 00f0 00000000 		.4byte	.LFB28
 2960 00f4 14000000 		.4byte	.LFE28-.LFB28
 2961 00f8 00000000 		.4byte	0
 2962 00fc 00000000 		.4byte	0
 2963              		.section	.debug_ranges,"",%progbits
 2964              	.Ldebug_ranges0:
 2965 0000 00000000 		.4byte	.LFB0
 2966 0004 20000000 		.4byte	.LFE0
 2967 0008 00000000 		.4byte	.LFB1
 2968 000c 4C000000 		.4byte	.LFE1
 2969 0010 00000000 		.4byte	.LFB2
 2970 0014 68000000 		.4byte	.LFE2
 2971 0018 00000000 		.4byte	.LFB3
 2972 001c 60000000 		.4byte	.LFE3
 2973 0020 00000000 		.4byte	.LFB4
 2974 0024 10000000 		.4byte	.LFE4
 2975 0028 00000000 		.4byte	.LFB5
 2976 002c 14000000 		.4byte	.LFE5
 2977 0030 00000000 		.4byte	.LFB6
 2978 0034 18000000 		.4byte	.LFE6
 2979 0038 00000000 		.4byte	.LFB7
 2980 003c 18000000 		.4byte	.LFE7
 2981 0040 00000000 		.4byte	.LFB8
 2982 0044 20000000 		.4byte	.LFE8
 2983 0048 00000000 		.4byte	.LFB9
 2984 004c 84000000 		.4byte	.LFE9
 2985 0050 00000000 		.4byte	.LFB10
 2986 0054 40000000 		.4byte	.LFE10
 2987 0058 00000000 		.4byte	.LFB11
 2988 005c A8000000 		.4byte	.LFE11
 2989 0060 00000000 		.4byte	.LFB12
 2990 0064 22000000 		.4byte	.LFE12
ARM GAS  C:\Users\PROYEC~1\AppData\Local\Temp\ccggXJIG.s 			page 82


 2991 0068 00000000 		.4byte	.LFB13
 2992 006c 80000000 		.4byte	.LFE13
 2993 0070 00000000 		.4byte	.LFB14
 2994 0074 70000000 		.4byte	.LFE14
 2995 0078 00000000 		.4byte	.LFB15
 2996 007c 14000000 		.4byte	.LFE15
 2997 0080 00000000 		.4byte	.LFB16
 2998 0084 20000000 		.4byte	.LFE16
 2999 0088 00000000 		.4byte	.LFB17
 3000 008c 20000000 		.4byte	.LFE17
 3001 0090 00000000 		.4byte	.LFB18
 3002 0094 20000000 		.4byte	.LFE18
 3003 0098 00000000 		.4byte	.LFB19
 3004 009c 2C000000 		.4byte	.LFE19
 3005 00a0 00000000 		.4byte	.LFB20
 3006 00a4 18000000 		.4byte	.LFE20
 3007 00a8 00000000 		.4byte	.LFB21
 3008 00ac 34000000 		.4byte	.LFE21
 3009 00b0 00000000 		.4byte	.LFB22
 3010 00b4 40000000 		.4byte	.LFE22
 3011 00b8 00000000 		.4byte	.LFB23
 3012 00bc 40000000 		.4byte	.LFE23
 3013 00c0 00000000 		.4byte	.LFB24
 3014 00c4 30000000 		.4byte	.LFE24
 3015 00c8 00000000 		.4byte	.LFB25
 3016 00cc 44000000 		.4byte	.LFE25
 3017 00d0 00000000 		.4byte	.LFB26
 3018 00d4 40000000 		.4byte	.LFE26
 3019 00d8 00000000 		.4byte	.LFB27
 3020 00dc 9C000000 		.4byte	.LFE27
 3021 00e0 00000000 		.4byte	.LFB28
 3022 00e4 14000000 		.4byte	.LFE28
 3023 00e8 00000000 		.4byte	0
 3024 00ec 00000000 		.4byte	0
 3025              		.section	.debug_line,"",%progbits
 3026              	.Ldebug_line0:
 3027 0000 38030000 		.section	.debug_str,"MS",%progbits,1
 3027      02004900 
 3027      00000201 
 3027      FB0E0D00 
 3027      01010101 
 3028              	.LASF10:
 3029 0000 75696E74 		.ascii	"uint16\000"
 3029      313600
 3030              	.LASF32:
 3031 0007 6C6F635F 		.ascii	"loc_rxBufferWrite\000"
 3031      72784275 
 3031      66666572 
 3031      57726974 
 3031      6500
 3032              	.LASF50:
 3033 0019 74784461 		.ascii	"txDataByte\000"
 3033      74614279 
 3033      746500
 3034              	.LASF73:
 3035 0024 2E5C4765 		.ascii	".\\Generated_Source\\PSoC5\\Print_Bill.c\000"
 3035      6E657261 
ARM GAS  C:\Users\PROYEC~1\AppData\Local\Temp\ccggXJIG.s 			page 83


 3035      7465645F 
 3035      536F7572 
 3035      63655C50 
 3036              	.LASF54:
 3037 004a 73747269 		.ascii	"string\000"
 3037      6E6700
 3038              	.LASF36:
 3039 0051 5072696E 		.ascii	"Print_Bill_GetChar\000"
 3039      745F4269 
 3039      6C6C5F47 
 3039      65744368 
 3039      617200
 3040              	.LASF7:
 3041 0064 6C6F6E67 		.ascii	"long long unsigned int\000"
 3041      206C6F6E 
 3041      6720756E 
 3041      7369676E 
 3041      65642069 
 3042              	.LASF43:
 3043 007b 5072696E 		.ascii	"Print_Bill_SetRxAddressMode\000"
 3043      745F4269 
 3043      6C6C5F53 
 3043      65745278 
 3043      41646472 
 3044              	.LASF45:
 3045 0097 5072696E 		.ascii	"Print_Bill_SetRxAddress1\000"
 3045      745F4269 
 3045      6C6C5F53 
 3045      65745278 
 3045      41646472 
 3046              	.LASF47:
 3047 00b0 5072696E 		.ascii	"Print_Bill_SetRxAddress2\000"
 3047      745F4269 
 3047      6C6C5F53 
 3047      65745278 
 3047      41646472 
 3048              	.LASF6:
 3049 00c9 6C6F6E67 		.ascii	"long long int\000"
 3049      206C6F6E 
 3049      6720696E 
 3049      7400
 3050              	.LASF0:
 3051 00d7 7369676E 		.ascii	"signed char\000"
 3051      65642063 
 3051      68617200 
 3052              	.LASF4:
 3053 00e3 6C6F6E67 		.ascii	"long int\000"
 3053      20696E74 
 3053      00
 3054              	.LASF9:
 3055 00ec 75696E74 		.ascii	"uint8\000"
 3055      3800
 3056              	.LASF61:
 3057 00f2 5072696E 		.ascii	"Print_Bill_SendBreak\000"
 3057      745F4269 
 3057      6C6C5F53 
 3057      656E6442 
ARM GAS  C:\Users\PROYEC~1\AppData\Local\Temp\ccggXJIG.s 			page 84


 3057      7265616B 
 3058              	.LASF33:
 3059 0107 5072696E 		.ascii	"Print_Bill_ReadRxData\000"
 3059      745F4269 
 3059      6C6C5F52 
 3059      65616452 
 3059      78446174 
 3060              	.LASF13:
 3061 011d 646F7562 		.ascii	"double\000"
 3061      6C6500
 3062              	.LASF44:
 3063 0124 61646472 		.ascii	"addressMode\000"
 3063      6573734D 
 3063      6F646500 
 3064              	.LASF56:
 3065 0130 5072696E 		.ascii	"Print_Bill_PutArray\000"
 3065      745F4269 
 3065      6C6C5F50 
 3065      75744172 
 3065      72617900 
 3066              	.LASF11:
 3067 0144 75696E74 		.ascii	"uint32\000"
 3067      333200
 3068              	.LASF34:
 3069 014b 5072696E 		.ascii	"Print_Bill_ReadRxStatus\000"
 3069      745F4269 
 3069      6C6C5F52 
 3069      65616452 
 3069      78537461 
 3070              	.LASF28:
 3071 0163 636F6E74 		.ascii	"control\000"
 3071      726F6C00 
 3072              	.LASF20:
 3073 016b 5072696E 		.ascii	"Print_Bill_Init\000"
 3073      745F4269 
 3073      6C6C5F49 
 3073      6E697400 
 3074              	.LASF62:
 3075 017b 7265744D 		.ascii	"retMode\000"
 3075      6F646500 
 3076              	.LASF8:
 3077 0183 756E7369 		.ascii	"unsigned int\000"
 3077      676E6564 
 3077      20696E74 
 3077      00
 3078              	.LASF5:
 3079 0190 6C6F6E67 		.ascii	"long unsigned int\000"
 3079      20756E73 
 3079      69676E65 
 3079      6420696E 
 3079      7400
 3080              	.LASF27:
 3081 01a2 5072696E 		.ascii	"Print_Bill_SetRxInterruptMode\000"
 3081      745F4269 
 3081      6C6C5F53 
 3081      65745278 
 3081      496E7465 
ARM GAS  C:\Users\PROYEC~1\AppData\Local\Temp\ccggXJIG.s 			page 85


 3082              	.LASF41:
 3083 01c0 73697A65 		.ascii	"size\000"
 3083      00
 3084              	.LASF3:
 3085 01c5 73686F72 		.ascii	"short unsigned int\000"
 3085      7420756E 
 3085      7369676E 
 3085      65642069 
 3085      6E7400
 3086              	.LASF48:
 3087 01d8 5072696E 		.ascii	"Print_Bill_SetTxInterruptMode\000"
 3087      745F4269 
 3087      6C6C5F53 
 3087      65745478 
 3087      496E7465 
 3088              	.LASF19:
 3089 01f6 5072696E 		.ascii	"Print_Bill_Start\000"
 3089      745F4269 
 3089      6C6C5F53 
 3089      74617274 
 3089      00
 3090              	.LASF26:
 3091 0207 5072696E 		.ascii	"Print_Bill_DisableRxInt\000"
 3091      745F4269 
 3091      6C6C5F44 
 3091      69736162 
 3091      6C655278 
 3092              	.LASF31:
 3093 021f 6C6F635F 		.ascii	"loc_rxBufferRead\000"
 3093      72784275 
 3093      66666572 
 3093      52656164 
 3093      00
 3094              	.LASF64:
 3095 0230 74785F70 		.ascii	"tx_period\000"
 3095      6572696F 
 3095      6400
 3096              	.LASF29:
 3097 023a 696E7453 		.ascii	"intSrc\000"
 3097      726300
 3098              	.LASF59:
 3099 0241 5072696E 		.ascii	"Print_Bill_GetTxBufferSize\000"
 3099      745F4269 
 3099      6C6C5F47 
 3099      65745478 
 3099      42756666 
 3100              	.LASF53:
 3101 025c 5072696E 		.ascii	"Print_Bill_PutString\000"
 3101      745F4269 
 3101      6C6C5F50 
 3101      75745374 
 3101      72696E67 
 3102              	.LASF17:
 3103 0271 72656733 		.ascii	"reg32\000"
 3103      3200
 3104              	.LASF63:
 3105 0277 746D7053 		.ascii	"tmpStat\000"
ARM GAS  C:\Users\PROYEC~1\AppData\Local\Temp\ccggXJIG.s 			page 86


 3105      74617400 
 3106              	.LASF49:
 3107 027f 5072696E 		.ascii	"Print_Bill_WriteTxData\000"
 3107      745F4269 
 3107      6C6C5F57 
 3107      72697465 
 3107      54784461 
 3108              	.LASF18:
 3109 0296 73697A65 		.ascii	"sizetype\000"
 3109      74797065 
 3109      00
 3110              	.LASF21:
 3111 029f 5072696E 		.ascii	"Print_Bill_Enable\000"
 3111      745F4269 
 3111      6C6C5F45 
 3111      6E61626C 
 3111      6500
 3112              	.LASF46:
 3113 02b1 61646472 		.ascii	"address\000"
 3113      65737300 
 3114              	.LASF66:
 3115 02b9 5072696E 		.ascii	"Print_Bill_initVar\000"
 3115      745F4269 
 3115      6C6C5F69 
 3115      6E697456 
 3115      617200
 3116              	.LASF42:
 3117 02cc 5072696E 		.ascii	"Print_Bill_ClearRxBuffer\000"
 3117      745F4269 
 3117      6C6C5F43 
 3117      6C656172 
 3117      52784275 
 3118              	.LASF72:
 3119 02e5 474E5520 		.ascii	"GNU C 4.9.3 20150303 (release) [ARM/embedded-4_9-br"
 3119      4320342E 
 3119      392E3320 
 3119      32303135 
 3119      30333033 
 3120 0318 616E6368 		.ascii	"anch revision 221220] -mcpu=cortex-m3 -mthumb -g -O"
 3120      20726576 
 3120      6973696F 
 3120      6E203232 
 3120      31323230 
 3121 034b 30202D66 		.ascii	"0 -ffunction-sections -ffat-lto-objects\000"
 3121      66756E63 
 3121      74696F6E 
 3121      2D736563 
 3121      74696F6E 
 3122              	.LASF37:
 3123 0373 72785374 		.ascii	"rxStatus\000"
 3123      61747573 
 3123      00
 3124              	.LASF12:
 3125 037c 666C6F61 		.ascii	"float\000"
 3125      7400
 3126              	.LASF71:
 3127 0382 5072696E 		.ascii	"Print_Bill_rxBufferOverflow\000"
ARM GAS  C:\Users\PROYEC~1\AppData\Local\Temp\ccggXJIG.s 			page 87


 3127      745F4269 
 3127      6C6C5F72 
 3127      78427566 
 3127      6665724F 
 3128              	.LASF16:
 3129 039e 72656738 		.ascii	"reg8\000"
 3129      00
 3130              	.LASF1:
 3131 03a3 756E7369 		.ascii	"unsigned char\000"
 3131      676E6564 
 3131      20636861 
 3131      7200
 3132              	.LASF51:
 3133 03b1 5072696E 		.ascii	"Print_Bill_ReadTxStatus\000"
 3133      745F4269 
 3133      6C6C5F52 
 3133      65616454 
 3133      78537461 
 3134              	.LASF2:
 3135 03c9 73686F72 		.ascii	"short int\000"
 3135      7420696E 
 3135      7400
 3136              	.LASF24:
 3137 03d3 5072696E 		.ascii	"Print_Bill_WriteControlRegister\000"
 3137      745F4269 
 3137      6C6C5F57 
 3137      72697465 
 3137      436F6E74 
 3138              	.LASF57:
 3139 03f3 62797465 		.ascii	"byteCount\000"
 3139      436F756E 
 3139      7400
 3140              	.LASF40:
 3141 03fd 5072696E 		.ascii	"Print_Bill_GetRxBufferSize\000"
 3141      745F4269 
 3141      6C6C5F47 
 3141      65745278 
 3141      42756666 
 3142              	.LASF30:
 3143 0418 72784461 		.ascii	"rxData\000"
 3143      746100
 3144              	.LASF74:
 3145 041f 433A5C55 		.ascii	"C:\\Users\\Proyectos_Hardware\\Dropbox\\Proyecto Mu"
 3145      73657273 
 3145      5C50726F 
 3145      79656374 
 3145      6F735F48 
 3146 044e 78204164 		.ascii	"x Advance\\Mux_Advance Encore V2_01\\MuxAdvance.cyd"
 3146      76616E63 
 3146      655C4D75 
 3146      785F4164 
 3146      76616E63 
 3147 047f 736E00   		.ascii	"sn\000"
 3148              	.LASF15:
 3149 0482 63686172 		.ascii	"char\000"
 3149      00
 3150              	.LASF67:
ARM GAS  C:\Users\PROYEC~1\AppData\Local\Temp\ccggXJIG.s 			page 88


 3151 0487 5072696E 		.ascii	"Print_Bill_rxBuffer\000"
 3151      745F4269 
 3151      6C6C5F72 
 3151      78427566 
 3151      66657200 
 3152              	.LASF14:
 3153 049b 63686172 		.ascii	"char8\000"
 3153      3800
 3154              	.LASF38:
 3155 04a1 5072696E 		.ascii	"Print_Bill_ReadControlRegister\000"
 3155      745F4269 
 3155      6C6C5F52 
 3155      65616443 
 3155      6F6E7472 
 3156              	.LASF69:
 3157 04c0 5072696E 		.ascii	"Print_Bill_rxBufferWrite\000"
 3157      745F4269 
 3157      6C6C5F72 
 3157      78427566 
 3157      66657257 
 3158              	.LASF23:
 3159 04d9 656E6162 		.ascii	"enableInterrupts\000"
 3159      6C65496E 
 3159      74657272 
 3159      75707473 
 3159      00
 3160              	.LASF52:
 3161 04ea 5072696E 		.ascii	"Print_Bill_PutChar\000"
 3161      745F4269 
 3161      6C6C5F50 
 3161      75744368 
 3161      617200
 3162              	.LASF35:
 3163 04fd 73746174 		.ascii	"status\000"
 3163      757300
 3164              	.LASF22:
 3165 0504 5072696E 		.ascii	"Print_Bill_Stop\000"
 3165      745F4269 
 3165      6C6C5F53 
 3165      746F7000 
 3166              	.LASF65:
 3167 0514 5072696E 		.ascii	"Print_Bill_SetTxAddressMode\000"
 3167      745F4269 
 3167      6C6C5F53 
 3167      65745478 
 3167      41646472 
 3168              	.LASF68:
 3169 0530 5072696E 		.ascii	"Print_Bill_rxBufferRead\000"
 3169      745F4269 
 3169      6C6C5F72 
 3169      78427566 
 3169      66657252 
 3170              	.LASF60:
 3171 0548 5072696E 		.ascii	"Print_Bill_ClearTxBuffer\000"
 3171      745F4269 
 3171      6C6C5F43 
 3171      6C656172 
ARM GAS  C:\Users\PROYEC~1\AppData\Local\Temp\ccggXJIG.s 			page 89


 3171      54784275 
 3172              	.LASF55:
 3173 0561 6275665F 		.ascii	"buf_index\000"
 3173      696E6465 
 3173      7800
 3174              	.LASF25:
 3175 056b 5072696E 		.ascii	"Print_Bill_EnableRxInt\000"
 3175      745F4269 
 3175      6C6C5F45 
 3175      6E61626C 
 3175      65527849 
 3176              	.LASF70:
 3177 0582 5072696E 		.ascii	"Print_Bill_rxBufferLoopDetect\000"
 3177      745F4269 
 3177      6C6C5F72 
 3177      78427566 
 3177      6665724C 
 3178              	.LASF39:
 3179 05a0 5072696E 		.ascii	"Print_Bill_GetByte\000"
 3179      745F4269 
 3179      6C6C5F47 
 3179      65744279 
 3179      746500
 3180              	.LASF58:
 3181 05b3 5072696E 		.ascii	"Print_Bill_PutCRLF\000"
 3181      745F4269 
 3181      6C6C5F50 
 3181      75744352 
 3181      4C4600
 3182              		.ident	"GCC: (GNU Tools for ARM Embedded Processors) 4.9.3 20150303 (release) [ARM/embedded-4_9-br
