ARM GAS  C:\Users\PROYEC~1\AppData\Local\Temp\ccMmmtPO.s 			page 1


   1              		.syntax unified
   2              		.cpu cortex-m3
   3              		.fpu softvfp
   4              		.eabi_attribute 20, 1
   5              		.eabi_attribute 21, 1
   6              		.eabi_attribute 23, 3
   7              		.eabi_attribute 24, 1
   8              		.eabi_attribute 25, 1
   9              		.eabi_attribute 26, 1
  10              		.eabi_attribute 30, 6
  11              		.eabi_attribute 34, 1
  12              		.eabi_attribute 18, 4
  13              		.thumb
  14              		.file	"Print.c"
  15              		.text
  16              	.Ltext0:
  17              		.cfi_sections	.debug_frame
  18              		.comm	digits,1,1
  19              		.comm	ppux10,1,1
  20              		.comm	time,3,4
  21              		.comm	date,3,4
  22              		.comm	timeSale1,3,4
  23              		.comm	dateSale1,3,4
  24              		.comm	timeSale2,3,4
  25              		.comm	dateSale2,3,4
  26              		.comm	decimalMoney,1,1
  27              		.comm	decimalVolume,1,1
  28              		.comm	RxPc,300,4
  29              		.comm	RxPu,300,4
  30              		.comm	TxPu,300,4
  31              		.comm	flowLoopPump,1,1
  32              		.comm	flowPump,1,1
  33              		.comm	flagImp,3,4
  34              		.comm	flagHandleUp,3,4
  35              		.comm	flagAuthorize,3,4
  36              		.comm	flagSale,3,4
  37              		.comm	product,1,1
  38              		.comm	valuePPU,30,4
  39              		.comm	countSale,8,8
  40              		.comm	countImp,3,4
  41              		.comm	Buffer_LCD1,150,4
  42              		.comm	Buffer_LCD2,150,4
  43              		.comm	print,162,4
  44              		.comm	side,722,4
  45              		.comm	bSale,36,4
  46              		.section	.rodata
  47              		.align	2
  48              	.LC0:
  49 0000 20202020 		.ascii	"     Estacion de Servicio\000"
  49      20457374 
  49      6163696F 
  49      6E206465 
  49      20536572 
  50 001a 0000     		.align	2
  51              	.LC1:
  52 001c 20202020 		.ascii	"       NIT \000"
  52      2020204E 
ARM GAS  C:\Users\PROYEC~1\AppData\Local\Temp\ccMmmtPO.s 			page 2


  52      49542000 
  53              		.align	2
  54              	.LC2:
  55 0028 20202020 		.ascii	"         TEL \000"
  55      20202020 
  55      2054454C 
  55      2000
  56 0036 0000     		.align	2
  57              	.LC3:
  58 0038 46656368 		.ascii	"Fecha:    \000"
  58      613A2020 
  58      202000
  59 0043 00       		.align	2
  60              	.LC4:
  61 0044 486F7261 		.ascii	"Hora:     \000"
  61      3A202020 
  61      202000
  62 004f 00       		.align	2
  63              	.LC5:
  64 0050 506F7369 		.ascii	"Posicion: \000"
  64      63696F6E 
  64      3A2000
  65 005b 00       		.align	2
  66              	.LC6:
  67 005c 50726F64 		.ascii	"Producto: \000"
  67      7563746F 
  67      3A2000
  68 0067 00       		.align	2
  69              	.LC7:
  70 0068 5050553A 		.ascii	"PPU:      $ \000"
  70      20202020 
  70      20202420 
  70      00
  71 0075 000000   		.align	2
  72              	.LC8:
  73 0078 566F6C75 		.ascii	"Volumen:  G \000"
  73      6D656E3A 
  73      20204720 
  73      00
  74 0085 000000   		.align	2
  75              	.LC9:
  76 0088 44696E65 		.ascii	"Dinero:   $ \000"
  76      726F3A20 
  76      20202420 
  76      00
  77 0095 000000   		.align	2
  78              	.LC10:
  79 0098 20202020 		.ascii	"        COPIA DE RECIBO\000"
  79      20202020 
  79      434F5049 
  79      41204445 
  79      20524543 
  80              		.section	.text.printBill,"ax",%progbits
  81              		.align	2
  82              		.global	printBill
  83              		.thumb
  84              		.thumb_func
ARM GAS  C:\Users\PROYEC~1\AppData\Local\Temp\ccMmmtPO.s 			page 3


  85              		.type	printBill, %function
  86              	printBill:
  87              	.LFB56:
  88              		.file 1 ".\\Print.c"
   1:.\Print.c     **** /*
   2:.\Print.c     **** ***************************************************************************************************
   3:.\Print.c     **** *                                         MUX ADVANCE CODE
   4:.\Print.c     **** *
   5:.\Print.c     **** *                             (c) Copyright 2015; Sistemas Insepet LTDA
   6:.\Print.c     **** *
   7:.\Print.c     **** *               All rights reserved.  Protected by international copyright laws.
   8:.\Print.c     **** *               Knowledge of the source code may NOT be used to develop a similar product.
   9:.\Print.c     **** *               Please help us continue to provide the Embedded community with the finest
  10:.\Print.c     **** *               software available.  Your honesty is greatly appreciated.
  11:.\Print.c     **** ***************************************************************************************************
  12:.\Print.c     **** */
  13:.\Print.c     **** 
  14:.\Print.c     **** /*
  15:.\Print.c     **** ***************************************************************************************************
  16:.\Print.c     **** *
  17:.\Print.c     **** *                                            MUX ADVANCE CODE
  18:.\Print.c     **** *
  19:.\Print.c     **** *                                             CYPRESS PSoC5LP
  20:.\Print.c     **** *                                                with the
  21:.\Print.c     **** *                                            CY8C5969AXI-LP035
  22:.\Print.c     **** *
  23:.\Print.c     **** * Filename      : Print.c
  24:.\Print.c     **** * Version       : V1.00
  25:.\Print.c     **** * Programmer(s) : 
  26:.\Print.c     ****                   
  27:.\Print.c     **** ***************************************************************************************************
  28:.\Print.c     **** */
  29:.\Print.c     **** 
  30:.\Print.c     **** 
  31:.\Print.c     **** /*
  32:.\Print.c     **** ***************************************************************************************************
  33:.\Print.c     **** *                                             INCLUDE FILES
  34:.\Print.c     **** ***************************************************************************************************
  35:.\Print.c     **** */
  36:.\Print.c     **** 
  37:.\Print.c     **** #include <device.h>
  38:.\Print.c     **** #include "VariablesG.h"
  39:.\Print.c     **** #include "I2C.h"
  40:.\Print.c     **** 
  41:.\Print.c     **** /*
  42:.\Print.c     **** ***************************************************************************************************
  43:.\Print.c     **** *                                         uint8 read_time( void )
  44:.\Print.c     **** *
  45:.\Print.c     **** * Description : 
  46:.\Print.c     **** *               
  47:.\Print.c     **** *
  48:.\Print.c     **** * Argument(s) : none
  49:.\Print.c     **** *
  50:.\Print.c     **** * Return(s)   : none
  51:.\Print.c     **** *
  52:.\Print.c     **** * Caller(s)   : 
  53:.\Print.c     **** *
ARM GAS  C:\Users\PROYEC~1\AppData\Local\Temp\ccMmmtPO.s 			page 4


  54:.\Print.c     **** * Note(s)     : none.
  55:.\Print.c     **** ***************************************************************************************************
  56:.\Print.c     **** */
  57:.\Print.c     **** 
  58:.\Print.c     **** void printBill(uint8 position, uint8 product, uint8 copy, uint8 *saleDate, uint8 *saleTime){
  89              		.loc 1 58 0
  90              		.cfi_startproc
  91              		@ args = 4, pretend = 0, frame = 176
  92              		@ frame_needed = 1, uses_anonymous_args = 0
  93 0000 B0B5     		push	{r4, r5, r7, lr}
  94              		.cfi_def_cfa_offset 16
  95              		.cfi_offset 4, -16
  96              		.cfi_offset 5, -12
  97              		.cfi_offset 7, -8
  98              		.cfi_offset 14, -4
  99 0002 ACB0     		sub	sp, sp, #176
 100              		.cfi_def_cfa_offset 192
 101 0004 00AF     		add	r7, sp, #0
 102              		.cfi_def_cfa_register 7
 103 0006 3B60     		str	r3, [r7]
 104 0008 0346     		mov	r3, r0
 105 000a FB71     		strb	r3, [r7, #7]
 106 000c 0B46     		mov	r3, r1
 107 000e BB71     		strb	r3, [r7, #6]
 108 0010 1346     		mov	r3, r2
 109 0012 7B71     		strb	r3, [r7, #5]
  59:.\Print.c     ****     uint8 msg_station[25] ="     Estacion de Servicio";
 110              		.loc 1 59 0
 111 0014 B64B     		ldr	r3, .L138
 112 0016 07F19404 		add	r4, r7, #148
 113 001a 1D46     		mov	r5, r3
 114 001c 0FCD     		ldmia	r5!, {r0, r1, r2, r3}
 115 001e 0FC4     		stmia	r4!, {r0, r1, r2, r3}
 116 0020 95E80700 		ldmia	r5, {r0, r1, r2}
 117 0024 03C4     		stmia	r4!, {r0, r1}
 118 0026 2270     		strb	r2, [r4]
  60:.\Print.c     ****     uint8 msg_nit[11]     ="       NIT ";
 119              		.loc 1 60 0
 120 0028 B24A     		ldr	r2, .L138+4
 121 002a 07F18803 		add	r3, r7, #136
 122 002e 07CA     		ldmia	r2, {r0, r1, r2}
 123 0030 03C3     		stmia	r3!, {r0, r1}
 124 0032 1A80     		strh	r2, [r3]	@ movhi
 125 0034 0233     		adds	r3, r3, #2
 126 0036 120C     		lsrs	r2, r2, #16
 127 0038 1A70     		strb	r2, [r3]
  61:.\Print.c     ****     uint8 msg_phone[13]   ="         TEL ";
 128              		.loc 1 61 0
 129 003a AF4B     		ldr	r3, .L138+8
 130 003c 07F17804 		add	r4, r7, #120
 131 0040 0FCB     		ldmia	r3, {r0, r1, r2, r3}
 132 0042 07C4     		stmia	r4!, {r0, r1, r2}
 133 0044 2370     		strb	r3, [r4]
  62:.\Print.c     ****     uint8 msg_date[10]    ="Fecha:    ";
 134              		.loc 1 62 0
 135 0046 AD4A     		ldr	r2, .L138+12
 136 0048 07F16C03 		add	r3, r7, #108
ARM GAS  C:\Users\PROYEC~1\AppData\Local\Temp\ccMmmtPO.s 			page 5


 137 004c 07CA     		ldmia	r2, {r0, r1, r2}
 138 004e 03C3     		stmia	r3!, {r0, r1}
 139 0050 1A80     		strh	r2, [r3]	@ movhi
  63:.\Print.c     ****     uint8 msg_time[10]    ="Hora:     ";
 140              		.loc 1 63 0
 141 0052 AB4A     		ldr	r2, .L138+16
 142 0054 07F16003 		add	r3, r7, #96
 143 0058 07CA     		ldmia	r2, {r0, r1, r2}
 144 005a 03C3     		stmia	r3!, {r0, r1}
 145 005c 1A80     		strh	r2, [r3]	@ movhi
  64:.\Print.c     ****     uint8 msg_position[10]="Posicion: ";
 146              		.loc 1 64 0
 147 005e A94A     		ldr	r2, .L138+20
 148 0060 07F15403 		add	r3, r7, #84
 149 0064 07CA     		ldmia	r2, {r0, r1, r2}
 150 0066 03C3     		stmia	r3!, {r0, r1}
 151 0068 1A80     		strh	r2, [r3]	@ movhi
  65:.\Print.c     ****     uint8 msg_product[10] ="Producto: ";
 152              		.loc 1 65 0
 153 006a A74A     		ldr	r2, .L138+24
 154 006c 07F14803 		add	r3, r7, #72
 155 0070 07CA     		ldmia	r2, {r0, r1, r2}
 156 0072 03C3     		stmia	r3!, {r0, r1}
 157 0074 1A80     		strh	r2, [r3]	@ movhi
  66:.\Print.c     ****     uint8 msg_ppu[12]     ="PPU:      $ ";
 158              		.loc 1 66 0
 159 0076 A54A     		ldr	r2, .L138+28
 160 0078 07F13C03 		add	r3, r7, #60
 161 007c 07CA     		ldmia	r2, {r0, r1, r2}
 162 007e 83E80700 		stmia	r3, {r0, r1, r2}
  67:.\Print.c     ****     uint8 msg_volume[12]  ="Volumen:  G ";
 163              		.loc 1 67 0
 164 0082 A34A     		ldr	r2, .L138+32
 165 0084 07F13003 		add	r3, r7, #48
 166 0088 07CA     		ldmia	r2, {r0, r1, r2}
 167 008a 83E80700 		stmia	r3, {r0, r1, r2}
  68:.\Print.c     ****     uint8 msg_money[12]   ="Dinero:   $ ";
 168              		.loc 1 68 0
 169 008e A14A     		ldr	r2, .L138+36
 170 0090 07F12403 		add	r3, r7, #36
 171 0094 07CA     		ldmia	r2, {r0, r1, r2}
 172 0096 83E80700 		stmia	r3, {r0, r1, r2}
  69:.\Print.c     ****     uint8 msg_copy[23]    ="        COPIA DE RECIBO";
 173              		.loc 1 69 0
 174 009a 9F4B     		ldr	r3, .L138+40
 175 009c 07F10C04 		add	r4, r7, #12
 176 00a0 1D46     		mov	r5, r3
 177 00a2 0FCD     		ldmia	r5!, {r0, r1, r2, r3}
 178 00a4 0FC4     		stmia	r4!, {r0, r1, r2, r3}
 179 00a6 95E80300 		ldmia	r5, {r0, r1}
 180 00aa 2060     		str	r0, [r4]
 181 00ac 0434     		adds	r4, r4, #4
 182 00ae 2180     		strh	r1, [r4]	@ movhi
 183 00b0 0234     		adds	r4, r4, #2
 184 00b2 0B0C     		lsrs	r3, r1, #16
 185 00b4 2370     		strb	r3, [r4]
  70:.\Print.c     ****     uint8 x,y,flag;
ARM GAS  C:\Users\PROYEC~1\AppData\Local\Temp\ccMmmtPO.s 			page 6


  71:.\Print.c     ****     
  72:.\Print.c     ****     for(x=0;x<25;x++){
 186              		.loc 1 72 0
 187 00b6 0023     		movs	r3, #0
 188 00b8 87F8AF30 		strb	r3, [r7, #175]
 189 00bc 0EE0     		b	.L2
 190              	.L3:
 191              	.LBB2:
  73:.\Print.c     ****         Print_Bill_PutChar(msg_station[x]);
 192              		.loc 1 73 0 discriminator 3
 193 00be 97F8AF30 		ldrb	r3, [r7, #175]	@ zero_extendqisi2
 194 00c2 07F1B002 		add	r2, r7, #176
 195 00c6 1344     		add	r3, r3, r2
 196 00c8 13F81C3C 		ldrb	r3, [r3, #-28]	@ zero_extendqisi2
 197 00cc 1846     		mov	r0, r3
 198 00ce FFF7FEFF 		bl	Print_Bill_PutChar
 199              	.LBE2:
  72:.\Print.c     ****         Print_Bill_PutChar(msg_station[x]);
 200              		.loc 1 72 0 discriminator 3
 201 00d2 97F8AF30 		ldrb	r3, [r7, #175]	@ zero_extendqisi2
 202 00d6 0133     		adds	r3, r3, #1
 203 00d8 87F8AF30 		strb	r3, [r7, #175]
 204              	.L2:
  72:.\Print.c     ****         Print_Bill_PutChar(msg_station[x]);
 205              		.loc 1 72 0 is_stmt 0 discriminator 1
 206 00dc 97F8AF30 		ldrb	r3, [r7, #175]	@ zero_extendqisi2
 207 00e0 182B     		cmp	r3, #24
 208 00e2 ECD9     		bls	.L3
  74:.\Print.c     ****     }
  75:.\Print.c     ****     Print_Bill_PutChar(10);
 209              		.loc 1 75 0 is_stmt 1
 210 00e4 0A20     		movs	r0, #10
 211 00e6 FFF7FEFF 		bl	Print_Bill_PutChar
  76:.\Print.c     ****     for(x=1;x<=print.station[0];x++){
 212              		.loc 1 76 0
 213 00ea 0123     		movs	r3, #1
 214 00ec 87F8AF30 		strb	r3, [r7, #175]
 215 00f0 0BE0     		b	.L4
 216              	.L5:
  77:.\Print.c     ****         Print_Bill_PutChar(print.station[x]);
 217              		.loc 1 77 0 discriminator 3
 218 00f2 97F8AF30 		ldrb	r3, [r7, #175]	@ zero_extendqisi2
 219 00f6 894A     		ldr	r2, .L138+44
 220 00f8 D35C     		ldrb	r3, [r2, r3]	@ zero_extendqisi2
 221 00fa 1846     		mov	r0, r3
 222 00fc FFF7FEFF 		bl	Print_Bill_PutChar
  76:.\Print.c     ****     for(x=1;x<=print.station[0];x++){
 223              		.loc 1 76 0 discriminator 3
 224 0100 97F8AF30 		ldrb	r3, [r7, #175]	@ zero_extendqisi2
 225 0104 0133     		adds	r3, r3, #1
 226 0106 87F8AF30 		strb	r3, [r7, #175]
 227              	.L4:
  76:.\Print.c     ****     for(x=1;x<=print.station[0];x++){
 228              		.loc 1 76 0 is_stmt 0 discriminator 1
 229 010a 844B     		ldr	r3, .L138+44
 230 010c 1B78     		ldrb	r3, [r3]	@ zero_extendqisi2
 231 010e 97F8AF20 		ldrb	r2, [r7, #175]	@ zero_extendqisi2
ARM GAS  C:\Users\PROYEC~1\AppData\Local\Temp\ccMmmtPO.s 			page 7


 232 0112 9A42     		cmp	r2, r3
 233 0114 EDD9     		bls	.L5
  78:.\Print.c     ****     }
  79:.\Print.c     ****     Print_Bill_PutChar(10);
 234              		.loc 1 79 0 is_stmt 1
 235 0116 0A20     		movs	r0, #10
 236 0118 FFF7FEFF 		bl	Print_Bill_PutChar
  80:.\Print.c     ****     for(x=0;x<11;x++){
 237              		.loc 1 80 0
 238 011c 0023     		movs	r3, #0
 239 011e 87F8AF30 		strb	r3, [r7, #175]
 240 0122 0EE0     		b	.L6
 241              	.L7:
  81:.\Print.c     ****         Print_Bill_PutChar(msg_nit[x]);
 242              		.loc 1 81 0 discriminator 3
 243 0124 97F8AF30 		ldrb	r3, [r7, #175]	@ zero_extendqisi2
 244 0128 07F1B002 		add	r2, r7, #176
 245 012c 1344     		add	r3, r3, r2
 246 012e 13F8283C 		ldrb	r3, [r3, #-40]	@ zero_extendqisi2
 247 0132 1846     		mov	r0, r3
 248 0134 FFF7FEFF 		bl	Print_Bill_PutChar
  80:.\Print.c     ****     for(x=0;x<11;x++){
 249              		.loc 1 80 0 discriminator 3
 250 0138 97F8AF30 		ldrb	r3, [r7, #175]	@ zero_extendqisi2
 251 013c 0133     		adds	r3, r3, #1
 252 013e 87F8AF30 		strb	r3, [r7, #175]
 253              	.L6:
  80:.\Print.c     ****     for(x=0;x<11;x++){
 254              		.loc 1 80 0 is_stmt 0 discriminator 1
 255 0142 97F8AF30 		ldrb	r3, [r7, #175]	@ zero_extendqisi2
 256 0146 0A2B     		cmp	r3, #10
 257 0148 ECD9     		bls	.L7
  82:.\Print.c     ****     }
  83:.\Print.c     ****     for(x=1;x<=print.nit[0];x++){
 258              		.loc 1 83 0 is_stmt 1
 259 014a 0123     		movs	r3, #1
 260 014c 87F8AF30 		strb	r3, [r7, #175]
 261 0150 23E0     		b	.L8
 262              	.L13:
  84:.\Print.c     ****         Print_Bill_PutChar((print.nit[x]&0x0f)+0x30);
 263              		.loc 1 84 0
 264 0152 97F8AF30 		ldrb	r3, [r7, #175]	@ zero_extendqisi2
 265 0156 714A     		ldr	r2, .L138+44
 266 0158 1344     		add	r3, r3, r2
 267 015a DB7F     		ldrb	r3, [r3, #31]	@ zero_extendqisi2
 268 015c 03F00F03 		and	r3, r3, #15
 269 0160 3033     		adds	r3, r3, #48
 270 0162 1846     		mov	r0, r3
 271 0164 FFF7FEFF 		bl	Print_Bill_PutChar
  85:.\Print.c     ****         switch(x){
 272              		.loc 1 85 0
 273 0168 97F8AF30 		ldrb	r3, [r7, #175]	@ zero_extendqisi2
 274 016c 062B     		cmp	r3, #6
 275 016e 07D0     		beq	.L10
 276 0170 092B     		cmp	r3, #9
 277 0172 09D0     		beq	.L11
 278 0174 032B     		cmp	r3, #3
ARM GAS  C:\Users\PROYEC~1\AppData\Local\Temp\ccMmmtPO.s 			page 8


 279 0176 0BD1     		bne	.L9
  86:.\Print.c     ****             case 3:
  87:.\Print.c     ****                 Print_Bill_PutChar('.');
 280              		.loc 1 87 0
 281 0178 2E20     		movs	r0, #46
 282 017a FFF7FEFF 		bl	Print_Bill_PutChar
  88:.\Print.c     ****             break;
 283              		.loc 1 88 0
 284 017e 07E0     		b	.L9
 285              	.L10:
  89:.\Print.c     ****             case 6:
  90:.\Print.c     ****                 Print_Bill_PutChar('.');
 286              		.loc 1 90 0
 287 0180 2E20     		movs	r0, #46
 288 0182 FFF7FEFF 		bl	Print_Bill_PutChar
  91:.\Print.c     ****             break;
 289              		.loc 1 91 0
 290 0186 03E0     		b	.L9
 291              	.L11:
  92:.\Print.c     ****             case 9:
  93:.\Print.c     ****                 Print_Bill_PutChar('-');
 292              		.loc 1 93 0
 293 0188 2D20     		movs	r0, #45
 294 018a FFF7FEFF 		bl	Print_Bill_PutChar
  94:.\Print.c     ****             break;
 295              		.loc 1 94 0
 296 018e 00BF     		nop
 297              	.L9:
  83:.\Print.c     ****         Print_Bill_PutChar((print.nit[x]&0x0f)+0x30);
 298              		.loc 1 83 0 discriminator 2
 299 0190 97F8AF30 		ldrb	r3, [r7, #175]	@ zero_extendqisi2
 300 0194 0133     		adds	r3, r3, #1
 301 0196 87F8AF30 		strb	r3, [r7, #175]
 302              	.L8:
  83:.\Print.c     ****         Print_Bill_PutChar((print.nit[x]&0x0f)+0x30);
 303              		.loc 1 83 0 is_stmt 0 discriminator 1
 304 019a 604B     		ldr	r3, .L138+44
 305 019c DB7F     		ldrb	r3, [r3, #31]	@ zero_extendqisi2
 306 019e 97F8AF20 		ldrb	r2, [r7, #175]	@ zero_extendqisi2
 307 01a2 9A42     		cmp	r2, r3
 308 01a4 D5D9     		bls	.L13
  95:.\Print.c     ****         }
  96:.\Print.c     ****     }
  97:.\Print.c     ****     Print_Bill_PutChar(10);
 309              		.loc 1 97 0 is_stmt 1
 310 01a6 0A20     		movs	r0, #10
 311 01a8 FFF7FEFF 		bl	Print_Bill_PutChar
  98:.\Print.c     ****     for(x=0;x<13;x++){
 312              		.loc 1 98 0
 313 01ac 0023     		movs	r3, #0
 314 01ae 87F8AF30 		strb	r3, [r7, #175]
 315 01b2 0EE0     		b	.L14
 316              	.L15:
  99:.\Print.c     ****         Print_Bill_PutChar(msg_phone[x]);
 317              		.loc 1 99 0 discriminator 3
 318 01b4 97F8AF30 		ldrb	r3, [r7, #175]	@ zero_extendqisi2
 319 01b8 07F1B002 		add	r2, r7, #176
ARM GAS  C:\Users\PROYEC~1\AppData\Local\Temp\ccMmmtPO.s 			page 9


 320 01bc 1344     		add	r3, r3, r2
 321 01be 13F8383C 		ldrb	r3, [r3, #-56]	@ zero_extendqisi2
 322 01c2 1846     		mov	r0, r3
 323 01c4 FFF7FEFF 		bl	Print_Bill_PutChar
  98:.\Print.c     ****     for(x=0;x<13;x++){
 324              		.loc 1 98 0 discriminator 3
 325 01c8 97F8AF30 		ldrb	r3, [r7, #175]	@ zero_extendqisi2
 326 01cc 0133     		adds	r3, r3, #1
 327 01ce 87F8AF30 		strb	r3, [r7, #175]
 328              	.L14:
  98:.\Print.c     ****     for(x=0;x<13;x++){
 329              		.loc 1 98 0 is_stmt 0 discriminator 1
 330 01d2 97F8AF30 		ldrb	r3, [r7, #175]	@ zero_extendqisi2
 331 01d6 0C2B     		cmp	r3, #12
 332 01d8 ECD9     		bls	.L15
 100:.\Print.c     ****     }
 101:.\Print.c     ****     for(x=1;x<=print.phone[0];x++){
 333              		.loc 1 101 0 is_stmt 1
 334 01da 0123     		movs	r3, #1
 335 01dc 87F8AF30 		strb	r3, [r7, #175]
 336 01e0 0DE0     		b	.L16
 337              	.L17:
 102:.\Print.c     ****         Print_Bill_PutChar(print.phone[x]);
 338              		.loc 1 102 0 discriminator 3
 339 01e2 97F8AF30 		ldrb	r3, [r7, #175]	@ zero_extendqisi2
 340 01e6 4D4A     		ldr	r2, .L138+44
 341 01e8 1344     		add	r3, r3, r2
 342 01ea 93F82A30 		ldrb	r3, [r3, #42]	@ zero_extendqisi2
 343 01ee 1846     		mov	r0, r3
 344 01f0 FFF7FEFF 		bl	Print_Bill_PutChar
 101:.\Print.c     ****         Print_Bill_PutChar(print.phone[x]);
 345              		.loc 1 101 0 discriminator 3
 346 01f4 97F8AF30 		ldrb	r3, [r7, #175]	@ zero_extendqisi2
 347 01f8 0133     		adds	r3, r3, #1
 348 01fa 87F8AF30 		strb	r3, [r7, #175]
 349              	.L16:
 101:.\Print.c     ****         Print_Bill_PutChar(print.phone[x]);
 350              		.loc 1 101 0 is_stmt 0 discriminator 1
 351 01fe 474B     		ldr	r3, .L138+44
 352 0200 93F82A30 		ldrb	r3, [r3, #42]	@ zero_extendqisi2
 353 0204 97F8AF20 		ldrb	r2, [r7, #175]	@ zero_extendqisi2
 354 0208 9A42     		cmp	r2, r3
 355 020a EAD9     		bls	.L17
 103:.\Print.c     ****     }
 104:.\Print.c     ****     Print_Bill_PutChar(10);
 356              		.loc 1 104 0 is_stmt 1
 357 020c 0A20     		movs	r0, #10
 358 020e FFF7FEFF 		bl	Print_Bill_PutChar
 105:.\Print.c     ****     for(x=1;x<=print.address[0];x++){
 359              		.loc 1 105 0
 360 0212 0123     		movs	r3, #1
 361 0214 87F8AF30 		strb	r3, [r7, #175]
 362 0218 0DE0     		b	.L18
 363              	.L19:
 106:.\Print.c     ****         Print_Bill_PutChar(print.address[x]);
 364              		.loc 1 106 0 discriminator 3
 365 021a 97F8AF30 		ldrb	r3, [r7, #175]	@ zero_extendqisi2
ARM GAS  C:\Users\PROYEC~1\AppData\Local\Temp\ccMmmtPO.s 			page 10


 366 021e 3F4A     		ldr	r2, .L138+44
 367 0220 1344     		add	r3, r3, r2
 368 0222 93F83530 		ldrb	r3, [r3, #53]	@ zero_extendqisi2
 369 0226 1846     		mov	r0, r3
 370 0228 FFF7FEFF 		bl	Print_Bill_PutChar
 105:.\Print.c     ****     for(x=1;x<=print.address[0];x++){
 371              		.loc 1 105 0 discriminator 3
 372 022c 97F8AF30 		ldrb	r3, [r7, #175]	@ zero_extendqisi2
 373 0230 0133     		adds	r3, r3, #1
 374 0232 87F8AF30 		strb	r3, [r7, #175]
 375              	.L18:
 105:.\Print.c     ****     for(x=1;x<=print.address[0];x++){
 376              		.loc 1 105 0 is_stmt 0 discriminator 1
 377 0236 394B     		ldr	r3, .L138+44
 378 0238 93F83530 		ldrb	r3, [r3, #53]	@ zero_extendqisi2
 379 023c 97F8AF20 		ldrb	r2, [r7, #175]	@ zero_extendqisi2
 380 0240 9A42     		cmp	r2, r3
 381 0242 EAD9     		bls	.L19
 107:.\Print.c     ****     }
 108:.\Print.c     ****     Print_Bill_PutChar(10);
 382              		.loc 1 108 0 is_stmt 1
 383 0244 0A20     		movs	r0, #10
 384 0246 FFF7FEFF 		bl	Print_Bill_PutChar
 109:.\Print.c     ****     for(x=0;x<8;x++){
 385              		.loc 1 109 0
 386 024a 0023     		movs	r3, #0
 387 024c 87F8AF30 		strb	r3, [r7, #175]
 388 0250 07E0     		b	.L20
 389              	.L21:
 110:.\Print.c     ****         Print_Bill_PutChar(' ');
 390              		.loc 1 110 0 discriminator 3
 391 0252 2020     		movs	r0, #32
 392 0254 FFF7FEFF 		bl	Print_Bill_PutChar
 109:.\Print.c     ****     for(x=0;x<8;x++){
 393              		.loc 1 109 0 discriminator 3
 394 0258 97F8AF30 		ldrb	r3, [r7, #175]	@ zero_extendqisi2
 395 025c 0133     		adds	r3, r3, #1
 396 025e 87F8AF30 		strb	r3, [r7, #175]
 397              	.L20:
 109:.\Print.c     ****     for(x=0;x<8;x++){
 398              		.loc 1 109 0 is_stmt 0 discriminator 1
 399 0262 97F8AF30 		ldrb	r3, [r7, #175]	@ zero_extendqisi2
 400 0266 072B     		cmp	r3, #7
 401 0268 F3D9     		bls	.L21
 111:.\Print.c     ****     }
 112:.\Print.c     ****     for(x=1;x<=print.city[0];x++){
 402              		.loc 1 112 0 is_stmt 1
 403 026a 0123     		movs	r3, #1
 404 026c 87F8AF30 		strb	r3, [r7, #175]
 405 0270 0DE0     		b	.L22
 406              	.L23:
 113:.\Print.c     ****         Print_Bill_PutChar(print.city[x]);
 407              		.loc 1 113 0 discriminator 3
 408 0272 97F8AF30 		ldrb	r3, [r7, #175]	@ zero_extendqisi2
 409 0276 294A     		ldr	r2, .L138+44
 410 0278 1344     		add	r3, r3, r2
 411 027a 93F85430 		ldrb	r3, [r3, #84]	@ zero_extendqisi2
ARM GAS  C:\Users\PROYEC~1\AppData\Local\Temp\ccMmmtPO.s 			page 11


 412 027e 1846     		mov	r0, r3
 413 0280 FFF7FEFF 		bl	Print_Bill_PutChar
 112:.\Print.c     ****         Print_Bill_PutChar(print.city[x]);
 414              		.loc 1 112 0 discriminator 3
 415 0284 97F8AF30 		ldrb	r3, [r7, #175]	@ zero_extendqisi2
 416 0288 0133     		adds	r3, r3, #1
 417 028a 87F8AF30 		strb	r3, [r7, #175]
 418              	.L22:
 112:.\Print.c     ****         Print_Bill_PutChar(print.city[x]);
 419              		.loc 1 112 0 is_stmt 0 discriminator 1
 420 028e 234B     		ldr	r3, .L138+44
 421 0290 93F85430 		ldrb	r3, [r3, #84]	@ zero_extendqisi2
 422 0294 97F8AF20 		ldrb	r2, [r7, #175]	@ zero_extendqisi2
 423 0298 9A42     		cmp	r2, r3
 424 029a EAD9     		bls	.L23
 114:.\Print.c     ****     }
 115:.\Print.c     ****     Print_Bill_PutChar(10);
 425              		.loc 1 115 0 is_stmt 1
 426 029c 0A20     		movs	r0, #10
 427 029e FFF7FEFF 		bl	Print_Bill_PutChar
 116:.\Print.c     ****     Print_Bill_PutChar(10);
 428              		.loc 1 116 0
 429 02a2 0A20     		movs	r0, #10
 430 02a4 FFF7FEFF 		bl	Print_Bill_PutChar
 117:.\Print.c     ****     if(copy==1){
 431              		.loc 1 117 0
 432 02a8 7B79     		ldrb	r3, [r7, #5]	@ zero_extendqisi2
 433 02aa 012B     		cmp	r3, #1
 434 02ac 19D1     		bne	.L24
 118:.\Print.c     ****         for(x=0;x<23;x++){
 435              		.loc 1 118 0
 436 02ae 0023     		movs	r3, #0
 437 02b0 87F8AF30 		strb	r3, [r7, #175]
 438 02b4 0EE0     		b	.L25
 439              	.L26:
 119:.\Print.c     ****             Print_Bill_PutChar(msg_copy[x]);
 440              		.loc 1 119 0 discriminator 3
 441 02b6 97F8AF30 		ldrb	r3, [r7, #175]	@ zero_extendqisi2
 442 02ba 07F1B002 		add	r2, r7, #176
 443 02be 1344     		add	r3, r3, r2
 444 02c0 13F8A43C 		ldrb	r3, [r3, #-164]	@ zero_extendqisi2
 445 02c4 1846     		mov	r0, r3
 446 02c6 FFF7FEFF 		bl	Print_Bill_PutChar
 118:.\Print.c     ****         for(x=0;x<23;x++){
 447              		.loc 1 118 0 discriminator 3
 448 02ca 97F8AF30 		ldrb	r3, [r7, #175]	@ zero_extendqisi2
 449 02ce 0133     		adds	r3, r3, #1
 450 02d0 87F8AF30 		strb	r3, [r7, #175]
 451              	.L25:
 118:.\Print.c     ****         for(x=0;x<23;x++){
 452              		.loc 1 118 0 is_stmt 0 discriminator 1
 453 02d4 97F8AF30 		ldrb	r3, [r7, #175]	@ zero_extendqisi2
 454 02d8 162B     		cmp	r3, #22
 455 02da ECD9     		bls	.L26
 120:.\Print.c     ****         }
 121:.\Print.c     ****         Print_Bill_PutChar(10);
 456              		.loc 1 121 0 is_stmt 1
ARM GAS  C:\Users\PROYEC~1\AppData\Local\Temp\ccMmmtPO.s 			page 12


 457 02dc 0A20     		movs	r0, #10
 458 02de FFF7FEFF 		bl	Print_Bill_PutChar
 459              	.L24:
 122:.\Print.c     ****     }
 123:.\Print.c     ****     Print_Bill_PutChar(10);
 460              		.loc 1 123 0
 461 02e2 0A20     		movs	r0, #10
 462 02e4 FFF7FEFF 		bl	Print_Bill_PutChar
 124:.\Print.c     ****     for(x=0;x<10;x++){
 463              		.loc 1 124 0
 464 02e8 0023     		movs	r3, #0
 465 02ea 87F8AF30 		strb	r3, [r7, #175]
 466 02ee 26E0     		b	.L27
 467              	.L139:
 468              		.align	2
 469              	.L138:
 470 02f0 00000000 		.word	.LC0
 471 02f4 1C000000 		.word	.LC1
 472 02f8 28000000 		.word	.LC2
 473 02fc 38000000 		.word	.LC3
 474 0300 44000000 		.word	.LC4
 475 0304 50000000 		.word	.LC5
 476 0308 5C000000 		.word	.LC6
 477 030c 68000000 		.word	.LC7
 478 0310 78000000 		.word	.LC8
 479 0314 88000000 		.word	.LC9
 480 0318 98000000 		.word	.LC10
 481 031c 00000000 		.word	print
 482              	.L28:
 125:.\Print.c     ****         Print_Bill_PutChar(msg_date[x]);
 483              		.loc 1 125 0 discriminator 3
 484 0320 97F8AF30 		ldrb	r3, [r7, #175]	@ zero_extendqisi2
 485 0324 07F1B002 		add	r2, r7, #176
 486 0328 1344     		add	r3, r3, r2
 487 032a 13F8443C 		ldrb	r3, [r3, #-68]	@ zero_extendqisi2
 488 032e 1846     		mov	r0, r3
 489 0330 FFF7FEFF 		bl	Print_Bill_PutChar
 124:.\Print.c     ****     for(x=0;x<10;x++){
 490              		.loc 1 124 0 discriminator 3
 491 0334 97F8AF30 		ldrb	r3, [r7, #175]	@ zero_extendqisi2
 492 0338 0133     		adds	r3, r3, #1
 493 033a 87F8AF30 		strb	r3, [r7, #175]
 494              	.L27:
 124:.\Print.c     ****     for(x=0;x<10;x++){
 495              		.loc 1 124 0 is_stmt 0 discriminator 1
 496 033e 97F8AF30 		ldrb	r3, [r7, #175]	@ zero_extendqisi2
 497 0342 092B     		cmp	r3, #9
 498 0344 ECD9     		bls	.L28
 126:.\Print.c     ****     }
 127:.\Print.c     ****     Print_Bill_PutChar('2');
 499              		.loc 1 127 0 is_stmt 1
 500 0346 3220     		movs	r0, #50
 501 0348 FFF7FEFF 		bl	Print_Bill_PutChar
 128:.\Print.c     ****     Print_Bill_PutChar('0');
 502              		.loc 1 128 0
 503 034c 3020     		movs	r0, #48
 504 034e FFF7FEFF 		bl	Print_Bill_PutChar
ARM GAS  C:\Users\PROYEC~1\AppData\Local\Temp\ccMmmtPO.s 			page 13


 129:.\Print.c     ****     Print_Bill_PutChar(((saleDate[2]&0xF0)>>4)+48);
 505              		.loc 1 129 0
 506 0352 3B68     		ldr	r3, [r7]
 507 0354 0233     		adds	r3, r3, #2
 508 0356 1B78     		ldrb	r3, [r3]	@ zero_extendqisi2
 509 0358 1B09     		lsrs	r3, r3, #4
 510 035a DBB2     		uxtb	r3, r3
 511 035c 3033     		adds	r3, r3, #48
 512 035e 1846     		mov	r0, r3
 513 0360 FFF7FEFF 		bl	Print_Bill_PutChar
 130:.\Print.c     ****     Print_Bill_PutChar((saleDate[2]&0x0F)+48);
 514              		.loc 1 130 0
 515 0364 3B68     		ldr	r3, [r7]
 516 0366 0233     		adds	r3, r3, #2
 517 0368 1B78     		ldrb	r3, [r3]	@ zero_extendqisi2
 518 036a 03F00F03 		and	r3, r3, #15
 519 036e 3033     		adds	r3, r3, #48
 520 0370 1846     		mov	r0, r3
 521 0372 FFF7FEFF 		bl	Print_Bill_PutChar
 131:.\Print.c     ****     Print_Bill_PutChar('/');
 522              		.loc 1 131 0
 523 0376 2F20     		movs	r0, #47
 524 0378 FFF7FEFF 		bl	Print_Bill_PutChar
 132:.\Print.c     ****     Print_Bill_PutChar(((saleDate[1]&0x10)>>4)+48);
 525              		.loc 1 132 0
 526 037c 3B68     		ldr	r3, [r7]
 527 037e 0133     		adds	r3, r3, #1
 528 0380 1B78     		ldrb	r3, [r3]	@ zero_extendqisi2
 529 0382 03F01003 		and	r3, r3, #16
 530 0386 1B11     		asrs	r3, r3, #4
 531 0388 3033     		adds	r3, r3, #48
 532 038a 1846     		mov	r0, r3
 533 038c FFF7FEFF 		bl	Print_Bill_PutChar
 133:.\Print.c     ****     Print_Bill_PutChar((saleDate[1]&0x0F)+48);
 534              		.loc 1 133 0
 535 0390 3B68     		ldr	r3, [r7]
 536 0392 0133     		adds	r3, r3, #1
 537 0394 1B78     		ldrb	r3, [r3]	@ zero_extendqisi2
 538 0396 03F00F03 		and	r3, r3, #15
 539 039a 3033     		adds	r3, r3, #48
 540 039c 1846     		mov	r0, r3
 541 039e FFF7FEFF 		bl	Print_Bill_PutChar
 134:.\Print.c     ****     Print_Bill_PutChar('/');
 542              		.loc 1 134 0
 543 03a2 2F20     		movs	r0, #47
 544 03a4 FFF7FEFF 		bl	Print_Bill_PutChar
 135:.\Print.c     ****     Print_Bill_PutChar(((saleDate[0]&0x30)>>4)+48);
 545              		.loc 1 135 0
 546 03a8 3B68     		ldr	r3, [r7]
 547 03aa 1B78     		ldrb	r3, [r3]	@ zero_extendqisi2
 548 03ac 03F03003 		and	r3, r3, #48
 549 03b0 1B11     		asrs	r3, r3, #4
 550 03b2 3033     		adds	r3, r3, #48
 551 03b4 1846     		mov	r0, r3
 552 03b6 FFF7FEFF 		bl	Print_Bill_PutChar
 136:.\Print.c     ****     Print_Bill_PutChar((saleDate[0]&0x0F)+48);
 553              		.loc 1 136 0
ARM GAS  C:\Users\PROYEC~1\AppData\Local\Temp\ccMmmtPO.s 			page 14


 554 03ba 3B68     		ldr	r3, [r7]
 555 03bc 1B78     		ldrb	r3, [r3]	@ zero_extendqisi2
 556 03be 03F00F03 		and	r3, r3, #15
 557 03c2 3033     		adds	r3, r3, #48
 558 03c4 1846     		mov	r0, r3
 559 03c6 FFF7FEFF 		bl	Print_Bill_PutChar
 137:.\Print.c     ****     Print_Bill_PutChar(10);
 560              		.loc 1 137 0
 561 03ca 0A20     		movs	r0, #10
 562 03cc FFF7FEFF 		bl	Print_Bill_PutChar
 138:.\Print.c     ****     for(x=0;x<10;x++){
 563              		.loc 1 138 0
 564 03d0 0023     		movs	r3, #0
 565 03d2 87F8AF30 		strb	r3, [r7, #175]
 566 03d6 0EE0     		b	.L29
 567              	.L30:
 139:.\Print.c     ****         Print_Bill_PutChar(msg_time[x]);
 568              		.loc 1 139 0 discriminator 3
 569 03d8 97F8AF30 		ldrb	r3, [r7, #175]	@ zero_extendqisi2
 570 03dc 07F1B002 		add	r2, r7, #176
 571 03e0 1344     		add	r3, r3, r2
 572 03e2 13F8503C 		ldrb	r3, [r3, #-80]	@ zero_extendqisi2
 573 03e6 1846     		mov	r0, r3
 574 03e8 FFF7FEFF 		bl	Print_Bill_PutChar
 138:.\Print.c     ****     for(x=0;x<10;x++){
 575              		.loc 1 138 0 discriminator 3
 576 03ec 97F8AF30 		ldrb	r3, [r7, #175]	@ zero_extendqisi2
 577 03f0 0133     		adds	r3, r3, #1
 578 03f2 87F8AF30 		strb	r3, [r7, #175]
 579              	.L29:
 138:.\Print.c     ****     for(x=0;x<10;x++){
 580              		.loc 1 138 0 is_stmt 0 discriminator 1
 581 03f6 97F8AF30 		ldrb	r3, [r7, #175]	@ zero_extendqisi2
 582 03fa 092B     		cmp	r3, #9
 583 03fc ECD9     		bls	.L30
 140:.\Print.c     ****     }
 141:.\Print.c     ****     Print_Bill_PutChar(((saleTime[2]&0xF0)>>4)+48);
 584              		.loc 1 141 0 is_stmt 1
 585 03fe D7F8C030 		ldr	r3, [r7, #192]
 586 0402 0233     		adds	r3, r3, #2
 587 0404 1B78     		ldrb	r3, [r3]	@ zero_extendqisi2
 588 0406 1B09     		lsrs	r3, r3, #4
 589 0408 DBB2     		uxtb	r3, r3
 590 040a 3033     		adds	r3, r3, #48
 591 040c 1846     		mov	r0, r3
 592 040e FFF7FEFF 		bl	Print_Bill_PutChar
 142:.\Print.c     ****     Print_Bill_PutChar((saleTime[2]&0x0F)+48);
 593              		.loc 1 142 0
 594 0412 D7F8C030 		ldr	r3, [r7, #192]
 595 0416 0233     		adds	r3, r3, #2
 596 0418 1B78     		ldrb	r3, [r3]	@ zero_extendqisi2
 597 041a 03F00F03 		and	r3, r3, #15
 598 041e 3033     		adds	r3, r3, #48
 599 0420 1846     		mov	r0, r3
 600 0422 FFF7FEFF 		bl	Print_Bill_PutChar
 143:.\Print.c     ****     Print_Bill_PutChar(':');
 601              		.loc 1 143 0
ARM GAS  C:\Users\PROYEC~1\AppData\Local\Temp\ccMmmtPO.s 			page 15


 602 0426 3A20     		movs	r0, #58
 603 0428 FFF7FEFF 		bl	Print_Bill_PutChar
 144:.\Print.c     ****     Print_Bill_PutChar(((saleTime[1]&0xF0)>>4)+48);
 604              		.loc 1 144 0
 605 042c D7F8C030 		ldr	r3, [r7, #192]
 606 0430 0133     		adds	r3, r3, #1
 607 0432 1B78     		ldrb	r3, [r3]	@ zero_extendqisi2
 608 0434 1B09     		lsrs	r3, r3, #4
 609 0436 DBB2     		uxtb	r3, r3
 610 0438 3033     		adds	r3, r3, #48
 611 043a 1846     		mov	r0, r3
 612 043c FFF7FEFF 		bl	Print_Bill_PutChar
 145:.\Print.c     ****     Print_Bill_PutChar((saleTime[1]&0x0F)+48);
 613              		.loc 1 145 0
 614 0440 D7F8C030 		ldr	r3, [r7, #192]
 615 0444 0133     		adds	r3, r3, #1
 616 0446 1B78     		ldrb	r3, [r3]	@ zero_extendqisi2
 617 0448 03F00F03 		and	r3, r3, #15
 618 044c 3033     		adds	r3, r3, #48
 619 044e 1846     		mov	r0, r3
 620 0450 FFF7FEFF 		bl	Print_Bill_PutChar
 146:.\Print.c     ****     Print_Bill_PutChar(':');
 621              		.loc 1 146 0
 622 0454 3A20     		movs	r0, #58
 623 0456 FFF7FEFF 		bl	Print_Bill_PutChar
 147:.\Print.c     ****     Print_Bill_PutChar(((saleTime[0]&0xF0)>>4)+48);
 624              		.loc 1 147 0
 625 045a D7F8C030 		ldr	r3, [r7, #192]
 626 045e 1B78     		ldrb	r3, [r3]	@ zero_extendqisi2
 627 0460 1B09     		lsrs	r3, r3, #4
 628 0462 DBB2     		uxtb	r3, r3
 629 0464 3033     		adds	r3, r3, #48
 630 0466 1846     		mov	r0, r3
 631 0468 FFF7FEFF 		bl	Print_Bill_PutChar
 148:.\Print.c     ****     Print_Bill_PutChar((saleTime[0]&0x0F)+48);
 632              		.loc 1 148 0
 633 046c D7F8C030 		ldr	r3, [r7, #192]
 634 0470 1B78     		ldrb	r3, [r3]	@ zero_extendqisi2
 635 0472 03F00F03 		and	r3, r3, #15
 636 0476 3033     		adds	r3, r3, #48
 637 0478 1846     		mov	r0, r3
 638 047a FFF7FEFF 		bl	Print_Bill_PutChar
 149:.\Print.c     ****     Print_Bill_PutChar(10);
 639              		.loc 1 149 0
 640 047e 0A20     		movs	r0, #10
 641 0480 FFF7FEFF 		bl	Print_Bill_PutChar
 150:.\Print.c     ****     Print_Bill_PutChar(10);
 642              		.loc 1 150 0
 643 0484 0A20     		movs	r0, #10
 644 0486 FFF7FEFF 		bl	Print_Bill_PutChar
 151:.\Print.c     ****     for(x=0;x<10;x++){
 645              		.loc 1 151 0
 646 048a 0023     		movs	r3, #0
 647 048c 87F8AF30 		strb	r3, [r7, #175]
 648 0490 0EE0     		b	.L31
 649              	.L32:
 152:.\Print.c     ****         Print_Bill_PutChar(msg_position[x]);
ARM GAS  C:\Users\PROYEC~1\AppData\Local\Temp\ccMmmtPO.s 			page 16


 650              		.loc 1 152 0 discriminator 3
 651 0492 97F8AF30 		ldrb	r3, [r7, #175]	@ zero_extendqisi2
 652 0496 07F1B002 		add	r2, r7, #176
 653 049a 1344     		add	r3, r3, r2
 654 049c 13F85C3C 		ldrb	r3, [r3, #-92]	@ zero_extendqisi2
 655 04a0 1846     		mov	r0, r3
 656 04a2 FFF7FEFF 		bl	Print_Bill_PutChar
 151:.\Print.c     ****     for(x=0;x<10;x++){
 657              		.loc 1 151 0 discriminator 3
 658 04a6 97F8AF30 		ldrb	r3, [r7, #175]	@ zero_extendqisi2
 659 04aa 0133     		adds	r3, r3, #1
 660 04ac 87F8AF30 		strb	r3, [r7, #175]
 661              	.L31:
 151:.\Print.c     ****     for(x=0;x<10;x++){
 662              		.loc 1 151 0 is_stmt 0 discriminator 1
 663 04b0 97F8AF30 		ldrb	r3, [r7, #175]	@ zero_extendqisi2
 664 04b4 092B     		cmp	r3, #9
 665 04b6 ECD9     		bls	.L32
 153:.\Print.c     ****     }
 154:.\Print.c     ****     Print_Bill_PutChar((position/10)+48);
 666              		.loc 1 154 0 is_stmt 1
 667 04b8 FB79     		ldrb	r3, [r7, #7]	@ zero_extendqisi2
 668 04ba CB4A     		ldr	r2, .L140
 669 04bc A2FB0323 		umull	r2, r3, r2, r3
 670 04c0 DB08     		lsrs	r3, r3, #3
 671 04c2 DBB2     		uxtb	r3, r3
 672 04c4 3033     		adds	r3, r3, #48
 673 04c6 1846     		mov	r0, r3
 674 04c8 FFF7FEFF 		bl	Print_Bill_PutChar
 155:.\Print.c     ****     Print_Bill_PutChar((position%10)+48);
 675              		.loc 1 155 0
 676 04cc FA79     		ldrb	r2, [r7, #7]	@ zero_extendqisi2
 677 04ce C64B     		ldr	r3, .L140
 678 04d0 A3FB0213 		umull	r1, r3, r3, r2
 679 04d4 D908     		lsrs	r1, r3, #3
 680 04d6 0B46     		mov	r3, r1
 681 04d8 9B00     		lsls	r3, r3, #2
 682 04da 0B44     		add	r3, r3, r1
 683 04dc 5B00     		lsls	r3, r3, #1
 684 04de D31A     		subs	r3, r2, r3
 685 04e0 DBB2     		uxtb	r3, r3
 686 04e2 3033     		adds	r3, r3, #48
 687 04e4 1846     		mov	r0, r3
 688 04e6 FFF7FEFF 		bl	Print_Bill_PutChar
 156:.\Print.c     ****     Print_Bill_PutChar(10);
 689              		.loc 1 156 0
 690 04ea 0A20     		movs	r0, #10
 691 04ec FFF7FEFF 		bl	Print_Bill_PutChar
 157:.\Print.c     ****     for(x=0;x<10;x++){
 692              		.loc 1 157 0
 693 04f0 0023     		movs	r3, #0
 694 04f2 87F8AF30 		strb	r3, [r7, #175]
 695 04f6 0EE0     		b	.L33
 696              	.L34:
 158:.\Print.c     ****         Print_Bill_PutChar(msg_product[x]);
 697              		.loc 1 158 0 discriminator 3
 698 04f8 97F8AF30 		ldrb	r3, [r7, #175]	@ zero_extendqisi2
ARM GAS  C:\Users\PROYEC~1\AppData\Local\Temp\ccMmmtPO.s 			page 17


 699 04fc 07F1B002 		add	r2, r7, #176
 700 0500 1344     		add	r3, r3, r2
 701 0502 13F8683C 		ldrb	r3, [r3, #-104]	@ zero_extendqisi2
 702 0506 1846     		mov	r0, r3
 703 0508 FFF7FEFF 		bl	Print_Bill_PutChar
 157:.\Print.c     ****     for(x=0;x<10;x++){
 704              		.loc 1 157 0 discriminator 3
 705 050c 97F8AF30 		ldrb	r3, [r7, #175]	@ zero_extendqisi2
 706 0510 0133     		adds	r3, r3, #1
 707 0512 87F8AF30 		strb	r3, [r7, #175]
 708              	.L33:
 157:.\Print.c     ****     for(x=0;x<10;x++){
 709              		.loc 1 157 0 is_stmt 0 discriminator 1
 710 0516 97F8AF30 		ldrb	r3, [r7, #175]	@ zero_extendqisi2
 711 051a 092B     		cmp	r3, #9
 712 051c ECD9     		bls	.L34
 159:.\Print.c     ****     }
 160:.\Print.c     ****     if(position==side.a.dir){
 713              		.loc 1 160 0 is_stmt 1
 714 051e B34B     		ldr	r3, .L140+4
 715 0520 1B78     		ldrb	r3, [r3]	@ zero_extendqisi2
 716 0522 FA79     		ldrb	r2, [r7, #7]	@ zero_extendqisi2
 717 0524 9A42     		cmp	r2, r3
 718 0526 40F0D281 		bne	.L35
 161:.\Print.c     ****         switch(product){
 719              		.loc 1 161 0
 720 052a BB79     		ldrb	r3, [r7, #6]	@ zero_extendqisi2
 721 052c 013B     		subs	r3, r3, #1
 722 052e 032B     		cmp	r3, #3
 723 0530 6ED8     		bhi	.L36
 724 0532 01A2     		adr	r2, .L38
 725 0534 52F823F0 		ldr	pc, [r2, r3, lsl #2]
 726              		.p2align 2
 727              	.L38:
 728 0538 49050000 		.word	.L37+1
 729 053c 79050000 		.word	.L39+1
 730 0540 A9050000 		.word	.L40+1
 731 0544 DD050000 		.word	.L41+1
 732              		.p2align 1
 733              	.L37:
 162:.\Print.c     ****             case 1:
 163:.\Print.c     ****                 for(x=0;x<side.a.product1[0];x++){
 734              		.loc 1 163 0
 735 0548 0023     		movs	r3, #0
 736 054a 87F8AF30 		strb	r3, [r7, #175]
 737 054e 0CE0     		b	.L42
 738              	.L43:
 164:.\Print.c     ****                     Print_Bill_PutChar(side.a.product1[x]);
 739              		.loc 1 164 0 discriminator 3
 740 0550 97F8AF30 		ldrb	r3, [r7, #175]	@ zero_extendqisi2
 741 0554 A54A     		ldr	r2, .L140+4
 742 0556 1344     		add	r3, r3, r2
 743 0558 5B78     		ldrb	r3, [r3, #1]	@ zero_extendqisi2
 744 055a 1846     		mov	r0, r3
 745 055c FFF7FEFF 		bl	Print_Bill_PutChar
 163:.\Print.c     ****                     Print_Bill_PutChar(side.a.product1[x]);
 746              		.loc 1 163 0 discriminator 3
ARM GAS  C:\Users\PROYEC~1\AppData\Local\Temp\ccMmmtPO.s 			page 18


 747 0560 97F8AF30 		ldrb	r3, [r7, #175]	@ zero_extendqisi2
 748 0564 0133     		adds	r3, r3, #1
 749 0566 87F8AF30 		strb	r3, [r7, #175]
 750              	.L42:
 163:.\Print.c     ****                     Print_Bill_PutChar(side.a.product1[x]);
 751              		.loc 1 163 0 is_stmt 0 discriminator 1
 752 056a A04B     		ldr	r3, .L140+4
 753 056c 5B78     		ldrb	r3, [r3, #1]	@ zero_extendqisi2
 754 056e 97F8AF20 		ldrb	r2, [r7, #175]	@ zero_extendqisi2
 755 0572 9A42     		cmp	r2, r3
 756 0574 ECD3     		bcc	.L43
 165:.\Print.c     ****                 }
 166:.\Print.c     ****             break;
 757              		.loc 1 166 0 is_stmt 1
 758 0576 4BE0     		b	.L36
 759              	.L39:
 167:.\Print.c     ****                 
 168:.\Print.c     ****             case 2:
 169:.\Print.c     ****                 for(x=0;x<side.a.product2[0];x++){
 760              		.loc 1 169 0
 761 0578 0023     		movs	r3, #0
 762 057a 87F8AF30 		strb	r3, [r7, #175]
 763 057e 0CE0     		b	.L44
 764              	.L45:
 170:.\Print.c     ****                     Print_Bill_PutChar(side.a.product2[x]);
 765              		.loc 1 170 0 discriminator 3
 766 0580 97F8AF30 		ldrb	r3, [r7, #175]	@ zero_extendqisi2
 767 0584 994A     		ldr	r2, .L140+4
 768 0586 1344     		add	r3, r3, r2
 769 0588 5B7C     		ldrb	r3, [r3, #17]	@ zero_extendqisi2
 770 058a 1846     		mov	r0, r3
 771 058c FFF7FEFF 		bl	Print_Bill_PutChar
 169:.\Print.c     ****                     Print_Bill_PutChar(side.a.product2[x]);
 772              		.loc 1 169 0 discriminator 3
 773 0590 97F8AF30 		ldrb	r3, [r7, #175]	@ zero_extendqisi2
 774 0594 0133     		adds	r3, r3, #1
 775 0596 87F8AF30 		strb	r3, [r7, #175]
 776              	.L44:
 169:.\Print.c     ****                     Print_Bill_PutChar(side.a.product2[x]);
 777              		.loc 1 169 0 is_stmt 0 discriminator 1
 778 059a 944B     		ldr	r3, .L140+4
 779 059c 5B7C     		ldrb	r3, [r3, #17]	@ zero_extendqisi2
 780 059e 97F8AF20 		ldrb	r2, [r7, #175]	@ zero_extendqisi2
 781 05a2 9A42     		cmp	r2, r3
 782 05a4 ECD3     		bcc	.L45
 171:.\Print.c     ****                 }
 172:.\Print.c     ****             break;
 783              		.loc 1 172 0 is_stmt 1
 784 05a6 33E0     		b	.L36
 785              	.L40:
 173:.\Print.c     ****                 
 174:.\Print.c     ****             case 3:
 175:.\Print.c     ****                 for(x=0;x<side.a.product3[0];x++){
 786              		.loc 1 175 0
 787 05a8 0023     		movs	r3, #0
 788 05aa 87F8AF30 		strb	r3, [r7, #175]
 789 05ae 0DE0     		b	.L46
ARM GAS  C:\Users\PROYEC~1\AppData\Local\Temp\ccMmmtPO.s 			page 19


 790              	.L47:
 176:.\Print.c     ****                     Print_Bill_PutChar(side.a.product3[x]);
 791              		.loc 1 176 0 discriminator 3
 792 05b0 97F8AF30 		ldrb	r3, [r7, #175]	@ zero_extendqisi2
 793 05b4 8D4A     		ldr	r2, .L140+4
 794 05b6 1344     		add	r3, r3, r2
 795 05b8 93F82130 		ldrb	r3, [r3, #33]	@ zero_extendqisi2
 796 05bc 1846     		mov	r0, r3
 797 05be FFF7FEFF 		bl	Print_Bill_PutChar
 175:.\Print.c     ****                     Print_Bill_PutChar(side.a.product3[x]);
 798              		.loc 1 175 0 discriminator 3
 799 05c2 97F8AF30 		ldrb	r3, [r7, #175]	@ zero_extendqisi2
 800 05c6 0133     		adds	r3, r3, #1
 801 05c8 87F8AF30 		strb	r3, [r7, #175]
 802              	.L46:
 175:.\Print.c     ****                     Print_Bill_PutChar(side.a.product3[x]);
 803              		.loc 1 175 0 is_stmt 0 discriminator 1
 804 05cc 874B     		ldr	r3, .L140+4
 805 05ce 93F82130 		ldrb	r3, [r3, #33]	@ zero_extendqisi2
 806 05d2 97F8AF20 		ldrb	r2, [r7, #175]	@ zero_extendqisi2
 807 05d6 9A42     		cmp	r2, r3
 808 05d8 EAD3     		bcc	.L47
 177:.\Print.c     ****                 }
 178:.\Print.c     ****             break;
 809              		.loc 1 178 0 is_stmt 1
 810 05da 19E0     		b	.L36
 811              	.L41:
 179:.\Print.c     ****                 
 180:.\Print.c     ****             case 4:
 181:.\Print.c     ****                 for(x=0;x<side.a.product4[0];x++){
 812              		.loc 1 181 0
 813 05dc 0023     		movs	r3, #0
 814 05de 87F8AF30 		strb	r3, [r7, #175]
 815 05e2 0DE0     		b	.L48
 816              	.L49:
 182:.\Print.c     ****                     Print_Bill_PutChar(side.a.product4[x]);
 817              		.loc 1 182 0 discriminator 3
 818 05e4 97F8AF30 		ldrb	r3, [r7, #175]	@ zero_extendqisi2
 819 05e8 804A     		ldr	r2, .L140+4
 820 05ea 1344     		add	r3, r3, r2
 821 05ec 93F83130 		ldrb	r3, [r3, #49]	@ zero_extendqisi2
 822 05f0 1846     		mov	r0, r3
 823 05f2 FFF7FEFF 		bl	Print_Bill_PutChar
 181:.\Print.c     ****                     Print_Bill_PutChar(side.a.product4[x]);
 824              		.loc 1 181 0 discriminator 3
 825 05f6 97F8AF30 		ldrb	r3, [r7, #175]	@ zero_extendqisi2
 826 05fa 0133     		adds	r3, r3, #1
 827 05fc 87F8AF30 		strb	r3, [r7, #175]
 828              	.L48:
 181:.\Print.c     ****                     Print_Bill_PutChar(side.a.product4[x]);
 829              		.loc 1 181 0 is_stmt 0 discriminator 1
 830 0600 7A4B     		ldr	r3, .L140+4
 831 0602 93F83130 		ldrb	r3, [r3, #49]	@ zero_extendqisi2
 832 0606 97F8AF20 		ldrb	r2, [r7, #175]	@ zero_extendqisi2
 833 060a 9A42     		cmp	r2, r3
 834 060c EAD3     		bcc	.L49
 183:.\Print.c     ****                 }
ARM GAS  C:\Users\PROYEC~1\AppData\Local\Temp\ccMmmtPO.s 			page 20


 184:.\Print.c     ****             break;
 835              		.loc 1 184 0 is_stmt 1
 836 060e 00BF     		nop
 837              	.L36:
 185:.\Print.c     ****         }
 186:.\Print.c     ****         Print_Bill_PutChar(10);
 838              		.loc 1 186 0
 839 0610 0A20     		movs	r0, #10
 840 0612 FFF7FEFF 		bl	Print_Bill_PutChar
 187:.\Print.c     ****         for(x=0;x<12;x++){
 841              		.loc 1 187 0
 842 0616 0023     		movs	r3, #0
 843 0618 87F8AF30 		strb	r3, [r7, #175]
 844 061c 0EE0     		b	.L50
 845              	.L51:
 188:.\Print.c     ****             Print_Bill_PutChar(msg_ppu[x]);
 846              		.loc 1 188 0 discriminator 3
 847 061e 97F8AF30 		ldrb	r3, [r7, #175]	@ zero_extendqisi2
 848 0622 07F1B002 		add	r2, r7, #176
 849 0626 1344     		add	r3, r3, r2
 850 0628 13F8743C 		ldrb	r3, [r3, #-116]	@ zero_extendqisi2
 851 062c 1846     		mov	r0, r3
 852 062e FFF7FEFF 		bl	Print_Bill_PutChar
 187:.\Print.c     ****         for(x=0;x<12;x++){
 853              		.loc 1 187 0 discriminator 3
 854 0632 97F8AF30 		ldrb	r3, [r7, #175]	@ zero_extendqisi2
 855 0636 0133     		adds	r3, r3, #1
 856 0638 87F8AF30 		strb	r3, [r7, #175]
 857              	.L50:
 187:.\Print.c     ****         for(x=0;x<12;x++){
 858              		.loc 1 187 0 is_stmt 0 discriminator 1
 859 063c 97F8AF30 		ldrb	r3, [r7, #175]	@ zero_extendqisi2
 860 0640 0B2B     		cmp	r3, #11
 861 0642 ECD9     		bls	.L51
 189:.\Print.c     ****         }	
 190:.\Print.c     **** 		flag=0;
 862              		.loc 1 190 0 is_stmt 1
 863 0644 0023     		movs	r3, #0
 864 0646 87F8AD30 		strb	r3, [r7, #173]
 191:.\Print.c     ****         for(x=side.a.ppu[0];x>=1;x--){
 865              		.loc 1 191 0
 866 064a 684B     		ldr	r3, .L140+4
 867 064c 93F84230 		ldrb	r3, [r3, #66]
 868 0650 87F8AF30 		strb	r3, [r7, #175]
 869 0654 31E0     		b	.L52
 870              	.L58:
 192:.\Print.c     **** 	        if((side.a.ppu[x]==0)&&(flag==0)){
 871              		.loc 1 192 0
 872 0656 97F8AF30 		ldrb	r3, [r7, #175]	@ zero_extendqisi2
 873 065a 644A     		ldr	r2, .L140+4
 874 065c 1344     		add	r3, r3, r2
 875 065e 93F84230 		ldrb	r3, [r3, #66]	@ zero_extendqisi2
 876 0662 002B     		cmp	r3, #0
 877 0664 04D1     		bne	.L53
 878              		.loc 1 192 0 is_stmt 0 discriminator 1
 879 0666 97F8AD30 		ldrb	r3, [r7, #173]	@ zero_extendqisi2
 880 066a 002B     		cmp	r3, #0
ARM GAS  C:\Users\PROYEC~1\AppData\Local\Temp\ccMmmtPO.s 			page 21


 881 066c 00D1     		bne	.L53
 882              		.loc 1 192 0
 883 066e 1FE0     		b	.L54
 884              	.L53:
 193:.\Print.c     **** 	            
 194:.\Print.c     **** 	        }
 195:.\Print.c     **** 	        else{
 196:.\Print.c     **** 	            flag=1;
 885              		.loc 1 196 0 is_stmt 1
 886 0670 0123     		movs	r3, #1
 887 0672 87F8AD30 		strb	r3, [r7, #173]
 197:.\Print.c     ****                 if(ppux10==1){
 888              		.loc 1 197 0
 889 0676 5E4B     		ldr	r3, .L140+8
 890 0678 1B78     		ldrb	r3, [r3]	@ zero_extendqisi2
 891 067a 012B     		cmp	r3, #1
 892 067c 07D1     		bne	.L55
 198:.\Print.c     ****                     if(x==2){
 893              		.loc 1 198 0
 894 067e 97F8AF30 		ldrb	r3, [r7, #175]	@ zero_extendqisi2
 895 0682 022B     		cmp	r3, #2
 896 0684 0AD1     		bne	.L57
 199:.\Print.c     ****                         Print_Bill_PutChar('.');
 897              		.loc 1 199 0
 898 0686 2E20     		movs	r0, #46
 899 0688 FFF7FEFF 		bl	Print_Bill_PutChar
 900 068c 06E0     		b	.L57
 901              	.L55:
 200:.\Print.c     ****                     }
 201:.\Print.c     ****                 }else{
 202:.\Print.c     ****                     if(x==3){
 902              		.loc 1 202 0
 903 068e 97F8AF30 		ldrb	r3, [r7, #175]	@ zero_extendqisi2
 904 0692 032B     		cmp	r3, #3
 905 0694 02D1     		bne	.L57
 203:.\Print.c     ****                         Print_Bill_PutChar('.');
 906              		.loc 1 203 0
 907 0696 2E20     		movs	r0, #46
 908 0698 FFF7FEFF 		bl	Print_Bill_PutChar
 909              	.L57:
 204:.\Print.c     ****                     }
 205:.\Print.c     ****                 }
 206:.\Print.c     **** 	            Print_Bill_PutChar(side.a.ppu[x]+48);
 910              		.loc 1 206 0
 911 069c 97F8AF30 		ldrb	r3, [r7, #175]	@ zero_extendqisi2
 912 06a0 524A     		ldr	r2, .L140+4
 913 06a2 1344     		add	r3, r3, r2
 914 06a4 93F84230 		ldrb	r3, [r3, #66]	@ zero_extendqisi2
 915 06a8 3033     		adds	r3, r3, #48
 916 06aa 1846     		mov	r0, r3
 917 06ac FFF7FEFF 		bl	Print_Bill_PutChar
 918              	.L54:
 191:.\Print.c     **** 	        if((side.a.ppu[x]==0)&&(flag==0)){
 919              		.loc 1 191 0 discriminator 2
 920 06b0 97F8AF30 		ldrb	r3, [r7, #175]	@ zero_extendqisi2
 921 06b4 013B     		subs	r3, r3, #1
 922 06b6 87F8AF30 		strb	r3, [r7, #175]
ARM GAS  C:\Users\PROYEC~1\AppData\Local\Temp\ccMmmtPO.s 			page 22


 923              	.L52:
 191:.\Print.c     **** 	        if((side.a.ppu[x]==0)&&(flag==0)){
 924              		.loc 1 191 0 is_stmt 0 discriminator 1
 925 06ba 97F8AF30 		ldrb	r3, [r7, #175]	@ zero_extendqisi2
 926 06be 002B     		cmp	r3, #0
 927 06c0 C9D1     		bne	.L58
 207:.\Print.c     **** 	        }
 208:.\Print.c     **** 		}
 209:.\Print.c     ****         if(ppux10==1){
 928              		.loc 1 209 0 is_stmt 1
 929 06c2 4B4B     		ldr	r3, .L140+8
 930 06c4 1B78     		ldrb	r3, [r3]	@ zero_extendqisi2
 931 06c6 012B     		cmp	r3, #1
 932 06c8 02D1     		bne	.L59
 210:.\Print.c     ****             Print_Bill_PutChar(48);
 933              		.loc 1 210 0
 934 06ca 3020     		movs	r0, #48
 935 06cc FFF7FEFF 		bl	Print_Bill_PutChar
 936              	.L59:
 211:.\Print.c     ****         }
 212:.\Print.c     ****         Print_Bill_PutChar(10);
 937              		.loc 1 212 0
 938 06d0 0A20     		movs	r0, #10
 939 06d2 FFF7FEFF 		bl	Print_Bill_PutChar
 213:.\Print.c     ****         for(x=0;x<12;x++){
 940              		.loc 1 213 0
 941 06d6 0023     		movs	r3, #0
 942 06d8 87F8AF30 		strb	r3, [r7, #175]
 943 06dc 0EE0     		b	.L60
 944              	.L61:
 214:.\Print.c     ****             Print_Bill_PutChar(msg_volume[x]);
 945              		.loc 1 214 0 discriminator 3
 946 06de 97F8AF30 		ldrb	r3, [r7, #175]	@ zero_extendqisi2
 947 06e2 07F1B002 		add	r2, r7, #176
 948 06e6 1344     		add	r3, r3, r2
 949 06e8 13F8803C 		ldrb	r3, [r3, #-128]	@ zero_extendqisi2
 950 06ec 1846     		mov	r0, r3
 951 06ee FFF7FEFF 		bl	Print_Bill_PutChar
 213:.\Print.c     ****         for(x=0;x<12;x++){
 952              		.loc 1 213 0 discriminator 3
 953 06f2 97F8AF30 		ldrb	r3, [r7, #175]	@ zero_extendqisi2
 954 06f6 0133     		adds	r3, r3, #1
 955 06f8 87F8AF30 		strb	r3, [r7, #175]
 956              	.L60:
 213:.\Print.c     ****         for(x=0;x<12;x++){
 957              		.loc 1 213 0 is_stmt 0 discriminator 1
 958 06fc 97F8AF30 		ldrb	r3, [r7, #175]	@ zero_extendqisi2
 959 0700 0B2B     		cmp	r3, #11
 960 0702 ECD9     		bls	.L61
 215:.\Print.c     ****         }
 216:.\Print.c     ****         for(x=side.a.volume[0];x>=5;x--){
 961              		.loc 1 216 0 is_stmt 1
 962 0704 394B     		ldr	r3, .L140+4
 963 0706 93F85830 		ldrb	r3, [r3, #88]
 964 070a 87F8AF30 		strb	r3, [r7, #175]
 965 070e 0DE0     		b	.L62
 966              	.L65:
ARM GAS  C:\Users\PROYEC~1\AppData\Local\Temp\ccMmmtPO.s 			page 23


 217:.\Print.c     **** 	        if(side.a.volume[x]!=0){
 967              		.loc 1 217 0
 968 0710 97F8AF30 		ldrb	r3, [r7, #175]	@ zero_extendqisi2
 969 0714 354A     		ldr	r2, .L140+4
 970 0716 1344     		add	r3, r3, r2
 971 0718 93F85830 		ldrb	r3, [r3, #88]	@ zero_extendqisi2
 972 071c 002B     		cmp	r3, #0
 973 071e 00D0     		beq	.L63
 218:.\Print.c     **** 				
 219:.\Print.c     **** 	            break;
 974              		.loc 1 219 0
 975 0720 08E0     		b	.L64
 976              	.L63:
 216:.\Print.c     **** 	        if(side.a.volume[x]!=0){
 977              		.loc 1 216 0 discriminator 2
 978 0722 97F8AF30 		ldrb	r3, [r7, #175]	@ zero_extendqisi2
 979 0726 013B     		subs	r3, r3, #1
 980 0728 87F8AF30 		strb	r3, [r7, #175]
 981              	.L62:
 216:.\Print.c     **** 	        if(side.a.volume[x]!=0){
 982              		.loc 1 216 0 is_stmt 0 discriminator 1
 983 072c 97F8AF30 		ldrb	r3, [r7, #175]	@ zero_extendqisi2
 984 0730 042B     		cmp	r3, #4
 985 0732 EDD8     		bhi	.L65
 986              	.L64:
 220:.\Print.c     **** 	        }
 221:.\Print.c     **** 	    }
 222:.\Print.c     **** 	    for(y=x;y>0;y--){
 987              		.loc 1 222 0 is_stmt 1
 988 0734 97F8AF30 		ldrb	r3, [r7, #175]
 989 0738 87F8AE30 		strb	r3, [r7, #174]
 990 073c 17E0     		b	.L66
 991              	.L68:
 223:.\Print.c     **** 	        if(y==decimalVolume){
 992              		.loc 1 223 0
 993 073e 2D4B     		ldr	r3, .L140+12
 994 0740 1B78     		ldrb	r3, [r3]	@ zero_extendqisi2
 995 0742 97F8AE20 		ldrb	r2, [r7, #174]	@ zero_extendqisi2
 996 0746 9A42     		cmp	r2, r3
 997 0748 02D1     		bne	.L67
 224:.\Print.c     **** 	            Print_Bill_PutChar(44);
 998              		.loc 1 224 0
 999 074a 2C20     		movs	r0, #44
 1000 074c FFF7FEFF 		bl	Print_Bill_PutChar
 1001              	.L67:
 225:.\Print.c     **** 	        }
 226:.\Print.c     **** 	        Print_Bill_PutChar(side.a.volume[y]+48);
 1002              		.loc 1 226 0 discriminator 2
 1003 0750 97F8AE30 		ldrb	r3, [r7, #174]	@ zero_extendqisi2
 1004 0754 254A     		ldr	r2, .L140+4
 1005 0756 1344     		add	r3, r3, r2
 1006 0758 93F85830 		ldrb	r3, [r3, #88]	@ zero_extendqisi2
 1007 075c 3033     		adds	r3, r3, #48
 1008 075e 1846     		mov	r0, r3
 1009 0760 FFF7FEFF 		bl	Print_Bill_PutChar
 222:.\Print.c     **** 	        if(y==decimalVolume){
 1010              		.loc 1 222 0 discriminator 2
ARM GAS  C:\Users\PROYEC~1\AppData\Local\Temp\ccMmmtPO.s 			page 24


 1011 0764 97F8AE30 		ldrb	r3, [r7, #174]	@ zero_extendqisi2
 1012 0768 013B     		subs	r3, r3, #1
 1013 076a 87F8AE30 		strb	r3, [r7, #174]
 1014              	.L66:
 222:.\Print.c     **** 	        if(y==decimalVolume){
 1015              		.loc 1 222 0 is_stmt 0 discriminator 1
 1016 076e 97F8AE30 		ldrb	r3, [r7, #174]	@ zero_extendqisi2
 1017 0772 002B     		cmp	r3, #0
 1018 0774 E3D1     		bne	.L68
 227:.\Print.c     **** 	    }
 228:.\Print.c     ****         Print_Bill_PutChar(10);
 1019              		.loc 1 228 0 is_stmt 1
 1020 0776 0A20     		movs	r0, #10
 1021 0778 FFF7FEFF 		bl	Print_Bill_PutChar
 229:.\Print.c     ****         for(x=0;x<12;x++){
 1022              		.loc 1 229 0
 1023 077c 0023     		movs	r3, #0
 1024 077e 87F8AF30 		strb	r3, [r7, #175]
 1025 0782 0EE0     		b	.L69
 1026              	.L70:
 230:.\Print.c     ****             Print_Bill_PutChar(msg_money[x]);
 1027              		.loc 1 230 0 discriminator 3
 1028 0784 97F8AF30 		ldrb	r3, [r7, #175]	@ zero_extendqisi2
 1029 0788 07F1B002 		add	r2, r7, #176
 1030 078c 1344     		add	r3, r3, r2
 1031 078e 13F88C3C 		ldrb	r3, [r3, #-140]	@ zero_extendqisi2
 1032 0792 1846     		mov	r0, r3
 1033 0794 FFF7FEFF 		bl	Print_Bill_PutChar
 229:.\Print.c     ****         for(x=0;x<12;x++){
 1034              		.loc 1 229 0 discriminator 3
 1035 0798 97F8AF30 		ldrb	r3, [r7, #175]	@ zero_extendqisi2
 1036 079c 0133     		adds	r3, r3, #1
 1037 079e 87F8AF30 		strb	r3, [r7, #175]
 1038              	.L69:
 229:.\Print.c     ****         for(x=0;x<12;x++){
 1039              		.loc 1 229 0 is_stmt 0 discriminator 1
 1040 07a2 97F8AF30 		ldrb	r3, [r7, #175]	@ zero_extendqisi2
 1041 07a6 0B2B     		cmp	r3, #11
 1042 07a8 ECD9     		bls	.L70
 231:.\Print.c     ****         }
 232:.\Print.c     ****         flag=0;
 1043              		.loc 1 232 0 is_stmt 1
 1044 07aa 0023     		movs	r3, #0
 1045 07ac 87F8AD30 		strb	r3, [r7, #173]
 233:.\Print.c     **** 		if((digits==5)||(digits==7)){
 1046              		.loc 1 233 0
 1047 07b0 114B     		ldr	r3, .L140+16
 1048 07b2 1B78     		ldrb	r3, [r3]	@ zero_extendqisi2
 1049 07b4 052B     		cmp	r3, #5
 1050 07b6 03D0     		beq	.L71
 1051              		.loc 1 233 0 is_stmt 0 discriminator 1
 1052 07b8 0F4B     		ldr	r3, .L140+16
 1053 07ba 1B78     		ldrb	r3, [r3]	@ zero_extendqisi2
 1054 07bc 072B     		cmp	r3, #7
 1055 07be 44D1     		bne	.L72
 1056              	.L71:
 234:.\Print.c     **** 			for(x=side.a.money[0];x>1;x--){
ARM GAS  C:\Users\PROYEC~1\AppData\Local\Temp\ccMmmtPO.s 			page 25


 1057              		.loc 1 234 0 is_stmt 1
 1058 07c0 0A4B     		ldr	r3, .L140+4
 1059 07c2 93F84C30 		ldrb	r3, [r3, #76]
 1060 07c6 87F8AF30 		strb	r3, [r7, #175]
 1061 07ca 38E0     		b	.L73
 1062              	.L77:
 235:.\Print.c     **** 	            if((side.a.money[x]==0)&&(flag==0)){
 1063              		.loc 1 235 0
 1064 07cc 97F8AF30 		ldrb	r3, [r7, #175]	@ zero_extendqisi2
 1065 07d0 064A     		ldr	r2, .L140+4
 1066 07d2 1344     		add	r3, r3, r2
 1067 07d4 93F84C30 		ldrb	r3, [r3, #76]	@ zero_extendqisi2
 1068 07d8 002B     		cmp	r3, #0
 1069 07da 0FD1     		bne	.L74
 1070              		.loc 1 235 0 is_stmt 0 discriminator 1
 1071 07dc 97F8AD30 		ldrb	r3, [r7, #173]	@ zero_extendqisi2
 1072 07e0 002B     		cmp	r3, #0
 1073 07e2 0BD1     		bne	.L74
 1074              		.loc 1 235 0
 1075 07e4 26E0     		b	.L75
 1076              	.L141:
 1077 07e6 00BF     		.align	2
 1078              	.L140:
 1079 07e8 CDCCCCCC 		.word	-858993459
 1080 07ec 00000000 		.word	side
 1081 07f0 00000000 		.word	ppux10
 1082 07f4 00000000 		.word	decimalVolume
 1083 07f8 00000000 		.word	digits
 1084              	.L74:
 236:.\Print.c     **** 	            }
 237:.\Print.c     **** 	            else{
 238:.\Print.c     **** 	                flag=1;
 1085              		.loc 1 238 0 is_stmt 1
 1086 07fc 0123     		movs	r3, #1
 1087 07fe 87F8AD30 		strb	r3, [r7, #173]
 239:.\Print.c     **** 	                Print_Bill_PutChar(side.a.money[x]+48);
 1088              		.loc 1 239 0
 1089 0802 97F8AF30 		ldrb	r3, [r7, #175]	@ zero_extendqisi2
 1090 0806 CA4A     		ldr	r2, .L142
 1091 0808 1344     		add	r3, r3, r2
 1092 080a 93F84C30 		ldrb	r3, [r3, #76]	@ zero_extendqisi2
 1093 080e 3033     		adds	r3, r3, #48
 1094 0810 1846     		mov	r0, r3
 1095 0812 FFF7FEFF 		bl	Print_Bill_PutChar
 240:.\Print.c     ****                     if(x==11 || x==8 || x==5){
 1096              		.loc 1 240 0
 1097 0816 97F8AF30 		ldrb	r3, [r7, #175]	@ zero_extendqisi2
 1098 081a 0B2B     		cmp	r3, #11
 1099 081c 07D0     		beq	.L76
 1100              		.loc 1 240 0 is_stmt 0 discriminator 1
 1101 081e 97F8AF30 		ldrb	r3, [r7, #175]	@ zero_extendqisi2
 1102 0822 082B     		cmp	r3, #8
 1103 0824 03D0     		beq	.L76
 1104              		.loc 1 240 0 discriminator 2
 1105 0826 97F8AF30 		ldrb	r3, [r7, #175]	@ zero_extendqisi2
 1106 082a 052B     		cmp	r3, #5
 1107 082c 02D1     		bne	.L75
ARM GAS  C:\Users\PROYEC~1\AppData\Local\Temp\ccMmmtPO.s 			page 26


 1108              	.L76:
 241:.\Print.c     ****                         Print_Bill_PutChar('.');
 1109              		.loc 1 241 0 is_stmt 1
 1110 082e 2E20     		movs	r0, #46
 1111 0830 FFF7FEFF 		bl	Print_Bill_PutChar
 1112              	.L75:
 234:.\Print.c     **** 	            if((side.a.money[x]==0)&&(flag==0)){
 1113              		.loc 1 234 0 discriminator 2
 1114 0834 97F8AF30 		ldrb	r3, [r7, #175]	@ zero_extendqisi2
 1115 0838 013B     		subs	r3, r3, #1
 1116 083a 87F8AF30 		strb	r3, [r7, #175]
 1117              	.L73:
 234:.\Print.c     **** 	            if((side.a.money[x]==0)&&(flag==0)){
 1118              		.loc 1 234 0 is_stmt 0 discriminator 1
 1119 083e 97F8AF30 		ldrb	r3, [r7, #175]	@ zero_extendqisi2
 1120 0842 012B     		cmp	r3, #1
 1121 0844 C2D8     		bhi	.L77
 233:.\Print.c     **** 			for(x=side.a.money[0];x>1;x--){
 1122              		.loc 1 233 0 is_stmt 1
 1123 0846 00BF     		nop
 1124 0848 12E2     		b	.L85
 1125              	.L72:
 242:.\Print.c     ****                     }
 243:.\Print.c     **** 	            }
 244:.\Print.c     **** 			}
 245:.\Print.c     **** 		}
 246:.\Print.c     **** 		else{
 247:.\Print.c     **** 			for(x=side.a.money[0];x>=1;x--){
 1126              		.loc 1 247 0
 1127 084a B94B     		ldr	r3, .L142
 1128 084c 93F84C30 		ldrb	r3, [r3, #76]
 1129 0850 87F8AF30 		strb	r3, [r7, #175]
 1130 0854 36E0     		b	.L79
 1131              	.L84:
 248:.\Print.c     **** 	            if((side.a.money[x]==0)&&(flag==0)){
 1132              		.loc 1 248 0
 1133 0856 97F8AF30 		ldrb	r3, [r7, #175]	@ zero_extendqisi2
 1134 085a B54A     		ldr	r2, .L142
 1135 085c 1344     		add	r3, r3, r2
 1136 085e 93F84C30 		ldrb	r3, [r3, #76]	@ zero_extendqisi2
 1137 0862 002B     		cmp	r3, #0
 1138 0864 04D1     		bne	.L80
 1139              		.loc 1 248 0 is_stmt 0 discriminator 1
 1140 0866 97F8AD30 		ldrb	r3, [r7, #173]	@ zero_extendqisi2
 1141 086a 002B     		cmp	r3, #0
 1142 086c 00D1     		bne	.L80
 1143              		.loc 1 248 0
 1144 086e 24E0     		b	.L81
 1145              	.L80:
 249:.\Print.c     **** 	            }
 250:.\Print.c     **** 	            else{
 251:.\Print.c     **** 			        if(x==decimalMoney){
 1146              		.loc 1 251 0 is_stmt 1
 1147 0870 B04B     		ldr	r3, .L142+4
 1148 0872 1B78     		ldrb	r3, [r3]	@ zero_extendqisi2
 1149 0874 97F8AF20 		ldrb	r2, [r7, #175]	@ zero_extendqisi2
 1150 0878 9A42     		cmp	r2, r3
ARM GAS  C:\Users\PROYEC~1\AppData\Local\Temp\ccMmmtPO.s 			page 27


 1151 087a 02D1     		bne	.L82
 252:.\Print.c     **** 			            Print_Bill_PutChar(44);
 1152              		.loc 1 252 0
 1153 087c 2C20     		movs	r0, #44
 1154 087e FFF7FEFF 		bl	Print_Bill_PutChar
 1155              	.L82:
 253:.\Print.c     **** 			        }				
 254:.\Print.c     **** 	                flag=1;
 1156              		.loc 1 254 0
 1157 0882 0123     		movs	r3, #1
 1158 0884 87F8AD30 		strb	r3, [r7, #173]
 255:.\Print.c     **** 	                Print_Bill_PutChar(side.a.money[x]+48);
 1159              		.loc 1 255 0
 1160 0888 97F8AF30 		ldrb	r3, [r7, #175]	@ zero_extendqisi2
 1161 088c A84A     		ldr	r2, .L142
 1162 088e 1344     		add	r3, r3, r2
 1163 0890 93F84C30 		ldrb	r3, [r3, #76]	@ zero_extendqisi2
 1164 0894 3033     		adds	r3, r3, #48
 1165 0896 1846     		mov	r0, r3
 1166 0898 FFF7FEFF 		bl	Print_Bill_PutChar
 256:.\Print.c     ****                     if(x==10 || x==7 || x==4){
 1167              		.loc 1 256 0
 1168 089c 97F8AF30 		ldrb	r3, [r7, #175]	@ zero_extendqisi2
 1169 08a0 0A2B     		cmp	r3, #10
 1170 08a2 07D0     		beq	.L83
 1171              		.loc 1 256 0 is_stmt 0 discriminator 1
 1172 08a4 97F8AF30 		ldrb	r3, [r7, #175]	@ zero_extendqisi2
 1173 08a8 072B     		cmp	r3, #7
 1174 08aa 03D0     		beq	.L83
 1175              		.loc 1 256 0 discriminator 2
 1176 08ac 97F8AF30 		ldrb	r3, [r7, #175]	@ zero_extendqisi2
 1177 08b0 042B     		cmp	r3, #4
 1178 08b2 02D1     		bne	.L81
 1179              	.L83:
 257:.\Print.c     ****                         Print_Bill_PutChar('.');
 1180              		.loc 1 257 0 is_stmt 1
 1181 08b4 2E20     		movs	r0, #46
 1182 08b6 FFF7FEFF 		bl	Print_Bill_PutChar
 1183              	.L81:
 247:.\Print.c     **** 	            if((side.a.money[x]==0)&&(flag==0)){
 1184              		.loc 1 247 0 discriminator 2
 1185 08ba 97F8AF30 		ldrb	r3, [r7, #175]	@ zero_extendqisi2
 1186 08be 013B     		subs	r3, r3, #1
 1187 08c0 87F8AF30 		strb	r3, [r7, #175]
 1188              	.L79:
 247:.\Print.c     **** 	            if((side.a.money[x]==0)&&(flag==0)){
 1189              		.loc 1 247 0 is_stmt 0 discriminator 1
 1190 08c4 97F8AF30 		ldrb	r3, [r7, #175]	@ zero_extendqisi2
 1191 08c8 002B     		cmp	r3, #0
 1192 08ca C4D1     		bne	.L84
 1193 08cc D0E1     		b	.L85
 1194              	.L35:
 258:.\Print.c     ****                     }
 259:.\Print.c     **** 	            }
 260:.\Print.c     **** 			}		
 261:.\Print.c     **** 		}
 262:.\Print.c     ****     }else{
ARM GAS  C:\Users\PROYEC~1\AppData\Local\Temp\ccMmmtPO.s 			page 28


 263:.\Print.c     ****         switch(product){
 1195              		.loc 1 263 0 is_stmt 1
 1196 08ce BB79     		ldrb	r3, [r7, #6]	@ zero_extendqisi2
 1197 08d0 013B     		subs	r3, r3, #1
 1198 08d2 032B     		cmp	r3, #3
 1199 08d4 72D8     		bhi	.L86
 1200 08d6 01A2     		adr	r2, .L88
 1201 08d8 52F823F0 		ldr	pc, [r2, r3, lsl #2]
 1202              		.p2align 2
 1203              	.L88:
 1204 08dc ED080000 		.word	.L87+1
 1205 08e0 21090000 		.word	.L89+1
 1206 08e4 55090000 		.word	.L90+1
 1207 08e8 89090000 		.word	.L91+1
 1208              		.p2align 1
 1209              	.L87:
 264:.\Print.c     ****             case 1:
 265:.\Print.c     ****                 for(x=0;x<side.b.product1[0];x++){
 1210              		.loc 1 265 0
 1211 08ec 0023     		movs	r3, #0
 1212 08ee 87F8AF30 		strb	r3, [r7, #175]
 1213 08f2 0DE0     		b	.L92
 1214              	.L93:
 266:.\Print.c     ****                     Print_Bill_PutChar(side.b.product1[x]);
 1215              		.loc 1 266 0 discriminator 3
 1216 08f4 97F8AF30 		ldrb	r3, [r7, #175]	@ zero_extendqisi2
 1217 08f8 8D4A     		ldr	r2, .L142
 1218 08fa 1344     		add	r3, r3, r2
 1219 08fc 93F86A31 		ldrb	r3, [r3, #362]	@ zero_extendqisi2
 1220 0900 1846     		mov	r0, r3
 1221 0902 FFF7FEFF 		bl	Print_Bill_PutChar
 265:.\Print.c     ****                     Print_Bill_PutChar(side.b.product1[x]);
 1222              		.loc 1 265 0 discriminator 3
 1223 0906 97F8AF30 		ldrb	r3, [r7, #175]	@ zero_extendqisi2
 1224 090a 0133     		adds	r3, r3, #1
 1225 090c 87F8AF30 		strb	r3, [r7, #175]
 1226              	.L92:
 265:.\Print.c     ****                     Print_Bill_PutChar(side.b.product1[x]);
 1227              		.loc 1 265 0 is_stmt 0 discriminator 1
 1228 0910 874B     		ldr	r3, .L142
 1229 0912 93F86A31 		ldrb	r3, [r3, #362]	@ zero_extendqisi2
 1230 0916 97F8AF20 		ldrb	r2, [r7, #175]	@ zero_extendqisi2
 1231 091a 9A42     		cmp	r2, r3
 1232 091c EAD3     		bcc	.L93
 267:.\Print.c     ****                 }
 268:.\Print.c     ****             break;
 1233              		.loc 1 268 0 is_stmt 1
 1234 091e 4DE0     		b	.L86
 1235              	.L89:
 269:.\Print.c     ****                 
 270:.\Print.c     ****             case 2:
 271:.\Print.c     ****                 for(x=0;x<side.b.product2[0];x++){
 1236              		.loc 1 271 0
 1237 0920 0023     		movs	r3, #0
 1238 0922 87F8AF30 		strb	r3, [r7, #175]
 1239 0926 0DE0     		b	.L94
 1240              	.L95:
ARM GAS  C:\Users\PROYEC~1\AppData\Local\Temp\ccMmmtPO.s 			page 29


 272:.\Print.c     ****                     Print_Bill_PutChar(side.b.product2[x]);
 1241              		.loc 1 272 0 discriminator 3
 1242 0928 97F8AF30 		ldrb	r3, [r7, #175]	@ zero_extendqisi2
 1243 092c 804A     		ldr	r2, .L142
 1244 092e 1344     		add	r3, r3, r2
 1245 0930 93F87A31 		ldrb	r3, [r3, #378]	@ zero_extendqisi2
 1246 0934 1846     		mov	r0, r3
 1247 0936 FFF7FEFF 		bl	Print_Bill_PutChar
 271:.\Print.c     ****                     Print_Bill_PutChar(side.b.product2[x]);
 1248              		.loc 1 271 0 discriminator 3
 1249 093a 97F8AF30 		ldrb	r3, [r7, #175]	@ zero_extendqisi2
 1250 093e 0133     		adds	r3, r3, #1
 1251 0940 87F8AF30 		strb	r3, [r7, #175]
 1252              	.L94:
 271:.\Print.c     ****                     Print_Bill_PutChar(side.b.product2[x]);
 1253              		.loc 1 271 0 is_stmt 0 discriminator 1
 1254 0944 7A4B     		ldr	r3, .L142
 1255 0946 93F87A31 		ldrb	r3, [r3, #378]	@ zero_extendqisi2
 1256 094a 97F8AF20 		ldrb	r2, [r7, #175]	@ zero_extendqisi2
 1257 094e 9A42     		cmp	r2, r3
 1258 0950 EAD3     		bcc	.L95
 273:.\Print.c     ****                 }
 274:.\Print.c     ****             break;
 1259              		.loc 1 274 0 is_stmt 1
 1260 0952 33E0     		b	.L86
 1261              	.L90:
 275:.\Print.c     ****                 
 276:.\Print.c     ****             case 3:
 277:.\Print.c     ****                 for(x=0;x<side.b.product3[0];x++){
 1262              		.loc 1 277 0
 1263 0954 0023     		movs	r3, #0
 1264 0956 87F8AF30 		strb	r3, [r7, #175]
 1265 095a 0DE0     		b	.L96
 1266              	.L97:
 278:.\Print.c     ****                     Print_Bill_PutChar(side.b.product3[x]);
 1267              		.loc 1 278 0 discriminator 3
 1268 095c 97F8AF30 		ldrb	r3, [r7, #175]	@ zero_extendqisi2
 1269 0960 734A     		ldr	r2, .L142
 1270 0962 1344     		add	r3, r3, r2
 1271 0964 93F88A31 		ldrb	r3, [r3, #394]	@ zero_extendqisi2
 1272 0968 1846     		mov	r0, r3
 1273 096a FFF7FEFF 		bl	Print_Bill_PutChar
 277:.\Print.c     ****                     Print_Bill_PutChar(side.b.product3[x]);
 1274              		.loc 1 277 0 discriminator 3
 1275 096e 97F8AF30 		ldrb	r3, [r7, #175]	@ zero_extendqisi2
 1276 0972 0133     		adds	r3, r3, #1
 1277 0974 87F8AF30 		strb	r3, [r7, #175]
 1278              	.L96:
 277:.\Print.c     ****                     Print_Bill_PutChar(side.b.product3[x]);
 1279              		.loc 1 277 0 is_stmt 0 discriminator 1
 1280 0978 6D4B     		ldr	r3, .L142
 1281 097a 93F88A31 		ldrb	r3, [r3, #394]	@ zero_extendqisi2
 1282 097e 97F8AF20 		ldrb	r2, [r7, #175]	@ zero_extendqisi2
 1283 0982 9A42     		cmp	r2, r3
 1284 0984 EAD3     		bcc	.L97
 279:.\Print.c     ****                 }
 280:.\Print.c     ****             break;
ARM GAS  C:\Users\PROYEC~1\AppData\Local\Temp\ccMmmtPO.s 			page 30


 1285              		.loc 1 280 0 is_stmt 1
 1286 0986 19E0     		b	.L86
 1287              	.L91:
 281:.\Print.c     ****                 
 282:.\Print.c     ****             case 4:
 283:.\Print.c     ****                 for(x=0;x<side.b.product4[0];x++){
 1288              		.loc 1 283 0
 1289 0988 0023     		movs	r3, #0
 1290 098a 87F8AF30 		strb	r3, [r7, #175]
 1291 098e 0DE0     		b	.L98
 1292              	.L99:
 284:.\Print.c     ****                     Print_Bill_PutChar(side.b.product4[x]);
 1293              		.loc 1 284 0 discriminator 3
 1294 0990 97F8AF30 		ldrb	r3, [r7, #175]	@ zero_extendqisi2
 1295 0994 664A     		ldr	r2, .L142
 1296 0996 1344     		add	r3, r3, r2
 1297 0998 93F89A31 		ldrb	r3, [r3, #410]	@ zero_extendqisi2
 1298 099c 1846     		mov	r0, r3
 1299 099e FFF7FEFF 		bl	Print_Bill_PutChar
 283:.\Print.c     ****                     Print_Bill_PutChar(side.b.product4[x]);
 1300              		.loc 1 283 0 discriminator 3
 1301 09a2 97F8AF30 		ldrb	r3, [r7, #175]	@ zero_extendqisi2
 1302 09a6 0133     		adds	r3, r3, #1
 1303 09a8 87F8AF30 		strb	r3, [r7, #175]
 1304              	.L98:
 283:.\Print.c     ****                     Print_Bill_PutChar(side.b.product4[x]);
 1305              		.loc 1 283 0 is_stmt 0 discriminator 1
 1306 09ac 604B     		ldr	r3, .L142
 1307 09ae 93F89A31 		ldrb	r3, [r3, #410]	@ zero_extendqisi2
 1308 09b2 97F8AF20 		ldrb	r2, [r7, #175]	@ zero_extendqisi2
 1309 09b6 9A42     		cmp	r2, r3
 1310 09b8 EAD3     		bcc	.L99
 285:.\Print.c     ****                 }
 286:.\Print.c     ****             break;
 1311              		.loc 1 286 0 is_stmt 1
 1312 09ba 00BF     		nop
 1313              	.L86:
 287:.\Print.c     ****         }
 288:.\Print.c     ****         Print_Bill_PutChar(10);
 1314              		.loc 1 288 0
 1315 09bc 0A20     		movs	r0, #10
 1316 09be FFF7FEFF 		bl	Print_Bill_PutChar
 289:.\Print.c     ****         for(x=0;x<12;x++){
 1317              		.loc 1 289 0
 1318 09c2 0023     		movs	r3, #0
 1319 09c4 87F8AF30 		strb	r3, [r7, #175]
 1320 09c8 0EE0     		b	.L100
 1321              	.L101:
 290:.\Print.c     ****             Print_Bill_PutChar(msg_ppu[x]);
 1322              		.loc 1 290 0 discriminator 3
 1323 09ca 97F8AF30 		ldrb	r3, [r7, #175]	@ zero_extendqisi2
 1324 09ce 07F1B002 		add	r2, r7, #176
 1325 09d2 1344     		add	r3, r3, r2
 1326 09d4 13F8743C 		ldrb	r3, [r3, #-116]	@ zero_extendqisi2
 1327 09d8 1846     		mov	r0, r3
 1328 09da FFF7FEFF 		bl	Print_Bill_PutChar
 289:.\Print.c     ****         for(x=0;x<12;x++){
ARM GAS  C:\Users\PROYEC~1\AppData\Local\Temp\ccMmmtPO.s 			page 31


 1329              		.loc 1 289 0 discriminator 3
 1330 09de 97F8AF30 		ldrb	r3, [r7, #175]	@ zero_extendqisi2
 1331 09e2 0133     		adds	r3, r3, #1
 1332 09e4 87F8AF30 		strb	r3, [r7, #175]
 1333              	.L100:
 289:.\Print.c     ****         for(x=0;x<12;x++){
 1334              		.loc 1 289 0 is_stmt 0 discriminator 1
 1335 09e8 97F8AF30 		ldrb	r3, [r7, #175]	@ zero_extendqisi2
 1336 09ec 0B2B     		cmp	r3, #11
 1337 09ee ECD9     		bls	.L101
 291:.\Print.c     ****         }	
 292:.\Print.c     **** 		flag=0;
 1338              		.loc 1 292 0 is_stmt 1
 1339 09f0 0023     		movs	r3, #0
 1340 09f2 87F8AD30 		strb	r3, [r7, #173]
 293:.\Print.c     ****         for(x=side.b.ppu[0];x>=1;x--){
 1341              		.loc 1 293 0
 1342 09f6 4E4B     		ldr	r3, .L142
 1343 09f8 93F8AB31 		ldrb	r3, [r3, #427]
 1344 09fc 87F8AF30 		strb	r3, [r7, #175]
 1345 0a00 31E0     		b	.L102
 1346              	.L108:
 294:.\Print.c     **** 	        if((side.b.ppu[x]==0)&&(flag==0)){
 1347              		.loc 1 294 0
 1348 0a02 97F8AF30 		ldrb	r3, [r7, #175]	@ zero_extendqisi2
 1349 0a06 4A4A     		ldr	r2, .L142
 1350 0a08 1344     		add	r3, r3, r2
 1351 0a0a 93F8AB31 		ldrb	r3, [r3, #427]	@ zero_extendqisi2
 1352 0a0e 002B     		cmp	r3, #0
 1353 0a10 04D1     		bne	.L103
 1354              		.loc 1 294 0 is_stmt 0 discriminator 1
 1355 0a12 97F8AD30 		ldrb	r3, [r7, #173]	@ zero_extendqisi2
 1356 0a16 002B     		cmp	r3, #0
 1357 0a18 00D1     		bne	.L103
 1358              		.loc 1 294 0
 1359 0a1a 1FE0     		b	.L104
 1360              	.L103:
 295:.\Print.c     **** 	            
 296:.\Print.c     **** 	        }
 297:.\Print.c     **** 	        else{
 298:.\Print.c     **** 	            flag=1;
 1361              		.loc 1 298 0 is_stmt 1
 1362 0a1c 0123     		movs	r3, #1
 1363 0a1e 87F8AD30 		strb	r3, [r7, #173]
 299:.\Print.c     ****                 if(ppux10==1){
 1364              		.loc 1 299 0
 1365 0a22 454B     		ldr	r3, .L142+8
 1366 0a24 1B78     		ldrb	r3, [r3]	@ zero_extendqisi2
 1367 0a26 012B     		cmp	r3, #1
 1368 0a28 07D1     		bne	.L105
 300:.\Print.c     ****                     if(x==2){
 1369              		.loc 1 300 0
 1370 0a2a 97F8AF30 		ldrb	r3, [r7, #175]	@ zero_extendqisi2
 1371 0a2e 022B     		cmp	r3, #2
 1372 0a30 0AD1     		bne	.L107
 301:.\Print.c     ****                         Print_Bill_PutChar('.');
 1373              		.loc 1 301 0
ARM GAS  C:\Users\PROYEC~1\AppData\Local\Temp\ccMmmtPO.s 			page 32


 1374 0a32 2E20     		movs	r0, #46
 1375 0a34 FFF7FEFF 		bl	Print_Bill_PutChar
 1376 0a38 06E0     		b	.L107
 1377              	.L105:
 302:.\Print.c     ****                     }
 303:.\Print.c     ****                 }else{
 304:.\Print.c     ****                     if(x==3){
 1378              		.loc 1 304 0
 1379 0a3a 97F8AF30 		ldrb	r3, [r7, #175]	@ zero_extendqisi2
 1380 0a3e 032B     		cmp	r3, #3
 1381 0a40 02D1     		bne	.L107
 305:.\Print.c     ****                         Print_Bill_PutChar('.');
 1382              		.loc 1 305 0
 1383 0a42 2E20     		movs	r0, #46
 1384 0a44 FFF7FEFF 		bl	Print_Bill_PutChar
 1385              	.L107:
 306:.\Print.c     ****                     }
 307:.\Print.c     ****                 }
 308:.\Print.c     **** 	            Print_Bill_PutChar(side.b.ppu[x]+48);
 1386              		.loc 1 308 0
 1387 0a48 97F8AF30 		ldrb	r3, [r7, #175]	@ zero_extendqisi2
 1388 0a4c 384A     		ldr	r2, .L142
 1389 0a4e 1344     		add	r3, r3, r2
 1390 0a50 93F8AB31 		ldrb	r3, [r3, #427]	@ zero_extendqisi2
 1391 0a54 3033     		adds	r3, r3, #48
 1392 0a56 1846     		mov	r0, r3
 1393 0a58 FFF7FEFF 		bl	Print_Bill_PutChar
 1394              	.L104:
 293:.\Print.c     **** 	        if((side.b.ppu[x]==0)&&(flag==0)){
 1395              		.loc 1 293 0 discriminator 2
 1396 0a5c 97F8AF30 		ldrb	r3, [r7, #175]	@ zero_extendqisi2
 1397 0a60 013B     		subs	r3, r3, #1
 1398 0a62 87F8AF30 		strb	r3, [r7, #175]
 1399              	.L102:
 293:.\Print.c     **** 	        if((side.b.ppu[x]==0)&&(flag==0)){
 1400              		.loc 1 293 0 is_stmt 0 discriminator 1
 1401 0a66 97F8AF30 		ldrb	r3, [r7, #175]	@ zero_extendqisi2
 1402 0a6a 002B     		cmp	r3, #0
 1403 0a6c C9D1     		bne	.L108
 309:.\Print.c     **** 	        }
 310:.\Print.c     **** 		}
 311:.\Print.c     ****         if(ppux10==1){
 1404              		.loc 1 311 0 is_stmt 1
 1405 0a6e 324B     		ldr	r3, .L142+8
 1406 0a70 1B78     		ldrb	r3, [r3]	@ zero_extendqisi2
 1407 0a72 012B     		cmp	r3, #1
 1408 0a74 02D1     		bne	.L109
 312:.\Print.c     ****             Print_Bill_PutChar(48);
 1409              		.loc 1 312 0
 1410 0a76 3020     		movs	r0, #48
 1411 0a78 FFF7FEFF 		bl	Print_Bill_PutChar
 1412              	.L109:
 313:.\Print.c     ****         }
 314:.\Print.c     ****         Print_Bill_PutChar(10);
 1413              		.loc 1 314 0
 1414 0a7c 0A20     		movs	r0, #10
 1415 0a7e FFF7FEFF 		bl	Print_Bill_PutChar
ARM GAS  C:\Users\PROYEC~1\AppData\Local\Temp\ccMmmtPO.s 			page 33


 315:.\Print.c     ****         for(x=0;x<12;x++){
 1416              		.loc 1 315 0
 1417 0a82 0023     		movs	r3, #0
 1418 0a84 87F8AF30 		strb	r3, [r7, #175]
 1419 0a88 0EE0     		b	.L110
 1420              	.L111:
 316:.\Print.c     ****             Print_Bill_PutChar(msg_volume[x]);
 1421              		.loc 1 316 0 discriminator 3
 1422 0a8a 97F8AF30 		ldrb	r3, [r7, #175]	@ zero_extendqisi2
 1423 0a8e 07F1B002 		add	r2, r7, #176
 1424 0a92 1344     		add	r3, r3, r2
 1425 0a94 13F8803C 		ldrb	r3, [r3, #-128]	@ zero_extendqisi2
 1426 0a98 1846     		mov	r0, r3
 1427 0a9a FFF7FEFF 		bl	Print_Bill_PutChar
 315:.\Print.c     ****         for(x=0;x<12;x++){
 1428              		.loc 1 315 0 discriminator 3
 1429 0a9e 97F8AF30 		ldrb	r3, [r7, #175]	@ zero_extendqisi2
 1430 0aa2 0133     		adds	r3, r3, #1
 1431 0aa4 87F8AF30 		strb	r3, [r7, #175]
 1432              	.L110:
 315:.\Print.c     ****         for(x=0;x<12;x++){
 1433              		.loc 1 315 0 is_stmt 0 discriminator 1
 1434 0aa8 97F8AF30 		ldrb	r3, [r7, #175]	@ zero_extendqisi2
 1435 0aac 0B2B     		cmp	r3, #11
 1436 0aae ECD9     		bls	.L111
 317:.\Print.c     ****         }
 318:.\Print.c     ****         for(x=side.b.volume[0];x>=5;x--){
 1437              		.loc 1 318 0 is_stmt 1
 1438 0ab0 1F4B     		ldr	r3, .L142
 1439 0ab2 93F8C131 		ldrb	r3, [r3, #449]
 1440 0ab6 87F8AF30 		strb	r3, [r7, #175]
 1441 0aba 0DE0     		b	.L112
 1442              	.L115:
 319:.\Print.c     **** 	        if(side.b.volume[x]!=0){
 1443              		.loc 1 319 0
 1444 0abc 97F8AF30 		ldrb	r3, [r7, #175]	@ zero_extendqisi2
 1445 0ac0 1B4A     		ldr	r2, .L142
 1446 0ac2 1344     		add	r3, r3, r2
 1447 0ac4 93F8C131 		ldrb	r3, [r3, #449]	@ zero_extendqisi2
 1448 0ac8 002B     		cmp	r3, #0
 1449 0aca 00D0     		beq	.L113
 320:.\Print.c     **** 	            break;
 1450              		.loc 1 320 0
 1451 0acc 08E0     		b	.L114
 1452              	.L113:
 318:.\Print.c     **** 	        if(side.b.volume[x]!=0){
 1453              		.loc 1 318 0 discriminator 2
 1454 0ace 97F8AF30 		ldrb	r3, [r7, #175]	@ zero_extendqisi2
 1455 0ad2 013B     		subs	r3, r3, #1
 1456 0ad4 87F8AF30 		strb	r3, [r7, #175]
 1457              	.L112:
 318:.\Print.c     **** 	        if(side.b.volume[x]!=0){
 1458              		.loc 1 318 0 is_stmt 0 discriminator 1
 1459 0ad8 97F8AF30 		ldrb	r3, [r7, #175]	@ zero_extendqisi2
 1460 0adc 042B     		cmp	r3, #4
 1461 0ade EDD8     		bhi	.L115
 1462              	.L114:
ARM GAS  C:\Users\PROYEC~1\AppData\Local\Temp\ccMmmtPO.s 			page 34


 321:.\Print.c     **** 	        }
 322:.\Print.c     **** 	    }
 323:.\Print.c     **** 	    for(y=x;y>0;y--){
 1463              		.loc 1 323 0 is_stmt 1
 1464 0ae0 97F8AF30 		ldrb	r3, [r7, #175]
 1465 0ae4 87F8AE30 		strb	r3, [r7, #174]
 1466 0ae8 17E0     		b	.L116
 1467              	.L118:
 324:.\Print.c     **** 	        if(y==decimalVolume){
 1468              		.loc 1 324 0
 1469 0aea 144B     		ldr	r3, .L142+12
 1470 0aec 1B78     		ldrb	r3, [r3]	@ zero_extendqisi2
 1471 0aee 97F8AE20 		ldrb	r2, [r7, #174]	@ zero_extendqisi2
 1472 0af2 9A42     		cmp	r2, r3
 1473 0af4 02D1     		bne	.L117
 325:.\Print.c     **** 	            Print_Bill_PutChar(44);
 1474              		.loc 1 325 0
 1475 0af6 2C20     		movs	r0, #44
 1476 0af8 FFF7FEFF 		bl	Print_Bill_PutChar
 1477              	.L117:
 326:.\Print.c     **** 	        }
 327:.\Print.c     **** 	        Print_Bill_PutChar(side.b.volume[y]+48);
 1478              		.loc 1 327 0 discriminator 2
 1479 0afc 97F8AE30 		ldrb	r3, [r7, #174]	@ zero_extendqisi2
 1480 0b00 0B4A     		ldr	r2, .L142
 1481 0b02 1344     		add	r3, r3, r2
 1482 0b04 93F8C131 		ldrb	r3, [r3, #449]	@ zero_extendqisi2
 1483 0b08 3033     		adds	r3, r3, #48
 1484 0b0a 1846     		mov	r0, r3
 1485 0b0c FFF7FEFF 		bl	Print_Bill_PutChar
 323:.\Print.c     **** 	        if(y==decimalVolume){
 1486              		.loc 1 323 0 discriminator 2
 1487 0b10 97F8AE30 		ldrb	r3, [r7, #174]	@ zero_extendqisi2
 1488 0b14 013B     		subs	r3, r3, #1
 1489 0b16 87F8AE30 		strb	r3, [r7, #174]
 1490              	.L116:
 323:.\Print.c     **** 	        if(y==decimalVolume){
 1491              		.loc 1 323 0 is_stmt 0 discriminator 1
 1492 0b1a 97F8AE30 		ldrb	r3, [r7, #174]	@ zero_extendqisi2
 1493 0b1e 002B     		cmp	r3, #0
 1494 0b20 E3D1     		bne	.L118
 328:.\Print.c     **** 	    }
 329:.\Print.c     ****         Print_Bill_PutChar(10);
 1495              		.loc 1 329 0 is_stmt 1
 1496 0b22 0A20     		movs	r0, #10
 1497 0b24 FFF7FEFF 		bl	Print_Bill_PutChar
 330:.\Print.c     ****         for(x=0;x<12;x++){
 1498              		.loc 1 330 0
 1499 0b28 0023     		movs	r3, #0
 1500 0b2a 87F8AF30 		strb	r3, [r7, #175]
 1501 0b2e 16E0     		b	.L119
 1502              	.L143:
 1503              		.align	2
 1504              	.L142:
 1505 0b30 00000000 		.word	side
 1506 0b34 00000000 		.word	decimalMoney
 1507 0b38 00000000 		.word	ppux10
ARM GAS  C:\Users\PROYEC~1\AppData\Local\Temp\ccMmmtPO.s 			page 35


 1508 0b3c 00000000 		.word	decimalVolume
 1509              	.L120:
 331:.\Print.c     ****             Print_Bill_PutChar(msg_money[x]);
 1510              		.loc 1 331 0 discriminator 3
 1511 0b40 97F8AF30 		ldrb	r3, [r7, #175]	@ zero_extendqisi2
 1512 0b44 07F1B002 		add	r2, r7, #176
 1513 0b48 1344     		add	r3, r3, r2
 1514 0b4a 13F88C3C 		ldrb	r3, [r3, #-140]	@ zero_extendqisi2
 1515 0b4e 1846     		mov	r0, r3
 1516 0b50 FFF7FEFF 		bl	Print_Bill_PutChar
 330:.\Print.c     ****         for(x=0;x<12;x++){
 1517              		.loc 1 330 0 discriminator 3
 1518 0b54 97F8AF30 		ldrb	r3, [r7, #175]	@ zero_extendqisi2
 1519 0b58 0133     		adds	r3, r3, #1
 1520 0b5a 87F8AF30 		strb	r3, [r7, #175]
 1521              	.L119:
 330:.\Print.c     ****         for(x=0;x<12;x++){
 1522              		.loc 1 330 0 is_stmt 0 discriminator 1
 1523 0b5e 97F8AF30 		ldrb	r3, [r7, #175]	@ zero_extendqisi2
 1524 0b62 0B2B     		cmp	r3, #11
 1525 0b64 ECD9     		bls	.L120
 332:.\Print.c     ****         }
 333:.\Print.c     ****         flag=0;
 1526              		.loc 1 333 0 is_stmt 1
 1527 0b66 0023     		movs	r3, #0
 1528 0b68 87F8AD30 		strb	r3, [r7, #173]
 334:.\Print.c     **** 		if((digits==5)||(digits==7)){
 1529              		.loc 1 334 0
 1530 0b6c 6D4B     		ldr	r3, .L144
 1531 0b6e 1B78     		ldrb	r3, [r3]	@ zero_extendqisi2
 1532 0b70 052B     		cmp	r3, #5
 1533 0b72 03D0     		beq	.L121
 1534              		.loc 1 334 0 is_stmt 0 discriminator 1
 1535 0b74 6B4B     		ldr	r3, .L144
 1536 0b76 1B78     		ldrb	r3, [r3]	@ zero_extendqisi2
 1537 0b78 072B     		cmp	r3, #7
 1538 0b7a 38D1     		bne	.L122
 1539              	.L121:
 335:.\Print.c     **** 			for(x=side.b.money[0];x>1;x--){
 1540              		.loc 1 335 0 is_stmt 1
 1541 0b7c 6A4B     		ldr	r3, .L144+4
 1542 0b7e 93F8B531 		ldrb	r3, [r3, #437]
 1543 0b82 87F8AF30 		strb	r3, [r7, #175]
 1544 0b86 2DE0     		b	.L123
 1545              	.L127:
 336:.\Print.c     **** 	            if((side.b.money[x]==0)&&(flag==0)){
 1546              		.loc 1 336 0
 1547 0b88 97F8AF30 		ldrb	r3, [r7, #175]	@ zero_extendqisi2
 1548 0b8c 664A     		ldr	r2, .L144+4
 1549 0b8e 1344     		add	r3, r3, r2
 1550 0b90 93F8B531 		ldrb	r3, [r3, #437]	@ zero_extendqisi2
 1551 0b94 002B     		cmp	r3, #0
 1552 0b96 04D1     		bne	.L124
 1553              		.loc 1 336 0 is_stmt 0 discriminator 1
 1554 0b98 97F8AD30 		ldrb	r3, [r7, #173]	@ zero_extendqisi2
 1555 0b9c 002B     		cmp	r3, #0
 1556 0b9e 00D1     		bne	.L124
ARM GAS  C:\Users\PROYEC~1\AppData\Local\Temp\ccMmmtPO.s 			page 36


 1557              		.loc 1 336 0
 1558 0ba0 1BE0     		b	.L125
 1559              	.L124:
 337:.\Print.c     **** 	            }
 338:.\Print.c     **** 	            else{
 339:.\Print.c     **** 	                flag=1;
 1560              		.loc 1 339 0 is_stmt 1
 1561 0ba2 0123     		movs	r3, #1
 1562 0ba4 87F8AD30 		strb	r3, [r7, #173]
 340:.\Print.c     **** 	                Print_Bill_PutChar(side.b.money[x]+48);
 1563              		.loc 1 340 0
 1564 0ba8 97F8AF30 		ldrb	r3, [r7, #175]	@ zero_extendqisi2
 1565 0bac 5E4A     		ldr	r2, .L144+4
 1566 0bae 1344     		add	r3, r3, r2
 1567 0bb0 93F8B531 		ldrb	r3, [r3, #437]	@ zero_extendqisi2
 1568 0bb4 3033     		adds	r3, r3, #48
 1569 0bb6 1846     		mov	r0, r3
 1570 0bb8 FFF7FEFF 		bl	Print_Bill_PutChar
 341:.\Print.c     ****                     if(x==11 || x==8 || x==5){
 1571              		.loc 1 341 0
 1572 0bbc 97F8AF30 		ldrb	r3, [r7, #175]	@ zero_extendqisi2
 1573 0bc0 0B2B     		cmp	r3, #11
 1574 0bc2 07D0     		beq	.L126
 1575              		.loc 1 341 0 is_stmt 0 discriminator 1
 1576 0bc4 97F8AF30 		ldrb	r3, [r7, #175]	@ zero_extendqisi2
 1577 0bc8 082B     		cmp	r3, #8
 1578 0bca 03D0     		beq	.L126
 1579              		.loc 1 341 0 discriminator 2
 1580 0bcc 97F8AF30 		ldrb	r3, [r7, #175]	@ zero_extendqisi2
 1581 0bd0 052B     		cmp	r3, #5
 1582 0bd2 02D1     		bne	.L125
 1583              	.L126:
 342:.\Print.c     ****                         Print_Bill_PutChar('.');
 1584              		.loc 1 342 0 is_stmt 1
 1585 0bd4 2E20     		movs	r0, #46
 1586 0bd6 FFF7FEFF 		bl	Print_Bill_PutChar
 1587              	.L125:
 335:.\Print.c     **** 	            if((side.b.money[x]==0)&&(flag==0)){
 1588              		.loc 1 335 0 discriminator 2
 1589 0bda 97F8AF30 		ldrb	r3, [r7, #175]	@ zero_extendqisi2
 1590 0bde 013B     		subs	r3, r3, #1
 1591 0be0 87F8AF30 		strb	r3, [r7, #175]
 1592              	.L123:
 335:.\Print.c     **** 	            if((side.b.money[x]==0)&&(flag==0)){
 1593              		.loc 1 335 0 is_stmt 0 discriminator 1
 1594 0be4 97F8AF30 		ldrb	r3, [r7, #175]	@ zero_extendqisi2
 1595 0be8 012B     		cmp	r3, #1
 1596 0bea CDD8     		bhi	.L127
 334:.\Print.c     **** 			for(x=side.b.money[0];x>1;x--){
 1597              		.loc 1 334 0 is_stmt 1
 1598 0bec 40E0     		b	.L85
 1599              	.L122:
 343:.\Print.c     ****                     }
 344:.\Print.c     **** 	            }
 345:.\Print.c     **** 			}
 346:.\Print.c     **** 		}
 347:.\Print.c     **** 		else{
ARM GAS  C:\Users\PROYEC~1\AppData\Local\Temp\ccMmmtPO.s 			page 37


 348:.\Print.c     **** 			for(x=side.b.money[0];x>=1;x--){
 1600              		.loc 1 348 0
 1601 0bee 4E4B     		ldr	r3, .L144+4
 1602 0bf0 93F8B531 		ldrb	r3, [r3, #437]
 1603 0bf4 87F8AF30 		strb	r3, [r7, #175]
 1604 0bf8 36E0     		b	.L128
 1605              	.L133:
 349:.\Print.c     **** 	            if((side.b.money[x]==0)&&(flag==0)){
 1606              		.loc 1 349 0
 1607 0bfa 97F8AF30 		ldrb	r3, [r7, #175]	@ zero_extendqisi2
 1608 0bfe 4A4A     		ldr	r2, .L144+4
 1609 0c00 1344     		add	r3, r3, r2
 1610 0c02 93F8B531 		ldrb	r3, [r3, #437]	@ zero_extendqisi2
 1611 0c06 002B     		cmp	r3, #0
 1612 0c08 04D1     		bne	.L129
 1613              		.loc 1 349 0 is_stmt 0 discriminator 1
 1614 0c0a 97F8AD30 		ldrb	r3, [r7, #173]	@ zero_extendqisi2
 1615 0c0e 002B     		cmp	r3, #0
 1616 0c10 00D1     		bne	.L129
 1617              		.loc 1 349 0
 1618 0c12 24E0     		b	.L130
 1619              	.L129:
 350:.\Print.c     **** 	            }
 351:.\Print.c     **** 	            else{
 352:.\Print.c     **** 			        if(x==decimalMoney){
 1620              		.loc 1 352 0 is_stmt 1
 1621 0c14 454B     		ldr	r3, .L144+8
 1622 0c16 1B78     		ldrb	r3, [r3]	@ zero_extendqisi2
 1623 0c18 97F8AF20 		ldrb	r2, [r7, #175]	@ zero_extendqisi2
 1624 0c1c 9A42     		cmp	r2, r3
 1625 0c1e 02D1     		bne	.L131
 353:.\Print.c     **** 			            Print_Bill_PutChar(44);
 1626              		.loc 1 353 0
 1627 0c20 2C20     		movs	r0, #44
 1628 0c22 FFF7FEFF 		bl	Print_Bill_PutChar
 1629              	.L131:
 354:.\Print.c     **** 			        }				
 355:.\Print.c     **** 	                flag=1;
 1630              		.loc 1 355 0
 1631 0c26 0123     		movs	r3, #1
 1632 0c28 87F8AD30 		strb	r3, [r7, #173]
 356:.\Print.c     **** 	                Print_Bill_PutChar(side.b.money[x]+48);
 1633              		.loc 1 356 0
 1634 0c2c 97F8AF30 		ldrb	r3, [r7, #175]	@ zero_extendqisi2
 1635 0c30 3D4A     		ldr	r2, .L144+4
 1636 0c32 1344     		add	r3, r3, r2
 1637 0c34 93F8B531 		ldrb	r3, [r3, #437]	@ zero_extendqisi2
 1638 0c38 3033     		adds	r3, r3, #48
 1639 0c3a 1846     		mov	r0, r3
 1640 0c3c FFF7FEFF 		bl	Print_Bill_PutChar
 357:.\Print.c     ****                     if(x==10 || x==7 || x==4){
 1641              		.loc 1 357 0
 1642 0c40 97F8AF30 		ldrb	r3, [r7, #175]	@ zero_extendqisi2
 1643 0c44 0A2B     		cmp	r3, #10
 1644 0c46 07D0     		beq	.L132
 1645              		.loc 1 357 0 is_stmt 0 discriminator 1
 1646 0c48 97F8AF30 		ldrb	r3, [r7, #175]	@ zero_extendqisi2
ARM GAS  C:\Users\PROYEC~1\AppData\Local\Temp\ccMmmtPO.s 			page 38


 1647 0c4c 072B     		cmp	r3, #7
 1648 0c4e 03D0     		beq	.L132
 1649              		.loc 1 357 0 discriminator 2
 1650 0c50 97F8AF30 		ldrb	r3, [r7, #175]	@ zero_extendqisi2
 1651 0c54 042B     		cmp	r3, #4
 1652 0c56 02D1     		bne	.L130
 1653              	.L132:
 358:.\Print.c     ****                         Print_Bill_PutChar('.');
 1654              		.loc 1 358 0 is_stmt 1
 1655 0c58 2E20     		movs	r0, #46
 1656 0c5a FFF7FEFF 		bl	Print_Bill_PutChar
 1657              	.L130:
 348:.\Print.c     **** 	            if((side.b.money[x]==0)&&(flag==0)){
 1658              		.loc 1 348 0 discriminator 2
 1659 0c5e 97F8AF30 		ldrb	r3, [r7, #175]	@ zero_extendqisi2
 1660 0c62 013B     		subs	r3, r3, #1
 1661 0c64 87F8AF30 		strb	r3, [r7, #175]
 1662              	.L128:
 348:.\Print.c     **** 	            if((side.b.money[x]==0)&&(flag==0)){
 1663              		.loc 1 348 0 is_stmt 0 discriminator 1
 1664 0c68 97F8AF30 		ldrb	r3, [r7, #175]	@ zero_extendqisi2
 1665 0c6c 002B     		cmp	r3, #0
 1666 0c6e C4D1     		bne	.L133
 1667              	.L85:
 359:.\Print.c     ****                     }
 360:.\Print.c     **** 	            }
 361:.\Print.c     **** 			}		
 362:.\Print.c     **** 		}
 363:.\Print.c     ****     }
 364:.\Print.c     ****     Print_Bill_PutChar(10);
 1668              		.loc 1 364 0 is_stmt 1
 1669 0c70 0A20     		movs	r0, #10
 1670 0c72 FFF7FEFF 		bl	Print_Bill_PutChar
 365:.\Print.c     ****     Print_Bill_PutChar(10);
 1671              		.loc 1 365 0
 1672 0c76 0A20     		movs	r0, #10
 1673 0c78 FFF7FEFF 		bl	Print_Bill_PutChar
 366:.\Print.c     ****     Print_Bill_PutChar(10);
 1674              		.loc 1 366 0
 1675 0c7c 0A20     		movs	r0, #10
 1676 0c7e FFF7FEFF 		bl	Print_Bill_PutChar
 367:.\Print.c     ****     for(x=1;x<=print.message1[0];x++){
 1677              		.loc 1 367 0
 1678 0c82 0123     		movs	r3, #1
 1679 0c84 87F8AF30 		strb	r3, [r7, #175]
 1680 0c88 0DE0     		b	.L134
 1681              	.L135:
 368:.\Print.c     ****         Print_Bill_PutChar(print.message1[x]);
 1682              		.loc 1 368 0 discriminator 3
 1683 0c8a 97F8AF30 		ldrb	r3, [r7, #175]	@ zero_extendqisi2
 1684 0c8e 284A     		ldr	r2, .L144+12
 1685 0c90 1344     		add	r3, r3, r2
 1686 0c92 93F86430 		ldrb	r3, [r3, #100]	@ zero_extendqisi2
 1687 0c96 1846     		mov	r0, r3
 1688 0c98 FFF7FEFF 		bl	Print_Bill_PutChar
 367:.\Print.c     ****     for(x=1;x<=print.message1[0];x++){
 1689              		.loc 1 367 0 discriminator 3
ARM GAS  C:\Users\PROYEC~1\AppData\Local\Temp\ccMmmtPO.s 			page 39


 1690 0c9c 97F8AF30 		ldrb	r3, [r7, #175]	@ zero_extendqisi2
 1691 0ca0 0133     		adds	r3, r3, #1
 1692 0ca2 87F8AF30 		strb	r3, [r7, #175]
 1693              	.L134:
 367:.\Print.c     ****     for(x=1;x<=print.message1[0];x++){
 1694              		.loc 1 367 0 is_stmt 0 discriminator 1
 1695 0ca6 224B     		ldr	r3, .L144+12
 1696 0ca8 93F86430 		ldrb	r3, [r3, #100]	@ zero_extendqisi2
 1697 0cac 97F8AF20 		ldrb	r2, [r7, #175]	@ zero_extendqisi2
 1698 0cb0 9A42     		cmp	r2, r3
 1699 0cb2 EAD9     		bls	.L135
 369:.\Print.c     ****     }
 370:.\Print.c     ****     Print_Bill_PutChar(10);
 1700              		.loc 1 370 0 is_stmt 1
 1701 0cb4 0A20     		movs	r0, #10
 1702 0cb6 FFF7FEFF 		bl	Print_Bill_PutChar
 371:.\Print.c     ****     for(x=1;x<=print.message2[0];x++){
 1703              		.loc 1 371 0
 1704 0cba 0123     		movs	r3, #1
 1705 0cbc 87F8AF30 		strb	r3, [r7, #175]
 1706 0cc0 0DE0     		b	.L136
 1707              	.L137:
 372:.\Print.c     ****         Print_Bill_PutChar(print.message2[x]);
 1708              		.loc 1 372 0 discriminator 3
 1709 0cc2 97F8AF30 		ldrb	r3, [r7, #175]	@ zero_extendqisi2
 1710 0cc6 1A4A     		ldr	r2, .L144+12
 1711 0cc8 1344     		add	r3, r3, r2
 1712 0cca 93F88330 		ldrb	r3, [r3, #131]	@ zero_extendqisi2
 1713 0cce 1846     		mov	r0, r3
 1714 0cd0 FFF7FEFF 		bl	Print_Bill_PutChar
 371:.\Print.c     ****     for(x=1;x<=print.message2[0];x++){
 1715              		.loc 1 371 0 discriminator 3
 1716 0cd4 97F8AF30 		ldrb	r3, [r7, #175]	@ zero_extendqisi2
 1717 0cd8 0133     		adds	r3, r3, #1
 1718 0cda 87F8AF30 		strb	r3, [r7, #175]
 1719              	.L136:
 371:.\Print.c     ****     for(x=1;x<=print.message2[0];x++){
 1720              		.loc 1 371 0 is_stmt 0 discriminator 1
 1721 0cde 144B     		ldr	r3, .L144+12
 1722 0ce0 93F88330 		ldrb	r3, [r3, #131]	@ zero_extendqisi2
 1723 0ce4 97F8AF20 		ldrb	r2, [r7, #175]	@ zero_extendqisi2
 1724 0ce8 9A42     		cmp	r2, r3
 1725 0cea EAD9     		bls	.L137
 373:.\Print.c     ****     }
 374:.\Print.c     ****     Print_Bill_PutChar(10);
 1726              		.loc 1 374 0 is_stmt 1
 1727 0cec 0A20     		movs	r0, #10
 1728 0cee FFF7FEFF 		bl	Print_Bill_PutChar
 375:.\Print.c     ****     Print_Bill_PutChar(10);
 1729              		.loc 1 375 0
 1730 0cf2 0A20     		movs	r0, #10
 1731 0cf4 FFF7FEFF 		bl	Print_Bill_PutChar
 376:.\Print.c     ****     Print_Bill_PutChar(10);
 1732              		.loc 1 376 0
 1733 0cf8 0A20     		movs	r0, #10
 1734 0cfa FFF7FEFF 		bl	Print_Bill_PutChar
 377:.\Print.c     ****     Print_Bill_PutChar(10);
ARM GAS  C:\Users\PROYEC~1\AppData\Local\Temp\ccMmmtPO.s 			page 40


 1735              		.loc 1 377 0
 1736 0cfe 0A20     		movs	r0, #10
 1737 0d00 FFF7FEFF 		bl	Print_Bill_PutChar
 378:.\Print.c     ****     Print_Bill_PutChar(10);
 1738              		.loc 1 378 0
 1739 0d04 0A20     		movs	r0, #10
 1740 0d06 FFF7FEFF 		bl	Print_Bill_PutChar
 379:.\Print.c     ****     Print_Bill_PutChar(0x1D);
 1741              		.loc 1 379 0
 1742 0d0a 1D20     		movs	r0, #29
 1743 0d0c FFF7FEFF 		bl	Print_Bill_PutChar
 380:.\Print.c     ****     Print_Bill_PutChar(0x56);
 1744              		.loc 1 380 0
 1745 0d10 5620     		movs	r0, #86
 1746 0d12 FFF7FEFF 		bl	Print_Bill_PutChar
 381:.\Print.c     **** 	Print_Bill_PutChar(0x31);
 1747              		.loc 1 381 0
 1748 0d16 3120     		movs	r0, #49
 1749 0d18 FFF7FEFF 		bl	Print_Bill_PutChar
 382:.\Print.c     **** }
 1750              		.loc 1 382 0
 1751 0d1c B037     		adds	r7, r7, #176
 1752              		.cfi_def_cfa_offset 16
 1753 0d1e BD46     		mov	sp, r7
 1754              		.cfi_def_cfa_register 13
 1755              		@ sp needed
 1756 0d20 B0BD     		pop	{r4, r5, r7, pc}
 1757              	.L145:
 1758 0d22 00BF     		.align	2
 1759              	.L144:
 1760 0d24 00000000 		.word	digits
 1761 0d28 00000000 		.word	side
 1762 0d2c 00000000 		.word	decimalMoney
 1763 0d30 00000000 		.word	print
 1764              		.cfi_endproc
 1765              	.LFE56:
 1766              		.size	printBill, .-printBill
 1767              		.text
 1768              	.Letext0:
 1769              		.file 2 "c:\\program files (x86)\\cypress\\psoc creator\\3.3\\psoc creator\\import\\gnu\\arm\\4.9.
 1770              		.file 3 "c:\\program files (x86)\\cypress\\psoc creator\\3.3\\psoc creator\\import\\gnu\\arm\\4.9.
 1771              		.file 4 "Generated_Source\\PSoC5/cytypes.h"
 1772              		.file 5 ".\\VariablesG.h"
 1773              		.file 6 "Generated_Source\\PSoC5/core_cm3.h"
 1774              		.section	.debug_info,"",%progbits
 1775              	.Ldebug_info0:
 1776 0000 C8060000 		.4byte	0x6c8
 1777 0004 0400     		.2byte	0x4
 1778 0006 00000000 		.4byte	.Ldebug_abbrev0
 1779 000a 04       		.byte	0x4
 1780 000b 01       		.uleb128 0x1
 1781 000c 99010000 		.4byte	.LASF91
 1782 0010 01       		.byte	0x1
 1783 0011 E8020000 		.4byte	.LASF92
 1784 0015 12000000 		.4byte	.LASF93
 1785 0019 00000000 		.4byte	.Ldebug_ranges0+0
 1786 001d 00000000 		.4byte	0
ARM GAS  C:\Users\PROYEC~1\AppData\Local\Temp\ccMmmtPO.s 			page 41


 1787 0021 00000000 		.4byte	.Ldebug_line0
 1788 0025 02       		.uleb128 0x2
 1789 0026 01       		.byte	0x1
 1790 0027 06       		.byte	0x6
 1791 0028 91020000 		.4byte	.LASF0
 1792 002c 02       		.uleb128 0x2
 1793 002d 01       		.byte	0x1
 1794 002e 08       		.byte	0x8
 1795 002f 6D020000 		.4byte	.LASF1
 1796 0033 02       		.uleb128 0x2
 1797 0034 02       		.byte	0x2
 1798 0035 05       		.byte	0x5
 1799 0036 90000000 		.4byte	.LASF2
 1800 003a 02       		.uleb128 0x2
 1801 003b 02       		.byte	0x2
 1802 003c 07       		.byte	0x7
 1803 003d 0A030000 		.4byte	.LASF3
 1804 0041 03       		.uleb128 0x3
 1805 0042 D7030000 		.4byte	.LASF9
 1806 0046 02       		.byte	0x2
 1807 0047 3F       		.byte	0x3f
 1808 0048 4C000000 		.4byte	0x4c
 1809 004c 02       		.uleb128 0x2
 1810 004d 04       		.byte	0x4
 1811 004e 05       		.byte	0x5
 1812 004f 27030000 		.4byte	.LASF4
 1813 0053 02       		.uleb128 0x2
 1814 0054 04       		.byte	0x4
 1815 0055 07       		.byte	0x7
 1816 0056 8D030000 		.4byte	.LASF5
 1817 005a 02       		.uleb128 0x2
 1818 005b 08       		.byte	0x8
 1819 005c 05       		.byte	0x5
 1820 005d B4000000 		.4byte	.LASF6
 1821 0061 02       		.uleb128 0x2
 1822 0062 08       		.byte	0x8
 1823 0063 07       		.byte	0x7
 1824 0064 A5020000 		.4byte	.LASF7
 1825 0068 04       		.uleb128 0x4
 1826 0069 04       		.byte	0x4
 1827 006a 05       		.byte	0x5
 1828 006b 696E7400 		.ascii	"int\000"
 1829 006f 02       		.uleb128 0x2
 1830 0070 04       		.byte	0x4
 1831 0071 07       		.byte	0x7
 1832 0072 CC020000 		.4byte	.LASF8
 1833 0076 03       		.uleb128 0x3
 1834 0077 9D020000 		.4byte	.LASF10
 1835 007b 03       		.byte	0x3
 1836 007c 2C       		.byte	0x2c
 1837 007d 41000000 		.4byte	0x41
 1838 0081 03       		.uleb128 0x3
 1839 0082 0F010000 		.4byte	.LASF11
 1840 0086 04       		.byte	0x4
 1841 0087 A1       		.byte	0xa1
 1842 0088 2C000000 		.4byte	0x2c
 1843 008c 02       		.uleb128 0x2
ARM GAS  C:\Users\PROYEC~1\AppData\Local\Temp\ccMmmtPO.s 			page 42


 1844 008d 04       		.byte	0x4
 1845 008e 04       		.byte	0x4
 1846 008f 36010000 		.4byte	.LASF12
 1847 0093 02       		.uleb128 0x2
 1848 0094 08       		.byte	0x8
 1849 0095 04       		.byte	0x4
 1850 0096 A8030000 		.4byte	.LASF13
 1851 009a 03       		.uleb128 0x3
 1852 009b FC000000 		.4byte	.LASF14
 1853 009f 04       		.byte	0x4
 1854 00a0 AD       		.byte	0xad
 1855 00a1 61000000 		.4byte	0x61
 1856 00a5 02       		.uleb128 0x2
 1857 00a6 01       		.byte	0x1
 1858 00a7 08       		.byte	0x8
 1859 00a8 22030000 		.4byte	.LASF15
 1860 00ac 02       		.uleb128 0x2
 1861 00ad 04       		.byte	0x4
 1862 00ae 07       		.byte	0x7
 1863 00af A2000000 		.4byte	.LASF16
 1864 00b3 05       		.uleb128 0x5
 1865 00b4 71030000 		.4byte	.LASF26
 1866 00b8 96       		.byte	0x96
 1867 00b9 05       		.byte	0x5
 1868 00ba 4B       		.byte	0x4b
 1869 00bb 2C010000 		.4byte	0x12c
 1870 00bf 06       		.uleb128 0x6
 1871 00c0 49010000 		.4byte	.LASF17
 1872 00c4 05       		.byte	0x5
 1873 00c5 4C       		.byte	0x4c
 1874 00c6 2C010000 		.4byte	0x12c
 1875 00ca 00       		.byte	0
 1876 00cb 06       		.uleb128 0x6
 1877 00cc 55010000 		.4byte	.LASF18
 1878 00d0 05       		.byte	0x5
 1879 00d1 4D       		.byte	0x4d
 1880 00d2 2C010000 		.4byte	0x12c
 1881 00d6 14       		.byte	0x14
 1882 00d7 06       		.uleb128 0x6
 1883 00d8 61010000 		.4byte	.LASF19
 1884 00dc 05       		.byte	0x5
 1885 00dd 4E       		.byte	0x4e
 1886 00de 2C010000 		.4byte	0x12c
 1887 00e2 28       		.byte	0x28
 1888 00e3 06       		.uleb128 0x6
 1889 00e4 76010000 		.4byte	.LASF20
 1890 00e8 05       		.byte	0x5
 1891 00e9 4F       		.byte	0x4f
 1892 00ea 2C010000 		.4byte	0x12c
 1893 00ee 3C       		.byte	0x3c
 1894 00ef 06       		.uleb128 0x6
 1895 00f0 83000000 		.4byte	.LASF21
 1896 00f4 05       		.byte	0x5
 1897 00f5 50       		.byte	0x50
 1898 00f6 2C010000 		.4byte	0x12c
 1899 00fa 50       		.byte	0x50
 1900 00fb 06       		.uleb128 0x6
ARM GAS  C:\Users\PROYEC~1\AppData\Local\Temp\ccMmmtPO.s 			page 43


 1901 00fc 8C010000 		.4byte	.LASF22
 1902 0100 05       		.byte	0x5
 1903 0101 51       		.byte	0x51
 1904 0102 2C010000 		.4byte	0x12c
 1905 0106 64       		.byte	0x64
 1906 0107 06       		.uleb128 0x6
 1907 0108 C2000000 		.4byte	.LASF23
 1908 010c 05       		.byte	0x5
 1909 010d 52       		.byte	0x52
 1910 010e 3C010000 		.4byte	0x13c
 1911 0112 78       		.byte	0x78
 1912 0113 06       		.uleb128 0x6
 1913 0114 C7000000 		.4byte	.LASF24
 1914 0118 05       		.byte	0x5
 1915 0119 53       		.byte	0x53
 1916 011a 3C010000 		.4byte	0x13c
 1917 011e 82       		.byte	0x82
 1918 011f 06       		.uleb128 0x6
 1919 0120 CC000000 		.4byte	.LASF25
 1920 0124 05       		.byte	0x5
 1921 0125 54       		.byte	0x54
 1922 0126 3C010000 		.4byte	0x13c
 1923 012a 8C       		.byte	0x8c
 1924 012b 00       		.byte	0
 1925 012c 07       		.uleb128 0x7
 1926 012d 81000000 		.4byte	0x81
 1927 0131 3C010000 		.4byte	0x13c
 1928 0135 08       		.uleb128 0x8
 1929 0136 AC000000 		.4byte	0xac
 1930 013a 13       		.byte	0x13
 1931 013b 00       		.byte	0
 1932 013c 07       		.uleb128 0x7
 1933 013d 81000000 		.4byte	0x81
 1934 0141 4C010000 		.4byte	0x14c
 1935 0145 08       		.uleb128 0x8
 1936 0146 AC000000 		.4byte	0xac
 1937 014a 09       		.byte	0x9
 1938 014b 00       		.byte	0
 1939 014c 05       		.uleb128 0x5
 1940 014d 5F030000 		.4byte	.LASF27
 1941 0151 A2       		.byte	0xa2
 1942 0152 05       		.byte	0x5
 1943 0153 61       		.byte	0x61
 1944 0154 AD010000 		.4byte	0x1ad
 1945 0158 06       		.uleb128 0x6
 1946 0159 9A000000 		.4byte	.LASF28
 1947 015d 05       		.byte	0x5
 1948 015e 62       		.byte	0x62
 1949 015f AD010000 		.4byte	0x1ad
 1950 0163 00       		.byte	0
 1951 0164 09       		.uleb128 0x9
 1952 0165 6E697400 		.ascii	"nit\000"
 1953 0169 05       		.byte	0x5
 1954 016a 63       		.byte	0x63
 1955 016b BD010000 		.4byte	0x1bd
 1956 016f 1F       		.byte	0x1f
 1957 0170 06       		.uleb128 0x6
ARM GAS  C:\Users\PROYEC~1\AppData\Local\Temp\ccMmmtPO.s 			page 44


 1958 0171 E2000000 		.4byte	.LASF29
 1959 0175 05       		.byte	0x5
 1960 0176 64       		.byte	0x64
 1961 0177 BD010000 		.4byte	0x1bd
 1962 017b 2A       		.byte	0x2a
 1963 017c 06       		.uleb128 0x6
 1964 017d 27020000 		.4byte	.LASF30
 1965 0181 05       		.byte	0x5
 1966 0182 65       		.byte	0x65
 1967 0183 AD010000 		.4byte	0x1ad
 1968 0187 35       		.byte	0x35
 1969 0188 06       		.uleb128 0x6
 1970 0189 1D030000 		.4byte	.LASF31
 1971 018d 05       		.byte	0x5
 1972 018e 66       		.byte	0x66
 1973 018f CD010000 		.4byte	0x1cd
 1974 0193 54       		.byte	0x54
 1975 0194 06       		.uleb128 0x6
 1976 0195 F1030000 		.4byte	.LASF32
 1977 0199 05       		.byte	0x5
 1978 019a 67       		.byte	0x67
 1979 019b AD010000 		.4byte	0x1ad
 1980 019f 64       		.byte	0x64
 1981 01a0 06       		.uleb128 0x6
 1982 01a1 FA030000 		.4byte	.LASF33
 1983 01a5 05       		.byte	0x5
 1984 01a6 68       		.byte	0x68
 1985 01a7 AD010000 		.4byte	0x1ad
 1986 01ab 83       		.byte	0x83
 1987 01ac 00       		.byte	0
 1988 01ad 07       		.uleb128 0x7
 1989 01ae 81000000 		.4byte	0x81
 1990 01b2 BD010000 		.4byte	0x1bd
 1991 01b6 08       		.uleb128 0x8
 1992 01b7 AC000000 		.4byte	0xac
 1993 01bb 1E       		.byte	0x1e
 1994 01bc 00       		.byte	0
 1995 01bd 07       		.uleb128 0x7
 1996 01be 81000000 		.4byte	0x81
 1997 01c2 CD010000 		.4byte	0x1cd
 1998 01c6 08       		.uleb128 0x8
 1999 01c7 AC000000 		.4byte	0xac
 2000 01cb 0A       		.byte	0xa
 2001 01cc 00       		.byte	0
 2002 01cd 07       		.uleb128 0x7
 2003 01ce 81000000 		.4byte	0x81
 2004 01d2 DD010000 		.4byte	0x1dd
 2005 01d6 08       		.uleb128 0x8
 2006 01d7 AC000000 		.4byte	0xac
 2007 01db 0F       		.byte	0xf
 2008 01dc 00       		.byte	0
 2009 01dd 0A       		.uleb128 0xa
 2010 01de 16040000 		.4byte	.LASF34
 2011 01e2 6901     		.2byte	0x169
 2012 01e4 05       		.byte	0x5
 2013 01e5 74       		.byte	0x74
 2014 01e6 8A020000 		.4byte	0x28a
ARM GAS  C:\Users\PROYEC~1\AppData\Local\Temp\ccMmmtPO.s 			page 45


 2015 01ea 09       		.uleb128 0x9
 2016 01eb 64697200 		.ascii	"dir\000"
 2017 01ef 05       		.byte	0x5
 2018 01f0 75       		.byte	0x75
 2019 01f1 81000000 		.4byte	0x81
 2020 01f5 00       		.byte	0
 2021 01f6 06       		.uleb128 0x6
 2022 01f7 6D010000 		.4byte	.LASF35
 2023 01fb 05       		.byte	0x5
 2024 01fc 76       		.byte	0x76
 2025 01fd CD010000 		.4byte	0x1cd
 2026 0201 01       		.byte	0x1
 2027 0202 06       		.uleb128 0x6
 2028 0203 00000000 		.4byte	.LASF36
 2029 0207 05       		.byte	0x5
 2030 0208 77       		.byte	0x77
 2031 0209 CD010000 		.4byte	0x1cd
 2032 020d 11       		.byte	0x11
 2033 020e 06       		.uleb128 0x6
 2034 020f 83010000 		.4byte	.LASF37
 2035 0213 05       		.byte	0x5
 2036 0214 78       		.byte	0x78
 2037 0215 CD010000 		.4byte	0x1cd
 2038 0219 21       		.byte	0x21
 2039 021a 06       		.uleb128 0x6
 2040 021b 2F020000 		.4byte	.LASF38
 2041 021f 05       		.byte	0x5
 2042 0220 79       		.byte	0x79
 2043 0221 CD010000 		.4byte	0x1cd
 2044 0225 31       		.byte	0x31
 2045 0226 06       		.uleb128 0x6
 2046 0227 4E030000 		.4byte	.LASF39
 2047 022b 05       		.byte	0x5
 2048 022c 7A       		.byte	0x7a
 2049 022d 81000000 		.4byte	0x81
 2050 0231 41       		.byte	0x41
 2051 0232 09       		.uleb128 0x9
 2052 0233 70707500 		.ascii	"ppu\000"
 2053 0237 05       		.byte	0x5
 2054 0238 7B       		.byte	0x7b
 2055 0239 3C010000 		.4byte	0x13c
 2056 023d 42       		.byte	0x42
 2057 023e 06       		.uleb128 0x6
 2058 023f 7D030000 		.4byte	.LASF40
 2059 0243 05       		.byte	0x5
 2060 0244 7C       		.byte	0x7c
 2061 0245 8A020000 		.4byte	0x28a
 2062 0249 4C       		.byte	0x4c
 2063 024a 06       		.uleb128 0x6
 2064 024b 38020000 		.4byte	.LASF41
 2065 024f 05       		.byte	0x5
 2066 0250 7D       		.byte	0x7d
 2067 0251 8A020000 		.4byte	0x28a
 2068 0255 58       		.byte	0x58
 2069 0256 06       		.uleb128 0x6
 2070 0257 10040000 		.4byte	.LASF42
 2071 025b 05       		.byte	0x5
ARM GAS  C:\Users\PROYEC~1\AppData\Local\Temp\ccMmmtPO.s 			page 46


 2072 025c 7E       		.byte	0x7e
 2073 025d 9A020000 		.4byte	0x29a
 2074 0261 64       		.byte	0x64
 2075 0262 0B       		.uleb128 0xb
 2076 0263 46040000 		.4byte	.LASF43
 2077 0267 05       		.byte	0x5
 2078 0268 7F       		.byte	0x7f
 2079 0269 AA020000 		.4byte	0x2aa
 2080 026d 2C01     		.2byte	0x12c
 2081 026f 0B       		.uleb128 0xb
 2082 0270 7D000000 		.4byte	.LASF44
 2083 0274 05       		.byte	0x5
 2084 0275 80       		.byte	0x80
 2085 0276 81000000 		.4byte	0x81
 2086 027a 5401     		.2byte	0x154
 2087 027c 0B       		.uleb128 0xb
 2088 027d EA030000 		.4byte	.LASF45
 2089 0281 05       		.byte	0x5
 2090 0282 81       		.byte	0x81
 2091 0283 2C010000 		.4byte	0x12c
 2092 0287 5501     		.2byte	0x155
 2093 0289 00       		.byte	0
 2094 028a 07       		.uleb128 0x7
 2095 028b 81000000 		.4byte	0x81
 2096 028f 9A020000 		.4byte	0x29a
 2097 0293 08       		.uleb128 0x8
 2098 0294 AC000000 		.4byte	0xac
 2099 0298 0B       		.byte	0xb
 2100 0299 00       		.byte	0
 2101 029a 07       		.uleb128 0x7
 2102 029b 81000000 		.4byte	0x81
 2103 029f AA020000 		.4byte	0x2aa
 2104 02a3 08       		.uleb128 0x8
 2105 02a4 AC000000 		.4byte	0xac
 2106 02a8 C7       		.byte	0xc7
 2107 02a9 00       		.byte	0
 2108 02aa 07       		.uleb128 0x7
 2109 02ab 81000000 		.4byte	0x81
 2110 02af BA020000 		.4byte	0x2ba
 2111 02b3 08       		.uleb128 0x8
 2112 02b4 AC000000 		.4byte	0xac
 2113 02b8 27       		.byte	0x27
 2114 02b9 00       		.byte	0
 2115 02ba 0A       		.uleb128 0xa
 2116 02bb 15010000 		.4byte	.LASF46
 2117 02bf D202     		.2byte	0x2d2
 2118 02c1 05       		.byte	0x5
 2119 02c2 84       		.byte	0x84
 2120 02c3 DD020000 		.4byte	0x2dd
 2121 02c7 09       		.uleb128 0x9
 2122 02c8 6100     		.ascii	"a\000"
 2123 02ca 05       		.byte	0x5
 2124 02cb 85       		.byte	0x85
 2125 02cc DD010000 		.4byte	0x1dd
 2126 02d0 00       		.byte	0
 2127 02d1 0C       		.uleb128 0xc
 2128 02d2 6200     		.ascii	"b\000"
ARM GAS  C:\Users\PROYEC~1\AppData\Local\Temp\ccMmmtPO.s 			page 47


 2129 02d4 05       		.byte	0x5
 2130 02d5 86       		.byte	0x86
 2131 02d6 DD010000 		.4byte	0x1dd
 2132 02da 6901     		.2byte	0x169
 2133 02dc 00       		.byte	0
 2134 02dd 05       		.uleb128 0x5
 2135 02de DD000000 		.4byte	.LASF47
 2136 02e2 24       		.byte	0x24
 2137 02e3 05       		.byte	0x5
 2138 02e4 91       		.byte	0x91
 2139 02e5 26030000 		.4byte	0x326
 2140 02e9 06       		.uleb128 0x6
 2141 02ea 16040000 		.4byte	.LASF34
 2142 02ee 05       		.byte	0x5
 2143 02ef 92       		.byte	0x92
 2144 02f0 81000000 		.4byte	0x81
 2145 02f4 00       		.byte	0
 2146 02f5 06       		.uleb128 0x6
 2147 02f6 4E030000 		.4byte	.LASF39
 2148 02fa 05       		.byte	0x5
 2149 02fb 93       		.byte	0x93
 2150 02fc 81000000 		.4byte	0x81
 2151 0300 01       		.byte	0x1
 2152 0301 09       		.uleb128 0x9
 2153 0302 70707500 		.ascii	"ppu\000"
 2154 0306 05       		.byte	0x5
 2155 0307 94       		.byte	0x94
 2156 0308 3C010000 		.4byte	0x13c
 2157 030c 02       		.byte	0x2
 2158 030d 06       		.uleb128 0x6
 2159 030e 7D030000 		.4byte	.LASF40
 2160 0312 05       		.byte	0x5
 2161 0313 95       		.byte	0x95
 2162 0314 8A020000 		.4byte	0x28a
 2163 0318 0C       		.byte	0xc
 2164 0319 06       		.uleb128 0x6
 2165 031a 38020000 		.4byte	.LASF41
 2166 031e 05       		.byte	0x5
 2167 031f 96       		.byte	0x96
 2168 0320 8A020000 		.4byte	0x28a
 2169 0324 18       		.byte	0x18
 2170 0325 00       		.byte	0
 2171 0326 0D       		.uleb128 0xd
 2172 0327 3C040000 		.4byte	.LASF94
 2173 032b 01       		.byte	0x1
 2174 032c 3A       		.byte	0x3a
 2175 032d 00000000 		.4byte	.LFB56
 2176 0331 340D0000 		.4byte	.LFE56-.LFB56
 2177 0335 01       		.uleb128 0x1
 2178 0336 9C       		.byte	0x9c
 2179 0337 77040000 		.4byte	0x477
 2180 033b 0E       		.uleb128 0xe
 2181 033c 16040000 		.4byte	.LASF34
 2182 0340 01       		.byte	0x1
 2183 0341 3A       		.byte	0x3a
 2184 0342 81000000 		.4byte	0x81
 2185 0346 03       		.uleb128 0x3
ARM GAS  C:\Users\PROYEC~1\AppData\Local\Temp\ccMmmtPO.s 			page 48


 2186 0347 91       		.byte	0x91
 2187 0348 C77E     		.sleb128 -185
 2188 034a 0E       		.uleb128 0xe
 2189 034b 4E030000 		.4byte	.LASF39
 2190 034f 01       		.byte	0x1
 2191 0350 3A       		.byte	0x3a
 2192 0351 81000000 		.4byte	0x81
 2193 0355 03       		.uleb128 0x3
 2194 0356 91       		.byte	0x91
 2195 0357 C67E     		.sleb128 -186
 2196 0359 0E       		.uleb128 0xe
 2197 035a 03040000 		.4byte	.LASF48
 2198 035e 01       		.byte	0x1
 2199 035f 3A       		.byte	0x3a
 2200 0360 81000000 		.4byte	0x81
 2201 0364 03       		.uleb128 0x3
 2202 0365 91       		.byte	0x91
 2203 0366 C57E     		.sleb128 -187
 2204 0368 0E       		.uleb128 0xe
 2205 0369 AF030000 		.4byte	.LASF49
 2206 036d 01       		.byte	0x1
 2207 036e 3A       		.byte	0x3a
 2208 036f 77040000 		.4byte	0x477
 2209 0373 03       		.uleb128 0x3
 2210 0374 91       		.byte	0x91
 2211 0375 C07E     		.sleb128 -192
 2212 0377 0E       		.uleb128 0xe
 2213 0378 AB000000 		.4byte	.LASF50
 2214 037c 01       		.byte	0x1
 2215 037d 3A       		.byte	0x3a
 2216 037e 77040000 		.4byte	0x477
 2217 0382 02       		.uleb128 0x2
 2218 0383 91       		.byte	0x91
 2219 0384 00       		.sleb128 0
 2220 0385 0F       		.uleb128 0xf
 2221 0386 03010000 		.4byte	.LASF51
 2222 038a 01       		.byte	0x1
 2223 038b 3B       		.byte	0x3b
 2224 038c 7D040000 		.4byte	0x47d
 2225 0390 02       		.uleb128 0x2
 2226 0391 91       		.byte	0x91
 2227 0392 54       		.sleb128 -44
 2228 0393 0F       		.uleb128 0xf
 2229 0394 08040000 		.4byte	.LASF52
 2230 0398 01       		.byte	0x1
 2231 0399 3C       		.byte	0x3c
 2232 039a BD010000 		.4byte	0x1bd
 2233 039e 02       		.uleb128 0x2
 2234 039f 91       		.byte	0x91
 2235 03a0 48       		.sleb128 -56
 2236 03a1 0F       		.uleb128 0xf
 2237 03a2 4E020000 		.4byte	.LASF53
 2238 03a6 01       		.byte	0x1
 2239 03a7 3D       		.byte	0x3d
 2240 03a8 8D040000 		.4byte	0x48d
 2241 03ac 03       		.uleb128 0x3
 2242 03ad 91       		.byte	0x91
ARM GAS  C:\Users\PROYEC~1\AppData\Local\Temp\ccMmmtPO.s 			page 49


 2243 03ae B87F     		.sleb128 -72
 2244 03b0 0F       		.uleb128 0xf
 2245 03b1 56030000 		.4byte	.LASF54
 2246 03b5 01       		.byte	0x1
 2247 03b6 3E       		.byte	0x3e
 2248 03b7 3C010000 		.4byte	0x13c
 2249 03bb 03       		.uleb128 0x3
 2250 03bc 91       		.byte	0x91
 2251 03bd AC7F     		.sleb128 -84
 2252 03bf 0F       		.uleb128 0xf
 2253 03c0 74000000 		.4byte	.LASF55
 2254 03c4 01       		.byte	0x1
 2255 03c5 3F       		.byte	0x3f
 2256 03c6 3C010000 		.4byte	0x13c
 2257 03ca 03       		.uleb128 0x3
 2258 03cb 91       		.byte	0x91
 2259 03cc A07F     		.sleb128 -96
 2260 03ce 0F       		.uleb128 0xf
 2261 03cf 24040000 		.4byte	.LASF56
 2262 03d3 01       		.byte	0x1
 2263 03d4 40       		.byte	0x40
 2264 03d5 3C010000 		.4byte	0x13c
 2265 03d9 03       		.uleb128 0x3
 2266 03da 91       		.byte	0x91
 2267 03db 947F     		.sleb128 -108
 2268 03dd 0F       		.uleb128 0xf
 2269 03de D1000000 		.4byte	.LASF57
 2270 03e2 01       		.byte	0x1
 2271 03e3 41       		.byte	0x41
 2272 03e4 3C010000 		.4byte	0x13c
 2273 03e8 03       		.uleb128 0x3
 2274 03e9 91       		.byte	0x91
 2275 03ea 887F     		.sleb128 -120
 2276 03ec 0F       		.uleb128 0xf
 2277 03ed 7B020000 		.4byte	.LASF58
 2278 03f1 01       		.byte	0x1
 2279 03f2 42       		.byte	0x42
 2280 03f3 8A020000 		.4byte	0x28a
 2281 03f7 03       		.uleb128 0x3
 2282 03f8 91       		.byte	0x91
 2283 03f9 FC7E     		.sleb128 -132
 2284 03fb 0F       		.uleb128 0xf
 2285 03fc 30030000 		.4byte	.LASF59
 2286 0400 01       		.byte	0x1
 2287 0401 43       		.byte	0x43
 2288 0402 8A020000 		.4byte	0x28a
 2289 0406 03       		.uleb128 0x3
 2290 0407 91       		.byte	0x91
 2291 0408 F07E     		.sleb128 -144
 2292 040a 0F       		.uleb128 0xf
 2293 040b 4B040000 		.4byte	.LASF60
 2294 040f 01       		.byte	0x1
 2295 0410 44       		.byte	0x44
 2296 0411 8A020000 		.4byte	0x28a
 2297 0415 03       		.uleb128 0x3
 2298 0416 91       		.byte	0x91
 2299 0417 E47E     		.sleb128 -156
ARM GAS  C:\Users\PROYEC~1\AppData\Local\Temp\ccMmmtPO.s 			page 50


 2300 0419 0F       		.uleb128 0xf
 2301 041a E1030000 		.4byte	.LASF61
 2302 041e 01       		.byte	0x1
 2303 041f 45       		.byte	0x45
 2304 0420 9D040000 		.4byte	0x49d
 2305 0424 03       		.uleb128 0x3
 2306 0425 91       		.byte	0x91
 2307 0426 CC7E     		.sleb128 -180
 2308 0428 10       		.uleb128 0x10
 2309 0429 7800     		.ascii	"x\000"
 2310 042b 01       		.byte	0x1
 2311 042c 46       		.byte	0x46
 2312 042d 81000000 		.4byte	0x81
 2313 0431 02       		.uleb128 0x2
 2314 0432 91       		.byte	0x91
 2315 0433 6F       		.sleb128 -17
 2316 0434 10       		.uleb128 0x10
 2317 0435 7900     		.ascii	"y\000"
 2318 0437 01       		.byte	0x1
 2319 0438 46       		.byte	0x46
 2320 0439 81000000 		.4byte	0x81
 2321 043d 02       		.uleb128 0x2
 2322 043e 91       		.byte	0x91
 2323 043f 6E       		.sleb128 -18
 2324 0440 0F       		.uleb128 0xf
 2325 0441 1F040000 		.4byte	.LASF62
 2326 0445 01       		.byte	0x1
 2327 0446 46       		.byte	0x46
 2328 0447 81000000 		.4byte	0x81
 2329 044b 02       		.uleb128 0x2
 2330 044c 91       		.byte	0x91
 2331 044d 6D       		.sleb128 -19
 2332 044e 11       		.uleb128 0x11
 2333 044f 1A010000 		.4byte	.LASF95
 2334 0453 01       		.byte	0x1
 2335 0454 49       		.byte	0x49
 2336 0455 68000000 		.4byte	0x68
 2337 0459 5F040000 		.4byte	0x45f
 2338 045d 12       		.uleb128 0x12
 2339 045e 00       		.byte	0
 2340 045f 13       		.uleb128 0x13
 2341 0460 BE000000 		.4byte	.LBB2
 2342 0464 14000000 		.4byte	.LBE2-.LBB2
 2343 0468 14       		.uleb128 0x14
 2344 0469 1A010000 		.4byte	.LASF95
 2345 046d 01       		.byte	0x1
 2346 046e 49       		.byte	0x49
 2347 046f 68000000 		.4byte	0x68
 2348 0473 12       		.uleb128 0x12
 2349 0474 00       		.byte	0
 2350 0475 00       		.byte	0
 2351 0476 00       		.byte	0
 2352 0477 15       		.uleb128 0x15
 2353 0478 04       		.byte	0x4
 2354 0479 81000000 		.4byte	0x81
 2355 047d 07       		.uleb128 0x7
 2356 047e 81000000 		.4byte	0x81
ARM GAS  C:\Users\PROYEC~1\AppData\Local\Temp\ccMmmtPO.s 			page 51


 2357 0482 8D040000 		.4byte	0x48d
 2358 0486 08       		.uleb128 0x8
 2359 0487 AC000000 		.4byte	0xac
 2360 048b 18       		.byte	0x18
 2361 048c 00       		.byte	0
 2362 048d 07       		.uleb128 0x7
 2363 048e 81000000 		.4byte	0x81
 2364 0492 9D040000 		.4byte	0x49d
 2365 0496 08       		.uleb128 0x8
 2366 0497 AC000000 		.4byte	0xac
 2367 049b 0C       		.byte	0xc
 2368 049c 00       		.byte	0
 2369 049d 07       		.uleb128 0x7
 2370 049e 81000000 		.4byte	0x81
 2371 04a2 AD040000 		.4byte	0x4ad
 2372 04a6 08       		.uleb128 0x8
 2373 04a7 AC000000 		.4byte	0xac
 2374 04ab 16       		.byte	0x16
 2375 04ac 00       		.byte	0
 2376 04ad 16       		.uleb128 0x16
 2377 04ae B8030000 		.4byte	.LASF63
 2378 04b2 06       		.byte	0x6
 2379 04b3 1606     		.2byte	0x616
 2380 04b5 B9040000 		.4byte	0x4b9
 2381 04b9 17       		.uleb128 0x17
 2382 04ba 76000000 		.4byte	0x76
 2383 04be 18       		.uleb128 0x18
 2384 04bf 47020000 		.4byte	.LASF64
 2385 04c3 05       		.byte	0x5
 2386 04c4 2D       		.byte	0x2d
 2387 04c5 81000000 		.4byte	0x81
 2388 04c9 05       		.uleb128 0x5
 2389 04ca 03       		.byte	0x3
 2390 04cb 00000000 		.4byte	digits
 2391 04cf 18       		.uleb128 0x18
 2392 04d0 BC020000 		.4byte	.LASF65
 2393 04d4 05       		.byte	0x5
 2394 04d5 2E       		.byte	0x2e
 2395 04d6 81000000 		.4byte	0x81
 2396 04da 05       		.uleb128 0x5
 2397 04db 03       		.byte	0x3
 2398 04dc 00000000 		.4byte	ppux10
 2399 04e0 07       		.uleb128 0x7
 2400 04e1 81000000 		.4byte	0x81
 2401 04e5 F0040000 		.4byte	0x4f0
 2402 04e9 08       		.uleb128 0x8
 2403 04ea AC000000 		.4byte	0xac
 2404 04ee 02       		.byte	0x2
 2405 04ef 00       		.byte	0
 2406 04f0 18       		.uleb128 0x18
 2407 04f1 E3020000 		.4byte	.LASF66
 2408 04f5 05       		.byte	0x5
 2409 04f6 2F       		.byte	0x2f
 2410 04f7 E0040000 		.4byte	0x4e0
 2411 04fb 05       		.uleb128 0x5
 2412 04fc 03       		.byte	0x3
 2413 04fd 00000000 		.4byte	time
ARM GAS  C:\Users\PROYEC~1\AppData\Local\Temp\ccMmmtPO.s 			page 52


 2414 0501 18       		.uleb128 0x18
 2415 0502 49030000 		.4byte	.LASF67
 2416 0506 05       		.byte	0x5
 2417 0507 30       		.byte	0x30
 2418 0508 E0040000 		.4byte	0x4e0
 2419 050c 05       		.uleb128 0x5
 2420 050d 03       		.byte	0x3
 2421 050e 00000000 		.4byte	date
 2422 0512 18       		.uleb128 0x18
 2423 0513 D9020000 		.4byte	.LASF68
 2424 0517 05       		.byte	0x5
 2425 0518 31       		.byte	0x31
 2426 0519 E0040000 		.4byte	0x4e0
 2427 051d 05       		.uleb128 0x5
 2428 051e 03       		.byte	0x3
 2429 051f 00000000 		.4byte	timeSale1
 2430 0523 18       		.uleb128 0x18
 2431 0524 E8000000 		.4byte	.LASF69
 2432 0528 05       		.byte	0x5
 2433 0529 32       		.byte	0x32
 2434 052a E0040000 		.4byte	0x4e0
 2435 052e 05       		.uleb128 0x5
 2436 052f 03       		.byte	0x3
 2437 0530 00000000 		.4byte	dateSale1
 2438 0534 18       		.uleb128 0x18
 2439 0535 5D020000 		.4byte	.LASF70
 2440 0539 05       		.byte	0x5
 2441 053a 33       		.byte	0x33
 2442 053b E0040000 		.4byte	0x4e0
 2443 053f 05       		.uleb128 0x5
 2444 0540 03       		.byte	0x3
 2445 0541 00000000 		.4byte	timeSale2
 2446 0545 18       		.uleb128 0x18
 2447 0546 F2000000 		.4byte	.LASF71
 2448 054a 05       		.byte	0x5
 2449 054b 34       		.byte	0x34
 2450 054c E0040000 		.4byte	0x4e0
 2451 0550 05       		.uleb128 0x5
 2452 0551 03       		.byte	0x3
 2453 0552 00000000 		.4byte	dateSale2
 2454 0556 18       		.uleb128 0x18
 2455 0557 3C010000 		.4byte	.LASF72
 2456 055b 05       		.byte	0x5
 2457 055c 35       		.byte	0x35
 2458 055d 81000000 		.4byte	0x81
 2459 0561 05       		.uleb128 0x5
 2460 0562 03       		.byte	0x3
 2461 0563 00000000 		.4byte	decimalMoney
 2462 0567 18       		.uleb128 0x18
 2463 0568 83020000 		.4byte	.LASF73
 2464 056c 05       		.byte	0x5
 2465 056d 36       		.byte	0x36
 2466 056e 81000000 		.4byte	0x81
 2467 0572 05       		.uleb128 0x5
 2468 0573 03       		.byte	0x3
 2469 0574 00000000 		.4byte	decimalVolume
 2470 0578 07       		.uleb128 0x7
ARM GAS  C:\Users\PROYEC~1\AppData\Local\Temp\ccMmmtPO.s 			page 53


 2471 0579 81000000 		.4byte	0x81
 2472 057d 89050000 		.4byte	0x589
 2473 0581 19       		.uleb128 0x19
 2474 0582 AC000000 		.4byte	0xac
 2475 0586 2B01     		.2byte	0x12b
 2476 0588 00       		.byte	0
 2477 0589 18       		.uleb128 0x18
 2478 058a C5030000 		.4byte	.LASF74
 2479 058e 05       		.byte	0x5
 2480 058f 37       		.byte	0x37
 2481 0590 78050000 		.4byte	0x578
 2482 0594 05       		.uleb128 0x5
 2483 0595 03       		.byte	0x3
 2484 0596 00000000 		.4byte	RxPc
 2485 059a 18       		.uleb128 0x18
 2486 059b 58020000 		.4byte	.LASF75
 2487 059f 05       		.byte	0x5
 2488 05a0 38       		.byte	0x38
 2489 05a1 78050000 		.4byte	0x578
 2490 05a5 05       		.uleb128 0x5
 2491 05a6 03       		.byte	0x3
 2492 05a7 00000000 		.4byte	RxPu
 2493 05ab 18       		.uleb128 0x18
 2494 05ac 78030000 		.4byte	.LASF76
 2495 05b0 05       		.byte	0x5
 2496 05b1 39       		.byte	0x39
 2497 05b2 78050000 		.4byte	0x578
 2498 05b6 05       		.uleb128 0x5
 2499 05b7 03       		.byte	0x3
 2500 05b8 00000000 		.4byte	TxPu
 2501 05bc 18       		.uleb128 0x18
 2502 05bd CA030000 		.4byte	.LASF77
 2503 05c1 05       		.byte	0x5
 2504 05c2 3A       		.byte	0x3a
 2505 05c3 81000000 		.4byte	0x81
 2506 05c7 05       		.uleb128 0x5
 2507 05c8 03       		.byte	0x3
 2508 05c9 00000000 		.4byte	flowLoopPump
 2509 05cd 18       		.uleb128 0x18
 2510 05ce 09000000 		.4byte	.LASF78
 2511 05d2 05       		.byte	0x5
 2512 05d3 3B       		.byte	0x3b
 2513 05d4 81000000 		.4byte	0x81
 2514 05d8 05       		.uleb128 0x5
 2515 05d9 03       		.byte	0x3
 2516 05da 00000000 		.4byte	flowPump
 2517 05de 18       		.uleb128 0x18
 2518 05df 3F020000 		.4byte	.LASF79
 2519 05e3 05       		.byte	0x5
 2520 05e4 3C       		.byte	0x3c
 2521 05e5 E0040000 		.4byte	0x4e0
 2522 05e9 05       		.uleb128 0x5
 2523 05ea 03       		.byte	0x3
 2524 05eb 00000000 		.4byte	flagImp
 2525 05ef 18       		.uleb128 0x18
 2526 05f0 64030000 		.4byte	.LASF80
 2527 05f4 05       		.byte	0x5
ARM GAS  C:\Users\PROYEC~1\AppData\Local\Temp\ccMmmtPO.s 			page 54


 2528 05f5 3D       		.byte	0x3d
 2529 05f6 E0040000 		.4byte	0x4e0
 2530 05fa 05       		.uleb128 0x5
 2531 05fb 03       		.byte	0x3
 2532 05fc 00000000 		.4byte	flagHandleUp
 2533 0600 18       		.uleb128 0x18
 2534 0601 3B030000 		.4byte	.LASF81
 2535 0605 05       		.byte	0x5
 2536 0606 3E       		.byte	0x3e
 2537 0607 E0040000 		.4byte	0x4e0
 2538 060b 05       		.uleb128 0x5
 2539 060c 03       		.byte	0x3
 2540 060d 00000000 		.4byte	flagAuthorize
 2541 0611 18       		.uleb128 0x18
 2542 0612 2D010000 		.4byte	.LASF82
 2543 0616 05       		.byte	0x5
 2544 0617 3F       		.byte	0x3f
 2545 0618 E0040000 		.4byte	0x4e0
 2546 061c 05       		.uleb128 0x5
 2547 061d 03       		.byte	0x3
 2548 061e 00000000 		.4byte	flagSale
 2549 0622 18       		.uleb128 0x18
 2550 0623 4E030000 		.4byte	.LASF39
 2551 0627 05       		.byte	0x5
 2552 0628 40       		.byte	0x40
 2553 0629 81000000 		.4byte	0x81
 2554 062d 05       		.uleb128 0x5
 2555 062e 03       		.byte	0x3
 2556 062f 00000000 		.4byte	product
 2557 0633 07       		.uleb128 0x7
 2558 0634 81000000 		.4byte	0x81
 2559 0638 43060000 		.4byte	0x643
 2560 063c 08       		.uleb128 0x8
 2561 063d AC000000 		.4byte	0xac
 2562 0641 1D       		.byte	0x1d
 2563 0642 00       		.byte	0
 2564 0643 18       		.uleb128 0x18
 2565 0644 9F030000 		.4byte	.LASF83
 2566 0648 05       		.byte	0x5
 2567 0649 41       		.byte	0x41
 2568 064a 33060000 		.4byte	0x633
 2569 064e 05       		.uleb128 0x5
 2570 064f 03       		.byte	0x3
 2571 0650 00000000 		.4byte	valuePPU
 2572 0654 18       		.uleb128 0x18
 2573 0655 83030000 		.4byte	.LASF84
 2574 0659 05       		.byte	0x5
 2575 065a 42       		.byte	0x42
 2576 065b 9A000000 		.4byte	0x9a
 2577 065f 05       		.uleb128 0x5
 2578 0660 03       		.byte	0x3
 2579 0661 00000000 		.4byte	countSale
 2580 0665 18       		.uleb128 0x18
 2581 0666 C3020000 		.4byte	.LASF85
 2582 066a 05       		.byte	0x5
 2583 066b 43       		.byte	0x43
 2584 066c E0040000 		.4byte	0x4e0
ARM GAS  C:\Users\PROYEC~1\AppData\Local\Temp\ccMmmtPO.s 			page 55


 2585 0670 05       		.uleb128 0x5
 2586 0671 03       		.byte	0x3
 2587 0672 00000000 		.4byte	countImp
 2588 0676 18       		.uleb128 0x18
 2589 0677 F2020000 		.4byte	.LASF86
 2590 067b 05       		.byte	0x5
 2591 067c 57       		.byte	0x57
 2592 067d B3000000 		.4byte	0xb3
 2593 0681 05       		.uleb128 0x5
 2594 0682 03       		.byte	0x3
 2595 0683 00000000 		.4byte	Buffer_LCD1
 2596 0687 18       		.uleb128 0x18
 2597 0688 FE020000 		.4byte	.LASF87
 2598 068c 05       		.byte	0x5
 2599 068d 58       		.byte	0x58
 2600 068e B3000000 		.4byte	0xb3
 2601 0692 05       		.uleb128 0x5
 2602 0693 03       		.byte	0x3
 2603 0694 00000000 		.4byte	Buffer_LCD2
 2604 0698 18       		.uleb128 0x18
 2605 0699 67020000 		.4byte	.LASF88
 2606 069d 05       		.byte	0x5
 2607 069e 6B       		.byte	0x6b
 2608 069f 4C010000 		.4byte	0x14c
 2609 06a3 05       		.uleb128 0x5
 2610 06a4 03       		.byte	0x3
 2611 06a5 00000000 		.4byte	print
 2612 06a9 18       		.uleb128 0x18
 2613 06aa 31040000 		.4byte	.LASF89
 2614 06ae 05       		.byte	0x5
 2615 06af 89       		.byte	0x89
 2616 06b0 BA020000 		.4byte	0x2ba
 2617 06b4 05       		.uleb128 0x5
 2618 06b5 03       		.byte	0x3
 2619 06b6 00000000 		.4byte	side
 2620 06ba 18       		.uleb128 0x18
 2621 06bb 36040000 		.4byte	.LASF90
 2622 06bf 05       		.byte	0x5
 2623 06c0 99       		.byte	0x99
 2624 06c1 DD020000 		.4byte	0x2dd
 2625 06c5 05       		.uleb128 0x5
 2626 06c6 03       		.byte	0x3
 2627 06c7 00000000 		.4byte	bSale
 2628 06cb 00       		.byte	0
 2629              		.section	.debug_abbrev,"",%progbits
 2630              	.Ldebug_abbrev0:
 2631 0000 01       		.uleb128 0x1
 2632 0001 11       		.uleb128 0x11
 2633 0002 01       		.byte	0x1
 2634 0003 25       		.uleb128 0x25
 2635 0004 0E       		.uleb128 0xe
 2636 0005 13       		.uleb128 0x13
 2637 0006 0B       		.uleb128 0xb
 2638 0007 03       		.uleb128 0x3
 2639 0008 0E       		.uleb128 0xe
 2640 0009 1B       		.uleb128 0x1b
 2641 000a 0E       		.uleb128 0xe
ARM GAS  C:\Users\PROYEC~1\AppData\Local\Temp\ccMmmtPO.s 			page 56


 2642 000b 55       		.uleb128 0x55
 2643 000c 17       		.uleb128 0x17
 2644 000d 11       		.uleb128 0x11
 2645 000e 01       		.uleb128 0x1
 2646 000f 10       		.uleb128 0x10
 2647 0010 17       		.uleb128 0x17
 2648 0011 00       		.byte	0
 2649 0012 00       		.byte	0
 2650 0013 02       		.uleb128 0x2
 2651 0014 24       		.uleb128 0x24
 2652 0015 00       		.byte	0
 2653 0016 0B       		.uleb128 0xb
 2654 0017 0B       		.uleb128 0xb
 2655 0018 3E       		.uleb128 0x3e
 2656 0019 0B       		.uleb128 0xb
 2657 001a 03       		.uleb128 0x3
 2658 001b 0E       		.uleb128 0xe
 2659 001c 00       		.byte	0
 2660 001d 00       		.byte	0
 2661 001e 03       		.uleb128 0x3
 2662 001f 16       		.uleb128 0x16
 2663 0020 00       		.byte	0
 2664 0021 03       		.uleb128 0x3
 2665 0022 0E       		.uleb128 0xe
 2666 0023 3A       		.uleb128 0x3a
 2667 0024 0B       		.uleb128 0xb
 2668 0025 3B       		.uleb128 0x3b
 2669 0026 0B       		.uleb128 0xb
 2670 0027 49       		.uleb128 0x49
 2671 0028 13       		.uleb128 0x13
 2672 0029 00       		.byte	0
 2673 002a 00       		.byte	0
 2674 002b 04       		.uleb128 0x4
 2675 002c 24       		.uleb128 0x24
 2676 002d 00       		.byte	0
 2677 002e 0B       		.uleb128 0xb
 2678 002f 0B       		.uleb128 0xb
 2679 0030 3E       		.uleb128 0x3e
 2680 0031 0B       		.uleb128 0xb
 2681 0032 03       		.uleb128 0x3
 2682 0033 08       		.uleb128 0x8
 2683 0034 00       		.byte	0
 2684 0035 00       		.byte	0
 2685 0036 05       		.uleb128 0x5
 2686 0037 13       		.uleb128 0x13
 2687 0038 01       		.byte	0x1
 2688 0039 03       		.uleb128 0x3
 2689 003a 0E       		.uleb128 0xe
 2690 003b 0B       		.uleb128 0xb
 2691 003c 0B       		.uleb128 0xb
 2692 003d 3A       		.uleb128 0x3a
 2693 003e 0B       		.uleb128 0xb
 2694 003f 3B       		.uleb128 0x3b
 2695 0040 0B       		.uleb128 0xb
 2696 0041 01       		.uleb128 0x1
 2697 0042 13       		.uleb128 0x13
 2698 0043 00       		.byte	0
ARM GAS  C:\Users\PROYEC~1\AppData\Local\Temp\ccMmmtPO.s 			page 57


 2699 0044 00       		.byte	0
 2700 0045 06       		.uleb128 0x6
 2701 0046 0D       		.uleb128 0xd
 2702 0047 00       		.byte	0
 2703 0048 03       		.uleb128 0x3
 2704 0049 0E       		.uleb128 0xe
 2705 004a 3A       		.uleb128 0x3a
 2706 004b 0B       		.uleb128 0xb
 2707 004c 3B       		.uleb128 0x3b
 2708 004d 0B       		.uleb128 0xb
 2709 004e 49       		.uleb128 0x49
 2710 004f 13       		.uleb128 0x13
 2711 0050 38       		.uleb128 0x38
 2712 0051 0B       		.uleb128 0xb
 2713 0052 00       		.byte	0
 2714 0053 00       		.byte	0
 2715 0054 07       		.uleb128 0x7
 2716 0055 01       		.uleb128 0x1
 2717 0056 01       		.byte	0x1
 2718 0057 49       		.uleb128 0x49
 2719 0058 13       		.uleb128 0x13
 2720 0059 01       		.uleb128 0x1
 2721 005a 13       		.uleb128 0x13
 2722 005b 00       		.byte	0
 2723 005c 00       		.byte	0
 2724 005d 08       		.uleb128 0x8
 2725 005e 21       		.uleb128 0x21
 2726 005f 00       		.byte	0
 2727 0060 49       		.uleb128 0x49
 2728 0061 13       		.uleb128 0x13
 2729 0062 2F       		.uleb128 0x2f
 2730 0063 0B       		.uleb128 0xb
 2731 0064 00       		.byte	0
 2732 0065 00       		.byte	0
 2733 0066 09       		.uleb128 0x9
 2734 0067 0D       		.uleb128 0xd
 2735 0068 00       		.byte	0
 2736 0069 03       		.uleb128 0x3
 2737 006a 08       		.uleb128 0x8
 2738 006b 3A       		.uleb128 0x3a
 2739 006c 0B       		.uleb128 0xb
 2740 006d 3B       		.uleb128 0x3b
 2741 006e 0B       		.uleb128 0xb
 2742 006f 49       		.uleb128 0x49
 2743 0070 13       		.uleb128 0x13
 2744 0071 38       		.uleb128 0x38
 2745 0072 0B       		.uleb128 0xb
 2746 0073 00       		.byte	0
 2747 0074 00       		.byte	0
 2748 0075 0A       		.uleb128 0xa
 2749 0076 13       		.uleb128 0x13
 2750 0077 01       		.byte	0x1
 2751 0078 03       		.uleb128 0x3
 2752 0079 0E       		.uleb128 0xe
 2753 007a 0B       		.uleb128 0xb
 2754 007b 05       		.uleb128 0x5
 2755 007c 3A       		.uleb128 0x3a
ARM GAS  C:\Users\PROYEC~1\AppData\Local\Temp\ccMmmtPO.s 			page 58


 2756 007d 0B       		.uleb128 0xb
 2757 007e 3B       		.uleb128 0x3b
 2758 007f 0B       		.uleb128 0xb
 2759 0080 01       		.uleb128 0x1
 2760 0081 13       		.uleb128 0x13
 2761 0082 00       		.byte	0
 2762 0083 00       		.byte	0
 2763 0084 0B       		.uleb128 0xb
 2764 0085 0D       		.uleb128 0xd
 2765 0086 00       		.byte	0
 2766 0087 03       		.uleb128 0x3
 2767 0088 0E       		.uleb128 0xe
 2768 0089 3A       		.uleb128 0x3a
 2769 008a 0B       		.uleb128 0xb
 2770 008b 3B       		.uleb128 0x3b
 2771 008c 0B       		.uleb128 0xb
 2772 008d 49       		.uleb128 0x49
 2773 008e 13       		.uleb128 0x13
 2774 008f 38       		.uleb128 0x38
 2775 0090 05       		.uleb128 0x5
 2776 0091 00       		.byte	0
 2777 0092 00       		.byte	0
 2778 0093 0C       		.uleb128 0xc
 2779 0094 0D       		.uleb128 0xd
 2780 0095 00       		.byte	0
 2781 0096 03       		.uleb128 0x3
 2782 0097 08       		.uleb128 0x8
 2783 0098 3A       		.uleb128 0x3a
 2784 0099 0B       		.uleb128 0xb
 2785 009a 3B       		.uleb128 0x3b
 2786 009b 0B       		.uleb128 0xb
 2787 009c 49       		.uleb128 0x49
 2788 009d 13       		.uleb128 0x13
 2789 009e 38       		.uleb128 0x38
 2790 009f 05       		.uleb128 0x5
 2791 00a0 00       		.byte	0
 2792 00a1 00       		.byte	0
 2793 00a2 0D       		.uleb128 0xd
 2794 00a3 2E       		.uleb128 0x2e
 2795 00a4 01       		.byte	0x1
 2796 00a5 3F       		.uleb128 0x3f
 2797 00a6 19       		.uleb128 0x19
 2798 00a7 03       		.uleb128 0x3
 2799 00a8 0E       		.uleb128 0xe
 2800 00a9 3A       		.uleb128 0x3a
 2801 00aa 0B       		.uleb128 0xb
 2802 00ab 3B       		.uleb128 0x3b
 2803 00ac 0B       		.uleb128 0xb
 2804 00ad 27       		.uleb128 0x27
 2805 00ae 19       		.uleb128 0x19
 2806 00af 11       		.uleb128 0x11
 2807 00b0 01       		.uleb128 0x1
 2808 00b1 12       		.uleb128 0x12
 2809 00b2 06       		.uleb128 0x6
 2810 00b3 40       		.uleb128 0x40
 2811 00b4 18       		.uleb128 0x18
 2812 00b5 9642     		.uleb128 0x2116
ARM GAS  C:\Users\PROYEC~1\AppData\Local\Temp\ccMmmtPO.s 			page 59


 2813 00b7 19       		.uleb128 0x19
 2814 00b8 01       		.uleb128 0x1
 2815 00b9 13       		.uleb128 0x13
 2816 00ba 00       		.byte	0
 2817 00bb 00       		.byte	0
 2818 00bc 0E       		.uleb128 0xe
 2819 00bd 05       		.uleb128 0x5
 2820 00be 00       		.byte	0
 2821 00bf 03       		.uleb128 0x3
 2822 00c0 0E       		.uleb128 0xe
 2823 00c1 3A       		.uleb128 0x3a
 2824 00c2 0B       		.uleb128 0xb
 2825 00c3 3B       		.uleb128 0x3b
 2826 00c4 0B       		.uleb128 0xb
 2827 00c5 49       		.uleb128 0x49
 2828 00c6 13       		.uleb128 0x13
 2829 00c7 02       		.uleb128 0x2
 2830 00c8 18       		.uleb128 0x18
 2831 00c9 00       		.byte	0
 2832 00ca 00       		.byte	0
 2833 00cb 0F       		.uleb128 0xf
 2834 00cc 34       		.uleb128 0x34
 2835 00cd 00       		.byte	0
 2836 00ce 03       		.uleb128 0x3
 2837 00cf 0E       		.uleb128 0xe
 2838 00d0 3A       		.uleb128 0x3a
 2839 00d1 0B       		.uleb128 0xb
 2840 00d2 3B       		.uleb128 0x3b
 2841 00d3 0B       		.uleb128 0xb
 2842 00d4 49       		.uleb128 0x49
 2843 00d5 13       		.uleb128 0x13
 2844 00d6 02       		.uleb128 0x2
 2845 00d7 18       		.uleb128 0x18
 2846 00d8 00       		.byte	0
 2847 00d9 00       		.byte	0
 2848 00da 10       		.uleb128 0x10
 2849 00db 34       		.uleb128 0x34
 2850 00dc 00       		.byte	0
 2851 00dd 03       		.uleb128 0x3
 2852 00de 08       		.uleb128 0x8
 2853 00df 3A       		.uleb128 0x3a
 2854 00e0 0B       		.uleb128 0xb
 2855 00e1 3B       		.uleb128 0x3b
 2856 00e2 0B       		.uleb128 0xb
 2857 00e3 49       		.uleb128 0x49
 2858 00e4 13       		.uleb128 0x13
 2859 00e5 02       		.uleb128 0x2
 2860 00e6 18       		.uleb128 0x18
 2861 00e7 00       		.byte	0
 2862 00e8 00       		.byte	0
 2863 00e9 11       		.uleb128 0x11
 2864 00ea 2E       		.uleb128 0x2e
 2865 00eb 01       		.byte	0x1
 2866 00ec 3F       		.uleb128 0x3f
 2867 00ed 19       		.uleb128 0x19
 2868 00ee 03       		.uleb128 0x3
 2869 00ef 0E       		.uleb128 0xe
ARM GAS  C:\Users\PROYEC~1\AppData\Local\Temp\ccMmmtPO.s 			page 60


 2870 00f0 3A       		.uleb128 0x3a
 2871 00f1 0B       		.uleb128 0xb
 2872 00f2 3B       		.uleb128 0x3b
 2873 00f3 0B       		.uleb128 0xb
 2874 00f4 49       		.uleb128 0x49
 2875 00f5 13       		.uleb128 0x13
 2876 00f6 3C       		.uleb128 0x3c
 2877 00f7 19       		.uleb128 0x19
 2878 00f8 01       		.uleb128 0x1
 2879 00f9 13       		.uleb128 0x13
 2880 00fa 00       		.byte	0
 2881 00fb 00       		.byte	0
 2882 00fc 12       		.uleb128 0x12
 2883 00fd 18       		.uleb128 0x18
 2884 00fe 00       		.byte	0
 2885 00ff 00       		.byte	0
 2886 0100 00       		.byte	0
 2887 0101 13       		.uleb128 0x13
 2888 0102 0B       		.uleb128 0xb
 2889 0103 01       		.byte	0x1
 2890 0104 11       		.uleb128 0x11
 2891 0105 01       		.uleb128 0x1
 2892 0106 12       		.uleb128 0x12
 2893 0107 06       		.uleb128 0x6
 2894 0108 00       		.byte	0
 2895 0109 00       		.byte	0
 2896 010a 14       		.uleb128 0x14
 2897 010b 2E       		.uleb128 0x2e
 2898 010c 01       		.byte	0x1
 2899 010d 3F       		.uleb128 0x3f
 2900 010e 19       		.uleb128 0x19
 2901 010f 03       		.uleb128 0x3
 2902 0110 0E       		.uleb128 0xe
 2903 0111 3A       		.uleb128 0x3a
 2904 0112 0B       		.uleb128 0xb
 2905 0113 3B       		.uleb128 0x3b
 2906 0114 0B       		.uleb128 0xb
 2907 0115 49       		.uleb128 0x49
 2908 0116 13       		.uleb128 0x13
 2909 0117 3C       		.uleb128 0x3c
 2910 0118 19       		.uleb128 0x19
 2911 0119 00       		.byte	0
 2912 011a 00       		.byte	0
 2913 011b 15       		.uleb128 0x15
 2914 011c 0F       		.uleb128 0xf
 2915 011d 00       		.byte	0
 2916 011e 0B       		.uleb128 0xb
 2917 011f 0B       		.uleb128 0xb
 2918 0120 49       		.uleb128 0x49
 2919 0121 13       		.uleb128 0x13
 2920 0122 00       		.byte	0
 2921 0123 00       		.byte	0
 2922 0124 16       		.uleb128 0x16
 2923 0125 34       		.uleb128 0x34
 2924 0126 00       		.byte	0
 2925 0127 03       		.uleb128 0x3
 2926 0128 0E       		.uleb128 0xe
ARM GAS  C:\Users\PROYEC~1\AppData\Local\Temp\ccMmmtPO.s 			page 61


 2927 0129 3A       		.uleb128 0x3a
 2928 012a 0B       		.uleb128 0xb
 2929 012b 3B       		.uleb128 0x3b
 2930 012c 05       		.uleb128 0x5
 2931 012d 49       		.uleb128 0x49
 2932 012e 13       		.uleb128 0x13
 2933 012f 3F       		.uleb128 0x3f
 2934 0130 19       		.uleb128 0x19
 2935 0131 3C       		.uleb128 0x3c
 2936 0132 19       		.uleb128 0x19
 2937 0133 00       		.byte	0
 2938 0134 00       		.byte	0
 2939 0135 17       		.uleb128 0x17
 2940 0136 35       		.uleb128 0x35
 2941 0137 00       		.byte	0
 2942 0138 49       		.uleb128 0x49
 2943 0139 13       		.uleb128 0x13
 2944 013a 00       		.byte	0
 2945 013b 00       		.byte	0
 2946 013c 18       		.uleb128 0x18
 2947 013d 34       		.uleb128 0x34
 2948 013e 00       		.byte	0
 2949 013f 03       		.uleb128 0x3
 2950 0140 0E       		.uleb128 0xe
 2951 0141 3A       		.uleb128 0x3a
 2952 0142 0B       		.uleb128 0xb
 2953 0143 3B       		.uleb128 0x3b
 2954 0144 0B       		.uleb128 0xb
 2955 0145 49       		.uleb128 0x49
 2956 0146 13       		.uleb128 0x13
 2957 0147 3F       		.uleb128 0x3f
 2958 0148 19       		.uleb128 0x19
 2959 0149 02       		.uleb128 0x2
 2960 014a 18       		.uleb128 0x18
 2961 014b 00       		.byte	0
 2962 014c 00       		.byte	0
 2963 014d 19       		.uleb128 0x19
 2964 014e 21       		.uleb128 0x21
 2965 014f 00       		.byte	0
 2966 0150 49       		.uleb128 0x49
 2967 0151 13       		.uleb128 0x13
 2968 0152 2F       		.uleb128 0x2f
 2969 0153 05       		.uleb128 0x5
 2970 0154 00       		.byte	0
 2971 0155 00       		.byte	0
 2972 0156 00       		.byte	0
 2973              		.section	.debug_aranges,"",%progbits
 2974 0000 1C000000 		.4byte	0x1c
 2975 0004 0200     		.2byte	0x2
 2976 0006 00000000 		.4byte	.Ldebug_info0
 2977 000a 04       		.byte	0x4
 2978 000b 00       		.byte	0
 2979 000c 0000     		.2byte	0
 2980 000e 0000     		.2byte	0
 2981 0010 00000000 		.4byte	.LFB56
 2982 0014 340D0000 		.4byte	.LFE56-.LFB56
 2983 0018 00000000 		.4byte	0
ARM GAS  C:\Users\PROYEC~1\AppData\Local\Temp\ccMmmtPO.s 			page 62


 2984 001c 00000000 		.4byte	0
 2985              		.section	.debug_ranges,"",%progbits
 2986              	.Ldebug_ranges0:
 2987 0000 00000000 		.4byte	.LFB56
 2988 0004 340D0000 		.4byte	.LFE56
 2989 0008 00000000 		.4byte	0
 2990 000c 00000000 		.4byte	0
 2991              		.section	.debug_line,"",%progbits
 2992              	.Ldebug_line0:
 2993 0000 2E050000 		.section	.debug_str,"MS",%progbits,1
 2993      02005C01 
 2993      00000201 
 2993      FB0E0D00 
 2993      01010101 
 2994              	.LASF36:
 2995 0000 70726F64 		.ascii	"product2\000"
 2995      75637432 
 2995      00
 2996              	.LASF78:
 2997 0009 666C6F77 		.ascii	"flowPump\000"
 2997      50756D70 
 2997      00
 2998              	.LASF93:
 2999 0012 433A5C55 		.ascii	"C:\\Users\\Proyectos_Hardware\\Dropbox\\Proyecto Co"
 2999      73657273 
 2999      5C50726F 
 2999      79656374 
 2999      6F735F48 
 3000 0041 6E74726F 		.ascii	"ntroller\\Mux Advance Encore V1_00\\MuxAdvance.cyds"
 3000      6C6C6572 
 3000      5C4D7578 
 3000      20416476 
 3000      616E6365 
 3001 0072 6E00     		.ascii	"n\000"
 3002              	.LASF55:
 3003 0074 6D73675F 		.ascii	"msg_time\000"
 3003      74696D65 
 3003      00
 3004              	.LASF44:
 3005 007d 73746174 		.ascii	"state\000"
 3005      6500
 3006              	.LASF21:
 3007 0083 746F7461 		.ascii	"totalVolume2\000"
 3007      6C566F6C 
 3007      756D6532 
 3007      00
 3008              	.LASF2:
 3009 0090 73686F72 		.ascii	"short int\000"
 3009      7420696E 
 3009      7400
 3010              	.LASF28:
 3011 009a 73746174 		.ascii	"station\000"
 3011      696F6E00 
 3012              	.LASF16:
 3013 00a2 73697A65 		.ascii	"sizetype\000"
 3013      74797065 
 3013      00
ARM GAS  C:\Users\PROYEC~1\AppData\Local\Temp\ccMmmtPO.s 			page 63


 3014              	.LASF50:
 3015 00ab 73616C65 		.ascii	"saleTime\000"
 3015      54696D65 
 3015      00
 3016              	.LASF6:
 3017 00b4 6C6F6E67 		.ascii	"long long int\000"
 3017      206C6F6E 
 3017      6720696E 
 3017      7400
 3018              	.LASF23:
 3019 00c2 70707531 		.ascii	"ppu1\000"
 3019      00
 3020              	.LASF24:
 3021 00c7 70707532 		.ascii	"ppu2\000"
 3021      00
 3022              	.LASF25:
 3023 00cc 70707533 		.ascii	"ppu3\000"
 3023      00
 3024              	.LASF57:
 3025 00d1 6D73675F 		.ascii	"msg_product\000"
 3025      70726F64 
 3025      75637400 
 3026              	.LASF47:
 3027 00dd 62696C6C 		.ascii	"bill\000"
 3027      00
 3028              	.LASF29:
 3029 00e2 70686F6E 		.ascii	"phone\000"
 3029      6500
 3030              	.LASF69:
 3031 00e8 64617465 		.ascii	"dateSale1\000"
 3031      53616C65 
 3031      3100
 3032              	.LASF71:
 3033 00f2 64617465 		.ascii	"dateSale2\000"
 3033      53616C65 
 3033      3200
 3034              	.LASF14:
 3035 00fc 75696E74 		.ascii	"uint64\000"
 3035      363400
 3036              	.LASF51:
 3037 0103 6D73675F 		.ascii	"msg_station\000"
 3037      73746174 
 3037      696F6E00 
 3038              	.LASF11:
 3039 010f 75696E74 		.ascii	"uint8\000"
 3039      3800
 3040              	.LASF46:
 3041 0115 70756D70 		.ascii	"pump\000"
 3041      00
 3042              	.LASF95:
 3043 011a 5072696E 		.ascii	"Print_Bill_PutChar\000"
 3043      745F4269 
 3043      6C6C5F50 
 3043      75744368 
 3043      617200
 3044              	.LASF82:
 3045 012d 666C6167 		.ascii	"flagSale\000"
ARM GAS  C:\Users\PROYEC~1\AppData\Local\Temp\ccMmmtPO.s 			page 64


 3045      53616C65 
 3045      00
 3046              	.LASF12:
 3047 0136 666C6F61 		.ascii	"float\000"
 3047      7400
 3048              	.LASF72:
 3049 013c 64656369 		.ascii	"decimalMoney\000"
 3049      6D616C4D 
 3049      6F6E6579 
 3049      00
 3050              	.LASF17:
 3051 0149 746F7461 		.ascii	"totalMoney1\000"
 3051      6C4D6F6E 
 3051      65793100 
 3052              	.LASF18:
 3053 0155 746F7461 		.ascii	"totalMoney2\000"
 3053      6C4D6F6E 
 3053      65793200 
 3054              	.LASF19:
 3055 0161 746F7461 		.ascii	"totalMoney3\000"
 3055      6C4D6F6E 
 3055      65793300 
 3056              	.LASF35:
 3057 016d 70726F64 		.ascii	"product1\000"
 3057      75637431 
 3057      00
 3058              	.LASF20:
 3059 0176 746F7461 		.ascii	"totalVolume1\000"
 3059      6C566F6C 
 3059      756D6531 
 3059      00
 3060              	.LASF37:
 3061 0183 70726F64 		.ascii	"product3\000"
 3061      75637433 
 3061      00
 3062              	.LASF22:
 3063 018c 746F7461 		.ascii	"totalVolume3\000"
 3063      6C566F6C 
 3063      756D6533 
 3063      00
 3064              	.LASF91:
 3065 0199 474E5520 		.ascii	"GNU C 4.9.3 20150303 (release) [ARM/embedded-4_9-br"
 3065      4320342E 
 3065      392E3320 
 3065      32303135 
 3065      30333033 
 3066 01cc 616E6368 		.ascii	"anch revision 221220] -mcpu=cortex-m3 -mthumb -g -O"
 3066      20726576 
 3066      6973696F 
 3066      6E203232 
 3066      31323230 
 3067 01ff 30202D66 		.ascii	"0 -ffunction-sections -ffat-lto-objects\000"
 3067      66756E63 
 3067      74696F6E 
 3067      2D736563 
 3067      74696F6E 
 3068              	.LASF30:
ARM GAS  C:\Users\PROYEC~1\AppData\Local\Temp\ccMmmtPO.s 			page 65


 3069 0227 61646472 		.ascii	"address\000"
 3069      65737300 
 3070              	.LASF38:
 3071 022f 70726F64 		.ascii	"product4\000"
 3071      75637434 
 3071      00
 3072              	.LASF41:
 3073 0238 766F6C75 		.ascii	"volume\000"
 3073      6D6500
 3074              	.LASF79:
 3075 023f 666C6167 		.ascii	"flagImp\000"
 3075      496D7000 
 3076              	.LASF64:
 3077 0247 64696769 		.ascii	"digits\000"
 3077      747300
 3078              	.LASF53:
 3079 024e 6D73675F 		.ascii	"msg_phone\000"
 3079      70686F6E 
 3079      6500
 3080              	.LASF75:
 3081 0258 52785075 		.ascii	"RxPu\000"
 3081      00
 3082              	.LASF70:
 3083 025d 74696D65 		.ascii	"timeSale2\000"
 3083      53616C65 
 3083      3200
 3084              	.LASF88:
 3085 0267 7072696E 		.ascii	"print\000"
 3085      7400
 3086              	.LASF1:
 3087 026d 756E7369 		.ascii	"unsigned char\000"
 3087      676E6564 
 3087      20636861 
 3087      7200
 3088              	.LASF58:
 3089 027b 6D73675F 		.ascii	"msg_ppu\000"
 3089      70707500 
 3090              	.LASF73:
 3091 0283 64656369 		.ascii	"decimalVolume\000"
 3091      6D616C56 
 3091      6F6C756D 
 3091      6500
 3092              	.LASF0:
 3093 0291 7369676E 		.ascii	"signed char\000"
 3093      65642063 
 3093      68617200 
 3094              	.LASF10:
 3095 029d 696E7433 		.ascii	"int32_t\000"
 3095      325F7400 
 3096              	.LASF7:
 3097 02a5 6C6F6E67 		.ascii	"long long unsigned int\000"
 3097      206C6F6E 
 3097      6720756E 
 3097      7369676E 
 3097      65642069 
 3098              	.LASF65:
 3099 02bc 70707578 		.ascii	"ppux10\000"
ARM GAS  C:\Users\PROYEC~1\AppData\Local\Temp\ccMmmtPO.s 			page 66


 3099      313000
 3100              	.LASF85:
 3101 02c3 636F756E 		.ascii	"countImp\000"
 3101      74496D70 
 3101      00
 3102              	.LASF8:
 3103 02cc 756E7369 		.ascii	"unsigned int\000"
 3103      676E6564 
 3103      20696E74 
 3103      00
 3104              	.LASF68:
 3105 02d9 74696D65 		.ascii	"timeSale1\000"
 3105      53616C65 
 3105      3100
 3106              	.LASF66:
 3107 02e3 74696D65 		.ascii	"time\000"
 3107      00
 3108              	.LASF92:
 3109 02e8 2E5C5072 		.ascii	".\\Print.c\000"
 3109      696E742E 
 3109      6300
 3110              	.LASF86:
 3111 02f2 42756666 		.ascii	"Buffer_LCD1\000"
 3111      65725F4C 
 3111      43443100 
 3112              	.LASF87:
 3113 02fe 42756666 		.ascii	"Buffer_LCD2\000"
 3113      65725F4C 
 3113      43443200 
 3114              	.LASF3:
 3115 030a 73686F72 		.ascii	"short unsigned int\000"
 3115      7420756E 
 3115      7369676E 
 3115      65642069 
 3115      6E7400
 3116              	.LASF31:
 3117 031d 63697479 		.ascii	"city\000"
 3117      00
 3118              	.LASF15:
 3119 0322 63686172 		.ascii	"char\000"
 3119      00
 3120              	.LASF4:
 3121 0327 6C6F6E67 		.ascii	"long int\000"
 3121      20696E74 
 3121      00
 3122              	.LASF59:
 3123 0330 6D73675F 		.ascii	"msg_volume\000"
 3123      766F6C75 
 3123      6D6500
 3124              	.LASF81:
 3125 033b 666C6167 		.ascii	"flagAuthorize\000"
 3125      41757468 
 3125      6F72697A 
 3125      6500
 3126              	.LASF67:
 3127 0349 64617465 		.ascii	"date\000"
 3127      00
ARM GAS  C:\Users\PROYEC~1\AppData\Local\Temp\ccMmmtPO.s 			page 67


 3128              	.LASF39:
 3129 034e 70726F64 		.ascii	"product\000"
 3129      75637400 
 3130              	.LASF54:
 3131 0356 6D73675F 		.ascii	"msg_date\000"
 3131      64617465 
 3131      00
 3132              	.LASF27:
 3133 035f 64617461 		.ascii	"data\000"
 3133      00
 3134              	.LASF80:
 3135 0364 666C6167 		.ascii	"flagHandleUp\000"
 3135      48616E64 
 3135      6C655570 
 3135      00
 3136              	.LASF26:
 3137 0371 62756666 		.ascii	"buffer\000"
 3137      657200
 3138              	.LASF76:
 3139 0378 54785075 		.ascii	"TxPu\000"
 3139      00
 3140              	.LASF40:
 3141 037d 6D6F6E65 		.ascii	"money\000"
 3141      7900
 3142              	.LASF84:
 3143 0383 636F756E 		.ascii	"countSale\000"
 3143      7453616C 
 3143      6500
 3144              	.LASF5:
 3145 038d 6C6F6E67 		.ascii	"long unsigned int\000"
 3145      20756E73 
 3145      69676E65 
 3145      6420696E 
 3145      7400
 3146              	.LASF83:
 3147 039f 76616C75 		.ascii	"valuePPU\000"
 3147      65505055 
 3147      00
 3148              	.LASF13:
 3149 03a8 646F7562 		.ascii	"double\000"
 3149      6C6500
 3150              	.LASF49:
 3151 03af 73616C65 		.ascii	"saleDate\000"
 3151      44617465 
 3151      00
 3152              	.LASF63:
 3153 03b8 49544D5F 		.ascii	"ITM_RxBuffer\000"
 3153      52784275 
 3153      66666572 
 3153      00
 3154              	.LASF74:
 3155 03c5 52785063 		.ascii	"RxPc\000"
 3155      00
 3156              	.LASF77:
 3157 03ca 666C6F77 		.ascii	"flowLoopPump\000"
 3157      4C6F6F70 
 3157      50756D70 
ARM GAS  C:\Users\PROYEC~1\AppData\Local\Temp\ccMmmtPO.s 			page 68


 3157      00
 3158              	.LASF9:
 3159 03d7 5F5F696E 		.ascii	"__int32_t\000"
 3159      7433325F 
 3159      7400
 3160              	.LASF61:
 3161 03e1 6D73675F 		.ascii	"msg_copy\000"
 3161      636F7079 
 3161      00
 3162              	.LASF45:
 3163 03ea 65787465 		.ascii	"extend\000"
 3163      6E6400
 3164              	.LASF32:
 3165 03f1 6D657373 		.ascii	"message1\000"
 3165      61676531 
 3165      00
 3166              	.LASF33:
 3167 03fa 6D657373 		.ascii	"message2\000"
 3167      61676532 
 3167      00
 3168              	.LASF48:
 3169 0403 636F7079 		.ascii	"copy\000"
 3169      00
 3170              	.LASF52:
 3171 0408 6D73675F 		.ascii	"msg_nit\000"
 3171      6E697400 
 3172              	.LASF42:
 3173 0410 746F7461 		.ascii	"total\000"
 3173      6C00
 3174              	.LASF34:
 3175 0416 706F7369 		.ascii	"position\000"
 3175      74696F6E 
 3175      00
 3176              	.LASF62:
 3177 041f 666C6167 		.ascii	"flag\000"
 3177      00
 3178              	.LASF56:
 3179 0424 6D73675F 		.ascii	"msg_position\000"
 3179      706F7369 
 3179      74696F6E 
 3179      00
 3180              	.LASF89:
 3181 0431 73696465 		.ascii	"side\000"
 3181      00
 3182              	.LASF90:
 3183 0436 6253616C 		.ascii	"bSale\000"
 3183      6500
 3184              	.LASF94:
 3185 043c 7072696E 		.ascii	"printBill\000"
 3185      7442696C 
 3185      6C00
 3186              	.LASF43:
 3187 0446 73616C65 		.ascii	"sale\000"
 3187      00
 3188              	.LASF60:
 3189 044b 6D73675F 		.ascii	"msg_money\000"
 3189      6D6F6E65 
ARM GAS  C:\Users\PROYEC~1\AppData\Local\Temp\ccMmmtPO.s 			page 69


 3189      7900
 3190              		.ident	"GCC: (GNU Tools for ARM Embedded Processors) 4.9.3 20150303 (release) [ARM/embedded-4_9-br
