ARM GAS  C:\Users\PROYEC~1\AppData\Local\Temp\ccuck2D9.s 			page 1


   1              		.syntax unified
   2              		.cpu cortex-m3
   3              		.fpu softvfp
   4              		.eabi_attribute 20, 1
   5              		.eabi_attribute 21, 1
   6              		.eabi_attribute 23, 3
   7              		.eabi_attribute 24, 1
   8              		.eabi_attribute 25, 1
   9              		.eabi_attribute 26, 1
  10              		.eabi_attribute 30, 6
  11              		.eabi_attribute 34, 1
  12              		.eabi_attribute 18, 4
  13              		.thumb
  14              		.file	"Protocolo.c"
  15              		.text
  16              	.Ltext0:
  17              		.cfi_sections	.debug_frame
  18              		.comm	countAnimation1,8,8
  19              		.comm	countAnimation2,8,8
  20              		.comm	flowLCD1,1,1
  21              		.comm	flowLCD2,1,1
  22              		.comm	digits,1,1
  23              		.comm	ipAdress,12,4
  24              		.comm	numberKeys1,1,1
  25              		.comm	numberKeys2,1,1
  26              		.comm	flagPoint1,1,1
  27              		.comm	flagPoint2,1,1
  28              		.comm	button,400,4
  29              		.comm	productNumber,1,1
  30              		.comm	presetFast,30,4
  31              		.comm	ppux10,1,1
  32              		.comm	time,3,4
  33              		.comm	date,3,4
  34              		.comm	timeSale1,3,4
  35              		.comm	dateSale1,3,4
  36              		.comm	timeSale2,3,4
  37              		.comm	dateSale2,3,4
  38              		.comm	decimalMoney,1,1
  39              		.comm	decimalVolume,1,1
  40              		.comm	RxPc,300,4
  41              		.comm	RxPu,300,4
  42              		.comm	TxPu,300,4
  43              		.comm	flowLoopPump,1,1
  44              		.comm	flowPump,1,1
  45              		.comm	flagImp,3,4
  46              		.comm	flagHandleUp,3,4
  47              		.comm	flagAuthorize,3,4
  48              		.comm	flagSale,3,4
  49              		.comm	product,1,1
  50              		.comm	valuePPU,30,4
  51              		.comm	countSale,8,8
  52              		.comm	countImp,3,4
  53              		.comm	bufferLCD1,183,4
  54              		.comm	bufferLCD2,183,4
  55              		.comm	print,162,4
  56              		.comm	side,722,4
  57              		.comm	bSale,36,4
ARM GAS  C:\Users\PROYEC~1\AppData\Local\Temp\ccuck2D9.s 			page 2


  58              		.section	.rodata
  59              		.align	2
  60              	.LC0:
  61 0000 FF       		.byte	-1
  62 0001 E9       		.byte	-23
  63 0002 FE       		.byte	-2
  64 0003 E0       		.byte	-32
  65 0004 E1       		.byte	-31
  66 0005 E0       		.byte	-32
  67 0006 FB       		.byte	-5
  68 0007 EE       		.byte	-18
  69 0008 F0       		.byte	-16
  70 0009 000000   		.section	.text.state_ex,"ax",%progbits
  71              		.align	2
  72              		.global	state_ex
  73              		.thumb
  74              		.thumb_func
  75              		.type	state_ex, %function
  76              	state_ex:
  77              	.LFB56:
  78              		.file 1 ".\\Protocolo.c"
   1:.\Protocolo.c **** /*
   2:.\Protocolo.c **** ***************************************************************************************************
   3:.\Protocolo.c **** *                                         MUX ADVANCE CODE
   4:.\Protocolo.c **** *
   5:.\Protocolo.c **** *                             (c) Copyright 2016; Sistemas Insepet LTDA
   6:.\Protocolo.c **** *
   7:.\Protocolo.c **** *               All rights reserved.  Protected by international copyright laws.
   8:.\Protocolo.c **** *               Knowledge of the source code may NOT be used to develop a similar product.
   9:.\Protocolo.c **** *               Please help us continue to provide the Embedded community with the finest
  10:.\Protocolo.c **** *               software available.  Your honesty is greatly appreciated.
  11:.\Protocolo.c **** ***************************************************************************************************
  12:.\Protocolo.c **** */
  13:.\Protocolo.c **** 
  14:.\Protocolo.c **** /*
  15:.\Protocolo.c **** ***************************************************************************************************
  16:.\Protocolo.c **** *
  17:.\Protocolo.c **** *                                             MUX ADVANCE CODE
  18:.\Protocolo.c **** *
  19:.\Protocolo.c **** *                                             CYPRESS PSoC5LP
  20:.\Protocolo.c **** *                                                with the
  21:.\Protocolo.c **** *                                            CY8C5969AXI-LP035
  22:.\Protocolo.c **** *
  23:.\Protocolo.c **** * Filename      : pump.c
  24:.\Protocolo.c **** * Version       : V1.00
  25:.\Protocolo.c **** * Programmer(s) : 
  26:.\Protocolo.c ****                   
  27:.\Protocolo.c **** ***************************************************************************************************
  28:.\Protocolo.c **** */
  29:.\Protocolo.c **** 
  30:.\Protocolo.c **** 
  31:.\Protocolo.c **** /*
  32:.\Protocolo.c **** ***************************************************************************************************
  33:.\Protocolo.c **** *                                             INCLUDE FILES
  34:.\Protocolo.c **** ***************************************************************************************************
  35:.\Protocolo.c **** */
  36:.\Protocolo.c **** #include <device.h>
ARM GAS  C:\Users\PROYEC~1\AppData\Local\Temp\ccuck2D9.s 			page 3


  37:.\Protocolo.c **** #include <variables.h>
  38:.\Protocolo.c **** #include "I2C.h"
  39:.\Protocolo.c **** 
  40:.\Protocolo.c **** /*
  41:.\Protocolo.c **** ***************************************************************************************************
  42:.\Protocolo.c **** *                                      uint8 state_ex(uint8 val)
  43:.\Protocolo.c **** *
  44:.\Protocolo.c **** * Description : 
  45:.\Protocolo.c **** *               
  46:.\Protocolo.c **** *
  47:.\Protocolo.c **** * Argument(s) : none
  48:.\Protocolo.c **** *
  49:.\Protocolo.c **** * Return(s)   : none
  50:.\Protocolo.c **** *
  51:.\Protocolo.c **** * Caller(s)   : 
  52:.\Protocolo.c **** *
  53:.\Protocolo.c **** * Note(s)     : none.
  54:.\Protocolo.c **** ***************************************************************************************************
  55:.\Protocolo.c **** */
  56:.\Protocolo.c **** uint8 state_ex(uint8 val){
  79              		.loc 1 56 0
  80              		.cfi_startproc
  81              		@ args = 0, pretend = 0, frame = 40
  82              		@ frame_needed = 1, uses_anonymous_args = 0
  83 0000 90B5     		push	{r4, r7, lr}
  84              		.cfi_def_cfa_offset 12
  85              		.cfi_offset 4, -12
  86              		.cfi_offset 7, -8
  87              		.cfi_offset 14, -4
  88 0002 8BB0     		sub	sp, sp, #44
  89              		.cfi_def_cfa_offset 56
  90 0004 00AF     		add	r7, sp, #0
  91              		.cfi_def_cfa_register 7
  92 0006 0346     		mov	r3, r0
  93 0008 FB71     		strb	r3, [r7, #7]
  57:.\Protocolo.c ****     uint8 rx_extend[19],x,comand_exten[9]={0xFF,0xE9,0xFE,0xE0,0xE1,0xE0,0xFB,0xEE,0xF0};
  94              		.loc 1 57 0
  95 000a 5B4A     		ldr	r2, .L19
  96 000c 07F10803 		add	r3, r7, #8
  97 0010 1068     		ldr	r0, [r2]	@ unaligned
  98 0012 5168     		ldr	r1, [r2, #4]	@ unaligned
  99 0014 03C3     		stmia	r3!, {r0, r1}
 100 0016 127A     		ldrb	r2, [r2, #8]
 101 0018 1A70     		strb	r2, [r3]
  58:.\Protocolo.c ****     Pump_AL_PutChar(0x20|val);
 102              		.loc 1 58 0
 103 001a FB79     		ldrb	r3, [r7, #7]
 104 001c 43F02003 		orr	r3, r3, #32
 105 0020 DBB2     		uxtb	r3, r3
 106 0022 1846     		mov	r0, r3
 107 0024 FFF7FEFF 		bl	Pump_AL_PutChar
  59:.\Protocolo.c ****     product=0xff;
 108              		.loc 1 59 0
 109 0028 544B     		ldr	r3, .L19+4
 110 002a FF22     		movs	r2, #255
 111 002c 1A70     		strb	r2, [r3]
  60:.\Protocolo.c ****     CyDelay(100);
ARM GAS  C:\Users\PROYEC~1\AppData\Local\Temp\ccuck2D9.s 			page 4


 112              		.loc 1 60 0
 113 002e 6420     		movs	r0, #100
 114 0030 FFF7FEFF 		bl	CyDelay
  61:.\Protocolo.c ****     if(Pump_AL_GetRxBufferSize()>=1){
 115              		.loc 1 61 0
 116 0034 FFF7FEFF 		bl	Pump_AL_GetRxBufferSize
 117 0038 0346     		mov	r3, r0
 118 003a 002B     		cmp	r3, #0
 119 003c 00F09780 		beq	.L2
  62:.\Protocolo.c ****         if(Pump_AL_ReadRxData()==(0xD0|val)){
 120              		.loc 1 62 0
 121 0040 FFF7FEFF 		bl	Pump_AL_ReadRxData
 122 0044 0346     		mov	r3, r0
 123 0046 1A46     		mov	r2, r3
 124 0048 FB79     		ldrb	r3, [r7, #7]
 125 004a 63F02F03 		orn	r3, r3, #47
 126 004e DBB2     		uxtb	r3, r3
 127 0050 9A42     		cmp	r2, r3
 128 0052 40F08A80 		bne	.L3
  63:.\Protocolo.c ****             Pump_AL_ClearRxBuffer();
 129              		.loc 1 63 0
 130 0056 FFF7FEFF 		bl	Pump_AL_ClearRxBuffer
  64:.\Protocolo.c ****             for(x=0;x<=8;x++){
 131              		.loc 1 64 0
 132 005a 0023     		movs	r3, #0
 133 005c 87F82730 		strb	r3, [r7, #39]
 134 0060 0EE0     		b	.L4
 135              	.L5:
  65:.\Protocolo.c ****                Pump_AL_PutChar(comand_exten[x]); 
 136              		.loc 1 65 0 discriminator 3
 137 0062 97F82730 		ldrb	r3, [r7, #39]	@ zero_extendqisi2
 138 0066 07F12802 		add	r2, r7, #40
 139 006a 1344     		add	r3, r3, r2
 140 006c 13F8203C 		ldrb	r3, [r3, #-32]	@ zero_extendqisi2
 141 0070 1846     		mov	r0, r3
 142 0072 FFF7FEFF 		bl	Pump_AL_PutChar
  64:.\Protocolo.c ****             for(x=0;x<=8;x++){
 143              		.loc 1 64 0 discriminator 3
 144 0076 97F82730 		ldrb	r3, [r7, #39]	@ zero_extendqisi2
 145 007a 0133     		adds	r3, r3, #1
 146 007c 87F82730 		strb	r3, [r7, #39]
 147              	.L4:
  64:.\Protocolo.c ****             for(x=0;x<=8;x++){
 148              		.loc 1 64 0 is_stmt 0 discriminator 1
 149 0080 97F82730 		ldrb	r3, [r7, #39]	@ zero_extendqisi2
 150 0084 082B     		cmp	r3, #8
 151 0086 ECD9     		bls	.L5
  66:.\Protocolo.c ****             }
  67:.\Protocolo.c ****             CyDelay(200);
 152              		.loc 1 67 0 is_stmt 1
 153 0088 C820     		movs	r0, #200
 154 008a FFF7FEFF 		bl	CyDelay
  68:.\Protocolo.c ****             if(Pump_AL_GetRxBufferSize()>=19){
 155              		.loc 1 68 0
 156 008e FFF7FEFF 		bl	Pump_AL_GetRxBufferSize
 157 0092 0346     		mov	r3, r0
 158 0094 122B     		cmp	r3, #18
ARM GAS  C:\Users\PROYEC~1\AppData\Local\Temp\ccuck2D9.s 			page 5


 159 0096 66D9     		bls	.L6
  69:.\Protocolo.c ****                 for(x=0;x<=18;x++){
 160              		.loc 1 69 0
 161 0098 0023     		movs	r3, #0
 162 009a 87F82730 		strb	r3, [r7, #39]
 163 009e 33E0     		b	.L7
 164              	.L10:
  70:.\Protocolo.c ****                     rx_extend[x]=Pump_AL_ReadRxData(); 
 165              		.loc 1 70 0
 166 00a0 97F82740 		ldrb	r4, [r7, #39]	@ zero_extendqisi2
 167 00a4 FFF7FEFF 		bl	Pump_AL_ReadRxData
 168 00a8 0346     		mov	r3, r0
 169 00aa 1A46     		mov	r2, r3
 170 00ac 07F12803 		add	r3, r7, #40
 171 00b0 2344     		add	r3, r3, r4
 172 00b2 03F8142C 		strb	r2, [r3, #-20]
  71:.\Protocolo.c ****                     if(val==side.a.dir){
 173              		.loc 1 71 0
 174 00b6 324B     		ldr	r3, .L19+8
 175 00b8 1B78     		ldrb	r3, [r3]	@ zero_extendqisi2
 176 00ba FA79     		ldrb	r2, [r7, #7]	@ zero_extendqisi2
 177 00bc 9A42     		cmp	r2, r3
 178 00be 0FD1     		bne	.L8
  72:.\Protocolo.c ****                         side.a.extend[x+1]=rx_extend[x];
 179              		.loc 1 72 0
 180 00c0 97F82730 		ldrb	r3, [r7, #39]	@ zero_extendqisi2
 181 00c4 0133     		adds	r3, r3, #1
 182 00c6 97F82720 		ldrb	r2, [r7, #39]	@ zero_extendqisi2
 183 00ca 07F12801 		add	r1, r7, #40
 184 00ce 0A44     		add	r2, r2, r1
 185 00d0 12F8141C 		ldrb	r1, [r2, #-20]	@ zero_extendqisi2
 186 00d4 2A4A     		ldr	r2, .L19+8
 187 00d6 1344     		add	r3, r3, r2
 188 00d8 0A46     		mov	r2, r1
 189 00da 83F85521 		strb	r2, [r3, #341]
 190 00de 0EE0     		b	.L9
 191              	.L8:
  73:.\Protocolo.c ****                     }else{
  74:.\Protocolo.c ****                         side.b.extend[x+1]=rx_extend[x];
 192              		.loc 1 74 0
 193 00e0 97F82730 		ldrb	r3, [r7, #39]	@ zero_extendqisi2
 194 00e4 0133     		adds	r3, r3, #1
 195 00e6 97F82720 		ldrb	r2, [r7, #39]	@ zero_extendqisi2
 196 00ea 07F12801 		add	r1, r7, #40
 197 00ee 0A44     		add	r2, r2, r1
 198 00f0 12F8141C 		ldrb	r1, [r2, #-20]	@ zero_extendqisi2
 199 00f4 224A     		ldr	r2, .L19+8
 200 00f6 1344     		add	r3, r3, r2
 201 00f8 0A46     		mov	r2, r1
 202 00fa 83F8BE22 		strb	r2, [r3, #702]
 203              	.L9:
  69:.\Protocolo.c ****                     rx_extend[x]=Pump_AL_ReadRxData(); 
 204              		.loc 1 69 0 discriminator 2
 205 00fe 97F82730 		ldrb	r3, [r7, #39]	@ zero_extendqisi2
 206 0102 0133     		adds	r3, r3, #1
 207 0104 87F82730 		strb	r3, [r7, #39]
 208              	.L7:
ARM GAS  C:\Users\PROYEC~1\AppData\Local\Temp\ccuck2D9.s 			page 6


  69:.\Protocolo.c ****                     rx_extend[x]=Pump_AL_ReadRxData(); 
 209              		.loc 1 69 0 is_stmt 0 discriminator 1
 210 0108 97F82730 		ldrb	r3, [r7, #39]	@ zero_extendqisi2
 211 010c 122B     		cmp	r3, #18
 212 010e C7D9     		bls	.L10
  75:.\Protocolo.c ****                     }
  76:.\Protocolo.c ****                 }
  77:.\Protocolo.c ****                 side.a.extend[0]=19;
 213              		.loc 1 77 0 is_stmt 1
 214 0110 1B4B     		ldr	r3, .L19+8
 215 0112 1322     		movs	r2, #19
 216 0114 83F85521 		strb	r2, [r3, #341]
  78:.\Protocolo.c ****                 side.b.extend[0]=19;
 217              		.loc 1 78 0
 218 0118 194B     		ldr	r3, .L19+8
 219 011a 1322     		movs	r2, #19
 220 011c 83F8BE22 		strb	r2, [r3, #702]
  79:.\Protocolo.c ****                 Pump_AL_ClearRxBuffer();
 221              		.loc 1 79 0
 222 0120 FFF7FEFF 		bl	Pump_AL_ClearRxBuffer
  80:.\Protocolo.c ****                 if((rx_extend[0]==0xBA)&&(rx_extend[17]==0x8D)&&(rx_extend[18]==0x8A)&&(rx_extend[1
 223              		.loc 1 80 0
 224 0124 3B7D     		ldrb	r3, [r7, #20]	@ zero_extendqisi2
 225 0126 BA2B     		cmp	r3, #186
 226 0128 1BD1     		bne	.L11
 227              		.loc 1 80 0 is_stmt 0 discriminator 1
 228 012a 97F82530 		ldrb	r3, [r7, #37]	@ zero_extendqisi2
 229 012e 8D2B     		cmp	r3, #141
 230 0130 17D1     		bne	.L11
 231              		.loc 1 80 0 discriminator 2
 232 0132 97F82630 		ldrb	r3, [r7, #38]	@ zero_extendqisi2
 233 0136 8A2B     		cmp	r3, #138
 234 0138 13D1     		bne	.L11
 235              		.loc 1 80 0 discriminator 3
 236 013a 97F82030 		ldrb	r3, [r7, #32]	@ zero_extendqisi2
 237 013e B12B     		cmp	r3, #177
 238 0140 0FD1     		bne	.L11
  81:.\Protocolo.c ****                     switch(rx_extend[14]){
 239              		.loc 1 81 0 is_stmt 1
 240 0142 97F82230 		ldrb	r3, [r7, #34]	@ zero_extendqisi2
 241 0146 B22B     		cmp	r3, #178
 242 0148 05D0     		beq	.L13
 243 014a B32B     		cmp	r3, #179
 244 014c 05D0     		beq	.L14
 245 014e B12B     		cmp	r3, #177
 246 0150 05D1     		bne	.L18
  82:.\Protocolo.c ****                         case 0xB1:
  83:.\Protocolo.c ****                             return 1;
 247              		.loc 1 83 0
 248 0152 0123     		movs	r3, #1
 249 0154 0CE0     		b	.L17
 250              	.L13:
  84:.\Protocolo.c ****                             break;
  85:.\Protocolo.c ****                         case 0xB2:
  86:.\Protocolo.c ****                             return 2;
 251              		.loc 1 86 0
 252 0156 0223     		movs	r3, #2
ARM GAS  C:\Users\PROYEC~1\AppData\Local\Temp\ccuck2D9.s 			page 7


 253 0158 0AE0     		b	.L17
 254              	.L14:
  87:.\Protocolo.c ****                             break;
  88:.\Protocolo.c ****                         case 0xB3:
  89:.\Protocolo.c ****                             return 3;
 255              		.loc 1 89 0
 256 015a 0323     		movs	r3, #3
 257 015c 08E0     		b	.L17
 258              	.L18:
  90:.\Protocolo.c ****                             break;
  91:.\Protocolo.c ****                         default:
  92:.\Protocolo.c ****                             return 0;
 259              		.loc 1 92 0
 260 015e 0023     		movs	r3, #0
 261 0160 06E0     		b	.L17
 262              	.L11:
  93:.\Protocolo.c ****                     }
  94:.\Protocolo.c ****                 }
  95:.\Protocolo.c ****                 else{
  96:.\Protocolo.c ****                     return 0;
 263              		.loc 1 96 0
 264 0162 0023     		movs	r3, #0
 265 0164 04E0     		b	.L17
 266              	.L6:
  97:.\Protocolo.c ****                 }
  98:.\Protocolo.c ****             }
  99:.\Protocolo.c ****             else{
 100:.\Protocolo.c ****                 return 0;
 267              		.loc 1 100 0
 268 0166 0023     		movs	r3, #0
 269 0168 02E0     		b	.L17
 270              	.L3:
 101:.\Protocolo.c ****             }
 102:.\Protocolo.c ****         }
 103:.\Protocolo.c ****         else{
 104:.\Protocolo.c ****             return 0;
 271              		.loc 1 104 0
 272 016a 0023     		movs	r3, #0
 273 016c 00E0     		b	.L17
 274              	.L2:
 105:.\Protocolo.c ****         }
 106:.\Protocolo.c ****     }
 107:.\Protocolo.c ****     else{
 108:.\Protocolo.c ****         return 0;
 275              		.loc 1 108 0
 276 016e 0023     		movs	r3, #0
 277              	.L17:
 109:.\Protocolo.c ****     }
 110:.\Protocolo.c **** }
 278              		.loc 1 110 0
 279 0170 1846     		mov	r0, r3
 280 0172 2C37     		adds	r7, r7, #44
 281              		.cfi_def_cfa_offset 12
 282 0174 BD46     		mov	sp, r7
 283              		.cfi_def_cfa_register 13
 284              		@ sp needed
 285 0176 90BD     		pop	{r4, r7, pc}
ARM GAS  C:\Users\PROYEC~1\AppData\Local\Temp\ccuck2D9.s 			page 8


 286              	.L20:
 287              		.align	2
 288              	.L19:
 289 0178 00000000 		.word	.LC0
 290 017c 00000000 		.word	product
 291 0180 00000000 		.word	side
 292              		.cfi_endproc
 293              	.LFE56:
 294              		.size	state_ex, .-state_ex
 295              		.section	.text.get_position,"ax",%progbits
 296              		.align	2
 297              		.global	get_position
 298              		.thumb
 299              		.thumb_func
 300              		.type	get_position, %function
 301              	get_position:
 302              	.LFB57:
 111:.\Protocolo.c **** 
 112:.\Protocolo.c **** /*
 113:.\Protocolo.c **** ***************************************************************************************************
 114:.\Protocolo.c **** *                                         uint8 get_position(void)
 115:.\Protocolo.c **** *
 116:.\Protocolo.c **** * Description : 
 117:.\Protocolo.c **** *               
 118:.\Protocolo.c **** *
 119:.\Protocolo.c **** * Argument(s) : none
 120:.\Protocolo.c **** *
 121:.\Protocolo.c **** * Return(s)   : none
 122:.\Protocolo.c **** *
 123:.\Protocolo.c **** * Caller(s)   : 
 124:.\Protocolo.c **** *
 125:.\Protocolo.c **** * Note(s)     : none.
 126:.\Protocolo.c **** ***************************************************************************************************
 127:.\Protocolo.c **** */
 128:.\Protocolo.c **** uint8 get_position(void){
 303              		.loc 1 128 0
 304              		.cfi_startproc
 305              		@ args = 0, pretend = 0, frame = 8
 306              		@ frame_needed = 1, uses_anonymous_args = 0
 307 0000 80B5     		push	{r7, lr}
 308              		.cfi_def_cfa_offset 8
 309              		.cfi_offset 7, -8
 310              		.cfi_offset 14, -4
 311 0002 82B0     		sub	sp, sp, #8
 312              		.cfi_def_cfa_offset 16
 313 0004 00AF     		add	r7, sp, #0
 314              		.cfi_def_cfa_register 7
 129:.\Protocolo.c ****     uint32 x;
 130:.\Protocolo.c ****         
 131:.\Protocolo.c ****     side.a.dir=0xff;
 315              		.loc 1 131 0
 316 0006 2D4B     		ldr	r3, .L30
 317 0008 FF22     		movs	r2, #255
 318 000a 1A70     		strb	r2, [r3]
 132:.\Protocolo.c ****     side.b.dir=0xff;
 319              		.loc 1 132 0
 320 000c 2B4B     		ldr	r3, .L30
ARM GAS  C:\Users\PROYEC~1\AppData\Local\Temp\ccuck2D9.s 			page 9


 321 000e FF22     		movs	r2, #255
 322 0010 83F86921 		strb	r2, [r3, #361]
 133:.\Protocolo.c ****     for(x=1;x<=16;x++){
 323              		.loc 1 133 0
 324 0014 0123     		movs	r3, #1
 325 0016 7B60     		str	r3, [r7, #4]
 326 0018 31E0     		b	.L22
 327              	.L25:
 134:.\Protocolo.c ****         Pump_AL_PutChar(x);
 328              		.loc 1 134 0
 329 001a 7B68     		ldr	r3, [r7, #4]
 330 001c DBB2     		uxtb	r3, r3
 331 001e 1846     		mov	r0, r3
 332 0020 FFF7FEFF 		bl	Pump_AL_PutChar
 135:.\Protocolo.c ****         CyDelay(100);
 333              		.loc 1 135 0
 334 0024 6420     		movs	r0, #100
 335 0026 FFF7FEFF 		bl	CyDelay
 136:.\Protocolo.c ****         if((Pump_AL_GetRxBufferSize()>=1)&&(side.a.dir==0xff)){
 336              		.loc 1 136 0
 337 002a FFF7FEFF 		bl	Pump_AL_GetRxBufferSize
 338 002e 0346     		mov	r3, r0
 339 0030 002B     		cmp	r3, #0
 340 0032 0CD0     		beq	.L23
 341              		.loc 1 136 0 is_stmt 0 discriminator 1
 342 0034 214B     		ldr	r3, .L30
 343 0036 1B78     		ldrb	r3, [r3]	@ zero_extendqisi2
 344 0038 FF2B     		cmp	r3, #255
 345 003a 08D1     		bne	.L23
 137:.\Protocolo.c ****            side.a.dir=x&0x0f;	
 346              		.loc 1 137 0 is_stmt 1
 347 003c 7B68     		ldr	r3, [r7, #4]
 348 003e DBB2     		uxtb	r3, r3
 349 0040 03F00F03 		and	r3, r3, #15
 350 0044 DAB2     		uxtb	r2, r3
 351 0046 1D4B     		ldr	r3, .L30
 352 0048 1A70     		strb	r2, [r3]
 138:.\Protocolo.c ****            Pump_AL_ClearRxBuffer();
 353              		.loc 1 138 0
 354 004a FFF7FEFF 		bl	Pump_AL_ClearRxBuffer
 355              	.L23:
 139:.\Protocolo.c ****         }
 140:.\Protocolo.c ****         if((Pump_AL_GetRxBufferSize()>=1)&&(x!=side.a.dir)){
 356              		.loc 1 140 0
 357 004e FFF7FEFF 		bl	Pump_AL_GetRxBufferSize
 358 0052 0346     		mov	r3, r0
 359 0054 002B     		cmp	r3, #0
 360 0056 0FD0     		beq	.L24
 361              		.loc 1 140 0 is_stmt 0 discriminator 1
 362 0058 184B     		ldr	r3, .L30
 363 005a 1B78     		ldrb	r3, [r3]	@ zero_extendqisi2
 364 005c 1A46     		mov	r2, r3
 365 005e 7B68     		ldr	r3, [r7, #4]
 366 0060 9A42     		cmp	r2, r3
 367 0062 09D0     		beq	.L24
 141:.\Protocolo.c ****            side.b.dir=x&0x0f;
 368              		.loc 1 141 0 is_stmt 1
ARM GAS  C:\Users\PROYEC~1\AppData\Local\Temp\ccuck2D9.s 			page 10


 369 0064 7B68     		ldr	r3, [r7, #4]
 370 0066 DBB2     		uxtb	r3, r3
 371 0068 03F00F03 		and	r3, r3, #15
 372 006c DAB2     		uxtb	r2, r3
 373 006e 134B     		ldr	r3, .L30
 374 0070 83F86921 		strb	r2, [r3, #361]
 142:.\Protocolo.c ****            Pump_AL_ClearRxBuffer();
 375              		.loc 1 142 0
 376 0074 FFF7FEFF 		bl	Pump_AL_ClearRxBuffer
 377              	.L24:
 133:.\Protocolo.c ****         Pump_AL_PutChar(x);
 378              		.loc 1 133 0 discriminator 2
 379 0078 7B68     		ldr	r3, [r7, #4]
 380 007a 0133     		adds	r3, r3, #1
 381 007c 7B60     		str	r3, [r7, #4]
 382              	.L22:
 133:.\Protocolo.c ****         Pump_AL_PutChar(x);
 383              		.loc 1 133 0 is_stmt 0 discriminator 1
 384 007e 7B68     		ldr	r3, [r7, #4]
 385 0080 102B     		cmp	r3, #16
 386 0082 CAD9     		bls	.L25
 143:.\Protocolo.c ****         }
 144:.\Protocolo.c ****     }
 145:.\Protocolo.c ****     if((side.a.dir!=0xff)&&(side.b.dir!=0xff)){
 387              		.loc 1 145 0 is_stmt 1
 388 0084 0D4B     		ldr	r3, .L30
 389 0086 1B78     		ldrb	r3, [r3]	@ zero_extendqisi2
 390 0088 FF2B     		cmp	r3, #255
 391 008a 06D0     		beq	.L26
 392              		.loc 1 145 0 is_stmt 0 discriminator 1
 393 008c 0B4B     		ldr	r3, .L30
 394 008e 93F86931 		ldrb	r3, [r3, #361]	@ zero_extendqisi2
 395 0092 FF2B     		cmp	r3, #255
 396 0094 01D0     		beq	.L26
 146:.\Protocolo.c ****         return 2;
 397              		.loc 1 146 0 is_stmt 1
 398 0096 0223     		movs	r3, #2
 399 0098 0BE0     		b	.L27
 400              	.L26:
 147:.\Protocolo.c ****     }
 148:.\Protocolo.c ****     else{
 149:.\Protocolo.c ****         if((side.a.dir!=0xff)||(side.b.dir!=0xff)){
 401              		.loc 1 149 0
 402 009a 084B     		ldr	r3, .L30
 403 009c 1B78     		ldrb	r3, [r3]	@ zero_extendqisi2
 404 009e FF2B     		cmp	r3, #255
 405 00a0 04D1     		bne	.L28
 406              		.loc 1 149 0 is_stmt 0 discriminator 1
 407 00a2 064B     		ldr	r3, .L30
 408 00a4 93F86931 		ldrb	r3, [r3, #361]	@ zero_extendqisi2
 409 00a8 FF2B     		cmp	r3, #255
 410 00aa 01D0     		beq	.L29
 411              	.L28:
 150:.\Protocolo.c ****             return 1;
 412              		.loc 1 150 0 is_stmt 1
 413 00ac 0123     		movs	r3, #1
 414 00ae 00E0     		b	.L27
ARM GAS  C:\Users\PROYEC~1\AppData\Local\Temp\ccuck2D9.s 			page 11


 415              	.L29:
 151:.\Protocolo.c ****         }
 152:.\Protocolo.c ****         else{
 153:.\Protocolo.c ****             return 0;
 416              		.loc 1 153 0
 417 00b0 0023     		movs	r3, #0
 418              	.L27:
 154:.\Protocolo.c ****         }
 155:.\Protocolo.c ****     }
 156:.\Protocolo.c **** }
 419              		.loc 1 156 0
 420 00b2 1846     		mov	r0, r3
 421 00b4 0837     		adds	r7, r7, #8
 422              		.cfi_def_cfa_offset 8
 423 00b6 BD46     		mov	sp, r7
 424              		.cfi_def_cfa_register 13
 425              		@ sp needed
 426 00b8 80BD     		pop	{r7, pc}
 427              	.L31:
 428 00ba 00BF     		.align	2
 429              	.L30:
 430 00bc 00000000 		.word	side
 431              		.cfi_endproc
 432              	.LFE57:
 433              		.size	get_position, .-get_position
 434              		.section	.text.get_state,"ax",%progbits
 435              		.align	2
 436              		.global	get_state
 437              		.thumb
 438              		.thumb_func
 439              		.type	get_state, %function
 440              	get_state:
 441              	.LFB58:
 157:.\Protocolo.c **** 
 158:.\Protocolo.c **** /*
 159:.\Protocolo.c **** ***************************************************************************************************
 160:.\Protocolo.c **** *                                    uint8 get_state(uint8 dir)
 161:.\Protocolo.c **** *
 162:.\Protocolo.c **** * Description : 
 163:.\Protocolo.c **** *               
 164:.\Protocolo.c **** *
 165:.\Protocolo.c **** * Argument(s) : none
 166:.\Protocolo.c **** *
 167:.\Protocolo.c **** * Return(s)   : none
 168:.\Protocolo.c **** *
 169:.\Protocolo.c **** * Caller(s)   : 
 170:.\Protocolo.c **** *
 171:.\Protocolo.c **** * Note(s)     : none.
 172:.\Protocolo.c **** ***************************************************************************************************
 173:.\Protocolo.c **** */
 174:.\Protocolo.c **** 
 175:.\Protocolo.c **** uint8 get_state(uint8 dir){
 442              		.loc 1 175 0
 443              		.cfi_startproc
 444              		@ args = 0, pretend = 0, frame = 16
 445              		@ frame_needed = 1, uses_anonymous_args = 0
 446 0000 80B5     		push	{r7, lr}
ARM GAS  C:\Users\PROYEC~1\AppData\Local\Temp\ccuck2D9.s 			page 12


 447              		.cfi_def_cfa_offset 8
 448              		.cfi_offset 7, -8
 449              		.cfi_offset 14, -4
 450 0002 84B0     		sub	sp, sp, #16
 451              		.cfi_def_cfa_offset 24
 452 0004 00AF     		add	r7, sp, #0
 453              		.cfi_def_cfa_register 7
 454 0006 0346     		mov	r3, r0
 455 0008 FB71     		strb	r3, [r7, #7]
 176:.\Protocolo.c ****     uint8 state;
 177:.\Protocolo.c ****     Pump_AL_PutChar(dir);
 456              		.loc 1 177 0
 457 000a FB79     		ldrb	r3, [r7, #7]	@ zero_extendqisi2
 458 000c 1846     		mov	r0, r3
 459 000e FFF7FEFF 		bl	Pump_AL_PutChar
 178:.\Protocolo.c ****     CyDelay(65);
 460              		.loc 1 178 0
 461 0012 4120     		movs	r0, #65
 462 0014 FFF7FEFF 		bl	CyDelay
 179:.\Protocolo.c ****     if(Pump_AL_GetRxBufferSize()>=1){
 463              		.loc 1 179 0
 464 0018 FFF7FEFF 		bl	Pump_AL_GetRxBufferSize
 465 001c 0346     		mov	r3, r0
 466 001e 002B     		cmp	r3, #0
 467 0020 08D0     		beq	.L33
 180:.\Protocolo.c ****        state=(Pump_AL_ReadRxData()&0xF0)>>4;
 468              		.loc 1 180 0
 469 0022 FFF7FEFF 		bl	Pump_AL_ReadRxData
 470 0026 0346     		mov	r3, r0
 471 0028 1B09     		lsrs	r3, r3, #4
 472 002a FB73     		strb	r3, [r7, #15]
 181:.\Protocolo.c ****        Pump_AL_ClearRxBuffer();
 473              		.loc 1 181 0
 474 002c FFF7FEFF 		bl	Pump_AL_ClearRxBuffer
 182:.\Protocolo.c ****        return state;
 475              		.loc 1 182 0
 476 0030 FB7B     		ldrb	r3, [r7, #15]	@ zero_extendqisi2
 477 0032 00E0     		b	.L34
 478              	.L33:
 183:.\Protocolo.c ****     }
 184:.\Protocolo.c ****     else{
 185:.\Protocolo.c ****         return 0;
 479              		.loc 1 185 0
 480 0034 0023     		movs	r3, #0
 481              	.L34:
 186:.\Protocolo.c ****     }
 187:.\Protocolo.c **** }
 482              		.loc 1 187 0
 483 0036 1846     		mov	r0, r3
 484 0038 1037     		adds	r7, r7, #16
 485              		.cfi_def_cfa_offset 8
 486 003a BD46     		mov	sp, r7
 487              		.cfi_def_cfa_register 13
 488              		@ sp needed
 489 003c 80BD     		pop	{r7, pc}
 490              		.cfi_endproc
 491              	.LFE58:
ARM GAS  C:\Users\PROYEC~1\AppData\Local\Temp\ccuck2D9.s 			page 13


 492              		.size	get_state, .-get_state
 493 003e 00BF     		.section	.text.get_error,"ax",%progbits
 494              		.align	2
 495              		.global	get_error
 496              		.thumb
 497              		.thumb_func
 498              		.type	get_error, %function
 499              	get_error:
 500              	.LFB59:
 188:.\Protocolo.c **** 
 189:.\Protocolo.c **** /*
 190:.\Protocolo.c **** ***************************************************************************************************
 191:.\Protocolo.c **** *                                      void get_error(uint8 val)
 192:.\Protocolo.c **** *
 193:.\Protocolo.c **** * Description : 
 194:.\Protocolo.c **** *               
 195:.\Protocolo.c **** *
 196:.\Protocolo.c **** * Argument(s) : none
 197:.\Protocolo.c **** *
 198:.\Protocolo.c **** * Return(s)   : none
 199:.\Protocolo.c **** *
 200:.\Protocolo.c **** * Caller(s)   : 
 201:.\Protocolo.c **** *
 202:.\Protocolo.c **** * Note(s)     : none.
 203:.\Protocolo.c **** ***************************************************************************************************
 204:.\Protocolo.c **** */
 205:.\Protocolo.c **** void get_error(uint8 val){
 501              		.loc 1 205 0
 502              		.cfi_startproc
 503              		@ args = 0, pretend = 0, frame = 16
 504              		@ frame_needed = 1, uses_anonymous_args = 0
 505 0000 80B5     		push	{r7, lr}
 506              		.cfi_def_cfa_offset 8
 507              		.cfi_offset 7, -8
 508              		.cfi_offset 14, -4
 509 0002 84B0     		sub	sp, sp, #16
 510              		.cfi_def_cfa_offset 24
 511 0004 00AF     		add	r7, sp, #0
 512              		.cfi_def_cfa_register 7
 513 0006 0346     		mov	r3, r0
 514 0008 FB71     		strb	r3, [r7, #7]
 206:.\Protocolo.c ****     uint8 state;
 207:.\Protocolo.c ****     Pump_AL_PutChar(val);
 515              		.loc 1 207 0
 516 000a FB79     		ldrb	r3, [r7, #7]	@ zero_extendqisi2
 517 000c 1846     		mov	r0, r3
 518 000e FFF7FEFF 		bl	Pump_AL_PutChar
 208:.\Protocolo.c ****     CyDelay(200);
 519              		.loc 1 208 0
 520 0012 C820     		movs	r0, #200
 521 0014 FFF7FEFF 		bl	CyDelay
 209:.\Protocolo.c ****     if(Pump_AL_GetRxBufferSize()>=1){
 522              		.loc 1 209 0
 523 0018 FFF7FEFF 		bl	Pump_AL_GetRxBufferSize
 524 001c 0346     		mov	r3, r0
 525 001e 002B     		cmp	r3, #0
 526 0020 06D0     		beq	.L35
ARM GAS  C:\Users\PROYEC~1\AppData\Local\Temp\ccuck2D9.s 			page 14


 210:.\Protocolo.c ****        state=(Pump_AL_ReadRxData()&0xF0)>>4;
 527              		.loc 1 210 0
 528 0022 FFF7FEFF 		bl	Pump_AL_ReadRxData
 529 0026 0346     		mov	r3, r0
 530 0028 1B09     		lsrs	r3, r3, #4
 531 002a FB73     		strb	r3, [r7, #15]
 211:.\Protocolo.c ****        Pump_AL_ClearRxBuffer();
 532              		.loc 1 211 0
 533 002c FFF7FEFF 		bl	Pump_AL_ClearRxBuffer
 534              	.L35:
 212:.\Protocolo.c ****        if(state==0){
 213:.\Protocolo.c **** 
 214:.\Protocolo.c ****        }
 215:.\Protocolo.c ****     }    
 216:.\Protocolo.c **** }
 535              		.loc 1 216 0
 536 0030 1037     		adds	r7, r7, #16
 537              		.cfi_def_cfa_offset 8
 538 0032 BD46     		mov	sp, r7
 539              		.cfi_def_cfa_register 13
 540              		@ sp needed
 541 0034 80BD     		pop	{r7, pc}
 542              		.cfi_endproc
 543              	.LFE59:
 544              		.size	get_error, .-get_error
 545 0036 00BF     		.section	.text.stop,"ax",%progbits
 546              		.align	2
 547              		.global	stop
 548              		.thumb
 549              		.thumb_func
 550              		.type	stop, %function
 551              	stop:
 552              	.LFB60:
 217:.\Protocolo.c **** 
 218:.\Protocolo.c **** /*
 219:.\Protocolo.c **** ***************************************************************************************************
 220:.\Protocolo.c **** *                                         void stop(uint8 val)
 221:.\Protocolo.c **** *
 222:.\Protocolo.c **** * Description : 
 223:.\Protocolo.c **** *               
 224:.\Protocolo.c **** *
 225:.\Protocolo.c **** * Argument(s) : none
 226:.\Protocolo.c **** *
 227:.\Protocolo.c **** * Return(s)   : none
 228:.\Protocolo.c **** *
 229:.\Protocolo.c **** * Caller(s)   : 
 230:.\Protocolo.c **** *
 231:.\Protocolo.c **** * Note(s)     : none.
 232:.\Protocolo.c **** ***************************************************************************************************
 233:.\Protocolo.c **** */
 234:.\Protocolo.c **** void stop(uint8 val){
 553              		.loc 1 234 0
 554              		.cfi_startproc
 555              		@ args = 0, pretend = 0, frame = 8
 556              		@ frame_needed = 1, uses_anonymous_args = 0
 557 0000 80B5     		push	{r7, lr}
 558              		.cfi_def_cfa_offset 8
ARM GAS  C:\Users\PROYEC~1\AppData\Local\Temp\ccuck2D9.s 			page 15


 559              		.cfi_offset 7, -8
 560              		.cfi_offset 14, -4
 561 0002 82B0     		sub	sp, sp, #8
 562              		.cfi_def_cfa_offset 16
 563 0004 00AF     		add	r7, sp, #0
 564              		.cfi_def_cfa_register 7
 565 0006 0346     		mov	r3, r0
 566 0008 FB71     		strb	r3, [r7, #7]
 235:.\Protocolo.c ****     Pump_AL_PutChar(0x30|val);
 567              		.loc 1 235 0
 568 000a FB79     		ldrb	r3, [r7, #7]
 569 000c 43F03003 		orr	r3, r3, #48
 570 0010 DBB2     		uxtb	r3, r3
 571 0012 1846     		mov	r0, r3
 572 0014 FFF7FEFF 		bl	Pump_AL_PutChar
 236:.\Protocolo.c ****     CyDelay(200);
 573              		.loc 1 236 0
 574 0018 C820     		movs	r0, #200
 575 001a FFF7FEFF 		bl	CyDelay
 237:.\Protocolo.c **** }
 576              		.loc 1 237 0
 577 001e 0837     		adds	r7, r7, #8
 578              		.cfi_def_cfa_offset 8
 579 0020 BD46     		mov	sp, r7
 580              		.cfi_def_cfa_register 13
 581              		@ sp needed
 582 0022 80BD     		pop	{r7, pc}
 583              		.cfi_endproc
 584              	.LFE60:
 585              		.size	stop, .-stop
 586              		.section	.text.sale_in,"ax",%progbits
 587              		.align	2
 588              		.global	sale_in
 589              		.thumb
 590              		.thumb_func
 591              		.type	sale_in, %function
 592              	sale_in:
 593              	.LFB61:
 238:.\Protocolo.c **** 
 239:.\Protocolo.c **** 
 240:.\Protocolo.c **** /*
 241:.\Protocolo.c **** ***************************************************************************************************
 242:.\Protocolo.c **** *                                  uint8 sale_in(uint8 val)
 243:.\Protocolo.c **** *
 244:.\Protocolo.c **** * Description : 
 245:.\Protocolo.c **** *               
 246:.\Protocolo.c **** *
 247:.\Protocolo.c **** * Argument(s) : none
 248:.\Protocolo.c **** *
 249:.\Protocolo.c **** * Return(s)   : none
 250:.\Protocolo.c **** *
 251:.\Protocolo.c **** * Caller(s)   : 
 252:.\Protocolo.c **** *
 253:.\Protocolo.c **** * Note(s)     : none.
 254:.\Protocolo.c **** ***************************************************************************************************
 255:.\Protocolo.c **** */
 256:.\Protocolo.c **** uint8 sale_in(uint8 val){
ARM GAS  C:\Users\PROYEC~1\AppData\Local\Temp\ccuck2D9.s 			page 16


 594              		.loc 1 256 0
 595              		.cfi_startproc
 596              		@ args = 0, pretend = 0, frame = 64
 597              		@ frame_needed = 1, uses_anonymous_args = 0
 598 0000 80B5     		push	{r7, lr}
 599              		.cfi_def_cfa_offset 8
 600              		.cfi_offset 7, -8
 601              		.cfi_offset 14, -4
 602 0002 90B0     		sub	sp, sp, #64
 603              		.cfi_def_cfa_offset 72
 604 0004 00AF     		add	r7, sp, #0
 605              		.cfi_def_cfa_register 7
 606 0006 0346     		mov	r3, r0
 607 0008 FB71     		strb	r3, [r7, #7]
 257:.\Protocolo.c ****     uint8 rx_sale[39],pos;
 258:.\Protocolo.c ****     uint32 j,x=0,y;
 608              		.loc 1 258 0
 609 000a 0023     		movs	r3, #0
 610 000c 7B63     		str	r3, [r7, #52]
 259:.\Protocolo.c ****     
 260:.\Protocolo.c ****     Pump_AL_PutChar(0x40|val);
 611              		.loc 1 260 0
 612 000e FB79     		ldrb	r3, [r7, #7]
 613 0010 43F04003 		orr	r3, r3, #64
 614 0014 DBB2     		uxtb	r3, r3
 615 0016 1846     		mov	r0, r3
 616 0018 FFF7FEFF 		bl	Pump_AL_PutChar
 261:.\Protocolo.c ****     CyDelay(250);
 617              		.loc 1 261 0
 618 001c FA20     		movs	r0, #250
 619 001e FFF7FEFF 		bl	CyDelay
 262:.\Protocolo.c ****     if(Pump_AL_GetRxBufferSize()<=39){
 620              		.loc 1 262 0
 621 0022 FFF7FEFF 		bl	Pump_AL_GetRxBufferSize
 622 0026 0346     		mov	r3, r0
 623 0028 272B     		cmp	r3, #39
 624 002a 00F20882 		bhi	.L39
 263:.\Protocolo.c ****         while(Pump_AL_GetRxBufferSize()>0){
 625              		.loc 1 263 0
 626 002e 2AE0     		b	.L40
 627              	.L43:
 264:.\Protocolo.c ****             rx_sale[x]=Pump_AL_ReadRxData();  
 628              		.loc 1 264 0
 629 0030 FFF7FEFF 		bl	Pump_AL_ReadRxData
 630 0034 0346     		mov	r3, r0
 631 0036 1946     		mov	r1, r3
 632 0038 07F10802 		add	r2, r7, #8
 633 003c 7B6B     		ldr	r3, [r7, #52]
 634 003e 1344     		add	r3, r3, r2
 635 0040 0A46     		mov	r2, r1
 636 0042 1A70     		strb	r2, [r3]
 265:.\Protocolo.c ****             if(val==side.a.dir){
 637              		.loc 1 265 0
 638 0044 A44B     		ldr	r3, .L80
 639 0046 1B78     		ldrb	r3, [r3]	@ zero_extendqisi2
 640 0048 FA79     		ldrb	r2, [r7, #7]	@ zero_extendqisi2
 641 004a 9A42     		cmp	r2, r3
ARM GAS  C:\Users\PROYEC~1\AppData\Local\Temp\ccuck2D9.s 			page 17


 642 004c 0CD1     		bne	.L41
 266:.\Protocolo.c ****                 side.a.sale[x+1]=rx_sale[x];
 643              		.loc 1 266 0
 644 004e 7B6B     		ldr	r3, [r7, #52]
 645 0050 0133     		adds	r3, r3, #1
 646 0052 07F10801 		add	r1, r7, #8
 647 0056 7A6B     		ldr	r2, [r7, #52]
 648 0058 0A44     		add	r2, r2, r1
 649 005a 1178     		ldrb	r1, [r2]	@ zero_extendqisi2
 650 005c 9E4A     		ldr	r2, .L80
 651 005e 1344     		add	r3, r3, r2
 652 0060 0A46     		mov	r2, r1
 653 0062 83F82C21 		strb	r2, [r3, #300]
 654 0066 0BE0     		b	.L42
 655              	.L41:
 267:.\Protocolo.c ****             }else{
 268:.\Protocolo.c ****                 side.b.sale[x+1]=rx_sale[x];
 656              		.loc 1 268 0
 657 0068 7B6B     		ldr	r3, [r7, #52]
 658 006a 0133     		adds	r3, r3, #1
 659 006c 07F10801 		add	r1, r7, #8
 660 0070 7A6B     		ldr	r2, [r7, #52]
 661 0072 0A44     		add	r2, r2, r1
 662 0074 1178     		ldrb	r1, [r2]	@ zero_extendqisi2
 663 0076 984A     		ldr	r2, .L80
 664 0078 1344     		add	r3, r3, r2
 665 007a 0A46     		mov	r2, r1
 666 007c 83F89522 		strb	r2, [r3, #661]
 667              	.L42:
 269:.\Protocolo.c ****             }
 270:.\Protocolo.c ****             x++;
 668              		.loc 1 270 0
 669 0080 7B6B     		ldr	r3, [r7, #52]
 670 0082 0133     		adds	r3, r3, #1
 671 0084 7B63     		str	r3, [r7, #52]
 672              	.L40:
 263:.\Protocolo.c ****             rx_sale[x]=Pump_AL_ReadRxData();  
 673              		.loc 1 263 0
 674 0086 FFF7FEFF 		bl	Pump_AL_GetRxBufferSize
 675 008a 0346     		mov	r3, r0
 676 008c 002B     		cmp	r3, #0
 677 008e CFD1     		bne	.L43
 271:.\Protocolo.c ****         }
 272:.\Protocolo.c ****         if(val==side.a.dir){
 678              		.loc 1 272 0
 679 0090 914B     		ldr	r3, .L80
 680 0092 1B78     		ldrb	r3, [r3]	@ zero_extendqisi2
 681 0094 FA79     		ldrb	r2, [r7, #7]	@ zero_extendqisi2
 682 0096 9A42     		cmp	r2, r3
 683 0098 05D1     		bne	.L44
 273:.\Protocolo.c ****             side.a.sale[0]=x;
 684              		.loc 1 273 0
 685 009a 7B6B     		ldr	r3, [r7, #52]
 686 009c DAB2     		uxtb	r2, r3
 687 009e 8E4B     		ldr	r3, .L80
 688 00a0 83F82C21 		strb	r2, [r3, #300]
 689 00a4 04E0     		b	.L45
ARM GAS  C:\Users\PROYEC~1\AppData\Local\Temp\ccuck2D9.s 			page 18


 690              	.L44:
 274:.\Protocolo.c ****         }else{
 275:.\Protocolo.c ****             side.b.sale[0]=x;
 691              		.loc 1 275 0
 692 00a6 7B6B     		ldr	r3, [r7, #52]
 693 00a8 DAB2     		uxtb	r2, r3
 694 00aa 8B4B     		ldr	r3, .L80
 695 00ac 83F89522 		strb	r2, [r3, #661]
 696              	.L45:
 276:.\Protocolo.c ****         }
 277:.\Protocolo.c ****         Pump_AL_ClearRxBuffer();
 697              		.loc 1 277 0
 698 00b0 FFF7FEFF 		bl	Pump_AL_ClearRxBuffer
 278:.\Protocolo.c ****         if(val==0){
 699              		.loc 1 278 0
 700 00b4 FB79     		ldrb	r3, [r7, #7]	@ zero_extendqisi2
 701 00b6 002B     		cmp	r3, #0
 702 00b8 07D1     		bne	.L46
 279:.\Protocolo.c ****             pos=0x10;
 703              		.loc 1 279 0
 704 00ba 1023     		movs	r3, #16
 705 00bc 87F83F30 		strb	r3, [r7, #63]
 280:.\Protocolo.c ****             bSale.position=pos;
 706              		.loc 1 280 0
 707 00c0 864A     		ldr	r2, .L80+4
 708 00c2 97F83F30 		ldrb	r3, [r7, #63]
 709 00c6 1370     		strb	r3, [r2]
 710 00c8 06E0     		b	.L47
 711              	.L46:
 281:.\Protocolo.c ****         }
 282:.\Protocolo.c ****         else{
 283:.\Protocolo.c ****             pos=val;
 712              		.loc 1 283 0
 713 00ca FB79     		ldrb	r3, [r7, #7]
 714 00cc 87F83F30 		strb	r3, [r7, #63]
 284:.\Protocolo.c ****             bSale.position=pos;
 715              		.loc 1 284 0
 716 00d0 824A     		ldr	r2, .L80+4
 717 00d2 97F83F30 		ldrb	r3, [r7, #63]
 718 00d6 1370     		strb	r3, [r2]
 719              	.L47:
 285:.\Protocolo.c ****         }
 286:.\Protocolo.c ****         if((rx_sale[0]==0xFF)&&(rx_sale[2]==0xF8)&&((rx_sale[4]&0x0F)==(pos-1))){
 720              		.loc 1 286 0
 721 00d8 3B7A     		ldrb	r3, [r7, #8]	@ zero_extendqisi2
 722 00da FF2B     		cmp	r3, #255
 723 00dc 40F0AD81 		bne	.L48
 724              		.loc 1 286 0 is_stmt 0 discriminator 1
 725 00e0 BB7A     		ldrb	r3, [r7, #10]	@ zero_extendqisi2
 726 00e2 F82B     		cmp	r3, #248
 727 00e4 40F0A981 		bne	.L48
 728              		.loc 1 286 0 discriminator 2
 729 00e8 3B7B     		ldrb	r3, [r7, #12]	@ zero_extendqisi2
 730 00ea 03F00F02 		and	r2, r3, #15
 731 00ee 97F83F30 		ldrb	r3, [r7, #63]	@ zero_extendqisi2
 732 00f2 013B     		subs	r3, r3, #1
 733 00f4 9A42     		cmp	r2, r3
ARM GAS  C:\Users\PROYEC~1\AppData\Local\Temp\ccuck2D9.s 			page 19


 734 00f6 40F0A081 		bne	.L48
 287:.\Protocolo.c ****             x=0;
 735              		.loc 1 287 0 is_stmt 1
 736 00fa 0023     		movs	r3, #0
 737 00fc 7B63     		str	r3, [r7, #52]
 288:.\Protocolo.c ****             while((rx_sale[x]!=0xF6)||(x>=39)){
 738              		.loc 1 288 0
 739 00fe 02E0     		b	.L49
 740              	.L50:
 289:.\Protocolo.c ****                 x++;
 741              		.loc 1 289 0
 742 0100 7B6B     		ldr	r3, [r7, #52]
 743 0102 0133     		adds	r3, r3, #1
 744 0104 7B63     		str	r3, [r7, #52]
 745              	.L49:
 288:.\Protocolo.c ****             while((rx_sale[x]!=0xF6)||(x>=39)){
 746              		.loc 1 288 0
 747 0106 07F10802 		add	r2, r7, #8
 748 010a 7B6B     		ldr	r3, [r7, #52]
 749 010c 1344     		add	r3, r3, r2
 750 010e 1B78     		ldrb	r3, [r3]	@ zero_extendqisi2
 751 0110 F62B     		cmp	r3, #246
 752 0112 F5D1     		bne	.L50
 288:.\Protocolo.c ****             while((rx_sale[x]!=0xF6)||(x>=39)){
 753              		.loc 1 288 0 is_stmt 0 discriminator 1
 754 0114 7B6B     		ldr	r3, [r7, #52]
 755 0116 262B     		cmp	r3, #38
 756 0118 F2D8     		bhi	.L50
 290:.\Protocolo.c ****             }
 291:.\Protocolo.c ****             x++;
 757              		.loc 1 291 0 is_stmt 1
 758 011a 7B6B     		ldr	r3, [r7, #52]
 759 011c 0133     		adds	r3, r3, #1
 760 011e 7B63     		str	r3, [r7, #52]
 292:.\Protocolo.c ****             bSale.product=(rx_sale[x]&0x0F)+1;
 761              		.loc 1 292 0
 762 0120 07F10802 		add	r2, r7, #8
 763 0124 7B6B     		ldr	r3, [r7, #52]
 764 0126 1344     		add	r3, r3, r2
 765 0128 1B78     		ldrb	r3, [r3]	@ zero_extendqisi2
 766 012a 03F00F03 		and	r3, r3, #15
 767 012e DBB2     		uxtb	r3, r3
 768 0130 0133     		adds	r3, r3, #1
 769 0132 DAB2     		uxtb	r2, r3
 770 0134 694B     		ldr	r3, .L80+4
 771 0136 5A70     		strb	r2, [r3, #1]
 293:.\Protocolo.c ****             while((rx_sale[x]!=0xF7)||(x>=39)){
 772              		.loc 1 293 0
 773 0138 02E0     		b	.L51
 774              	.L52:
 294:.\Protocolo.c ****                 x++;
 775              		.loc 1 294 0
 776 013a 7B6B     		ldr	r3, [r7, #52]
 777 013c 0133     		adds	r3, r3, #1
 778 013e 7B63     		str	r3, [r7, #52]
 779              	.L51:
 293:.\Protocolo.c ****             while((rx_sale[x]!=0xF7)||(x>=39)){
ARM GAS  C:\Users\PROYEC~1\AppData\Local\Temp\ccuck2D9.s 			page 20


 780              		.loc 1 293 0
 781 0140 07F10802 		add	r2, r7, #8
 782 0144 7B6B     		ldr	r3, [r7, #52]
 783 0146 1344     		add	r3, r3, r2
 784 0148 1B78     		ldrb	r3, [r3]	@ zero_extendqisi2
 785 014a F72B     		cmp	r3, #247
 786 014c F5D1     		bne	.L52
 293:.\Protocolo.c ****             while((rx_sale[x]!=0xF7)||(x>=39)){
 787              		.loc 1 293 0 is_stmt 0 discriminator 1
 788 014e 7B6B     		ldr	r3, [r7, #52]
 789 0150 262B     		cmp	r3, #38
 790 0152 F2D8     		bhi	.L52
 295:.\Protocolo.c ****             }
 296:.\Protocolo.c ****             x++;
 791              		.loc 1 296 0 is_stmt 1
 792 0154 7B6B     		ldr	r3, [r7, #52]
 793 0156 0133     		adds	r3, r3, #1
 794 0158 7B63     		str	r3, [r7, #52]
 297:.\Protocolo.c ****             y=1;
 795              		.loc 1 297 0
 796 015a 0123     		movs	r3, #1
 797 015c 3B63     		str	r3, [r7, #48]
 298:.\Protocolo.c ****             while((rx_sale[x]!=0xF9)||(x>=39)){    
 798              		.loc 1 298 0
 799 015e 12E0     		b	.L53
 800              	.L54:
 299:.\Protocolo.c ****                 bSale.ppu[y]=(rx_sale[x]&0x0F);
 801              		.loc 1 299 0
 802 0160 07F10802 		add	r2, r7, #8
 803 0164 7B6B     		ldr	r3, [r7, #52]
 804 0166 1344     		add	r3, r3, r2
 805 0168 1B78     		ldrb	r3, [r3]	@ zero_extendqisi2
 806 016a 03F00F03 		and	r3, r3, #15
 807 016e D9B2     		uxtb	r1, r3
 808 0170 5A4A     		ldr	r2, .L80+4
 809 0172 3B6B     		ldr	r3, [r7, #48]
 810 0174 1344     		add	r3, r3, r2
 811 0176 0A46     		mov	r2, r1
 812 0178 9A70     		strb	r2, [r3, #2]
 300:.\Protocolo.c ****                 x++;
 813              		.loc 1 300 0
 814 017a 7B6B     		ldr	r3, [r7, #52]
 815 017c 0133     		adds	r3, r3, #1
 816 017e 7B63     		str	r3, [r7, #52]
 301:.\Protocolo.c ****                 y++;
 817              		.loc 1 301 0
 818 0180 3B6B     		ldr	r3, [r7, #48]
 819 0182 0133     		adds	r3, r3, #1
 820 0184 3B63     		str	r3, [r7, #48]
 821              	.L53:
 298:.\Protocolo.c ****                 bSale.ppu[y]=(rx_sale[x]&0x0F);
 822              		.loc 1 298 0
 823 0186 07F10802 		add	r2, r7, #8
 824 018a 7B6B     		ldr	r3, [r7, #52]
 825 018c 1344     		add	r3, r3, r2
 826 018e 1B78     		ldrb	r3, [r3]	@ zero_extendqisi2
 827 0190 F92B     		cmp	r3, #249
ARM GAS  C:\Users\PROYEC~1\AppData\Local\Temp\ccuck2D9.s 			page 21


 828 0192 E5D1     		bne	.L54
 298:.\Protocolo.c ****                 bSale.ppu[y]=(rx_sale[x]&0x0F);
 829              		.loc 1 298 0 is_stmt 0 discriminator 1
 830 0194 7B6B     		ldr	r3, [r7, #52]
 831 0196 262B     		cmp	r3, #38
 832 0198 E2D8     		bhi	.L54
 302:.\Protocolo.c ****             }
 303:.\Protocolo.c **** 			bSale.ppu[0]=y-1;
 833              		.loc 1 303 0 is_stmt 1
 834 019a 3B6B     		ldr	r3, [r7, #48]
 835 019c DBB2     		uxtb	r3, r3
 836 019e 013B     		subs	r3, r3, #1
 837 01a0 DAB2     		uxtb	r2, r3
 838 01a2 4E4B     		ldr	r3, .L80+4
 839 01a4 9A70     		strb	r2, [r3, #2]
 304:.\Protocolo.c ****             x++;
 840              		.loc 1 304 0
 841 01a6 7B6B     		ldr	r3, [r7, #52]
 842 01a8 0133     		adds	r3, r3, #1
 843 01aa 7B63     		str	r3, [r7, #52]
 305:.\Protocolo.c ****             y=1;
 844              		.loc 1 305 0
 845 01ac 0123     		movs	r3, #1
 846 01ae 3B63     		str	r3, [r7, #48]
 306:.\Protocolo.c ****             while((rx_sale[x]!=0xFA)||(x>=39)){
 847              		.loc 1 306 0
 848 01b0 13E0     		b	.L55
 849              	.L56:
 307:.\Protocolo.c ****                 bSale.volume[y]=(rx_sale[x]&0x0F);
 850              		.loc 1 307 0
 851 01b2 07F10802 		add	r2, r7, #8
 852 01b6 7B6B     		ldr	r3, [r7, #52]
 853 01b8 1344     		add	r3, r3, r2
 854 01ba 1B78     		ldrb	r3, [r3]	@ zero_extendqisi2
 855 01bc 03F00F03 		and	r3, r3, #15
 856 01c0 D9B2     		uxtb	r1, r3
 857 01c2 464A     		ldr	r2, .L80+4
 858 01c4 3B6B     		ldr	r3, [r7, #48]
 859 01c6 1344     		add	r3, r3, r2
 860 01c8 1833     		adds	r3, r3, #24
 861 01ca 0A46     		mov	r2, r1
 862 01cc 1A70     		strb	r2, [r3]
 308:.\Protocolo.c ****                 x++;
 863              		.loc 1 308 0
 864 01ce 7B6B     		ldr	r3, [r7, #52]
 865 01d0 0133     		adds	r3, r3, #1
 866 01d2 7B63     		str	r3, [r7, #52]
 309:.\Protocolo.c ****                 y++;    
 867              		.loc 1 309 0
 868 01d4 3B6B     		ldr	r3, [r7, #48]
 869 01d6 0133     		adds	r3, r3, #1
 870 01d8 3B63     		str	r3, [r7, #48]
 871              	.L55:
 306:.\Protocolo.c ****                 bSale.volume[y]=(rx_sale[x]&0x0F);
 872              		.loc 1 306 0
 873 01da 07F10802 		add	r2, r7, #8
 874 01de 7B6B     		ldr	r3, [r7, #52]
ARM GAS  C:\Users\PROYEC~1\AppData\Local\Temp\ccuck2D9.s 			page 22


 875 01e0 1344     		add	r3, r3, r2
 876 01e2 1B78     		ldrb	r3, [r3]	@ zero_extendqisi2
 877 01e4 FA2B     		cmp	r3, #250
 878 01e6 E4D1     		bne	.L56
 306:.\Protocolo.c ****                 bSale.volume[y]=(rx_sale[x]&0x0F);
 879              		.loc 1 306 0 is_stmt 0 discriminator 1
 880 01e8 7B6B     		ldr	r3, [r7, #52]
 881 01ea 262B     		cmp	r3, #38
 882 01ec E1D8     		bhi	.L56
 310:.\Protocolo.c ****             }
 311:.\Protocolo.c **** 			bSale.volume[0]=y-1;
 883              		.loc 1 311 0 is_stmt 1
 884 01ee 3B6B     		ldr	r3, [r7, #48]
 885 01f0 DBB2     		uxtb	r3, r3
 886 01f2 013B     		subs	r3, r3, #1
 887 01f4 DAB2     		uxtb	r2, r3
 888 01f6 394B     		ldr	r3, .L80+4
 889 01f8 1A76     		strb	r2, [r3, #24]
 312:.\Protocolo.c ****             x++;
 890              		.loc 1 312 0
 891 01fa 7B6B     		ldr	r3, [r7, #52]
 892 01fc 0133     		adds	r3, r3, #1
 893 01fe 7B63     		str	r3, [r7, #52]
 313:.\Protocolo.c ****             y=1;
 894              		.loc 1 313 0
 895 0200 0123     		movs	r3, #1
 896 0202 3B63     		str	r3, [r7, #48]
 314:.\Protocolo.c ****             while((rx_sale[x]!=0xFB)||(x>=39)){
 897              		.loc 1 314 0
 898 0204 13E0     		b	.L57
 899              	.L58:
 315:.\Protocolo.c ****                 bSale.money[y]=(rx_sale[x]&0x0F);
 900              		.loc 1 315 0
 901 0206 07F10802 		add	r2, r7, #8
 902 020a 7B6B     		ldr	r3, [r7, #52]
 903 020c 1344     		add	r3, r3, r2
 904 020e 1B78     		ldrb	r3, [r3]	@ zero_extendqisi2
 905 0210 03F00F03 		and	r3, r3, #15
 906 0214 D9B2     		uxtb	r1, r3
 907 0216 314A     		ldr	r2, .L80+4
 908 0218 3B6B     		ldr	r3, [r7, #48]
 909 021a 1344     		add	r3, r3, r2
 910 021c 0833     		adds	r3, r3, #8
 911 021e 0A46     		mov	r2, r1
 912 0220 1A71     		strb	r2, [r3, #4]
 316:.\Protocolo.c ****                 x++;
 913              		.loc 1 316 0
 914 0222 7B6B     		ldr	r3, [r7, #52]
 915 0224 0133     		adds	r3, r3, #1
 916 0226 7B63     		str	r3, [r7, #52]
 317:.\Protocolo.c ****                 y++;    
 917              		.loc 1 317 0
 918 0228 3B6B     		ldr	r3, [r7, #48]
 919 022a 0133     		adds	r3, r3, #1
 920 022c 3B63     		str	r3, [r7, #48]
 921              	.L57:
 314:.\Protocolo.c ****                 bSale.money[y]=(rx_sale[x]&0x0F);
ARM GAS  C:\Users\PROYEC~1\AppData\Local\Temp\ccuck2D9.s 			page 23


 922              		.loc 1 314 0
 923 022e 07F10802 		add	r2, r7, #8
 924 0232 7B6B     		ldr	r3, [r7, #52]
 925 0234 1344     		add	r3, r3, r2
 926 0236 1B78     		ldrb	r3, [r3]	@ zero_extendqisi2
 927 0238 FB2B     		cmp	r3, #251
 928 023a E4D1     		bne	.L58
 314:.\Protocolo.c ****                 bSale.money[y]=(rx_sale[x]&0x0F);
 929              		.loc 1 314 0 is_stmt 0 discriminator 1
 930 023c 7B6B     		ldr	r3, [r7, #52]
 931 023e 262B     		cmp	r3, #38
 932 0240 E1D8     		bhi	.L58
 318:.\Protocolo.c ****             }
 319:.\Protocolo.c **** 			bSale.money[0]=y-1;
 933              		.loc 1 319 0 is_stmt 1
 934 0242 3B6B     		ldr	r3, [r7, #48]
 935 0244 DBB2     		uxtb	r3, r3
 936 0246 013B     		subs	r3, r3, #1
 937 0248 DAB2     		uxtb	r2, r3
 938 024a 244B     		ldr	r3, .L80+4
 939 024c 1A73     		strb	r2, [r3, #12]
 320:.\Protocolo.c ****             x+=2;
 940              		.loc 1 320 0
 941 024e 7B6B     		ldr	r3, [r7, #52]
 942 0250 0233     		adds	r3, r3, #2
 943 0252 7B63     		str	r3, [r7, #52]
 321:.\Protocolo.c ****             if((rx_sale[x]==0xF0)&&(x<=38)){								
 944              		.loc 1 321 0
 945 0254 07F10802 		add	r2, r7, #8
 946 0258 7B6B     		ldr	r3, [r7, #52]
 947 025a 1344     		add	r3, r3, r2
 948 025c 1B78     		ldrb	r3, [r3]	@ zero_extendqisi2
 949 025e F02B     		cmp	r3, #240
 950 0260 40F0E980 		bne	.L59
 951              		.loc 1 321 0 is_stmt 0 discriminator 1
 952 0264 7B6B     		ldr	r3, [r7, #52]
 953 0266 262B     		cmp	r3, #38
 954 0268 00F2E580 		bhi	.L59
 322:.\Protocolo.c **** 				if(val==side.a.dir){
 955              		.loc 1 322 0 is_stmt 1
 956 026c 1A4B     		ldr	r3, .L80
 957 026e 1B78     		ldrb	r3, [r3]	@ zero_extendqisi2
 958 0270 FA79     		ldrb	r2, [r7, #7]	@ zero_extendqisi2
 959 0272 9A42     		cmp	r2, r3
 960 0274 6FD1     		bne	.L60
 323:.\Protocolo.c **** 					for(j=0;j<=bSale.money[0];j++){
 961              		.loc 1 323 0
 962 0276 0023     		movs	r3, #0
 963 0278 BB63     		str	r3, [r7, #56]
 964 027a 0DE0     		b	.L61
 965              	.L62:
 324:.\Protocolo.c ****     					side.a.money[j]=bSale.money[j];
 966              		.loc 1 324 0 discriminator 3
 967 027c 174A     		ldr	r2, .L80+4
 968 027e BB6B     		ldr	r3, [r7, #56]
 969 0280 1344     		add	r3, r3, r2
 970 0282 0833     		adds	r3, r3, #8
ARM GAS  C:\Users\PROYEC~1\AppData\Local\Temp\ccuck2D9.s 			page 24


 971 0284 1979     		ldrb	r1, [r3, #4]	@ zero_extendqisi2
 972 0286 144A     		ldr	r2, .L80
 973 0288 BB6B     		ldr	r3, [r7, #56]
 974 028a 1344     		add	r3, r3, r2
 975 028c 4833     		adds	r3, r3, #72
 976 028e 0A46     		mov	r2, r1
 977 0290 1A71     		strb	r2, [r3, #4]
 323:.\Protocolo.c **** 					for(j=0;j<=bSale.money[0];j++){
 978              		.loc 1 323 0 discriminator 3
 979 0292 BB6B     		ldr	r3, [r7, #56]
 980 0294 0133     		adds	r3, r3, #1
 981 0296 BB63     		str	r3, [r7, #56]
 982              	.L61:
 323:.\Protocolo.c **** 					for(j=0;j<=bSale.money[0];j++){
 983              		.loc 1 323 0 is_stmt 0 discriminator 1
 984 0298 104B     		ldr	r3, .L80+4
 985 029a 1B7B     		ldrb	r3, [r3, #12]	@ zero_extendqisi2
 986 029c 1A46     		mov	r2, r3
 987 029e BB6B     		ldr	r3, [r7, #56]
 988 02a0 9A42     		cmp	r2, r3
 989 02a2 EBD2     		bcs	.L62
 325:.\Protocolo.c ****     				}
 326:.\Protocolo.c ****     				for(j=0;j<=bSale.volume[0];j++){
 990              		.loc 1 326 0 is_stmt 1
 991 02a4 0023     		movs	r3, #0
 992 02a6 BB63     		str	r3, [r7, #56]
 993 02a8 0DE0     		b	.L63
 994              	.L64:
 327:.\Protocolo.c ****     					side.a.volume[j]=bSale.volume[j];
 995              		.loc 1 327 0 discriminator 3
 996 02aa 0C4A     		ldr	r2, .L80+4
 997 02ac BB6B     		ldr	r3, [r7, #56]
 998 02ae 1344     		add	r3, r3, r2
 999 02b0 1833     		adds	r3, r3, #24
 1000 02b2 1978     		ldrb	r1, [r3]	@ zero_extendqisi2
 1001 02b4 084A     		ldr	r2, .L80
 1002 02b6 BB6B     		ldr	r3, [r7, #56]
 1003 02b8 1344     		add	r3, r3, r2
 1004 02ba 5833     		adds	r3, r3, #88
 1005 02bc 0A46     		mov	r2, r1
 1006 02be 1A70     		strb	r2, [r3]
 326:.\Protocolo.c ****     					side.a.volume[j]=bSale.volume[j];
 1007              		.loc 1 326 0 discriminator 3
 1008 02c0 BB6B     		ldr	r3, [r7, #56]
 1009 02c2 0133     		adds	r3, r3, #1
 1010 02c4 BB63     		str	r3, [r7, #56]
 1011              	.L63:
 326:.\Protocolo.c ****     					side.a.volume[j]=bSale.volume[j];
 1012              		.loc 1 326 0 is_stmt 0 discriminator 1
 1013 02c6 054B     		ldr	r3, .L80+4
 1014 02c8 1B7E     		ldrb	r3, [r3, #24]	@ zero_extendqisi2
 1015 02ca 1A46     		mov	r2, r3
 1016 02cc BB6B     		ldr	r3, [r7, #56]
 1017 02ce 9A42     		cmp	r2, r3
 1018 02d0 EBD2     		bcs	.L64
 328:.\Protocolo.c ****     				}
 329:.\Protocolo.c ****     				for(j=0;j<=bSale.ppu[0];j++){
ARM GAS  C:\Users\PROYEC~1\AppData\Local\Temp\ccuck2D9.s 			page 25


 1019              		.loc 1 329 0 is_stmt 1
 1020 02d2 0023     		movs	r3, #0
 1021 02d4 BB63     		str	r3, [r7, #56]
 1022 02d6 10E0     		b	.L65
 1023              	.L81:
 1024              		.align	2
 1025              	.L80:
 1026 02d8 00000000 		.word	side
 1027 02dc 00000000 		.word	bSale
 1028              	.L66:
 330:.\Protocolo.c ****     					side.a.ppu[j]=bSale.ppu[j];
 1029              		.loc 1 330 0 discriminator 3
 1030 02e0 594A     		ldr	r2, .L82
 1031 02e2 BB6B     		ldr	r3, [r7, #56]
 1032 02e4 1344     		add	r3, r3, r2
 1033 02e6 9978     		ldrb	r1, [r3, #2]	@ zero_extendqisi2
 1034 02e8 584A     		ldr	r2, .L82+4
 1035 02ea BB6B     		ldr	r3, [r7, #56]
 1036 02ec 1344     		add	r3, r3, r2
 1037 02ee 4033     		adds	r3, r3, #64
 1038 02f0 0A46     		mov	r2, r1
 1039 02f2 9A70     		strb	r2, [r3, #2]
 329:.\Protocolo.c ****     					side.a.ppu[j]=bSale.ppu[j];
 1040              		.loc 1 329 0 discriminator 3
 1041 02f4 BB6B     		ldr	r3, [r7, #56]
 1042 02f6 0133     		adds	r3, r3, #1
 1043 02f8 BB63     		str	r3, [r7, #56]
 1044              	.L65:
 329:.\Protocolo.c ****     					side.a.ppu[j]=bSale.ppu[j];
 1045              		.loc 1 329 0 is_stmt 0 discriminator 1
 1046 02fa 534B     		ldr	r3, .L82
 1047 02fc 9B78     		ldrb	r3, [r3, #2]	@ zero_extendqisi2
 1048 02fe 1A46     		mov	r2, r3
 1049 0300 BB6B     		ldr	r3, [r7, #56]
 1050 0302 9A42     		cmp	r2, r3
 1051 0304 ECD2     		bcs	.L66
 331:.\Protocolo.c ****     				}
 332:.\Protocolo.c ****                     side.a.product=bSale.product;
 1052              		.loc 1 332 0 is_stmt 1
 1053 0306 504B     		ldr	r3, .L82
 1054 0308 5A78     		ldrb	r2, [r3, #1]	@ zero_extendqisi2
 1055 030a 504B     		ldr	r3, .L82+4
 1056 030c 83F84120 		strb	r2, [r3, #65]
 333:.\Protocolo.c ****                     countImp[1]=0;
 1057              		.loc 1 333 0
 1058 0310 4F4B     		ldr	r3, .L82+8
 1059 0312 0022     		movs	r2, #0
 1060 0314 5A70     		strb	r2, [r3, #1]
 334:.\Protocolo.c ****                     read_date();
 1061              		.loc 1 334 0
 1062 0316 FFF7FEFF 		bl	read_date
 335:.\Protocolo.c ****                     read_time();
 1063              		.loc 1 335 0
 1064 031a FFF7FEFF 		bl	read_time
 336:.\Protocolo.c ****                     for(j=0;j<=2;j++){
 1065              		.loc 1 336 0
 1066 031e 0023     		movs	r3, #0
ARM GAS  C:\Users\PROYEC~1\AppData\Local\Temp\ccuck2D9.s 			page 26


 1067 0320 BB63     		str	r3, [r7, #56]
 1068 0322 14E0     		b	.L67
 1069              	.L68:
 337:.\Protocolo.c ****                         dateSale1[j]=date[j];
 1070              		.loc 1 337 0 discriminator 3
 1071 0324 4B4A     		ldr	r2, .L82+12
 1072 0326 BB6B     		ldr	r3, [r7, #56]
 1073 0328 1344     		add	r3, r3, r2
 1074 032a 1978     		ldrb	r1, [r3]	@ zero_extendqisi2
 1075 032c 4A4A     		ldr	r2, .L82+16
 1076 032e BB6B     		ldr	r3, [r7, #56]
 1077 0330 1344     		add	r3, r3, r2
 1078 0332 0A46     		mov	r2, r1
 1079 0334 1A70     		strb	r2, [r3]
 338:.\Protocolo.c ****                         timeSale1[j]=time[j];
 1080              		.loc 1 338 0 discriminator 3
 1081 0336 494A     		ldr	r2, .L82+20
 1082 0338 BB6B     		ldr	r3, [r7, #56]
 1083 033a 1344     		add	r3, r3, r2
 1084 033c 1978     		ldrb	r1, [r3]	@ zero_extendqisi2
 1085 033e 484A     		ldr	r2, .L82+24
 1086 0340 BB6B     		ldr	r3, [r7, #56]
 1087 0342 1344     		add	r3, r3, r2
 1088 0344 0A46     		mov	r2, r1
 1089 0346 1A70     		strb	r2, [r3]
 336:.\Protocolo.c ****                     for(j=0;j<=2;j++){
 1090              		.loc 1 336 0 discriminator 3
 1091 0348 BB6B     		ldr	r3, [r7, #56]
 1092 034a 0133     		adds	r3, r3, #1
 1093 034c BB63     		str	r3, [r7, #56]
 1094              	.L67:
 336:.\Protocolo.c ****                     for(j=0;j<=2;j++){
 1095              		.loc 1 336 0 is_stmt 0 discriminator 1
 1096 034e BB6B     		ldr	r3, [r7, #56]
 1097 0350 022B     		cmp	r3, #2
 1098 0352 E7D9     		bls	.L68
 1099 0354 6DE0     		b	.L69
 1100              	.L60:
 339:.\Protocolo.c ****                     }
 340:.\Protocolo.c **** 				}else{
 341:.\Protocolo.c **** 					for(j=0;j<=bSale.money[0];j++){
 1101              		.loc 1 341 0 is_stmt 1
 1102 0356 0023     		movs	r3, #0
 1103 0358 BB63     		str	r3, [r7, #56]
 1104 035a 0EE0     		b	.L70
 1105              	.L71:
 342:.\Protocolo.c ****     					side.b.money[j]=bSale.money[j];
 1106              		.loc 1 342 0 discriminator 3
 1107 035c 3A4A     		ldr	r2, .L82
 1108 035e BB6B     		ldr	r3, [r7, #56]
 1109 0360 1344     		add	r3, r3, r2
 1110 0362 0833     		adds	r3, r3, #8
 1111 0364 1979     		ldrb	r1, [r3, #4]	@ zero_extendqisi2
 1112 0366 394A     		ldr	r2, .L82+4
 1113 0368 BB6B     		ldr	r3, [r7, #56]
 1114 036a 1344     		add	r3, r3, r2
 1115 036c 03F5D873 		add	r3, r3, #432
ARM GAS  C:\Users\PROYEC~1\AppData\Local\Temp\ccuck2D9.s 			page 27


 1116 0370 0A46     		mov	r2, r1
 1117 0372 5A71     		strb	r2, [r3, #5]
 341:.\Protocolo.c ****     					side.b.money[j]=bSale.money[j];
 1118              		.loc 1 341 0 discriminator 3
 1119 0374 BB6B     		ldr	r3, [r7, #56]
 1120 0376 0133     		adds	r3, r3, #1
 1121 0378 BB63     		str	r3, [r7, #56]
 1122              	.L70:
 341:.\Protocolo.c ****     					side.b.money[j]=bSale.money[j];
 1123              		.loc 1 341 0 is_stmt 0 discriminator 1
 1124 037a 334B     		ldr	r3, .L82
 1125 037c 1B7B     		ldrb	r3, [r3, #12]	@ zero_extendqisi2
 1126 037e 1A46     		mov	r2, r3
 1127 0380 BB6B     		ldr	r3, [r7, #56]
 1128 0382 9A42     		cmp	r2, r3
 1129 0384 EAD2     		bcs	.L71
 343:.\Protocolo.c ****     				}
 344:.\Protocolo.c ****     				for(j=0;j<=bSale.volume[0];j++){
 1130              		.loc 1 344 0 is_stmt 1
 1131 0386 0023     		movs	r3, #0
 1132 0388 BB63     		str	r3, [r7, #56]
 1133 038a 0EE0     		b	.L72
 1134              	.L73:
 345:.\Protocolo.c ****     					side.b.volume[j]=bSale.volume[j];
 1135              		.loc 1 345 0 discriminator 3
 1136 038c 2E4A     		ldr	r2, .L82
 1137 038e BB6B     		ldr	r3, [r7, #56]
 1138 0390 1344     		add	r3, r3, r2
 1139 0392 1833     		adds	r3, r3, #24
 1140 0394 1978     		ldrb	r1, [r3]	@ zero_extendqisi2
 1141 0396 2D4A     		ldr	r2, .L82+4
 1142 0398 BB6B     		ldr	r3, [r7, #56]
 1143 039a 1344     		add	r3, r3, r2
 1144 039c 03F5E073 		add	r3, r3, #448
 1145 03a0 0A46     		mov	r2, r1
 1146 03a2 5A70     		strb	r2, [r3, #1]
 344:.\Protocolo.c ****     					side.b.volume[j]=bSale.volume[j];
 1147              		.loc 1 344 0 discriminator 3
 1148 03a4 BB6B     		ldr	r3, [r7, #56]
 1149 03a6 0133     		adds	r3, r3, #1
 1150 03a8 BB63     		str	r3, [r7, #56]
 1151              	.L72:
 344:.\Protocolo.c ****     					side.b.volume[j]=bSale.volume[j];
 1152              		.loc 1 344 0 is_stmt 0 discriminator 1
 1153 03aa 274B     		ldr	r3, .L82
 1154 03ac 1B7E     		ldrb	r3, [r3, #24]	@ zero_extendqisi2
 1155 03ae 1A46     		mov	r2, r3
 1156 03b0 BB6B     		ldr	r3, [r7, #56]
 1157 03b2 9A42     		cmp	r2, r3
 1158 03b4 EAD2     		bcs	.L73
 346:.\Protocolo.c ****     				}
 347:.\Protocolo.c ****     				for(j=0;j<=bSale.ppu[0];j++){
 1159              		.loc 1 347 0 is_stmt 1
 1160 03b6 0023     		movs	r3, #0
 1161 03b8 BB63     		str	r3, [r7, #56]
 1162 03ba 0DE0     		b	.L74
 1163              	.L75:
ARM GAS  C:\Users\PROYEC~1\AppData\Local\Temp\ccuck2D9.s 			page 28


 348:.\Protocolo.c ****     					side.b.ppu[j]=bSale.ppu[j];
 1164              		.loc 1 348 0 discriminator 3
 1165 03bc 224A     		ldr	r2, .L82
 1166 03be BB6B     		ldr	r3, [r7, #56]
 1167 03c0 1344     		add	r3, r3, r2
 1168 03c2 9978     		ldrb	r1, [r3, #2]	@ zero_extendqisi2
 1169 03c4 214A     		ldr	r2, .L82+4
 1170 03c6 BB6B     		ldr	r3, [r7, #56]
 1171 03c8 1344     		add	r3, r3, r2
 1172 03ca 03F5D473 		add	r3, r3, #424
 1173 03ce 0A46     		mov	r2, r1
 1174 03d0 DA70     		strb	r2, [r3, #3]
 347:.\Protocolo.c ****     					side.b.ppu[j]=bSale.ppu[j];
 1175              		.loc 1 347 0 discriminator 3
 1176 03d2 BB6B     		ldr	r3, [r7, #56]
 1177 03d4 0133     		adds	r3, r3, #1
 1178 03d6 BB63     		str	r3, [r7, #56]
 1179              	.L74:
 347:.\Protocolo.c ****     					side.b.ppu[j]=bSale.ppu[j];
 1180              		.loc 1 347 0 is_stmt 0 discriminator 1
 1181 03d8 1B4B     		ldr	r3, .L82
 1182 03da 9B78     		ldrb	r3, [r3, #2]	@ zero_extendqisi2
 1183 03dc 1A46     		mov	r2, r3
 1184 03de BB6B     		ldr	r3, [r7, #56]
 1185 03e0 9A42     		cmp	r2, r3
 1186 03e2 EBD2     		bcs	.L75
 349:.\Protocolo.c ****     				}	
 350:.\Protocolo.c ****                     side.b.product=bSale.product;
 1187              		.loc 1 350 0 is_stmt 1
 1188 03e4 184B     		ldr	r3, .L82
 1189 03e6 5A78     		ldrb	r2, [r3, #1]	@ zero_extendqisi2
 1190 03e8 184B     		ldr	r3, .L82+4
 1191 03ea 83F8AA21 		strb	r2, [r3, #426]
 351:.\Protocolo.c ****                     countImp[2]=0;
 1192              		.loc 1 351 0
 1193 03ee 184B     		ldr	r3, .L82+8
 1194 03f0 0022     		movs	r2, #0
 1195 03f2 9A70     		strb	r2, [r3, #2]
 352:.\Protocolo.c ****                     read_date();
 1196              		.loc 1 352 0
 1197 03f4 FFF7FEFF 		bl	read_date
 353:.\Protocolo.c ****                     read_time();
 1198              		.loc 1 353 0
 1199 03f8 FFF7FEFF 		bl	read_time
 354:.\Protocolo.c ****                     for(j=0;j<=2;j++){
 1200              		.loc 1 354 0
 1201 03fc 0023     		movs	r3, #0
 1202 03fe BB63     		str	r3, [r7, #56]
 1203 0400 14E0     		b	.L76
 1204              	.L77:
 355:.\Protocolo.c ****                         dateSale2[j]=date[j];
 1205              		.loc 1 355 0 discriminator 3
 1206 0402 144A     		ldr	r2, .L82+12
 1207 0404 BB6B     		ldr	r3, [r7, #56]
 1208 0406 1344     		add	r3, r3, r2
 1209 0408 1978     		ldrb	r1, [r3]	@ zero_extendqisi2
 1210 040a 164A     		ldr	r2, .L82+28
ARM GAS  C:\Users\PROYEC~1\AppData\Local\Temp\ccuck2D9.s 			page 29


 1211 040c BB6B     		ldr	r3, [r7, #56]
 1212 040e 1344     		add	r3, r3, r2
 1213 0410 0A46     		mov	r2, r1
 1214 0412 1A70     		strb	r2, [r3]
 356:.\Protocolo.c ****                         timeSale2[j]=time[j];
 1215              		.loc 1 356 0 discriminator 3
 1216 0414 114A     		ldr	r2, .L82+20
 1217 0416 BB6B     		ldr	r3, [r7, #56]
 1218 0418 1344     		add	r3, r3, r2
 1219 041a 1978     		ldrb	r1, [r3]	@ zero_extendqisi2
 1220 041c 124A     		ldr	r2, .L82+32
 1221 041e BB6B     		ldr	r3, [r7, #56]
 1222 0420 1344     		add	r3, r3, r2
 1223 0422 0A46     		mov	r2, r1
 1224 0424 1A70     		strb	r2, [r3]
 354:.\Protocolo.c ****                     for(j=0;j<=2;j++){
 1225              		.loc 1 354 0 discriminator 3
 1226 0426 BB6B     		ldr	r3, [r7, #56]
 1227 0428 0133     		adds	r3, r3, #1
 1228 042a BB63     		str	r3, [r7, #56]
 1229              	.L76:
 354:.\Protocolo.c ****                     for(j=0;j<=2;j++){
 1230              		.loc 1 354 0 is_stmt 0 discriminator 1
 1231 042c BB6B     		ldr	r3, [r7, #56]
 1232 042e 022B     		cmp	r3, #2
 1233 0430 E7D9     		bls	.L77
 1234              	.L69:
 357:.\Protocolo.c ****                     }
 358:.\Protocolo.c **** 				}
 359:.\Protocolo.c ****                 return 1;
 1235              		.loc 1 359 0 is_stmt 1
 1236 0432 0123     		movs	r3, #1
 1237 0434 04E0     		b	.L79
 1238              	.L59:
 360:.\Protocolo.c ****             }
 361:.\Protocolo.c ****             else{
 362:.\Protocolo.c ****                 return 0;
 1239              		.loc 1 362 0
 1240 0436 0023     		movs	r3, #0
 1241 0438 02E0     		b	.L79
 1242              	.L48:
 363:.\Protocolo.c ****             }
 364:.\Protocolo.c ****         }
 365:.\Protocolo.c ****         else{
 366:.\Protocolo.c ****             return 0;
 1243              		.loc 1 366 0
 1244 043a 0023     		movs	r3, #0
 1245 043c 00E0     		b	.L79
 1246              	.L39:
 367:.\Protocolo.c ****         }
 368:.\Protocolo.c ****     }
 369:.\Protocolo.c ****     else{
 370:.\Protocolo.c ****         return 0;
 1247              		.loc 1 370 0
 1248 043e 0023     		movs	r3, #0
 1249              	.L79:
 371:.\Protocolo.c ****     }
ARM GAS  C:\Users\PROYEC~1\AppData\Local\Temp\ccuck2D9.s 			page 30


 372:.\Protocolo.c **** }
 1250              		.loc 1 372 0 discriminator 1
 1251 0440 1846     		mov	r0, r3
 1252 0442 4037     		adds	r7, r7, #64
 1253              		.cfi_def_cfa_offset 8
 1254 0444 BD46     		mov	sp, r7
 1255              		.cfi_def_cfa_register 13
 1256              		@ sp needed
 1257 0446 80BD     		pop	{r7, pc}
 1258              	.L83:
 1259              		.align	2
 1260              	.L82:
 1261 0448 00000000 		.word	bSale
 1262 044c 00000000 		.word	side
 1263 0450 00000000 		.word	countImp
 1264 0454 00000000 		.word	date
 1265 0458 00000000 		.word	dateSale1
 1266 045c 00000000 		.word	time
 1267 0460 00000000 		.word	timeSale1
 1268 0464 00000000 		.word	dateSale2
 1269 0468 00000000 		.word	timeSale2
 1270              		.cfi_endproc
 1271              	.LFE61:
 1272              		.size	sale_in, .-sale_in
 1273              		.section	.text.sale,"ax",%progbits
 1274              		.align	2
 1275              		.global	sale
 1276              		.thumb
 1277              		.thumb_func
 1278              		.type	sale, %function
 1279              	sale:
 1280              	.LFB62:
 373:.\Protocolo.c **** 
 374:.\Protocolo.c **** 
 375:.\Protocolo.c **** /*
 376:.\Protocolo.c **** ***************************************************************************************************
 377:.\Protocolo.c **** *                                  uint8 sale(uint8 val)
 378:.\Protocolo.c **** *
 379:.\Protocolo.c **** * Description : 
 380:.\Protocolo.c **** *               
 381:.\Protocolo.c **** *
 382:.\Protocolo.c **** * Argument(s) : none
 383:.\Protocolo.c **** *
 384:.\Protocolo.c **** * Return(s)   : none
 385:.\Protocolo.c **** *
 386:.\Protocolo.c **** * Caller(s)   : 
 387:.\Protocolo.c **** *
 388:.\Protocolo.c **** * Note(s)     : none.
 389:.\Protocolo.c **** ***************************************************************************************************
 390:.\Protocolo.c **** */
 391:.\Protocolo.c **** void sale(uint8 sidePump){
 1281              		.loc 1 391 0
 1282              		.cfi_startproc
 1283              		@ args = 0, pretend = 0, frame = 24
 1284              		@ frame_needed = 1, uses_anonymous_args = 0
 1285 0000 80B5     		push	{r7, lr}
 1286              		.cfi_def_cfa_offset 8
ARM GAS  C:\Users\PROYEC~1\AppData\Local\Temp\ccuck2D9.s 			page 31


 1287              		.cfi_offset 7, -8
 1288              		.cfi_offset 14, -4
 1289 0002 86B0     		sub	sp, sp, #24
 1290              		.cfi_def_cfa_offset 32
 1291 0004 00AF     		add	r7, sp, #0
 1292              		.cfi_def_cfa_register 7
 1293 0006 0346     		mov	r3, r0
 1294 0008 FB71     		strb	r3, [r7, #7]
 392:.\Protocolo.c ****     uint8 pos; 
 393:.\Protocolo.c ****     uint32 j,x=0,y;
 1295              		.loc 1 393 0
 1296 000a 0023     		movs	r3, #0
 1297 000c FB60     		str	r3, [r7, #12]
 394:.\Protocolo.c ****     if(sidePump==0){
 1298              		.loc 1 394 0
 1299 000e FB79     		ldrb	r3, [r7, #7]	@ zero_extendqisi2
 1300 0010 002B     		cmp	r3, #0
 1301 0012 05D1     		bne	.L85
 395:.\Protocolo.c ****         pos=0x10;
 1302              		.loc 1 395 0
 1303 0014 1023     		movs	r3, #16
 1304 0016 FB75     		strb	r3, [r7, #23]
 396:.\Protocolo.c ****         bSale.position=pos;
 1305              		.loc 1 396 0
 1306 0018 A04A     		ldr	r2, .L115
 1307 001a FB7D     		ldrb	r3, [r7, #23]
 1308 001c 1370     		strb	r3, [r2]
 1309 001e 04E0     		b	.L86
 1310              	.L85:
 397:.\Protocolo.c ****     }
 398:.\Protocolo.c ****     else{
 399:.\Protocolo.c ****         pos=sidePump;
 1311              		.loc 1 399 0
 1312 0020 FB79     		ldrb	r3, [r7, #7]
 1313 0022 FB75     		strb	r3, [r7, #23]
 400:.\Protocolo.c ****         bSale.position=pos;
 1314              		.loc 1 400 0
 1315 0024 9D4A     		ldr	r2, .L115
 1316 0026 FB7D     		ldrb	r3, [r7, #23]
 1317 0028 1370     		strb	r3, [r2]
 1318              	.L86:
 401:.\Protocolo.c ****     }
 402:.\Protocolo.c ****     if((RxPu[0]==0xFF)&&(RxPu[2]==0xF8)&&((RxPu[4]&0x0F)==(pos-1))){
 1319              		.loc 1 402 0
 1320 002a 9D4B     		ldr	r3, .L115+4
 1321 002c 1B78     		ldrb	r3, [r3]	@ zero_extendqisi2
 1322 002e FF2B     		cmp	r3, #255
 1323 0030 40F0B281 		bne	.L84
 1324              		.loc 1 402 0 is_stmt 0 discriminator 1
 1325 0034 9A4B     		ldr	r3, .L115+4
 1326 0036 9B78     		ldrb	r3, [r3, #2]	@ zero_extendqisi2
 1327 0038 F82B     		cmp	r3, #248
 1328 003a 40F0AD81 		bne	.L84
 1329              		.loc 1 402 0 discriminator 2
 1330 003e 984B     		ldr	r3, .L115+4
 1331 0040 1B79     		ldrb	r3, [r3, #4]	@ zero_extendqisi2
 1332 0042 03F00F02 		and	r2, r3, #15
ARM GAS  C:\Users\PROYEC~1\AppData\Local\Temp\ccuck2D9.s 			page 32


 1333 0046 FB7D     		ldrb	r3, [r7, #23]	@ zero_extendqisi2
 1334 0048 013B     		subs	r3, r3, #1
 1335 004a 9A42     		cmp	r2, r3
 1336 004c 40F0A481 		bne	.L84
 403:.\Protocolo.c ****         x=0;
 1337              		.loc 1 403 0 is_stmt 1
 1338 0050 0023     		movs	r3, #0
 1339 0052 FB60     		str	r3, [r7, #12]
 404:.\Protocolo.c ****         while((RxPu[x]!=0xF6)||(x>=39)){
 1340              		.loc 1 404 0
 1341 0054 02E0     		b	.L88
 1342              	.L89:
 405:.\Protocolo.c ****             x++;
 1343              		.loc 1 405 0
 1344 0056 FB68     		ldr	r3, [r7, #12]
 1345 0058 0133     		adds	r3, r3, #1
 1346 005a FB60     		str	r3, [r7, #12]
 1347              	.L88:
 404:.\Protocolo.c ****         while((RxPu[x]!=0xF6)||(x>=39)){
 1348              		.loc 1 404 0
 1349 005c 904A     		ldr	r2, .L115+4
 1350 005e FB68     		ldr	r3, [r7, #12]
 1351 0060 1344     		add	r3, r3, r2
 1352 0062 1B78     		ldrb	r3, [r3]	@ zero_extendqisi2
 1353 0064 F62B     		cmp	r3, #246
 1354 0066 F6D1     		bne	.L89
 404:.\Protocolo.c ****         while((RxPu[x]!=0xF6)||(x>=39)){
 1355              		.loc 1 404 0 is_stmt 0 discriminator 1
 1356 0068 FB68     		ldr	r3, [r7, #12]
 1357 006a 262B     		cmp	r3, #38
 1358 006c F3D8     		bhi	.L89
 406:.\Protocolo.c ****         }
 407:.\Protocolo.c ****         x++;
 1359              		.loc 1 407 0 is_stmt 1
 1360 006e FB68     		ldr	r3, [r7, #12]
 1361 0070 0133     		adds	r3, r3, #1
 1362 0072 FB60     		str	r3, [r7, #12]
 408:.\Protocolo.c ****         bSale.product=(RxPu[x]&0x0F)+1;
 1363              		.loc 1 408 0
 1364 0074 8A4A     		ldr	r2, .L115+4
 1365 0076 FB68     		ldr	r3, [r7, #12]
 1366 0078 1344     		add	r3, r3, r2
 1367 007a 1B78     		ldrb	r3, [r3]	@ zero_extendqisi2
 1368 007c 03F00F03 		and	r3, r3, #15
 1369 0080 DBB2     		uxtb	r3, r3
 1370 0082 0133     		adds	r3, r3, #1
 1371 0084 DAB2     		uxtb	r2, r3
 1372 0086 854B     		ldr	r3, .L115
 1373 0088 5A70     		strb	r2, [r3, #1]
 409:.\Protocolo.c ****         while((RxPu[x]!=0xF7)||(x>=39)){
 1374              		.loc 1 409 0
 1375 008a 02E0     		b	.L90
 1376              	.L91:
 410:.\Protocolo.c ****             x++;
 1377              		.loc 1 410 0
 1378 008c FB68     		ldr	r3, [r7, #12]
 1379 008e 0133     		adds	r3, r3, #1
ARM GAS  C:\Users\PROYEC~1\AppData\Local\Temp\ccuck2D9.s 			page 33


 1380 0090 FB60     		str	r3, [r7, #12]
 1381              	.L90:
 409:.\Protocolo.c ****         while((RxPu[x]!=0xF7)||(x>=39)){
 1382              		.loc 1 409 0
 1383 0092 834A     		ldr	r2, .L115+4
 1384 0094 FB68     		ldr	r3, [r7, #12]
 1385 0096 1344     		add	r3, r3, r2
 1386 0098 1B78     		ldrb	r3, [r3]	@ zero_extendqisi2
 1387 009a F72B     		cmp	r3, #247
 1388 009c F6D1     		bne	.L91
 409:.\Protocolo.c ****         while((RxPu[x]!=0xF7)||(x>=39)){
 1389              		.loc 1 409 0 is_stmt 0 discriminator 1
 1390 009e FB68     		ldr	r3, [r7, #12]
 1391 00a0 262B     		cmp	r3, #38
 1392 00a2 F3D8     		bhi	.L91
 411:.\Protocolo.c ****         }
 412:.\Protocolo.c ****         x++;
 1393              		.loc 1 412 0 is_stmt 1
 1394 00a4 FB68     		ldr	r3, [r7, #12]
 1395 00a6 0133     		adds	r3, r3, #1
 1396 00a8 FB60     		str	r3, [r7, #12]
 413:.\Protocolo.c ****         y=1;
 1397              		.loc 1 413 0
 1398 00aa 0123     		movs	r3, #1
 1399 00ac BB60     		str	r3, [r7, #8]
 414:.\Protocolo.c ****         while((RxPu[x]!=0xF9)||(x>=39)){    
 1400              		.loc 1 414 0
 1401 00ae 11E0     		b	.L92
 1402              	.L93:
 415:.\Protocolo.c ****             bSale.ppu[y]=(RxPu[x]&0x0F);
 1403              		.loc 1 415 0
 1404 00b0 7B4A     		ldr	r2, .L115+4
 1405 00b2 FB68     		ldr	r3, [r7, #12]
 1406 00b4 1344     		add	r3, r3, r2
 1407 00b6 1B78     		ldrb	r3, [r3]	@ zero_extendqisi2
 1408 00b8 03F00F03 		and	r3, r3, #15
 1409 00bc D9B2     		uxtb	r1, r3
 1410 00be 774A     		ldr	r2, .L115
 1411 00c0 BB68     		ldr	r3, [r7, #8]
 1412 00c2 1344     		add	r3, r3, r2
 1413 00c4 0A46     		mov	r2, r1
 1414 00c6 9A70     		strb	r2, [r3, #2]
 416:.\Protocolo.c ****             x++;
 1415              		.loc 1 416 0
 1416 00c8 FB68     		ldr	r3, [r7, #12]
 1417 00ca 0133     		adds	r3, r3, #1
 1418 00cc FB60     		str	r3, [r7, #12]
 417:.\Protocolo.c ****             y++;
 1419              		.loc 1 417 0
 1420 00ce BB68     		ldr	r3, [r7, #8]
 1421 00d0 0133     		adds	r3, r3, #1
 1422 00d2 BB60     		str	r3, [r7, #8]
 1423              	.L92:
 414:.\Protocolo.c ****             bSale.ppu[y]=(RxPu[x]&0x0F);
 1424              		.loc 1 414 0
 1425 00d4 724A     		ldr	r2, .L115+4
 1426 00d6 FB68     		ldr	r3, [r7, #12]
ARM GAS  C:\Users\PROYEC~1\AppData\Local\Temp\ccuck2D9.s 			page 34


 1427 00d8 1344     		add	r3, r3, r2
 1428 00da 1B78     		ldrb	r3, [r3]	@ zero_extendqisi2
 1429 00dc F92B     		cmp	r3, #249
 1430 00de E7D1     		bne	.L93
 414:.\Protocolo.c ****             bSale.ppu[y]=(RxPu[x]&0x0F);
 1431              		.loc 1 414 0 is_stmt 0 discriminator 1
 1432 00e0 FB68     		ldr	r3, [r7, #12]
 1433 00e2 262B     		cmp	r3, #38
 1434 00e4 E4D8     		bhi	.L93
 418:.\Protocolo.c ****         }
 419:.\Protocolo.c **** 		bSale.ppu[0]=y-1;
 1435              		.loc 1 419 0 is_stmt 1
 1436 00e6 BB68     		ldr	r3, [r7, #8]
 1437 00e8 DBB2     		uxtb	r3, r3
 1438 00ea 013B     		subs	r3, r3, #1
 1439 00ec DAB2     		uxtb	r2, r3
 1440 00ee 6B4B     		ldr	r3, .L115
 1441 00f0 9A70     		strb	r2, [r3, #2]
 420:.\Protocolo.c ****         x++;
 1442              		.loc 1 420 0
 1443 00f2 FB68     		ldr	r3, [r7, #12]
 1444 00f4 0133     		adds	r3, r3, #1
 1445 00f6 FB60     		str	r3, [r7, #12]
 421:.\Protocolo.c ****         y=1;
 1446              		.loc 1 421 0
 1447 00f8 0123     		movs	r3, #1
 1448 00fa BB60     		str	r3, [r7, #8]
 422:.\Protocolo.c ****         while((RxPu[x]!=0xFA)||(x>=39)){
 1449              		.loc 1 422 0
 1450 00fc 12E0     		b	.L94
 1451              	.L95:
 423:.\Protocolo.c ****             bSale.volume[y]=(RxPu[x]&0x0F);
 1452              		.loc 1 423 0
 1453 00fe 684A     		ldr	r2, .L115+4
 1454 0100 FB68     		ldr	r3, [r7, #12]
 1455 0102 1344     		add	r3, r3, r2
 1456 0104 1B78     		ldrb	r3, [r3]	@ zero_extendqisi2
 1457 0106 03F00F03 		and	r3, r3, #15
 1458 010a D9B2     		uxtb	r1, r3
 1459 010c 634A     		ldr	r2, .L115
 1460 010e BB68     		ldr	r3, [r7, #8]
 1461 0110 1344     		add	r3, r3, r2
 1462 0112 1833     		adds	r3, r3, #24
 1463 0114 0A46     		mov	r2, r1
 1464 0116 1A70     		strb	r2, [r3]
 424:.\Protocolo.c ****             x++;
 1465              		.loc 1 424 0
 1466 0118 FB68     		ldr	r3, [r7, #12]
 1467 011a 0133     		adds	r3, r3, #1
 1468 011c FB60     		str	r3, [r7, #12]
 425:.\Protocolo.c ****             y++;    
 1469              		.loc 1 425 0
 1470 011e BB68     		ldr	r3, [r7, #8]
 1471 0120 0133     		adds	r3, r3, #1
 1472 0122 BB60     		str	r3, [r7, #8]
 1473              	.L94:
 422:.\Protocolo.c ****             bSale.volume[y]=(RxPu[x]&0x0F);
ARM GAS  C:\Users\PROYEC~1\AppData\Local\Temp\ccuck2D9.s 			page 35


 1474              		.loc 1 422 0
 1475 0124 5E4A     		ldr	r2, .L115+4
 1476 0126 FB68     		ldr	r3, [r7, #12]
 1477 0128 1344     		add	r3, r3, r2
 1478 012a 1B78     		ldrb	r3, [r3]	@ zero_extendqisi2
 1479 012c FA2B     		cmp	r3, #250
 1480 012e E6D1     		bne	.L95
 422:.\Protocolo.c ****             bSale.volume[y]=(RxPu[x]&0x0F);
 1481              		.loc 1 422 0 is_stmt 0 discriminator 1
 1482 0130 FB68     		ldr	r3, [r7, #12]
 1483 0132 262B     		cmp	r3, #38
 1484 0134 E3D8     		bhi	.L95
 426:.\Protocolo.c ****         }
 427:.\Protocolo.c **** 		bSale.volume[0]=y-1;
 1485              		.loc 1 427 0 is_stmt 1
 1486 0136 BB68     		ldr	r3, [r7, #8]
 1487 0138 DBB2     		uxtb	r3, r3
 1488 013a 013B     		subs	r3, r3, #1
 1489 013c DAB2     		uxtb	r2, r3
 1490 013e 574B     		ldr	r3, .L115
 1491 0140 1A76     		strb	r2, [r3, #24]
 428:.\Protocolo.c ****         x++;
 1492              		.loc 1 428 0
 1493 0142 FB68     		ldr	r3, [r7, #12]
 1494 0144 0133     		adds	r3, r3, #1
 1495 0146 FB60     		str	r3, [r7, #12]
 429:.\Protocolo.c ****         y=1;
 1496              		.loc 1 429 0
 1497 0148 0123     		movs	r3, #1
 1498 014a BB60     		str	r3, [r7, #8]
 430:.\Protocolo.c ****         while((RxPu[x]!=0xFB)||(x>=39)){
 1499              		.loc 1 430 0
 1500 014c 12E0     		b	.L96
 1501              	.L97:
 431:.\Protocolo.c ****             bSale.money[y]=(RxPu[x]&0x0F);
 1502              		.loc 1 431 0
 1503 014e 544A     		ldr	r2, .L115+4
 1504 0150 FB68     		ldr	r3, [r7, #12]
 1505 0152 1344     		add	r3, r3, r2
 1506 0154 1B78     		ldrb	r3, [r3]	@ zero_extendqisi2
 1507 0156 03F00F03 		and	r3, r3, #15
 1508 015a D9B2     		uxtb	r1, r3
 1509 015c 4F4A     		ldr	r2, .L115
 1510 015e BB68     		ldr	r3, [r7, #8]
 1511 0160 1344     		add	r3, r3, r2
 1512 0162 0833     		adds	r3, r3, #8
 1513 0164 0A46     		mov	r2, r1
 1514 0166 1A71     		strb	r2, [r3, #4]
 432:.\Protocolo.c ****             x++;
 1515              		.loc 1 432 0
 1516 0168 FB68     		ldr	r3, [r7, #12]
 1517 016a 0133     		adds	r3, r3, #1
 1518 016c FB60     		str	r3, [r7, #12]
 433:.\Protocolo.c ****             y++;    
 1519              		.loc 1 433 0
 1520 016e BB68     		ldr	r3, [r7, #8]
 1521 0170 0133     		adds	r3, r3, #1
ARM GAS  C:\Users\PROYEC~1\AppData\Local\Temp\ccuck2D9.s 			page 36


 1522 0172 BB60     		str	r3, [r7, #8]
 1523              	.L96:
 430:.\Protocolo.c ****             bSale.money[y]=(RxPu[x]&0x0F);
 1524              		.loc 1 430 0
 1525 0174 4A4A     		ldr	r2, .L115+4
 1526 0176 FB68     		ldr	r3, [r7, #12]
 1527 0178 1344     		add	r3, r3, r2
 1528 017a 1B78     		ldrb	r3, [r3]	@ zero_extendqisi2
 1529 017c FB2B     		cmp	r3, #251
 1530 017e E6D1     		bne	.L97
 430:.\Protocolo.c ****             bSale.money[y]=(RxPu[x]&0x0F);
 1531              		.loc 1 430 0 is_stmt 0 discriminator 1
 1532 0180 FB68     		ldr	r3, [r7, #12]
 1533 0182 262B     		cmp	r3, #38
 1534 0184 E3D8     		bhi	.L97
 434:.\Protocolo.c ****         }
 435:.\Protocolo.c **** 		bSale.money[0]=y-1;
 1535              		.loc 1 435 0 is_stmt 1
 1536 0186 BB68     		ldr	r3, [r7, #8]
 1537 0188 DBB2     		uxtb	r3, r3
 1538 018a 013B     		subs	r3, r3, #1
 1539 018c DAB2     		uxtb	r2, r3
 1540 018e 434B     		ldr	r3, .L115
 1541 0190 1A73     		strb	r2, [r3, #12]
 436:.\Protocolo.c ****         x+=2;
 1542              		.loc 1 436 0
 1543 0192 FB68     		ldr	r3, [r7, #12]
 1544 0194 0233     		adds	r3, r3, #2
 1545 0196 FB60     		str	r3, [r7, #12]
 437:.\Protocolo.c ****         if((RxPu[x]==0xF0)&&(x<=38)){								
 1546              		.loc 1 437 0
 1547 0198 414A     		ldr	r2, .L115+4
 1548 019a FB68     		ldr	r3, [r7, #12]
 1549 019c 1344     		add	r3, r3, r2
 1550 019e 1B78     		ldrb	r3, [r3]	@ zero_extendqisi2
 1551 01a0 F02B     		cmp	r3, #240
 1552 01a2 40F0F980 		bne	.L84
 1553              		.loc 1 437 0 is_stmt 0 discriminator 1
 1554 01a6 FB68     		ldr	r3, [r7, #12]
 1555 01a8 262B     		cmp	r3, #38
 1556 01aa 00F2F580 		bhi	.L84
 438:.\Protocolo.c **** 			if(sidePump==side.a.dir){
 1557              		.loc 1 438 0 is_stmt 1
 1558 01ae 3D4B     		ldr	r3, .L115+8
 1559 01b0 1B78     		ldrb	r3, [r3]	@ zero_extendqisi2
 1560 01b2 FA79     		ldrb	r2, [r7, #7]	@ zero_extendqisi2
 1561 01b4 9A42     		cmp	r2, r3
 1562 01b6 6ED1     		bne	.L98
 439:.\Protocolo.c **** 				for(j=0;j<=bSale.money[0];j++){
 1563              		.loc 1 439 0
 1564 01b8 0023     		movs	r3, #0
 1565 01ba 3B61     		str	r3, [r7, #16]
 1566 01bc 0DE0     		b	.L99
 1567              	.L100:
 440:.\Protocolo.c **** 					side.a.money[j]=bSale.money[j];
 1568              		.loc 1 440 0 discriminator 3
 1569 01be 374A     		ldr	r2, .L115
ARM GAS  C:\Users\PROYEC~1\AppData\Local\Temp\ccuck2D9.s 			page 37


 1570 01c0 3B69     		ldr	r3, [r7, #16]
 1571 01c2 1344     		add	r3, r3, r2
 1572 01c4 0833     		adds	r3, r3, #8
 1573 01c6 1979     		ldrb	r1, [r3, #4]	@ zero_extendqisi2
 1574 01c8 364A     		ldr	r2, .L115+8
 1575 01ca 3B69     		ldr	r3, [r7, #16]
 1576 01cc 1344     		add	r3, r3, r2
 1577 01ce 4833     		adds	r3, r3, #72
 1578 01d0 0A46     		mov	r2, r1
 1579 01d2 1A71     		strb	r2, [r3, #4]
 439:.\Protocolo.c **** 				for(j=0;j<=bSale.money[0];j++){
 1580              		.loc 1 439 0 discriminator 3
 1581 01d4 3B69     		ldr	r3, [r7, #16]
 1582 01d6 0133     		adds	r3, r3, #1
 1583 01d8 3B61     		str	r3, [r7, #16]
 1584              	.L99:
 439:.\Protocolo.c **** 				for(j=0;j<=bSale.money[0];j++){
 1585              		.loc 1 439 0 is_stmt 0 discriminator 1
 1586 01da 304B     		ldr	r3, .L115
 1587 01dc 1B7B     		ldrb	r3, [r3, #12]	@ zero_extendqisi2
 1588 01de 1A46     		mov	r2, r3
 1589 01e0 3B69     		ldr	r3, [r7, #16]
 1590 01e2 9A42     		cmp	r2, r3
 1591 01e4 EBD2     		bcs	.L100
 441:.\Protocolo.c **** 				}
 442:.\Protocolo.c **** 				for(j=0;j<=bSale.volume[0];j++){
 1592              		.loc 1 442 0 is_stmt 1
 1593 01e6 0023     		movs	r3, #0
 1594 01e8 3B61     		str	r3, [r7, #16]
 1595 01ea 0DE0     		b	.L101
 1596              	.L102:
 443:.\Protocolo.c **** 					side.a.volume[j]=bSale.volume[j];
 1597              		.loc 1 443 0 discriminator 3
 1598 01ec 2B4A     		ldr	r2, .L115
 1599 01ee 3B69     		ldr	r3, [r7, #16]
 1600 01f0 1344     		add	r3, r3, r2
 1601 01f2 1833     		adds	r3, r3, #24
 1602 01f4 1978     		ldrb	r1, [r3]	@ zero_extendqisi2
 1603 01f6 2B4A     		ldr	r2, .L115+8
 1604 01f8 3B69     		ldr	r3, [r7, #16]
 1605 01fa 1344     		add	r3, r3, r2
 1606 01fc 5833     		adds	r3, r3, #88
 1607 01fe 0A46     		mov	r2, r1
 1608 0200 1A70     		strb	r2, [r3]
 442:.\Protocolo.c **** 					side.a.volume[j]=bSale.volume[j];
 1609              		.loc 1 442 0 discriminator 3
 1610 0202 3B69     		ldr	r3, [r7, #16]
 1611 0204 0133     		adds	r3, r3, #1
 1612 0206 3B61     		str	r3, [r7, #16]
 1613              	.L101:
 442:.\Protocolo.c **** 					side.a.volume[j]=bSale.volume[j];
 1614              		.loc 1 442 0 is_stmt 0 discriminator 1
 1615 0208 244B     		ldr	r3, .L115
 1616 020a 1B7E     		ldrb	r3, [r3, #24]	@ zero_extendqisi2
 1617 020c 1A46     		mov	r2, r3
 1618 020e 3B69     		ldr	r3, [r7, #16]
 1619 0210 9A42     		cmp	r2, r3
ARM GAS  C:\Users\PROYEC~1\AppData\Local\Temp\ccuck2D9.s 			page 38


 1620 0212 EBD2     		bcs	.L102
 444:.\Protocolo.c **** 				}
 445:.\Protocolo.c **** 				for(j=0;j<=bSale.ppu[0];j++){
 1621              		.loc 1 445 0 is_stmt 1
 1622 0214 0023     		movs	r3, #0
 1623 0216 3B61     		str	r3, [r7, #16]
 1624 0218 0CE0     		b	.L103
 1625              	.L104:
 446:.\Protocolo.c **** 					side.a.ppu[j]=bSale.ppu[j];
 1626              		.loc 1 446 0 discriminator 3
 1627 021a 204A     		ldr	r2, .L115
 1628 021c 3B69     		ldr	r3, [r7, #16]
 1629 021e 1344     		add	r3, r3, r2
 1630 0220 9978     		ldrb	r1, [r3, #2]	@ zero_extendqisi2
 1631 0222 204A     		ldr	r2, .L115+8
 1632 0224 3B69     		ldr	r3, [r7, #16]
 1633 0226 1344     		add	r3, r3, r2
 1634 0228 4033     		adds	r3, r3, #64
 1635 022a 0A46     		mov	r2, r1
 1636 022c 9A70     		strb	r2, [r3, #2]
 445:.\Protocolo.c **** 					side.a.ppu[j]=bSale.ppu[j];
 1637              		.loc 1 445 0 discriminator 3
 1638 022e 3B69     		ldr	r3, [r7, #16]
 1639 0230 0133     		adds	r3, r3, #1
 1640 0232 3B61     		str	r3, [r7, #16]
 1641              	.L103:
 445:.\Protocolo.c **** 					side.a.ppu[j]=bSale.ppu[j];
 1642              		.loc 1 445 0 is_stmt 0 discriminator 1
 1643 0234 194B     		ldr	r3, .L115
 1644 0236 9B78     		ldrb	r3, [r3, #2]	@ zero_extendqisi2
 1645 0238 1A46     		mov	r2, r3
 1646 023a 3B69     		ldr	r3, [r7, #16]
 1647 023c 9A42     		cmp	r2, r3
 1648 023e ECD2     		bcs	.L104
 447:.\Protocolo.c **** 				}
 448:.\Protocolo.c ****                 side.a.product=bSale.product&0x07;
 1649              		.loc 1 448 0 is_stmt 1
 1650 0240 164B     		ldr	r3, .L115
 1651 0242 5B78     		ldrb	r3, [r3, #1]	@ zero_extendqisi2
 1652 0244 03F00703 		and	r3, r3, #7
 1653 0248 DAB2     		uxtb	r2, r3
 1654 024a 164B     		ldr	r3, .L115+8
 1655 024c 83F84120 		strb	r2, [r3, #65]
 449:.\Protocolo.c ****                 countImp[1]=0;
 1656              		.loc 1 449 0
 1657 0250 154B     		ldr	r3, .L115+12
 1658 0252 0022     		movs	r2, #0
 1659 0254 5A70     		strb	r2, [r3, #1]
 450:.\Protocolo.c ****                 read_date();
 1660              		.loc 1 450 0
 1661 0256 FFF7FEFF 		bl	read_date
 451:.\Protocolo.c ****                 read_time();
 1662              		.loc 1 451 0
 1663 025a FFF7FEFF 		bl	read_time
 452:.\Protocolo.c ****                 for(j=0;j<=2;j++){
 1664              		.loc 1 452 0
 1665 025e 0023     		movs	r3, #0
ARM GAS  C:\Users\PROYEC~1\AppData\Local\Temp\ccuck2D9.s 			page 39


 1666 0260 3B61     		str	r3, [r7, #16]
 1667 0262 14E0     		b	.L105
 1668              	.L106:
 453:.\Protocolo.c ****                     dateSale1[j]=date[j];
 1669              		.loc 1 453 0 discriminator 3
 1670 0264 114A     		ldr	r2, .L115+16
 1671 0266 3B69     		ldr	r3, [r7, #16]
 1672 0268 1344     		add	r3, r3, r2
 1673 026a 1978     		ldrb	r1, [r3]	@ zero_extendqisi2
 1674 026c 104A     		ldr	r2, .L115+20
 1675 026e 3B69     		ldr	r3, [r7, #16]
 1676 0270 1344     		add	r3, r3, r2
 1677 0272 0A46     		mov	r2, r1
 1678 0274 1A70     		strb	r2, [r3]
 454:.\Protocolo.c ****                     timeSale1[j]=time[j];
 1679              		.loc 1 454 0 discriminator 3
 1680 0276 0F4A     		ldr	r2, .L115+24
 1681 0278 3B69     		ldr	r3, [r7, #16]
 1682 027a 1344     		add	r3, r3, r2
 1683 027c 1978     		ldrb	r1, [r3]	@ zero_extendqisi2
 1684 027e 0E4A     		ldr	r2, .L115+28
 1685 0280 3B69     		ldr	r3, [r7, #16]
 1686 0282 1344     		add	r3, r3, r2
 1687 0284 0A46     		mov	r2, r1
 1688 0286 1A70     		strb	r2, [r3]
 452:.\Protocolo.c ****                 for(j=0;j<=2;j++){
 1689              		.loc 1 452 0 discriminator 3
 1690 0288 3B69     		ldr	r3, [r7, #16]
 1691 028a 0133     		adds	r3, r3, #1
 1692 028c 3B61     		str	r3, [r7, #16]
 1693              	.L105:
 452:.\Protocolo.c ****                 for(j=0;j<=2;j++){
 1694              		.loc 1 452 0 is_stmt 0 discriminator 1
 1695 028e 3B69     		ldr	r3, [r7, #16]
 1696 0290 022B     		cmp	r3, #2
 1697 0292 E7D9     		bls	.L106
 1698 0294 80E0     		b	.L84
 1699              	.L98:
 455:.\Protocolo.c ****                 }
 456:.\Protocolo.c **** 			}else{
 457:.\Protocolo.c **** 				for(j=0;j<=bSale.money[0];j++){
 1700              		.loc 1 457 0 is_stmt 1
 1701 0296 0023     		movs	r3, #0
 1702 0298 3B61     		str	r3, [r7, #16]
 1703 029a 1EE0     		b	.L107
 1704              	.L116:
 1705              		.align	2
 1706              	.L115:
 1707 029c 00000000 		.word	bSale
 1708 02a0 00000000 		.word	RxPu
 1709 02a4 00000000 		.word	side
 1710 02a8 00000000 		.word	countImp
 1711 02ac 00000000 		.word	date
 1712 02b0 00000000 		.word	dateSale1
 1713 02b4 00000000 		.word	time
 1714 02b8 00000000 		.word	timeSale1
 1715              	.L108:
ARM GAS  C:\Users\PROYEC~1\AppData\Local\Temp\ccuck2D9.s 			page 40


 458:.\Protocolo.c **** 					side.b.money[j]=bSale.money[j];
 1716              		.loc 1 458 0 discriminator 3
 1717 02bc 384A     		ldr	r2, .L117
 1718 02be 3B69     		ldr	r3, [r7, #16]
 1719 02c0 1344     		add	r3, r3, r2
 1720 02c2 0833     		adds	r3, r3, #8
 1721 02c4 1979     		ldrb	r1, [r3, #4]	@ zero_extendqisi2
 1722 02c6 374A     		ldr	r2, .L117+4
 1723 02c8 3B69     		ldr	r3, [r7, #16]
 1724 02ca 1344     		add	r3, r3, r2
 1725 02cc 03F5D873 		add	r3, r3, #432
 1726 02d0 0A46     		mov	r2, r1
 1727 02d2 5A71     		strb	r2, [r3, #5]
 457:.\Protocolo.c **** 					side.b.money[j]=bSale.money[j];
 1728              		.loc 1 457 0 discriminator 3
 1729 02d4 3B69     		ldr	r3, [r7, #16]
 1730 02d6 0133     		adds	r3, r3, #1
 1731 02d8 3B61     		str	r3, [r7, #16]
 1732              	.L107:
 457:.\Protocolo.c **** 					side.b.money[j]=bSale.money[j];
 1733              		.loc 1 457 0 is_stmt 0 discriminator 1
 1734 02da 314B     		ldr	r3, .L117
 1735 02dc 1B7B     		ldrb	r3, [r3, #12]	@ zero_extendqisi2
 1736 02de 1A46     		mov	r2, r3
 1737 02e0 3B69     		ldr	r3, [r7, #16]
 1738 02e2 9A42     		cmp	r2, r3
 1739 02e4 EAD2     		bcs	.L108
 459:.\Protocolo.c **** 				}
 460:.\Protocolo.c **** 				for(j=0;j<=bSale.volume[0];j++){
 1740              		.loc 1 460 0 is_stmt 1
 1741 02e6 0023     		movs	r3, #0
 1742 02e8 3B61     		str	r3, [r7, #16]
 1743 02ea 0EE0     		b	.L109
 1744              	.L110:
 461:.\Protocolo.c **** 					side.b.volume[j]=bSale.volume[j];
 1745              		.loc 1 461 0 discriminator 3
 1746 02ec 2C4A     		ldr	r2, .L117
 1747 02ee 3B69     		ldr	r3, [r7, #16]
 1748 02f0 1344     		add	r3, r3, r2
 1749 02f2 1833     		adds	r3, r3, #24
 1750 02f4 1978     		ldrb	r1, [r3]	@ zero_extendqisi2
 1751 02f6 2B4A     		ldr	r2, .L117+4
 1752 02f8 3B69     		ldr	r3, [r7, #16]
 1753 02fa 1344     		add	r3, r3, r2
 1754 02fc 03F5E073 		add	r3, r3, #448
 1755 0300 0A46     		mov	r2, r1
 1756 0302 5A70     		strb	r2, [r3, #1]
 460:.\Protocolo.c **** 					side.b.volume[j]=bSale.volume[j];
 1757              		.loc 1 460 0 discriminator 3
 1758 0304 3B69     		ldr	r3, [r7, #16]
 1759 0306 0133     		adds	r3, r3, #1
 1760 0308 3B61     		str	r3, [r7, #16]
 1761              	.L109:
 460:.\Protocolo.c **** 					side.b.volume[j]=bSale.volume[j];
 1762              		.loc 1 460 0 is_stmt 0 discriminator 1
 1763 030a 254B     		ldr	r3, .L117
 1764 030c 1B7E     		ldrb	r3, [r3, #24]	@ zero_extendqisi2
ARM GAS  C:\Users\PROYEC~1\AppData\Local\Temp\ccuck2D9.s 			page 41


 1765 030e 1A46     		mov	r2, r3
 1766 0310 3B69     		ldr	r3, [r7, #16]
 1767 0312 9A42     		cmp	r2, r3
 1768 0314 EAD2     		bcs	.L110
 462:.\Protocolo.c **** 				}
 463:.\Protocolo.c **** 				for(j=0;j<=bSale.ppu[0];j++){
 1769              		.loc 1 463 0 is_stmt 1
 1770 0316 0023     		movs	r3, #0
 1771 0318 3B61     		str	r3, [r7, #16]
 1772 031a 0DE0     		b	.L111
 1773              	.L112:
 464:.\Protocolo.c **** 					side.b.ppu[j]=bSale.ppu[j];
 1774              		.loc 1 464 0 discriminator 3
 1775 031c 204A     		ldr	r2, .L117
 1776 031e 3B69     		ldr	r3, [r7, #16]
 1777 0320 1344     		add	r3, r3, r2
 1778 0322 9978     		ldrb	r1, [r3, #2]	@ zero_extendqisi2
 1779 0324 1F4A     		ldr	r2, .L117+4
 1780 0326 3B69     		ldr	r3, [r7, #16]
 1781 0328 1344     		add	r3, r3, r2
 1782 032a 03F5D473 		add	r3, r3, #424
 1783 032e 0A46     		mov	r2, r1
 1784 0330 DA70     		strb	r2, [r3, #3]
 463:.\Protocolo.c **** 					side.b.ppu[j]=bSale.ppu[j];
 1785              		.loc 1 463 0 discriminator 3
 1786 0332 3B69     		ldr	r3, [r7, #16]
 1787 0334 0133     		adds	r3, r3, #1
 1788 0336 3B61     		str	r3, [r7, #16]
 1789              	.L111:
 463:.\Protocolo.c **** 					side.b.ppu[j]=bSale.ppu[j];
 1790              		.loc 1 463 0 is_stmt 0 discriminator 1
 1791 0338 194B     		ldr	r3, .L117
 1792 033a 9B78     		ldrb	r3, [r3, #2]	@ zero_extendqisi2
 1793 033c 1A46     		mov	r2, r3
 1794 033e 3B69     		ldr	r3, [r7, #16]
 1795 0340 9A42     		cmp	r2, r3
 1796 0342 EBD2     		bcs	.L112
 465:.\Protocolo.c **** 				}	
 466:.\Protocolo.c ****                 side.b.product=bSale.product&0x07;
 1797              		.loc 1 466 0 is_stmt 1
 1798 0344 164B     		ldr	r3, .L117
 1799 0346 5B78     		ldrb	r3, [r3, #1]	@ zero_extendqisi2
 1800 0348 03F00703 		and	r3, r3, #7
 1801 034c DAB2     		uxtb	r2, r3
 1802 034e 154B     		ldr	r3, .L117+4
 1803 0350 83F8AA21 		strb	r2, [r3, #426]
 467:.\Protocolo.c ****                 countImp[2]=0;
 1804              		.loc 1 467 0
 1805 0354 144B     		ldr	r3, .L117+8
 1806 0356 0022     		movs	r2, #0
 1807 0358 9A70     		strb	r2, [r3, #2]
 468:.\Protocolo.c ****                 read_date();
 1808              		.loc 1 468 0
 1809 035a FFF7FEFF 		bl	read_date
 469:.\Protocolo.c ****                 read_time();
 1810              		.loc 1 469 0
 1811 035e FFF7FEFF 		bl	read_time
ARM GAS  C:\Users\PROYEC~1\AppData\Local\Temp\ccuck2D9.s 			page 42


 470:.\Protocolo.c ****                 for(j=0;j<=2;j++){
 1812              		.loc 1 470 0
 1813 0362 0023     		movs	r3, #0
 1814 0364 3B61     		str	r3, [r7, #16]
 1815 0366 14E0     		b	.L113
 1816              	.L114:
 471:.\Protocolo.c ****                     dateSale2[j]=date[j];
 1817              		.loc 1 471 0 discriminator 3
 1818 0368 104A     		ldr	r2, .L117+12
 1819 036a 3B69     		ldr	r3, [r7, #16]
 1820 036c 1344     		add	r3, r3, r2
 1821 036e 1978     		ldrb	r1, [r3]	@ zero_extendqisi2
 1822 0370 0F4A     		ldr	r2, .L117+16
 1823 0372 3B69     		ldr	r3, [r7, #16]
 1824 0374 1344     		add	r3, r3, r2
 1825 0376 0A46     		mov	r2, r1
 1826 0378 1A70     		strb	r2, [r3]
 472:.\Protocolo.c ****                     timeSale2[j]=time[j];
 1827              		.loc 1 472 0 discriminator 3
 1828 037a 0E4A     		ldr	r2, .L117+20
 1829 037c 3B69     		ldr	r3, [r7, #16]
 1830 037e 1344     		add	r3, r3, r2
 1831 0380 1978     		ldrb	r1, [r3]	@ zero_extendqisi2
 1832 0382 0D4A     		ldr	r2, .L117+24
 1833 0384 3B69     		ldr	r3, [r7, #16]
 1834 0386 1344     		add	r3, r3, r2
 1835 0388 0A46     		mov	r2, r1
 1836 038a 1A70     		strb	r2, [r3]
 470:.\Protocolo.c ****                 for(j=0;j<=2;j++){
 1837              		.loc 1 470 0 discriminator 3
 1838 038c 3B69     		ldr	r3, [r7, #16]
 1839 038e 0133     		adds	r3, r3, #1
 1840 0390 3B61     		str	r3, [r7, #16]
 1841              	.L113:
 470:.\Protocolo.c ****                 for(j=0;j<=2;j++){
 1842              		.loc 1 470 0 is_stmt 0 discriminator 1
 1843 0392 3B69     		ldr	r3, [r7, #16]
 1844 0394 022B     		cmp	r3, #2
 1845 0396 E7D9     		bls	.L114
 1846              	.L84:
 473:.\Protocolo.c ****                 }
 474:.\Protocolo.c **** 			}
 475:.\Protocolo.c ****         }
 476:.\Protocolo.c ****     }
 477:.\Protocolo.c **** }
 1847              		.loc 1 477 0 is_stmt 1
 1848 0398 1837     		adds	r7, r7, #24
 1849              		.cfi_def_cfa_offset 8
 1850 039a BD46     		mov	sp, r7
 1851              		.cfi_def_cfa_register 13
 1852              		@ sp needed
 1853 039c 80BD     		pop	{r7, pc}
 1854              	.L118:
 1855 039e 00BF     		.align	2
 1856              	.L117:
 1857 03a0 00000000 		.word	bSale
 1858 03a4 00000000 		.word	side
ARM GAS  C:\Users\PROYEC~1\AppData\Local\Temp\ccuck2D9.s 			page 43


 1859 03a8 00000000 		.word	countImp
 1860 03ac 00000000 		.word	date
 1861 03b0 00000000 		.word	dateSale2
 1862 03b4 00000000 		.word	time
 1863 03b8 00000000 		.word	timeSale2
 1864              		.cfi_endproc
 1865              	.LFE62:
 1866              		.size	sale, .-sale
 1867              		.section	.text.get_total,"ax",%progbits
 1868              		.align	2
 1869              		.global	get_total
 1870              		.thumb
 1871              		.thumb_func
 1872              		.type	get_total, %function
 1873              	get_total:
 1874              	.LFB63:
 478:.\Protocolo.c **** 
 479:.\Protocolo.c **** /*
 480:.\Protocolo.c **** ***************************************************************************************************
 481:.\Protocolo.c **** *                                         get_total(uint8 dir)
 482:.\Protocolo.c **** *
 483:.\Protocolo.c **** * Description : 
 484:.\Protocolo.c **** *               
 485:.\Protocolo.c **** *
 486:.\Protocolo.c **** * Argument(s) : none
 487:.\Protocolo.c **** *
 488:.\Protocolo.c **** * Return(s)   : none
 489:.\Protocolo.c **** *
 490:.\Protocolo.c **** * Caller(s)   : 
 491:.\Protocolo.c **** *
 492:.\Protocolo.c **** * Note(s)     : none.
 493:.\Protocolo.c **** ***************************************************************************************************
 494:.\Protocolo.c **** */
 495:.\Protocolo.c **** uint8 get_total(uint8 dir){
 1875              		.loc 1 495 0
 1876              		.cfi_startproc
 1877              		@ args = 0, pretend = 0, frame = 16
 1878              		@ frame_needed = 1, uses_anonymous_args = 0
 1879 0000 80B5     		push	{r7, lr}
 1880              		.cfi_def_cfa_offset 8
 1881              		.cfi_offset 7, -8
 1882              		.cfi_offset 14, -4
 1883 0002 84B0     		sub	sp, sp, #16
 1884              		.cfi_def_cfa_offset 24
 1885 0004 00AF     		add	r7, sp, #0
 1886              		.cfi_def_cfa_register 7
 1887 0006 0346     		mov	r3, r0
 1888 0008 FB71     		strb	r3, [r7, #7]
 496:.\Protocolo.c ****     uint32 j,x;
 497:.\Protocolo.c ****     Pump_AL_PutChar(0x50|dir);
 1889              		.loc 1 497 0
 1890 000a FB79     		ldrb	r3, [r7, #7]
 1891 000c 43F05003 		orr	r3, r3, #80
 1892 0010 DBB2     		uxtb	r3, r3
 1893 0012 1846     		mov	r0, r3
 1894 0014 FFF7FEFF 		bl	Pump_AL_PutChar
 498:.\Protocolo.c ****     CyDelay(880);
ARM GAS  C:\Users\PROYEC~1\AppData\Local\Temp\ccuck2D9.s 			page 44


 1895              		.loc 1 498 0
 1896 0018 4FF45C70 		mov	r0, #880
 1897 001c FFF7FEFF 		bl	CyDelay
 499:.\Protocolo.c **** 	if(dir==side.a.dir){
 1898              		.loc 1 499 0
 1899 0020 A44B     		ldr	r3, .L347
 1900 0022 1B78     		ldrb	r3, [r3]	@ zero_extendqisi2
 1901 0024 FA79     		ldrb	r2, [r7, #7]	@ zero_extendqisi2
 1902 0026 9A42     		cmp	r2, r3
 1903 0028 40F06487 		bne	.L120
 500:.\Protocolo.c ****         side.a.total[0]=Pump_AL_GetRxBufferSize();
 1904              		.loc 1 500 0
 1905 002c FFF7FEFF 		bl	Pump_AL_GetRxBufferSize
 1906 0030 0346     		mov	r3, r0
 1907 0032 DAB2     		uxtb	r2, r3
 1908 0034 9F4B     		ldr	r3, .L347
 1909 0036 83F86420 		strb	r2, [r3, #100]
 501:.\Protocolo.c ****         for(x=1;x<=side.a.total[0];x++){
 1910              		.loc 1 501 0
 1911 003a 0123     		movs	r3, #1
 1912 003c BB60     		str	r3, [r7, #8]
 1913 003e 0DE0     		b	.L121
 1914              	.L122:
 502:.\Protocolo.c ****             side.a.total[x]=Pump_AL_rxBuffer[x-1];
 1915              		.loc 1 502 0 discriminator 3
 1916 0040 BB68     		ldr	r3, [r7, #8]
 1917 0042 013B     		subs	r3, r3, #1
 1918 0044 9C4A     		ldr	r2, .L347+4
 1919 0046 D35C     		ldrb	r3, [r2, r3]
 1920 0048 D9B2     		uxtb	r1, r3
 1921 004a 9A4A     		ldr	r2, .L347
 1922 004c BB68     		ldr	r3, [r7, #8]
 1923 004e 1344     		add	r3, r3, r2
 1924 0050 6033     		adds	r3, r3, #96
 1925 0052 0A46     		mov	r2, r1
 1926 0054 1A71     		strb	r2, [r3, #4]
 501:.\Protocolo.c ****         for(x=1;x<=side.a.total[0];x++){
 1927              		.loc 1 501 0 discriminator 3
 1928 0056 BB68     		ldr	r3, [r7, #8]
 1929 0058 0133     		adds	r3, r3, #1
 1930 005a BB60     		str	r3, [r7, #8]
 1931              	.L121:
 501:.\Protocolo.c ****         for(x=1;x<=side.a.total[0];x++){
 1932              		.loc 1 501 0 is_stmt 0 discriminator 1
 1933 005c 954B     		ldr	r3, .L347
 1934 005e 93F86430 		ldrb	r3, [r3, #100]	@ zero_extendqisi2
 1935 0062 1A46     		mov	r2, r3
 1936 0064 BB68     		ldr	r3, [r7, #8]
 1937 0066 9A42     		cmp	r2, r3
 1938 0068 EAD2     		bcs	.L122
 503:.\Protocolo.c ****         }
 504:.\Protocolo.c **** 		switch(side.a.total[0]){
 1939              		.loc 1 504 0 is_stmt 1
 1940 006a 924B     		ldr	r3, .L347
 1941 006c 93F86430 		ldrb	r3, [r3, #100]	@ zero_extendqisi2
 1942 0070 402B     		cmp	r3, #64
 1943 0072 00F0BB80 		beq	.L124
ARM GAS  C:\Users\PROYEC~1\AppData\Local\Temp\ccuck2D9.s 			page 45


 1944 0076 402B     		cmp	r3, #64
 1945 0078 06DC     		bgt	.L125
 1946 007a 222B     		cmp	r3, #34
 1947 007c 0FD0     		beq	.L126
 1948 007e 2E2B     		cmp	r3, #46
 1949 0080 00F09F83 		beq	.L127
 1950 0084 00F033BF 		b	.L123
 1951              	.L125:
 1952 0088 5E2B     		cmp	r3, #94
 1953 008a 00F0E281 		beq	.L128
 1954 008e 822B     		cmp	r3, #130
 1955 0090 00F07585 		beq	.L129
 1956 0094 582B     		cmp	r3, #88
 1957 0096 00F04084 		beq	.L130
 1958 009a 00F028BF 		b	.L123
 1959              	.L126:
 505:.\Protocolo.c **** 			case 34://5 digitos una manguera
 506:.\Protocolo.c **** 				if((Pump_AL_rxBuffer[0]==0xFF)&&(Pump_AL_rxBuffer[1]==0xF6)&&(Pump_AL_rxBuffer[33]==0xF0)&&(Pum
 1960              		.loc 1 506 0
 1961 009e 864B     		ldr	r3, .L347+4
 1962 00a0 1B78     		ldrb	r3, [r3]
 1963 00a2 DBB2     		uxtb	r3, r3
 1964 00a4 FF2B     		cmp	r3, #255
 1965 00a6 40F09E80 		bne	.L131
 1966              		.loc 1 506 0 is_stmt 0 discriminator 1
 1967 00aa 834B     		ldr	r3, .L347+4
 1968 00ac 5B78     		ldrb	r3, [r3, #1]
 1969 00ae DBB2     		uxtb	r3, r3
 1970 00b0 F62B     		cmp	r3, #246
 1971 00b2 40F09880 		bne	.L131
 1972              		.loc 1 506 0 discriminator 2
 1973 00b6 804B     		ldr	r3, .L347+4
 1974 00b8 93F82130 		ldrb	r3, [r3, #33]
 1975 00bc DBB2     		uxtb	r3, r3
 1976 00be F02B     		cmp	r3, #240
 1977 00c0 40F09180 		bne	.L131
 1978              		.loc 1 506 0 discriminator 3
 1979 00c4 7C4B     		ldr	r3, .L347+4
 1980 00c6 DB78     		ldrb	r3, [r3, #3]
 1981 00c8 DBB2     		uxtb	r3, r3
 1982 00ca F92B     		cmp	r3, #249
 1983 00cc 40F08B80 		bne	.L131
 507:.\Protocolo.c **** 					bufferLCD1.totalVolume1[0]=9;
 1984              		.loc 1 507 0 is_stmt 1
 1985 00d0 7A4B     		ldr	r3, .L347+8
 1986 00d2 0922     		movs	r2, #9
 1987 00d4 83F85D20 		strb	r2, [r3, #93]
 508:.\Protocolo.c **** 					j=9;
 1988              		.loc 1 508 0
 1989 00d8 0923     		movs	r3, #9
 1990 00da FB60     		str	r3, [r7, #12]
 509:.\Protocolo.c **** 					for(x=0;x<=7;x++){
 1991              		.loc 1 509 0
 1992 00dc 0023     		movs	r3, #0
 1993 00de BB60     		str	r3, [r7, #8]
 1994 00e0 35E0     		b	.L132
 1995              	.L135:
ARM GAS  C:\Users\PROYEC~1\AppData\Local\Temp\ccuck2D9.s 			page 46


 510:.\Protocolo.c **** 						if(x==2){
 1996              		.loc 1 510 0
 1997 00e2 BB68     		ldr	r3, [r7, #8]
 1998 00e4 022B     		cmp	r3, #2
 1999 00e6 1CD1     		bne	.L133
 511:.\Protocolo.c **** 							bufferLCD1.totalVolume1[j]=',';
 2000              		.loc 1 511 0
 2001 00e8 744A     		ldr	r2, .L347+8
 2002 00ea FB68     		ldr	r3, [r7, #12]
 2003 00ec 1344     		add	r3, r3, r2
 2004 00ee 5833     		adds	r3, r3, #88
 2005 00f0 2C22     		movs	r2, #44
 2006 00f2 5A71     		strb	r2, [r3, #5]
 512:.\Protocolo.c **** 							j--;
 2007              		.loc 1 512 0
 2008 00f4 FB68     		ldr	r3, [r7, #12]
 2009 00f6 013B     		subs	r3, r3, #1
 2010 00f8 FB60     		str	r3, [r7, #12]
 513:.\Protocolo.c **** 							bufferLCD1.totalVolume1[j]=(Pump_AL_rxBuffer[x+4]&0x0F)+0x30;
 2011              		.loc 1 513 0
 2012 00fa BB68     		ldr	r3, [r7, #8]
 2013 00fc 0433     		adds	r3, r3, #4
 2014 00fe 6E4A     		ldr	r2, .L347+4
 2015 0100 D35C     		ldrb	r3, [r2, r3]
 2016 0102 DBB2     		uxtb	r3, r3
 2017 0104 03F00F03 		and	r3, r3, #15
 2018 0108 DBB2     		uxtb	r3, r3
 2019 010a 3033     		adds	r3, r3, #48
 2020 010c D9B2     		uxtb	r1, r3
 2021 010e 6B4A     		ldr	r2, .L347+8
 2022 0110 FB68     		ldr	r3, [r7, #12]
 2023 0112 1344     		add	r3, r3, r2
 2024 0114 5833     		adds	r3, r3, #88
 2025 0116 0A46     		mov	r2, r1
 2026 0118 5A71     		strb	r2, [r3, #5]
 514:.\Protocolo.c **** 							j--;
 2027              		.loc 1 514 0
 2028 011a FB68     		ldr	r3, [r7, #12]
 2029 011c 013B     		subs	r3, r3, #1
 2030 011e FB60     		str	r3, [r7, #12]
 2031 0120 12E0     		b	.L134
 2032              	.L133:
 515:.\Protocolo.c **** 						}else{
 516:.\Protocolo.c **** 							bufferLCD1.totalVolume1[j]=(Pump_AL_rxBuffer[x+4]&0x0F)+0x30;
 2033              		.loc 1 516 0
 2034 0122 BB68     		ldr	r3, [r7, #8]
 2035 0124 0433     		adds	r3, r3, #4
 2036 0126 644A     		ldr	r2, .L347+4
 2037 0128 D35C     		ldrb	r3, [r2, r3]
 2038 012a DBB2     		uxtb	r3, r3
 2039 012c 03F00F03 		and	r3, r3, #15
 2040 0130 DBB2     		uxtb	r3, r3
 2041 0132 3033     		adds	r3, r3, #48
 2042 0134 D9B2     		uxtb	r1, r3
 2043 0136 614A     		ldr	r2, .L347+8
 2044 0138 FB68     		ldr	r3, [r7, #12]
 2045 013a 1344     		add	r3, r3, r2
ARM GAS  C:\Users\PROYEC~1\AppData\Local\Temp\ccuck2D9.s 			page 47


 2046 013c 5833     		adds	r3, r3, #88
 2047 013e 0A46     		mov	r2, r1
 2048 0140 5A71     		strb	r2, [r3, #5]
 517:.\Protocolo.c **** 							j--;
 2049              		.loc 1 517 0
 2050 0142 FB68     		ldr	r3, [r7, #12]
 2051 0144 013B     		subs	r3, r3, #1
 2052 0146 FB60     		str	r3, [r7, #12]
 2053              	.L134:
 509:.\Protocolo.c **** 						if(x==2){
 2054              		.loc 1 509 0 discriminator 2
 2055 0148 BB68     		ldr	r3, [r7, #8]
 2056 014a 0133     		adds	r3, r3, #1
 2057 014c BB60     		str	r3, [r7, #8]
 2058              	.L132:
 509:.\Protocolo.c **** 						if(x==2){
 2059              		.loc 1 509 0 is_stmt 0 discriminator 1
 2060 014e BB68     		ldr	r3, [r7, #8]
 2061 0150 072B     		cmp	r3, #7
 2062 0152 C6D9     		bls	.L135
 518:.\Protocolo.c **** 						}
 519:.\Protocolo.c **** 					}
 520:.\Protocolo.c **** 					bufferLCD1.totalMoney1[0]=8;
 2063              		.loc 1 520 0 is_stmt 1
 2064 0154 594B     		ldr	r3, .L347+8
 2065 0156 0822     		movs	r2, #8
 2066 0158 83F82120 		strb	r2, [r3, #33]
 521:.\Protocolo.c **** 					j=8;
 2067              		.loc 1 521 0
 2068 015c 0823     		movs	r3, #8
 2069 015e FB60     		str	r3, [r7, #12]
 522:.\Protocolo.c **** 					for(x=0;x<=7;x++){
 2070              		.loc 1 522 0
 2071 0160 0023     		movs	r3, #0
 2072 0162 BB60     		str	r3, [r7, #8]
 2073 0164 15E0     		b	.L136
 2074              	.L137:
 523:.\Protocolo.c **** 						bufferLCD1.totalMoney1[j]=(Pump_AL_rxBuffer[x+13]&0x0F)+0x30;
 2075              		.loc 1 523 0 discriminator 3
 2076 0166 BB68     		ldr	r3, [r7, #8]
 2077 0168 0D33     		adds	r3, r3, #13
 2078 016a 534A     		ldr	r2, .L347+4
 2079 016c D35C     		ldrb	r3, [r2, r3]
 2080 016e DBB2     		uxtb	r3, r3
 2081 0170 03F00F03 		and	r3, r3, #15
 2082 0174 DBB2     		uxtb	r3, r3
 2083 0176 3033     		adds	r3, r3, #48
 2084 0178 D9B2     		uxtb	r1, r3
 2085 017a 504A     		ldr	r2, .L347+8
 2086 017c FB68     		ldr	r3, [r7, #12]
 2087 017e 1344     		add	r3, r3, r2
 2088 0180 2033     		adds	r3, r3, #32
 2089 0182 0A46     		mov	r2, r1
 2090 0184 5A70     		strb	r2, [r3, #1]
 524:.\Protocolo.c **** 						j--;
 2091              		.loc 1 524 0 discriminator 3
 2092 0186 FB68     		ldr	r3, [r7, #12]
ARM GAS  C:\Users\PROYEC~1\AppData\Local\Temp\ccuck2D9.s 			page 48


 2093 0188 013B     		subs	r3, r3, #1
 2094 018a FB60     		str	r3, [r7, #12]
 522:.\Protocolo.c **** 					for(x=0;x<=7;x++){
 2095              		.loc 1 522 0 discriminator 3
 2096 018c BB68     		ldr	r3, [r7, #8]
 2097 018e 0133     		adds	r3, r3, #1
 2098 0190 BB60     		str	r3, [r7, #8]
 2099              	.L136:
 522:.\Protocolo.c **** 					for(x=0;x<=7;x++){
 2100              		.loc 1 522 0 is_stmt 0 discriminator 1
 2101 0192 BB68     		ldr	r3, [r7, #8]
 2102 0194 072B     		cmp	r3, #7
 2103 0196 E6D9     		bls	.L137
 525:.\Protocolo.c **** 					}
 526:.\Protocolo.c ****                     bufferLCD1.ppu1[0]=4;
 2104              		.loc 1 526 0 is_stmt 1
 2105 0198 484B     		ldr	r3, .L347+8
 2106 019a 0422     		movs	r2, #4
 2107 019c 83F89920 		strb	r2, [r3, #153]
 527:.\Protocolo.c ****                     j=4;
 2108              		.loc 1 527 0
 2109 01a0 0423     		movs	r3, #4
 2110 01a2 FB60     		str	r3, [r7, #12]
 528:.\Protocolo.c ****                     for(x=0;x<=3;x++){
 2111              		.loc 1 528 0
 2112 01a4 0023     		movs	r3, #0
 2113 01a6 BB60     		str	r3, [r7, #8]
 2114 01a8 15E0     		b	.L138
 2115              	.L139:
 529:.\Protocolo.c ****                         bufferLCD1.ppu1[j]=(Pump_AL_rxBuffer[x+22]&0x0F)+0x30;
 2116              		.loc 1 529 0 discriminator 3
 2117 01aa BB68     		ldr	r3, [r7, #8]
 2118 01ac 1633     		adds	r3, r3, #22
 2119 01ae 424A     		ldr	r2, .L347+4
 2120 01b0 D35C     		ldrb	r3, [r2, r3]
 2121 01b2 DBB2     		uxtb	r3, r3
 2122 01b4 03F00F03 		and	r3, r3, #15
 2123 01b8 DBB2     		uxtb	r3, r3
 2124 01ba 3033     		adds	r3, r3, #48
 2125 01bc D9B2     		uxtb	r1, r3
 2126 01be 3F4A     		ldr	r2, .L347+8
 2127 01c0 FB68     		ldr	r3, [r7, #12]
 2128 01c2 1344     		add	r3, r3, r2
 2129 01c4 9833     		adds	r3, r3, #152
 2130 01c6 0A46     		mov	r2, r1
 2131 01c8 5A70     		strb	r2, [r3, #1]
 530:.\Protocolo.c ****                         j--;
 2132              		.loc 1 530 0 discriminator 3
 2133 01ca FB68     		ldr	r3, [r7, #12]
 2134 01cc 013B     		subs	r3, r3, #1
 2135 01ce FB60     		str	r3, [r7, #12]
 528:.\Protocolo.c ****                     for(x=0;x<=3;x++){
 2136              		.loc 1 528 0 discriminator 3
 2137 01d0 BB68     		ldr	r3, [r7, #8]
 2138 01d2 0133     		adds	r3, r3, #1
 2139 01d4 BB60     		str	r3, [r7, #8]
 2140              	.L138:
ARM GAS  C:\Users\PROYEC~1\AppData\Local\Temp\ccuck2D9.s 			page 49


 528:.\Protocolo.c ****                     for(x=0;x<=3;x++){
 2141              		.loc 1 528 0 is_stmt 0 discriminator 1
 2142 01d6 BB68     		ldr	r3, [r7, #8]
 2143 01d8 032B     		cmp	r3, #3
 2144 01da E6D9     		bls	.L139
 531:.\Protocolo.c ****                     }
 532:.\Protocolo.c **** 					Pump_AL_ClearRxBuffer();
 2145              		.loc 1 532 0 is_stmt 1
 2146 01dc FFF7FEFF 		bl	Pump_AL_ClearRxBuffer
 533:.\Protocolo.c **** 					return 1;
 2147              		.loc 1 533 0
 2148 01e0 0123     		movs	r3, #1
 2149 01e2 01F0F1BD 		b	.L140
 2150              	.L131:
 534:.\Protocolo.c **** 				}
 535:.\Protocolo.c **** 				else{
 536:.\Protocolo.c **** 					return 0;
 2151              		.loc 1 536 0
 2152 01e6 0023     		movs	r3, #0
 2153 01e8 01F0EEBD 		b	.L140
 2154              	.L124:
 537:.\Protocolo.c **** 				}
 538:.\Protocolo.c **** 			break;
 539:.\Protocolo.c **** 			
 540:.\Protocolo.c **** 			case 64://5 digitos dos mangueras
 541:.\Protocolo.c **** 				if((Pump_AL_rxBuffer[0]==0xFF)&&(Pump_AL_rxBuffer[1]==0xF6)&&(Pump_AL_rxBuffer[63]==0xF0)&&(Pum
 2155              		.loc 1 541 0
 2156 01ec 324B     		ldr	r3, .L347+4
 2157 01ee 1B78     		ldrb	r3, [r3]
 2158 01f0 DBB2     		uxtb	r3, r3
 2159 01f2 FF2B     		cmp	r3, #255
 2160 01f4 40F02A81 		bne	.L141
 2161              		.loc 1 541 0 is_stmt 0 discriminator 1
 2162 01f8 2F4B     		ldr	r3, .L347+4
 2163 01fa 5B78     		ldrb	r3, [r3, #1]
 2164 01fc DBB2     		uxtb	r3, r3
 2165 01fe F62B     		cmp	r3, #246
 2166 0200 40F02481 		bne	.L141
 2167              		.loc 1 541 0 discriminator 2
 2168 0204 2C4B     		ldr	r3, .L347+4
 2169 0206 93F83F30 		ldrb	r3, [r3, #63]
 2170 020a DBB2     		uxtb	r3, r3
 2171 020c F02B     		cmp	r3, #240
 2172 020e 40F01D81 		bne	.L141
 2173              		.loc 1 541 0 discriminator 3
 2174 0212 294B     		ldr	r3, .L347+4
 2175 0214 DB78     		ldrb	r3, [r3, #3]
 2176 0216 DBB2     		uxtb	r3, r3
 2177 0218 F92B     		cmp	r3, #249
 2178 021a 40F01781 		bne	.L141
 542:.\Protocolo.c **** 					bufferLCD1.totalVolume1[0]=9;
 2179              		.loc 1 542 0 is_stmt 1
 2180 021e 274B     		ldr	r3, .L347+8
 2181 0220 0922     		movs	r2, #9
 2182 0222 83F85D20 		strb	r2, [r3, #93]
 543:.\Protocolo.c **** 					j=9;
 2183              		.loc 1 543 0
ARM GAS  C:\Users\PROYEC~1\AppData\Local\Temp\ccuck2D9.s 			page 50


 2184 0226 0923     		movs	r3, #9
 2185 0228 FB60     		str	r3, [r7, #12]
 544:.\Protocolo.c **** 					for(x=0;x<=7;x++){
 2186              		.loc 1 544 0
 2187 022a 0023     		movs	r3, #0
 2188 022c BB60     		str	r3, [r7, #8]
 2189 022e 35E0     		b	.L142
 2190              	.L145:
 545:.\Protocolo.c **** 						if(x==2){
 2191              		.loc 1 545 0
 2192 0230 BB68     		ldr	r3, [r7, #8]
 2193 0232 022B     		cmp	r3, #2
 2194 0234 1CD1     		bne	.L143
 546:.\Protocolo.c **** 							bufferLCD1.totalVolume1[j]=',';
 2195              		.loc 1 546 0
 2196 0236 214A     		ldr	r2, .L347+8
 2197 0238 FB68     		ldr	r3, [r7, #12]
 2198 023a 1344     		add	r3, r3, r2
 2199 023c 5833     		adds	r3, r3, #88
 2200 023e 2C22     		movs	r2, #44
 2201 0240 5A71     		strb	r2, [r3, #5]
 547:.\Protocolo.c **** 							j--;
 2202              		.loc 1 547 0
 2203 0242 FB68     		ldr	r3, [r7, #12]
 2204 0244 013B     		subs	r3, r3, #1
 2205 0246 FB60     		str	r3, [r7, #12]
 548:.\Protocolo.c **** 							bufferLCD1.totalVolume1[j]=(Pump_AL_rxBuffer[4+x]&0x0F)+0x30;
 2206              		.loc 1 548 0
 2207 0248 BB68     		ldr	r3, [r7, #8]
 2208 024a 0433     		adds	r3, r3, #4
 2209 024c 1A4A     		ldr	r2, .L347+4
 2210 024e D35C     		ldrb	r3, [r2, r3]
 2211 0250 DBB2     		uxtb	r3, r3
 2212 0252 03F00F03 		and	r3, r3, #15
 2213 0256 DBB2     		uxtb	r3, r3
 2214 0258 3033     		adds	r3, r3, #48
 2215 025a D9B2     		uxtb	r1, r3
 2216 025c 174A     		ldr	r2, .L347+8
 2217 025e FB68     		ldr	r3, [r7, #12]
 2218 0260 1344     		add	r3, r3, r2
 2219 0262 5833     		adds	r3, r3, #88
 2220 0264 0A46     		mov	r2, r1
 2221 0266 5A71     		strb	r2, [r3, #5]
 549:.\Protocolo.c **** 							j--;
 2222              		.loc 1 549 0
 2223 0268 FB68     		ldr	r3, [r7, #12]
 2224 026a 013B     		subs	r3, r3, #1
 2225 026c FB60     		str	r3, [r7, #12]
 2226 026e 12E0     		b	.L144
 2227              	.L143:
 550:.\Protocolo.c **** 						}else{
 551:.\Protocolo.c **** 							bufferLCD1.totalVolume1[j]=(Pump_AL_rxBuffer[4+x]&0x0F)+0x30;
 2228              		.loc 1 551 0
 2229 0270 BB68     		ldr	r3, [r7, #8]
 2230 0272 0433     		adds	r3, r3, #4
 2231 0274 104A     		ldr	r2, .L347+4
 2232 0276 D35C     		ldrb	r3, [r2, r3]
ARM GAS  C:\Users\PROYEC~1\AppData\Local\Temp\ccuck2D9.s 			page 51


 2233 0278 DBB2     		uxtb	r3, r3
 2234 027a 03F00F03 		and	r3, r3, #15
 2235 027e DBB2     		uxtb	r3, r3
 2236 0280 3033     		adds	r3, r3, #48
 2237 0282 D9B2     		uxtb	r1, r3
 2238 0284 0D4A     		ldr	r2, .L347+8
 2239 0286 FB68     		ldr	r3, [r7, #12]
 2240 0288 1344     		add	r3, r3, r2
 2241 028a 5833     		adds	r3, r3, #88
 2242 028c 0A46     		mov	r2, r1
 2243 028e 5A71     		strb	r2, [r3, #5]
 552:.\Protocolo.c **** 							j--;
 2244              		.loc 1 552 0
 2245 0290 FB68     		ldr	r3, [r7, #12]
 2246 0292 013B     		subs	r3, r3, #1
 2247 0294 FB60     		str	r3, [r7, #12]
 2248              	.L144:
 544:.\Protocolo.c **** 						if(x==2){
 2249              		.loc 1 544 0 discriminator 2
 2250 0296 BB68     		ldr	r3, [r7, #8]
 2251 0298 0133     		adds	r3, r3, #1
 2252 029a BB60     		str	r3, [r7, #8]
 2253              	.L142:
 544:.\Protocolo.c **** 						if(x==2){
 2254              		.loc 1 544 0 is_stmt 0 discriminator 1
 2255 029c BB68     		ldr	r3, [r7, #8]
 2256 029e 072B     		cmp	r3, #7
 2257 02a0 C6D9     		bls	.L145
 553:.\Protocolo.c **** 						}
 554:.\Protocolo.c **** 					}
 555:.\Protocolo.c **** 					bufferLCD1.totalMoney1[0]=8;
 2258              		.loc 1 555 0 is_stmt 1
 2259 02a2 064B     		ldr	r3, .L347+8
 2260 02a4 0822     		movs	r2, #8
 2261 02a6 83F82120 		strb	r2, [r3, #33]
 556:.\Protocolo.c **** 					j=8;
 2262              		.loc 1 556 0
 2263 02aa 0823     		movs	r3, #8
 2264 02ac FB60     		str	r3, [r7, #12]
 557:.\Protocolo.c **** 					for(x=0;x<=7;x++){
 2265              		.loc 1 557 0
 2266 02ae 0023     		movs	r3, #0
 2267 02b0 BB60     		str	r3, [r7, #8]
 2268 02b2 1BE0     		b	.L146
 2269              	.L348:
 2270              		.align	2
 2271              	.L347:
 2272 02b4 00000000 		.word	side
 2273 02b8 00000000 		.word	Pump_AL_rxBuffer
 2274 02bc 00000000 		.word	bufferLCD1
 2275              	.L147:
 558:.\Protocolo.c **** 						bufferLCD1.totalMoney1[j]=(Pump_AL_rxBuffer[13+x]&0x0F)+0x30;
 2276              		.loc 1 558 0 discriminator 3
 2277 02c0 BB68     		ldr	r3, [r7, #8]
 2278 02c2 0D33     		adds	r3, r3, #13
 2279 02c4 A64A     		ldr	r2, .L349
 2280 02c6 D35C     		ldrb	r3, [r2, r3]
ARM GAS  C:\Users\PROYEC~1\AppData\Local\Temp\ccuck2D9.s 			page 52


 2281 02c8 DBB2     		uxtb	r3, r3
 2282 02ca 03F00F03 		and	r3, r3, #15
 2283 02ce DBB2     		uxtb	r3, r3
 2284 02d0 3033     		adds	r3, r3, #48
 2285 02d2 D9B2     		uxtb	r1, r3
 2286 02d4 A34A     		ldr	r2, .L349+4
 2287 02d6 FB68     		ldr	r3, [r7, #12]
 2288 02d8 1344     		add	r3, r3, r2
 2289 02da 2033     		adds	r3, r3, #32
 2290 02dc 0A46     		mov	r2, r1
 2291 02de 5A70     		strb	r2, [r3, #1]
 559:.\Protocolo.c **** 						j--;
 2292              		.loc 1 559 0 discriminator 3
 2293 02e0 FB68     		ldr	r3, [r7, #12]
 2294 02e2 013B     		subs	r3, r3, #1
 2295 02e4 FB60     		str	r3, [r7, #12]
 557:.\Protocolo.c **** 					for(x=0;x<=7;x++){
 2296              		.loc 1 557 0 discriminator 3
 2297 02e6 BB68     		ldr	r3, [r7, #8]
 2298 02e8 0133     		adds	r3, r3, #1
 2299 02ea BB60     		str	r3, [r7, #8]
 2300              	.L146:
 557:.\Protocolo.c **** 					for(x=0;x<=7;x++){
 2301              		.loc 1 557 0 is_stmt 0 discriminator 1
 2302 02ec BB68     		ldr	r3, [r7, #8]
 2303 02ee 072B     		cmp	r3, #7
 2304 02f0 E6D9     		bls	.L147
 560:.\Protocolo.c **** 					}
 561:.\Protocolo.c ****                     bufferLCD1.ppu1[0]=4;
 2305              		.loc 1 561 0 is_stmt 1
 2306 02f2 9C4B     		ldr	r3, .L349+4
 2307 02f4 0422     		movs	r2, #4
 2308 02f6 83F89920 		strb	r2, [r3, #153]
 562:.\Protocolo.c ****                     j=4;
 2309              		.loc 1 562 0
 2310 02fa 0423     		movs	r3, #4
 2311 02fc FB60     		str	r3, [r7, #12]
 563:.\Protocolo.c ****                     for(x=0;x<=3;x++){
 2312              		.loc 1 563 0
 2313 02fe 0023     		movs	r3, #0
 2314 0300 BB60     		str	r3, [r7, #8]
 2315 0302 15E0     		b	.L148
 2316              	.L149:
 564:.\Protocolo.c ****                         bufferLCD1.ppu1[j]=(Pump_AL_rxBuffer[x+22]&0x0F)+0x30;
 2317              		.loc 1 564 0 discriminator 3
 2318 0304 BB68     		ldr	r3, [r7, #8]
 2319 0306 1633     		adds	r3, r3, #22
 2320 0308 954A     		ldr	r2, .L349
 2321 030a D35C     		ldrb	r3, [r2, r3]
 2322 030c DBB2     		uxtb	r3, r3
 2323 030e 03F00F03 		and	r3, r3, #15
 2324 0312 DBB2     		uxtb	r3, r3
 2325 0314 3033     		adds	r3, r3, #48
 2326 0316 D9B2     		uxtb	r1, r3
 2327 0318 924A     		ldr	r2, .L349+4
 2328 031a FB68     		ldr	r3, [r7, #12]
 2329 031c 1344     		add	r3, r3, r2
ARM GAS  C:\Users\PROYEC~1\AppData\Local\Temp\ccuck2D9.s 			page 53


 2330 031e 9833     		adds	r3, r3, #152
 2331 0320 0A46     		mov	r2, r1
 2332 0322 5A70     		strb	r2, [r3, #1]
 565:.\Protocolo.c ****                         j--;
 2333              		.loc 1 565 0 discriminator 3
 2334 0324 FB68     		ldr	r3, [r7, #12]
 2335 0326 013B     		subs	r3, r3, #1
 2336 0328 FB60     		str	r3, [r7, #12]
 563:.\Protocolo.c ****                     for(x=0;x<=3;x++){
 2337              		.loc 1 563 0 discriminator 3
 2338 032a BB68     		ldr	r3, [r7, #8]
 2339 032c 0133     		adds	r3, r3, #1
 2340 032e BB60     		str	r3, [r7, #8]
 2341              	.L148:
 563:.\Protocolo.c ****                     for(x=0;x<=3;x++){
 2342              		.loc 1 563 0 is_stmt 0 discriminator 1
 2343 0330 BB68     		ldr	r3, [r7, #8]
 2344 0332 032B     		cmp	r3, #3
 2345 0334 E6D9     		bls	.L149
 566:.\Protocolo.c ****                     }
 567:.\Protocolo.c **** 					bufferLCD1.totalVolume2[0]=9;
 2346              		.loc 1 567 0 is_stmt 1
 2347 0336 8B4B     		ldr	r3, .L349+4
 2348 0338 0922     		movs	r2, #9
 2349 033a 83F87120 		strb	r2, [r3, #113]
 568:.\Protocolo.c **** 					j=9;
 2350              		.loc 1 568 0
 2351 033e 0923     		movs	r3, #9
 2352 0340 FB60     		str	r3, [r7, #12]
 569:.\Protocolo.c **** 					for(x=0;x<=7;x++){
 2353              		.loc 1 569 0
 2354 0342 0023     		movs	r3, #0
 2355 0344 BB60     		str	r3, [r7, #8]
 2356 0346 35E0     		b	.L150
 2357              	.L153:
 570:.\Protocolo.c **** 						if(x==2){
 2358              		.loc 1 570 0
 2359 0348 BB68     		ldr	r3, [r7, #8]
 2360 034a 022B     		cmp	r3, #2
 2361 034c 1CD1     		bne	.L151
 571:.\Protocolo.c **** 							bufferLCD1.totalVolume2[j]=',';
 2362              		.loc 1 571 0
 2363 034e 854A     		ldr	r2, .L349+4
 2364 0350 FB68     		ldr	r3, [r7, #12]
 2365 0352 1344     		add	r3, r3, r2
 2366 0354 7033     		adds	r3, r3, #112
 2367 0356 2C22     		movs	r2, #44
 2368 0358 5A70     		strb	r2, [r3, #1]
 572:.\Protocolo.c **** 							j--;
 2369              		.loc 1 572 0
 2370 035a FB68     		ldr	r3, [r7, #12]
 2371 035c 013B     		subs	r3, r3, #1
 2372 035e FB60     		str	r3, [r7, #12]
 573:.\Protocolo.c **** 							bufferLCD1.totalVolume2[j]=(Pump_AL_rxBuffer[34+x]&0x0F)+0x30;
 2373              		.loc 1 573 0
 2374 0360 BB68     		ldr	r3, [r7, #8]
 2375 0362 2233     		adds	r3, r3, #34
ARM GAS  C:\Users\PROYEC~1\AppData\Local\Temp\ccuck2D9.s 			page 54


 2376 0364 7E4A     		ldr	r2, .L349
 2377 0366 D35C     		ldrb	r3, [r2, r3]
 2378 0368 DBB2     		uxtb	r3, r3
 2379 036a 03F00F03 		and	r3, r3, #15
 2380 036e DBB2     		uxtb	r3, r3
 2381 0370 3033     		adds	r3, r3, #48
 2382 0372 D9B2     		uxtb	r1, r3
 2383 0374 7B4A     		ldr	r2, .L349+4
 2384 0376 FB68     		ldr	r3, [r7, #12]
 2385 0378 1344     		add	r3, r3, r2
 2386 037a 7033     		adds	r3, r3, #112
 2387 037c 0A46     		mov	r2, r1
 2388 037e 5A70     		strb	r2, [r3, #1]
 574:.\Protocolo.c **** 							j--;
 2389              		.loc 1 574 0
 2390 0380 FB68     		ldr	r3, [r7, #12]
 2391 0382 013B     		subs	r3, r3, #1
 2392 0384 FB60     		str	r3, [r7, #12]
 2393 0386 12E0     		b	.L152
 2394              	.L151:
 575:.\Protocolo.c **** 						}else{
 576:.\Protocolo.c **** 							bufferLCD1.totalVolume2[j]=(Pump_AL_rxBuffer[34+x]&0x0F)+0x30;
 2395              		.loc 1 576 0
 2396 0388 BB68     		ldr	r3, [r7, #8]
 2397 038a 2233     		adds	r3, r3, #34
 2398 038c 744A     		ldr	r2, .L349
 2399 038e D35C     		ldrb	r3, [r2, r3]
 2400 0390 DBB2     		uxtb	r3, r3
 2401 0392 03F00F03 		and	r3, r3, #15
 2402 0396 DBB2     		uxtb	r3, r3
 2403 0398 3033     		adds	r3, r3, #48
 2404 039a D9B2     		uxtb	r1, r3
 2405 039c 714A     		ldr	r2, .L349+4
 2406 039e FB68     		ldr	r3, [r7, #12]
 2407 03a0 1344     		add	r3, r3, r2
 2408 03a2 7033     		adds	r3, r3, #112
 2409 03a4 0A46     		mov	r2, r1
 2410 03a6 5A70     		strb	r2, [r3, #1]
 577:.\Protocolo.c **** 							j--;
 2411              		.loc 1 577 0
 2412 03a8 FB68     		ldr	r3, [r7, #12]
 2413 03aa 013B     		subs	r3, r3, #1
 2414 03ac FB60     		str	r3, [r7, #12]
 2415              	.L152:
 569:.\Protocolo.c **** 						if(x==2){
 2416              		.loc 1 569 0 discriminator 2
 2417 03ae BB68     		ldr	r3, [r7, #8]
 2418 03b0 0133     		adds	r3, r3, #1
 2419 03b2 BB60     		str	r3, [r7, #8]
 2420              	.L150:
 569:.\Protocolo.c **** 						if(x==2){
 2421              		.loc 1 569 0 is_stmt 0 discriminator 1
 2422 03b4 BB68     		ldr	r3, [r7, #8]
 2423 03b6 072B     		cmp	r3, #7
 2424 03b8 C6D9     		bls	.L153
 578:.\Protocolo.c **** 						}
 579:.\Protocolo.c **** 					}
ARM GAS  C:\Users\PROYEC~1\AppData\Local\Temp\ccuck2D9.s 			page 55


 580:.\Protocolo.c **** 					bufferLCD1.totalMoney2[0]=8;
 2425              		.loc 1 580 0 is_stmt 1
 2426 03ba 6A4B     		ldr	r3, .L349+4
 2427 03bc 0822     		movs	r2, #8
 2428 03be 83F83520 		strb	r2, [r3, #53]
 581:.\Protocolo.c **** 					j=8;
 2429              		.loc 1 581 0
 2430 03c2 0823     		movs	r3, #8
 2431 03c4 FB60     		str	r3, [r7, #12]
 582:.\Protocolo.c **** 					for(x=0;x<=7;x++){
 2432              		.loc 1 582 0
 2433 03c6 0023     		movs	r3, #0
 2434 03c8 BB60     		str	r3, [r7, #8]
 2435 03ca 15E0     		b	.L154
 2436              	.L155:
 583:.\Protocolo.c **** 						bufferLCD1.totalMoney2[j]=(Pump_AL_rxBuffer[43+x]&0x0F)+0x30;
 2437              		.loc 1 583 0 discriminator 3
 2438 03cc BB68     		ldr	r3, [r7, #8]
 2439 03ce 2B33     		adds	r3, r3, #43
 2440 03d0 634A     		ldr	r2, .L349
 2441 03d2 D35C     		ldrb	r3, [r2, r3]
 2442 03d4 DBB2     		uxtb	r3, r3
 2443 03d6 03F00F03 		and	r3, r3, #15
 2444 03da DBB2     		uxtb	r3, r3
 2445 03dc 3033     		adds	r3, r3, #48
 2446 03de D9B2     		uxtb	r1, r3
 2447 03e0 604A     		ldr	r2, .L349+4
 2448 03e2 FB68     		ldr	r3, [r7, #12]
 2449 03e4 1344     		add	r3, r3, r2
 2450 03e6 3033     		adds	r3, r3, #48
 2451 03e8 0A46     		mov	r2, r1
 2452 03ea 5A71     		strb	r2, [r3, #5]
 584:.\Protocolo.c **** 						j--;
 2453              		.loc 1 584 0 discriminator 3
 2454 03ec FB68     		ldr	r3, [r7, #12]
 2455 03ee 013B     		subs	r3, r3, #1
 2456 03f0 FB60     		str	r3, [r7, #12]
 582:.\Protocolo.c **** 					for(x=0;x<=7;x++){
 2457              		.loc 1 582 0 discriminator 3
 2458 03f2 BB68     		ldr	r3, [r7, #8]
 2459 03f4 0133     		adds	r3, r3, #1
 2460 03f6 BB60     		str	r3, [r7, #8]
 2461              	.L154:
 582:.\Protocolo.c **** 					for(x=0;x<=7;x++){
 2462              		.loc 1 582 0 is_stmt 0 discriminator 1
 2463 03f8 BB68     		ldr	r3, [r7, #8]
 2464 03fa 072B     		cmp	r3, #7
 2465 03fc E6D9     		bls	.L155
 585:.\Protocolo.c **** 					}
 586:.\Protocolo.c ****                     bufferLCD1.ppu2[0]=4;
 2466              		.loc 1 586 0 is_stmt 1
 2467 03fe 594B     		ldr	r3, .L349+4
 2468 0400 0422     		movs	r2, #4
 2469 0402 83F8A320 		strb	r2, [r3, #163]
 587:.\Protocolo.c ****                     j=4;
 2470              		.loc 1 587 0
 2471 0406 0423     		movs	r3, #4
ARM GAS  C:\Users\PROYEC~1\AppData\Local\Temp\ccuck2D9.s 			page 56


 2472 0408 FB60     		str	r3, [r7, #12]
 588:.\Protocolo.c ****                     for(x=0;x<=3;x++){
 2473              		.loc 1 588 0
 2474 040a 0023     		movs	r3, #0
 2475 040c BB60     		str	r3, [r7, #8]
 2476 040e 15E0     		b	.L156
 2477              	.L157:
 589:.\Protocolo.c ****                         bufferLCD1.ppu2[j]=(Pump_AL_rxBuffer[x+52]&0x0F)+0x30;
 2478              		.loc 1 589 0 discriminator 3
 2479 0410 BB68     		ldr	r3, [r7, #8]
 2480 0412 3433     		adds	r3, r3, #52
 2481 0414 524A     		ldr	r2, .L349
 2482 0416 D35C     		ldrb	r3, [r2, r3]
 2483 0418 DBB2     		uxtb	r3, r3
 2484 041a 03F00F03 		and	r3, r3, #15
 2485 041e DBB2     		uxtb	r3, r3
 2486 0420 3033     		adds	r3, r3, #48
 2487 0422 D9B2     		uxtb	r1, r3
 2488 0424 4F4A     		ldr	r2, .L349+4
 2489 0426 FB68     		ldr	r3, [r7, #12]
 2490 0428 1344     		add	r3, r3, r2
 2491 042a A033     		adds	r3, r3, #160
 2492 042c 0A46     		mov	r2, r1
 2493 042e DA70     		strb	r2, [r3, #3]
 590:.\Protocolo.c ****                         j--;
 2494              		.loc 1 590 0 discriminator 3
 2495 0430 FB68     		ldr	r3, [r7, #12]
 2496 0432 013B     		subs	r3, r3, #1
 2497 0434 FB60     		str	r3, [r7, #12]
 588:.\Protocolo.c ****                     for(x=0;x<=3;x++){
 2498              		.loc 1 588 0 discriminator 3
 2499 0436 BB68     		ldr	r3, [r7, #8]
 2500 0438 0133     		adds	r3, r3, #1
 2501 043a BB60     		str	r3, [r7, #8]
 2502              	.L156:
 588:.\Protocolo.c ****                     for(x=0;x<=3;x++){
 2503              		.loc 1 588 0 is_stmt 0 discriminator 1
 2504 043c BB68     		ldr	r3, [r7, #8]
 2505 043e 032B     		cmp	r3, #3
 2506 0440 E6D9     		bls	.L157
 591:.\Protocolo.c ****                     }
 592:.\Protocolo.c **** 					Pump_AL_ClearRxBuffer();
 2507              		.loc 1 592 0 is_stmt 1
 2508 0442 FFF7FEFF 		bl	Pump_AL_ClearRxBuffer
 593:.\Protocolo.c **** 					return 2;
 2509              		.loc 1 593 0
 2510 0446 0223     		movs	r3, #2
 2511 0448 01F0BEBC 		b	.L140
 2512              	.L141:
 594:.\Protocolo.c **** 				}			
 595:.\Protocolo.c **** 				else{
 596:.\Protocolo.c **** 					return 0;
 2513              		.loc 1 596 0
 2514 044c 0023     		movs	r3, #0
 2515 044e 01F0BBBC 		b	.L140
 2516              	.L128:
 597:.\Protocolo.c **** 				}
ARM GAS  C:\Users\PROYEC~1\AppData\Local\Temp\ccuck2D9.s 			page 57


 598:.\Protocolo.c **** 			break;
 599:.\Protocolo.c **** 				
 600:.\Protocolo.c **** 			case 94://5 digitos tres mangueras
 601:.\Protocolo.c **** 				if((Pump_AL_rxBuffer[0]==0xFF)&&(Pump_AL_rxBuffer[1]==0xF6)&&(Pump_AL_rxBuffer[93]==0xF0)&&(Pum
 2517              		.loc 1 601 0
 2518 0452 434B     		ldr	r3, .L349
 2519 0454 1B78     		ldrb	r3, [r3]
 2520 0456 DBB2     		uxtb	r3, r3
 2521 0458 FF2B     		cmp	r3, #255
 2522 045a 40F0AF81 		bne	.L158
 2523              		.loc 1 601 0 is_stmt 0 discriminator 1
 2524 045e 404B     		ldr	r3, .L349
 2525 0460 5B78     		ldrb	r3, [r3, #1]
 2526 0462 DBB2     		uxtb	r3, r3
 2527 0464 F62B     		cmp	r3, #246
 2528 0466 40F0A981 		bne	.L158
 2529              		.loc 1 601 0 discriminator 2
 2530 046a 3D4B     		ldr	r3, .L349
 2531 046c 93F85D30 		ldrb	r3, [r3, #93]
 2532 0470 DBB2     		uxtb	r3, r3
 2533 0472 F02B     		cmp	r3, #240
 2534 0474 40F0A281 		bne	.L158
 2535              		.loc 1 601 0 discriminator 3
 2536 0478 394B     		ldr	r3, .L349
 2537 047a DB78     		ldrb	r3, [r3, #3]
 2538 047c DBB2     		uxtb	r3, r3
 2539 047e F92B     		cmp	r3, #249
 2540 0480 40F09C81 		bne	.L158
 602:.\Protocolo.c **** 					bufferLCD1.totalVolume1[0]=9;
 2541              		.loc 1 602 0 is_stmt 1
 2542 0484 374B     		ldr	r3, .L349+4
 2543 0486 0922     		movs	r2, #9
 2544 0488 83F85D20 		strb	r2, [r3, #93]
 603:.\Protocolo.c **** 					j=9;
 2545              		.loc 1 603 0
 2546 048c 0923     		movs	r3, #9
 2547 048e FB60     		str	r3, [r7, #12]
 604:.\Protocolo.c **** 					for(x=0;x<=7;x++){
 2548              		.loc 1 604 0
 2549 0490 0023     		movs	r3, #0
 2550 0492 BB60     		str	r3, [r7, #8]
 2551 0494 35E0     		b	.L159
 2552              	.L162:
 605:.\Protocolo.c **** 						if(x==2){
 2553              		.loc 1 605 0
 2554 0496 BB68     		ldr	r3, [r7, #8]
 2555 0498 022B     		cmp	r3, #2
 2556 049a 1CD1     		bne	.L160
 606:.\Protocolo.c **** 							bufferLCD1.totalVolume1[j]=',';
 2557              		.loc 1 606 0
 2558 049c 314A     		ldr	r2, .L349+4
 2559 049e FB68     		ldr	r3, [r7, #12]
 2560 04a0 1344     		add	r3, r3, r2
 2561 04a2 5833     		adds	r3, r3, #88
 2562 04a4 2C22     		movs	r2, #44
 2563 04a6 5A71     		strb	r2, [r3, #5]
 607:.\Protocolo.c **** 							j--;
ARM GAS  C:\Users\PROYEC~1\AppData\Local\Temp\ccuck2D9.s 			page 58


 2564              		.loc 1 607 0
 2565 04a8 FB68     		ldr	r3, [r7, #12]
 2566 04aa 013B     		subs	r3, r3, #1
 2567 04ac FB60     		str	r3, [r7, #12]
 608:.\Protocolo.c **** 							bufferLCD1.totalVolume1[j]=(Pump_AL_rxBuffer[4+x]&0x0F)+0x30;
 2568              		.loc 1 608 0
 2569 04ae BB68     		ldr	r3, [r7, #8]
 2570 04b0 0433     		adds	r3, r3, #4
 2571 04b2 2B4A     		ldr	r2, .L349
 2572 04b4 D35C     		ldrb	r3, [r2, r3]
 2573 04b6 DBB2     		uxtb	r3, r3
 2574 04b8 03F00F03 		and	r3, r3, #15
 2575 04bc DBB2     		uxtb	r3, r3
 2576 04be 3033     		adds	r3, r3, #48
 2577 04c0 D9B2     		uxtb	r1, r3
 2578 04c2 284A     		ldr	r2, .L349+4
 2579 04c4 FB68     		ldr	r3, [r7, #12]
 2580 04c6 1344     		add	r3, r3, r2
 2581 04c8 5833     		adds	r3, r3, #88
 2582 04ca 0A46     		mov	r2, r1
 2583 04cc 5A71     		strb	r2, [r3, #5]
 609:.\Protocolo.c **** 							j--;
 2584              		.loc 1 609 0
 2585 04ce FB68     		ldr	r3, [r7, #12]
 2586 04d0 013B     		subs	r3, r3, #1
 2587 04d2 FB60     		str	r3, [r7, #12]
 2588 04d4 12E0     		b	.L161
 2589              	.L160:
 610:.\Protocolo.c **** 						}else{
 611:.\Protocolo.c **** 							bufferLCD1.totalVolume1[j]=(Pump_AL_rxBuffer[4+x]&0x0F)+0x30;
 2590              		.loc 1 611 0
 2591 04d6 BB68     		ldr	r3, [r7, #8]
 2592 04d8 0433     		adds	r3, r3, #4
 2593 04da 214A     		ldr	r2, .L349
 2594 04dc D35C     		ldrb	r3, [r2, r3]
 2595 04de DBB2     		uxtb	r3, r3
 2596 04e0 03F00F03 		and	r3, r3, #15
 2597 04e4 DBB2     		uxtb	r3, r3
 2598 04e6 3033     		adds	r3, r3, #48
 2599 04e8 D9B2     		uxtb	r1, r3
 2600 04ea 1E4A     		ldr	r2, .L349+4
 2601 04ec FB68     		ldr	r3, [r7, #12]
 2602 04ee 1344     		add	r3, r3, r2
 2603 04f0 5833     		adds	r3, r3, #88
 2604 04f2 0A46     		mov	r2, r1
 2605 04f4 5A71     		strb	r2, [r3, #5]
 612:.\Protocolo.c **** 							j--;
 2606              		.loc 1 612 0
 2607 04f6 FB68     		ldr	r3, [r7, #12]
 2608 04f8 013B     		subs	r3, r3, #1
 2609 04fa FB60     		str	r3, [r7, #12]
 2610              	.L161:
 604:.\Protocolo.c **** 						if(x==2){
 2611              		.loc 1 604 0 discriminator 2
 2612 04fc BB68     		ldr	r3, [r7, #8]
 2613 04fe 0133     		adds	r3, r3, #1
 2614 0500 BB60     		str	r3, [r7, #8]
ARM GAS  C:\Users\PROYEC~1\AppData\Local\Temp\ccuck2D9.s 			page 59


 2615              	.L159:
 604:.\Protocolo.c **** 						if(x==2){
 2616              		.loc 1 604 0 is_stmt 0 discriminator 1
 2617 0502 BB68     		ldr	r3, [r7, #8]
 2618 0504 072B     		cmp	r3, #7
 2619 0506 C6D9     		bls	.L162
 613:.\Protocolo.c **** 						}
 614:.\Protocolo.c **** 					}
 615:.\Protocolo.c **** 					bufferLCD1.totalMoney1[0]=8;
 2620              		.loc 1 615 0 is_stmt 1
 2621 0508 164B     		ldr	r3, .L349+4
 2622 050a 0822     		movs	r2, #8
 2623 050c 83F82120 		strb	r2, [r3, #33]
 616:.\Protocolo.c **** 					j=8;
 2624              		.loc 1 616 0
 2625 0510 0823     		movs	r3, #8
 2626 0512 FB60     		str	r3, [r7, #12]
 617:.\Protocolo.c **** 					for(x=0;x<=7;x++){
 2627              		.loc 1 617 0
 2628 0514 0023     		movs	r3, #0
 2629 0516 BB60     		str	r3, [r7, #8]
 2630 0518 15E0     		b	.L163
 2631              	.L164:
 618:.\Protocolo.c **** 						bufferLCD1.totalMoney1[j]=(Pump_AL_rxBuffer[13+x]&0x0F)+0x30;
 2632              		.loc 1 618 0 discriminator 3
 2633 051a BB68     		ldr	r3, [r7, #8]
 2634 051c 0D33     		adds	r3, r3, #13
 2635 051e 104A     		ldr	r2, .L349
 2636 0520 D35C     		ldrb	r3, [r2, r3]
 2637 0522 DBB2     		uxtb	r3, r3
 2638 0524 03F00F03 		and	r3, r3, #15
 2639 0528 DBB2     		uxtb	r3, r3
 2640 052a 3033     		adds	r3, r3, #48
 2641 052c D9B2     		uxtb	r1, r3
 2642 052e 0D4A     		ldr	r2, .L349+4
 2643 0530 FB68     		ldr	r3, [r7, #12]
 2644 0532 1344     		add	r3, r3, r2
 2645 0534 2033     		adds	r3, r3, #32
 2646 0536 0A46     		mov	r2, r1
 2647 0538 5A70     		strb	r2, [r3, #1]
 619:.\Protocolo.c **** 						j--;
 2648              		.loc 1 619 0 discriminator 3
 2649 053a FB68     		ldr	r3, [r7, #12]
 2650 053c 013B     		subs	r3, r3, #1
 2651 053e FB60     		str	r3, [r7, #12]
 617:.\Protocolo.c **** 					for(x=0;x<=7;x++){
 2652              		.loc 1 617 0 discriminator 3
 2653 0540 BB68     		ldr	r3, [r7, #8]
 2654 0542 0133     		adds	r3, r3, #1
 2655 0544 BB60     		str	r3, [r7, #8]
 2656              	.L163:
 617:.\Protocolo.c **** 					for(x=0;x<=7;x++){
 2657              		.loc 1 617 0 is_stmt 0 discriminator 1
 2658 0546 BB68     		ldr	r3, [r7, #8]
 2659 0548 072B     		cmp	r3, #7
 2660 054a E6D9     		bls	.L164
 620:.\Protocolo.c **** 					}
ARM GAS  C:\Users\PROYEC~1\AppData\Local\Temp\ccuck2D9.s 			page 60


 621:.\Protocolo.c ****                     bufferLCD1.ppu1[0]=4;
 2661              		.loc 1 621 0 is_stmt 1
 2662 054c 054B     		ldr	r3, .L349+4
 2663 054e 0422     		movs	r2, #4
 2664 0550 83F89920 		strb	r2, [r3, #153]
 622:.\Protocolo.c ****                     j=4;
 2665              		.loc 1 622 0
 2666 0554 0423     		movs	r3, #4
 2667 0556 FB60     		str	r3, [r7, #12]
 623:.\Protocolo.c ****                     for(x=0;x<=3;x++){
 2668              		.loc 1 623 0
 2669 0558 0023     		movs	r3, #0
 2670 055a BB60     		str	r3, [r7, #8]
 2671 055c 1AE0     		b	.L165
 2672              	.L350:
 2673 055e 00BF     		.align	2
 2674              	.L349:
 2675 0560 00000000 		.word	Pump_AL_rxBuffer
 2676 0564 00000000 		.word	bufferLCD1
 2677              	.L166:
 624:.\Protocolo.c ****                         bufferLCD1.ppu1[j]=(Pump_AL_rxBuffer[x+22]&0x0F)+0x30;
 2678              		.loc 1 624 0 discriminator 3
 2679 0568 BB68     		ldr	r3, [r7, #8]
 2680 056a 1633     		adds	r3, r3, #22
 2681 056c A64A     		ldr	r2, .L351
 2682 056e D35C     		ldrb	r3, [r2, r3]
 2683 0570 DBB2     		uxtb	r3, r3
 2684 0572 03F00F03 		and	r3, r3, #15
 2685 0576 DBB2     		uxtb	r3, r3
 2686 0578 3033     		adds	r3, r3, #48
 2687 057a D9B2     		uxtb	r1, r3
 2688 057c A34A     		ldr	r2, .L351+4
 2689 057e FB68     		ldr	r3, [r7, #12]
 2690 0580 1344     		add	r3, r3, r2
 2691 0582 9833     		adds	r3, r3, #152
 2692 0584 0A46     		mov	r2, r1
 2693 0586 5A70     		strb	r2, [r3, #1]
 625:.\Protocolo.c ****                         j--;
 2694              		.loc 1 625 0 discriminator 3
 2695 0588 FB68     		ldr	r3, [r7, #12]
 2696 058a 013B     		subs	r3, r3, #1
 2697 058c FB60     		str	r3, [r7, #12]
 623:.\Protocolo.c ****                     for(x=0;x<=3;x++){
 2698              		.loc 1 623 0 discriminator 3
 2699 058e BB68     		ldr	r3, [r7, #8]
 2700 0590 0133     		adds	r3, r3, #1
 2701 0592 BB60     		str	r3, [r7, #8]
 2702              	.L165:
 623:.\Protocolo.c ****                     for(x=0;x<=3;x++){
 2703              		.loc 1 623 0 is_stmt 0 discriminator 1
 2704 0594 BB68     		ldr	r3, [r7, #8]
 2705 0596 032B     		cmp	r3, #3
 2706 0598 E6D9     		bls	.L166
 626:.\Protocolo.c ****                     }
 627:.\Protocolo.c **** 					bufferLCD1.totalVolume2[0]=9;
 2707              		.loc 1 627 0 is_stmt 1
 2708 059a 9C4B     		ldr	r3, .L351+4
ARM GAS  C:\Users\PROYEC~1\AppData\Local\Temp\ccuck2D9.s 			page 61


 2709 059c 0922     		movs	r2, #9
 2710 059e 83F87120 		strb	r2, [r3, #113]
 628:.\Protocolo.c **** 					j=9;
 2711              		.loc 1 628 0
 2712 05a2 0923     		movs	r3, #9
 2713 05a4 FB60     		str	r3, [r7, #12]
 629:.\Protocolo.c **** 					for(x=0;x<=7;x++){
 2714              		.loc 1 629 0
 2715 05a6 0023     		movs	r3, #0
 2716 05a8 BB60     		str	r3, [r7, #8]
 2717 05aa 35E0     		b	.L167
 2718              	.L170:
 630:.\Protocolo.c **** 						if(x==2){
 2719              		.loc 1 630 0
 2720 05ac BB68     		ldr	r3, [r7, #8]
 2721 05ae 022B     		cmp	r3, #2
 2722 05b0 1CD1     		bne	.L168
 631:.\Protocolo.c **** 							bufferLCD1.totalVolume2[j]=',';
 2723              		.loc 1 631 0
 2724 05b2 964A     		ldr	r2, .L351+4
 2725 05b4 FB68     		ldr	r3, [r7, #12]
 2726 05b6 1344     		add	r3, r3, r2
 2727 05b8 7033     		adds	r3, r3, #112
 2728 05ba 2C22     		movs	r2, #44
 2729 05bc 5A70     		strb	r2, [r3, #1]
 632:.\Protocolo.c **** 							j--;
 2730              		.loc 1 632 0
 2731 05be FB68     		ldr	r3, [r7, #12]
 2732 05c0 013B     		subs	r3, r3, #1
 2733 05c2 FB60     		str	r3, [r7, #12]
 633:.\Protocolo.c **** 							bufferLCD1.totalVolume2[j]=(Pump_AL_rxBuffer[34+x]&0x0F)+0x30;
 2734              		.loc 1 633 0
 2735 05c4 BB68     		ldr	r3, [r7, #8]
 2736 05c6 2233     		adds	r3, r3, #34
 2737 05c8 8F4A     		ldr	r2, .L351
 2738 05ca D35C     		ldrb	r3, [r2, r3]
 2739 05cc DBB2     		uxtb	r3, r3
 2740 05ce 03F00F03 		and	r3, r3, #15
 2741 05d2 DBB2     		uxtb	r3, r3
 2742 05d4 3033     		adds	r3, r3, #48
 2743 05d6 D9B2     		uxtb	r1, r3
 2744 05d8 8C4A     		ldr	r2, .L351+4
 2745 05da FB68     		ldr	r3, [r7, #12]
 2746 05dc 1344     		add	r3, r3, r2
 2747 05de 7033     		adds	r3, r3, #112
 2748 05e0 0A46     		mov	r2, r1
 2749 05e2 5A70     		strb	r2, [r3, #1]
 634:.\Protocolo.c **** 							j--;
 2750              		.loc 1 634 0
 2751 05e4 FB68     		ldr	r3, [r7, #12]
 2752 05e6 013B     		subs	r3, r3, #1
 2753 05e8 FB60     		str	r3, [r7, #12]
 2754 05ea 12E0     		b	.L169
 2755              	.L168:
 635:.\Protocolo.c **** 						}else{
 636:.\Protocolo.c **** 							bufferLCD1.totalVolume2[j]=(Pump_AL_rxBuffer[34+x]&0x0F)+0x30;
 2756              		.loc 1 636 0
ARM GAS  C:\Users\PROYEC~1\AppData\Local\Temp\ccuck2D9.s 			page 62


 2757 05ec BB68     		ldr	r3, [r7, #8]
 2758 05ee 2233     		adds	r3, r3, #34
 2759 05f0 854A     		ldr	r2, .L351
 2760 05f2 D35C     		ldrb	r3, [r2, r3]
 2761 05f4 DBB2     		uxtb	r3, r3
 2762 05f6 03F00F03 		and	r3, r3, #15
 2763 05fa DBB2     		uxtb	r3, r3
 2764 05fc 3033     		adds	r3, r3, #48
 2765 05fe D9B2     		uxtb	r1, r3
 2766 0600 824A     		ldr	r2, .L351+4
 2767 0602 FB68     		ldr	r3, [r7, #12]
 2768 0604 1344     		add	r3, r3, r2
 2769 0606 7033     		adds	r3, r3, #112
 2770 0608 0A46     		mov	r2, r1
 2771 060a 5A70     		strb	r2, [r3, #1]
 637:.\Protocolo.c **** 							j--;
 2772              		.loc 1 637 0
 2773 060c FB68     		ldr	r3, [r7, #12]
 2774 060e 013B     		subs	r3, r3, #1
 2775 0610 FB60     		str	r3, [r7, #12]
 2776              	.L169:
 629:.\Protocolo.c **** 						if(x==2){
 2777              		.loc 1 629 0 discriminator 2
 2778 0612 BB68     		ldr	r3, [r7, #8]
 2779 0614 0133     		adds	r3, r3, #1
 2780 0616 BB60     		str	r3, [r7, #8]
 2781              	.L167:
 629:.\Protocolo.c **** 						if(x==2){
 2782              		.loc 1 629 0 is_stmt 0 discriminator 1
 2783 0618 BB68     		ldr	r3, [r7, #8]
 2784 061a 072B     		cmp	r3, #7
 2785 061c C6D9     		bls	.L170
 638:.\Protocolo.c **** 						}
 639:.\Protocolo.c **** 					}
 640:.\Protocolo.c **** 					bufferLCD1.totalMoney2[0]=8;
 2786              		.loc 1 640 0 is_stmt 1
 2787 061e 7B4B     		ldr	r3, .L351+4
 2788 0620 0822     		movs	r2, #8
 2789 0622 83F83520 		strb	r2, [r3, #53]
 641:.\Protocolo.c **** 					j=8;
 2790              		.loc 1 641 0
 2791 0626 0823     		movs	r3, #8
 2792 0628 FB60     		str	r3, [r7, #12]
 642:.\Protocolo.c **** 					for(x=0;x<=7;x++){
 2793              		.loc 1 642 0
 2794 062a 0023     		movs	r3, #0
 2795 062c BB60     		str	r3, [r7, #8]
 2796 062e 15E0     		b	.L171
 2797              	.L172:
 643:.\Protocolo.c **** 						bufferLCD1.totalMoney2[j]=(Pump_AL_rxBuffer[43+x]&0x0F)+0x30;
 2798              		.loc 1 643 0 discriminator 3
 2799 0630 BB68     		ldr	r3, [r7, #8]
 2800 0632 2B33     		adds	r3, r3, #43
 2801 0634 744A     		ldr	r2, .L351
 2802 0636 D35C     		ldrb	r3, [r2, r3]
 2803 0638 DBB2     		uxtb	r3, r3
 2804 063a 03F00F03 		and	r3, r3, #15
ARM GAS  C:\Users\PROYEC~1\AppData\Local\Temp\ccuck2D9.s 			page 63


 2805 063e DBB2     		uxtb	r3, r3
 2806 0640 3033     		adds	r3, r3, #48
 2807 0642 D9B2     		uxtb	r1, r3
 2808 0644 714A     		ldr	r2, .L351+4
 2809 0646 FB68     		ldr	r3, [r7, #12]
 2810 0648 1344     		add	r3, r3, r2
 2811 064a 3033     		adds	r3, r3, #48
 2812 064c 0A46     		mov	r2, r1
 2813 064e 5A71     		strb	r2, [r3, #5]
 644:.\Protocolo.c **** 						j--;
 2814              		.loc 1 644 0 discriminator 3
 2815 0650 FB68     		ldr	r3, [r7, #12]
 2816 0652 013B     		subs	r3, r3, #1
 2817 0654 FB60     		str	r3, [r7, #12]
 642:.\Protocolo.c **** 					for(x=0;x<=7;x++){
 2818              		.loc 1 642 0 discriminator 3
 2819 0656 BB68     		ldr	r3, [r7, #8]
 2820 0658 0133     		adds	r3, r3, #1
 2821 065a BB60     		str	r3, [r7, #8]
 2822              	.L171:
 642:.\Protocolo.c **** 					for(x=0;x<=7;x++){
 2823              		.loc 1 642 0 is_stmt 0 discriminator 1
 2824 065c BB68     		ldr	r3, [r7, #8]
 2825 065e 072B     		cmp	r3, #7
 2826 0660 E6D9     		bls	.L172
 645:.\Protocolo.c **** 					}
 646:.\Protocolo.c ****                     bufferLCD1.ppu2[0]=4;
 2827              		.loc 1 646 0 is_stmt 1
 2828 0662 6A4B     		ldr	r3, .L351+4
 2829 0664 0422     		movs	r2, #4
 2830 0666 83F8A320 		strb	r2, [r3, #163]
 647:.\Protocolo.c ****                     j=4;
 2831              		.loc 1 647 0
 2832 066a 0423     		movs	r3, #4
 2833 066c FB60     		str	r3, [r7, #12]
 648:.\Protocolo.c ****                     for(x=0;x<=3;x++){
 2834              		.loc 1 648 0
 2835 066e 0023     		movs	r3, #0
 2836 0670 BB60     		str	r3, [r7, #8]
 2837 0672 15E0     		b	.L173
 2838              	.L174:
 649:.\Protocolo.c ****                         bufferLCD1.ppu2[j]=(Pump_AL_rxBuffer[x+52]&0x0F)+0x30;
 2839              		.loc 1 649 0 discriminator 3
 2840 0674 BB68     		ldr	r3, [r7, #8]
 2841 0676 3433     		adds	r3, r3, #52
 2842 0678 634A     		ldr	r2, .L351
 2843 067a D35C     		ldrb	r3, [r2, r3]
 2844 067c DBB2     		uxtb	r3, r3
 2845 067e 03F00F03 		and	r3, r3, #15
 2846 0682 DBB2     		uxtb	r3, r3
 2847 0684 3033     		adds	r3, r3, #48
 2848 0686 D9B2     		uxtb	r1, r3
 2849 0688 604A     		ldr	r2, .L351+4
 2850 068a FB68     		ldr	r3, [r7, #12]
 2851 068c 1344     		add	r3, r3, r2
 2852 068e A033     		adds	r3, r3, #160
 2853 0690 0A46     		mov	r2, r1
ARM GAS  C:\Users\PROYEC~1\AppData\Local\Temp\ccuck2D9.s 			page 64


 2854 0692 DA70     		strb	r2, [r3, #3]
 650:.\Protocolo.c ****                         j--;
 2855              		.loc 1 650 0 discriminator 3
 2856 0694 FB68     		ldr	r3, [r7, #12]
 2857 0696 013B     		subs	r3, r3, #1
 2858 0698 FB60     		str	r3, [r7, #12]
 648:.\Protocolo.c ****                     for(x=0;x<=3;x++){
 2859              		.loc 1 648 0 discriminator 3
 2860 069a BB68     		ldr	r3, [r7, #8]
 2861 069c 0133     		adds	r3, r3, #1
 2862 069e BB60     		str	r3, [r7, #8]
 2863              	.L173:
 648:.\Protocolo.c ****                     for(x=0;x<=3;x++){
 2864              		.loc 1 648 0 is_stmt 0 discriminator 1
 2865 06a0 BB68     		ldr	r3, [r7, #8]
 2866 06a2 032B     		cmp	r3, #3
 2867 06a4 E6D9     		bls	.L174
 651:.\Protocolo.c ****                     }
 652:.\Protocolo.c **** 					bufferLCD1.totalVolume3[0]=9;
 2868              		.loc 1 652 0 is_stmt 1
 2869 06a6 594B     		ldr	r3, .L351+4
 2870 06a8 0922     		movs	r2, #9
 2871 06aa 83F88520 		strb	r2, [r3, #133]
 653:.\Protocolo.c **** 					j=9;
 2872              		.loc 1 653 0
 2873 06ae 0923     		movs	r3, #9
 2874 06b0 FB60     		str	r3, [r7, #12]
 654:.\Protocolo.c **** 					for(x=0;x<=7;x++){
 2875              		.loc 1 654 0
 2876 06b2 0023     		movs	r3, #0
 2877 06b4 BB60     		str	r3, [r7, #8]
 2878 06b6 35E0     		b	.L175
 2879              	.L178:
 655:.\Protocolo.c **** 						if(x==2){
 2880              		.loc 1 655 0
 2881 06b8 BB68     		ldr	r3, [r7, #8]
 2882 06ba 022B     		cmp	r3, #2
 2883 06bc 1CD1     		bne	.L176
 656:.\Protocolo.c **** 							bufferLCD1.totalVolume3[j]=',';
 2884              		.loc 1 656 0
 2885 06be 534A     		ldr	r2, .L351+4
 2886 06c0 FB68     		ldr	r3, [r7, #12]
 2887 06c2 1344     		add	r3, r3, r2
 2888 06c4 8033     		adds	r3, r3, #128
 2889 06c6 2C22     		movs	r2, #44
 2890 06c8 5A71     		strb	r2, [r3, #5]
 657:.\Protocolo.c **** 							j--;
 2891              		.loc 1 657 0
 2892 06ca FB68     		ldr	r3, [r7, #12]
 2893 06cc 013B     		subs	r3, r3, #1
 2894 06ce FB60     		str	r3, [r7, #12]
 658:.\Protocolo.c **** 							bufferLCD1.totalVolume3[j]=(Pump_AL_rxBuffer[64+x]&0x0F)+0x30;
 2895              		.loc 1 658 0
 2896 06d0 BB68     		ldr	r3, [r7, #8]
 2897 06d2 4033     		adds	r3, r3, #64
 2898 06d4 4C4A     		ldr	r2, .L351
 2899 06d6 D35C     		ldrb	r3, [r2, r3]
ARM GAS  C:\Users\PROYEC~1\AppData\Local\Temp\ccuck2D9.s 			page 65


 2900 06d8 DBB2     		uxtb	r3, r3
 2901 06da 03F00F03 		and	r3, r3, #15
 2902 06de DBB2     		uxtb	r3, r3
 2903 06e0 3033     		adds	r3, r3, #48
 2904 06e2 D9B2     		uxtb	r1, r3
 2905 06e4 494A     		ldr	r2, .L351+4
 2906 06e6 FB68     		ldr	r3, [r7, #12]
 2907 06e8 1344     		add	r3, r3, r2
 2908 06ea 8033     		adds	r3, r3, #128
 2909 06ec 0A46     		mov	r2, r1
 2910 06ee 5A71     		strb	r2, [r3, #5]
 659:.\Protocolo.c **** 							j--;
 2911              		.loc 1 659 0
 2912 06f0 FB68     		ldr	r3, [r7, #12]
 2913 06f2 013B     		subs	r3, r3, #1
 2914 06f4 FB60     		str	r3, [r7, #12]
 2915 06f6 12E0     		b	.L177
 2916              	.L176:
 660:.\Protocolo.c **** 						}else{
 661:.\Protocolo.c **** 							bufferLCD1.totalVolume3[j]=(Pump_AL_rxBuffer[64+x]&0x0F)+0x30;
 2917              		.loc 1 661 0
 2918 06f8 BB68     		ldr	r3, [r7, #8]
 2919 06fa 4033     		adds	r3, r3, #64
 2920 06fc 424A     		ldr	r2, .L351
 2921 06fe D35C     		ldrb	r3, [r2, r3]
 2922 0700 DBB2     		uxtb	r3, r3
 2923 0702 03F00F03 		and	r3, r3, #15
 2924 0706 DBB2     		uxtb	r3, r3
 2925 0708 3033     		adds	r3, r3, #48
 2926 070a D9B2     		uxtb	r1, r3
 2927 070c 3F4A     		ldr	r2, .L351+4
 2928 070e FB68     		ldr	r3, [r7, #12]
 2929 0710 1344     		add	r3, r3, r2
 2930 0712 8033     		adds	r3, r3, #128
 2931 0714 0A46     		mov	r2, r1
 2932 0716 5A71     		strb	r2, [r3, #5]
 662:.\Protocolo.c **** 							j--;
 2933              		.loc 1 662 0
 2934 0718 FB68     		ldr	r3, [r7, #12]
 2935 071a 013B     		subs	r3, r3, #1
 2936 071c FB60     		str	r3, [r7, #12]
 2937              	.L177:
 654:.\Protocolo.c **** 						if(x==2){
 2938              		.loc 1 654 0 discriminator 2
 2939 071e BB68     		ldr	r3, [r7, #8]
 2940 0720 0133     		adds	r3, r3, #1
 2941 0722 BB60     		str	r3, [r7, #8]
 2942              	.L175:
 654:.\Protocolo.c **** 						if(x==2){
 2943              		.loc 1 654 0 is_stmt 0 discriminator 1
 2944 0724 BB68     		ldr	r3, [r7, #8]
 2945 0726 072B     		cmp	r3, #7
 2946 0728 C6D9     		bls	.L178
 663:.\Protocolo.c **** 						}
 664:.\Protocolo.c **** 					}
 665:.\Protocolo.c **** 					bufferLCD1.totalMoney3[0]=8;
 2947              		.loc 1 665 0 is_stmt 1
ARM GAS  C:\Users\PROYEC~1\AppData\Local\Temp\ccuck2D9.s 			page 66


 2948 072a 384B     		ldr	r3, .L351+4
 2949 072c 0822     		movs	r2, #8
 2950 072e 83F84920 		strb	r2, [r3, #73]
 666:.\Protocolo.c **** 					j=8;
 2951              		.loc 1 666 0
 2952 0732 0823     		movs	r3, #8
 2953 0734 FB60     		str	r3, [r7, #12]
 667:.\Protocolo.c **** 					for(x=0;x<=7;x++){
 2954              		.loc 1 667 0
 2955 0736 0023     		movs	r3, #0
 2956 0738 BB60     		str	r3, [r7, #8]
 2957 073a 15E0     		b	.L179
 2958              	.L180:
 668:.\Protocolo.c **** 						bufferLCD1.totalMoney3[j]=(Pump_AL_rxBuffer[73+x]&0x0F)+0x30;
 2959              		.loc 1 668 0 discriminator 3
 2960 073c BB68     		ldr	r3, [r7, #8]
 2961 073e 4933     		adds	r3, r3, #73
 2962 0740 314A     		ldr	r2, .L351
 2963 0742 D35C     		ldrb	r3, [r2, r3]
 2964 0744 DBB2     		uxtb	r3, r3
 2965 0746 03F00F03 		and	r3, r3, #15
 2966 074a DBB2     		uxtb	r3, r3
 2967 074c 3033     		adds	r3, r3, #48
 2968 074e D9B2     		uxtb	r1, r3
 2969 0750 2E4A     		ldr	r2, .L351+4
 2970 0752 FB68     		ldr	r3, [r7, #12]
 2971 0754 1344     		add	r3, r3, r2
 2972 0756 4833     		adds	r3, r3, #72
 2973 0758 0A46     		mov	r2, r1
 2974 075a 5A70     		strb	r2, [r3, #1]
 669:.\Protocolo.c **** 						j--;
 2975              		.loc 1 669 0 discriminator 3
 2976 075c FB68     		ldr	r3, [r7, #12]
 2977 075e 013B     		subs	r3, r3, #1
 2978 0760 FB60     		str	r3, [r7, #12]
 667:.\Protocolo.c **** 					for(x=0;x<=7;x++){
 2979              		.loc 1 667 0 discriminator 3
 2980 0762 BB68     		ldr	r3, [r7, #8]
 2981 0764 0133     		adds	r3, r3, #1
 2982 0766 BB60     		str	r3, [r7, #8]
 2983              	.L179:
 667:.\Protocolo.c **** 					for(x=0;x<=7;x++){
 2984              		.loc 1 667 0 is_stmt 0 discriminator 1
 2985 0768 BB68     		ldr	r3, [r7, #8]
 2986 076a 072B     		cmp	r3, #7
 2987 076c E6D9     		bls	.L180
 670:.\Protocolo.c **** 					}
 671:.\Protocolo.c ****                     bufferLCD1.ppu3[0]=4;
 2988              		.loc 1 671 0 is_stmt 1
 2989 076e 274B     		ldr	r3, .L351+4
 2990 0770 0422     		movs	r2, #4
 2991 0772 83F8AD20 		strb	r2, [r3, #173]
 672:.\Protocolo.c ****                     j=4;
 2992              		.loc 1 672 0
 2993 0776 0423     		movs	r3, #4
 2994 0778 FB60     		str	r3, [r7, #12]
 673:.\Protocolo.c ****                     for(x=0;x<=3;x++){
ARM GAS  C:\Users\PROYEC~1\AppData\Local\Temp\ccuck2D9.s 			page 67


 2995              		.loc 1 673 0
 2996 077a 0023     		movs	r3, #0
 2997 077c BB60     		str	r3, [r7, #8]
 2998 077e 15E0     		b	.L181
 2999              	.L182:
 674:.\Protocolo.c ****                         bufferLCD1.ppu3[j]=(Pump_AL_rxBuffer[x+82]&0x0F)+0x30;
 3000              		.loc 1 674 0 discriminator 3
 3001 0780 BB68     		ldr	r3, [r7, #8]
 3002 0782 5233     		adds	r3, r3, #82
 3003 0784 204A     		ldr	r2, .L351
 3004 0786 D35C     		ldrb	r3, [r2, r3]
 3005 0788 DBB2     		uxtb	r3, r3
 3006 078a 03F00F03 		and	r3, r3, #15
 3007 078e DBB2     		uxtb	r3, r3
 3008 0790 3033     		adds	r3, r3, #48
 3009 0792 D9B2     		uxtb	r1, r3
 3010 0794 1D4A     		ldr	r2, .L351+4
 3011 0796 FB68     		ldr	r3, [r7, #12]
 3012 0798 1344     		add	r3, r3, r2
 3013 079a A833     		adds	r3, r3, #168
 3014 079c 0A46     		mov	r2, r1
 3015 079e 5A71     		strb	r2, [r3, #5]
 675:.\Protocolo.c ****                         j--;
 3016              		.loc 1 675 0 discriminator 3
 3017 07a0 FB68     		ldr	r3, [r7, #12]
 3018 07a2 013B     		subs	r3, r3, #1
 3019 07a4 FB60     		str	r3, [r7, #12]
 673:.\Protocolo.c ****                     for(x=0;x<=3;x++){
 3020              		.loc 1 673 0 discriminator 3
 3021 07a6 BB68     		ldr	r3, [r7, #8]
 3022 07a8 0133     		adds	r3, r3, #1
 3023 07aa BB60     		str	r3, [r7, #8]
 3024              	.L181:
 673:.\Protocolo.c ****                     for(x=0;x<=3;x++){
 3025              		.loc 1 673 0 is_stmt 0 discriminator 1
 3026 07ac BB68     		ldr	r3, [r7, #8]
 3027 07ae 032B     		cmp	r3, #3
 3028 07b0 E6D9     		bls	.L182
 676:.\Protocolo.c ****                     }
 677:.\Protocolo.c **** 					Pump_AL_ClearRxBuffer();
 3029              		.loc 1 677 0 is_stmt 1
 3030 07b2 FFF7FEFF 		bl	Pump_AL_ClearRxBuffer
 678:.\Protocolo.c **** 					return 3;					
 3031              		.loc 1 678 0
 3032 07b6 0323     		movs	r3, #3
 3033 07b8 01F006BB 		b	.L140
 3034              	.L158:
 679:.\Protocolo.c **** 				}			
 680:.\Protocolo.c **** 				else{
 681:.\Protocolo.c **** 					return 0;
 3035              		.loc 1 681 0
 3036 07bc 0023     		movs	r3, #0
 3037 07be 01F003BB 		b	.L140
 3038              	.L127:
 682:.\Protocolo.c **** 				}			
 683:.\Protocolo.c **** 			break;
 684:.\Protocolo.c **** 				
ARM GAS  C:\Users\PROYEC~1\AppData\Local\Temp\ccuck2D9.s 			page 68


 685:.\Protocolo.c **** 			case 46://7 digitos una manguera
 686:.\Protocolo.c **** 				if((Pump_AL_rxBuffer[0]==0xFF)&&(Pump_AL_rxBuffer[1]==0xF6)&&(Pump_AL_rxBuffer[45]==0xF0)&&(Pum
 3039              		.loc 1 686 0
 3040 07c2 114B     		ldr	r3, .L351
 3041 07c4 1B78     		ldrb	r3, [r3]
 3042 07c6 DBB2     		uxtb	r3, r3
 3043 07c8 FF2B     		cmp	r3, #255
 3044 07ca 40F0A380 		bne	.L183
 3045              		.loc 1 686 0 is_stmt 0 discriminator 1
 3046 07ce 0E4B     		ldr	r3, .L351
 3047 07d0 5B78     		ldrb	r3, [r3, #1]
 3048 07d2 DBB2     		uxtb	r3, r3
 3049 07d4 F62B     		cmp	r3, #246
 3050 07d6 40F09D80 		bne	.L183
 3051              		.loc 1 686 0 discriminator 2
 3052 07da 0B4B     		ldr	r3, .L351
 3053 07dc 93F82D30 		ldrb	r3, [r3, #45]
 3054 07e0 DBB2     		uxtb	r3, r3
 3055 07e2 F02B     		cmp	r3, #240
 3056 07e4 40F09680 		bne	.L183
 3057              		.loc 1 686 0 discriminator 3
 3058 07e8 074B     		ldr	r3, .L351
 3059 07ea DB78     		ldrb	r3, [r3, #3]
 3060 07ec DBB2     		uxtb	r3, r3
 3061 07ee F92B     		cmp	r3, #249
 3062 07f0 40F09080 		bne	.L183
 687:.\Protocolo.c **** 					bufferLCD1.totalVolume1[0]=13;
 3063              		.loc 1 687 0 is_stmt 1
 3064 07f4 054B     		ldr	r3, .L351+4
 3065 07f6 0D22     		movs	r2, #13
 3066 07f8 83F85D20 		strb	r2, [r3, #93]
 688:.\Protocolo.c **** 					j=13;
 3067              		.loc 1 688 0
 3068 07fc 0D23     		movs	r3, #13
 3069 07fe FB60     		str	r3, [r7, #12]
 689:.\Protocolo.c **** 					for(x=0;x<=11;x++){
 3070              		.loc 1 689 0
 3071 0800 0023     		movs	r3, #0
 3072 0802 BB60     		str	r3, [r7, #8]
 3073 0804 3AE0     		b	.L184
 3074              	.L352:
 3075 0806 00BF     		.align	2
 3076              	.L351:
 3077 0808 00000000 		.word	Pump_AL_rxBuffer
 3078 080c 00000000 		.word	bufferLCD1
 3079              	.L187:
 690:.\Protocolo.c **** 						if(x==2){
 3080              		.loc 1 690 0
 3081 0810 BB68     		ldr	r3, [r7, #8]
 3082 0812 022B     		cmp	r3, #2
 3083 0814 1CD1     		bne	.L185
 691:.\Protocolo.c **** 							bufferLCD1.totalVolume1[j]=',';
 3084              		.loc 1 691 0
 3085 0816 A54A     		ldr	r2, .L353
 3086 0818 FB68     		ldr	r3, [r7, #12]
 3087 081a 1344     		add	r3, r3, r2
 3088 081c 5833     		adds	r3, r3, #88
ARM GAS  C:\Users\PROYEC~1\AppData\Local\Temp\ccuck2D9.s 			page 69


 3089 081e 2C22     		movs	r2, #44
 3090 0820 5A71     		strb	r2, [r3, #5]
 692:.\Protocolo.c **** 							j--;
 3091              		.loc 1 692 0
 3092 0822 FB68     		ldr	r3, [r7, #12]
 3093 0824 013B     		subs	r3, r3, #1
 3094 0826 FB60     		str	r3, [r7, #12]
 693:.\Protocolo.c **** 							bufferLCD1.totalVolume1[j]=(Pump_AL_rxBuffer[x+4]&0x0F)+0x30;
 3095              		.loc 1 693 0
 3096 0828 BB68     		ldr	r3, [r7, #8]
 3097 082a 0433     		adds	r3, r3, #4
 3098 082c A04A     		ldr	r2, .L353+4
 3099 082e D35C     		ldrb	r3, [r2, r3]
 3100 0830 DBB2     		uxtb	r3, r3
 3101 0832 03F00F03 		and	r3, r3, #15
 3102 0836 DBB2     		uxtb	r3, r3
 3103 0838 3033     		adds	r3, r3, #48
 3104 083a D9B2     		uxtb	r1, r3
 3105 083c 9B4A     		ldr	r2, .L353
 3106 083e FB68     		ldr	r3, [r7, #12]
 3107 0840 1344     		add	r3, r3, r2
 3108 0842 5833     		adds	r3, r3, #88
 3109 0844 0A46     		mov	r2, r1
 3110 0846 5A71     		strb	r2, [r3, #5]
 694:.\Protocolo.c **** 							j--;
 3111              		.loc 1 694 0
 3112 0848 FB68     		ldr	r3, [r7, #12]
 3113 084a 013B     		subs	r3, r3, #1
 3114 084c FB60     		str	r3, [r7, #12]
 3115 084e 12E0     		b	.L186
 3116              	.L185:
 695:.\Protocolo.c **** 						}else{
 696:.\Protocolo.c **** 							bufferLCD1.totalVolume1[j]=(Pump_AL_rxBuffer[x+4]&0x0F)+0x30;
 3117              		.loc 1 696 0
 3118 0850 BB68     		ldr	r3, [r7, #8]
 3119 0852 0433     		adds	r3, r3, #4
 3120 0854 964A     		ldr	r2, .L353+4
 3121 0856 D35C     		ldrb	r3, [r2, r3]
 3122 0858 DBB2     		uxtb	r3, r3
 3123 085a 03F00F03 		and	r3, r3, #15
 3124 085e DBB2     		uxtb	r3, r3
 3125 0860 3033     		adds	r3, r3, #48
 3126 0862 D9B2     		uxtb	r1, r3
 3127 0864 914A     		ldr	r2, .L353
 3128 0866 FB68     		ldr	r3, [r7, #12]
 3129 0868 1344     		add	r3, r3, r2
 3130 086a 5833     		adds	r3, r3, #88
 3131 086c 0A46     		mov	r2, r1
 3132 086e 5A71     		strb	r2, [r3, #5]
 697:.\Protocolo.c **** 							j--;
 3133              		.loc 1 697 0
 3134 0870 FB68     		ldr	r3, [r7, #12]
 3135 0872 013B     		subs	r3, r3, #1
 3136 0874 FB60     		str	r3, [r7, #12]
 3137              	.L186:
 689:.\Protocolo.c **** 						if(x==2){
 3138              		.loc 1 689 0 discriminator 2
ARM GAS  C:\Users\PROYEC~1\AppData\Local\Temp\ccuck2D9.s 			page 70


 3139 0876 BB68     		ldr	r3, [r7, #8]
 3140 0878 0133     		adds	r3, r3, #1
 3141 087a BB60     		str	r3, [r7, #8]
 3142              	.L184:
 689:.\Protocolo.c **** 						if(x==2){
 3143              		.loc 1 689 0 is_stmt 0 discriminator 1
 3144 087c BB68     		ldr	r3, [r7, #8]
 3145 087e 0B2B     		cmp	r3, #11
 3146 0880 C6D9     		bls	.L187
 698:.\Protocolo.c **** 						}
 699:.\Protocolo.c **** 					}
 700:.\Protocolo.c **** 					bufferLCD1.totalMoney1[0]=12;
 3147              		.loc 1 700 0 is_stmt 1
 3148 0882 8A4B     		ldr	r3, .L353
 3149 0884 0C22     		movs	r2, #12
 3150 0886 83F82120 		strb	r2, [r3, #33]
 701:.\Protocolo.c **** 					j=12;
 3151              		.loc 1 701 0
 3152 088a 0C23     		movs	r3, #12
 3153 088c FB60     		str	r3, [r7, #12]
 702:.\Protocolo.c **** 					for(x=0;x<=11;x++){
 3154              		.loc 1 702 0
 3155 088e 0023     		movs	r3, #0
 3156 0890 BB60     		str	r3, [r7, #8]
 3157 0892 15E0     		b	.L188
 3158              	.L189:
 703:.\Protocolo.c **** 						bufferLCD1.totalMoney1[j]=(Pump_AL_rxBuffer[x+17]&0x0F)+0x30;
 3159              		.loc 1 703 0 discriminator 3
 3160 0894 BB68     		ldr	r3, [r7, #8]
 3161 0896 1133     		adds	r3, r3, #17
 3162 0898 854A     		ldr	r2, .L353+4
 3163 089a D35C     		ldrb	r3, [r2, r3]
 3164 089c DBB2     		uxtb	r3, r3
 3165 089e 03F00F03 		and	r3, r3, #15
 3166 08a2 DBB2     		uxtb	r3, r3
 3167 08a4 3033     		adds	r3, r3, #48
 3168 08a6 D9B2     		uxtb	r1, r3
 3169 08a8 804A     		ldr	r2, .L353
 3170 08aa FB68     		ldr	r3, [r7, #12]
 3171 08ac 1344     		add	r3, r3, r2
 3172 08ae 2033     		adds	r3, r3, #32
 3173 08b0 0A46     		mov	r2, r1
 3174 08b2 5A70     		strb	r2, [r3, #1]
 704:.\Protocolo.c **** 						j--;
 3175              		.loc 1 704 0 discriminator 3
 3176 08b4 FB68     		ldr	r3, [r7, #12]
 3177 08b6 013B     		subs	r3, r3, #1
 3178 08b8 FB60     		str	r3, [r7, #12]
 702:.\Protocolo.c **** 					for(x=0;x<=11;x++){
 3179              		.loc 1 702 0 discriminator 3
 3180 08ba BB68     		ldr	r3, [r7, #8]
 3181 08bc 0133     		adds	r3, r3, #1
 3182 08be BB60     		str	r3, [r7, #8]
 3183              	.L188:
 702:.\Protocolo.c **** 					for(x=0;x<=11;x++){
 3184              		.loc 1 702 0 is_stmt 0 discriminator 1
 3185 08c0 BB68     		ldr	r3, [r7, #8]
ARM GAS  C:\Users\PROYEC~1\AppData\Local\Temp\ccuck2D9.s 			page 71


 3186 08c2 0B2B     		cmp	r3, #11
 3187 08c4 E6D9     		bls	.L189
 705:.\Protocolo.c **** 					}
 706:.\Protocolo.c ****                     bufferLCD1.ppu1[0]=6;
 3188              		.loc 1 706 0 is_stmt 1
 3189 08c6 794B     		ldr	r3, .L353
 3190 08c8 0622     		movs	r2, #6
 3191 08ca 83F89920 		strb	r2, [r3, #153]
 707:.\Protocolo.c ****                     j=6;
 3192              		.loc 1 707 0
 3193 08ce 0623     		movs	r3, #6
 3194 08d0 FB60     		str	r3, [r7, #12]
 708:.\Protocolo.c ****                     for(x=0;x<=5;x++){
 3195              		.loc 1 708 0
 3196 08d2 0023     		movs	r3, #0
 3197 08d4 BB60     		str	r3, [r7, #8]
 3198 08d6 15E0     		b	.L190
 3199              	.L191:
 709:.\Protocolo.c ****                         bufferLCD1.ppu1[j]=(Pump_AL_rxBuffer[x+30]&0x0F)+0x30;
 3200              		.loc 1 709 0 discriminator 3
 3201 08d8 BB68     		ldr	r3, [r7, #8]
 3202 08da 1E33     		adds	r3, r3, #30
 3203 08dc 744A     		ldr	r2, .L353+4
 3204 08de D35C     		ldrb	r3, [r2, r3]
 3205 08e0 DBB2     		uxtb	r3, r3
 3206 08e2 03F00F03 		and	r3, r3, #15
 3207 08e6 DBB2     		uxtb	r3, r3
 3208 08e8 3033     		adds	r3, r3, #48
 3209 08ea D9B2     		uxtb	r1, r3
 3210 08ec 6F4A     		ldr	r2, .L353
 3211 08ee FB68     		ldr	r3, [r7, #12]
 3212 08f0 1344     		add	r3, r3, r2
 3213 08f2 9833     		adds	r3, r3, #152
 3214 08f4 0A46     		mov	r2, r1
 3215 08f6 5A70     		strb	r2, [r3, #1]
 710:.\Protocolo.c ****                         j--;
 3216              		.loc 1 710 0 discriminator 3
 3217 08f8 FB68     		ldr	r3, [r7, #12]
 3218 08fa 013B     		subs	r3, r3, #1
 3219 08fc FB60     		str	r3, [r7, #12]
 708:.\Protocolo.c ****                     for(x=0;x<=5;x++){
 3220              		.loc 1 708 0 discriminator 3
 3221 08fe BB68     		ldr	r3, [r7, #8]
 3222 0900 0133     		adds	r3, r3, #1
 3223 0902 BB60     		str	r3, [r7, #8]
 3224              	.L190:
 708:.\Protocolo.c ****                     for(x=0;x<=5;x++){
 3225              		.loc 1 708 0 is_stmt 0 discriminator 1
 3226 0904 BB68     		ldr	r3, [r7, #8]
 3227 0906 052B     		cmp	r3, #5
 3228 0908 E6D9     		bls	.L191
 711:.\Protocolo.c ****                     }
 712:.\Protocolo.c **** 					Pump_AL_ClearRxBuffer();
 3229              		.loc 1 712 0 is_stmt 1
 3230 090a FFF7FEFF 		bl	Pump_AL_ClearRxBuffer
 713:.\Protocolo.c **** 					return 1;
 3231              		.loc 1 713 0
ARM GAS  C:\Users\PROYEC~1\AppData\Local\Temp\ccuck2D9.s 			page 72


 3232 090e 0123     		movs	r3, #1
 3233 0910 01F05ABA 		b	.L140
 3234              	.L183:
 714:.\Protocolo.c **** 				}
 715:.\Protocolo.c **** 				else{
 716:.\Protocolo.c **** 					return 0;
 3235              		.loc 1 716 0
 3236 0914 0023     		movs	r3, #0
 3237 0916 01F057BA 		b	.L140
 3238              	.L130:
 717:.\Protocolo.c **** 				}			
 718:.\Protocolo.c **** 			break;
 719:.\Protocolo.c **** 				
 720:.\Protocolo.c **** 			case 88://7 digitos dos mangueras
 721:.\Protocolo.c **** 				if((Pump_AL_rxBuffer[0]==0xFF)&&(Pump_AL_rxBuffer[1]==0xF6)&&(Pump_AL_rxBuffer[87]==0xF0)&&(Pum
 3239              		.loc 1 721 0
 3240 091a 654B     		ldr	r3, .L353+4
 3241 091c 1B78     		ldrb	r3, [r3]
 3242 091e DBB2     		uxtb	r3, r3
 3243 0920 FF2B     		cmp	r3, #255
 3244 0922 40F02981 		bne	.L192
 3245              		.loc 1 721 0 is_stmt 0 discriminator 1
 3246 0926 624B     		ldr	r3, .L353+4
 3247 0928 5B78     		ldrb	r3, [r3, #1]
 3248 092a DBB2     		uxtb	r3, r3
 3249 092c F62B     		cmp	r3, #246
 3250 092e 40F02381 		bne	.L192
 3251              		.loc 1 721 0 discriminator 2
 3252 0932 5F4B     		ldr	r3, .L353+4
 3253 0934 93F85730 		ldrb	r3, [r3, #87]
 3254 0938 DBB2     		uxtb	r3, r3
 3255 093a F02B     		cmp	r3, #240
 3256 093c 40F01C81 		bne	.L192
 3257              		.loc 1 721 0 discriminator 3
 3258 0940 5B4B     		ldr	r3, .L353+4
 3259 0942 DB78     		ldrb	r3, [r3, #3]
 3260 0944 DBB2     		uxtb	r3, r3
 3261 0946 F92B     		cmp	r3, #249
 3262 0948 40F01681 		bne	.L192
 722:.\Protocolo.c **** 					bufferLCD1.totalVolume1[0]=13;
 3263              		.loc 1 722 0 is_stmt 1
 3264 094c 574B     		ldr	r3, .L353
 3265 094e 0D22     		movs	r2, #13
 3266 0950 83F85D20 		strb	r2, [r3, #93]
 723:.\Protocolo.c **** 					j=13;
 3267              		.loc 1 723 0
 3268 0954 0D23     		movs	r3, #13
 3269 0956 FB60     		str	r3, [r7, #12]
 724:.\Protocolo.c **** 					for(x=0;x<=11;x++){
 3270              		.loc 1 724 0
 3271 0958 0023     		movs	r3, #0
 3272 095a BB60     		str	r3, [r7, #8]
 3273 095c 35E0     		b	.L193
 3274              	.L196:
 725:.\Protocolo.c **** 						if(x==2){
 3275              		.loc 1 725 0
 3276 095e BB68     		ldr	r3, [r7, #8]
ARM GAS  C:\Users\PROYEC~1\AppData\Local\Temp\ccuck2D9.s 			page 73


 3277 0960 022B     		cmp	r3, #2
 3278 0962 1CD1     		bne	.L194
 726:.\Protocolo.c **** 							bufferLCD1.totalVolume1[j]=',';
 3279              		.loc 1 726 0
 3280 0964 514A     		ldr	r2, .L353
 3281 0966 FB68     		ldr	r3, [r7, #12]
 3282 0968 1344     		add	r3, r3, r2
 3283 096a 5833     		adds	r3, r3, #88
 3284 096c 2C22     		movs	r2, #44
 3285 096e 5A71     		strb	r2, [r3, #5]
 727:.\Protocolo.c **** 							j--;
 3286              		.loc 1 727 0
 3287 0970 FB68     		ldr	r3, [r7, #12]
 3288 0972 013B     		subs	r3, r3, #1
 3289 0974 FB60     		str	r3, [r7, #12]
 728:.\Protocolo.c **** 							bufferLCD1.totalVolume1[j]=(Pump_AL_rxBuffer[4+x]&0x0F)+0x30;
 3290              		.loc 1 728 0
 3291 0976 BB68     		ldr	r3, [r7, #8]
 3292 0978 0433     		adds	r3, r3, #4
 3293 097a 4D4A     		ldr	r2, .L353+4
 3294 097c D35C     		ldrb	r3, [r2, r3]
 3295 097e DBB2     		uxtb	r3, r3
 3296 0980 03F00F03 		and	r3, r3, #15
 3297 0984 DBB2     		uxtb	r3, r3
 3298 0986 3033     		adds	r3, r3, #48
 3299 0988 D9B2     		uxtb	r1, r3
 3300 098a 484A     		ldr	r2, .L353
 3301 098c FB68     		ldr	r3, [r7, #12]
 3302 098e 1344     		add	r3, r3, r2
 3303 0990 5833     		adds	r3, r3, #88
 3304 0992 0A46     		mov	r2, r1
 3305 0994 5A71     		strb	r2, [r3, #5]
 729:.\Protocolo.c **** 							j--;
 3306              		.loc 1 729 0
 3307 0996 FB68     		ldr	r3, [r7, #12]
 3308 0998 013B     		subs	r3, r3, #1
 3309 099a FB60     		str	r3, [r7, #12]
 3310 099c 12E0     		b	.L195
 3311              	.L194:
 730:.\Protocolo.c **** 						}else{
 731:.\Protocolo.c **** 							bufferLCD1.totalVolume1[j]=(Pump_AL_rxBuffer[4+x]&0x0F)+0x30;
 3312              		.loc 1 731 0
 3313 099e BB68     		ldr	r3, [r7, #8]
 3314 09a0 0433     		adds	r3, r3, #4
 3315 09a2 434A     		ldr	r2, .L353+4
 3316 09a4 D35C     		ldrb	r3, [r2, r3]
 3317 09a6 DBB2     		uxtb	r3, r3
 3318 09a8 03F00F03 		and	r3, r3, #15
 3319 09ac DBB2     		uxtb	r3, r3
 3320 09ae 3033     		adds	r3, r3, #48
 3321 09b0 D9B2     		uxtb	r1, r3
 3322 09b2 3E4A     		ldr	r2, .L353
 3323 09b4 FB68     		ldr	r3, [r7, #12]
 3324 09b6 1344     		add	r3, r3, r2
 3325 09b8 5833     		adds	r3, r3, #88
 3326 09ba 0A46     		mov	r2, r1
 3327 09bc 5A71     		strb	r2, [r3, #5]
ARM GAS  C:\Users\PROYEC~1\AppData\Local\Temp\ccuck2D9.s 			page 74


 732:.\Protocolo.c **** 							j--;
 3328              		.loc 1 732 0
 3329 09be FB68     		ldr	r3, [r7, #12]
 3330 09c0 013B     		subs	r3, r3, #1
 3331 09c2 FB60     		str	r3, [r7, #12]
 3332              	.L195:
 724:.\Protocolo.c **** 						if(x==2){
 3333              		.loc 1 724 0 discriminator 2
 3334 09c4 BB68     		ldr	r3, [r7, #8]
 3335 09c6 0133     		adds	r3, r3, #1
 3336 09c8 BB60     		str	r3, [r7, #8]
 3337              	.L193:
 724:.\Protocolo.c **** 						if(x==2){
 3338              		.loc 1 724 0 is_stmt 0 discriminator 1
 3339 09ca BB68     		ldr	r3, [r7, #8]
 3340 09cc 0B2B     		cmp	r3, #11
 3341 09ce C6D9     		bls	.L196
 733:.\Protocolo.c **** 						}
 734:.\Protocolo.c **** 					}
 735:.\Protocolo.c **** 					bufferLCD1.totalMoney1[0]=12;
 3342              		.loc 1 735 0 is_stmt 1
 3343 09d0 364B     		ldr	r3, .L353
 3344 09d2 0C22     		movs	r2, #12
 3345 09d4 83F82120 		strb	r2, [r3, #33]
 736:.\Protocolo.c **** 					j=12;
 3346              		.loc 1 736 0
 3347 09d8 0C23     		movs	r3, #12
 3348 09da FB60     		str	r3, [r7, #12]
 737:.\Protocolo.c **** 					for(x=0;x<=11;x++){
 3349              		.loc 1 737 0
 3350 09dc 0023     		movs	r3, #0
 3351 09de BB60     		str	r3, [r7, #8]
 3352 09e0 15E0     		b	.L197
 3353              	.L198:
 738:.\Protocolo.c **** 						bufferLCD1.totalMoney1[j]=(Pump_AL_rxBuffer[17+x]&0x0F)+0x30;
 3354              		.loc 1 738 0 discriminator 3
 3355 09e2 BB68     		ldr	r3, [r7, #8]
 3356 09e4 1133     		adds	r3, r3, #17
 3357 09e6 324A     		ldr	r2, .L353+4
 3358 09e8 D35C     		ldrb	r3, [r2, r3]
 3359 09ea DBB2     		uxtb	r3, r3
 3360 09ec 03F00F03 		and	r3, r3, #15
 3361 09f0 DBB2     		uxtb	r3, r3
 3362 09f2 3033     		adds	r3, r3, #48
 3363 09f4 D9B2     		uxtb	r1, r3
 3364 09f6 2D4A     		ldr	r2, .L353
 3365 09f8 FB68     		ldr	r3, [r7, #12]
 3366 09fa 1344     		add	r3, r3, r2
 3367 09fc 2033     		adds	r3, r3, #32
 3368 09fe 0A46     		mov	r2, r1
 3369 0a00 5A70     		strb	r2, [r3, #1]
 739:.\Protocolo.c **** 						j--;
 3370              		.loc 1 739 0 discriminator 3
 3371 0a02 FB68     		ldr	r3, [r7, #12]
 3372 0a04 013B     		subs	r3, r3, #1
 3373 0a06 FB60     		str	r3, [r7, #12]
 737:.\Protocolo.c **** 					for(x=0;x<=11;x++){
ARM GAS  C:\Users\PROYEC~1\AppData\Local\Temp\ccuck2D9.s 			page 75


 3374              		.loc 1 737 0 discriminator 3
 3375 0a08 BB68     		ldr	r3, [r7, #8]
 3376 0a0a 0133     		adds	r3, r3, #1
 3377 0a0c BB60     		str	r3, [r7, #8]
 3378              	.L197:
 737:.\Protocolo.c **** 					for(x=0;x<=11;x++){
 3379              		.loc 1 737 0 is_stmt 0 discriminator 1
 3380 0a0e BB68     		ldr	r3, [r7, #8]
 3381 0a10 0B2B     		cmp	r3, #11
 3382 0a12 E6D9     		bls	.L198
 740:.\Protocolo.c **** 					}
 741:.\Protocolo.c ****                     bufferLCD1.ppu1[0]=6;
 3383              		.loc 1 741 0 is_stmt 1
 3384 0a14 254B     		ldr	r3, .L353
 3385 0a16 0622     		movs	r2, #6
 3386 0a18 83F89920 		strb	r2, [r3, #153]
 742:.\Protocolo.c ****                     j=6;
 3387              		.loc 1 742 0
 3388 0a1c 0623     		movs	r3, #6
 3389 0a1e FB60     		str	r3, [r7, #12]
 743:.\Protocolo.c ****                     for(x=0;x<=5;x++){
 3390              		.loc 1 743 0
 3391 0a20 0023     		movs	r3, #0
 3392 0a22 BB60     		str	r3, [r7, #8]
 3393 0a24 15E0     		b	.L199
 3394              	.L200:
 744:.\Protocolo.c ****                         bufferLCD1.ppu1[j]=(Pump_AL_rxBuffer[x+30]&0x0F)+0x30;
 3395              		.loc 1 744 0 discriminator 3
 3396 0a26 BB68     		ldr	r3, [r7, #8]
 3397 0a28 1E33     		adds	r3, r3, #30
 3398 0a2a 214A     		ldr	r2, .L353+4
 3399 0a2c D35C     		ldrb	r3, [r2, r3]
 3400 0a2e DBB2     		uxtb	r3, r3
 3401 0a30 03F00F03 		and	r3, r3, #15
 3402 0a34 DBB2     		uxtb	r3, r3
 3403 0a36 3033     		adds	r3, r3, #48
 3404 0a38 D9B2     		uxtb	r1, r3
 3405 0a3a 1C4A     		ldr	r2, .L353
 3406 0a3c FB68     		ldr	r3, [r7, #12]
 3407 0a3e 1344     		add	r3, r3, r2
 3408 0a40 9833     		adds	r3, r3, #152
 3409 0a42 0A46     		mov	r2, r1
 3410 0a44 5A70     		strb	r2, [r3, #1]
 745:.\Protocolo.c ****                         j--;
 3411              		.loc 1 745 0 discriminator 3
 3412 0a46 FB68     		ldr	r3, [r7, #12]
 3413 0a48 013B     		subs	r3, r3, #1
 3414 0a4a FB60     		str	r3, [r7, #12]
 743:.\Protocolo.c ****                     for(x=0;x<=5;x++){
 3415              		.loc 1 743 0 discriminator 3
 3416 0a4c BB68     		ldr	r3, [r7, #8]
 3417 0a4e 0133     		adds	r3, r3, #1
 3418 0a50 BB60     		str	r3, [r7, #8]
 3419              	.L199:
 743:.\Protocolo.c ****                     for(x=0;x<=5;x++){
 3420              		.loc 1 743 0 is_stmt 0 discriminator 1
 3421 0a52 BB68     		ldr	r3, [r7, #8]
ARM GAS  C:\Users\PROYEC~1\AppData\Local\Temp\ccuck2D9.s 			page 76


 3422 0a54 052B     		cmp	r3, #5
 3423 0a56 E6D9     		bls	.L200
 746:.\Protocolo.c ****                     }
 747:.\Protocolo.c **** 					bufferLCD1.totalVolume2[0]=13;
 3424              		.loc 1 747 0 is_stmt 1
 3425 0a58 144B     		ldr	r3, .L353
 3426 0a5a 0D22     		movs	r2, #13
 3427 0a5c 83F87120 		strb	r2, [r3, #113]
 748:.\Protocolo.c **** 					j=13;
 3428              		.loc 1 748 0
 3429 0a60 0D23     		movs	r3, #13
 3430 0a62 FB60     		str	r3, [r7, #12]
 749:.\Protocolo.c **** 					for(x=0;x<=11;x++){
 3431              		.loc 1 749 0
 3432 0a64 0023     		movs	r3, #0
 3433 0a66 BB60     		str	r3, [r7, #8]
 3434 0a68 3AE0     		b	.L201
 3435              	.L204:
 750:.\Protocolo.c **** 						if(x==2){
 3436              		.loc 1 750 0
 3437 0a6a BB68     		ldr	r3, [r7, #8]
 3438 0a6c 022B     		cmp	r3, #2
 3439 0a6e 21D1     		bne	.L202
 751:.\Protocolo.c **** 							bufferLCD1.totalVolume2[j]=',';
 3440              		.loc 1 751 0
 3441 0a70 0E4A     		ldr	r2, .L353
 3442 0a72 FB68     		ldr	r3, [r7, #12]
 3443 0a74 1344     		add	r3, r3, r2
 3444 0a76 7033     		adds	r3, r3, #112
 3445 0a78 2C22     		movs	r2, #44
 3446 0a7a 5A70     		strb	r2, [r3, #1]
 752:.\Protocolo.c **** 							j--;
 3447              		.loc 1 752 0
 3448 0a7c FB68     		ldr	r3, [r7, #12]
 3449 0a7e 013B     		subs	r3, r3, #1
 3450 0a80 FB60     		str	r3, [r7, #12]
 753:.\Protocolo.c **** 							bufferLCD1.totalVolume2[j]=(Pump_AL_rxBuffer[46+x]&0x0F)+0x30;
 3451              		.loc 1 753 0
 3452 0a82 BB68     		ldr	r3, [r7, #8]
 3453 0a84 2E33     		adds	r3, r3, #46
 3454 0a86 0A4A     		ldr	r2, .L353+4
 3455 0a88 D35C     		ldrb	r3, [r2, r3]
 3456 0a8a DBB2     		uxtb	r3, r3
 3457 0a8c 03F00F03 		and	r3, r3, #15
 3458 0a90 DBB2     		uxtb	r3, r3
 3459 0a92 3033     		adds	r3, r3, #48
 3460 0a94 D9B2     		uxtb	r1, r3
 3461 0a96 054A     		ldr	r2, .L353
 3462 0a98 FB68     		ldr	r3, [r7, #12]
 3463 0a9a 1344     		add	r3, r3, r2
 3464 0a9c 7033     		adds	r3, r3, #112
 3465 0a9e 0A46     		mov	r2, r1
 3466 0aa0 5A70     		strb	r2, [r3, #1]
 754:.\Protocolo.c **** 							j--;
 3467              		.loc 1 754 0
 3468 0aa2 FB68     		ldr	r3, [r7, #12]
 3469 0aa4 013B     		subs	r3, r3, #1
ARM GAS  C:\Users\PROYEC~1\AppData\Local\Temp\ccuck2D9.s 			page 77


 3470 0aa6 FB60     		str	r3, [r7, #12]
 3471 0aa8 17E0     		b	.L203
 3472              	.L354:
 3473 0aaa 00BF     		.align	2
 3474              	.L353:
 3475 0aac 00000000 		.word	bufferLCD1
 3476 0ab0 00000000 		.word	Pump_AL_rxBuffer
 3477              	.L202:
 755:.\Protocolo.c **** 						}else{
 756:.\Protocolo.c **** 							bufferLCD1.totalVolume2[j]=(Pump_AL_rxBuffer[46+x]&0x0F)+0x30;
 3478              		.loc 1 756 0
 3479 0ab4 BB68     		ldr	r3, [r7, #8]
 3480 0ab6 2E33     		adds	r3, r3, #46
 3481 0ab8 A64A     		ldr	r2, .L355
 3482 0aba D35C     		ldrb	r3, [r2, r3]
 3483 0abc DBB2     		uxtb	r3, r3
 3484 0abe 03F00F03 		and	r3, r3, #15
 3485 0ac2 DBB2     		uxtb	r3, r3
 3486 0ac4 3033     		adds	r3, r3, #48
 3487 0ac6 D9B2     		uxtb	r1, r3
 3488 0ac8 A34A     		ldr	r2, .L355+4
 3489 0aca FB68     		ldr	r3, [r7, #12]
 3490 0acc 1344     		add	r3, r3, r2
 3491 0ace 7033     		adds	r3, r3, #112
 3492 0ad0 0A46     		mov	r2, r1
 3493 0ad2 5A70     		strb	r2, [r3, #1]
 757:.\Protocolo.c **** 							j--;
 3494              		.loc 1 757 0
 3495 0ad4 FB68     		ldr	r3, [r7, #12]
 3496 0ad6 013B     		subs	r3, r3, #1
 3497 0ad8 FB60     		str	r3, [r7, #12]
 3498              	.L203:
 749:.\Protocolo.c **** 						if(x==2){
 3499              		.loc 1 749 0 discriminator 2
 3500 0ada BB68     		ldr	r3, [r7, #8]
 3501 0adc 0133     		adds	r3, r3, #1
 3502 0ade BB60     		str	r3, [r7, #8]
 3503              	.L201:
 749:.\Protocolo.c **** 						if(x==2){
 3504              		.loc 1 749 0 is_stmt 0 discriminator 1
 3505 0ae0 BB68     		ldr	r3, [r7, #8]
 3506 0ae2 0B2B     		cmp	r3, #11
 3507 0ae4 C1D9     		bls	.L204
 758:.\Protocolo.c **** 						}
 759:.\Protocolo.c **** 					}
 760:.\Protocolo.c **** 					bufferLCD1.totalMoney2[0]=12;
 3508              		.loc 1 760 0 is_stmt 1
 3509 0ae6 9C4B     		ldr	r3, .L355+4
 3510 0ae8 0C22     		movs	r2, #12
 3511 0aea 83F83520 		strb	r2, [r3, #53]
 761:.\Protocolo.c **** 					j=12;
 3512              		.loc 1 761 0
 3513 0aee 0C23     		movs	r3, #12
 3514 0af0 FB60     		str	r3, [r7, #12]
 762:.\Protocolo.c **** 					for(x=0;x<=11;x++){
 3515              		.loc 1 762 0
 3516 0af2 0023     		movs	r3, #0
ARM GAS  C:\Users\PROYEC~1\AppData\Local\Temp\ccuck2D9.s 			page 78


 3517 0af4 BB60     		str	r3, [r7, #8]
 3518 0af6 15E0     		b	.L205
 3519              	.L206:
 763:.\Protocolo.c **** 						bufferLCD1.totalMoney2[j]=(Pump_AL_rxBuffer[59+x]&0x0F)+0x30;
 3520              		.loc 1 763 0 discriminator 3
 3521 0af8 BB68     		ldr	r3, [r7, #8]
 3522 0afa 3B33     		adds	r3, r3, #59
 3523 0afc 954A     		ldr	r2, .L355
 3524 0afe D35C     		ldrb	r3, [r2, r3]
 3525 0b00 DBB2     		uxtb	r3, r3
 3526 0b02 03F00F03 		and	r3, r3, #15
 3527 0b06 DBB2     		uxtb	r3, r3
 3528 0b08 3033     		adds	r3, r3, #48
 3529 0b0a D9B2     		uxtb	r1, r3
 3530 0b0c 924A     		ldr	r2, .L355+4
 3531 0b0e FB68     		ldr	r3, [r7, #12]
 3532 0b10 1344     		add	r3, r3, r2
 3533 0b12 3033     		adds	r3, r3, #48
 3534 0b14 0A46     		mov	r2, r1
 3535 0b16 5A71     		strb	r2, [r3, #5]
 764:.\Protocolo.c **** 						j--;
 3536              		.loc 1 764 0 discriminator 3
 3537 0b18 FB68     		ldr	r3, [r7, #12]
 3538 0b1a 013B     		subs	r3, r3, #1
 3539 0b1c FB60     		str	r3, [r7, #12]
 762:.\Protocolo.c **** 					for(x=0;x<=11;x++){
 3540              		.loc 1 762 0 discriminator 3
 3541 0b1e BB68     		ldr	r3, [r7, #8]
 3542 0b20 0133     		adds	r3, r3, #1
 3543 0b22 BB60     		str	r3, [r7, #8]
 3544              	.L205:
 762:.\Protocolo.c **** 					for(x=0;x<=11;x++){
 3545              		.loc 1 762 0 is_stmt 0 discriminator 1
 3546 0b24 BB68     		ldr	r3, [r7, #8]
 3547 0b26 0B2B     		cmp	r3, #11
 3548 0b28 E6D9     		bls	.L206
 765:.\Protocolo.c **** 					}
 766:.\Protocolo.c ****                     bufferLCD1.ppu2[0]=6;
 3549              		.loc 1 766 0 is_stmt 1
 3550 0b2a 8B4B     		ldr	r3, .L355+4
 3551 0b2c 0622     		movs	r2, #6
 3552 0b2e 83F8A320 		strb	r2, [r3, #163]
 767:.\Protocolo.c ****                     j=6;
 3553              		.loc 1 767 0
 3554 0b32 0623     		movs	r3, #6
 3555 0b34 FB60     		str	r3, [r7, #12]
 768:.\Protocolo.c ****                     for(x=0;x<=5;x++){
 3556              		.loc 1 768 0
 3557 0b36 0023     		movs	r3, #0
 3558 0b38 BB60     		str	r3, [r7, #8]
 3559 0b3a 15E0     		b	.L207
 3560              	.L208:
 769:.\Protocolo.c ****                         bufferLCD1.ppu2[j]=(Pump_AL_rxBuffer[x+72]&0x0F)+0x30;
 3561              		.loc 1 769 0 discriminator 3
 3562 0b3c BB68     		ldr	r3, [r7, #8]
 3563 0b3e 4833     		adds	r3, r3, #72
 3564 0b40 844A     		ldr	r2, .L355
ARM GAS  C:\Users\PROYEC~1\AppData\Local\Temp\ccuck2D9.s 			page 79


 3565 0b42 D35C     		ldrb	r3, [r2, r3]
 3566 0b44 DBB2     		uxtb	r3, r3
 3567 0b46 03F00F03 		and	r3, r3, #15
 3568 0b4a DBB2     		uxtb	r3, r3
 3569 0b4c 3033     		adds	r3, r3, #48
 3570 0b4e D9B2     		uxtb	r1, r3
 3571 0b50 814A     		ldr	r2, .L355+4
 3572 0b52 FB68     		ldr	r3, [r7, #12]
 3573 0b54 1344     		add	r3, r3, r2
 3574 0b56 A033     		adds	r3, r3, #160
 3575 0b58 0A46     		mov	r2, r1
 3576 0b5a DA70     		strb	r2, [r3, #3]
 770:.\Protocolo.c ****                         j--;
 3577              		.loc 1 770 0 discriminator 3
 3578 0b5c FB68     		ldr	r3, [r7, #12]
 3579 0b5e 013B     		subs	r3, r3, #1
 3580 0b60 FB60     		str	r3, [r7, #12]
 768:.\Protocolo.c ****                     for(x=0;x<=5;x++){
 3581              		.loc 1 768 0 discriminator 3
 3582 0b62 BB68     		ldr	r3, [r7, #8]
 3583 0b64 0133     		adds	r3, r3, #1
 3584 0b66 BB60     		str	r3, [r7, #8]
 3585              	.L207:
 768:.\Protocolo.c ****                     for(x=0;x<=5;x++){
 3586              		.loc 1 768 0 is_stmt 0 discriminator 1
 3587 0b68 BB68     		ldr	r3, [r7, #8]
 3588 0b6a 052B     		cmp	r3, #5
 3589 0b6c E6D9     		bls	.L208
 771:.\Protocolo.c ****                     }
 772:.\Protocolo.c **** 					Pump_AL_ClearRxBuffer();
 3590              		.loc 1 772 0 is_stmt 1
 3591 0b6e FFF7FEFF 		bl	Pump_AL_ClearRxBuffer
 773:.\Protocolo.c **** 					return 2;					
 3592              		.loc 1 773 0
 3593 0b72 0223     		movs	r3, #2
 3594 0b74 01F028B9 		b	.L140
 3595              	.L192:
 774:.\Protocolo.c **** 				}			
 775:.\Protocolo.c **** 				else{
 776:.\Protocolo.c **** 					return 0;
 3596              		.loc 1 776 0
 3597 0b78 0023     		movs	r3, #0
 3598 0b7a 01F025B9 		b	.L140
 3599              	.L129:
 777:.\Protocolo.c **** 				}			
 778:.\Protocolo.c **** 			break;
 779:.\Protocolo.c **** 		
 780:.\Protocolo.c **** 			case 130://7 digitos tres mangueras
 781:.\Protocolo.c **** 				if((Pump_AL_rxBuffer[0]==0xFF)&&(Pump_AL_rxBuffer[1]==0xF6)&&(Pump_AL_rxBuffer[129]==0xF0)&&(Pu
 3600              		.loc 1 781 0
 3601 0b7e 754B     		ldr	r3, .L355
 3602 0b80 1B78     		ldrb	r3, [r3]
 3603 0b82 DBB2     		uxtb	r3, r3
 3604 0b84 FF2B     		cmp	r3, #255
 3605 0b86 40F0AF81 		bne	.L209
 3606              		.loc 1 781 0 is_stmt 0 discriminator 1
 3607 0b8a 724B     		ldr	r3, .L355
ARM GAS  C:\Users\PROYEC~1\AppData\Local\Temp\ccuck2D9.s 			page 80


 3608 0b8c 5B78     		ldrb	r3, [r3, #1]
 3609 0b8e DBB2     		uxtb	r3, r3
 3610 0b90 F62B     		cmp	r3, #246
 3611 0b92 40F0A981 		bne	.L209
 3612              		.loc 1 781 0 discriminator 2
 3613 0b96 6F4B     		ldr	r3, .L355
 3614 0b98 93F88130 		ldrb	r3, [r3, #129]
 3615 0b9c DBB2     		uxtb	r3, r3
 3616 0b9e F02B     		cmp	r3, #240
 3617 0ba0 40F0A281 		bne	.L209
 3618              		.loc 1 781 0 discriminator 3
 3619 0ba4 6B4B     		ldr	r3, .L355
 3620 0ba6 DB78     		ldrb	r3, [r3, #3]
 3621 0ba8 DBB2     		uxtb	r3, r3
 3622 0baa F92B     		cmp	r3, #249
 3623 0bac 40F09C81 		bne	.L209
 782:.\Protocolo.c **** 					bufferLCD1.totalVolume1[0]=13;
 3624              		.loc 1 782 0 is_stmt 1
 3625 0bb0 694B     		ldr	r3, .L355+4
 3626 0bb2 0D22     		movs	r2, #13
 3627 0bb4 83F85D20 		strb	r2, [r3, #93]
 783:.\Protocolo.c **** 					j=13;
 3628              		.loc 1 783 0
 3629 0bb8 0D23     		movs	r3, #13
 3630 0bba FB60     		str	r3, [r7, #12]
 784:.\Protocolo.c **** 					for(x=0;x<=11;x++){
 3631              		.loc 1 784 0
 3632 0bbc 0023     		movs	r3, #0
 3633 0bbe BB60     		str	r3, [r7, #8]
 3634 0bc0 35E0     		b	.L210
 3635              	.L213:
 785:.\Protocolo.c **** 						if(x==2){
 3636              		.loc 1 785 0
 3637 0bc2 BB68     		ldr	r3, [r7, #8]
 3638 0bc4 022B     		cmp	r3, #2
 3639 0bc6 1CD1     		bne	.L211
 786:.\Protocolo.c **** 							bufferLCD1.totalVolume1[j]=',';
 3640              		.loc 1 786 0
 3641 0bc8 634A     		ldr	r2, .L355+4
 3642 0bca FB68     		ldr	r3, [r7, #12]
 3643 0bcc 1344     		add	r3, r3, r2
 3644 0bce 5833     		adds	r3, r3, #88
 3645 0bd0 2C22     		movs	r2, #44
 3646 0bd2 5A71     		strb	r2, [r3, #5]
 787:.\Protocolo.c **** 							j--;
 3647              		.loc 1 787 0
 3648 0bd4 FB68     		ldr	r3, [r7, #12]
 3649 0bd6 013B     		subs	r3, r3, #1
 3650 0bd8 FB60     		str	r3, [r7, #12]
 788:.\Protocolo.c **** 							bufferLCD1.totalVolume1[j]=(Pump_AL_rxBuffer[4+x]&0x0F)+0x30;
 3651              		.loc 1 788 0
 3652 0bda BB68     		ldr	r3, [r7, #8]
 3653 0bdc 0433     		adds	r3, r3, #4
 3654 0bde 5D4A     		ldr	r2, .L355
 3655 0be0 D35C     		ldrb	r3, [r2, r3]
 3656 0be2 DBB2     		uxtb	r3, r3
 3657 0be4 03F00F03 		and	r3, r3, #15
ARM GAS  C:\Users\PROYEC~1\AppData\Local\Temp\ccuck2D9.s 			page 81


 3658 0be8 DBB2     		uxtb	r3, r3
 3659 0bea 3033     		adds	r3, r3, #48
 3660 0bec D9B2     		uxtb	r1, r3
 3661 0bee 5A4A     		ldr	r2, .L355+4
 3662 0bf0 FB68     		ldr	r3, [r7, #12]
 3663 0bf2 1344     		add	r3, r3, r2
 3664 0bf4 5833     		adds	r3, r3, #88
 3665 0bf6 0A46     		mov	r2, r1
 3666 0bf8 5A71     		strb	r2, [r3, #5]
 789:.\Protocolo.c **** 							j--;
 3667              		.loc 1 789 0
 3668 0bfa FB68     		ldr	r3, [r7, #12]
 3669 0bfc 013B     		subs	r3, r3, #1
 3670 0bfe FB60     		str	r3, [r7, #12]
 3671 0c00 12E0     		b	.L212
 3672              	.L211:
 790:.\Protocolo.c **** 						}else{
 791:.\Protocolo.c **** 							bufferLCD1.totalVolume1[j]=(Pump_AL_rxBuffer[4+x]&0x0F)+0x30;
 3673              		.loc 1 791 0
 3674 0c02 BB68     		ldr	r3, [r7, #8]
 3675 0c04 0433     		adds	r3, r3, #4
 3676 0c06 534A     		ldr	r2, .L355
 3677 0c08 D35C     		ldrb	r3, [r2, r3]
 3678 0c0a DBB2     		uxtb	r3, r3
 3679 0c0c 03F00F03 		and	r3, r3, #15
 3680 0c10 DBB2     		uxtb	r3, r3
 3681 0c12 3033     		adds	r3, r3, #48
 3682 0c14 D9B2     		uxtb	r1, r3
 3683 0c16 504A     		ldr	r2, .L355+4
 3684 0c18 FB68     		ldr	r3, [r7, #12]
 3685 0c1a 1344     		add	r3, r3, r2
 3686 0c1c 5833     		adds	r3, r3, #88
 3687 0c1e 0A46     		mov	r2, r1
 3688 0c20 5A71     		strb	r2, [r3, #5]
 792:.\Protocolo.c **** 							j--;
 3689              		.loc 1 792 0
 3690 0c22 FB68     		ldr	r3, [r7, #12]
 3691 0c24 013B     		subs	r3, r3, #1
 3692 0c26 FB60     		str	r3, [r7, #12]
 3693              	.L212:
 784:.\Protocolo.c **** 						if(x==2){
 3694              		.loc 1 784 0 discriminator 2
 3695 0c28 BB68     		ldr	r3, [r7, #8]
 3696 0c2a 0133     		adds	r3, r3, #1
 3697 0c2c BB60     		str	r3, [r7, #8]
 3698              	.L210:
 784:.\Protocolo.c **** 						if(x==2){
 3699              		.loc 1 784 0 is_stmt 0 discriminator 1
 3700 0c2e BB68     		ldr	r3, [r7, #8]
 3701 0c30 0B2B     		cmp	r3, #11
 3702 0c32 C6D9     		bls	.L213
 793:.\Protocolo.c **** 						}
 794:.\Protocolo.c **** 					}
 795:.\Protocolo.c **** 					bufferLCD1.totalMoney1[0]=12;
 3703              		.loc 1 795 0 is_stmt 1
 3704 0c34 484B     		ldr	r3, .L355+4
 3705 0c36 0C22     		movs	r2, #12
ARM GAS  C:\Users\PROYEC~1\AppData\Local\Temp\ccuck2D9.s 			page 82


 3706 0c38 83F82120 		strb	r2, [r3, #33]
 796:.\Protocolo.c **** 					j=12;
 3707              		.loc 1 796 0
 3708 0c3c 0C23     		movs	r3, #12
 3709 0c3e FB60     		str	r3, [r7, #12]
 797:.\Protocolo.c **** 					for(x=0;x<=11;x++){
 3710              		.loc 1 797 0
 3711 0c40 0023     		movs	r3, #0
 3712 0c42 BB60     		str	r3, [r7, #8]
 3713 0c44 15E0     		b	.L214
 3714              	.L215:
 798:.\Protocolo.c **** 						bufferLCD1.totalMoney1[j]=(Pump_AL_rxBuffer[17+x]&0x0F)+0x30;
 3715              		.loc 1 798 0 discriminator 3
 3716 0c46 BB68     		ldr	r3, [r7, #8]
 3717 0c48 1133     		adds	r3, r3, #17
 3718 0c4a 424A     		ldr	r2, .L355
 3719 0c4c D35C     		ldrb	r3, [r2, r3]
 3720 0c4e DBB2     		uxtb	r3, r3
 3721 0c50 03F00F03 		and	r3, r3, #15
 3722 0c54 DBB2     		uxtb	r3, r3
 3723 0c56 3033     		adds	r3, r3, #48
 3724 0c58 D9B2     		uxtb	r1, r3
 3725 0c5a 3F4A     		ldr	r2, .L355+4
 3726 0c5c FB68     		ldr	r3, [r7, #12]
 3727 0c5e 1344     		add	r3, r3, r2
 3728 0c60 2033     		adds	r3, r3, #32
 3729 0c62 0A46     		mov	r2, r1
 3730 0c64 5A70     		strb	r2, [r3, #1]
 799:.\Protocolo.c **** 						j--;
 3731              		.loc 1 799 0 discriminator 3
 3732 0c66 FB68     		ldr	r3, [r7, #12]
 3733 0c68 013B     		subs	r3, r3, #1
 3734 0c6a FB60     		str	r3, [r7, #12]
 797:.\Protocolo.c **** 					for(x=0;x<=11;x++){
 3735              		.loc 1 797 0 discriminator 3
 3736 0c6c BB68     		ldr	r3, [r7, #8]
 3737 0c6e 0133     		adds	r3, r3, #1
 3738 0c70 BB60     		str	r3, [r7, #8]
 3739              	.L214:
 797:.\Protocolo.c **** 					for(x=0;x<=11;x++){
 3740              		.loc 1 797 0 is_stmt 0 discriminator 1
 3741 0c72 BB68     		ldr	r3, [r7, #8]
 3742 0c74 0B2B     		cmp	r3, #11
 3743 0c76 E6D9     		bls	.L215
 800:.\Protocolo.c **** 					}
 801:.\Protocolo.c ****                     bufferLCD1.ppu1[0]=6;
 3744              		.loc 1 801 0 is_stmt 1
 3745 0c78 374B     		ldr	r3, .L355+4
 3746 0c7a 0622     		movs	r2, #6
 3747 0c7c 83F89920 		strb	r2, [r3, #153]
 802:.\Protocolo.c ****                     j=6;
 3748              		.loc 1 802 0
 3749 0c80 0623     		movs	r3, #6
 3750 0c82 FB60     		str	r3, [r7, #12]
 803:.\Protocolo.c ****                     for(x=0;x<=5;x++){
 3751              		.loc 1 803 0
 3752 0c84 0023     		movs	r3, #0
ARM GAS  C:\Users\PROYEC~1\AppData\Local\Temp\ccuck2D9.s 			page 83


 3753 0c86 BB60     		str	r3, [r7, #8]
 3754 0c88 15E0     		b	.L216
 3755              	.L217:
 804:.\Protocolo.c ****                         bufferLCD1.ppu1[j]=(Pump_AL_rxBuffer[x+30]&0x0F)+0x30;
 3756              		.loc 1 804 0 discriminator 3
 3757 0c8a BB68     		ldr	r3, [r7, #8]
 3758 0c8c 1E33     		adds	r3, r3, #30
 3759 0c8e 314A     		ldr	r2, .L355
 3760 0c90 D35C     		ldrb	r3, [r2, r3]
 3761 0c92 DBB2     		uxtb	r3, r3
 3762 0c94 03F00F03 		and	r3, r3, #15
 3763 0c98 DBB2     		uxtb	r3, r3
 3764 0c9a 3033     		adds	r3, r3, #48
 3765 0c9c D9B2     		uxtb	r1, r3
 3766 0c9e 2E4A     		ldr	r2, .L355+4
 3767 0ca0 FB68     		ldr	r3, [r7, #12]
 3768 0ca2 1344     		add	r3, r3, r2
 3769 0ca4 9833     		adds	r3, r3, #152
 3770 0ca6 0A46     		mov	r2, r1
 3771 0ca8 5A70     		strb	r2, [r3, #1]
 805:.\Protocolo.c ****                         j--;
 3772              		.loc 1 805 0 discriminator 3
 3773 0caa FB68     		ldr	r3, [r7, #12]
 3774 0cac 013B     		subs	r3, r3, #1
 3775 0cae FB60     		str	r3, [r7, #12]
 803:.\Protocolo.c ****                     for(x=0;x<=5;x++){
 3776              		.loc 1 803 0 discriminator 3
 3777 0cb0 BB68     		ldr	r3, [r7, #8]
 3778 0cb2 0133     		adds	r3, r3, #1
 3779 0cb4 BB60     		str	r3, [r7, #8]
 3780              	.L216:
 803:.\Protocolo.c ****                     for(x=0;x<=5;x++){
 3781              		.loc 1 803 0 is_stmt 0 discriminator 1
 3782 0cb6 BB68     		ldr	r3, [r7, #8]
 3783 0cb8 052B     		cmp	r3, #5
 3784 0cba E6D9     		bls	.L217
 806:.\Protocolo.c ****                     }
 807:.\Protocolo.c **** 					bufferLCD1.totalVolume2[0]=13;
 3785              		.loc 1 807 0 is_stmt 1
 3786 0cbc 264B     		ldr	r3, .L355+4
 3787 0cbe 0D22     		movs	r2, #13
 3788 0cc0 83F87120 		strb	r2, [r3, #113]
 808:.\Protocolo.c **** 					j=13;
 3789              		.loc 1 808 0
 3790 0cc4 0D23     		movs	r3, #13
 3791 0cc6 FB60     		str	r3, [r7, #12]
 809:.\Protocolo.c **** 					for(x=0;x<=11;x++){
 3792              		.loc 1 809 0
 3793 0cc8 0023     		movs	r3, #0
 3794 0cca BB60     		str	r3, [r7, #8]
 3795 0ccc 35E0     		b	.L218
 3796              	.L221:
 810:.\Protocolo.c **** 						if(x==2){
 3797              		.loc 1 810 0
 3798 0cce BB68     		ldr	r3, [r7, #8]
 3799 0cd0 022B     		cmp	r3, #2
 3800 0cd2 1CD1     		bne	.L219
ARM GAS  C:\Users\PROYEC~1\AppData\Local\Temp\ccuck2D9.s 			page 84


 811:.\Protocolo.c **** 							bufferLCD1.totalVolume2[j]=',';
 3801              		.loc 1 811 0
 3802 0cd4 204A     		ldr	r2, .L355+4
 3803 0cd6 FB68     		ldr	r3, [r7, #12]
 3804 0cd8 1344     		add	r3, r3, r2
 3805 0cda 7033     		adds	r3, r3, #112
 3806 0cdc 2C22     		movs	r2, #44
 3807 0cde 5A70     		strb	r2, [r3, #1]
 812:.\Protocolo.c **** 							j--;
 3808              		.loc 1 812 0
 3809 0ce0 FB68     		ldr	r3, [r7, #12]
 3810 0ce2 013B     		subs	r3, r3, #1
 3811 0ce4 FB60     		str	r3, [r7, #12]
 813:.\Protocolo.c **** 							bufferLCD1.totalVolume2[j]=(Pump_AL_rxBuffer[46+x]&0x0F)+0x30;
 3812              		.loc 1 813 0
 3813 0ce6 BB68     		ldr	r3, [r7, #8]
 3814 0ce8 2E33     		adds	r3, r3, #46
 3815 0cea 1A4A     		ldr	r2, .L355
 3816 0cec D35C     		ldrb	r3, [r2, r3]
 3817 0cee DBB2     		uxtb	r3, r3
 3818 0cf0 03F00F03 		and	r3, r3, #15
 3819 0cf4 DBB2     		uxtb	r3, r3
 3820 0cf6 3033     		adds	r3, r3, #48
 3821 0cf8 D9B2     		uxtb	r1, r3
 3822 0cfa 174A     		ldr	r2, .L355+4
 3823 0cfc FB68     		ldr	r3, [r7, #12]
 3824 0cfe 1344     		add	r3, r3, r2
 3825 0d00 7033     		adds	r3, r3, #112
 3826 0d02 0A46     		mov	r2, r1
 3827 0d04 5A70     		strb	r2, [r3, #1]
 814:.\Protocolo.c **** 							j--;
 3828              		.loc 1 814 0
 3829 0d06 FB68     		ldr	r3, [r7, #12]
 3830 0d08 013B     		subs	r3, r3, #1
 3831 0d0a FB60     		str	r3, [r7, #12]
 3832 0d0c 12E0     		b	.L220
 3833              	.L219:
 815:.\Protocolo.c **** 						}else{
 816:.\Protocolo.c **** 							bufferLCD1.totalVolume2[j]=(Pump_AL_rxBuffer[46+x]&0x0F)+0x30;
 3834              		.loc 1 816 0
 3835 0d0e BB68     		ldr	r3, [r7, #8]
 3836 0d10 2E33     		adds	r3, r3, #46
 3837 0d12 104A     		ldr	r2, .L355
 3838 0d14 D35C     		ldrb	r3, [r2, r3]
 3839 0d16 DBB2     		uxtb	r3, r3
 3840 0d18 03F00F03 		and	r3, r3, #15
 3841 0d1c DBB2     		uxtb	r3, r3
 3842 0d1e 3033     		adds	r3, r3, #48
 3843 0d20 D9B2     		uxtb	r1, r3
 3844 0d22 0D4A     		ldr	r2, .L355+4
 3845 0d24 FB68     		ldr	r3, [r7, #12]
 3846 0d26 1344     		add	r3, r3, r2
 3847 0d28 7033     		adds	r3, r3, #112
 3848 0d2a 0A46     		mov	r2, r1
 3849 0d2c 5A70     		strb	r2, [r3, #1]
 817:.\Protocolo.c **** 							j--;
 3850              		.loc 1 817 0
ARM GAS  C:\Users\PROYEC~1\AppData\Local\Temp\ccuck2D9.s 			page 85


 3851 0d2e FB68     		ldr	r3, [r7, #12]
 3852 0d30 013B     		subs	r3, r3, #1
 3853 0d32 FB60     		str	r3, [r7, #12]
 3854              	.L220:
 809:.\Protocolo.c **** 						if(x==2){
 3855              		.loc 1 809 0 discriminator 2
 3856 0d34 BB68     		ldr	r3, [r7, #8]
 3857 0d36 0133     		adds	r3, r3, #1
 3858 0d38 BB60     		str	r3, [r7, #8]
 3859              	.L218:
 809:.\Protocolo.c **** 						if(x==2){
 3860              		.loc 1 809 0 is_stmt 0 discriminator 1
 3861 0d3a BB68     		ldr	r3, [r7, #8]
 3862 0d3c 0B2B     		cmp	r3, #11
 3863 0d3e C6D9     		bls	.L221
 818:.\Protocolo.c **** 						}
 819:.\Protocolo.c **** 					}
 820:.\Protocolo.c **** 					bufferLCD1.totalMoney2[0]=12;
 3864              		.loc 1 820 0 is_stmt 1
 3865 0d40 054B     		ldr	r3, .L355+4
 3866 0d42 0C22     		movs	r2, #12
 3867 0d44 83F83520 		strb	r2, [r3, #53]
 821:.\Protocolo.c **** 					j=12;
 3868              		.loc 1 821 0
 3869 0d48 0C23     		movs	r3, #12
 3870 0d4a FB60     		str	r3, [r7, #12]
 822:.\Protocolo.c **** 					for(x=0;x<=11;x++){
 3871              		.loc 1 822 0
 3872 0d4c 0023     		movs	r3, #0
 3873 0d4e BB60     		str	r3, [r7, #8]
 3874 0d50 1AE0     		b	.L222
 3875              	.L356:
 3876 0d52 00BF     		.align	2
 3877              	.L355:
 3878 0d54 00000000 		.word	Pump_AL_rxBuffer
 3879 0d58 00000000 		.word	bufferLCD1
 3880              	.L223:
 823:.\Protocolo.c **** 						bufferLCD1.totalMoney2[j]=(Pump_AL_rxBuffer[59+x]&0x0F)+0x30;
 3881              		.loc 1 823 0 discriminator 3
 3882 0d5c BB68     		ldr	r3, [r7, #8]
 3883 0d5e 3B33     		adds	r3, r3, #59
 3884 0d60 A64A     		ldr	r2, .L357
 3885 0d62 D35C     		ldrb	r3, [r2, r3]
 3886 0d64 DBB2     		uxtb	r3, r3
 3887 0d66 03F00F03 		and	r3, r3, #15
 3888 0d6a DBB2     		uxtb	r3, r3
 3889 0d6c 3033     		adds	r3, r3, #48
 3890 0d6e D9B2     		uxtb	r1, r3
 3891 0d70 A34A     		ldr	r2, .L357+4
 3892 0d72 FB68     		ldr	r3, [r7, #12]
 3893 0d74 1344     		add	r3, r3, r2
 3894 0d76 3033     		adds	r3, r3, #48
 3895 0d78 0A46     		mov	r2, r1
 3896 0d7a 5A71     		strb	r2, [r3, #5]
 824:.\Protocolo.c **** 						j--;
 3897              		.loc 1 824 0 discriminator 3
 3898 0d7c FB68     		ldr	r3, [r7, #12]
ARM GAS  C:\Users\PROYEC~1\AppData\Local\Temp\ccuck2D9.s 			page 86


 3899 0d7e 013B     		subs	r3, r3, #1
 3900 0d80 FB60     		str	r3, [r7, #12]
 822:.\Protocolo.c **** 					for(x=0;x<=11;x++){
 3901              		.loc 1 822 0 discriminator 3
 3902 0d82 BB68     		ldr	r3, [r7, #8]
 3903 0d84 0133     		adds	r3, r3, #1
 3904 0d86 BB60     		str	r3, [r7, #8]
 3905              	.L222:
 822:.\Protocolo.c **** 					for(x=0;x<=11;x++){
 3906              		.loc 1 822 0 is_stmt 0 discriminator 1
 3907 0d88 BB68     		ldr	r3, [r7, #8]
 3908 0d8a 0B2B     		cmp	r3, #11
 3909 0d8c E6D9     		bls	.L223
 825:.\Protocolo.c **** 					}
 826:.\Protocolo.c ****                     bufferLCD1.ppu2[0]=6;
 3910              		.loc 1 826 0 is_stmt 1
 3911 0d8e 9C4B     		ldr	r3, .L357+4
 3912 0d90 0622     		movs	r2, #6
 3913 0d92 83F8A320 		strb	r2, [r3, #163]
 827:.\Protocolo.c ****                     j=6;
 3914              		.loc 1 827 0
 3915 0d96 0623     		movs	r3, #6
 3916 0d98 FB60     		str	r3, [r7, #12]
 828:.\Protocolo.c ****                     for(x=0;x<=5;x++){
 3917              		.loc 1 828 0
 3918 0d9a 0023     		movs	r3, #0
 3919 0d9c BB60     		str	r3, [r7, #8]
 3920 0d9e 15E0     		b	.L224
 3921              	.L225:
 829:.\Protocolo.c ****                         bufferLCD1.ppu2[j]=(Pump_AL_rxBuffer[x+72]&0x0F)+0x30;
 3922              		.loc 1 829 0 discriminator 3
 3923 0da0 BB68     		ldr	r3, [r7, #8]
 3924 0da2 4833     		adds	r3, r3, #72
 3925 0da4 954A     		ldr	r2, .L357
 3926 0da6 D35C     		ldrb	r3, [r2, r3]
 3927 0da8 DBB2     		uxtb	r3, r3
 3928 0daa 03F00F03 		and	r3, r3, #15
 3929 0dae DBB2     		uxtb	r3, r3
 3930 0db0 3033     		adds	r3, r3, #48
 3931 0db2 D9B2     		uxtb	r1, r3
 3932 0db4 924A     		ldr	r2, .L357+4
 3933 0db6 FB68     		ldr	r3, [r7, #12]
 3934 0db8 1344     		add	r3, r3, r2
 3935 0dba A033     		adds	r3, r3, #160
 3936 0dbc 0A46     		mov	r2, r1
 3937 0dbe DA70     		strb	r2, [r3, #3]
 830:.\Protocolo.c ****                         j--;
 3938              		.loc 1 830 0 discriminator 3
 3939 0dc0 FB68     		ldr	r3, [r7, #12]
 3940 0dc2 013B     		subs	r3, r3, #1
 3941 0dc4 FB60     		str	r3, [r7, #12]
 828:.\Protocolo.c ****                     for(x=0;x<=5;x++){
 3942              		.loc 1 828 0 discriminator 3
 3943 0dc6 BB68     		ldr	r3, [r7, #8]
 3944 0dc8 0133     		adds	r3, r3, #1
 3945 0dca BB60     		str	r3, [r7, #8]
 3946              	.L224:
ARM GAS  C:\Users\PROYEC~1\AppData\Local\Temp\ccuck2D9.s 			page 87


 828:.\Protocolo.c ****                     for(x=0;x<=5;x++){
 3947              		.loc 1 828 0 is_stmt 0 discriminator 1
 3948 0dcc BB68     		ldr	r3, [r7, #8]
 3949 0dce 052B     		cmp	r3, #5
 3950 0dd0 E6D9     		bls	.L225
 831:.\Protocolo.c ****                     }
 832:.\Protocolo.c **** 					bufferLCD1.totalVolume3[0]=13;
 3951              		.loc 1 832 0 is_stmt 1
 3952 0dd2 8B4B     		ldr	r3, .L357+4
 3953 0dd4 0D22     		movs	r2, #13
 3954 0dd6 83F88520 		strb	r2, [r3, #133]
 833:.\Protocolo.c **** 					j=13;
 3955              		.loc 1 833 0
 3956 0dda 0D23     		movs	r3, #13
 3957 0ddc FB60     		str	r3, [r7, #12]
 834:.\Protocolo.c **** 					for(x=0;x<=11;x++){
 3958              		.loc 1 834 0
 3959 0dde 0023     		movs	r3, #0
 3960 0de0 BB60     		str	r3, [r7, #8]
 3961 0de2 35E0     		b	.L226
 3962              	.L229:
 835:.\Protocolo.c **** 						if(x==2){
 3963              		.loc 1 835 0
 3964 0de4 BB68     		ldr	r3, [r7, #8]
 3965 0de6 022B     		cmp	r3, #2
 3966 0de8 1CD1     		bne	.L227
 836:.\Protocolo.c **** 							bufferLCD1.totalVolume3[j]=',';
 3967              		.loc 1 836 0
 3968 0dea 854A     		ldr	r2, .L357+4
 3969 0dec FB68     		ldr	r3, [r7, #12]
 3970 0dee 1344     		add	r3, r3, r2
 3971 0df0 8033     		adds	r3, r3, #128
 3972 0df2 2C22     		movs	r2, #44
 3973 0df4 5A71     		strb	r2, [r3, #5]
 837:.\Protocolo.c **** 							j--;
 3974              		.loc 1 837 0
 3975 0df6 FB68     		ldr	r3, [r7, #12]
 3976 0df8 013B     		subs	r3, r3, #1
 3977 0dfa FB60     		str	r3, [r7, #12]
 838:.\Protocolo.c **** 							bufferLCD1.totalVolume3[j]=(Pump_AL_rxBuffer[88+x]&0x0F)+0x30;
 3978              		.loc 1 838 0
 3979 0dfc BB68     		ldr	r3, [r7, #8]
 3980 0dfe 5833     		adds	r3, r3, #88
 3981 0e00 7E4A     		ldr	r2, .L357
 3982 0e02 D35C     		ldrb	r3, [r2, r3]
 3983 0e04 DBB2     		uxtb	r3, r3
 3984 0e06 03F00F03 		and	r3, r3, #15
 3985 0e0a DBB2     		uxtb	r3, r3
 3986 0e0c 3033     		adds	r3, r3, #48
 3987 0e0e D9B2     		uxtb	r1, r3
 3988 0e10 7B4A     		ldr	r2, .L357+4
 3989 0e12 FB68     		ldr	r3, [r7, #12]
 3990 0e14 1344     		add	r3, r3, r2
 3991 0e16 8033     		adds	r3, r3, #128
 3992 0e18 0A46     		mov	r2, r1
 3993 0e1a 5A71     		strb	r2, [r3, #5]
 839:.\Protocolo.c **** 							j--;
ARM GAS  C:\Users\PROYEC~1\AppData\Local\Temp\ccuck2D9.s 			page 88


 3994              		.loc 1 839 0
 3995 0e1c FB68     		ldr	r3, [r7, #12]
 3996 0e1e 013B     		subs	r3, r3, #1
 3997 0e20 FB60     		str	r3, [r7, #12]
 3998 0e22 12E0     		b	.L228
 3999              	.L227:
 840:.\Protocolo.c **** 						}else{
 841:.\Protocolo.c **** 							bufferLCD1.totalVolume3[j]=(Pump_AL_rxBuffer[88+x]&0x0F)+0x30;
 4000              		.loc 1 841 0
 4001 0e24 BB68     		ldr	r3, [r7, #8]
 4002 0e26 5833     		adds	r3, r3, #88
 4003 0e28 744A     		ldr	r2, .L357
 4004 0e2a D35C     		ldrb	r3, [r2, r3]
 4005 0e2c DBB2     		uxtb	r3, r3
 4006 0e2e 03F00F03 		and	r3, r3, #15
 4007 0e32 DBB2     		uxtb	r3, r3
 4008 0e34 3033     		adds	r3, r3, #48
 4009 0e36 D9B2     		uxtb	r1, r3
 4010 0e38 714A     		ldr	r2, .L357+4
 4011 0e3a FB68     		ldr	r3, [r7, #12]
 4012 0e3c 1344     		add	r3, r3, r2
 4013 0e3e 8033     		adds	r3, r3, #128
 4014 0e40 0A46     		mov	r2, r1
 4015 0e42 5A71     		strb	r2, [r3, #5]
 842:.\Protocolo.c **** 							j--;
 4016              		.loc 1 842 0
 4017 0e44 FB68     		ldr	r3, [r7, #12]
 4018 0e46 013B     		subs	r3, r3, #1
 4019 0e48 FB60     		str	r3, [r7, #12]
 4020              	.L228:
 834:.\Protocolo.c **** 						if(x==2){
 4021              		.loc 1 834 0 discriminator 2
 4022 0e4a BB68     		ldr	r3, [r7, #8]
 4023 0e4c 0133     		adds	r3, r3, #1
 4024 0e4e BB60     		str	r3, [r7, #8]
 4025              	.L226:
 834:.\Protocolo.c **** 						if(x==2){
 4026              		.loc 1 834 0 is_stmt 0 discriminator 1
 4027 0e50 BB68     		ldr	r3, [r7, #8]
 4028 0e52 0B2B     		cmp	r3, #11
 4029 0e54 C6D9     		bls	.L229
 843:.\Protocolo.c **** 						}
 844:.\Protocolo.c **** 					}
 845:.\Protocolo.c **** 					bufferLCD1.totalMoney3[0]=12;
 4030              		.loc 1 845 0 is_stmt 1
 4031 0e56 6A4B     		ldr	r3, .L357+4
 4032 0e58 0C22     		movs	r2, #12
 4033 0e5a 83F84920 		strb	r2, [r3, #73]
 846:.\Protocolo.c **** 					j=12;
 4034              		.loc 1 846 0
 4035 0e5e 0C23     		movs	r3, #12
 4036 0e60 FB60     		str	r3, [r7, #12]
 847:.\Protocolo.c **** 					for(x=0;x<=11;x++){
 4037              		.loc 1 847 0
 4038 0e62 0023     		movs	r3, #0
 4039 0e64 BB60     		str	r3, [r7, #8]
 4040 0e66 15E0     		b	.L230
ARM GAS  C:\Users\PROYEC~1\AppData\Local\Temp\ccuck2D9.s 			page 89


 4041              	.L231:
 848:.\Protocolo.c **** 						bufferLCD1.totalMoney3[j]=(Pump_AL_rxBuffer[101+x]&0x0F)+0x30;
 4042              		.loc 1 848 0 discriminator 3
 4043 0e68 BB68     		ldr	r3, [r7, #8]
 4044 0e6a 6533     		adds	r3, r3, #101
 4045 0e6c 634A     		ldr	r2, .L357
 4046 0e6e D35C     		ldrb	r3, [r2, r3]
 4047 0e70 DBB2     		uxtb	r3, r3
 4048 0e72 03F00F03 		and	r3, r3, #15
 4049 0e76 DBB2     		uxtb	r3, r3
 4050 0e78 3033     		adds	r3, r3, #48
 4051 0e7a D9B2     		uxtb	r1, r3
 4052 0e7c 604A     		ldr	r2, .L357+4
 4053 0e7e FB68     		ldr	r3, [r7, #12]
 4054 0e80 1344     		add	r3, r3, r2
 4055 0e82 4833     		adds	r3, r3, #72
 4056 0e84 0A46     		mov	r2, r1
 4057 0e86 5A70     		strb	r2, [r3, #1]
 849:.\Protocolo.c **** 						j--;
 4058              		.loc 1 849 0 discriminator 3
 4059 0e88 FB68     		ldr	r3, [r7, #12]
 4060 0e8a 013B     		subs	r3, r3, #1
 4061 0e8c FB60     		str	r3, [r7, #12]
 847:.\Protocolo.c **** 					for(x=0;x<=11;x++){
 4062              		.loc 1 847 0 discriminator 3
 4063 0e8e BB68     		ldr	r3, [r7, #8]
 4064 0e90 0133     		adds	r3, r3, #1
 4065 0e92 BB60     		str	r3, [r7, #8]
 4066              	.L230:
 847:.\Protocolo.c **** 					for(x=0;x<=11;x++){
 4067              		.loc 1 847 0 is_stmt 0 discriminator 1
 4068 0e94 BB68     		ldr	r3, [r7, #8]
 4069 0e96 0B2B     		cmp	r3, #11
 4070 0e98 E6D9     		bls	.L231
 850:.\Protocolo.c **** 					}
 851:.\Protocolo.c ****                     bufferLCD1.ppu3[0]=6;
 4071              		.loc 1 851 0 is_stmt 1
 4072 0e9a 594B     		ldr	r3, .L357+4
 4073 0e9c 0622     		movs	r2, #6
 4074 0e9e 83F8AD20 		strb	r2, [r3, #173]
 852:.\Protocolo.c ****                     j=6;
 4075              		.loc 1 852 0
 4076 0ea2 0623     		movs	r3, #6
 4077 0ea4 FB60     		str	r3, [r7, #12]
 853:.\Protocolo.c ****                     for(x=0;x<=5;x++){
 4078              		.loc 1 853 0
 4079 0ea6 0023     		movs	r3, #0
 4080 0ea8 BB60     		str	r3, [r7, #8]
 4081 0eaa 15E0     		b	.L232
 4082              	.L233:
 854:.\Protocolo.c ****                         bufferLCD1.ppu3[j]=(Pump_AL_rxBuffer[x+114]&0x0F)+0x30;
 4083              		.loc 1 854 0 discriminator 3
 4084 0eac BB68     		ldr	r3, [r7, #8]
 4085 0eae 7233     		adds	r3, r3, #114
 4086 0eb0 524A     		ldr	r2, .L357
 4087 0eb2 D35C     		ldrb	r3, [r2, r3]
 4088 0eb4 DBB2     		uxtb	r3, r3
ARM GAS  C:\Users\PROYEC~1\AppData\Local\Temp\ccuck2D9.s 			page 90


 4089 0eb6 03F00F03 		and	r3, r3, #15
 4090 0eba DBB2     		uxtb	r3, r3
 4091 0ebc 3033     		adds	r3, r3, #48
 4092 0ebe D9B2     		uxtb	r1, r3
 4093 0ec0 4F4A     		ldr	r2, .L357+4
 4094 0ec2 FB68     		ldr	r3, [r7, #12]
 4095 0ec4 1344     		add	r3, r3, r2
 4096 0ec6 A833     		adds	r3, r3, #168
 4097 0ec8 0A46     		mov	r2, r1
 4098 0eca 5A71     		strb	r2, [r3, #5]
 855:.\Protocolo.c ****                         j--;
 4099              		.loc 1 855 0 discriminator 3
 4100 0ecc FB68     		ldr	r3, [r7, #12]
 4101 0ece 013B     		subs	r3, r3, #1
 4102 0ed0 FB60     		str	r3, [r7, #12]
 853:.\Protocolo.c ****                     for(x=0;x<=5;x++){
 4103              		.loc 1 853 0 discriminator 3
 4104 0ed2 BB68     		ldr	r3, [r7, #8]
 4105 0ed4 0133     		adds	r3, r3, #1
 4106 0ed6 BB60     		str	r3, [r7, #8]
 4107              	.L232:
 853:.\Protocolo.c ****                     for(x=0;x<=5;x++){
 4108              		.loc 1 853 0 is_stmt 0 discriminator 1
 4109 0ed8 BB68     		ldr	r3, [r7, #8]
 4110 0eda 052B     		cmp	r3, #5
 4111 0edc E6D9     		bls	.L233
 856:.\Protocolo.c ****                     }
 857:.\Protocolo.c **** 					Pump_AL_ClearRxBuffer();
 4112              		.loc 1 857 0 is_stmt 1
 4113 0ede FFF7FEFF 		bl	Pump_AL_ClearRxBuffer
 858:.\Protocolo.c **** 					return 3;
 4114              		.loc 1 858 0
 4115 0ee2 0323     		movs	r3, #3
 4116 0ee4 00F070BF 		b	.L140
 4117              	.L209:
 859:.\Protocolo.c **** 				}
 860:.\Protocolo.c **** 				else{
 861:.\Protocolo.c **** 					return 0;
 4118              		.loc 1 861 0
 4119 0ee8 0023     		movs	r3, #0
 4120 0eea 00F06DBF 		b	.L140
 4121              	.L123:
 862:.\Protocolo.c **** 				}
 863:.\Protocolo.c **** 			break;
 864:.\Protocolo.c **** 				
 865:.\Protocolo.c **** 			default:
 866:.\Protocolo.c **** 				return 0;	
 4122              		.loc 1 866 0
 4123 0eee 0023     		movs	r3, #0
 4124 0ef0 00F06ABF 		b	.L140
 4125              	.L120:
 867:.\Protocolo.c **** 			break;		
 868:.\Protocolo.c **** 		}
 869:.\Protocolo.c **** 	}else if(dir==side.b.dir){
 4126              		.loc 1 869 0
 4127 0ef4 434B     		ldr	r3, .L357+8
 4128 0ef6 93F86931 		ldrb	r3, [r3, #361]	@ zero_extendqisi2
ARM GAS  C:\Users\PROYEC~1\AppData\Local\Temp\ccuck2D9.s 			page 91


 4129 0efa FA79     		ldrb	r2, [r7, #7]	@ zero_extendqisi2
 4130 0efc 9A42     		cmp	r2, r3
 4131 0efe 40F06287 		bne	.L234
 870:.\Protocolo.c ****         side.b.total[0]=Pump_AL_GetRxBufferSize();
 4132              		.loc 1 870 0
 4133 0f02 FFF7FEFF 		bl	Pump_AL_GetRxBufferSize
 4134 0f06 0346     		mov	r3, r0
 4135 0f08 DAB2     		uxtb	r2, r3
 4136 0f0a 3E4B     		ldr	r3, .L357+8
 4137 0f0c 83F8CD21 		strb	r2, [r3, #461]
 871:.\Protocolo.c ****         for(x=1;x<=side.b.total[0];x++){
 4138              		.loc 1 871 0
 4139 0f10 0123     		movs	r3, #1
 4140 0f12 BB60     		str	r3, [r7, #8]
 4141 0f14 0EE0     		b	.L235
 4142              	.L236:
 872:.\Protocolo.c ****             side.b.total[x]=Pump_AL_rxBuffer[x-1];
 4143              		.loc 1 872 0 discriminator 3
 4144 0f16 BB68     		ldr	r3, [r7, #8]
 4145 0f18 013B     		subs	r3, r3, #1
 4146 0f1a 384A     		ldr	r2, .L357
 4147 0f1c D35C     		ldrb	r3, [r2, r3]
 4148 0f1e D9B2     		uxtb	r1, r3
 4149 0f20 384A     		ldr	r2, .L357+8
 4150 0f22 BB68     		ldr	r3, [r7, #8]
 4151 0f24 1344     		add	r3, r3, r2
 4152 0f26 03F5E473 		add	r3, r3, #456
 4153 0f2a 0A46     		mov	r2, r1
 4154 0f2c 5A71     		strb	r2, [r3, #5]
 871:.\Protocolo.c ****         for(x=1;x<=side.b.total[0];x++){
 4155              		.loc 1 871 0 discriminator 3
 4156 0f2e BB68     		ldr	r3, [r7, #8]
 4157 0f30 0133     		adds	r3, r3, #1
 4158 0f32 BB60     		str	r3, [r7, #8]
 4159              	.L235:
 871:.\Protocolo.c ****         for(x=1;x<=side.b.total[0];x++){
 4160              		.loc 1 871 0 is_stmt 0 discriminator 1
 4161 0f34 334B     		ldr	r3, .L357+8
 4162 0f36 93F8CD31 		ldrb	r3, [r3, #461]	@ zero_extendqisi2
 4163 0f3a 1A46     		mov	r2, r3
 4164 0f3c BB68     		ldr	r3, [r7, #8]
 4165 0f3e 9A42     		cmp	r2, r3
 4166 0f40 E9D2     		bcs	.L236
 873:.\Protocolo.c ****         }
 874:.\Protocolo.c **** 		switch(side.b.total[0]){
 4167              		.loc 1 874 0 is_stmt 1
 4168 0f42 304B     		ldr	r3, .L357+8
 4169 0f44 93F8CD31 		ldrb	r3, [r3, #461]	@ zero_extendqisi2
 4170 0f48 402B     		cmp	r3, #64
 4171 0f4a 00F0C480 		beq	.L238
 4172 0f4e 402B     		cmp	r3, #64
 4173 0f50 06DC     		bgt	.L239
 4174 0f52 222B     		cmp	r3, #34
 4175 0f54 0FD0     		beq	.L240
 4176 0f56 2E2B     		cmp	r3, #46
 4177 0f58 00F0A583 		beq	.L241
 4178 0f5c 00F031BF 		b	.L237
ARM GAS  C:\Users\PROYEC~1\AppData\Local\Temp\ccuck2D9.s 			page 92


 4179              	.L239:
 4180 0f60 5E2B     		cmp	r3, #94
 4181 0f62 00F0EA81 		beq	.L242
 4182 0f66 822B     		cmp	r3, #130
 4183 0f68 00F07185 		beq	.L243
 4184 0f6c 582B     		cmp	r3, #88
 4185 0f6e 00F04384 		beq	.L244
 4186 0f72 00F026BF 		b	.L237
 4187              	.L240:
 875:.\Protocolo.c **** 			case 34://5 digitos una manguera
 876:.\Protocolo.c **** 				if((Pump_AL_rxBuffer[0]==0xFF)&&(Pump_AL_rxBuffer[1]==0xF6)&&(Pump_AL_rxBuffer[33]==0xF0)&&(Pum
 4188              		.loc 1 876 0
 4189 0f76 214B     		ldr	r3, .L357
 4190 0f78 1B78     		ldrb	r3, [r3]
 4191 0f7a DBB2     		uxtb	r3, r3
 4192 0f7c FF2B     		cmp	r3, #255
 4193 0f7e 40F0A780 		bne	.L245
 4194              		.loc 1 876 0 is_stmt 0 discriminator 1
 4195 0f82 1E4B     		ldr	r3, .L357
 4196 0f84 5B78     		ldrb	r3, [r3, #1]
 4197 0f86 DBB2     		uxtb	r3, r3
 4198 0f88 F62B     		cmp	r3, #246
 4199 0f8a 40F0A180 		bne	.L245
 4200              		.loc 1 876 0 discriminator 2
 4201 0f8e 1B4B     		ldr	r3, .L357
 4202 0f90 93F82130 		ldrb	r3, [r3, #33]
 4203 0f94 DBB2     		uxtb	r3, r3
 4204 0f96 F02B     		cmp	r3, #240
 4205 0f98 40F09A80 		bne	.L245
 4206              		.loc 1 876 0 discriminator 3
 4207 0f9c 174B     		ldr	r3, .L357
 4208 0f9e DB78     		ldrb	r3, [r3, #3]
 4209 0fa0 DBB2     		uxtb	r3, r3
 4210 0fa2 F92B     		cmp	r3, #249
 4211 0fa4 40F09480 		bne	.L245
 877:.\Protocolo.c **** 					bufferLCD2.totalVolume1[0]=9;
 4212              		.loc 1 877 0 is_stmt 1
 4213 0fa8 174B     		ldr	r3, .L357+12
 4214 0faa 0922     		movs	r2, #9
 4215 0fac 83F85D20 		strb	r2, [r3, #93]
 878:.\Protocolo.c **** 					j=9;
 4216              		.loc 1 878 0
 4217 0fb0 0923     		movs	r3, #9
 4218 0fb2 FB60     		str	r3, [r7, #12]
 879:.\Protocolo.c **** 					for(x=0;x<=7;x++){
 4219              		.loc 1 879 0
 4220 0fb4 0023     		movs	r3, #0
 4221 0fb6 BB60     		str	r3, [r7, #8]
 4222 0fb8 3EE0     		b	.L246
 4223              	.L249:
 880:.\Protocolo.c **** 						if(x==2){
 4224              		.loc 1 880 0
 4225 0fba BB68     		ldr	r3, [r7, #8]
 4226 0fbc 022B     		cmp	r3, #2
 4227 0fbe 25D1     		bne	.L247
 881:.\Protocolo.c **** 							bufferLCD2.totalVolume1[j]=',';
 4228              		.loc 1 881 0
ARM GAS  C:\Users\PROYEC~1\AppData\Local\Temp\ccuck2D9.s 			page 93


 4229 0fc0 114A     		ldr	r2, .L357+12
 4230 0fc2 FB68     		ldr	r3, [r7, #12]
 4231 0fc4 1344     		add	r3, r3, r2
 4232 0fc6 5833     		adds	r3, r3, #88
 4233 0fc8 2C22     		movs	r2, #44
 4234 0fca 5A71     		strb	r2, [r3, #5]
 882:.\Protocolo.c **** 							j--;
 4235              		.loc 1 882 0
 4236 0fcc FB68     		ldr	r3, [r7, #12]
 4237 0fce 013B     		subs	r3, r3, #1
 4238 0fd0 FB60     		str	r3, [r7, #12]
 883:.\Protocolo.c **** 							bufferLCD2.totalVolume1[j]=(Pump_AL_rxBuffer[x+4]&0x0F)+0x30;
 4239              		.loc 1 883 0
 4240 0fd2 BB68     		ldr	r3, [r7, #8]
 4241 0fd4 0433     		adds	r3, r3, #4
 4242 0fd6 094A     		ldr	r2, .L357
 4243 0fd8 D35C     		ldrb	r3, [r2, r3]
 4244 0fda DBB2     		uxtb	r3, r3
 4245 0fdc 03F00F03 		and	r3, r3, #15
 4246 0fe0 DBB2     		uxtb	r3, r3
 4247 0fe2 3033     		adds	r3, r3, #48
 4248 0fe4 D9B2     		uxtb	r1, r3
 4249 0fe6 084A     		ldr	r2, .L357+12
 4250 0fe8 FB68     		ldr	r3, [r7, #12]
 4251 0fea 1344     		add	r3, r3, r2
 4252 0fec 5833     		adds	r3, r3, #88
 4253 0fee 0A46     		mov	r2, r1
 4254 0ff0 5A71     		strb	r2, [r3, #5]
 884:.\Protocolo.c **** 							j--;
 4255              		.loc 1 884 0
 4256 0ff2 FB68     		ldr	r3, [r7, #12]
 4257 0ff4 013B     		subs	r3, r3, #1
 4258 0ff6 FB60     		str	r3, [r7, #12]
 4259 0ff8 1BE0     		b	.L248
 4260              	.L358:
 4261 0ffa 00BF     		.align	2
 4262              	.L357:
 4263 0ffc 00000000 		.word	Pump_AL_rxBuffer
 4264 1000 00000000 		.word	bufferLCD1
 4265 1004 00000000 		.word	side
 4266 1008 00000000 		.word	bufferLCD2
 4267              	.L247:
 885:.\Protocolo.c **** 						}else{
 886:.\Protocolo.c **** 							bufferLCD2.totalVolume1[j]=(Pump_AL_rxBuffer[x+4]&0x0F)+0x30;
 4268              		.loc 1 886 0
 4269 100c BB68     		ldr	r3, [r7, #8]
 4270 100e 0433     		adds	r3, r3, #4
 4271 1010 A64A     		ldr	r2, .L359
 4272 1012 D35C     		ldrb	r3, [r2, r3]
 4273 1014 DBB2     		uxtb	r3, r3
 4274 1016 03F00F03 		and	r3, r3, #15
 4275 101a DBB2     		uxtb	r3, r3
 4276 101c 3033     		adds	r3, r3, #48
 4277 101e D9B2     		uxtb	r1, r3
 4278 1020 A34A     		ldr	r2, .L359+4
 4279 1022 FB68     		ldr	r3, [r7, #12]
 4280 1024 1344     		add	r3, r3, r2
ARM GAS  C:\Users\PROYEC~1\AppData\Local\Temp\ccuck2D9.s 			page 94


 4281 1026 5833     		adds	r3, r3, #88
 4282 1028 0A46     		mov	r2, r1
 4283 102a 5A71     		strb	r2, [r3, #5]
 887:.\Protocolo.c **** 							j--;
 4284              		.loc 1 887 0
 4285 102c FB68     		ldr	r3, [r7, #12]
 4286 102e 013B     		subs	r3, r3, #1
 4287 1030 FB60     		str	r3, [r7, #12]
 4288              	.L248:
 879:.\Protocolo.c **** 						if(x==2){
 4289              		.loc 1 879 0 discriminator 2
 4290 1032 BB68     		ldr	r3, [r7, #8]
 4291 1034 0133     		adds	r3, r3, #1
 4292 1036 BB60     		str	r3, [r7, #8]
 4293              	.L246:
 879:.\Protocolo.c **** 						if(x==2){
 4294              		.loc 1 879 0 is_stmt 0 discriminator 1
 4295 1038 BB68     		ldr	r3, [r7, #8]
 4296 103a 072B     		cmp	r3, #7
 4297 103c BDD9     		bls	.L249
 888:.\Protocolo.c **** 						}
 889:.\Protocolo.c **** 					}
 890:.\Protocolo.c **** 					bufferLCD2.totalMoney1[0]=8;
 4298              		.loc 1 890 0 is_stmt 1
 4299 103e 9C4B     		ldr	r3, .L359+4
 4300 1040 0822     		movs	r2, #8
 4301 1042 83F82120 		strb	r2, [r3, #33]
 891:.\Protocolo.c **** 					j=8;
 4302              		.loc 1 891 0
 4303 1046 0823     		movs	r3, #8
 4304 1048 FB60     		str	r3, [r7, #12]
 892:.\Protocolo.c **** 					for(x=0;x<=7;x++){
 4305              		.loc 1 892 0
 4306 104a 0023     		movs	r3, #0
 4307 104c BB60     		str	r3, [r7, #8]
 4308 104e 15E0     		b	.L250
 4309              	.L251:
 893:.\Protocolo.c **** 						bufferLCD2.totalMoney1[j]=(Pump_AL_rxBuffer[x+13]&0x0F)+0x30;
 4310              		.loc 1 893 0 discriminator 3
 4311 1050 BB68     		ldr	r3, [r7, #8]
 4312 1052 0D33     		adds	r3, r3, #13
 4313 1054 954A     		ldr	r2, .L359
 4314 1056 D35C     		ldrb	r3, [r2, r3]
 4315 1058 DBB2     		uxtb	r3, r3
 4316 105a 03F00F03 		and	r3, r3, #15
 4317 105e DBB2     		uxtb	r3, r3
 4318 1060 3033     		adds	r3, r3, #48
 4319 1062 D9B2     		uxtb	r1, r3
 4320 1064 924A     		ldr	r2, .L359+4
 4321 1066 FB68     		ldr	r3, [r7, #12]
 4322 1068 1344     		add	r3, r3, r2
 4323 106a 2033     		adds	r3, r3, #32
 4324 106c 0A46     		mov	r2, r1
 4325 106e 5A70     		strb	r2, [r3, #1]
 894:.\Protocolo.c **** 						j--;
 4326              		.loc 1 894 0 discriminator 3
 4327 1070 FB68     		ldr	r3, [r7, #12]
ARM GAS  C:\Users\PROYEC~1\AppData\Local\Temp\ccuck2D9.s 			page 95


 4328 1072 013B     		subs	r3, r3, #1
 4329 1074 FB60     		str	r3, [r7, #12]
 892:.\Protocolo.c **** 					for(x=0;x<=7;x++){
 4330              		.loc 1 892 0 discriminator 3
 4331 1076 BB68     		ldr	r3, [r7, #8]
 4332 1078 0133     		adds	r3, r3, #1
 4333 107a BB60     		str	r3, [r7, #8]
 4334              	.L250:
 892:.\Protocolo.c **** 					for(x=0;x<=7;x++){
 4335              		.loc 1 892 0 is_stmt 0 discriminator 1
 4336 107c BB68     		ldr	r3, [r7, #8]
 4337 107e 072B     		cmp	r3, #7
 4338 1080 E6D9     		bls	.L251
 895:.\Protocolo.c **** 					}
 896:.\Protocolo.c ****                     bufferLCD2.ppu1[0]=4;
 4339              		.loc 1 896 0 is_stmt 1
 4340 1082 8B4B     		ldr	r3, .L359+4
 4341 1084 0422     		movs	r2, #4
 4342 1086 83F89920 		strb	r2, [r3, #153]
 897:.\Protocolo.c ****                     j=4;
 4343              		.loc 1 897 0
 4344 108a 0423     		movs	r3, #4
 4345 108c FB60     		str	r3, [r7, #12]
 898:.\Protocolo.c ****                     for(x=0;x<=3;x++){
 4346              		.loc 1 898 0
 4347 108e 0023     		movs	r3, #0
 4348 1090 BB60     		str	r3, [r7, #8]
 4349 1092 15E0     		b	.L252
 4350              	.L253:
 899:.\Protocolo.c ****                         bufferLCD2.ppu1[j]=(Pump_AL_rxBuffer[x+22]&0x0F)+0x30;
 4351              		.loc 1 899 0 discriminator 3
 4352 1094 BB68     		ldr	r3, [r7, #8]
 4353 1096 1633     		adds	r3, r3, #22
 4354 1098 844A     		ldr	r2, .L359
 4355 109a D35C     		ldrb	r3, [r2, r3]
 4356 109c DBB2     		uxtb	r3, r3
 4357 109e 03F00F03 		and	r3, r3, #15
 4358 10a2 DBB2     		uxtb	r3, r3
 4359 10a4 3033     		adds	r3, r3, #48
 4360 10a6 D9B2     		uxtb	r1, r3
 4361 10a8 814A     		ldr	r2, .L359+4
 4362 10aa FB68     		ldr	r3, [r7, #12]
 4363 10ac 1344     		add	r3, r3, r2
 4364 10ae 9833     		adds	r3, r3, #152
 4365 10b0 0A46     		mov	r2, r1
 4366 10b2 5A70     		strb	r2, [r3, #1]
 900:.\Protocolo.c ****                         j--;
 4367              		.loc 1 900 0 discriminator 3
 4368 10b4 FB68     		ldr	r3, [r7, #12]
 4369 10b6 013B     		subs	r3, r3, #1
 4370 10b8 FB60     		str	r3, [r7, #12]
 898:.\Protocolo.c ****                     for(x=0;x<=3;x++){
 4371              		.loc 1 898 0 discriminator 3
 4372 10ba BB68     		ldr	r3, [r7, #8]
 4373 10bc 0133     		adds	r3, r3, #1
 4374 10be BB60     		str	r3, [r7, #8]
 4375              	.L252:
ARM GAS  C:\Users\PROYEC~1\AppData\Local\Temp\ccuck2D9.s 			page 96


 898:.\Protocolo.c ****                     for(x=0;x<=3;x++){
 4376              		.loc 1 898 0 is_stmt 0 discriminator 1
 4377 10c0 BB68     		ldr	r3, [r7, #8]
 4378 10c2 032B     		cmp	r3, #3
 4379 10c4 E6D9     		bls	.L253
 901:.\Protocolo.c ****                     }
 902:.\Protocolo.c **** 					Pump_AL_ClearRxBuffer();
 4380              		.loc 1 902 0 is_stmt 1
 4381 10c6 FFF7FEFF 		bl	Pump_AL_ClearRxBuffer
 903:.\Protocolo.c **** 					return 1;
 4382              		.loc 1 903 0
 4383 10ca 0123     		movs	r3, #1
 4384 10cc 00F07CBE 		b	.L140
 4385              	.L245:
 904:.\Protocolo.c **** 				}
 905:.\Protocolo.c **** 				else{
 906:.\Protocolo.c **** 					return 0;
 4386              		.loc 1 906 0
 4387 10d0 0023     		movs	r3, #0
 4388 10d2 00F079BE 		b	.L140
 4389              	.L238:
 907:.\Protocolo.c **** 				}
 908:.\Protocolo.c **** 			break;
 909:.\Protocolo.c **** 			
 910:.\Protocolo.c **** 			case 64://5 digitos dos mangueras
 911:.\Protocolo.c **** 				if((Pump_AL_rxBuffer[0]==0xFF)&&(Pump_AL_rxBuffer[1]==0xF6)&&(Pump_AL_rxBuffer[63]==0xF0)&&(Pum
 4390              		.loc 1 911 0
 4391 10d6 754B     		ldr	r3, .L359
 4392 10d8 1B78     		ldrb	r3, [r3]
 4393 10da DBB2     		uxtb	r3, r3
 4394 10dc FF2B     		cmp	r3, #255
 4395 10de 40F02981 		bne	.L254
 4396              		.loc 1 911 0 is_stmt 0 discriminator 1
 4397 10e2 724B     		ldr	r3, .L359
 4398 10e4 5B78     		ldrb	r3, [r3, #1]
 4399 10e6 DBB2     		uxtb	r3, r3
 4400 10e8 F62B     		cmp	r3, #246
 4401 10ea 40F02381 		bne	.L254
 4402              		.loc 1 911 0 discriminator 2
 4403 10ee 6F4B     		ldr	r3, .L359
 4404 10f0 93F83F30 		ldrb	r3, [r3, #63]
 4405 10f4 DBB2     		uxtb	r3, r3
 4406 10f6 F02B     		cmp	r3, #240
 4407 10f8 40F01C81 		bne	.L254
 4408              		.loc 1 911 0 discriminator 3
 4409 10fc 6B4B     		ldr	r3, .L359
 4410 10fe DB78     		ldrb	r3, [r3, #3]
 4411 1100 DBB2     		uxtb	r3, r3
 4412 1102 F92B     		cmp	r3, #249
 4413 1104 40F01681 		bne	.L254
 912:.\Protocolo.c **** 					bufferLCD2.totalVolume1[0]=9;
 4414              		.loc 1 912 0 is_stmt 1
 4415 1108 694B     		ldr	r3, .L359+4
 4416 110a 0922     		movs	r2, #9
 4417 110c 83F85D20 		strb	r2, [r3, #93]
 913:.\Protocolo.c **** 					j=9;
 4418              		.loc 1 913 0
ARM GAS  C:\Users\PROYEC~1\AppData\Local\Temp\ccuck2D9.s 			page 97


 4419 1110 0923     		movs	r3, #9
 4420 1112 FB60     		str	r3, [r7, #12]
 914:.\Protocolo.c **** 					for(x=0;x<=7;x++){
 4421              		.loc 1 914 0
 4422 1114 0023     		movs	r3, #0
 4423 1116 BB60     		str	r3, [r7, #8]
 4424 1118 35E0     		b	.L255
 4425              	.L258:
 915:.\Protocolo.c **** 						if(x==2){
 4426              		.loc 1 915 0
 4427 111a BB68     		ldr	r3, [r7, #8]
 4428 111c 022B     		cmp	r3, #2
 4429 111e 1CD1     		bne	.L256
 916:.\Protocolo.c **** 							bufferLCD2.totalVolume1[j]=',';
 4430              		.loc 1 916 0
 4431 1120 634A     		ldr	r2, .L359+4
 4432 1122 FB68     		ldr	r3, [r7, #12]
 4433 1124 1344     		add	r3, r3, r2
 4434 1126 5833     		adds	r3, r3, #88
 4435 1128 2C22     		movs	r2, #44
 4436 112a 5A71     		strb	r2, [r3, #5]
 917:.\Protocolo.c **** 							j--;
 4437              		.loc 1 917 0
 4438 112c FB68     		ldr	r3, [r7, #12]
 4439 112e 013B     		subs	r3, r3, #1
 4440 1130 FB60     		str	r3, [r7, #12]
 918:.\Protocolo.c **** 							bufferLCD2.totalVolume1[j]=(Pump_AL_rxBuffer[4+x]&0x0F)+0x30;
 4441              		.loc 1 918 0
 4442 1132 BB68     		ldr	r3, [r7, #8]
 4443 1134 0433     		adds	r3, r3, #4
 4444 1136 5D4A     		ldr	r2, .L359
 4445 1138 D35C     		ldrb	r3, [r2, r3]
 4446 113a DBB2     		uxtb	r3, r3
 4447 113c 03F00F03 		and	r3, r3, #15
 4448 1140 DBB2     		uxtb	r3, r3
 4449 1142 3033     		adds	r3, r3, #48
 4450 1144 D9B2     		uxtb	r1, r3
 4451 1146 5A4A     		ldr	r2, .L359+4
 4452 1148 FB68     		ldr	r3, [r7, #12]
 4453 114a 1344     		add	r3, r3, r2
 4454 114c 5833     		adds	r3, r3, #88
 4455 114e 0A46     		mov	r2, r1
 4456 1150 5A71     		strb	r2, [r3, #5]
 919:.\Protocolo.c **** 							j--;
 4457              		.loc 1 919 0
 4458 1152 FB68     		ldr	r3, [r7, #12]
 4459 1154 013B     		subs	r3, r3, #1
 4460 1156 FB60     		str	r3, [r7, #12]
 4461 1158 12E0     		b	.L257
 4462              	.L256:
 920:.\Protocolo.c **** 						}else{
 921:.\Protocolo.c **** 							bufferLCD2.totalVolume1[j]=(Pump_AL_rxBuffer[4+x]&0x0F)+0x30;
 4463              		.loc 1 921 0
 4464 115a BB68     		ldr	r3, [r7, #8]
 4465 115c 0433     		adds	r3, r3, #4
 4466 115e 534A     		ldr	r2, .L359
 4467 1160 D35C     		ldrb	r3, [r2, r3]
ARM GAS  C:\Users\PROYEC~1\AppData\Local\Temp\ccuck2D9.s 			page 98


 4468 1162 DBB2     		uxtb	r3, r3
 4469 1164 03F00F03 		and	r3, r3, #15
 4470 1168 DBB2     		uxtb	r3, r3
 4471 116a 3033     		adds	r3, r3, #48
 4472 116c D9B2     		uxtb	r1, r3
 4473 116e 504A     		ldr	r2, .L359+4
 4474 1170 FB68     		ldr	r3, [r7, #12]
 4475 1172 1344     		add	r3, r3, r2
 4476 1174 5833     		adds	r3, r3, #88
 4477 1176 0A46     		mov	r2, r1
 4478 1178 5A71     		strb	r2, [r3, #5]
 922:.\Protocolo.c **** 							j--;
 4479              		.loc 1 922 0
 4480 117a FB68     		ldr	r3, [r7, #12]
 4481 117c 013B     		subs	r3, r3, #1
 4482 117e FB60     		str	r3, [r7, #12]
 4483              	.L257:
 914:.\Protocolo.c **** 						if(x==2){
 4484              		.loc 1 914 0 discriminator 2
 4485 1180 BB68     		ldr	r3, [r7, #8]
 4486 1182 0133     		adds	r3, r3, #1
 4487 1184 BB60     		str	r3, [r7, #8]
 4488              	.L255:
 914:.\Protocolo.c **** 						if(x==2){
 4489              		.loc 1 914 0 is_stmt 0 discriminator 1
 4490 1186 BB68     		ldr	r3, [r7, #8]
 4491 1188 072B     		cmp	r3, #7
 4492 118a C6D9     		bls	.L258
 923:.\Protocolo.c **** 						}
 924:.\Protocolo.c **** 					}
 925:.\Protocolo.c **** 					bufferLCD2.totalMoney1[0]=8;
 4493              		.loc 1 925 0 is_stmt 1
 4494 118c 484B     		ldr	r3, .L359+4
 4495 118e 0822     		movs	r2, #8
 4496 1190 83F82120 		strb	r2, [r3, #33]
 926:.\Protocolo.c **** 					j=8;
 4497              		.loc 1 926 0
 4498 1194 0823     		movs	r3, #8
 4499 1196 FB60     		str	r3, [r7, #12]
 927:.\Protocolo.c **** 					for(x=0;x<=7;x++){
 4500              		.loc 1 927 0
 4501 1198 0023     		movs	r3, #0
 4502 119a BB60     		str	r3, [r7, #8]
 4503 119c 15E0     		b	.L259
 4504              	.L260:
 928:.\Protocolo.c **** 						bufferLCD2.totalMoney1[j]=(Pump_AL_rxBuffer[13+x]&0x0F)+0x30;
 4505              		.loc 1 928 0 discriminator 3
 4506 119e BB68     		ldr	r3, [r7, #8]
 4507 11a0 0D33     		adds	r3, r3, #13
 4508 11a2 424A     		ldr	r2, .L359
 4509 11a4 D35C     		ldrb	r3, [r2, r3]
 4510 11a6 DBB2     		uxtb	r3, r3
 4511 11a8 03F00F03 		and	r3, r3, #15
 4512 11ac DBB2     		uxtb	r3, r3
 4513 11ae 3033     		adds	r3, r3, #48
 4514 11b0 D9B2     		uxtb	r1, r3
 4515 11b2 3F4A     		ldr	r2, .L359+4
ARM GAS  C:\Users\PROYEC~1\AppData\Local\Temp\ccuck2D9.s 			page 99


 4516 11b4 FB68     		ldr	r3, [r7, #12]
 4517 11b6 1344     		add	r3, r3, r2
 4518 11b8 2033     		adds	r3, r3, #32
 4519 11ba 0A46     		mov	r2, r1
 4520 11bc 5A70     		strb	r2, [r3, #1]
 929:.\Protocolo.c **** 						j--;
 4521              		.loc 1 929 0 discriminator 3
 4522 11be FB68     		ldr	r3, [r7, #12]
 4523 11c0 013B     		subs	r3, r3, #1
 4524 11c2 FB60     		str	r3, [r7, #12]
 927:.\Protocolo.c **** 					for(x=0;x<=7;x++){
 4525              		.loc 1 927 0 discriminator 3
 4526 11c4 BB68     		ldr	r3, [r7, #8]
 4527 11c6 0133     		adds	r3, r3, #1
 4528 11c8 BB60     		str	r3, [r7, #8]
 4529              	.L259:
 927:.\Protocolo.c **** 					for(x=0;x<=7;x++){
 4530              		.loc 1 927 0 is_stmt 0 discriminator 1
 4531 11ca BB68     		ldr	r3, [r7, #8]
 4532 11cc 072B     		cmp	r3, #7
 4533 11ce E6D9     		bls	.L260
 930:.\Protocolo.c **** 					}
 931:.\Protocolo.c ****                     bufferLCD2.ppu1[0]=4;
 4534              		.loc 1 931 0 is_stmt 1
 4535 11d0 374B     		ldr	r3, .L359+4
 4536 11d2 0422     		movs	r2, #4
 4537 11d4 83F89920 		strb	r2, [r3, #153]
 932:.\Protocolo.c ****                     j=4;
 4538              		.loc 1 932 0
 4539 11d8 0423     		movs	r3, #4
 4540 11da FB60     		str	r3, [r7, #12]
 933:.\Protocolo.c ****                     for(x=0;x<=3;x++){
 4541              		.loc 1 933 0
 4542 11dc 0023     		movs	r3, #0
 4543 11de BB60     		str	r3, [r7, #8]
 4544 11e0 15E0     		b	.L261
 4545              	.L262:
 934:.\Protocolo.c ****                         bufferLCD2.ppu1[j]=(Pump_AL_rxBuffer[x+22]&0x0F)+0x30;
 4546              		.loc 1 934 0 discriminator 3
 4547 11e2 BB68     		ldr	r3, [r7, #8]
 4548 11e4 1633     		adds	r3, r3, #22
 4549 11e6 314A     		ldr	r2, .L359
 4550 11e8 D35C     		ldrb	r3, [r2, r3]
 4551 11ea DBB2     		uxtb	r3, r3
 4552 11ec 03F00F03 		and	r3, r3, #15
 4553 11f0 DBB2     		uxtb	r3, r3
 4554 11f2 3033     		adds	r3, r3, #48
 4555 11f4 D9B2     		uxtb	r1, r3
 4556 11f6 2E4A     		ldr	r2, .L359+4
 4557 11f8 FB68     		ldr	r3, [r7, #12]
 4558 11fa 1344     		add	r3, r3, r2
 4559 11fc 9833     		adds	r3, r3, #152
 4560 11fe 0A46     		mov	r2, r1
 4561 1200 5A70     		strb	r2, [r3, #1]
 935:.\Protocolo.c ****                         j--;
 4562              		.loc 1 935 0 discriminator 3
 4563 1202 FB68     		ldr	r3, [r7, #12]
ARM GAS  C:\Users\PROYEC~1\AppData\Local\Temp\ccuck2D9.s 			page 100


 4564 1204 013B     		subs	r3, r3, #1
 4565 1206 FB60     		str	r3, [r7, #12]
 933:.\Protocolo.c ****                     for(x=0;x<=3;x++){
 4566              		.loc 1 933 0 discriminator 3
 4567 1208 BB68     		ldr	r3, [r7, #8]
 4568 120a 0133     		adds	r3, r3, #1
 4569 120c BB60     		str	r3, [r7, #8]
 4570              	.L261:
 933:.\Protocolo.c ****                     for(x=0;x<=3;x++){
 4571              		.loc 1 933 0 is_stmt 0 discriminator 1
 4572 120e BB68     		ldr	r3, [r7, #8]
 4573 1210 032B     		cmp	r3, #3
 4574 1212 E6D9     		bls	.L262
 936:.\Protocolo.c ****                     }
 937:.\Protocolo.c **** 					bufferLCD2.totalVolume2[0]=9;
 4575              		.loc 1 937 0 is_stmt 1
 4576 1214 264B     		ldr	r3, .L359+4
 4577 1216 0922     		movs	r2, #9
 4578 1218 83F87120 		strb	r2, [r3, #113]
 938:.\Protocolo.c **** 					j=9;
 4579              		.loc 1 938 0
 4580 121c 0923     		movs	r3, #9
 4581 121e FB60     		str	r3, [r7, #12]
 939:.\Protocolo.c **** 					for(x=0;x<=7;x++){
 4582              		.loc 1 939 0
 4583 1220 0023     		movs	r3, #0
 4584 1222 BB60     		str	r3, [r7, #8]
 4585 1224 35E0     		b	.L263
 4586              	.L266:
 940:.\Protocolo.c **** 						if(x==2){
 4587              		.loc 1 940 0
 4588 1226 BB68     		ldr	r3, [r7, #8]
 4589 1228 022B     		cmp	r3, #2
 4590 122a 1CD1     		bne	.L264
 941:.\Protocolo.c **** 							bufferLCD2.totalVolume2[j]=',';
 4591              		.loc 1 941 0
 4592 122c 204A     		ldr	r2, .L359+4
 4593 122e FB68     		ldr	r3, [r7, #12]
 4594 1230 1344     		add	r3, r3, r2
 4595 1232 7033     		adds	r3, r3, #112
 4596 1234 2C22     		movs	r2, #44
 4597 1236 5A70     		strb	r2, [r3, #1]
 942:.\Protocolo.c **** 							j--;
 4598              		.loc 1 942 0
 4599 1238 FB68     		ldr	r3, [r7, #12]
 4600 123a 013B     		subs	r3, r3, #1
 4601 123c FB60     		str	r3, [r7, #12]
 943:.\Protocolo.c **** 							bufferLCD2.totalVolume2[j]=(Pump_AL_rxBuffer[34+x]&0x0F)+0x30;
 4602              		.loc 1 943 0
 4603 123e BB68     		ldr	r3, [r7, #8]
 4604 1240 2233     		adds	r3, r3, #34
 4605 1242 1A4A     		ldr	r2, .L359
 4606 1244 D35C     		ldrb	r3, [r2, r3]
 4607 1246 DBB2     		uxtb	r3, r3
 4608 1248 03F00F03 		and	r3, r3, #15
 4609 124c DBB2     		uxtb	r3, r3
 4610 124e 3033     		adds	r3, r3, #48
ARM GAS  C:\Users\PROYEC~1\AppData\Local\Temp\ccuck2D9.s 			page 101


 4611 1250 D9B2     		uxtb	r1, r3
 4612 1252 174A     		ldr	r2, .L359+4
 4613 1254 FB68     		ldr	r3, [r7, #12]
 4614 1256 1344     		add	r3, r3, r2
 4615 1258 7033     		adds	r3, r3, #112
 4616 125a 0A46     		mov	r2, r1
 4617 125c 5A70     		strb	r2, [r3, #1]
 944:.\Protocolo.c **** 							j--;
 4618              		.loc 1 944 0
 4619 125e FB68     		ldr	r3, [r7, #12]
 4620 1260 013B     		subs	r3, r3, #1
 4621 1262 FB60     		str	r3, [r7, #12]
 4622 1264 12E0     		b	.L265
 4623              	.L264:
 945:.\Protocolo.c **** 						}else{
 946:.\Protocolo.c **** 							bufferLCD2.totalVolume2[j]=(Pump_AL_rxBuffer[34+x]&0x0F)+0x30;
 4624              		.loc 1 946 0
 4625 1266 BB68     		ldr	r3, [r7, #8]
 4626 1268 2233     		adds	r3, r3, #34
 4627 126a 104A     		ldr	r2, .L359
 4628 126c D35C     		ldrb	r3, [r2, r3]
 4629 126e DBB2     		uxtb	r3, r3
 4630 1270 03F00F03 		and	r3, r3, #15
 4631 1274 DBB2     		uxtb	r3, r3
 4632 1276 3033     		adds	r3, r3, #48
 4633 1278 D9B2     		uxtb	r1, r3
 4634 127a 0D4A     		ldr	r2, .L359+4
 4635 127c FB68     		ldr	r3, [r7, #12]
 4636 127e 1344     		add	r3, r3, r2
 4637 1280 7033     		adds	r3, r3, #112
 4638 1282 0A46     		mov	r2, r1
 4639 1284 5A70     		strb	r2, [r3, #1]
 947:.\Protocolo.c **** 							j--;
 4640              		.loc 1 947 0
 4641 1286 FB68     		ldr	r3, [r7, #12]
 4642 1288 013B     		subs	r3, r3, #1
 4643 128a FB60     		str	r3, [r7, #12]
 4644              	.L265:
 939:.\Protocolo.c **** 						if(x==2){
 4645              		.loc 1 939 0 discriminator 2
 4646 128c BB68     		ldr	r3, [r7, #8]
 4647 128e 0133     		adds	r3, r3, #1
 4648 1290 BB60     		str	r3, [r7, #8]
 4649              	.L263:
 939:.\Protocolo.c **** 						if(x==2){
 4650              		.loc 1 939 0 is_stmt 0 discriminator 1
 4651 1292 BB68     		ldr	r3, [r7, #8]
 4652 1294 072B     		cmp	r3, #7
 4653 1296 C6D9     		bls	.L266
 948:.\Protocolo.c **** 						}
 949:.\Protocolo.c **** 					}
 950:.\Protocolo.c **** 					bufferLCD2.totalMoney2[0]=8;
 4654              		.loc 1 950 0 is_stmt 1
 4655 1298 054B     		ldr	r3, .L359+4
 4656 129a 0822     		movs	r2, #8
 4657 129c 83F83520 		strb	r2, [r3, #53]
 951:.\Protocolo.c **** 					j=8;
ARM GAS  C:\Users\PROYEC~1\AppData\Local\Temp\ccuck2D9.s 			page 102


 4658              		.loc 1 951 0
 4659 12a0 0823     		movs	r3, #8
 4660 12a2 FB60     		str	r3, [r7, #12]
 952:.\Protocolo.c **** 					for(x=0;x<=7;x++){
 4661              		.loc 1 952 0
 4662 12a4 0023     		movs	r3, #0
 4663 12a6 BB60     		str	r3, [r7, #8]
 4664 12a8 1AE0     		b	.L267
 4665              	.L360:
 4666 12aa 00BF     		.align	2
 4667              	.L359:
 4668 12ac 00000000 		.word	Pump_AL_rxBuffer
 4669 12b0 00000000 		.word	bufferLCD2
 4670              	.L268:
 953:.\Protocolo.c **** 						bufferLCD2.totalMoney2[j]=(Pump_AL_rxBuffer[43+x]&0x0F)+0x30;
 4671              		.loc 1 953 0 discriminator 3
 4672 12b4 BB68     		ldr	r3, [r7, #8]
 4673 12b6 2B33     		adds	r3, r3, #43
 4674 12b8 A64A     		ldr	r2, .L361
 4675 12ba D35C     		ldrb	r3, [r2, r3]
 4676 12bc DBB2     		uxtb	r3, r3
 4677 12be 03F00F03 		and	r3, r3, #15
 4678 12c2 DBB2     		uxtb	r3, r3
 4679 12c4 3033     		adds	r3, r3, #48
 4680 12c6 D9B2     		uxtb	r1, r3
 4681 12c8 A34A     		ldr	r2, .L361+4
 4682 12ca FB68     		ldr	r3, [r7, #12]
 4683 12cc 1344     		add	r3, r3, r2
 4684 12ce 3033     		adds	r3, r3, #48
 4685 12d0 0A46     		mov	r2, r1
 4686 12d2 5A71     		strb	r2, [r3, #5]
 954:.\Protocolo.c **** 						j--;
 4687              		.loc 1 954 0 discriminator 3
 4688 12d4 FB68     		ldr	r3, [r7, #12]
 4689 12d6 013B     		subs	r3, r3, #1
 4690 12d8 FB60     		str	r3, [r7, #12]
 952:.\Protocolo.c **** 					for(x=0;x<=7;x++){
 4691              		.loc 1 952 0 discriminator 3
 4692 12da BB68     		ldr	r3, [r7, #8]
 4693 12dc 0133     		adds	r3, r3, #1
 4694 12de BB60     		str	r3, [r7, #8]
 4695              	.L267:
 952:.\Protocolo.c **** 					for(x=0;x<=7;x++){
 4696              		.loc 1 952 0 is_stmt 0 discriminator 1
 4697 12e0 BB68     		ldr	r3, [r7, #8]
 4698 12e2 072B     		cmp	r3, #7
 4699 12e4 E6D9     		bls	.L268
 955:.\Protocolo.c **** 					}
 956:.\Protocolo.c ****                     bufferLCD2.ppu2[0]=4;
 4700              		.loc 1 956 0 is_stmt 1
 4701 12e6 9C4B     		ldr	r3, .L361+4
 4702 12e8 0422     		movs	r2, #4
 4703 12ea 83F8A320 		strb	r2, [r3, #163]
 957:.\Protocolo.c ****                     j=4;
 4704              		.loc 1 957 0
 4705 12ee 0423     		movs	r3, #4
 4706 12f0 FB60     		str	r3, [r7, #12]
ARM GAS  C:\Users\PROYEC~1\AppData\Local\Temp\ccuck2D9.s 			page 103


 958:.\Protocolo.c ****                     for(x=0;x<=3;x++){
 4707              		.loc 1 958 0
 4708 12f2 0023     		movs	r3, #0
 4709 12f4 BB60     		str	r3, [r7, #8]
 4710 12f6 15E0     		b	.L269
 4711              	.L270:
 959:.\Protocolo.c ****                         bufferLCD2.ppu2[j]=(Pump_AL_rxBuffer[x+52]&0x0F)+0x30;
 4712              		.loc 1 959 0 discriminator 3
 4713 12f8 BB68     		ldr	r3, [r7, #8]
 4714 12fa 3433     		adds	r3, r3, #52
 4715 12fc 954A     		ldr	r2, .L361
 4716 12fe D35C     		ldrb	r3, [r2, r3]
 4717 1300 DBB2     		uxtb	r3, r3
 4718 1302 03F00F03 		and	r3, r3, #15
 4719 1306 DBB2     		uxtb	r3, r3
 4720 1308 3033     		adds	r3, r3, #48
 4721 130a D9B2     		uxtb	r1, r3
 4722 130c 924A     		ldr	r2, .L361+4
 4723 130e FB68     		ldr	r3, [r7, #12]
 4724 1310 1344     		add	r3, r3, r2
 4725 1312 A033     		adds	r3, r3, #160
 4726 1314 0A46     		mov	r2, r1
 4727 1316 DA70     		strb	r2, [r3, #3]
 960:.\Protocolo.c ****                         j--;
 4728              		.loc 1 960 0 discriminator 3
 4729 1318 FB68     		ldr	r3, [r7, #12]
 4730 131a 013B     		subs	r3, r3, #1
 4731 131c FB60     		str	r3, [r7, #12]
 958:.\Protocolo.c ****                     for(x=0;x<=3;x++){
 4732              		.loc 1 958 0 discriminator 3
 4733 131e BB68     		ldr	r3, [r7, #8]
 4734 1320 0133     		adds	r3, r3, #1
 4735 1322 BB60     		str	r3, [r7, #8]
 4736              	.L269:
 958:.\Protocolo.c ****                     for(x=0;x<=3;x++){
 4737              		.loc 1 958 0 is_stmt 0 discriminator 1
 4738 1324 BB68     		ldr	r3, [r7, #8]
 4739 1326 032B     		cmp	r3, #3
 4740 1328 E6D9     		bls	.L270
 961:.\Protocolo.c ****                     }
 962:.\Protocolo.c **** 					Pump_AL_ClearRxBuffer();
 4741              		.loc 1 962 0 is_stmt 1
 4742 132a FFF7FEFF 		bl	Pump_AL_ClearRxBuffer
 963:.\Protocolo.c **** 					return 2;
 4743              		.loc 1 963 0
 4744 132e 0223     		movs	r3, #2
 4745 1330 00F04ABD 		b	.L140
 4746              	.L254:
 964:.\Protocolo.c **** 				}			
 965:.\Protocolo.c **** 				else{
 966:.\Protocolo.c **** 					return 0;
 4747              		.loc 1 966 0
 4748 1334 0023     		movs	r3, #0
 4749 1336 00F047BD 		b	.L140
 4750              	.L242:
 967:.\Protocolo.c **** 				}
 968:.\Protocolo.c **** 			break;
ARM GAS  C:\Users\PROYEC~1\AppData\Local\Temp\ccuck2D9.s 			page 104


 969:.\Protocolo.c **** 				
 970:.\Protocolo.c **** 			case 94://5 digitos tres mangueras
 971:.\Protocolo.c **** 				if((Pump_AL_rxBuffer[0]==0xFF)&&(Pump_AL_rxBuffer[1]==0xF6)&&(Pump_AL_rxBuffer[93]==0xF0)&&(Pum
 4751              		.loc 1 971 0
 4752 133a 864B     		ldr	r3, .L361
 4753 133c 1B78     		ldrb	r3, [r3]
 4754 133e DBB2     		uxtb	r3, r3
 4755 1340 FF2B     		cmp	r3, #255
 4756 1342 40F0AE81 		bne	.L271
 4757              		.loc 1 971 0 is_stmt 0 discriminator 1
 4758 1346 834B     		ldr	r3, .L361
 4759 1348 5B78     		ldrb	r3, [r3, #1]
 4760 134a DBB2     		uxtb	r3, r3
 4761 134c F62B     		cmp	r3, #246
 4762 134e 40F0A881 		bne	.L271
 4763              		.loc 1 971 0 discriminator 2
 4764 1352 804B     		ldr	r3, .L361
 4765 1354 93F85D30 		ldrb	r3, [r3, #93]
 4766 1358 DBB2     		uxtb	r3, r3
 4767 135a F02B     		cmp	r3, #240
 4768 135c 40F0A181 		bne	.L271
 4769              		.loc 1 971 0 discriminator 3
 4770 1360 7C4B     		ldr	r3, .L361
 4771 1362 DB78     		ldrb	r3, [r3, #3]
 4772 1364 DBB2     		uxtb	r3, r3
 4773 1366 F92B     		cmp	r3, #249
 4774 1368 40F09B81 		bne	.L271
 972:.\Protocolo.c **** 					bufferLCD2.totalVolume1[0]=9;
 4775              		.loc 1 972 0 is_stmt 1
 4776 136c 7A4B     		ldr	r3, .L361+4
 4777 136e 0922     		movs	r2, #9
 4778 1370 83F85D20 		strb	r2, [r3, #93]
 973:.\Protocolo.c **** 					j=9;
 4779              		.loc 1 973 0
 4780 1374 0923     		movs	r3, #9
 4781 1376 FB60     		str	r3, [r7, #12]
 974:.\Protocolo.c **** 					for(x=0;x<=7;x++){
 4782              		.loc 1 974 0
 4783 1378 0023     		movs	r3, #0
 4784 137a BB60     		str	r3, [r7, #8]
 4785 137c 35E0     		b	.L272
 4786              	.L275:
 975:.\Protocolo.c **** 						if(x==2){
 4787              		.loc 1 975 0
 4788 137e BB68     		ldr	r3, [r7, #8]
 4789 1380 022B     		cmp	r3, #2
 4790 1382 1CD1     		bne	.L273
 976:.\Protocolo.c **** 							bufferLCD2.totalVolume1[j]=',';
 4791              		.loc 1 976 0
 4792 1384 744A     		ldr	r2, .L361+4
 4793 1386 FB68     		ldr	r3, [r7, #12]
 4794 1388 1344     		add	r3, r3, r2
 4795 138a 5833     		adds	r3, r3, #88
 4796 138c 2C22     		movs	r2, #44
 4797 138e 5A71     		strb	r2, [r3, #5]
 977:.\Protocolo.c **** 							j--;
 4798              		.loc 1 977 0
ARM GAS  C:\Users\PROYEC~1\AppData\Local\Temp\ccuck2D9.s 			page 105


 4799 1390 FB68     		ldr	r3, [r7, #12]
 4800 1392 013B     		subs	r3, r3, #1
 4801 1394 FB60     		str	r3, [r7, #12]
 978:.\Protocolo.c **** 							bufferLCD2.totalVolume1[j]=(Pump_AL_rxBuffer[4+x]&0x0F)+0x30;
 4802              		.loc 1 978 0
 4803 1396 BB68     		ldr	r3, [r7, #8]
 4804 1398 0433     		adds	r3, r3, #4
 4805 139a 6E4A     		ldr	r2, .L361
 4806 139c D35C     		ldrb	r3, [r2, r3]
 4807 139e DBB2     		uxtb	r3, r3
 4808 13a0 03F00F03 		and	r3, r3, #15
 4809 13a4 DBB2     		uxtb	r3, r3
 4810 13a6 3033     		adds	r3, r3, #48
 4811 13a8 D9B2     		uxtb	r1, r3
 4812 13aa 6B4A     		ldr	r2, .L361+4
 4813 13ac FB68     		ldr	r3, [r7, #12]
 4814 13ae 1344     		add	r3, r3, r2
 4815 13b0 5833     		adds	r3, r3, #88
 4816 13b2 0A46     		mov	r2, r1
 4817 13b4 5A71     		strb	r2, [r3, #5]
 979:.\Protocolo.c **** 							j--;
 4818              		.loc 1 979 0
 4819 13b6 FB68     		ldr	r3, [r7, #12]
 4820 13b8 013B     		subs	r3, r3, #1
 4821 13ba FB60     		str	r3, [r7, #12]
 4822 13bc 12E0     		b	.L274
 4823              	.L273:
 980:.\Protocolo.c **** 						}else{
 981:.\Protocolo.c **** 							bufferLCD2.totalVolume1[j]=(Pump_AL_rxBuffer[4+x]&0x0F)+0x30;
 4824              		.loc 1 981 0
 4825 13be BB68     		ldr	r3, [r7, #8]
 4826 13c0 0433     		adds	r3, r3, #4
 4827 13c2 644A     		ldr	r2, .L361
 4828 13c4 D35C     		ldrb	r3, [r2, r3]
 4829 13c6 DBB2     		uxtb	r3, r3
 4830 13c8 03F00F03 		and	r3, r3, #15
 4831 13cc DBB2     		uxtb	r3, r3
 4832 13ce 3033     		adds	r3, r3, #48
 4833 13d0 D9B2     		uxtb	r1, r3
 4834 13d2 614A     		ldr	r2, .L361+4
 4835 13d4 FB68     		ldr	r3, [r7, #12]
 4836 13d6 1344     		add	r3, r3, r2
 4837 13d8 5833     		adds	r3, r3, #88
 4838 13da 0A46     		mov	r2, r1
 4839 13dc 5A71     		strb	r2, [r3, #5]
 982:.\Protocolo.c **** 							j--;
 4840              		.loc 1 982 0
 4841 13de FB68     		ldr	r3, [r7, #12]
 4842 13e0 013B     		subs	r3, r3, #1
 4843 13e2 FB60     		str	r3, [r7, #12]
 4844              	.L274:
 974:.\Protocolo.c **** 						if(x==2){
 4845              		.loc 1 974 0 discriminator 2
 4846 13e4 BB68     		ldr	r3, [r7, #8]
 4847 13e6 0133     		adds	r3, r3, #1
 4848 13e8 BB60     		str	r3, [r7, #8]
 4849              	.L272:
ARM GAS  C:\Users\PROYEC~1\AppData\Local\Temp\ccuck2D9.s 			page 106


 974:.\Protocolo.c **** 						if(x==2){
 4850              		.loc 1 974 0 is_stmt 0 discriminator 1
 4851 13ea BB68     		ldr	r3, [r7, #8]
 4852 13ec 072B     		cmp	r3, #7
 4853 13ee C6D9     		bls	.L275
 983:.\Protocolo.c **** 						}
 984:.\Protocolo.c **** 					}
 985:.\Protocolo.c **** 					bufferLCD2.totalMoney1[0]=8;
 4854              		.loc 1 985 0 is_stmt 1
 4855 13f0 594B     		ldr	r3, .L361+4
 4856 13f2 0822     		movs	r2, #8
 4857 13f4 83F82120 		strb	r2, [r3, #33]
 986:.\Protocolo.c **** 					j=8;
 4858              		.loc 1 986 0
 4859 13f8 0823     		movs	r3, #8
 4860 13fa FB60     		str	r3, [r7, #12]
 987:.\Protocolo.c **** 					for(x=0;x<=7;x++){
 4861              		.loc 1 987 0
 4862 13fc 0023     		movs	r3, #0
 4863 13fe BB60     		str	r3, [r7, #8]
 4864 1400 15E0     		b	.L276
 4865              	.L277:
 988:.\Protocolo.c **** 						bufferLCD2.totalMoney1[j]=(Pump_AL_rxBuffer[13+x]&0x0F)+0x30;
 4866              		.loc 1 988 0 discriminator 3
 4867 1402 BB68     		ldr	r3, [r7, #8]
 4868 1404 0D33     		adds	r3, r3, #13
 4869 1406 534A     		ldr	r2, .L361
 4870 1408 D35C     		ldrb	r3, [r2, r3]
 4871 140a DBB2     		uxtb	r3, r3
 4872 140c 03F00F03 		and	r3, r3, #15
 4873 1410 DBB2     		uxtb	r3, r3
 4874 1412 3033     		adds	r3, r3, #48
 4875 1414 D9B2     		uxtb	r1, r3
 4876 1416 504A     		ldr	r2, .L361+4
 4877 1418 FB68     		ldr	r3, [r7, #12]
 4878 141a 1344     		add	r3, r3, r2
 4879 141c 2033     		adds	r3, r3, #32
 4880 141e 0A46     		mov	r2, r1
 4881 1420 5A70     		strb	r2, [r3, #1]
 989:.\Protocolo.c **** 						j--;
 4882              		.loc 1 989 0 discriminator 3
 4883 1422 FB68     		ldr	r3, [r7, #12]
