ARM GAS  C:\Users\Lenovo\AppData\Local\Temp\cc3dQOqg.s 			page 1


   1              		.syntax unified
   2              		.cpu cortex-m3
   3              		.fpu softvfp
   4              		.eabi_attribute 20, 1
   5              		.eabi_attribute 21, 1
   6              		.eabi_attribute 23, 3
   7              		.eabi_attribute 24, 1
   8              		.eabi_attribute 25, 1
   9              		.eabi_attribute 26, 1
  10              		.eabi_attribute 30, 6
  11              		.eabi_attribute 34, 1
  12              		.eabi_attribute 18, 4
  13              		.thumb
  14              		.file	"protocol.c"
  15              		.text
  16              	.Ltext0:
  17              		.cfi_sections	.debug_frame
  18              		.comm	countAnimation1,8,8
  19              		.comm	countAnimation2,8,8
  20              		.comm	countBeagleTX,8,8
  21              		.comm	countPump,8,8
  22              		.comm	flowLCD1,4,4
  23              		.comm	flowLCD2,4,4
  24              		.comm	digits,1,1
  25              		.comm	ipAdress,12,4
  26              		.comm	numberKeys1,1,1
  27              		.comm	numberKeys2,1,1
  28              		.comm	flagPoint1,1,1
  29              		.comm	flagPoint2,1,1
  30              		.comm	button,960,4
  31              		.comm	productNumber,1,1
  32              		.comm	presetFast,30,4
  33              		.comm	delayPicture1,4,4
  34              		.comm	delayPicture2,4,4
  35              		.comm	ppux10,1,1
  36              		.comm	decimalMoney,1,1
  37              		.comm	decimalVolume,1,1
  38              		.comm	symbols,2,4
  39              		.comm	time,3,4
  40              		.comm	date,3,4
  41              		.comm	screen,2,4
  42              		.comm	residue,14,4
  43              		.comm	temporal,30,4
  44              		.comm	temporalCom,30,4
  45              		.comm	turn,1,1
  46              		.comm	lockTurn,1,1
  47              		.comm	idSeller,25,4
  48              		.comm	typeIdSeller,1,1
  49              		.comm	passwordSeller,8,4
  50              		.comm	flagResetMux,1,1
  51              		.comm	stateBeagleSoft,1,1
  52              		.comm	bufferLCD1,661,4
  53              		.comm	bufferLCD2,661,4
  54              		.comm	side,512,4
  55              		.section	.text.get_state,"ax",%progbits
  56              		.align	2
  57              		.global	get_state
ARM GAS  C:\Users\Lenovo\AppData\Local\Temp\cc3dQOqg.s 			page 2


  58              		.thumb
  59              		.thumb_func
  60              		.type	get_state, %function
  61              	get_state:
  62              	.LFB56:
  63              		.file 1 ".\\protocol.c"
   1:.\protocol.c  **** /*
   2:.\protocol.c  **** ***************************************************************************************************
   3:.\protocol.c  **** *                                         MUX ADVANCE CODE
   4:.\protocol.c  **** *
   5:.\protocol.c  **** *                             (c) Copyright 2016; Sistemas Insepet LTDA
   6:.\protocol.c  **** *
   7:.\protocol.c  **** *               All rights reserved.  Protected by international copyright laws.
   8:.\protocol.c  **** *               Knowledge of the source code may NOT be used to develop a similar product.
   9:.\protocol.c  **** *               Please help us continue to provide the Embedded community with the finest
  10:.\protocol.c  **** *               software available.  Your honesty is greatly appreciated.
  11:.\protocol.c  **** ***************************************************************************************************
  12:.\protocol.c  **** */
  13:.\protocol.c  **** 
  14:.\protocol.c  **** /*
  15:.\protocol.c  **** ***************************************************************************************************
  16:.\protocol.c  **** *
  17:.\protocol.c  **** *                                             MUX ADVANCE CODE
  18:.\protocol.c  **** *
  19:.\protocol.c  **** *                                             CYPRESS PSoC5LP
  20:.\protocol.c  **** *                                                with the
  21:.\protocol.c  **** *                                            CY8C5969AXI-LP035
  22:.\protocol.c  **** *
  23:.\protocol.c  **** * Filename      : protocol.c
  24:.\protocol.c  **** * Version       : V1.00
  25:.\protocol.c  **** * Programmer(s) : 
  26:.\protocol.c  ****                   
  27:.\protocol.c  **** ***************************************************************************************************
  28:.\protocol.c  **** */
  29:.\protocol.c  **** 
  30:.\protocol.c  **** 
  31:.\protocol.c  **** /*
  32:.\protocol.c  **** ***************************************************************************************************
  33:.\protocol.c  **** *                                             INCLUDE FILES
  34:.\protocol.c  **** ***************************************************************************************************
  35:.\protocol.c  **** */
  36:.\protocol.c  **** #include <device.h>
  37:.\protocol.c  **** #include <variables.h>
  38:.\protocol.c  **** 
  39:.\protocol.c  **** /*
  40:.\protocol.c  **** ***************************************************************************************************
  41:.\protocol.c  **** *                                    uint8 get_state(uint8 pos)
  42:.\protocol.c  **** *
  43:.\protocol.c  **** * Description : 
  44:.\protocol.c  **** *               
  45:.\protocol.c  **** *
  46:.\protocol.c  **** * Argument(s) : none
  47:.\protocol.c  **** *
  48:.\protocol.c  **** * Return(s)   : none
  49:.\protocol.c  **** *
  50:.\protocol.c  **** * Caller(s)   : 
  51:.\protocol.c  **** *
ARM GAS  C:\Users\Lenovo\AppData\Local\Temp\cc3dQOqg.s 			page 3


  52:.\protocol.c  **** * Note(s)     : none.
  53:.\protocol.c  **** ***************************************************************************************************
  54:.\protocol.c  **** */
  55:.\protocol.c  **** 
  56:.\protocol.c  **** uint8 get_state(uint8 pos){
  64              		.loc 1 56 0
  65              		.cfi_startproc
  66              		@ args = 0, pretend = 0, frame = 16
  67              		@ frame_needed = 1, uses_anonymous_args = 0
  68 0000 80B5     		push	{r7, lr}
  69              		.cfi_def_cfa_offset 8
  70              		.cfi_offset 7, -8
  71              		.cfi_offset 14, -4
  72 0002 84B0     		sub	sp, sp, #16
  73              		.cfi_def_cfa_offset 24
  74 0004 00AF     		add	r7, sp, #0
  75              		.cfi_def_cfa_register 7
  76 0006 0346     		mov	r3, r0
  77 0008 FB71     		strb	r3, [r7, #7]
  57:.\protocol.c  ****     uint8 state;
  58:.\protocol.c  ****     Pump_AL_ClearRxBuffer();
  78              		.loc 1 58 0
  79 000a FFF7FEFF 		bl	Pump_AL_ClearRxBuffer
  59:.\protocol.c  ****     Pump_AL_PutChar(pos);
  80              		.loc 1 59 0
  81 000e FB79     		ldrb	r3, [r7, #7]	@ zero_extendqisi2
  82 0010 1846     		mov	r0, r3
  83 0012 FFF7FEFF 		bl	Pump_AL_PutChar
  60:.\protocol.c  ****     CyDelay(65);
  84              		.loc 1 60 0
  85 0016 4120     		movs	r0, #65
  86 0018 FFF7FEFF 		bl	CyDelay
  61:.\protocol.c  ****     if(Pump_AL_GetRxBufferSize()>=1){
  87              		.loc 1 61 0
  88 001c FFF7FEFF 		bl	Pump_AL_GetRxBufferSize
  89 0020 0346     		mov	r3, r0
  90 0022 002B     		cmp	r3, #0
  91 0024 08D0     		beq	.L2
  62:.\protocol.c  ****        state=(Pump_AL_ReadRxData()&0xF0)>>4;
  92              		.loc 1 62 0
  93 0026 FFF7FEFF 		bl	Pump_AL_ReadRxData
  94 002a 0346     		mov	r3, r0
  95 002c 1B09     		lsrs	r3, r3, #4
  96 002e FB73     		strb	r3, [r7, #15]
  63:.\protocol.c  ****        Pump_AL_ClearRxBuffer();
  97              		.loc 1 63 0
  98 0030 FFF7FEFF 		bl	Pump_AL_ClearRxBuffer
  64:.\protocol.c  ****        return state;
  99              		.loc 1 64 0
 100 0034 FB7B     		ldrb	r3, [r7, #15]	@ zero_extendqisi2
 101 0036 00E0     		b	.L3
 102              	.L2:
  65:.\protocol.c  ****     }
  66:.\protocol.c  ****     else{
  67:.\protocol.c  ****         return 0;
 103              		.loc 1 67 0
 104 0038 0023     		movs	r3, #0
ARM GAS  C:\Users\Lenovo\AppData\Local\Temp\cc3dQOqg.s 			page 4


 105              	.L3:
  68:.\protocol.c  ****     }
  69:.\protocol.c  **** }
 106              		.loc 1 69 0
 107 003a 1846     		mov	r0, r3
 108 003c 1037     		adds	r7, r7, #16
 109              		.cfi_def_cfa_offset 8
 110 003e BD46     		mov	sp, r7
 111              		.cfi_def_cfa_register 13
 112              		@ sp needed
 113 0040 80BD     		pop	{r7, pc}
 114              		.cfi_endproc
 115              	.LFE56:
 116              		.size	get_state, .-get_state
 117 0042 00BF     		.section	.text.get_position,"ax",%progbits
 118              		.align	2
 119              		.global	get_position
 120              		.thumb
 121              		.thumb_func
 122              		.type	get_position, %function
 123              	get_position:
 124              	.LFB57:
  70:.\protocol.c  **** 
  71:.\protocol.c  **** /*
  72:.\protocol.c  **** ***************************************************************************************************
  73:.\protocol.c  **** *                                         uint8 get_position(void)
  74:.\protocol.c  **** *
  75:.\protocol.c  **** * Description : 
  76:.\protocol.c  **** *               
  77:.\protocol.c  **** *
  78:.\protocol.c  **** * Argument(s) : none
  79:.\protocol.c  **** *
  80:.\protocol.c  **** * Return(s)   : none
  81:.\protocol.c  **** *
  82:.\protocol.c  **** * Caller(s)   : 
  83:.\protocol.c  **** *
  84:.\protocol.c  **** * Note(s)     : none.
  85:.\protocol.c  **** ***************************************************************************************************
  86:.\protocol.c  **** */
  87:.\protocol.c  **** uint8 get_position(void){
 125              		.loc 1 87 0
 126              		.cfi_startproc
 127              		@ args = 0, pretend = 0, frame = 8
 128              		@ frame_needed = 1, uses_anonymous_args = 0
 129 0000 80B5     		push	{r7, lr}
 130              		.cfi_def_cfa_offset 8
 131              		.cfi_offset 7, -8
 132              		.cfi_offset 14, -4
 133 0002 82B0     		sub	sp, sp, #8
 134              		.cfi_def_cfa_offset 16
 135 0004 00AF     		add	r7, sp, #0
 136              		.cfi_def_cfa_register 7
  88:.\protocol.c  ****     uint8 x;
  89:.\protocol.c  ****         
  90:.\protocol.c  ****     side.a.dir=0xff;
 137              		.loc 1 90 0
 138 0006 2B4B     		ldr	r3, .L13
ARM GAS  C:\Users\Lenovo\AppData\Local\Temp\cc3dQOqg.s 			page 5


 139 0008 FF22     		movs	r2, #255
 140 000a 1A70     		strb	r2, [r3]
  91:.\protocol.c  ****     side.b.dir=0xff;
 141              		.loc 1 91 0
 142 000c 294B     		ldr	r3, .L13
 143 000e FF22     		movs	r2, #255
 144 0010 83F80021 		strb	r2, [r3, #256]
  92:.\protocol.c  ****     for(x=1;x<=16;x++){
 145              		.loc 1 92 0
 146 0014 0123     		movs	r3, #1
 147 0016 FB71     		strb	r3, [r7, #7]
 148 0018 2DE0     		b	.L5
 149              	.L8:
  93:.\protocol.c  ****         Pump_AL_PutChar(x);
 150              		.loc 1 93 0
 151 001a FB79     		ldrb	r3, [r7, #7]	@ zero_extendqisi2
 152 001c 1846     		mov	r0, r3
 153 001e FFF7FEFF 		bl	Pump_AL_PutChar
  94:.\protocol.c  ****         CyDelay(100);
 154              		.loc 1 94 0
 155 0022 6420     		movs	r0, #100
 156 0024 FFF7FEFF 		bl	CyDelay
  95:.\protocol.c  ****         if((Pump_AL_GetRxBufferSize()>=1)&&(side.a.dir==0xff)){
 157              		.loc 1 95 0
 158 0028 FFF7FEFF 		bl	Pump_AL_GetRxBufferSize
 159 002c 0346     		mov	r3, r0
 160 002e 002B     		cmp	r3, #0
 161 0030 0BD0     		beq	.L6
 162              		.loc 1 95 0 is_stmt 0 discriminator 1
 163 0032 204B     		ldr	r3, .L13
 164 0034 1B78     		ldrb	r3, [r3]	@ zero_extendqisi2
 165 0036 FF2B     		cmp	r3, #255
 166 0038 07D1     		bne	.L6
  96:.\protocol.c  ****            side.a.dir=x&0x0f;	
 167              		.loc 1 96 0 is_stmt 1
 168 003a FB79     		ldrb	r3, [r7, #7]
 169 003c 03F00F03 		and	r3, r3, #15
 170 0040 DAB2     		uxtb	r2, r3
 171 0042 1C4B     		ldr	r3, .L13
 172 0044 1A70     		strb	r2, [r3]
  97:.\protocol.c  ****            Pump_AL_ClearRxBuffer();
 173              		.loc 1 97 0
 174 0046 FFF7FEFF 		bl	Pump_AL_ClearRxBuffer
 175              	.L6:
  98:.\protocol.c  ****         }
  99:.\protocol.c  ****         if((Pump_AL_GetRxBufferSize()>=1)&&(x!=side.a.dir)){
 176              		.loc 1 99 0
 177 004a FFF7FEFF 		bl	Pump_AL_GetRxBufferSize
 178 004e 0346     		mov	r3, r0
 179 0050 002B     		cmp	r3, #0
 180 0052 0DD0     		beq	.L7
 181              		.loc 1 99 0 is_stmt 0 discriminator 1
 182 0054 174B     		ldr	r3, .L13
 183 0056 1B78     		ldrb	r3, [r3]	@ zero_extendqisi2
 184 0058 FA79     		ldrb	r2, [r7, #7]	@ zero_extendqisi2
 185 005a 9A42     		cmp	r2, r3
 186 005c 08D0     		beq	.L7
ARM GAS  C:\Users\Lenovo\AppData\Local\Temp\cc3dQOqg.s 			page 6


 100:.\protocol.c  ****            side.b.dir=x&0x0f;
 187              		.loc 1 100 0 is_stmt 1
 188 005e FB79     		ldrb	r3, [r7, #7]
 189 0060 03F00F03 		and	r3, r3, #15
 190 0064 DAB2     		uxtb	r2, r3
 191 0066 134B     		ldr	r3, .L13
 192 0068 83F80021 		strb	r2, [r3, #256]
 101:.\protocol.c  ****            Pump_AL_ClearRxBuffer();
 193              		.loc 1 101 0
 194 006c FFF7FEFF 		bl	Pump_AL_ClearRxBuffer
 195              	.L7:
  92:.\protocol.c  ****         Pump_AL_PutChar(x);
 196              		.loc 1 92 0 discriminator 2
 197 0070 FB79     		ldrb	r3, [r7, #7]	@ zero_extendqisi2
 198 0072 0133     		adds	r3, r3, #1
 199 0074 FB71     		strb	r3, [r7, #7]
 200              	.L5:
  92:.\protocol.c  ****         Pump_AL_PutChar(x);
 201              		.loc 1 92 0 is_stmt 0 discriminator 1
 202 0076 FB79     		ldrb	r3, [r7, #7]	@ zero_extendqisi2
 203 0078 102B     		cmp	r3, #16
 204 007a CED9     		bls	.L8
 102:.\protocol.c  ****         }
 103:.\protocol.c  ****     }
 104:.\protocol.c  ****     if((side.a.dir!=0xff)&&(side.b.dir!=0xff)){
 205              		.loc 1 104 0 is_stmt 1
 206 007c 0D4B     		ldr	r3, .L13
 207 007e 1B78     		ldrb	r3, [r3]	@ zero_extendqisi2
 208 0080 FF2B     		cmp	r3, #255
 209 0082 06D0     		beq	.L9
 210              		.loc 1 104 0 is_stmt 0 discriminator 1
 211 0084 0B4B     		ldr	r3, .L13
 212 0086 93F80031 		ldrb	r3, [r3, #256]	@ zero_extendqisi2
 213 008a FF2B     		cmp	r3, #255
 214 008c 01D0     		beq	.L9
 105:.\protocol.c  ****         return 2;
 215              		.loc 1 105 0 is_stmt 1
 216 008e 0223     		movs	r3, #2
 217 0090 0BE0     		b	.L10
 218              	.L9:
 106:.\protocol.c  ****     }
 107:.\protocol.c  ****     else{
 108:.\protocol.c  ****         if((side.a.dir!=0xff)||(side.b.dir!=0xff)){
 219              		.loc 1 108 0
 220 0092 084B     		ldr	r3, .L13
 221 0094 1B78     		ldrb	r3, [r3]	@ zero_extendqisi2
 222 0096 FF2B     		cmp	r3, #255
 223 0098 04D1     		bne	.L11
 224              		.loc 1 108 0 is_stmt 0 discriminator 1
 225 009a 064B     		ldr	r3, .L13
 226 009c 93F80031 		ldrb	r3, [r3, #256]	@ zero_extendqisi2
 227 00a0 FF2B     		cmp	r3, #255
 228 00a2 01D0     		beq	.L12
 229              	.L11:
 109:.\protocol.c  ****             return 1;
 230              		.loc 1 109 0 is_stmt 1
 231 00a4 0123     		movs	r3, #1
ARM GAS  C:\Users\Lenovo\AppData\Local\Temp\cc3dQOqg.s 			page 7


 232 00a6 00E0     		b	.L10
 233              	.L12:
 110:.\protocol.c  ****         }
 111:.\protocol.c  ****         else{
 112:.\protocol.c  ****             return 0;
 234              		.loc 1 112 0
 235 00a8 0023     		movs	r3, #0
 236              	.L10:
 113:.\protocol.c  ****         }
 114:.\protocol.c  ****     }
 115:.\protocol.c  **** }
 237              		.loc 1 115 0
 238 00aa 1846     		mov	r0, r3
 239 00ac 0837     		adds	r7, r7, #8
 240              		.cfi_def_cfa_offset 8
 241 00ae BD46     		mov	sp, r7
 242              		.cfi_def_cfa_register 13
 243              		@ sp needed
 244 00b0 80BD     		pop	{r7, pc}
 245              	.L14:
 246 00b2 00BF     		.align	2
 247              	.L13:
 248 00b4 00000000 		.word	side
 249              		.cfi_endproc
 250              	.LFE57:
 251              		.size	get_position, .-get_position
 252              		.section	.rodata
 253              		.align	2
 254              	.LC0:
 255 0000 FF       		.byte	-1
 256 0001 E9       		.byte	-23
 257 0002 FE       		.byte	-2
 258 0003 E0       		.byte	-32
 259 0004 E1       		.byte	-31
 260 0005 E0       		.byte	-32
 261 0006 FB       		.byte	-5
 262 0007 EE       		.byte	-18
 263 0008 F0       		.byte	-16
 264              		.section	.text.get_handle,"ax",%progbits
 265              		.align	2
 266              		.global	get_handle
 267              		.thumb
 268              		.thumb_func
 269              		.type	get_handle, %function
 270              	get_handle:
 271              	.LFB58:
 116:.\protocol.c  **** 
 117:.\protocol.c  **** /*
 118:.\protocol.c  **** ***************************************************************************************************
 119:.\protocol.c  **** *                                    uint8 get_handle(uint8 pos)
 120:.\protocol.c  **** *
 121:.\protocol.c  **** * Description : 
 122:.\protocol.c  **** *               
 123:.\protocol.c  **** *
 124:.\protocol.c  **** * Argument(s) : none
 125:.\protocol.c  **** *
 126:.\protocol.c  **** * Return(s)   : none
ARM GAS  C:\Users\Lenovo\AppData\Local\Temp\cc3dQOqg.s 			page 8


 127:.\protocol.c  **** *
 128:.\protocol.c  **** * Caller(s)   : 
 129:.\protocol.c  **** *
 130:.\protocol.c  **** * Note(s)     : none.
 131:.\protocol.c  **** ***************************************************************************************************
 132:.\protocol.c  **** */
 133:.\protocol.c  **** 
 134:.\protocol.c  **** uint8 get_handle(uint8 pos){
 272              		.loc 1 134 0
 273              		.cfi_startproc
 274              		@ args = 0, pretend = 0, frame = 40
 275              		@ frame_needed = 1, uses_anonymous_args = 0
 276 0000 90B5     		push	{r4, r7, lr}
 277              		.cfi_def_cfa_offset 12
 278              		.cfi_offset 4, -12
 279              		.cfi_offset 7, -8
 280              		.cfi_offset 14, -4
 281 0002 8BB0     		sub	sp, sp, #44
 282              		.cfi_def_cfa_offset 56
 283 0004 00AF     		add	r7, sp, #0
 284              		.cfi_def_cfa_register 7
 285 0006 0346     		mov	r3, r0
 286 0008 FB71     		strb	r3, [r7, #7]
 135:.\protocol.c  ****     uint8 buffer[19],command[9]={0xFF,0xE9,0xFE,0xE0,0xE1,0xE0,0xFB,0xEE,0xF0},x;
 287              		.loc 1 135 0
 288 000a 434A     		ldr	r2, .L26
 289 000c 07F10803 		add	r3, r7, #8
 290 0010 1068     		ldr	r0, [r2]	@ unaligned
 291 0012 5168     		ldr	r1, [r2, #4]	@ unaligned
 292 0014 03C3     		stmia	r3!, {r0, r1}
 293 0016 127A     		ldrb	r2, [r2, #8]
 294 0018 1A70     		strb	r2, [r3]
 136:.\protocol.c  ****     Pump_AL_ClearRxBuffer();
 295              		.loc 1 136 0
 296 001a FFF7FEFF 		bl	Pump_AL_ClearRxBuffer
 137:.\protocol.c  ****     Pump_AL_PutChar(0x20|pos);
 297              		.loc 1 137 0
 298 001e FB79     		ldrb	r3, [r7, #7]
 299 0020 43F02003 		orr	r3, r3, #32
 300 0024 DBB2     		uxtb	r3, r3
 301 0026 1846     		mov	r0, r3
 302 0028 FFF7FEFF 		bl	Pump_AL_PutChar
 138:.\protocol.c  ****     CyDelay(100);
 303              		.loc 1 138 0
 304 002c 6420     		movs	r0, #100
 305 002e FFF7FEFF 		bl	CyDelay
 139:.\protocol.c  ****     if(Pump_AL_GetRxBufferSize()>=1){
 306              		.loc 1 139 0
 307 0032 FFF7FEFF 		bl	Pump_AL_GetRxBufferSize
 308 0036 0346     		mov	r3, r0
 309 0038 002B     		cmp	r3, #0
 310 003a 67D0     		beq	.L16
 140:.\protocol.c  ****         if(Pump_AL_ReadRxData()==(0xD0|pos)){
 311              		.loc 1 140 0
 312 003c FFF7FEFF 		bl	Pump_AL_ReadRxData
 313 0040 0346     		mov	r3, r0
 314 0042 1A46     		mov	r2, r3
ARM GAS  C:\Users\Lenovo\AppData\Local\Temp\cc3dQOqg.s 			page 9


 315 0044 FB79     		ldrb	r3, [r7, #7]
 316 0046 63F02F03 		orn	r3, r3, #47
 317 004a DBB2     		uxtb	r3, r3
 318 004c 9A42     		cmp	r2, r3
 319 004e 5BD1     		bne	.L17
 141:.\protocol.c  ****             Pump_AL_ClearRxBuffer();
 320              		.loc 1 141 0
 321 0050 FFF7FEFF 		bl	Pump_AL_ClearRxBuffer
 142:.\protocol.c  ****             for(x=0;x<9;x++){
 322              		.loc 1 142 0
 323 0054 0023     		movs	r3, #0
 324 0056 87F82730 		strb	r3, [r7, #39]
 325 005a 0EE0     		b	.L18
 326              	.L19:
 143:.\protocol.c  ****                Pump_AL_PutChar(command[x]);
 327              		.loc 1 143 0 discriminator 3
 328 005c 97F82730 		ldrb	r3, [r7, #39]	@ zero_extendqisi2
 329 0060 07F12802 		add	r2, r7, #40
 330 0064 1344     		add	r3, r3, r2
 331 0066 13F8203C 		ldrb	r3, [r3, #-32]	@ zero_extendqisi2
 332 006a 1846     		mov	r0, r3
 333 006c FFF7FEFF 		bl	Pump_AL_PutChar
 142:.\protocol.c  ****             for(x=0;x<9;x++){
 334              		.loc 1 142 0 discriminator 3
 335 0070 97F82730 		ldrb	r3, [r7, #39]	@ zero_extendqisi2
 336 0074 0133     		adds	r3, r3, #1
 337 0076 87F82730 		strb	r3, [r7, #39]
 338              	.L18:
 142:.\protocol.c  ****             for(x=0;x<9;x++){
 339              		.loc 1 142 0 is_stmt 0 discriminator 1
 340 007a 97F82730 		ldrb	r3, [r7, #39]	@ zero_extendqisi2
 341 007e 082B     		cmp	r3, #8
 342 0080 ECD9     		bls	.L19
 144:.\protocol.c  ****             }
 145:.\protocol.c  ****             CyDelay(200);
 343              		.loc 1 145 0 is_stmt 1
 344 0082 C820     		movs	r0, #200
 345 0084 FFF7FEFF 		bl	CyDelay
 146:.\protocol.c  ****             if(Pump_AL_GetRxBufferSize()>=19){
 346              		.loc 1 146 0
 347 0088 FFF7FEFF 		bl	Pump_AL_GetRxBufferSize
 348 008c 0346     		mov	r3, r0
 349 008e 122B     		cmp	r3, #18
 350 0090 38D9     		bls	.L20
 147:.\protocol.c  ****                 for(x=0;x<=18;x++){
 351              		.loc 1 147 0
 352 0092 0023     		movs	r3, #0
 353 0094 87F82730 		strb	r3, [r7, #39]
 354 0098 0FE0     		b	.L21
 355              	.L22:
 148:.\protocol.c  ****                    buffer[x]=Pump_AL_ReadRxData(); 
 356              		.loc 1 148 0 discriminator 3
 357 009a 97F82740 		ldrb	r4, [r7, #39]	@ zero_extendqisi2
 358 009e FFF7FEFF 		bl	Pump_AL_ReadRxData
 359 00a2 0346     		mov	r3, r0
 360 00a4 1A46     		mov	r2, r3
 361 00a6 07F12803 		add	r3, r7, #40
ARM GAS  C:\Users\Lenovo\AppData\Local\Temp\cc3dQOqg.s 			page 10


 362 00aa 2344     		add	r3, r3, r4
 363 00ac 03F8142C 		strb	r2, [r3, #-20]
 147:.\protocol.c  ****                 for(x=0;x<=18;x++){
 364              		.loc 1 147 0 discriminator 3
 365 00b0 97F82730 		ldrb	r3, [r7, #39]	@ zero_extendqisi2
 366 00b4 0133     		adds	r3, r3, #1
 367 00b6 87F82730 		strb	r3, [r7, #39]
 368              	.L21:
 147:.\protocol.c  ****                 for(x=0;x<=18;x++){
 369              		.loc 1 147 0 is_stmt 0 discriminator 1
 370 00ba 97F82730 		ldrb	r3, [r7, #39]	@ zero_extendqisi2
 371 00be 122B     		cmp	r3, #18
 372 00c0 EBD9     		bls	.L22
 149:.\protocol.c  ****                 }
 150:.\protocol.c  ****                 Pump_AL_ClearRxBuffer();
 373              		.loc 1 150 0 is_stmt 1
 374 00c2 FFF7FEFF 		bl	Pump_AL_ClearRxBuffer
 151:.\protocol.c  ****                 if((buffer[0]==0xBA)&&(buffer[17]==0x8D)&&(buffer[18]==0x8A)&&(buffer[12]==0xB1)&&(
 375              		.loc 1 151 0
 376 00c6 3B7D     		ldrb	r3, [r7, #20]	@ zero_extendqisi2
 377 00c8 BA2B     		cmp	r3, #186
 378 00ca 19D1     		bne	.L23
 379              		.loc 1 151 0 is_stmt 0 discriminator 1
 380 00cc 97F82530 		ldrb	r3, [r7, #37]	@ zero_extendqisi2
 381 00d0 8D2B     		cmp	r3, #141
 382 00d2 15D1     		bne	.L23
 383              		.loc 1 151 0 discriminator 2
 384 00d4 97F82630 		ldrb	r3, [r7, #38]	@ zero_extendqisi2
 385 00d8 8A2B     		cmp	r3, #138
 386 00da 11D1     		bne	.L23
 387              		.loc 1 151 0 discriminator 3
 388 00dc 97F82030 		ldrb	r3, [r7, #32]	@ zero_extendqisi2
 389 00e0 B12B     		cmp	r3, #177
 390 00e2 0DD1     		bne	.L23
 391              		.loc 1 151 0 discriminator 4
 392 00e4 97F82230 		ldrb	r3, [r7, #34]	@ zero_extendqisi2
 393 00e8 B02B     		cmp	r3, #176
 394 00ea 09D9     		bls	.L23
 395              		.loc 1 151 0 discriminator 5
 396 00ec 97F82230 		ldrb	r3, [r7, #34]	@ zero_extendqisi2
 397 00f0 B42B     		cmp	r3, #180
 398 00f2 05D8     		bhi	.L23
 152:.\protocol.c  ****                     return buffer[14]&0x07;
 399              		.loc 1 152 0 is_stmt 1
 400 00f4 97F82230 		ldrb	r3, [r7, #34]	@ zero_extendqisi2
 401 00f8 03F00703 		and	r3, r3, #7
 402 00fc DBB2     		uxtb	r3, r3
 403 00fe 06E0     		b	.L25
 404              	.L23:
 153:.\protocol.c  ****                 }
 154:.\protocol.c  ****                 else{
 155:.\protocol.c  ****                     return 0;
 405              		.loc 1 155 0
 406 0100 0023     		movs	r3, #0
 407 0102 04E0     		b	.L25
 408              	.L20:
 156:.\protocol.c  ****                 }
ARM GAS  C:\Users\Lenovo\AppData\Local\Temp\cc3dQOqg.s 			page 11


 157:.\protocol.c  ****             }
 158:.\protocol.c  ****             else{
 159:.\protocol.c  ****                 return 0;
 409              		.loc 1 159 0
 410 0104 0023     		movs	r3, #0
 411 0106 02E0     		b	.L25
 412              	.L17:
 160:.\protocol.c  ****             }
 161:.\protocol.c  ****         }
 162:.\protocol.c  ****         else{
 163:.\protocol.c  ****             return 0;
 413              		.loc 1 163 0
 414 0108 0023     		movs	r3, #0
 415 010a 00E0     		b	.L25
 416              	.L16:
 164:.\protocol.c  ****         }
 165:.\protocol.c  ****     }
 166:.\protocol.c  ****     else{
 167:.\protocol.c  ****         return 0;
 417              		.loc 1 167 0
 418 010c 0023     		movs	r3, #0
 419              	.L25:
 168:.\protocol.c  ****     }
 169:.\protocol.c  **** }
 420              		.loc 1 169 0 discriminator 1
 421 010e 1846     		mov	r0, r3
 422 0110 2C37     		adds	r7, r7, #44
 423              		.cfi_def_cfa_offset 12
 424 0112 BD46     		mov	sp, r7
 425              		.cfi_def_cfa_register 13
 426              		@ sp needed
 427 0114 90BD     		pop	{r4, r7, pc}
 428              	.L27:
 429 0116 00BF     		.align	2
 430              	.L26:
 431 0118 00000000 		.word	.LC0
 432              		.cfi_endproc
 433              	.LFE58:
 434              		.size	get_handle, .-get_handle
 435              		.section	.text.get_totals,"ax",%progbits
 436              		.align	2
 437              		.global	get_totals
 438              		.thumb
 439              		.thumb_func
 440              		.type	get_totals, %function
 441              	get_totals:
 442              	.LFB59:
 170:.\protocol.c  **** 
 171:.\protocol.c  **** /*
 172:.\protocol.c  **** ***************************************************************************************************
 173:.\protocol.c  **** *                                    uint8 get_totals(uint8 pos)
 174:.\protocol.c  **** *
 175:.\protocol.c  **** * Description : 
 176:.\protocol.c  **** *               
 177:.\protocol.c  **** *
 178:.\protocol.c  **** * Argument(s) : none
 179:.\protocol.c  **** *
ARM GAS  C:\Users\Lenovo\AppData\Local\Temp\cc3dQOqg.s 			page 12


 180:.\protocol.c  **** * Return(s)   : none
 181:.\protocol.c  **** *
 182:.\protocol.c  **** * Caller(s)   : 
 183:.\protocol.c  **** *
 184:.\protocol.c  **** * Note(s)     : none.
 185:.\protocol.c  **** ***************************************************************************************************
 186:.\protocol.c  **** */
 187:.\protocol.c  **** 
 188:.\protocol.c  **** uint8 get_totals(uint8 pos){
 443              		.loc 1 188 0
 444              		.cfi_startproc
 445              		@ args = 0, pretend = 0, frame = 16
 446              		@ frame_needed = 1, uses_anonymous_args = 0
 447 0000 B0B5     		push	{r4, r5, r7, lr}
 448              		.cfi_def_cfa_offset 16
 449              		.cfi_offset 4, -16
 450              		.cfi_offset 5, -12
 451              		.cfi_offset 7, -8
 452              		.cfi_offset 14, -4
 453 0002 84B0     		sub	sp, sp, #16
 454              		.cfi_def_cfa_offset 32
 455 0004 00AF     		add	r7, sp, #0
 456              		.cfi_def_cfa_register 7
 457 0006 0346     		mov	r3, r0
 458 0008 FB71     		strb	r3, [r7, #7]
 189:.\protocol.c  ****     uint8 x,y,z,w,gradeHandle;
 190:.\protocol.c  ****     Pump_AL_ClearRxBuffer();
 459              		.loc 1 190 0
 460 000a FFF7FEFF 		bl	Pump_AL_ClearRxBuffer
 191:.\protocol.c  ****     Pump_AL_PutChar(0x50|pos);
 461              		.loc 1 191 0
 462 000e FB79     		ldrb	r3, [r7, #7]
 463 0010 43F05003 		orr	r3, r3, #80
 464 0014 DBB2     		uxtb	r3, r3
 465 0016 1846     		mov	r0, r3
 466 0018 FFF7FEFF 		bl	Pump_AL_PutChar
 192:.\protocol.c  ****     CyWdtClear();
 467              		.loc 1 192 0
 468 001c FFF7FEFF 		bl	CyWdtClear
 193:.\protocol.c  ****     CyDelay(900);
 469              		.loc 1 193 0
 470 0020 4FF46170 		mov	r0, #900
 471 0024 FFF7FEFF 		bl	CyDelay
 194:.\protocol.c  ****     CyWdtClear();
 472              		.loc 1 194 0
 473 0028 FFF7FEFF 		bl	CyWdtClear
 195:.\protocol.c  ****     x=Pump_AL_GetRxBufferSize();
 474              		.loc 1 195 0
 475 002c FFF7FEFF 		bl	Pump_AL_GetRxBufferSize
 476 0030 0346     		mov	r3, r0
 477 0032 FB73     		strb	r3, [r7, #15]
 196:.\protocol.c  ****     if((x==34)||(x==64)||(x==94)||(x==124)){//Version 5 รณ 6 digitos
 478              		.loc 1 196 0
 479 0034 FB7B     		ldrb	r3, [r7, #15]	@ zero_extendqisi2
 480 0036 222B     		cmp	r3, #34
 481 0038 09D0     		beq	.L29
 482              		.loc 1 196 0 is_stmt 0 discriminator 1
ARM GAS  C:\Users\Lenovo\AppData\Local\Temp\cc3dQOqg.s 			page 13


 483 003a FB7B     		ldrb	r3, [r7, #15]	@ zero_extendqisi2
 484 003c 402B     		cmp	r3, #64
 485 003e 06D0     		beq	.L29
 486              		.loc 1 196 0 discriminator 2
 487 0040 FB7B     		ldrb	r3, [r7, #15]	@ zero_extendqisi2
 488 0042 5E2B     		cmp	r3, #94
 489 0044 03D0     		beq	.L29
 490              		.loc 1 196 0 discriminator 3
 491 0046 FB7B     		ldrb	r3, [r7, #15]	@ zero_extendqisi2
 492 0048 7C2B     		cmp	r3, #124
 493 004a 40F0EE81 		bne	.L30
 494              	.L29:
 197:.\protocol.c  ****         if((Pump_AL_rxBuffer[0]==0xFF)&&(Pump_AL_rxBuffer[1]==0xF6)&&(Pump_AL_rxBuffer[3]==0xF9)){
 495              		.loc 1 197 0 is_stmt 1
 496 004e B94B     		ldr	r3, .L104
 497 0050 1B78     		ldrb	r3, [r3]
 498 0052 DBB2     		uxtb	r3, r3
 499 0054 FF2B     		cmp	r3, #255
 500 0056 40F0E481 		bne	.L31
 501              		.loc 1 197 0 is_stmt 0 discriminator 1
 502 005a B64B     		ldr	r3, .L104
 503 005c 5B78     		ldrb	r3, [r3, #1]
 504 005e DBB2     		uxtb	r3, r3
 505 0060 F62B     		cmp	r3, #246
 506 0062 40F0DE81 		bne	.L31
 507              		.loc 1 197 0 discriminator 2
 508 0066 B34B     		ldr	r3, .L104
 509 0068 DB78     		ldrb	r3, [r3, #3]
 510 006a DBB2     		uxtb	r3, r3
 511 006c F92B     		cmp	r3, #249
 512 006e 40F0D881 		bne	.L31
 198:.\protocol.c  ****             gradeHandle=(x/30)&0x07;//Identificando cantidad de mangueras en el surtidor
 513              		.loc 1 198 0 is_stmt 1
 514 0072 FB7B     		ldrb	r3, [r7, #15]	@ zero_extendqisi2
 515 0074 B04A     		ldr	r2, .L104+4
 516 0076 A2FB0323 		umull	r2, r3, r2, r3
 517 007a 1B09     		lsrs	r3, r3, #4
 518 007c DBB2     		uxtb	r3, r3
 519 007e 03F00703 		and	r3, r3, #7
 520 0082 FB72     		strb	r3, [r7, #11]
 199:.\protocol.c  ****             if(pos==side.a.dir){
 521              		.loc 1 199 0
 522 0084 AD4B     		ldr	r3, .L104+8
 523 0086 1B78     		ldrb	r3, [r3]	@ zero_extendqisi2
 524 0088 FA79     		ldrb	r2, [r7, #7]	@ zero_extendqisi2
 525 008a 9A42     		cmp	r2, r3
 526 008c 40F0DA80 		bne	.L32
 200:.\protocol.c  ****                 for(x=0;x<4;x++){
 527              		.loc 1 200 0
 528 0090 0023     		movs	r3, #0
 529 0092 FB73     		strb	r3, [r7, #15]
 530 0094 25E0     		b	.L33
 531              	.L38:
 201:.\protocol.c  ****                     for(y=0;y<3;y++){
 532              		.loc 1 201 0
 533 0096 0023     		movs	r3, #0
 534 0098 BB73     		strb	r3, [r7, #14]
ARM GAS  C:\Users\Lenovo\AppData\Local\Temp\cc3dQOqg.s 			page 14


 535 009a 1CE0     		b	.L34
 536              	.L37:
 202:.\protocol.c  ****                         for(z=0;z<14;z++){
 537              		.loc 1 202 0
 538 009c 0023     		movs	r3, #0
 539 009e 7B73     		strb	r3, [r7, #13]
 540 00a0 13E0     		b	.L35
 541              	.L36:
 203:.\protocol.c  ****                             side.a.totalsHandle[x][y][z]=0;
 542              		.loc 1 203 0 discriminator 3
 543 00a2 F97B     		ldrb	r1, [r7, #15]	@ zero_extendqisi2
 544 00a4 BB7B     		ldrb	r3, [r7, #14]	@ zero_extendqisi2
 545 00a6 787B     		ldrb	r0, [r7, #13]	@ zero_extendqisi2
 546 00a8 A44C     		ldr	r4, .L104+8
 547 00aa 1A46     		mov	r2, r3
 548 00ac 1201     		lsls	r2, r2, #4
 549 00ae D21A     		subs	r2, r2, r3
 550 00b0 0B46     		mov	r3, r1
 551 00b2 5B00     		lsls	r3, r3, #1
 552 00b4 0B44     		add	r3, r3, r1
 553 00b6 1901     		lsls	r1, r3, #4
 554 00b8 C91A     		subs	r1, r1, r3
 555 00ba 5318     		adds	r3, r2, r1
 556 00bc 2344     		add	r3, r3, r4
 557 00be 0344     		add	r3, r3, r0
 558 00c0 0022     		movs	r2, #0
 559 00c2 5A70     		strb	r2, [r3, #1]
 202:.\protocol.c  ****                         for(z=0;z<14;z++){
 560              		.loc 1 202 0 discriminator 3
 561 00c4 7B7B     		ldrb	r3, [r7, #13]	@ zero_extendqisi2
 562 00c6 0133     		adds	r3, r3, #1
 563 00c8 7B73     		strb	r3, [r7, #13]
 564              	.L35:
 202:.\protocol.c  ****                         for(z=0;z<14;z++){
 565              		.loc 1 202 0 is_stmt 0 discriminator 1
 566 00ca 7B7B     		ldrb	r3, [r7, #13]	@ zero_extendqisi2
 567 00cc 0D2B     		cmp	r3, #13
 568 00ce E8D9     		bls	.L36
 201:.\protocol.c  ****                     for(y=0;y<3;y++){
 569              		.loc 1 201 0 is_stmt 1 discriminator 2
 570 00d0 BB7B     		ldrb	r3, [r7, #14]	@ zero_extendqisi2
 571 00d2 0133     		adds	r3, r3, #1
 572 00d4 BB73     		strb	r3, [r7, #14]
 573              	.L34:
 201:.\protocol.c  ****                     for(y=0;y<3;y++){
 574              		.loc 1 201 0 is_stmt 0 discriminator 1
 575 00d6 BB7B     		ldrb	r3, [r7, #14]	@ zero_extendqisi2
 576 00d8 022B     		cmp	r3, #2
 577 00da DFD9     		bls	.L37
 200:.\protocol.c  ****                     for(y=0;y<3;y++){
 578              		.loc 1 200 0 is_stmt 1 discriminator 2
 579 00dc FB7B     		ldrb	r3, [r7, #15]	@ zero_extendqisi2
 580 00de 0133     		adds	r3, r3, #1
 581 00e0 FB73     		strb	r3, [r7, #15]
 582              	.L33:
 200:.\protocol.c  ****                     for(y=0;y<3;y++){
 583              		.loc 1 200 0 is_stmt 0 discriminator 1
ARM GAS  C:\Users\Lenovo\AppData\Local\Temp\cc3dQOqg.s 			page 15


 584 00e2 FB7B     		ldrb	r3, [r7, #15]	@ zero_extendqisi2
 585 00e4 032B     		cmp	r3, #3
 586 00e6 D6D9     		bls	.L38
 204:.\protocol.c  ****                         }
 205:.\protocol.c  ****                     }
 206:.\protocol.c  ****                 }
 207:.\protocol.c  ****                 w=0;
 587              		.loc 1 207 0 is_stmt 1
 588 00e8 0023     		movs	r3, #0
 589 00ea 3B73     		strb	r3, [r7, #12]
 208:.\protocol.c  ****                 for(x=0;x<gradeHandle;x++){
 590              		.loc 1 208 0
 591 00ec 0023     		movs	r3, #0
 592 00ee FB73     		strb	r3, [r7, #15]
 593 00f0 9FE0     		b	.L39
 594              	.L49:
 209:.\protocol.c  ****                     for(y=0;y<=2;y++){
 595              		.loc 1 209 0
 596 00f2 0023     		movs	r3, #0
 597 00f4 BB73     		strb	r3, [r7, #14]
 598 00f6 35E0     		b	.L40
 599              	.L45:
 210:.\protocol.c  ****                         for(z=1;z<=8;z++){
 600              		.loc 1 210 0
 601 00f8 0123     		movs	r3, #1
 602 00fa 7B73     		strb	r3, [r7, #13]
 603 00fc 29E0     		b	.L41
 604              	.L44:
 211:.\protocol.c  ****                             side.a.totalsHandle[x][y][9-z]=(Pump_AL_rxBuffer[w+4]&0x0F)+0x30;
 605              		.loc 1 211 0
 606 00fe F97B     		ldrb	r1, [r7, #15]	@ zero_extendqisi2
 607 0100 BB7B     		ldrb	r3, [r7, #14]	@ zero_extendqisi2
 608 0102 7A7B     		ldrb	r2, [r7, #13]	@ zero_extendqisi2
 609 0104 C2F10900 		rsb	r0, r2, #9
 610 0108 3A7B     		ldrb	r2, [r7, #12]	@ zero_extendqisi2
 611 010a 0432     		adds	r2, r2, #4
 612 010c 894C     		ldr	r4, .L104
 613 010e A25C     		ldrb	r2, [r4, r2]
 614 0110 D2B2     		uxtb	r2, r2
 615 0112 02F00F02 		and	r2, r2, #15
 616 0116 D2B2     		uxtb	r2, r2
 617 0118 3032     		adds	r2, r2, #48
 618 011a D5B2     		uxtb	r5, r2
 619 011c 874C     		ldr	r4, .L104+8
 620 011e 1A46     		mov	r2, r3
 621 0120 1201     		lsls	r2, r2, #4
 622 0122 D21A     		subs	r2, r2, r3
 623 0124 0B46     		mov	r3, r1
 624 0126 5B00     		lsls	r3, r3, #1
 625 0128 0B44     		add	r3, r3, r1
 626 012a 1901     		lsls	r1, r3, #4
 627 012c C91A     		subs	r1, r1, r3
 628 012e 5318     		adds	r3, r2, r1
 629 0130 2344     		add	r3, r3, r4
 630 0132 0344     		add	r3, r3, r0
 631 0134 2A46     		mov	r2, r5
 632 0136 5A70     		strb	r2, [r3, #1]
ARM GAS  C:\Users\Lenovo\AppData\Local\Temp\cc3dQOqg.s 			page 16


 212:.\protocol.c  ****                             w++;
 633              		.loc 1 212 0
 634 0138 3B7B     		ldrb	r3, [r7, #12]	@ zero_extendqisi2
 635 013a 0133     		adds	r3, r3, #1
 636 013c 3B73     		strb	r3, [r7, #12]
 213:.\protocol.c  ****                             if((y==2)&&(z==4)){
 637              		.loc 1 213 0
 638 013e BB7B     		ldrb	r3, [r7, #14]	@ zero_extendqisi2
 639 0140 022B     		cmp	r3, #2
 640 0142 03D1     		bne	.L42
 641              		.loc 1 213 0 is_stmt 0 discriminator 1
 642 0144 7B7B     		ldrb	r3, [r7, #13]	@ zero_extendqisi2
 643 0146 042B     		cmp	r3, #4
 644 0148 00D1     		bne	.L42
 214:.\protocol.c  ****                                 break;
 645              		.loc 1 214 0 is_stmt 1
 646 014a 05E0     		b	.L43
 647              	.L42:
 210:.\protocol.c  ****                             side.a.totalsHandle[x][y][9-z]=(Pump_AL_rxBuffer[w+4]&0x0F)+0x30;
 648              		.loc 1 210 0 discriminator 2
 649 014c 7B7B     		ldrb	r3, [r7, #13]	@ zero_extendqisi2
 650 014e 0133     		adds	r3, r3, #1
 651 0150 7B73     		strb	r3, [r7, #13]
 652              	.L41:
 210:.\protocol.c  ****                             side.a.totalsHandle[x][y][9-z]=(Pump_AL_rxBuffer[w+4]&0x0F)+0x30;
 653              		.loc 1 210 0 is_stmt 0 discriminator 1
 654 0152 7B7B     		ldrb	r3, [r7, #13]	@ zero_extendqisi2
 655 0154 082B     		cmp	r3, #8
 656 0156 D2D9     		bls	.L44
 657              	.L43:
 215:.\protocol.c  ****                             }
 216:.\protocol.c  ****                         }
 217:.\protocol.c  ****                         w++;
 658              		.loc 1 217 0 is_stmt 1 discriminator 2
 659 0158 3B7B     		ldrb	r3, [r7, #12]	@ zero_extendqisi2
 660 015a 0133     		adds	r3, r3, #1
 661 015c 3B73     		strb	r3, [r7, #12]
 209:.\protocol.c  ****                         for(z=1;z<=8;z++){
 662              		.loc 1 209 0 discriminator 2
 663 015e BB7B     		ldrb	r3, [r7, #14]	@ zero_extendqisi2
 664 0160 0133     		adds	r3, r3, #1
 665 0162 BB73     		strb	r3, [r7, #14]
 666              	.L40:
 209:.\protocol.c  ****                         for(z=1;z<=8;z++){
 667              		.loc 1 209 0 is_stmt 0 discriminator 1
 668 0164 BB7B     		ldrb	r3, [r7, #14]	@ zero_extendqisi2
 669 0166 022B     		cmp	r3, #2
 670 0168 C6D9     		bls	.L45
 218:.\protocol.c  ****                     }
 219:.\protocol.c  ****                     w=w+7;
 671              		.loc 1 219 0 is_stmt 1
 672 016a 3B7B     		ldrb	r3, [r7, #12]
 673 016c 0733     		adds	r3, r3, #7
 674 016e 3B73     		strb	r3, [r7, #12]
 220:.\protocol.c  ****                     for(z=4;z>=1;z--){
 675              		.loc 1 220 0
 676 0170 0423     		movs	r3, #4
ARM GAS  C:\Users\Lenovo\AppData\Local\Temp\cc3dQOqg.s 			page 17


 677 0172 7B73     		strb	r3, [r7, #13]
 678 0174 1CE0     		b	.L46
 679              	.L47:
 221:.\protocol.c  ****                         side.a.totalsHandle[x][2][z]=side.a.totalsHandle[x][2][z+4];
 680              		.loc 1 221 0 discriminator 3
 681 0176 F97B     		ldrb	r1, [r7, #15]	@ zero_extendqisi2
 682 0178 787B     		ldrb	r0, [r7, #13]	@ zero_extendqisi2
 683 017a FA7B     		ldrb	r2, [r7, #15]	@ zero_extendqisi2
 684 017c 7B7B     		ldrb	r3, [r7, #13]	@ zero_extendqisi2
 685 017e 1C1D     		adds	r4, r3, #4
 686 0180 6E4D     		ldr	r5, .L104+8
 687 0182 1346     		mov	r3, r2
 688 0184 5B00     		lsls	r3, r3, #1
 689 0186 1344     		add	r3, r3, r2
 690 0188 1A01     		lsls	r2, r3, #4
 691 018a D21A     		subs	r2, r2, r3
 692 018c AB18     		adds	r3, r5, r2
 693 018e 2344     		add	r3, r3, r4
 694 0190 1E33     		adds	r3, r3, #30
 695 0192 5D78     		ldrb	r5, [r3, #1]	@ zero_extendqisi2
 696 0194 694C     		ldr	r4, .L104+8
 697 0196 0B46     		mov	r3, r1
 698 0198 5B00     		lsls	r3, r3, #1
 699 019a 0B44     		add	r3, r3, r1
 700 019c 1A01     		lsls	r2, r3, #4
 701 019e D21A     		subs	r2, r2, r3
 702 01a0 A318     		adds	r3, r4, r2
 703 01a2 0344     		add	r3, r3, r0
 704 01a4 1E33     		adds	r3, r3, #30
 705 01a6 2A46     		mov	r2, r5
 706 01a8 5A70     		strb	r2, [r3, #1]
 220:.\protocol.c  ****                     for(z=4;z>=1;z--){
 707              		.loc 1 220 0 discriminator 3
 708 01aa 7B7B     		ldrb	r3, [r7, #13]	@ zero_extendqisi2
 709 01ac 013B     		subs	r3, r3, #1
 710 01ae 7B73     		strb	r3, [r7, #13]
 711              	.L46:
 220:.\protocol.c  ****                     for(z=4;z>=1;z--){
 712              		.loc 1 220 0 is_stmt 0 discriminator 1
 713 01b0 7B7B     		ldrb	r3, [r7, #13]	@ zero_extendqisi2
 714 01b2 002B     		cmp	r3, #0
 715 01b4 DFD1     		bne	.L47
 222:.\protocol.c  ****                     }
 223:.\protocol.c  ****                     side.a.totalsHandle[x][0][0]=8;
 716              		.loc 1 223 0 is_stmt 1
 717 01b6 FA7B     		ldrb	r2, [r7, #15]	@ zero_extendqisi2
 718 01b8 6049     		ldr	r1, .L104+8
 719 01ba 1346     		mov	r3, r2
 720 01bc 5B00     		lsls	r3, r3, #1
 721 01be 1344     		add	r3, r3, r2
 722 01c0 1A01     		lsls	r2, r3, #4
 723 01c2 D21A     		subs	r2, r2, r3
 724 01c4 8B18     		adds	r3, r1, r2
 725 01c6 0822     		movs	r2, #8
 726 01c8 5A70     		strb	r2, [r3, #1]
 224:.\protocol.c  ****                     side.a.totalsHandle[x][1][0]=8;
 727              		.loc 1 224 0
ARM GAS  C:\Users\Lenovo\AppData\Local\Temp\cc3dQOqg.s 			page 18


 728 01ca FA7B     		ldrb	r2, [r7, #15]	@ zero_extendqisi2
 729 01cc 5B49     		ldr	r1, .L104+8
 730 01ce 1346     		mov	r3, r2
 731 01d0 5B00     		lsls	r3, r3, #1
 732 01d2 1344     		add	r3, r3, r2
 733 01d4 1A01     		lsls	r2, r3, #4
 734 01d6 D21A     		subs	r2, r2, r3
 735 01d8 8B18     		adds	r3, r1, r2
 736 01da 0F33     		adds	r3, r3, #15
 737 01dc 0822     		movs	r2, #8
 738 01de 5A70     		strb	r2, [r3, #1]
 225:.\protocol.c  ****                     side.a.totalsHandle[x][2][0]=4;
 739              		.loc 1 225 0
 740 01e0 FA7B     		ldrb	r2, [r7, #15]	@ zero_extendqisi2
 741 01e2 5649     		ldr	r1, .L104+8
 742 01e4 1346     		mov	r3, r2
 743 01e6 5B00     		lsls	r3, r3, #1
 744 01e8 1344     		add	r3, r3, r2
 745 01ea 1A01     		lsls	r2, r3, #4
 746 01ec D21A     		subs	r2, r2, r3
 747 01ee 8B18     		adds	r3, r1, r2
 748 01f0 1E33     		adds	r3, r3, #30
 749 01f2 0422     		movs	r2, #4
 750 01f4 5A70     		strb	r2, [r3, #1]
 226:.\protocol.c  ****                     if(ppux10==1){
 751              		.loc 1 226 0
 752 01f6 524B     		ldr	r3, .L104+12
 753 01f8 1B78     		ldrb	r3, [r3]
 754 01fa DBB2     		uxtb	r3, r3
 755 01fc 012B     		cmp	r3, #1
 756 01fe 15D1     		bne	.L48
 227:.\protocol.c  ****                         side.a.totalsHandle[x][2][0]=5;
 757              		.loc 1 227 0
 758 0200 FA7B     		ldrb	r2, [r7, #15]	@ zero_extendqisi2
 759 0202 4E49     		ldr	r1, .L104+8
 760 0204 1346     		mov	r3, r2
 761 0206 5B00     		lsls	r3, r3, #1
 762 0208 1344     		add	r3, r3, r2
 763 020a 1A01     		lsls	r2, r3, #4
 764 020c D21A     		subs	r2, r2, r3
 765 020e 8B18     		adds	r3, r1, r2
 766 0210 1E33     		adds	r3, r3, #30
 767 0212 0522     		movs	r2, #5
 768 0214 5A70     		strb	r2, [r3, #1]
 228:.\protocol.c  ****                         side.a.totalsHandle[x][2][5]='0';
 769              		.loc 1 228 0
 770 0216 FA7B     		ldrb	r2, [r7, #15]	@ zero_extendqisi2
 771 0218 4849     		ldr	r1, .L104+8
 772 021a 1346     		mov	r3, r2
 773 021c 5B00     		lsls	r3, r3, #1
 774 021e 1344     		add	r3, r3, r2
 775 0220 1A01     		lsls	r2, r3, #4
 776 0222 D21A     		subs	r2, r2, r3
 777 0224 8B18     		adds	r3, r1, r2
 778 0226 2333     		adds	r3, r3, #35
 779 0228 3022     		movs	r2, #48
 780 022a 5A70     		strb	r2, [r3, #1]
ARM GAS  C:\Users\Lenovo\AppData\Local\Temp\cc3dQOqg.s 			page 19


 781              	.L48:
 208:.\protocol.c  ****                     for(y=0;y<=2;y++){
 782              		.loc 1 208 0 discriminator 2
 783 022c FB7B     		ldrb	r3, [r7, #15]	@ zero_extendqisi2
 784 022e 0133     		adds	r3, r3, #1
 785 0230 FB73     		strb	r3, [r7, #15]
 786              	.L39:
 208:.\protocol.c  ****                     for(y=0;y<=2;y++){
 787              		.loc 1 208 0 is_stmt 0 discriminator 1
 788 0232 FA7B     		ldrb	r2, [r7, #15]	@ zero_extendqisi2
 789 0234 FB7A     		ldrb	r3, [r7, #11]	@ zero_extendqisi2
 790 0236 9A42     		cmp	r2, r3
 791 0238 FFF45BAF 		bcc	.L49
 229:.\protocol.c  ****                     }
 230:.\protocol.c  ****                 }
 231:.\protocol.c  ****                 Pump_AL_ClearRxBuffer();
 792              		.loc 1 231 0 is_stmt 1
 793 023c FFF7FEFF 		bl	Pump_AL_ClearRxBuffer
 232:.\protocol.c  ****                 return gradeHandle;
 794              		.loc 1 232 0
 795 0240 FB7A     		ldrb	r3, [r7, #11]	@ zero_extendqisi2
 796 0242 B8E2     		b	.L50
 797              	.L32:
 233:.\protocol.c  ****             }else{
 234:.\protocol.c  ****                 for(x=0;x<4;x++){
 798              		.loc 1 234 0
 799 0244 0023     		movs	r3, #0
 800 0246 FB73     		strb	r3, [r7, #15]
 801 0248 27E0     		b	.L51
 802              	.L56:
 235:.\protocol.c  ****                     for(y=0;y<3;y++){
 803              		.loc 1 235 0
 804 024a 0023     		movs	r3, #0
 805 024c BB73     		strb	r3, [r7, #14]
 806 024e 1EE0     		b	.L52
 807              	.L55:
 236:.\protocol.c  ****                         for(z=0;z<14;z++){
 808              		.loc 1 236 0
 809 0250 0023     		movs	r3, #0
 810 0252 7B73     		strb	r3, [r7, #13]
 811 0254 15E0     		b	.L53
 812              	.L54:
 237:.\protocol.c  ****                             side.b.totalsHandle[x][y][z]=0;
 813              		.loc 1 237 0 discriminator 3
 814 0256 F97B     		ldrb	r1, [r7, #15]	@ zero_extendqisi2
 815 0258 BB7B     		ldrb	r3, [r7, #14]	@ zero_extendqisi2
 816 025a 787B     		ldrb	r0, [r7, #13]	@ zero_extendqisi2
 817 025c 374C     		ldr	r4, .L104+8
 818 025e 1A46     		mov	r2, r3
 819 0260 1201     		lsls	r2, r2, #4
 820 0262 D21A     		subs	r2, r2, r3
 821 0264 0B46     		mov	r3, r1
 822 0266 5B00     		lsls	r3, r3, #1
 823 0268 0B44     		add	r3, r3, r1
 824 026a 1901     		lsls	r1, r3, #4
 825 026c C91A     		subs	r1, r1, r3
 826 026e 5318     		adds	r3, r2, r1
ARM GAS  C:\Users\Lenovo\AppData\Local\Temp\cc3dQOqg.s 			page 20


 827 0270 2344     		add	r3, r3, r4
 828 0272 0344     		add	r3, r3, r0
 829 0274 03F58073 		add	r3, r3, #256
 830 0278 0022     		movs	r2, #0
 831 027a 5A70     		strb	r2, [r3, #1]
 236:.\protocol.c  ****                         for(z=0;z<14;z++){
 832              		.loc 1 236 0 discriminator 3
 833 027c 7B7B     		ldrb	r3, [r7, #13]	@ zero_extendqisi2
 834 027e 0133     		adds	r3, r3, #1
 835 0280 7B73     		strb	r3, [r7, #13]
 836              	.L53:
 236:.\protocol.c  ****                         for(z=0;z<14;z++){
 837              		.loc 1 236 0 is_stmt 0 discriminator 1
 838 0282 7B7B     		ldrb	r3, [r7, #13]	@ zero_extendqisi2
 839 0284 0D2B     		cmp	r3, #13
 840 0286 E6D9     		bls	.L54
 235:.\protocol.c  ****                     for(y=0;y<3;y++){
 841              		.loc 1 235 0 is_stmt 1 discriminator 2
 842 0288 BB7B     		ldrb	r3, [r7, #14]	@ zero_extendqisi2
 843 028a 0133     		adds	r3, r3, #1
 844 028c BB73     		strb	r3, [r7, #14]
 845              	.L52:
 235:.\protocol.c  ****                     for(y=0;y<3;y++){
 846              		.loc 1 235 0 is_stmt 0 discriminator 1
 847 028e BB7B     		ldrb	r3, [r7, #14]	@ zero_extendqisi2
 848 0290 022B     		cmp	r3, #2
 849 0292 DDD9     		bls	.L55
 234:.\protocol.c  ****                     for(y=0;y<3;y++){
 850              		.loc 1 234 0 is_stmt 1 discriminator 2
 851 0294 FB7B     		ldrb	r3, [r7, #15]	@ zero_extendqisi2
 852 0296 0133     		adds	r3, r3, #1
 853 0298 FB73     		strb	r3, [r7, #15]
 854              	.L51:
 234:.\protocol.c  ****                     for(y=0;y<3;y++){
 855              		.loc 1 234 0 is_stmt 0 discriminator 1
 856 029a FB7B     		ldrb	r3, [r7, #15]	@ zero_extendqisi2
 857 029c 032B     		cmp	r3, #3
 858 029e D4D9     		bls	.L56
 238:.\protocol.c  ****                         }
 239:.\protocol.c  ****                     }
 240:.\protocol.c  ****                 }
 241:.\protocol.c  ****                 w=0;
 859              		.loc 1 241 0 is_stmt 1
 860 02a0 0023     		movs	r3, #0
 861 02a2 3B73     		strb	r3, [r7, #12]
 242:.\protocol.c  ****                 for(x=0;x<gradeHandle;x++){
 862              		.loc 1 242 0
 863 02a4 0023     		movs	r3, #0
 864 02a6 FB73     		strb	r3, [r7, #15]
 865 02a8 B2E0     		b	.L57
 866              	.L67:
 243:.\protocol.c  ****                     for(y=0;y<=2;y++){
 867              		.loc 1 243 0
 868 02aa 0023     		movs	r3, #0
 869 02ac BB73     		strb	r3, [r7, #14]
 870 02ae 37E0     		b	.L58
 871              	.L63:
ARM GAS  C:\Users\Lenovo\AppData\Local\Temp\cc3dQOqg.s 			page 21


 244:.\protocol.c  ****                         for(z=1;z<=8;z++){
 872              		.loc 1 244 0
 873 02b0 0123     		movs	r3, #1
 874 02b2 7B73     		strb	r3, [r7, #13]
 875 02b4 2BE0     		b	.L59
 876              	.L62:
 245:.\protocol.c  ****                             side.b.totalsHandle[x][y][9-z]=(Pump_AL_rxBuffer[w+4]&0x0F)+0x30;
 877              		.loc 1 245 0
 878 02b6 F97B     		ldrb	r1, [r7, #15]	@ zero_extendqisi2
 879 02b8 BB7B     		ldrb	r3, [r7, #14]	@ zero_extendqisi2
 880 02ba 7A7B     		ldrb	r2, [r7, #13]	@ zero_extendqisi2
 881 02bc C2F10900 		rsb	r0, r2, #9
 882 02c0 3A7B     		ldrb	r2, [r7, #12]	@ zero_extendqisi2
 883 02c2 0432     		adds	r2, r2, #4
 884 02c4 1B4C     		ldr	r4, .L104
 885 02c6 A25C     		ldrb	r2, [r4, r2]
 886 02c8 D2B2     		uxtb	r2, r2
 887 02ca 02F00F02 		and	r2, r2, #15
 888 02ce D2B2     		uxtb	r2, r2
 889 02d0 3032     		adds	r2, r2, #48
 890 02d2 D5B2     		uxtb	r5, r2
 891 02d4 194C     		ldr	r4, .L104+8
 892 02d6 1A46     		mov	r2, r3
 893 02d8 1201     		lsls	r2, r2, #4
 894 02da D21A     		subs	r2, r2, r3
 895 02dc 0B46     		mov	r3, r1
 896 02de 5B00     		lsls	r3, r3, #1
 897 02e0 0B44     		add	r3, r3, r1
 898 02e2 1901     		lsls	r1, r3, #4
 899 02e4 C91A     		subs	r1, r1, r3
 900 02e6 5318     		adds	r3, r2, r1
 901 02e8 2344     		add	r3, r3, r4
 902 02ea 0344     		add	r3, r3, r0
 903 02ec 03F58073 		add	r3, r3, #256
 904 02f0 2A46     		mov	r2, r5
 905 02f2 5A70     		strb	r2, [r3, #1]
 246:.\protocol.c  ****                             w++;
 906              		.loc 1 246 0
 907 02f4 3B7B     		ldrb	r3, [r7, #12]	@ zero_extendqisi2
 908 02f6 0133     		adds	r3, r3, #1
 909 02f8 3B73     		strb	r3, [r7, #12]
 247:.\protocol.c  ****                             if((y==2)&&(z==4)){
 910              		.loc 1 247 0
 911 02fa BB7B     		ldrb	r3, [r7, #14]	@ zero_extendqisi2
 912 02fc 022B     		cmp	r3, #2
 913 02fe 03D1     		bne	.L60
 914              		.loc 1 247 0 is_stmt 0 discriminator 1
 915 0300 7B7B     		ldrb	r3, [r7, #13]	@ zero_extendqisi2
 916 0302 042B     		cmp	r3, #4
 917 0304 00D1     		bne	.L60
 248:.\protocol.c  ****                                 break;
 918              		.loc 1 248 0 is_stmt 1
 919 0306 05E0     		b	.L61
 920              	.L60:
 244:.\protocol.c  ****                             side.b.totalsHandle[x][y][9-z]=(Pump_AL_rxBuffer[w+4]&0x0F)+0x30;
 921              		.loc 1 244 0 discriminator 2
 922 0308 7B7B     		ldrb	r3, [r7, #13]	@ zero_extendqisi2
ARM GAS  C:\Users\Lenovo\AppData\Local\Temp\cc3dQOqg.s 			page 22


 923 030a 0133     		adds	r3, r3, #1
 924 030c 7B73     		strb	r3, [r7, #13]
 925              	.L59:
 244:.\protocol.c  ****                             side.b.totalsHandle[x][y][9-z]=(Pump_AL_rxBuffer[w+4]&0x0F)+0x30;
 926              		.loc 1 244 0 is_stmt 0 discriminator 1
 927 030e 7B7B     		ldrb	r3, [r7, #13]	@ zero_extendqisi2
 928 0310 082B     		cmp	r3, #8
 929 0312 D0D9     		bls	.L62
 930              	.L61:
 249:.\protocol.c  ****                             }
 250:.\protocol.c  ****                         }
 251:.\protocol.c  ****                         w++;
 931              		.loc 1 251 0 is_stmt 1 discriminator 2
 932 0314 3B7B     		ldrb	r3, [r7, #12]	@ zero_extendqisi2
 933 0316 0133     		adds	r3, r3, #1
 934 0318 3B73     		strb	r3, [r7, #12]
 243:.\protocol.c  ****                         for(z=1;z<=8;z++){
 935              		.loc 1 243 0 discriminator 2
 936 031a BB7B     		ldrb	r3, [r7, #14]	@ zero_extendqisi2
 937 031c 0133     		adds	r3, r3, #1
 938 031e BB73     		strb	r3, [r7, #14]
 939              	.L58:
 243:.\protocol.c  ****                         for(z=1;z<=8;z++){
 940              		.loc 1 243 0 is_stmt 0 discriminator 1
 941 0320 BB7B     		ldrb	r3, [r7, #14]	@ zero_extendqisi2
 942 0322 022B     		cmp	r3, #2
 943 0324 C4D9     		bls	.L63
 252:.\protocol.c  ****                     }
 253:.\protocol.c  ****                     w=w+7;
 944              		.loc 1 253 0 is_stmt 1
 945 0326 3B7B     		ldrb	r3, [r7, #12]
 946 0328 0733     		adds	r3, r3, #7
 947 032a 3B73     		strb	r3, [r7, #12]
 254:.\protocol.c  ****                     for(z=4;z>=1;z--){
 948              		.loc 1 254 0
 949 032c 0423     		movs	r3, #4
 950 032e 7B73     		strb	r3, [r7, #13]
 951 0330 27E0     		b	.L64
 952              	.L105:
 953 0332 00BF     		.align	2
 954              	.L104:
 955 0334 00000000 		.word	Pump_AL_rxBuffer
 956 0338 89888888 		.word	-2004318071
 957 033c 00000000 		.word	side
 958 0340 00000000 		.word	ppux10
 959              	.L65:
 255:.\protocol.c  ****                         side.b.totalsHandle[x][2][z]=side.b.totalsHandle[x][2][z+4];
 960              		.loc 1 255 0 discriminator 3
 961 0344 F97B     		ldrb	r1, [r7, #15]	@ zero_extendqisi2
 962 0346 787B     		ldrb	r0, [r7, #13]	@ zero_extendqisi2
 963 0348 FA7B     		ldrb	r2, [r7, #15]	@ zero_extendqisi2
 964 034a 7B7B     		ldrb	r3, [r7, #13]	@ zero_extendqisi2
 965 034c 1C1D     		adds	r4, r3, #4
 966 034e B24D     		ldr	r5, .L106
 967 0350 1346     		mov	r3, r2
 968 0352 5B00     		lsls	r3, r3, #1
 969 0354 1344     		add	r3, r3, r2
ARM GAS  C:\Users\Lenovo\AppData\Local\Temp\cc3dQOqg.s 			page 23


 970 0356 1A01     		lsls	r2, r3, #4
 971 0358 D21A     		subs	r2, r2, r3
 972 035a AB18     		adds	r3, r5, r2
 973 035c 2344     		add	r3, r3, r4
 974 035e 03F58F73 		add	r3, r3, #286
 975 0362 5D78     		ldrb	r5, [r3, #1]	@ zero_extendqisi2
 976 0364 AC4C     		ldr	r4, .L106
 977 0366 0B46     		mov	r3, r1
 978 0368 5B00     		lsls	r3, r3, #1
 979 036a 0B44     		add	r3, r3, r1
 980 036c 1A01     		lsls	r2, r3, #4
 981 036e D21A     		subs	r2, r2, r3
 982 0370 A318     		adds	r3, r4, r2
 983 0372 0344     		add	r3, r3, r0
 984 0374 03F58F73 		add	r3, r3, #286
 985 0378 2A46     		mov	r2, r5
 986 037a 5A70     		strb	r2, [r3, #1]
 254:.\protocol.c  ****                     for(z=4;z>=1;z--){
 987              		.loc 1 254 0 discriminator 3
 988 037c 7B7B     		ldrb	r3, [r7, #13]	@ zero_extendqisi2
 989 037e 013B     		subs	r3, r3, #1
 990 0380 7B73     		strb	r3, [r7, #13]
 991              	.L64:
 254:.\protocol.c  ****                     for(z=4;z>=1;z--){
 992              		.loc 1 254 0 is_stmt 0 discriminator 1
 993 0382 7B7B     		ldrb	r3, [r7, #13]	@ zero_extendqisi2
 994 0384 002B     		cmp	r3, #0
 995 0386 DDD1     		bne	.L65
 256:.\protocol.c  ****                     }
 257:.\protocol.c  ****                     side.b.totalsHandle[x][0][0]=8;
 996              		.loc 1 257 0 is_stmt 1
 997 0388 FA7B     		ldrb	r2, [r7, #15]	@ zero_extendqisi2
 998 038a A349     		ldr	r1, .L106
 999 038c 1346     		mov	r3, r2
 1000 038e 5B00     		lsls	r3, r3, #1
 1001 0390 1344     		add	r3, r3, r2
 1002 0392 1A01     		lsls	r2, r3, #4
 1003 0394 D21A     		subs	r2, r2, r3
 1004 0396 8B18     		adds	r3, r1, r2
 1005 0398 03F58073 		add	r3, r3, #256
 1006 039c 0822     		movs	r2, #8
 1007 039e 5A70     		strb	r2, [r3, #1]
 258:.\protocol.c  ****                     side.b.totalsHandle[x][1][0]=8;
 1008              		.loc 1 258 0
 1009 03a0 FA7B     		ldrb	r2, [r7, #15]	@ zero_extendqisi2
 1010 03a2 9D49     		ldr	r1, .L106
 1011 03a4 1346     		mov	r3, r2
 1012 03a6 5B00     		lsls	r3, r3, #1
 1013 03a8 1344     		add	r3, r3, r2
 1014 03aa 1A01     		lsls	r2, r3, #4
 1015 03ac D21A     		subs	r2, r2, r3
 1016 03ae 8B18     		adds	r3, r1, r2
 1017 03b0 03F20F13 		addw	r3, r3, #271
 1018 03b4 0822     		movs	r2, #8
 1019 03b6 5A70     		strb	r2, [r3, #1]
 259:.\protocol.c  ****                     side.b.totalsHandle[x][2][0]=4;
 1020              		.loc 1 259 0
ARM GAS  C:\Users\Lenovo\AppData\Local\Temp\cc3dQOqg.s 			page 24


 1021 03b8 FA7B     		ldrb	r2, [r7, #15]	@ zero_extendqisi2
 1022 03ba 9749     		ldr	r1, .L106
 1023 03bc 1346     		mov	r3, r2
 1024 03be 5B00     		lsls	r3, r3, #1
 1025 03c0 1344     		add	r3, r3, r2
 1026 03c2 1A01     		lsls	r2, r3, #4
 1027 03c4 D21A     		subs	r2, r2, r3
 1028 03c6 8B18     		adds	r3, r1, r2
 1029 03c8 03F58F73 		add	r3, r3, #286
 1030 03cc 0422     		movs	r2, #4
 1031 03ce 5A70     		strb	r2, [r3, #1]
 260:.\protocol.c  ****                     if(ppux10==1){
 1032              		.loc 1 260 0
 1033 03d0 924B     		ldr	r3, .L106+4
 1034 03d2 1B78     		ldrb	r3, [r3]
 1035 03d4 DBB2     		uxtb	r3, r3
 1036 03d6 012B     		cmp	r3, #1
 1037 03d8 17D1     		bne	.L66
 261:.\protocol.c  ****                         side.b.totalsHandle[x][2][0]=5;
 1038              		.loc 1 261 0
 1039 03da FA7B     		ldrb	r2, [r7, #15]	@ zero_extendqisi2
 1040 03dc 8E49     		ldr	r1, .L106
 1041 03de 1346     		mov	r3, r2
 1042 03e0 5B00     		lsls	r3, r3, #1
 1043 03e2 1344     		add	r3, r3, r2
 1044 03e4 1A01     		lsls	r2, r3, #4
 1045 03e6 D21A     		subs	r2, r2, r3
 1046 03e8 8B18     		adds	r3, r1, r2
 1047 03ea 03F58F73 		add	r3, r3, #286
 1048 03ee 0522     		movs	r2, #5
 1049 03f0 5A70     		strb	r2, [r3, #1]
 262:.\protocol.c  ****                         side.b.totalsHandle[x][2][5]='0';
 1050              		.loc 1 262 0
 1051 03f2 FA7B     		ldrb	r2, [r7, #15]	@ zero_extendqisi2
 1052 03f4 8849     		ldr	r1, .L106
 1053 03f6 1346     		mov	r3, r2
 1054 03f8 5B00     		lsls	r3, r3, #1
 1055 03fa 1344     		add	r3, r3, r2
 1056 03fc 1A01     		lsls	r2, r3, #4
 1057 03fe D21A     		subs	r2, r2, r3
 1058 0400 8B18     		adds	r3, r1, r2
 1059 0402 03F22313 		addw	r3, r3, #291
 1060 0406 3022     		movs	r2, #48
 1061 0408 5A70     		strb	r2, [r3, #1]
 1062              	.L66:
 242:.\protocol.c  ****                     for(y=0;y<=2;y++){
 1063              		.loc 1 242 0 discriminator 2
 1064 040a FB7B     		ldrb	r3, [r7, #15]	@ zero_extendqisi2
 1065 040c 0133     		adds	r3, r3, #1
 1066 040e FB73     		strb	r3, [r7, #15]
 1067              	.L57:
 242:.\protocol.c  ****                     for(y=0;y<=2;y++){
 1068              		.loc 1 242 0 is_stmt 0 discriminator 1
 1069 0410 FA7B     		ldrb	r2, [r7, #15]	@ zero_extendqisi2
 1070 0412 FB7A     		ldrb	r3, [r7, #11]	@ zero_extendqisi2
 1071 0414 9A42     		cmp	r2, r3
 1072 0416 FFF448AF 		bcc	.L67
ARM GAS  C:\Users\Lenovo\AppData\Local\Temp\cc3dQOqg.s 			page 25


 263:.\protocol.c  ****                     }
 264:.\protocol.c  ****                 }
 265:.\protocol.c  ****                 Pump_AL_ClearRxBuffer();
 1073              		.loc 1 265 0 is_stmt 1
 1074 041a FFF7FEFF 		bl	Pump_AL_ClearRxBuffer
 266:.\protocol.c  ****                 return gradeHandle;
 1075              		.loc 1 266 0
 1076 041e FB7A     		ldrb	r3, [r7, #11]	@ zero_extendqisi2
 1077 0420 C9E1     		b	.L50
 1078              	.L31:
 267:.\protocol.c  ****             }
 268:.\protocol.c  ****         }else{
 269:.\protocol.c  ****             Pump_AL_ClearRxBuffer();
 1079              		.loc 1 269 0
 1080 0422 FFF7FEFF 		bl	Pump_AL_ClearRxBuffer
 270:.\protocol.c  ****             return 0;
 1081              		.loc 1 270 0
 1082 0426 0023     		movs	r3, #0
 1083 0428 C5E1     		b	.L50
 1084              	.L30:
 271:.\protocol.c  ****         }
 272:.\protocol.c  ****     }else if((x==46)||(x==88)||(x==130)||(x==172)){//Version 7 digitos
 1085              		.loc 1 272 0
 1086 042a FB7B     		ldrb	r3, [r7, #15]	@ zero_extendqisi2
 1087 042c 2E2B     		cmp	r3, #46
 1088 042e 09D0     		beq	.L68
 1089              		.loc 1 272 0 is_stmt 0 discriminator 1
 1090 0430 FB7B     		ldrb	r3, [r7, #15]	@ zero_extendqisi2
 1091 0432 582B     		cmp	r3, #88
 1092 0434 06D0     		beq	.L68
 1093              		.loc 1 272 0 discriminator 2
 1094 0436 FB7B     		ldrb	r3, [r7, #15]	@ zero_extendqisi2
 1095 0438 822B     		cmp	r3, #130
 1096 043a 03D0     		beq	.L68
 1097              		.loc 1 272 0 discriminator 3
 1098 043c FB7B     		ldrb	r3, [r7, #15]	@ zero_extendqisi2
 1099 043e AC2B     		cmp	r3, #172
 1100 0440 40F0B681 		bne	.L69
 1101              	.L68:
 273:.\protocol.c  ****         if((Pump_AL_rxBuffer[0]==0xFF)&&(Pump_AL_rxBuffer[1]==0xF6)&&(Pump_AL_rxBuffer[3]==0xF9)){
 1102              		.loc 1 273 0 is_stmt 1
 1103 0444 764B     		ldr	r3, .L106+8
 1104 0446 1B78     		ldrb	r3, [r3]
 1105 0448 DBB2     		uxtb	r3, r3
 1106 044a FF2B     		cmp	r3, #255
 1107 044c 40F0AC81 		bne	.L70
 1108              		.loc 1 273 0 is_stmt 0 discriminator 1
 1109 0450 734B     		ldr	r3, .L106+8
 1110 0452 5B78     		ldrb	r3, [r3, #1]
 1111 0454 DBB2     		uxtb	r3, r3
 1112 0456 F62B     		cmp	r3, #246
 1113 0458 40F0A681 		bne	.L70
 1114              		.loc 1 273 0 discriminator 2
 1115 045c 704B     		ldr	r3, .L106+8
 1116 045e DB78     		ldrb	r3, [r3, #3]
 1117 0460 DBB2     		uxtb	r3, r3
 1118 0462 F92B     		cmp	r3, #249
ARM GAS  C:\Users\Lenovo\AppData\Local\Temp\cc3dQOqg.s 			page 26


 1119 0464 40F0A081 		bne	.L70
 274:.\protocol.c  ****             gradeHandle=(x/40)&0x07;//Identificando cantidad de mangueras en el surtidor
 1120              		.loc 1 274 0 is_stmt 1
 1121 0468 FB7B     		ldrb	r3, [r7, #15]	@ zero_extendqisi2
 1122 046a 6E4A     		ldr	r2, .L106+12
 1123 046c A2FB0323 		umull	r2, r3, r2, r3
 1124 0470 5B09     		lsrs	r3, r3, #5
 1125 0472 DBB2     		uxtb	r3, r3
 1126 0474 03F00703 		and	r3, r3, #7
 1127 0478 FB72     		strb	r3, [r7, #11]
 275:.\protocol.c  ****             if(pos==side.a.dir){
 1128              		.loc 1 275 0
 1129 047a 674B     		ldr	r3, .L106
 1130 047c 1B78     		ldrb	r3, [r3]	@ zero_extendqisi2
 1131 047e FA79     		ldrb	r2, [r7, #7]	@ zero_extendqisi2
 1132 0480 9A42     		cmp	r2, r3
 1133 0482 40F0BF80 		bne	.L71
 276:.\protocol.c  ****                 for(x=0;x<4;x++){
 1134              		.loc 1 276 0
 1135 0486 0023     		movs	r3, #0
 1136 0488 FB73     		strb	r3, [r7, #15]
 1137 048a 25E0     		b	.L72
 1138              	.L77:
 277:.\protocol.c  ****                     for(y=0;y<3;y++){
 1139              		.loc 1 277 0
 1140 048c 0023     		movs	r3, #0
 1141 048e BB73     		strb	r3, [r7, #14]
 1142 0490 1CE0     		b	.L73
 1143              	.L76:
 278:.\protocol.c  ****                         for(z=0;z<14;z++){
 1144              		.loc 1 278 0
 1145 0492 0023     		movs	r3, #0
 1146 0494 7B73     		strb	r3, [r7, #13]
 1147 0496 13E0     		b	.L74
 1148              	.L75:
 279:.\protocol.c  ****                             side.a.totalsHandle[x][y][z]=0;
 1149              		.loc 1 279 0 discriminator 3
 1150 0498 F97B     		ldrb	r1, [r7, #15]	@ zero_extendqisi2
 1151 049a BB7B     		ldrb	r3, [r7, #14]	@ zero_extendqisi2
 1152 049c 787B     		ldrb	r0, [r7, #13]	@ zero_extendqisi2
 1153 049e 5E4C     		ldr	r4, .L106
 1154 04a0 1A46     		mov	r2, r3
 1155 04a2 1201     		lsls	r2, r2, #4
 1156 04a4 D21A     		subs	r2, r2, r3
 1157 04a6 0B46     		mov	r3, r1
 1158 04a8 5B00     		lsls	r3, r3, #1
 1159 04aa 0B44     		add	r3, r3, r1
 1160 04ac 1901     		lsls	r1, r3, #4
 1161 04ae C91A     		subs	r1, r1, r3
 1162 04b0 5318     		adds	r3, r2, r1
 1163 04b2 2344     		add	r3, r3, r4
 1164 04b4 0344     		add	r3, r3, r0
 1165 04b6 0022     		movs	r2, #0
 1166 04b8 5A70     		strb	r2, [r3, #1]
 278:.\protocol.c  ****                         for(z=0;z<14;z++){
 1167              		.loc 1 278 0 discriminator 3
 1168 04ba 7B7B     		ldrb	r3, [r7, #13]	@ zero_extendqisi2
ARM GAS  C:\Users\Lenovo\AppData\Local\Temp\cc3dQOqg.s 			page 27


 1169 04bc 0133     		adds	r3, r3, #1
 1170 04be 7B73     		strb	r3, [r7, #13]
 1171              	.L74:
 278:.\protocol.c  ****                         for(z=0;z<14;z++){
 1172              		.loc 1 278 0 is_stmt 0 discriminator 1
 1173 04c0 7B7B     		ldrb	r3, [r7, #13]	@ zero_extendqisi2
 1174 04c2 0D2B     		cmp	r3, #13
 1175 04c4 E8D9     		bls	.L75
 277:.\protocol.c  ****                     for(y=0;y<3;y++){
 1176              		.loc 1 277 0 is_stmt 1 discriminator 2
 1177 04c6 BB7B     		ldrb	r3, [r7, #14]	@ zero_extendqisi2
 1178 04c8 0133     		adds	r3, r3, #1
 1179 04ca BB73     		strb	r3, [r7, #14]
 1180              	.L73:
 277:.\protocol.c  ****                     for(y=0;y<3;y++){
 1181              		.loc 1 277 0 is_stmt 0 discriminator 1
 1182 04cc BB7B     		ldrb	r3, [r7, #14]	@ zero_extendqisi2
 1183 04ce 022B     		cmp	r3, #2
 1184 04d0 DFD9     		bls	.L76
 276:.\protocol.c  ****                     for(y=0;y<3;y++){
 1185              		.loc 1 276 0 is_stmt 1 discriminator 2
 1186 04d2 FB7B     		ldrb	r3, [r7, #15]	@ zero_extendqisi2
 1187 04d4 0133     		adds	r3, r3, #1
 1188 04d6 FB73     		strb	r3, [r7, #15]
 1189              	.L72:
 276:.\protocol.c  ****                     for(y=0;y<3;y++){
 1190              		.loc 1 276 0 is_stmt 0 discriminator 1
 1191 04d8 FB7B     		ldrb	r3, [r7, #15]	@ zero_extendqisi2
 1192 04da 032B     		cmp	r3, #3
 1193 04dc D6D9     		bls	.L77
 280:.\protocol.c  ****                         }
 281:.\protocol.c  ****                     }
 282:.\protocol.c  ****                 }
 283:.\protocol.c  ****                 w=0;
 1194              		.loc 1 283 0 is_stmt 1
 1195 04de 0023     		movs	r3, #0
 1196 04e0 3B73     		strb	r3, [r7, #12]
 284:.\protocol.c  ****                 for(x=0;x<gradeHandle;x++){
 1197              		.loc 1 284 0
 1198 04e2 0023     		movs	r3, #0
 1199 04e4 FB73     		strb	r3, [r7, #15]
 1200 04e6 84E0     		b	.L78
 1201              	.L87:
 285:.\protocol.c  ****                     for(y=0;y<=2;y++){
 1202              		.loc 1 285 0
 1203 04e8 0023     		movs	r3, #0
 1204 04ea BB73     		strb	r3, [r7, #14]
 1205 04ec 35E0     		b	.L79
 1206              	.L84:
 286:.\protocol.c  ****                         for(z=1;z<=12;z++){
 1207              		.loc 1 286 0
 1208 04ee 0123     		movs	r3, #1
 1209 04f0 7B73     		strb	r3, [r7, #13]
 1210 04f2 29E0     		b	.L80
 1211              	.L83:
 287:.\protocol.c  ****                             side.a.totalsHandle[x][y][13-z]=(Pump_AL_rxBuffer[w+4]&0x0F)+0x30;
 1212              		.loc 1 287 0
ARM GAS  C:\Users\Lenovo\AppData\Local\Temp\cc3dQOqg.s 			page 28


 1213 04f4 F97B     		ldrb	r1, [r7, #15]	@ zero_extendqisi2
 1214 04f6 BB7B     		ldrb	r3, [r7, #14]	@ zero_extendqisi2
 1215 04f8 7A7B     		ldrb	r2, [r7, #13]	@ zero_extendqisi2
 1216 04fa C2F10D00 		rsb	r0, r2, #13
 1217 04fe 3A7B     		ldrb	r2, [r7, #12]	@ zero_extendqisi2
 1218 0500 0432     		adds	r2, r2, #4
 1219 0502 474C     		ldr	r4, .L106+8
 1220 0504 A25C     		ldrb	r2, [r4, r2]
 1221 0506 D2B2     		uxtb	r2, r2
 1222 0508 02F00F02 		and	r2, r2, #15
 1223 050c D2B2     		uxtb	r2, r2
 1224 050e 3032     		adds	r2, r2, #48
 1225 0510 D5B2     		uxtb	r5, r2
 1226 0512 414C     		ldr	r4, .L106
 1227 0514 1A46     		mov	r2, r3
 1228 0516 1201     		lsls	r2, r2, #4
 1229 0518 D21A     		subs	r2, r2, r3
 1230 051a 0B46     		mov	r3, r1
 1231 051c 5B00     		lsls	r3, r3, #1
 1232 051e 0B44     		add	r3, r3, r1
 1233 0520 1901     		lsls	r1, r3, #4
 1234 0522 C91A     		subs	r1, r1, r3
 1235 0524 5318     		adds	r3, r2, r1
 1236 0526 2344     		add	r3, r3, r4
 1237 0528 0344     		add	r3, r3, r0
 1238 052a 2A46     		mov	r2, r5
 1239 052c 5A70     		strb	r2, [r3, #1]
 288:.\protocol.c  ****                             w++;
 1240              		.loc 1 288 0
 1241 052e 3B7B     		ldrb	r3, [r7, #12]	@ zero_extendqisi2
 1242 0530 0133     		adds	r3, r3, #1
 1243 0532 3B73     		strb	r3, [r7, #12]
 289:.\protocol.c  ****                             if((y==2)&&(z==6)){
 1244              		.loc 1 289 0
 1245 0534 BB7B     		ldrb	r3, [r7, #14]	@ zero_extendqisi2
 1246 0536 022B     		cmp	r3, #2
 1247 0538 03D1     		bne	.L81
 1248              		.loc 1 289 0 is_stmt 0 discriminator 1
 1249 053a 7B7B     		ldrb	r3, [r7, #13]	@ zero_extendqisi2
 1250 053c 062B     		cmp	r3, #6
 1251 053e 00D1     		bne	.L81
 290:.\protocol.c  ****                                 break;
 1252              		.loc 1 290 0 is_stmt 1
 1253 0540 05E0     		b	.L82
 1254              	.L81:
 286:.\protocol.c  ****                             side.a.totalsHandle[x][y][13-z]=(Pump_AL_rxBuffer[w+4]&0x0F)+0x30;
 1255              		.loc 1 286 0 discriminator 2
 1256 0542 7B7B     		ldrb	r3, [r7, #13]	@ zero_extendqisi2
 1257 0544 0133     		adds	r3, r3, #1
 1258 0546 7B73     		strb	r3, [r7, #13]
 1259              	.L80:
 286:.\protocol.c  ****                             side.a.totalsHandle[x][y][13-z]=(Pump_AL_rxBuffer[w+4]&0x0F)+0x30;
 1260              		.loc 1 286 0 is_stmt 0 discriminator 1
 1261 0548 7B7B     		ldrb	r3, [r7, #13]	@ zero_extendqisi2
 1262 054a 0C2B     		cmp	r3, #12
 1263 054c D2D9     		bls	.L83
 1264              	.L82:
ARM GAS  C:\Users\Lenovo\AppData\Local\Temp\cc3dQOqg.s 			page 29


 291:.\protocol.c  ****                             }
 292:.\protocol.c  ****                         }
 293:.\protocol.c  ****                         w++;
 1265              		.loc 1 293 0 is_stmt 1 discriminator 2
 1266 054e 3B7B     		ldrb	r3, [r7, #12]	@ zero_extendqisi2
 1267 0550 0133     		adds	r3, r3, #1
 1268 0552 3B73     		strb	r3, [r7, #12]
 285:.\protocol.c  ****                         for(z=1;z<=12;z++){
 1269              		.loc 1 285 0 discriminator 2
 1270 0554 BB7B     		ldrb	r3, [r7, #14]	@ zero_extendqisi2
 1271 0556 0133     		adds	r3, r3, #1
 1272 0558 BB73     		strb	r3, [r7, #14]
 1273              	.L79:
 285:.\protocol.c  ****                         for(z=1;z<=12;z++){
 1274              		.loc 1 285 0 is_stmt 0 discriminator 1
 1275 055a BB7B     		ldrb	r3, [r7, #14]	@ zero_extendqisi2
 1276 055c 022B     		cmp	r3, #2
 1277 055e C6D9     		bls	.L84
 294:.\protocol.c  ****                     }
 295:.\protocol.c  ****                     w=w+9;
 1278              		.loc 1 295 0 is_stmt 1
 1279 0560 3B7B     		ldrb	r3, [r7, #12]
 1280 0562 0933     		adds	r3, r3, #9
 1281 0564 3B73     		strb	r3, [r7, #12]
 296:.\protocol.c  ****                     for(z=6;z>=1;z--){
 1282              		.loc 1 296 0
 1283 0566 0623     		movs	r3, #6
 1284 0568 7B73     		strb	r3, [r7, #13]
 1285 056a 1CE0     		b	.L85
 1286              	.L86:
 297:.\protocol.c  ****                         side.a.totalsHandle[x][2][z]=side.a.totalsHandle[x][2][z+6];
 1287              		.loc 1 297 0 discriminator 3
 1288 056c F97B     		ldrb	r1, [r7, #15]	@ zero_extendqisi2
 1289 056e 787B     		ldrb	r0, [r7, #13]	@ zero_extendqisi2
 1290 0570 FA7B     		ldrb	r2, [r7, #15]	@ zero_extendqisi2
 1291 0572 7B7B     		ldrb	r3, [r7, #13]	@ zero_extendqisi2
 1292 0574 9C1D     		adds	r4, r3, #6
 1293 0576 284D     		ldr	r5, .L106
 1294 0578 1346     		mov	r3, r2
 1295 057a 5B00     		lsls	r3, r3, #1
 1296 057c 1344     		add	r3, r3, r2
 1297 057e 1A01     		lsls	r2, r3, #4
 1298 0580 D21A     		subs	r2, r2, r3
 1299 0582 AB18     		adds	r3, r5, r2
 1300 0584 2344     		add	r3, r3, r4
 1301 0586 1E33     		adds	r3, r3, #30
 1302 0588 5D78     		ldrb	r5, [r3, #1]	@ zero_extendqisi2
 1303 058a 234C     		ldr	r4, .L106
 1304 058c 0B46     		mov	r3, r1
 1305 058e 5B00     		lsls	r3, r3, #1
 1306 0590 0B44     		add	r3, r3, r1
 1307 0592 1A01     		lsls	r2, r3, #4
 1308 0594 D21A     		subs	r2, r2, r3
 1309 0596 A318     		adds	r3, r4, r2
 1310 0598 0344     		add	r3, r3, r0
 1311 059a 1E33     		adds	r3, r3, #30
 1312 059c 2A46     		mov	r2, r5
ARM GAS  C:\Users\Lenovo\AppData\Local\Temp\cc3dQOqg.s 			page 30


 1313 059e 5A70     		strb	r2, [r3, #1]
 296:.\protocol.c  ****                     for(z=6;z>=1;z--){
 1314              		.loc 1 296 0 discriminator 3
 1315 05a0 7B7B     		ldrb	r3, [r7, #13]	@ zero_extendqisi2
 1316 05a2 013B     		subs	r3, r3, #1
 1317 05a4 7B73     		strb	r3, [r7, #13]
 1318              	.L85:
 296:.\protocol.c  ****                     for(z=6;z>=1;z--){
 1319              		.loc 1 296 0 is_stmt 0 discriminator 1
 1320 05a6 7B7B     		ldrb	r3, [r7, #13]	@ zero_extendqisi2
 1321 05a8 002B     		cmp	r3, #0
 1322 05aa DFD1     		bne	.L86
 298:.\protocol.c  ****                     }
 299:.\protocol.c  ****                     side.a.totalsHandle[x][0][0]=12;
 1323              		.loc 1 299 0 is_stmt 1 discriminator 2
 1324 05ac FA7B     		ldrb	r2, [r7, #15]	@ zero_extendqisi2
 1325 05ae 1A49     		ldr	r1, .L106
 1326 05b0 1346     		mov	r3, r2
 1327 05b2 5B00     		lsls	r3, r3, #1
 1328 05b4 1344     		add	r3, r3, r2
 1329 05b6 1A01     		lsls	r2, r3, #4
 1330 05b8 D21A     		subs	r2, r2, r3
 1331 05ba 8B18     		adds	r3, r1, r2
 1332 05bc 0C22     		movs	r2, #12
 1333 05be 5A70     		strb	r2, [r3, #1]
 300:.\protocol.c  ****                     side.a.totalsHandle[x][1][0]=12;
 1334              		.loc 1 300 0 discriminator 2
 1335 05c0 FA7B     		ldrb	r2, [r7, #15]	@ zero_extendqisi2
 1336 05c2 1549     		ldr	r1, .L106
 1337 05c4 1346     		mov	r3, r2
 1338 05c6 5B00     		lsls	r3, r3, #1
 1339 05c8 1344     		add	r3, r3, r2
 1340 05ca 1A01     		lsls	r2, r3, #4
 1341 05cc D21A     		subs	r2, r2, r3
 1342 05ce 8B18     		adds	r3, r1, r2
 1343 05d0 0F33     		adds	r3, r3, #15
 1344 05d2 0C22     		movs	r2, #12
 1345 05d4 5A70     		strb	r2, [r3, #1]
 301:.\protocol.c  ****                     side.a.totalsHandle[x][2][0]=6;
 1346              		.loc 1 301 0 discriminator 2
 1347 05d6 FA7B     		ldrb	r2, [r7, #15]	@ zero_extendqisi2
 1348 05d8 0F49     		ldr	r1, .L106
 1349 05da 1346     		mov	r3, r2
 1350 05dc 5B00     		lsls	r3, r3, #1
 1351 05de 1344     		add	r3, r3, r2
 1352 05e0 1A01     		lsls	r2, r3, #4
 1353 05e2 D21A     		subs	r2, r2, r3
 1354 05e4 8B18     		adds	r3, r1, r2
 1355 05e6 1E33     		adds	r3, r3, #30
 1356 05e8 0622     		movs	r2, #6
 1357 05ea 5A70     		strb	r2, [r3, #1]
 284:.\protocol.c  ****                     for(y=0;y<=2;y++){
 1358              		.loc 1 284 0 discriminator 2
 1359 05ec FB7B     		ldrb	r3, [r7, #15]	@ zero_extendqisi2
 1360 05ee 0133     		adds	r3, r3, #1
 1361 05f0 FB73     		strb	r3, [r7, #15]
 1362              	.L78:
ARM GAS  C:\Users\Lenovo\AppData\Local\Temp\cc3dQOqg.s 			page 31


 284:.\protocol.c  ****                     for(y=0;y<=2;y++){
 1363              		.loc 1 284 0 is_stmt 0 discriminator 1
 1364 05f2 FA7B     		ldrb	r2, [r7, #15]	@ zero_extendqisi2
 1365 05f4 FB7A     		ldrb	r3, [r7, #11]	@ zero_extendqisi2
 1366 05f6 9A42     		cmp	r2, r3
 1367 05f8 FFF476AF 		bcc	.L87
 302:.\protocol.c  ****                 }
 303:.\protocol.c  ****                 Pump_AL_ClearRxBuffer();
 1368              		.loc 1 303 0 is_stmt 1
 1369 05fc FFF7FEFF 		bl	Pump_AL_ClearRxBuffer
 304:.\protocol.c  ****                 return gradeHandle;
 1370              		.loc 1 304 0
 1371 0600 FB7A     		ldrb	r3, [r7, #11]	@ zero_extendqisi2
 1372 0602 D8E0     		b	.L50
 1373              	.L71:
 305:.\protocol.c  ****             }else{
 306:.\protocol.c  ****                 for(x=0;x<4;x++){
 1374              		.loc 1 306 0
 1375 0604 0023     		movs	r3, #0
 1376 0606 FB73     		strb	r3, [r7, #15]
 1377 0608 30E0     		b	.L88
 1378              	.L93:
 307:.\protocol.c  ****                     for(y=0;y<3;y++){
 1379              		.loc 1 307 0
 1380 060a 0023     		movs	r3, #0
 1381 060c BB73     		strb	r3, [r7, #14]
 1382 060e 27E0     		b	.L89
 1383              	.L92:
 308:.\protocol.c  ****                         for(z=0;z<14;z++){
 1384              		.loc 1 308 0
 1385 0610 0023     		movs	r3, #0
 1386 0612 7B73     		strb	r3, [r7, #13]
 1387 0614 1EE0     		b	.L90
 1388              	.L107:
 1389 0616 00BF     		.align	2
 1390              	.L106:
 1391 0618 00000000 		.word	side
 1392 061c 00000000 		.word	ppux10
 1393 0620 00000000 		.word	Pump_AL_rxBuffer
 1394 0624 CDCCCCCC 		.word	-858993459
 1395              	.L91:
 309:.\protocol.c  ****                             side.b.totalsHandle[x][y][z]=0;
 1396              		.loc 1 309 0 discriminator 3
 1397 0628 F97B     		ldrb	r1, [r7, #15]	@ zero_extendqisi2
 1398 062a BB7B     		ldrb	r3, [r7, #14]	@ zero_extendqisi2
 1399 062c 787B     		ldrb	r0, [r7, #13]	@ zero_extendqisi2
 1400 062e 644C     		ldr	r4, .L108
 1401 0630 1A46     		mov	r2, r3
 1402 0632 1201     		lsls	r2, r2, #4
 1403 0634 D21A     		subs	r2, r2, r3
 1404 0636 0B46     		mov	r3, r1
 1405 0638 5B00     		lsls	r3, r3, #1
 1406 063a 0B44     		add	r3, r3, r1
 1407 063c 1901     		lsls	r1, r3, #4
 1408 063e C91A     		subs	r1, r1, r3
 1409 0640 5318     		adds	r3, r2, r1
 1410 0642 2344     		add	r3, r3, r4
ARM GAS  C:\Users\Lenovo\AppData\Local\Temp\cc3dQOqg.s 			page 32


 1411 0644 0344     		add	r3, r3, r0
 1412 0646 03F58073 		add	r3, r3, #256
 1413 064a 0022     		movs	r2, #0
 1414 064c 5A70     		strb	r2, [r3, #1]
 308:.\protocol.c  ****                         for(z=0;z<14;z++){
 1415              		.loc 1 308 0 discriminator 3
 1416 064e 7B7B     		ldrb	r3, [r7, #13]	@ zero_extendqisi2
 1417 0650 0133     		adds	r3, r3, #1
 1418 0652 7B73     		strb	r3, [r7, #13]
 1419              	.L90:
 308:.\protocol.c  ****                         for(z=0;z<14;z++){
 1420              		.loc 1 308 0 is_stmt 0 discriminator 1
 1421 0654 7B7B     		ldrb	r3, [r7, #13]	@ zero_extendqisi2
 1422 0656 0D2B     		cmp	r3, #13
 1423 0658 E6D9     		bls	.L91
 307:.\protocol.c  ****                     for(y=0;y<3;y++){
 1424              		.loc 1 307 0 is_stmt 1 discriminator 2
 1425 065a BB7B     		ldrb	r3, [r7, #14]	@ zero_extendqisi2
 1426 065c 0133     		adds	r3, r3, #1
 1427 065e BB73     		strb	r3, [r7, #14]
 1428              	.L89:
 307:.\protocol.c  ****                     for(y=0;y<3;y++){
 1429              		.loc 1 307 0 is_stmt 0 discriminator 1
 1430 0660 BB7B     		ldrb	r3, [r7, #14]	@ zero_extendqisi2
 1431 0662 022B     		cmp	r3, #2
 1432 0664 D4D9     		bls	.L92
 306:.\protocol.c  ****                     for(y=0;y<3;y++){
 1433              		.loc 1 306 0 is_stmt 1 discriminator 2
 1434 0666 FB7B     		ldrb	r3, [r7, #15]	@ zero_extendqisi2
 1435 0668 0133     		adds	r3, r3, #1
 1436 066a FB73     		strb	r3, [r7, #15]
 1437              	.L88:
 306:.\protocol.c  ****                     for(y=0;y<3;y++){
 1438              		.loc 1 306 0 is_stmt 0 discriminator 1
 1439 066c FB7B     		ldrb	r3, [r7, #15]	@ zero_extendqisi2
 1440 066e 032B     		cmp	r3, #3
 1441 0670 CBD9     		bls	.L93
 310:.\protocol.c  ****                         }
 311:.\protocol.c  ****                     }
 312:.\protocol.c  ****                 }
 313:.\protocol.c  ****                 w=0;
 1442              		.loc 1 313 0 is_stmt 1
 1443 0672 0023     		movs	r3, #0
 1444 0674 3B73     		strb	r3, [r7, #12]
 314:.\protocol.c  ****                 for(x=0;x<gradeHandle;x++){
 1445              		.loc 1 314 0
 1446 0676 0023     		movs	r3, #0
 1447 0678 FB73     		strb	r3, [r7, #15]
 1448 067a 8CE0     		b	.L94
 1449              	.L103:
 315:.\protocol.c  ****                     for(y=0;y<=2;y++){
 1450              		.loc 1 315 0
 1451 067c 0023     		movs	r3, #0
 1452 067e BB73     		strb	r3, [r7, #14]
 1453 0680 37E0     		b	.L95
 1454              	.L100:
 316:.\protocol.c  ****                         for(z=1;z<=12;z++){
ARM GAS  C:\Users\Lenovo\AppData\Local\Temp\cc3dQOqg.s 			page 33


 1455              		.loc 1 316 0
 1456 0682 0123     		movs	r3, #1
 1457 0684 7B73     		strb	r3, [r7, #13]
 1458 0686 2BE0     		b	.L96
 1459              	.L99:
 317:.\protocol.c  ****                             side.b.totalsHandle[x][y][13-z]=(Pump_AL_rxBuffer[w+4]&0x0F)+0x30;
 1460              		.loc 1 317 0
 1461 0688 F97B     		ldrb	r1, [r7, #15]	@ zero_extendqisi2
 1462 068a BB7B     		ldrb	r3, [r7, #14]	@ zero_extendqisi2
 1463 068c 7A7B     		ldrb	r2, [r7, #13]	@ zero_extendqisi2
 1464 068e C2F10D00 		rsb	r0, r2, #13
 1465 0692 3A7B     		ldrb	r2, [r7, #12]	@ zero_extendqisi2
 1466 0694 0432     		adds	r2, r2, #4
 1467 0696 4B4C     		ldr	r4, .L108+4
 1468 0698 A25C     		ldrb	r2, [r4, r2]
 1469 069a D2B2     		uxtb	r2, r2
 1470 069c 02F00F02 		and	r2, r2, #15
 1471 06a0 D2B2     		uxtb	r2, r2
 1472 06a2 3032     		adds	r2, r2, #48
 1473 06a4 D5B2     		uxtb	r5, r2
 1474 06a6 464C     		ldr	r4, .L108
 1475 06a8 1A46     		mov	r2, r3
 1476 06aa 1201     		lsls	r2, r2, #4
 1477 06ac D21A     		subs	r2, r2, r3
 1478 06ae 0B46     		mov	r3, r1
 1479 06b0 5B00     		lsls	r3, r3, #1
 1480 06b2 0B44     		add	r3, r3, r1
 1481 06b4 1901     		lsls	r1, r3, #4
 1482 06b6 C91A     		subs	r1, r1, r3
 1483 06b8 5318     		adds	r3, r2, r1
 1484 06ba 2344     		add	r3, r3, r4
 1485 06bc 0344     		add	r3, r3, r0
 1486 06be 03F58073 		add	r3, r3, #256
 1487 06c2 2A46     		mov	r2, r5
 1488 06c4 5A70     		strb	r2, [r3, #1]
 318:.\protocol.c  ****                             w++;
 1489              		.loc 1 318 0
 1490 06c6 3B7B     		ldrb	r3, [r7, #12]	@ zero_extendqisi2
 1491 06c8 0133     		adds	r3, r3, #1
 1492 06ca 3B73     		strb	r3, [r7, #12]
 319:.\protocol.c  ****                             if((y==2)&&(z==6)){
 1493              		.loc 1 319 0
 1494 06cc BB7B     		ldrb	r3, [r7, #14]	@ zero_extendqisi2
 1495 06ce 022B     		cmp	r3, #2
 1496 06d0 03D1     		bne	.L97
 1497              		.loc 1 319 0 is_stmt 0 discriminator 1
 1498 06d2 7B7B     		ldrb	r3, [r7, #13]	@ zero_extendqisi2
 1499 06d4 062B     		cmp	r3, #6
 1500 06d6 00D1     		bne	.L97
 320:.\protocol.c  ****                                 break;
 1501              		.loc 1 320 0 is_stmt 1
 1502 06d8 05E0     		b	.L98
 1503              	.L97:
 316:.\protocol.c  ****                             side.b.totalsHandle[x][y][13-z]=(Pump_AL_rxBuffer[w+4]&0x0F)+0x30;
 1504              		.loc 1 316 0 discriminator 2
 1505 06da 7B7B     		ldrb	r3, [r7, #13]	@ zero_extendqisi2
 1506 06dc 0133     		adds	r3, r3, #1
ARM GAS  C:\Users\Lenovo\AppData\Local\Temp\cc3dQOqg.s 			page 34


 1507 06de 7B73     		strb	r3, [r7, #13]
 1508              	.L96:
 316:.\protocol.c  ****                             side.b.totalsHandle[x][y][13-z]=(Pump_AL_rxBuffer[w+4]&0x0F)+0x30;
 1509              		.loc 1 316 0 is_stmt 0 discriminator 1
 1510 06e0 7B7B     		ldrb	r3, [r7, #13]	@ zero_extendqisi2
 1511 06e2 0C2B     		cmp	r3, #12
 1512 06e4 D0D9     		bls	.L99
 1513              	.L98:
 321:.\protocol.c  ****                             }
 322:.\protocol.c  ****                         }
 323:.\protocol.c  ****                         w++;
 1514              		.loc 1 323 0 is_stmt 1 discriminator 2
 1515 06e6 3B7B     		ldrb	r3, [r7, #12]	@ zero_extendqisi2
 1516 06e8 0133     		adds	r3, r3, #1
 1517 06ea 3B73     		strb	r3, [r7, #12]
 315:.\protocol.c  ****                         for(z=1;z<=12;z++){
 1518              		.loc 1 315 0 discriminator 2
 1519 06ec BB7B     		ldrb	r3, [r7, #14]	@ zero_extendqisi2
 1520 06ee 0133     		adds	r3, r3, #1
 1521 06f0 BB73     		strb	r3, [r7, #14]
 1522              	.L95:
 315:.\protocol.c  ****                         for(z=1;z<=12;z++){
 1523              		.loc 1 315 0 is_stmt 0 discriminator 1
 1524 06f2 BB7B     		ldrb	r3, [r7, #14]	@ zero_extendqisi2
 1525 06f4 022B     		cmp	r3, #2
 1526 06f6 C4D9     		bls	.L100
 324:.\protocol.c  ****                     }
 325:.\protocol.c  ****                     w=w+9;
 1527              		.loc 1 325 0 is_stmt 1
 1528 06f8 3B7B     		ldrb	r3, [r7, #12]
 1529 06fa 0933     		adds	r3, r3, #9
 1530 06fc 3B73     		strb	r3, [r7, #12]
 326:.\protocol.c  ****                     for(z=6;z>=1;z--){
 1531              		.loc 1 326 0
 1532 06fe 0623     		movs	r3, #6
 1533 0700 7B73     		strb	r3, [r7, #13]
 1534 0702 1EE0     		b	.L101
 1535              	.L102:
 327:.\protocol.c  ****                         side.b.totalsHandle[x][2][z]=side.b.totalsHandle[x][2][z+6];
 1536              		.loc 1 327 0 discriminator 3
 1537 0704 F97B     		ldrb	r1, [r7, #15]	@ zero_extendqisi2
 1538 0706 787B     		ldrb	r0, [r7, #13]	@ zero_extendqisi2
 1539 0708 FA7B     		ldrb	r2, [r7, #15]	@ zero_extendqisi2
 1540 070a 7B7B     		ldrb	r3, [r7, #13]	@ zero_extendqisi2
 1541 070c 9C1D     		adds	r4, r3, #6
 1542 070e 2C4D     		ldr	r5, .L108
 1543 0710 1346     		mov	r3, r2
 1544 0712 5B00     		lsls	r3, r3, #1
 1545 0714 1344     		add	r3, r3, r2
 1546 0716 1A01     		lsls	r2, r3, #4
 1547 0718 D21A     		subs	r2, r2, r3
 1548 071a AB18     		adds	r3, r5, r2
 1549 071c 2344     		add	r3, r3, r4
 1550 071e 03F58F73 		add	r3, r3, #286
 1551 0722 5D78     		ldrb	r5, [r3, #1]	@ zero_extendqisi2
 1552 0724 264C     		ldr	r4, .L108
 1553 0726 0B46     		mov	r3, r1
ARM GAS  C:\Users\Lenovo\AppData\Local\Temp\cc3dQOqg.s 			page 35


 1554 0728 5B00     		lsls	r3, r3, #1
 1555 072a 0B44     		add	r3, r3, r1
 1556 072c 1A01     		lsls	r2, r3, #4
 1557 072e D21A     		subs	r2, r2, r3
 1558 0730 A318     		adds	r3, r4, r2
 1559 0732 0344     		add	r3, r3, r0
 1560 0734 03F58F73 		add	r3, r3, #286
 1561 0738 2A46     		mov	r2, r5
 1562 073a 5A70     		strb	r2, [r3, #1]
 326:.\protocol.c  ****                     for(z=6;z>=1;z--){
 1563              		.loc 1 326 0 discriminator 3
 1564 073c 7B7B     		ldrb	r3, [r7, #13]	@ zero_extendqisi2
 1565 073e 013B     		subs	r3, r3, #1
 1566 0740 7B73     		strb	r3, [r7, #13]
 1567              	.L101:
 326:.\protocol.c  ****                     for(z=6;z>=1;z--){
 1568              		.loc 1 326 0 is_stmt 0 discriminator 1
 1569 0742 7B7B     		ldrb	r3, [r7, #13]	@ zero_extendqisi2
 1570 0744 002B     		cmp	r3, #0
 1571 0746 DDD1     		bne	.L102
 328:.\protocol.c  ****                     }
 329:.\protocol.c  ****                     side.b.totalsHandle[x][0][0]=12;
 1572              		.loc 1 329 0 is_stmt 1 discriminator 2
 1573 0748 FA7B     		ldrb	r2, [r7, #15]	@ zero_extendqisi2
 1574 074a 1D49     		ldr	r1, .L108
 1575 074c 1346     		mov	r3, r2
 1576 074e 5B00     		lsls	r3, r3, #1
 1577 0750 1344     		add	r3, r3, r2
 1578 0752 1A01     		lsls	r2, r3, #4
 1579 0754 D21A     		subs	r2, r2, r3
 1580 0756 8B18     		adds	r3, r1, r2
 1581 0758 03F58073 		add	r3, r3, #256
 1582 075c 0C22     		movs	r2, #12
 1583 075e 5A70     		strb	r2, [r3, #1]
 330:.\protocol.c  ****                     side.b.totalsHandle[x][1][0]=12;
 1584              		.loc 1 330 0 discriminator 2
 1585 0760 FA7B     		ldrb	r2, [r7, #15]	@ zero_extendqisi2
 1586 0762 1749     		ldr	r1, .L108
 1587 0764 1346     		mov	r3, r2
 1588 0766 5B00     		lsls	r3, r3, #1
 1589 0768 1344     		add	r3, r3, r2
 1590 076a 1A01     		lsls	r2, r3, #4
 1591 076c D21A     		subs	r2, r2, r3
 1592 076e 8B18     		adds	r3, r1, r2
 1593 0770 03F20F13 		addw	r3, r3, #271
 1594 0774 0C22     		movs	r2, #12
 1595 0776 5A70     		strb	r2, [r3, #1]
 331:.\protocol.c  ****                     side.b.totalsHandle[x][2][0]=6;
 1596              		.loc 1 331 0 discriminator 2
 1597 0778 FA7B     		ldrb	r2, [r7, #15]	@ zero_extendqisi2
 1598 077a 1149     		ldr	r1, .L108
 1599 077c 1346     		mov	r3, r2
 1600 077e 5B00     		lsls	r3, r3, #1
 1601 0780 1344     		add	r3, r3, r2
 1602 0782 1A01     		lsls	r2, r3, #4
 1603 0784 D21A     		subs	r2, r2, r3
 1604 0786 8B18     		adds	r3, r1, r2
ARM GAS  C:\Users\Lenovo\AppData\Local\Temp\cc3dQOqg.s 			page 36


 1605 0788 03F58F73 		add	r3, r3, #286
 1606 078c 0622     		movs	r2, #6
 1607 078e 5A70     		strb	r2, [r3, #1]
 314:.\protocol.c  ****                     for(y=0;y<=2;y++){
 1608              		.loc 1 314 0 discriminator 2
 1609 0790 FB7B     		ldrb	r3, [r7, #15]	@ zero_extendqisi2
 1610 0792 0133     		adds	r3, r3, #1
 1611 0794 FB73     		strb	r3, [r7, #15]
 1612              	.L94:
 314:.\protocol.c  ****                     for(y=0;y<=2;y++){
 1613              		.loc 1 314 0 is_stmt 0 discriminator 1
 1614 0796 FA7B     		ldrb	r2, [r7, #15]	@ zero_extendqisi2
 1615 0798 FB7A     		ldrb	r3, [r7, #11]	@ zero_extendqisi2
 1616 079a 9A42     		cmp	r2, r3
 1617 079c FFF46EAF 		bcc	.L103
 332:.\protocol.c  ****                 }
 333:.\protocol.c  ****                 Pump_AL_ClearRxBuffer();
 1618              		.loc 1 333 0 is_stmt 1
 1619 07a0 FFF7FEFF 		bl	Pump_AL_ClearRxBuffer
 334:.\protocol.c  ****                 return gradeHandle;
 1620              		.loc 1 334 0
 1621 07a4 FB7A     		ldrb	r3, [r7, #11]	@ zero_extendqisi2
 1622 07a6 06E0     		b	.L50
 1623              	.L70:
 335:.\protocol.c  ****             }
 336:.\protocol.c  ****         }else{
 337:.\protocol.c  ****             Pump_AL_ClearRxBuffer();
 1624              		.loc 1 337 0
 1625 07a8 FFF7FEFF 		bl	Pump_AL_ClearRxBuffer
 338:.\protocol.c  ****             return 0;
 1626              		.loc 1 338 0
 1627 07ac 0023     		movs	r3, #0
 1628 07ae 02E0     		b	.L50
 1629              	.L69:
 339:.\protocol.c  ****         }
 340:.\protocol.c  ****     }else{
 341:.\protocol.c  ****         Pump_AL_ClearRxBuffer();
 1630              		.loc 1 341 0
 1631 07b0 FFF7FEFF 		bl	Pump_AL_ClearRxBuffer
 342:.\protocol.c  ****         return 0;
 1632              		.loc 1 342 0
 1633 07b4 0023     		movs	r3, #0
 1634              	.L50:
 343:.\protocol.c  ****     }
 344:.\protocol.c  ****     Pump_AL_ClearRxBuffer();
 345:.\protocol.c  ****     return 0;
 346:.\protocol.c  **** }
 1635              		.loc 1 346 0
 1636 07b6 1846     		mov	r0, r3
 1637 07b8 1037     		adds	r7, r7, #16
 1638              		.cfi_def_cfa_offset 16
 1639 07ba BD46     		mov	sp, r7
 1640              		.cfi_def_cfa_register 13
 1641              		@ sp needed
 1642 07bc B0BD     		pop	{r4, r5, r7, pc}
 1643              	.L109:
 1644 07be 00BF     		.align	2
ARM GAS  C:\Users\Lenovo\AppData\Local\Temp\cc3dQOqg.s 			page 37


 1645              	.L108:
 1646 07c0 00000000 		.word	side
 1647 07c4 00000000 		.word	Pump_AL_rxBuffer
 1648              		.cfi_endproc
 1649              	.LFE59:
 1650              		.size	get_totals, .-get_totals
 1651              		.section	.rodata
 1652 0009 000000   		.align	2
 1653              	.LC1:
 1654 000c FF       		.byte	-1
 1655 000d 00       		.byte	0
 1656 000e F4       		.byte	-12
 1657 000f F6       		.byte	-10
 1658 0010 00       		.byte	0
 1659 0011 F7       		.byte	-9
 1660 0012 00       		.byte	0
 1661 0013 00       		.byte	0
 1662 0014 00       		.byte	0
 1663 0015 00       		.byte	0
 1664 0016 00       		.byte	0
 1665 0017 00       		.byte	0
 1666 0018 00       		.byte	0
 1667 0019 00       		.byte	0
 1668 001a 00       		.byte	0
 1669 001b 00       		.section	.text.price_change,"ax",%progbits
 1670              		.align	2
 1671              		.global	price_change
 1672              		.thumb
 1673              		.thumb_func
 1674              		.type	price_change, %function
 1675              	price_change:
 1676              	.LFB60:
 347:.\protocol.c  **** 
 348:.\protocol.c  **** /*
 349:.\protocol.c  **** ***************************************************************************************************
 350:.\protocol.c  **** *                                         uint8 price_change(uint8 pos)
 351:.\protocol.c  **** *
 352:.\protocol.c  **** * Description : 
 353:.\protocol.c  **** *               
 354:.\protocol.c  **** *
 355:.\protocol.c  **** * Argument(s) : none
 356:.\protocol.c  **** *
 357:.\protocol.c  **** * Return(s)   : none
 358:.\protocol.c  **** *
 359:.\protocol.c  **** * Caller(s)   : 
 360:.\protocol.c  **** *
 361:.\protocol.c  **** * Note(s)     : none.
 362:.\protocol.c  **** ***************************************************************************************************
 363:.\protocol.c  **** */
 364:.\protocol.c  **** uint8 price_change(uint8 pos,uint8 handle,uint8 *value){
 1677              		.loc 1 364 0
 1678              		.cfi_startproc
 1679              		@ args = 0, pretend = 0, frame = 32
 1680              		@ frame_needed = 1, uses_anonymous_args = 0
 1681 0000 90B5     		push	{r4, r7, lr}
 1682              		.cfi_def_cfa_offset 12
 1683              		.cfi_offset 4, -12
ARM GAS  C:\Users\Lenovo\AppData\Local\Temp\cc3dQOqg.s 			page 38


 1684              		.cfi_offset 7, -8
 1685              		.cfi_offset 14, -4
 1686 0002 89B0     		sub	sp, sp, #36
 1687              		.cfi_def_cfa_offset 48
 1688 0004 00AF     		add	r7, sp, #0
 1689              		.cfi_def_cfa_register 7
 1690 0006 0346     		mov	r3, r0
 1691 0008 3A60     		str	r2, [r7]
 1692 000a FB71     		strb	r3, [r7, #7]
 1693 000c 0B46     		mov	r3, r1
 1694 000e BB71     		strb	r3, [r7, #6]
 365:.\protocol.c  **** 	uint8 buffer[15]={0xFF,0,0xF4,0xF6,0,0xF7,0,0,0,0,0,0,0,0,0},size,x,y;
 1695              		.loc 1 365 0
 1696 0010 A94A     		ldr	r2, .L138
 1697 0012 07F10C03 		add	r3, r7, #12
 1698 0016 1446     		mov	r4, r2
 1699 0018 2068     		ldr	r0, [r4]	@ unaligned
 1700 001a 6168     		ldr	r1, [r4, #4]	@ unaligned
 1701 001c A268     		ldr	r2, [r4, #8]	@ unaligned
 1702 001e 07C3     		stmia	r3!, {r0, r1, r2}
 1703 0020 A289     		ldrh	r2, [r4, #12]	@ unaligned
 1704 0022 A17B     		ldrb	r1, [r4, #14]
 1705 0024 1A80     		strh	r2, [r3]	@ unaligned
 1706 0026 0A46     		mov	r2, r1
 1707 0028 9A70     		strb	r2, [r3, #2]
 366:.\protocol.c  ****     for(x=1;x<=6;x++){
 1708              		.loc 1 366 0
 1709 002a 0123     		movs	r3, #1
 1710 002c BB77     		strb	r3, [r7, #30]
 1711 002e 1FE0     		b	.L111
 1712              	.L116:
 367:.\protocol.c  ****         if(value[x]==','){
 1713              		.loc 1 367 0
 1714 0030 BB7F     		ldrb	r3, [r7, #30]	@ zero_extendqisi2
 1715 0032 3A68     		ldr	r2, [r7]
 1716 0034 1344     		add	r3, r3, r2
 1717 0036 1B78     		ldrb	r3, [r3]	@ zero_extendqisi2
 1718 0038 2C2B     		cmp	r3, #44
 1719 003a 16D1     		bne	.L112
 368:.\protocol.c  ****             for(y=x;y>=2;y--){
 1720              		.loc 1 368 0
 1721 003c BB7F     		ldrb	r3, [r7, #30]
 1722 003e 7B77     		strb	r3, [r7, #29]
 1723 0040 0BE0     		b	.L113
 1724              	.L114:
 369:.\protocol.c  ****                 value[y]=value[y-1];
 1725              		.loc 1 369 0 discriminator 3
 1726 0042 7B7F     		ldrb	r3, [r7, #29]	@ zero_extendqisi2
 1727 0044 3A68     		ldr	r2, [r7]
 1728 0046 1344     		add	r3, r3, r2
 1729 0048 7A7F     		ldrb	r2, [r7, #29]	@ zero_extendqisi2
 1730 004a 013A     		subs	r2, r2, #1
 1731 004c 3968     		ldr	r1, [r7]
 1732 004e 0A44     		add	r2, r2, r1
 1733 0050 1278     		ldrb	r2, [r2]	@ zero_extendqisi2
 1734 0052 1A70     		strb	r2, [r3]
 368:.\protocol.c  ****             for(y=x;y>=2;y--){
ARM GAS  C:\Users\Lenovo\AppData\Local\Temp\cc3dQOqg.s 			page 39


 1735              		.loc 1 368 0 discriminator 3
 1736 0054 7B7F     		ldrb	r3, [r7, #29]	@ zero_extendqisi2
 1737 0056 013B     		subs	r3, r3, #1
 1738 0058 7B77     		strb	r3, [r7, #29]
 1739              	.L113:
 368:.\protocol.c  ****             for(y=x;y>=2;y--){
 1740              		.loc 1 368 0 is_stmt 0 discriminator 1
 1741 005a 7B7F     		ldrb	r3, [r7, #29]	@ zero_extendqisi2
 1742 005c 012B     		cmp	r3, #1
 1743 005e F0D8     		bhi	.L114
 370:.\protocol.c  ****             }
 371:.\protocol.c  ****             value[1]='0';
 1744              		.loc 1 371 0 is_stmt 1
 1745 0060 3B68     		ldr	r3, [r7]
 1746 0062 0133     		adds	r3, r3, #1
 1747 0064 3022     		movs	r2, #48
 1748 0066 1A70     		strb	r2, [r3]
 372:.\protocol.c  ****             break;
 1749              		.loc 1 372 0
 1750 0068 05E0     		b	.L115
 1751              	.L112:
 366:.\protocol.c  ****         if(value[x]==','){
 1752              		.loc 1 366 0 discriminator 2
 1753 006a BB7F     		ldrb	r3, [r7, #30]	@ zero_extendqisi2
 1754 006c 0133     		adds	r3, r3, #1
 1755 006e BB77     		strb	r3, [r7, #30]
 1756              	.L111:
 366:.\protocol.c  ****         if(value[x]==','){
 1757              		.loc 1 366 0 is_stmt 0 discriminator 1
 1758 0070 BB7F     		ldrb	r3, [r7, #30]	@ zero_extendqisi2
 1759 0072 062B     		cmp	r3, #6
 1760 0074 DCD9     		bls	.L116
 1761              	.L115:
 373:.\protocol.c  ****         }
 374:.\protocol.c  ****     }
 375:.\protocol.c  **** 	if(digits!=7){
 1762              		.loc 1 375 0 is_stmt 1
 1763 0076 914B     		ldr	r3, .L138+4
 1764 0078 1B78     		ldrb	r3, [r3]
 1765 007a DBB2     		uxtb	r3, r3
 1766 007c 072B     		cmp	r3, #7
 1767 007e 79D0     		beq	.L117
 376:.\protocol.c  **** 		buffer[1]=0xE5;
 1768              		.loc 1 376 0
 1769 0080 E523     		movs	r3, #229
 1770 0082 7B73     		strb	r3, [r7, #13]
 377:.\protocol.c  **** 		buffer[4]=(0xE0|((handle&0x0f)-1));
 1771              		.loc 1 377 0
 1772 0084 BB79     		ldrb	r3, [r7, #6]
 1773 0086 03F00F03 		and	r3, r3, #15
 1774 008a DBB2     		uxtb	r3, r3
 1775 008c 013B     		subs	r3, r3, #1
 1776 008e DBB2     		uxtb	r3, r3
 1777 0090 DBB2     		uxtb	r3, r3
 1778 0092 63F01F03 		orn	r3, r3, #31
 1779 0096 DBB2     		uxtb	r3, r3
 1780 0098 DBB2     		uxtb	r3, r3
ARM GAS  C:\Users\Lenovo\AppData\Local\Temp\cc3dQOqg.s 			page 40


 1781 009a 3B74     		strb	r3, [r7, #16]
 378:.\protocol.c  **** 		if(ppux10==0){
 1782              		.loc 1 378 0
 1783 009c 884B     		ldr	r3, .L138+8
 1784 009e 1B78     		ldrb	r3, [r3]
 1785 00a0 DBB2     		uxtb	r3, r3
 1786 00a2 002B     		cmp	r3, #0
 1787 00a4 1FD1     		bne	.L118
 379:.\protocol.c  **** 			for(x=0;x<4;x++){
 1788              		.loc 1 379 0
 1789 00a6 0023     		movs	r3, #0
 1790 00a8 BB77     		strb	r3, [r7, #30]
 1791 00aa 18E0     		b	.L119
 1792              	.L120:
 380:.\protocol.c  **** 				buffer[6+x]=(0xE0|(value[6-x]&0x0F));
 1793              		.loc 1 380 0 discriminator 3
 1794 00ac BB7F     		ldrb	r3, [r7, #30]	@ zero_extendqisi2
 1795 00ae 0633     		adds	r3, r3, #6
 1796 00b0 BA7F     		ldrb	r2, [r7, #30]	@ zero_extendqisi2
 1797 00b2 C2F10602 		rsb	r2, r2, #6
 1798 00b6 1146     		mov	r1, r2
 1799 00b8 3A68     		ldr	r2, [r7]
 1800 00ba 0A44     		add	r2, r2, r1
 1801 00bc 1278     		ldrb	r2, [r2]	@ zero_extendqisi2
 1802 00be D2B2     		uxtb	r2, r2
 1803 00c0 02F00F02 		and	r2, r2, #15
 1804 00c4 D2B2     		uxtb	r2, r2
 1805 00c6 62F01F02 		orn	r2, r2, #31
 1806 00ca D2B2     		uxtb	r2, r2
 1807 00cc D2B2     		uxtb	r2, r2
 1808 00ce 07F12001 		add	r1, r7, #32
 1809 00d2 0B44     		add	r3, r3, r1
 1810 00d4 03F8142C 		strb	r2, [r3, #-20]
 379:.\protocol.c  **** 			for(x=0;x<4;x++){
 1811              		.loc 1 379 0 discriminator 3
 1812 00d8 BB7F     		ldrb	r3, [r7, #30]	@ zero_extendqisi2
 1813 00da 0133     		adds	r3, r3, #1
 1814 00dc BB77     		strb	r3, [r7, #30]
 1815              	.L119:
 379:.\protocol.c  **** 			for(x=0;x<4;x++){
 1816              		.loc 1 379 0 is_stmt 0 discriminator 1
 1817 00de BB7F     		ldrb	r3, [r7, #30]	@ zero_extendqisi2
 1818 00e0 032B     		cmp	r3, #3
 1819 00e2 E3D9     		bls	.L120
 1820 00e4 1EE0     		b	.L121
 1821              	.L118:
 381:.\protocol.c  **** 			}
 382:.\protocol.c  **** 		}else{
 383:.\protocol.c  ****             for(x=0;x<4;x++){
 1822              		.loc 1 383 0 is_stmt 1
 1823 00e6 0023     		movs	r3, #0
 1824 00e8 BB77     		strb	r3, [r7, #30]
 1825 00ea 18E0     		b	.L122
 1826              	.L123:
 384:.\protocol.c  **** 				buffer[6+x]=(0xE0|(value[5-x]&0x0F));
 1827              		.loc 1 384 0 discriminator 3
 1828 00ec BB7F     		ldrb	r3, [r7, #30]	@ zero_extendqisi2
ARM GAS  C:\Users\Lenovo\AppData\Local\Temp\cc3dQOqg.s 			page 41


 1829 00ee 0633     		adds	r3, r3, #6
 1830 00f0 BA7F     		ldrb	r2, [r7, #30]	@ zero_extendqisi2
 1831 00f2 C2F10502 		rsb	r2, r2, #5
 1832 00f6 1146     		mov	r1, r2
 1833 00f8 3A68     		ldr	r2, [r7]
 1834 00fa 0A44     		add	r2, r2, r1
 1835 00fc 1278     		ldrb	r2, [r2]	@ zero_extendqisi2
 1836 00fe D2B2     		uxtb	r2, r2
 1837 0100 02F00F02 		and	r2, r2, #15
 1838 0104 D2B2     		uxtb	r2, r2
 1839 0106 62F01F02 		orn	r2, r2, #31
 1840 010a D2B2     		uxtb	r2, r2
 1841 010c D2B2     		uxtb	r2, r2
 1842 010e 07F12001 		add	r1, r7, #32
 1843 0112 0B44     		add	r3, r3, r1
 1844 0114 03F8142C 		strb	r2, [r3, #-20]
 383:.\protocol.c  **** 				buffer[6+x]=(0xE0|(value[5-x]&0x0F));
 1845              		.loc 1 383 0 discriminator 3
 1846 0118 BB7F     		ldrb	r3, [r7, #30]	@ zero_extendqisi2
 1847 011a 0133     		adds	r3, r3, #1
 1848 011c BB77     		strb	r3, [r7, #30]
 1849              	.L122:
 383:.\protocol.c  **** 				buffer[6+x]=(0xE0|(value[5-x]&0x0F));
 1850              		.loc 1 383 0 is_stmt 0 discriminator 1
 1851 011e BB7F     		ldrb	r3, [r7, #30]	@ zero_extendqisi2
 1852 0120 032B     		cmp	r3, #3
 1853 0122 E3D9     		bls	.L123
 1854              	.L121:
 385:.\protocol.c  **** 			}	
 386:.\protocol.c  **** 		}
 387:.\protocol.c  **** 		buffer[10]=0xFB;
 1855              		.loc 1 387 0 is_stmt 1
 1856 0124 FB23     		movs	r3, #251
 1857 0126 BB75     		strb	r3, [r7, #22]
 388:.\protocol.c  **** 		for(x=0;x<=10;x++){
 1858              		.loc 1 388 0
 1859 0128 0023     		movs	r3, #0
 1860 012a BB77     		strb	r3, [r7, #30]
 1861 012c 0FE0     		b	.L124
 1862              	.L125:
 389:.\protocol.c  **** 			buffer[11]+=(buffer[x]&0x0F);	
 1863              		.loc 1 389 0 discriminator 3
 1864 012e FA7D     		ldrb	r2, [r7, #23]	@ zero_extendqisi2
 1865 0130 BB7F     		ldrb	r3, [r7, #30]	@ zero_extendqisi2
 1866 0132 07F12001 		add	r1, r7, #32
 1867 0136 0B44     		add	r3, r3, r1
 1868 0138 13F8143C 		ldrb	r3, [r3, #-20]	@ zero_extendqisi2
 1869 013c 03F00F03 		and	r3, r3, #15
 1870 0140 DBB2     		uxtb	r3, r3
 1871 0142 1344     		add	r3, r3, r2
 1872 0144 DBB2     		uxtb	r3, r3
 1873 0146 FB75     		strb	r3, [r7, #23]
 388:.\protocol.c  **** 		for(x=0;x<=10;x++){
 1874              		.loc 1 388 0 discriminator 3
 1875 0148 BB7F     		ldrb	r3, [r7, #30]	@ zero_extendqisi2
 1876 014a 0133     		adds	r3, r3, #1
 1877 014c BB77     		strb	r3, [r7, #30]
ARM GAS  C:\Users\Lenovo\AppData\Local\Temp\cc3dQOqg.s 			page 42


 1878              	.L124:
 388:.\protocol.c  **** 		for(x=0;x<=10;x++){
 1879              		.loc 1 388 0 is_stmt 0 discriminator 1
 1880 014e BB7F     		ldrb	r3, [r7, #30]	@ zero_extendqisi2
 1881 0150 0A2B     		cmp	r3, #10
 1882 0152 ECD9     		bls	.L125
 390:.\protocol.c  **** 		}
 391:.\protocol.c  **** 		buffer[11]=(((~buffer[11])+1)&0x0F)|0xE0;
 1883              		.loc 1 391 0 is_stmt 1
 1884 0154 FB7D     		ldrb	r3, [r7, #23]	@ zero_extendqisi2
 1885 0156 5B42     		negs	r3, r3
 1886 0158 DBB2     		uxtb	r3, r3
 1887 015a DBB2     		uxtb	r3, r3
 1888 015c 03F00F03 		and	r3, r3, #15
 1889 0160 DBB2     		uxtb	r3, r3
 1890 0162 63F01F03 		orn	r3, r3, #31
 1891 0166 DBB2     		uxtb	r3, r3
 1892 0168 DBB2     		uxtb	r3, r3
 1893 016a FB75     		strb	r3, [r7, #23]
 392:.\protocol.c  **** 		buffer[12]=0xF0;
 1894              		.loc 1 392 0
 1895 016c F023     		movs	r3, #240
 1896 016e 3B76     		strb	r3, [r7, #24]
 393:.\protocol.c  **** 		size=12;
 1897              		.loc 1 393 0
 1898 0170 0C23     		movs	r3, #12
 1899 0172 FB77     		strb	r3, [r7, #31]
 1900              	.L117:
 394:.\protocol.c  **** 	}
 395:.\protocol.c  **** 	if(digits==7){
 1901              		.loc 1 395 0
 1902 0174 514B     		ldr	r3, .L138+4
 1903 0176 1B78     		ldrb	r3, [r3]
 1904 0178 DBB2     		uxtb	r3, r3
 1905 017a 072B     		cmp	r3, #7
 1906 017c 54D1     		bne	.L126
 396:.\protocol.c  **** 		buffer[1]=0xE3;
 1907              		.loc 1 396 0
 1908 017e E323     		movs	r3, #227
 1909 0180 7B73     		strb	r3, [r7, #13]
 397:.\protocol.c  **** 		buffer[4]=(0xE0|((handle&0x0f)-1));	
 1910              		.loc 1 397 0
 1911 0182 BB79     		ldrb	r3, [r7, #6]
 1912 0184 03F00F03 		and	r3, r3, #15
 1913 0188 DBB2     		uxtb	r3, r3
 1914 018a 013B     		subs	r3, r3, #1
 1915 018c DBB2     		uxtb	r3, r3
 1916 018e DBB2     		uxtb	r3, r3
 1917 0190 63F01F03 		orn	r3, r3, #31
 1918 0194 DBB2     		uxtb	r3, r3
 1919 0196 DBB2     		uxtb	r3, r3
 1920 0198 3B74     		strb	r3, [r7, #16]
 398:.\protocol.c  ****         for(x=0;x<6;x++){
 1921              		.loc 1 398 0
 1922 019a 0023     		movs	r3, #0
 1923 019c BB77     		strb	r3, [r7, #30]
 1924 019e 18E0     		b	.L127
ARM GAS  C:\Users\Lenovo\AppData\Local\Temp\cc3dQOqg.s 			page 43


 1925              	.L128:
 399:.\protocol.c  ****             buffer[6+x]=(0xE0|(value[6-x]&0x0F));
 1926              		.loc 1 399 0 discriminator 3
 1927 01a0 BB7F     		ldrb	r3, [r7, #30]	@ zero_extendqisi2
 1928 01a2 0633     		adds	r3, r3, #6
 1929 01a4 BA7F     		ldrb	r2, [r7, #30]	@ zero_extendqisi2
 1930 01a6 C2F10602 		rsb	r2, r2, #6
 1931 01aa 1146     		mov	r1, r2
 1932 01ac 3A68     		ldr	r2, [r7]
 1933 01ae 0A44     		add	r2, r2, r1
 1934 01b0 1278     		ldrb	r2, [r2]	@ zero_extendqisi2
 1935 01b2 D2B2     		uxtb	r2, r2
 1936 01b4 02F00F02 		and	r2, r2, #15
 1937 01b8 D2B2     		uxtb	r2, r2
 1938 01ba 62F01F02 		orn	r2, r2, #31
 1939 01be D2B2     		uxtb	r2, r2
 1940 01c0 D2B2     		uxtb	r2, r2
 1941 01c2 07F12001 		add	r1, r7, #32
 1942 01c6 0B44     		add	r3, r3, r1
 1943 01c8 03F8142C 		strb	r2, [r3, #-20]
 398:.\protocol.c  ****         for(x=0;x<6;x++){
 1944              		.loc 1 398 0 discriminator 3
 1945 01cc BB7F     		ldrb	r3, [r7, #30]	@ zero_extendqisi2
 1946 01ce 0133     		adds	r3, r3, #1
 1947 01d0 BB77     		strb	r3, [r7, #30]
 1948              	.L127:
 398:.\protocol.c  ****         for(x=0;x<6;x++){
 1949              		.loc 1 398 0 is_stmt 0 discriminator 1
 1950 01d2 BB7F     		ldrb	r3, [r7, #30]	@ zero_extendqisi2
 1951 01d4 052B     		cmp	r3, #5
 1952 01d6 E3D9     		bls	.L128
 400:.\protocol.c  ****         }	
 401:.\protocol.c  **** 		buffer[12]=0xFB;
 1953              		.loc 1 401 0 is_stmt 1
 1954 01d8 FB23     		movs	r3, #251
 1955 01da 3B76     		strb	r3, [r7, #24]
 402:.\protocol.c  **** 		for(x=0;x<=12;x++){
 1956              		.loc 1 402 0
 1957 01dc 0023     		movs	r3, #0
 1958 01de BB77     		strb	r3, [r7, #30]
 1959 01e0 0FE0     		b	.L129
 1960              	.L130:
 403:.\protocol.c  **** 			buffer[13]+=(buffer[x]&0x0F);	
 1961              		.loc 1 403 0 discriminator 3
 1962 01e2 7A7E     		ldrb	r2, [r7, #25]	@ zero_extendqisi2
 1963 01e4 BB7F     		ldrb	r3, [r7, #30]	@ zero_extendqisi2
 1964 01e6 07F12001 		add	r1, r7, #32
 1965 01ea 0B44     		add	r3, r3, r1
 1966 01ec 13F8143C 		ldrb	r3, [r3, #-20]	@ zero_extendqisi2
 1967 01f0 03F00F03 		and	r3, r3, #15
 1968 01f4 DBB2     		uxtb	r3, r3
 1969 01f6 1344     		add	r3, r3, r2
 1970 01f8 DBB2     		uxtb	r3, r3
 1971 01fa 7B76     		strb	r3, [r7, #25]
 402:.\protocol.c  **** 		for(x=0;x<=12;x++){
 1972              		.loc 1 402 0 discriminator 3
 1973 01fc BB7F     		ldrb	r3, [r7, #30]	@ zero_extendqisi2
ARM GAS  C:\Users\Lenovo\AppData\Local\Temp\cc3dQOqg.s 			page 44


 1974 01fe 0133     		adds	r3, r3, #1
 1975 0200 BB77     		strb	r3, [r7, #30]
 1976              	.L129:
 402:.\protocol.c  **** 		for(x=0;x<=12;x++){
 1977              		.loc 1 402 0 is_stmt 0 discriminator 1
 1978 0202 BB7F     		ldrb	r3, [r7, #30]	@ zero_extendqisi2
 1979 0204 0C2B     		cmp	r3, #12
 1980 0206 ECD9     		bls	.L130
 404:.\protocol.c  **** 		}
 405:.\protocol.c  **** 		buffer[13]=(((~buffer[13])+1)&0x0F)|0xE0;
 1981              		.loc 1 405 0 is_stmt 1
 1982 0208 7B7E     		ldrb	r3, [r7, #25]	@ zero_extendqisi2
 1983 020a 5B42     		negs	r3, r3
 1984 020c DBB2     		uxtb	r3, r3
 1985 020e DBB2     		uxtb	r3, r3
 1986 0210 03F00F03 		and	r3, r3, #15
 1987 0214 DBB2     		uxtb	r3, r3
 1988 0216 63F01F03 		orn	r3, r3, #31
 1989 021a DBB2     		uxtb	r3, r3
 1990 021c DBB2     		uxtb	r3, r3
 1991 021e 7B76     		strb	r3, [r7, #25]
 406:.\protocol.c  **** 		buffer[14]=0xF0;
 1992              		.loc 1 406 0
 1993 0220 F023     		movs	r3, #240
 1994 0222 BB76     		strb	r3, [r7, #26]
 407:.\protocol.c  **** 		size=14;
 1995              		.loc 1 407 0
 1996 0224 0E23     		movs	r3, #14
 1997 0226 FB77     		strb	r3, [r7, #31]
 1998              	.L126:
 408:.\protocol.c  **** 	}	
 409:.\protocol.c  ****     Pump_AL_ClearRxBuffer();
 1999              		.loc 1 409 0
 2000 0228 FFF7FEFF 		bl	Pump_AL_ClearRxBuffer
 410:.\protocol.c  **** 	Pump_AL_PutChar(0x20|pos);	
 2001              		.loc 1 410 0
 2002 022c FB79     		ldrb	r3, [r7, #7]
 2003 022e 43F02003 		orr	r3, r3, #32
 2004 0232 DBB2     		uxtb	r3, r3
 2005 0234 1846     		mov	r0, r3
 2006 0236 FFF7FEFF 		bl	Pump_AL_PutChar
 411:.\protocol.c  ****     CyDelay(100);
 2007              		.loc 1 411 0
 2008 023a 6420     		movs	r0, #100
 2009 023c FFF7FEFF 		bl	CyDelay
 412:.\protocol.c  ****     if(Pump_AL_GetRxBufferSize()>=1){
 2010              		.loc 1 412 0
 2011 0240 FFF7FEFF 		bl	Pump_AL_GetRxBufferSize
 2012 0244 0346     		mov	r3, r0
 2013 0246 002B     		cmp	r3, #0
 2014 0248 30D0     		beq	.L131
 413:.\protocol.c  **** 		if(Pump_AL_ReadRxData()==(0xD0|pos)){
 2015              		.loc 1 413 0
 2016 024a FFF7FEFF 		bl	Pump_AL_ReadRxData
 2017 024e 0346     		mov	r3, r0
 2018 0250 1A46     		mov	r2, r3
 2019 0252 FB79     		ldrb	r3, [r7, #7]
ARM GAS  C:\Users\Lenovo\AppData\Local\Temp\cc3dQOqg.s 			page 45


 2020 0254 63F02F03 		orn	r3, r3, #47
 2021 0258 DBB2     		uxtb	r3, r3
 2022 025a 9A42     		cmp	r2, r3
 2023 025c 24D1     		bne	.L132
 414:.\protocol.c  ****             Pump_AL_ClearRxBuffer();
 2024              		.loc 1 414 0
 2025 025e FFF7FEFF 		bl	Pump_AL_ClearRxBuffer
 415:.\protocol.c  ****             for(x=0;x<=size;x++){
 2026              		.loc 1 415 0
 2027 0262 0023     		movs	r3, #0
 2028 0264 BB77     		strb	r3, [r7, #30]
 2029 0266 0BE0     		b	.L133
 2030              	.L134:
 416:.\protocol.c  ****                	Pump_AL_PutChar(buffer[x]); 	
 2031              		.loc 1 416 0 discriminator 3
 2032 0268 BB7F     		ldrb	r3, [r7, #30]	@ zero_extendqisi2
 2033 026a 07F12002 		add	r2, r7, #32
 2034 026e 1344     		add	r3, r3, r2
 2035 0270 13F8143C 		ldrb	r3, [r3, #-20]	@ zero_extendqisi2
 2036 0274 1846     		mov	r0, r3
 2037 0276 FFF7FEFF 		bl	Pump_AL_PutChar
 415:.\protocol.c  ****             for(x=0;x<=size;x++){
 2038              		.loc 1 415 0 discriminator 3
 2039 027a BB7F     		ldrb	r3, [r7, #30]	@ zero_extendqisi2
 2040 027c 0133     		adds	r3, r3, #1
 2041 027e BB77     		strb	r3, [r7, #30]
 2042              	.L133:
 415:.\protocol.c  ****             for(x=0;x<=size;x++){
 2043              		.loc 1 415 0 is_stmt 0 discriminator 1
 2044 0280 BA7F     		ldrb	r2, [r7, #30]	@ zero_extendqisi2
 2045 0282 FB7F     		ldrb	r3, [r7, #31]	@ zero_extendqisi2
 2046 0284 9A42     		cmp	r2, r3
 2047 0286 EFD9     		bls	.L134
 417:.\protocol.c  ****             }
 418:.\protocol.c  ****             Pump_AL_ClearRxBuffer();
 2048              		.loc 1 418 0 is_stmt 1
 2049 0288 FFF7FEFF 		bl	Pump_AL_ClearRxBuffer
 419:.\protocol.c  **** 			CyDelay(50);
 2050              		.loc 1 419 0
 2051 028c 3220     		movs	r0, #50
 2052 028e FFF7FEFF 		bl	CyDelay
 420:.\protocol.c  **** 			if(get_state(pos)==0){
 2053              		.loc 1 420 0
 2054 0292 FB79     		ldrb	r3, [r7, #7]	@ zero_extendqisi2
 2055 0294 1846     		mov	r0, r3
 2056 0296 FFF7FEFF 		bl	get_state
 2057 029a 0346     		mov	r3, r0
 2058 029c 002B     		cmp	r3, #0
 2059 029e 01D1     		bne	.L135
 421:.\protocol.c  **** 				return 0;
 2060              		.loc 1 421 0
 2061 02a0 0023     		movs	r3, #0
 2062 02a2 04E0     		b	.L137
 2063              	.L135:
 422:.\protocol.c  **** 			}
 423:.\protocol.c  **** 			else{
 424:.\protocol.c  **** 				return 1;
ARM GAS  C:\Users\Lenovo\AppData\Local\Temp\cc3dQOqg.s 			page 46


 2064              		.loc 1 424 0
 2065 02a4 0123     		movs	r3, #1
 2066 02a6 02E0     		b	.L137
 2067              	.L132:
 425:.\protocol.c  **** 			}
 426:.\protocol.c  **** 		}
 427:.\protocol.c  **** 		else{
 428:.\protocol.c  **** 			return 0;
 2068              		.loc 1 428 0
 2069 02a8 0023     		movs	r3, #0
 2070 02aa 00E0     		b	.L137
 2071              	.L131:
 429:.\protocol.c  **** 		}
 430:.\protocol.c  **** 	}
 431:.\protocol.c  **** 	else{
 432:.\protocol.c  **** 		return 0;	
 2072              		.loc 1 432 0
 2073 02ac 0023     		movs	r3, #0
 2074              	.L137:
 433:.\protocol.c  **** 	}
 434:.\protocol.c  **** }
 2075              		.loc 1 434 0 discriminator 1
 2076 02ae 1846     		mov	r0, r3
 2077 02b0 2437     		adds	r7, r7, #36
 2078              		.cfi_def_cfa_offset 12
 2079 02b2 BD46     		mov	sp, r7
 2080              		.cfi_def_cfa_register 13
 2081              		@ sp needed
 2082 02b4 90BD     		pop	{r4, r7, pc}
 2083              	.L139:
 2084 02b6 00BF     		.align	2
 2085              	.L138:
 2086 02b8 0C000000 		.word	.LC1
 2087 02bc 00000000 		.word	digits
 2088 02c0 00000000 		.word	ppux10
 2089              		.cfi_endproc
 2090              	.LFE60:
 2091              		.size	price_change, .-price_change
 2092              		.section	.text.preset_data,"ax",%progbits
 2093              		.align	2
 2094              		.global	preset_data
 2095              		.thumb
 2096              		.thumb_func
 2097              		.type	preset_data, %function
 2098              	preset_data:
 2099              	.LFB61:
 435:.\protocol.c  **** 
 436:.\protocol.c  **** /*
 437:.\protocol.c  **** ***************************************************************************************************
 438:.\protocol.c  **** *                  uint8 preset_data(uint8 pos, uint8 grade, uint8 *value, uint8 preset)
 439:.\protocol.c  **** *
 440:.\protocol.c  **** * Description : 
 441:.\protocol.c  **** *               
 442:.\protocol.c  **** *
 443:.\protocol.c  **** * Argument(s) : none
 444:.\protocol.c  **** *
 445:.\protocol.c  **** * Return(s)   : none
ARM GAS  C:\Users\Lenovo\AppData\Local\Temp\cc3dQOqg.s 			page 47


 446:.\protocol.c  **** *
 447:.\protocol.c  **** * Caller(s)   : 
 448:.\protocol.c  **** *
 449:.\protocol.c  **** * Note(s)     : none.
 450:.\protocol.c  **** ***************************************************************************************************
 451:.\protocol.c  **** */
 452:.\protocol.c  **** uint8 preset_data(uint8 pos, uint8 grade, uint8 *value, uint8 preset){
 2100              		.loc 1 452 0
 2101              		.cfi_startproc
 2102              		@ args = 0, pretend = 0, frame = 32
 2103              		@ frame_needed = 1, uses_anonymous_args = 0
 2104 0000 80B5     		push	{r7, lr}
 2105              		.cfi_def_cfa_offset 8
 2106              		.cfi_offset 7, -8
 2107              		.cfi_offset 14, -4
 2108 0002 88B0     		sub	sp, sp, #32
 2109              		.cfi_def_cfa_offset 40
 2110 0004 00AF     		add	r7, sp, #0
 2111              		.cfi_def_cfa_register 7
 2112 0006 3A60     		str	r2, [r7]
 2113 0008 1A46     		mov	r2, r3
 2114 000a 0346     		mov	r3, r0
 2115 000c FB71     		strb	r3, [r7, #7]
 2116 000e 0B46     		mov	r3, r1
 2117 0010 BB71     		strb	r3, [r7, #6]
 2118 0012 1346     		mov	r3, r2
 2119 0014 7B71     		strb	r3, [r7, #5]
 453:.\protocol.c  ****     uint8 buffer[18]={0,0,0,0,0,0,0,0,0,0,0,0,0,0,0,0,0,0},x,y,z,decimal;
 2120              		.loc 1 453 0
 2121 0016 07F10803 		add	r3, r7, #8
 2122 001a 0022     		movs	r2, #0
 2123 001c 1A60     		str	r2, [r3]
 2124 001e 0433     		adds	r3, r3, #4
 2125 0020 0022     		movs	r2, #0
 2126 0022 1A60     		str	r2, [r3]
 2127 0024 0433     		adds	r3, r3, #4
 2128 0026 0022     		movs	r2, #0
 2129 0028 1A60     		str	r2, [r3]
 2130 002a 0433     		adds	r3, r3, #4
 2131 002c 0022     		movs	r2, #0
 2132 002e 1A60     		str	r2, [r3]
 2133 0030 0433     		adds	r3, r3, #4
 2134 0032 0022     		movs	r2, #0
 2135 0034 1A80     		strh	r2, [r3]	@ movhi
 2136 0036 0233     		adds	r3, r3, #2
 454:.\protocol.c  ****     buffer[0]=0xFF;
 2137              		.loc 1 454 0
 2138 0038 FF23     		movs	r3, #255
 2139 003a 3B72     		strb	r3, [r7, #8]
 455:.\protocol.c  ****     buffer[1]=0xE4;
 2140              		.loc 1 455 0
 2141 003c E423     		movs	r3, #228
 2142 003e 7B72     		strb	r3, [r7, #9]
 456:.\protocol.c  ****     if(((digits==5)||(digits==6))&&(preset==1)){
 2143              		.loc 1 456 0
 2144 0040 A84B     		ldr	r3, .L196
 2145 0042 1B78     		ldrb	r3, [r3]
ARM GAS  C:\Users\Lenovo\AppData\Local\Temp\cc3dQOqg.s 			page 48


 2146 0044 DBB2     		uxtb	r3, r3
 2147 0046 052B     		cmp	r3, #5
 2148 0048 04D0     		beq	.L141
 2149              		.loc 1 456 0 is_stmt 0 discriminator 2
 2150 004a A64B     		ldr	r3, .L196
 2151 004c 1B78     		ldrb	r3, [r3]
 2152 004e DBB2     		uxtb	r3, r3
 2153 0050 062B     		cmp	r3, #6
 2154 0052 04D1     		bne	.L142
 2155              	.L141:
 2156              		.loc 1 456 0 discriminator 3
 2157 0054 7B79     		ldrb	r3, [r7, #5]	@ zero_extendqisi2
 2158 0056 012B     		cmp	r3, #1
 2159 0058 01D1     		bne	.L142
 457:.\protocol.c  **** 		buffer[1]=0xE3;
 2160              		.loc 1 457 0 is_stmt 1
 2161 005a E323     		movs	r3, #227
 2162 005c 7B72     		strb	r3, [r7, #9]
 2163              	.L142:
 458:.\protocol.c  **** 	}
 459:.\protocol.c  **** 	if((digits==5)&&(preset==2)){
 2164              		.loc 1 459 0
 2165 005e A14B     		ldr	r3, .L196
 2166 0060 1B78     		ldrb	r3, [r3]
 2167 0062 DBB2     		uxtb	r3, r3
 2168 0064 052B     		cmp	r3, #5
 2169 0066 04D1     		bne	.L143
 2170              		.loc 1 459 0 is_stmt 0 discriminator 1
 2171 0068 7B79     		ldrb	r3, [r7, #5]	@ zero_extendqisi2
 2172 006a 022B     		cmp	r3, #2
 2173 006c 01D1     		bne	.L143
 460:.\protocol.c  **** 		buffer[1]=0xE5;
 2174              		.loc 1 460 0 is_stmt 1
 2175 006e E523     		movs	r3, #229
 2176 0070 7B72     		strb	r3, [r7, #9]
 2177              	.L143:
 461:.\protocol.c  **** 	}
 462:.\protocol.c  **** 	if((digits==7)&&(preset==1)){
 2178              		.loc 1 462 0
 2179 0072 9C4B     		ldr	r3, .L196
 2180 0074 1B78     		ldrb	r3, [r3]
 2181 0076 DBB2     		uxtb	r3, r3
 2182 0078 072B     		cmp	r3, #7
 2183 007a 04D1     		bne	.L144
 2184              		.loc 1 462 0 is_stmt 0 discriminator 1
 2185 007c 7B79     		ldrb	r3, [r7, #5]	@ zero_extendqisi2
 2186 007e 012B     		cmp	r3, #1
 2187 0080 01D1     		bne	.L144
 463:.\protocol.c  **** 		buffer[1]=0xE0;
 2188              		.loc 1 463 0 is_stmt 1
 2189 0082 E023     		movs	r3, #224
 2190 0084 7B72     		strb	r3, [r7, #9]
 2191              	.L144:
 464:.\protocol.c  **** 	}
 465:.\protocol.c  **** 	if((digits==7)&&(preset==2)){
 2192              		.loc 1 465 0
 2193 0086 974B     		ldr	r3, .L196
ARM GAS  C:\Users\Lenovo\AppData\Local\Temp\cc3dQOqg.s 			page 49


 2194 0088 1B78     		ldrb	r3, [r3]
 2195 008a DBB2     		uxtb	r3, r3
 2196 008c 072B     		cmp	r3, #7
 2197 008e 04D1     		bne	.L145
 2198              		.loc 1 465 0 is_stmt 0 discriminator 1
 2199 0090 7B79     		ldrb	r3, [r7, #5]	@ zero_extendqisi2
 2200 0092 022B     		cmp	r3, #2
 2201 0094 01D1     		bne	.L145
 466:.\protocol.c  **** 		buffer[1]=0xE2;
 2202              		.loc 1 466 0 is_stmt 1
 2203 0096 E223     		movs	r3, #226
 2204 0098 7B72     		strb	r3, [r7, #9]
 2205              	.L145:
 467:.\protocol.c  **** 	}
 468:.\protocol.c  ****     buffer[2]=(0xF0|preset);
 2206              		.loc 1 468 0
 2207 009a 7B79     		ldrb	r3, [r7, #5]
 2208 009c 63F00F03 		orn	r3, r3, #15
 2209 00a0 DBB2     		uxtb	r3, r3
 2210 00a2 BB72     		strb	r3, [r7, #10]
 469:.\protocol.c  ****     buffer[3]=0xF4;
 2211              		.loc 1 469 0
 2212 00a4 F423     		movs	r3, #244
 2213 00a6 FB72     		strb	r3, [r7, #11]
 470:.\protocol.c  ****     decimal=0;
 2214              		.loc 1 470 0
 2215 00a8 0023     		movs	r3, #0
 2216 00aa 3B77     		strb	r3, [r7, #28]
 471:.\protocol.c  ****     for(x=1;x<=value[0];x++){
 2217              		.loc 1 471 0
 2218 00ac 0123     		movs	r3, #1
 2219 00ae FB77     		strb	r3, [r7, #31]
 2220 00b0 29E0     		b	.L146
 2221              	.L153:
 472:.\protocol.c  ****         if(value[x]==','){
 2222              		.loc 1 472 0
 2223 00b2 FB7F     		ldrb	r3, [r7, #31]	@ zero_extendqisi2
 2224 00b4 3A68     		ldr	r2, [r7]
 2225 00b6 1344     		add	r3, r3, r2
 2226 00b8 1B78     		ldrb	r3, [r3]	@ zero_extendqisi2
 2227 00ba 2C2B     		cmp	r3, #44
 2228 00bc 20D1     		bne	.L147
 473:.\protocol.c  ****             if((decimal=value[0]-x)>3){
 2229              		.loc 1 473 0
 2230 00be 3B68     		ldr	r3, [r7]
 2231 00c0 1A78     		ldrb	r2, [r3]	@ zero_extendqisi2
 2232 00c2 FB7F     		ldrb	r3, [r7, #31]
 2233 00c4 D31A     		subs	r3, r2, r3
 2234 00c6 3B77     		strb	r3, [r7, #28]
 2235 00c8 3B7F     		ldrb	r3, [r7, #28]	@ zero_extendqisi2
 2236 00ca 032B     		cmp	r3, #3
 2237 00cc 01D9     		bls	.L148
 474:.\protocol.c  ****                 return 0;
 2238              		.loc 1 474 0
 2239 00ce 0023     		movs	r3, #0
 2240 00d0 48E2     		b	.L195
 2241              	.L148:
ARM GAS  C:\Users\Lenovo\AppData\Local\Temp\cc3dQOqg.s 			page 50


 475:.\protocol.c  ****             }
 476:.\protocol.c  ****             for(y=x;y>=2;y--){
 2242              		.loc 1 476 0
 2243 00d2 FB7F     		ldrb	r3, [r7, #31]
 2244 00d4 BB77     		strb	r3, [r7, #30]
 2245 00d6 0BE0     		b	.L150
 2246              	.L151:
 477:.\protocol.c  ****                 value[y]=value[y-1];
 2247              		.loc 1 477 0 discriminator 3
 2248 00d8 BB7F     		ldrb	r3, [r7, #30]	@ zero_extendqisi2
 2249 00da 3A68     		ldr	r2, [r7]
 2250 00dc 1344     		add	r3, r3, r2
 2251 00de BA7F     		ldrb	r2, [r7, #30]	@ zero_extendqisi2
 2252 00e0 013A     		subs	r2, r2, #1
 2253 00e2 3968     		ldr	r1, [r7]
 2254 00e4 0A44     		add	r2, r2, r1
 2255 00e6 1278     		ldrb	r2, [r2]	@ zero_extendqisi2
 2256 00e8 1A70     		strb	r2, [r3]
 476:.\protocol.c  ****                 value[y]=value[y-1];
 2257              		.loc 1 476 0 discriminator 3
 2258 00ea BB7F     		ldrb	r3, [r7, #30]	@ zero_extendqisi2
 2259 00ec 013B     		subs	r3, r3, #1
 2260 00ee BB77     		strb	r3, [r7, #30]
 2261              	.L150:
 476:.\protocol.c  ****                 value[y]=value[y-1];
 2262              		.loc 1 476 0 is_stmt 0 discriminator 1
 2263 00f0 BB7F     		ldrb	r3, [r7, #30]	@ zero_extendqisi2
 2264 00f2 012B     		cmp	r3, #1
 2265 00f4 F0D8     		bhi	.L151
 478:.\protocol.c  ****             }
 479:.\protocol.c  ****             value[1]='0';
 2266              		.loc 1 479 0 is_stmt 1
 2267 00f6 3B68     		ldr	r3, [r7]
 2268 00f8 0133     		adds	r3, r3, #1
 2269 00fa 3022     		movs	r2, #48
 2270 00fc 1A70     		strb	r2, [r3]
 480:.\protocol.c  ****             break;
 2271              		.loc 1 480 0
 2272 00fe 07E0     		b	.L152
 2273              	.L147:
 471:.\protocol.c  ****         if(value[x]==','){
 2274              		.loc 1 471 0 discriminator 2
 2275 0100 FB7F     		ldrb	r3, [r7, #31]	@ zero_extendqisi2
 2276 0102 0133     		adds	r3, r3, #1
 2277 0104 FB77     		strb	r3, [r7, #31]
 2278              	.L146:
 471:.\protocol.c  ****         if(value[x]==','){
 2279              		.loc 1 471 0 is_stmt 0 discriminator 1
 2280 0106 3B68     		ldr	r3, [r7]
 2281 0108 1B78     		ldrb	r3, [r3]	@ zero_extendqisi2
 2282 010a FA7F     		ldrb	r2, [r7, #31]	@ zero_extendqisi2
 2283 010c 9A42     		cmp	r2, r3
 2284 010e D0D9     		bls	.L153
 2285              	.L152:
 481:.\protocol.c  ****         }
 482:.\protocol.c  ****     }
 483:.\protocol.c  ****     if(digits!=value[0]){
ARM GAS  C:\Users\Lenovo\AppData\Local\Temp\cc3dQOqg.s 			page 51


 2286              		.loc 1 483 0 is_stmt 1
 2287 0110 3B68     		ldr	r3, [r7]
 2288 0112 1A78     		ldrb	r2, [r3]	@ zero_extendqisi2
 2289 0114 734B     		ldr	r3, .L196
 2290 0116 1B78     		ldrb	r3, [r3]
 2291 0118 DBB2     		uxtb	r3, r3
 2292 011a 9A42     		cmp	r2, r3
 2293 011c 35D0     		beq	.L154
 484:.\protocol.c  ****         for(x=0;x<value[0];x++){
 2294              		.loc 1 484 0
 2295 011e 0023     		movs	r3, #0
 2296 0120 FB77     		strb	r3, [r7, #31]
 2297 0122 15E0     		b	.L155
 2298              	.L156:
 485:.\protocol.c  ****             value[digits-x]=value[value[0]-x];
 2299              		.loc 1 485 0 discriminator 3
 2300 0124 6F4B     		ldr	r3, .L196
 2301 0126 1B78     		ldrb	r3, [r3]
 2302 0128 DBB2     		uxtb	r3, r3
 2303 012a 1A46     		mov	r2, r3
 2304 012c FB7F     		ldrb	r3, [r7, #31]	@ zero_extendqisi2
 2305 012e D31A     		subs	r3, r2, r3
 2306 0130 1A46     		mov	r2, r3
 2307 0132 3B68     		ldr	r3, [r7]
 2308 0134 1344     		add	r3, r3, r2
 2309 0136 3A68     		ldr	r2, [r7]
 2310 0138 1278     		ldrb	r2, [r2]	@ zero_extendqisi2
 2311 013a 1146     		mov	r1, r2
 2312 013c FA7F     		ldrb	r2, [r7, #31]	@ zero_extendqisi2
 2313 013e 8A1A     		subs	r2, r1, r2
 2314 0140 1146     		mov	r1, r2
 2315 0142 3A68     		ldr	r2, [r7]
 2316 0144 0A44     		add	r2, r2, r1
 2317 0146 1278     		ldrb	r2, [r2]	@ zero_extendqisi2
 2318 0148 1A70     		strb	r2, [r3]
 484:.\protocol.c  ****         for(x=0;x<value[0];x++){
 2319              		.loc 1 484 0 discriminator 3
 2320 014a FB7F     		ldrb	r3, [r7, #31]	@ zero_extendqisi2
 2321 014c 0133     		adds	r3, r3, #1
 2322 014e FB77     		strb	r3, [r7, #31]
 2323              	.L155:
 484:.\protocol.c  ****         for(x=0;x<value[0];x++){
 2324              		.loc 1 484 0 is_stmt 0 discriminator 1
 2325 0150 3B68     		ldr	r3, [r7]
 2326 0152 1B78     		ldrb	r3, [r3]	@ zero_extendqisi2
 2327 0154 FA7F     		ldrb	r2, [r7, #31]	@ zero_extendqisi2
 2328 0156 9A42     		cmp	r2, r3
 2329 0158 E4D3     		bcc	.L156
 486:.\protocol.c  ****         }
 487:.\protocol.c  ****         for(x=(digits-value[0]);x>0;x--){
 2330              		.loc 1 487 0 is_stmt 1
 2331 015a 624B     		ldr	r3, .L196
 2332 015c 1B78     		ldrb	r3, [r3]
 2333 015e DAB2     		uxtb	r2, r3
 2334 0160 3B68     		ldr	r3, [r7]
 2335 0162 1B78     		ldrb	r3, [r3]	@ zero_extendqisi2
 2336 0164 D31A     		subs	r3, r2, r3
ARM GAS  C:\Users\Lenovo\AppData\Local\Temp\cc3dQOqg.s 			page 52


 2337 0166 FB77     		strb	r3, [r7, #31]
 2338 0168 07E0     		b	.L157
 2339              	.L158:
 488:.\protocol.c  ****             value[x]='0';
 2340              		.loc 1 488 0 discriminator 3
 2341 016a FB7F     		ldrb	r3, [r7, #31]	@ zero_extendqisi2
 2342 016c 3A68     		ldr	r2, [r7]
 2343 016e 1344     		add	r3, r3, r2
 2344 0170 3022     		movs	r2, #48
 2345 0172 1A70     		strb	r2, [r3]
 487:.\protocol.c  ****             value[x]='0';
 2346              		.loc 1 487 0 discriminator 3
 2347 0174 FB7F     		ldrb	r3, [r7, #31]	@ zero_extendqisi2
 2348 0176 013B     		subs	r3, r3, #1
 2349 0178 FB77     		strb	r3, [r7, #31]
 2350              	.L157:
 487:.\protocol.c  ****             value[x]='0';
 2351              		.loc 1 487 0 is_stmt 0 discriminator 1
 2352 017a FB7F     		ldrb	r3, [r7, #31]	@ zero_extendqisi2
 2353 017c 002B     		cmp	r3, #0
 2354 017e F4D1     		bne	.L158
 489:.\protocol.c  ****         }
 490:.\protocol.c  ****         value[0]=digits;
 2355              		.loc 1 490 0 is_stmt 1
 2356 0180 584B     		ldr	r3, .L196
 2357 0182 1B78     		ldrb	r3, [r3]
 2358 0184 DAB2     		uxtb	r2, r3
 2359 0186 3B68     		ldr	r3, [r7]
 2360 0188 1A70     		strb	r2, [r3]
 2361              	.L154:
 491:.\protocol.c  ****     }
 492:.\protocol.c  ****     if(preset==1){//Volumen
 2362              		.loc 1 492 0
 2363 018a 7B79     		ldrb	r3, [r7, #5]	@ zero_extendqisi2
 2364 018c 012B     		cmp	r3, #1
 2365 018e 40F0E080 		bne	.L159
 493:.\protocol.c  ****         buffer[4]=0xF6;
 2366              		.loc 1 493 0
 2367 0192 F623     		movs	r3, #246
 2368 0194 3B73     		strb	r3, [r7, #12]
 494:.\protocol.c  ****         buffer[5]=(0xE0|(grade-1));
 2369              		.loc 1 494 0
 2370 0196 BB79     		ldrb	r3, [r7, #6]
 2371 0198 013B     		subs	r3, r3, #1
 2372 019a DBB2     		uxtb	r3, r3
 2373 019c DBB2     		uxtb	r3, r3
 2374 019e 63F01F03 		orn	r3, r3, #31
 2375 01a2 DBB2     		uxtb	r3, r3
 2376 01a4 DBB2     		uxtb	r3, r3
 2377 01a6 7B73     		strb	r3, [r7, #13]
 495:.\protocol.c  ****         buffer[6]=0xF8;
 2378              		.loc 1 495 0
 2379 01a8 F823     		movs	r3, #248
 2380 01aa BB73     		strb	r3, [r7, #14]
 496:.\protocol.c  ****         z=7;
 2381              		.loc 1 496 0
 2382 01ac 0723     		movs	r3, #7
ARM GAS  C:\Users\Lenovo\AppData\Local\Temp\cc3dQOqg.s 			page 53


 2383 01ae 7B77     		strb	r3, [r7, #29]
 497:.\protocol.c  ****         if(digits!=7){
 2384              		.loc 1 497 0
 2385 01b0 4C4B     		ldr	r3, .L196
 2386 01b2 1B78     		ldrb	r3, [r3]
 2387 01b4 DBB2     		uxtb	r3, r3
 2388 01b6 072B     		cmp	r3, #7
 2389 01b8 00F08380 		beq	.L160
 498:.\protocol.c  ****             if(decimal>(decimalVolume-1)){
 2390              		.loc 1 498 0
 2391 01bc 3A7F     		ldrb	r2, [r7, #28]	@ zero_extendqisi2
 2392 01be 4A4B     		ldr	r3, .L196+4
 2393 01c0 1B78     		ldrb	r3, [r3]
 2394 01c2 DBB2     		uxtb	r3, r3
 2395 01c4 013B     		subs	r3, r3, #1
 2396 01c6 9A42     		cmp	r2, r3
 2397 01c8 17DD     		ble	.L161
 499:.\protocol.c  ****                 for(x=value[0];x>1;x--){
 2398              		.loc 1 499 0
 2399 01ca 3B68     		ldr	r3, [r7]
 2400 01cc 1B78     		ldrb	r3, [r3]
 2401 01ce FB77     		strb	r3, [r7, #31]
 2402 01d0 0BE0     		b	.L162
 2403              	.L163:
 500:.\protocol.c  ****                     value[x]=value[x-1];
 2404              		.loc 1 500 0 discriminator 3
 2405 01d2 FB7F     		ldrb	r3, [r7, #31]	@ zero_extendqisi2
 2406 01d4 3A68     		ldr	r2, [r7]
 2407 01d6 1344     		add	r3, r3, r2
 2408 01d8 FA7F     		ldrb	r2, [r7, #31]	@ zero_extendqisi2
 2409 01da 013A     		subs	r2, r2, #1
 2410 01dc 3968     		ldr	r1, [r7]
 2411 01de 0A44     		add	r2, r2, r1
 2412 01e0 1278     		ldrb	r2, [r2]	@ zero_extendqisi2
 2413 01e2 1A70     		strb	r2, [r3]
 499:.\protocol.c  ****                 for(x=value[0];x>1;x--){
 2414              		.loc 1 499 0 discriminator 3
 2415 01e4 FB7F     		ldrb	r3, [r7, #31]	@ zero_extendqisi2
 2416 01e6 013B     		subs	r3, r3, #1
 2417 01e8 FB77     		strb	r3, [r7, #31]
 2418              	.L162:
 499:.\protocol.c  ****                 for(x=value[0];x>1;x--){
 2419              		.loc 1 499 0 is_stmt 0 discriminator 1
 2420 01ea FB7F     		ldrb	r3, [r7, #31]	@ zero_extendqisi2
 2421 01ec 012B     		cmp	r3, #1
 2422 01ee F0D8     		bhi	.L163
 501:.\protocol.c  ****                 }
 502:.\protocol.c  ****                 value[1]='0';
 2423              		.loc 1 502 0 is_stmt 1
 2424 01f0 3B68     		ldr	r3, [r7]
 2425 01f2 0133     		adds	r3, r3, #1
 2426 01f4 3022     		movs	r2, #48
 2427 01f6 1A70     		strb	r2, [r3]
 2428 01f8 42E0     		b	.L164
 2429              	.L161:
 503:.\protocol.c  ****             }else if(decimal<(decimalVolume-1)){
 2430              		.loc 1 503 0
ARM GAS  C:\Users\Lenovo\AppData\Local\Temp\cc3dQOqg.s 			page 54


 2431 01fa 3A7F     		ldrb	r2, [r7, #28]	@ zero_extendqisi2
 2432 01fc 3A4B     		ldr	r3, .L196+4
 2433 01fe 1B78     		ldrb	r3, [r3]
 2434 0200 DBB2     		uxtb	r3, r3
 2435 0202 013B     		subs	r3, r3, #1
 2436 0204 9A42     		cmp	r2, r3
 2437 0206 3BDA     		bge	.L164
 504:.\protocol.c  ****                 y=(decimalVolume-1)-(decimal);
 2438              		.loc 1 504 0
 2439 0208 374B     		ldr	r3, .L196+4
 2440 020a 1B78     		ldrb	r3, [r3]
 2441 020c DAB2     		uxtb	r2, r3
 2442 020e 3B7F     		ldrb	r3, [r7, #28]
 2443 0210 D31A     		subs	r3, r2, r3
 2444 0212 DBB2     		uxtb	r3, r3
 2445 0214 013B     		subs	r3, r3, #1
 2446 0216 BB77     		strb	r3, [r7, #30]
 505:.\protocol.c  ****                 for(x=1;x<=value[0];x++){
 2447              		.loc 1 505 0
 2448 0218 0123     		movs	r3, #1
 2449 021a FB77     		strb	r3, [r7, #31]
 2450 021c 2BE0     		b	.L165
 2451              	.L169:
 506:.\protocol.c  ****                     value[x]=value[y+x];
 2452              		.loc 1 506 0
 2453 021e FB7F     		ldrb	r3, [r7, #31]	@ zero_extendqisi2
 2454 0220 3A68     		ldr	r2, [r7]
 2455 0222 1344     		add	r3, r3, r2
 2456 0224 B97F     		ldrb	r1, [r7, #30]	@ zero_extendqisi2
 2457 0226 FA7F     		ldrb	r2, [r7, #31]	@ zero_extendqisi2
 2458 0228 0A44     		add	r2, r2, r1
 2459 022a 1146     		mov	r1, r2
 2460 022c 3A68     		ldr	r2, [r7]
 2461 022e 0A44     		add	r2, r2, r1
 2462 0230 1278     		ldrb	r2, [r2]	@ zero_extendqisi2
 2463 0232 1A70     		strb	r2, [r3]
 507:.\protocol.c  ****                     if((x+y)==value[0]){
 2464              		.loc 1 507 0
 2465 0234 FA7F     		ldrb	r2, [r7, #31]	@ zero_extendqisi2
 2466 0236 BB7F     		ldrb	r3, [r7, #30]	@ zero_extendqisi2
 2467 0238 1344     		add	r3, r3, r2
 2468 023a 3A68     		ldr	r2, [r7]
 2469 023c 1278     		ldrb	r2, [r2]	@ zero_extendqisi2
 2470 023e 9342     		cmp	r3, r2
 2471 0240 16D1     		bne	.L166
 508:.\protocol.c  ****                         for(y=1;y<=(value[0]-x);y++){
 2472              		.loc 1 508 0
 2473 0242 0123     		movs	r3, #1
 2474 0244 BB77     		strb	r3, [r7, #30]
 2475 0246 0AE0     		b	.L167
 2476              	.L168:
 509:.\protocol.c  ****                             value[x+y]='0';
 2477              		.loc 1 509 0 discriminator 3
 2478 0248 FA7F     		ldrb	r2, [r7, #31]	@ zero_extendqisi2
 2479 024a BB7F     		ldrb	r3, [r7, #30]	@ zero_extendqisi2
 2480 024c 1344     		add	r3, r3, r2
 2481 024e 1A46     		mov	r2, r3
ARM GAS  C:\Users\Lenovo\AppData\Local\Temp\cc3dQOqg.s 			page 55


 2482 0250 3B68     		ldr	r3, [r7]
 2483 0252 1344     		add	r3, r3, r2
 2484 0254 3022     		movs	r2, #48
 2485 0256 1A70     		strb	r2, [r3]
 508:.\protocol.c  ****                         for(y=1;y<=(value[0]-x);y++){
 2486              		.loc 1 508 0 discriminator 3
 2487 0258 BB7F     		ldrb	r3, [r7, #30]	@ zero_extendqisi2
 2488 025a 0133     		adds	r3, r3, #1
 2489 025c BB77     		strb	r3, [r7, #30]
 2490              	.L167:
 508:.\protocol.c  ****                         for(y=1;y<=(value[0]-x);y++){
 2491              		.loc 1 508 0 is_stmt 0 discriminator 1
 2492 025e BA7F     		ldrb	r2, [r7, #30]	@ zero_extendqisi2
 2493 0260 3B68     		ldr	r3, [r7]
 2494 0262 1B78     		ldrb	r3, [r3]	@ zero_extendqisi2
 2495 0264 1946     		mov	r1, r3
 2496 0266 FB7F     		ldrb	r3, [r7, #31]	@ zero_extendqisi2
 2497 0268 CB1A     		subs	r3, r1, r3
 2498 026a 9A42     		cmp	r2, r3
 2499 026c ECDD     		ble	.L168
 510:.\protocol.c  ****                         }
 511:.\protocol.c  ****                         break;
 2500              		.loc 1 511 0 is_stmt 1
 2501 026e 07E0     		b	.L164
 2502              	.L166:
 505:.\protocol.c  ****                     value[x]=value[y+x];
 2503              		.loc 1 505 0 discriminator 2
 2504 0270 FB7F     		ldrb	r3, [r7, #31]	@ zero_extendqisi2
 2505 0272 0133     		adds	r3, r3, #1
 2506 0274 FB77     		strb	r3, [r7, #31]
 2507              	.L165:
 505:.\protocol.c  ****                     value[x]=value[y+x];
 2508              		.loc 1 505 0 is_stmt 0 discriminator 1
 2509 0276 3B68     		ldr	r3, [r7]
 2510 0278 1B78     		ldrb	r3, [r3]	@ zero_extendqisi2
 2511 027a FA7F     		ldrb	r2, [r7, #31]	@ zero_extendqisi2
 2512 027c 9A42     		cmp	r2, r3
 2513 027e CED9     		bls	.L169
 2514              	.L164:
 512:.\protocol.c  ****                     }
 513:.\protocol.c  ****                 }
 514:.\protocol.c  ****             }
 515:.\protocol.c  ****             if(digits==6){
 2515              		.loc 1 515 0 is_stmt 1
 2516 0280 184B     		ldr	r3, .L196
 2517 0282 1B78     		ldrb	r3, [r3]
 2518 0284 DBB2     		uxtb	r3, r3
 2519 0286 062B     		cmp	r3, #6
 2520 0288 40F0A780 		bne	.L179
 516:.\protocol.c  ****                 for(x=1;x<value[0];x++){
 2521              		.loc 1 516 0
 2522 028c 0123     		movs	r3, #1
 2523 028e FB77     		strb	r3, [r7, #31]
 2524 0290 0BE0     		b	.L171
 2525              	.L172:
 517:.\protocol.c  ****                     value[x]=value[x+1];
 2526              		.loc 1 517 0 discriminator 3
ARM GAS  C:\Users\Lenovo\AppData\Local\Temp\cc3dQOqg.s 			page 56


 2527 0292 FB7F     		ldrb	r3, [r7, #31]	@ zero_extendqisi2
 2528 0294 3A68     		ldr	r2, [r7]
 2529 0296 1344     		add	r3, r3, r2
 2530 0298 FA7F     		ldrb	r2, [r7, #31]	@ zero_extendqisi2
 2531 029a 0132     		adds	r2, r2, #1
 2532 029c 3968     		ldr	r1, [r7]
 2533 029e 0A44     		add	r2, r2, r1
 2534 02a0 1278     		ldrb	r2, [r2]	@ zero_extendqisi2
 2535 02a2 1A70     		strb	r2, [r3]
 516:.\protocol.c  ****                 for(x=1;x<value[0];x++){
 2536              		.loc 1 516 0 discriminator 3
 2537 02a4 FB7F     		ldrb	r3, [r7, #31]	@ zero_extendqisi2
 2538 02a6 0133     		adds	r3, r3, #1
 2539 02a8 FB77     		strb	r3, [r7, #31]
 2540              	.L171:
 516:.\protocol.c  ****                 for(x=1;x<value[0];x++){
 2541              		.loc 1 516 0 is_stmt 0 discriminator 1
 2542 02aa 3B68     		ldr	r3, [r7]
 2543 02ac 1B78     		ldrb	r3, [r3]	@ zero_extendqisi2
 2544 02ae FA7F     		ldrb	r2, [r7, #31]	@ zero_extendqisi2
 2545 02b0 9A42     		cmp	r2, r3
 2546 02b2 EED3     		bcc	.L172
 518:.\protocol.c  ****                 }
 519:.\protocol.c  ****                 value[0]--;
 2547              		.loc 1 519 0 is_stmt 1
 2548 02b4 3B68     		ldr	r3, [r7]
 2549 02b6 1B78     		ldrb	r3, [r3]	@ zero_extendqisi2
 2550 02b8 013B     		subs	r3, r3, #1
 2551 02ba DAB2     		uxtb	r2, r3
 2552 02bc 3B68     		ldr	r3, [r7]
 2553 02be 1A70     		strb	r2, [r3]
 2554 02c0 8BE0     		b	.L179
 2555              	.L160:
 520:.\protocol.c  ****             }
 521:.\protocol.c  ****         }else{
 522:.\protocol.c  ****             if(decimal!=decimalVolume){
 2556              		.loc 1 522 0
 2557 02c2 094B     		ldr	r3, .L196+4
 2558 02c4 1B78     		ldrb	r3, [r3]
 2559 02c6 DBB2     		uxtb	r3, r3
 2560 02c8 3A7F     		ldrb	r2, [r7, #28]	@ zero_extendqisi2
 2561 02ca 9A42     		cmp	r2, r3
 2562 02cc 00F08580 		beq	.L179
 523:.\protocol.c  ****                 y=decimalVolume-decimal;
 2563              		.loc 1 523 0
 2564 02d0 054B     		ldr	r3, .L196+4
 2565 02d2 1B78     		ldrb	r3, [r3]
 2566 02d4 DAB2     		uxtb	r2, r3
 2567 02d6 3B7F     		ldrb	r3, [r7, #28]
 2568 02d8 D31A     		subs	r3, r2, r3
 2569 02da BB77     		strb	r3, [r7, #30]
 524:.\protocol.c  ****                 for(x=1;x<=value[0];x++){
 2570              		.loc 1 524 0
 2571 02dc 0123     		movs	r3, #1
 2572 02de FB77     		strb	r3, [r7, #31]
 2573 02e0 31E0     		b	.L174
 2574              	.L197:
ARM GAS  C:\Users\Lenovo\AppData\Local\Temp\cc3dQOqg.s 			page 57


 2575 02e2 00BF     		.align	2
 2576              	.L196:
 2577 02e4 00000000 		.word	digits
 2578 02e8 00000000 		.word	decimalVolume
 2579              	.L178:
 525:.\protocol.c  ****                     value[x]=value[y+x];
 2580              		.loc 1 525 0
 2581 02ec FB7F     		ldrb	r3, [r7, #31]	@ zero_extendqisi2
 2582 02ee 3A68     		ldr	r2, [r7]
 2583 02f0 1344     		add	r3, r3, r2
 2584 02f2 B97F     		ldrb	r1, [r7, #30]	@ zero_extendqisi2
 2585 02f4 FA7F     		ldrb	r2, [r7, #31]	@ zero_extendqisi2
 2586 02f6 0A44     		add	r2, r2, r1
 2587 02f8 1146     		mov	r1, r2
 2588 02fa 3A68     		ldr	r2, [r7]
 2589 02fc 0A44     		add	r2, r2, r1
 2590 02fe 1278     		ldrb	r2, [r2]	@ zero_extendqisi2
 2591 0300 1A70     		strb	r2, [r3]
 526:.\protocol.c  ****                     if((x+y)==value[0]){
 2592              		.loc 1 526 0
 2593 0302 FA7F     		ldrb	r2, [r7, #31]	@ zero_extendqisi2
 2594 0304 BB7F     		ldrb	r3, [r7, #30]	@ zero_extendqisi2
 2595 0306 1344     		add	r3, r3, r2
 2596 0308 3A68     		ldr	r2, [r7]
 2597 030a 1278     		ldrb	r2, [r2]	@ zero_extendqisi2
 2598 030c 9342     		cmp	r3, r2
 2599 030e 17D1     		bne	.L175
 527:.\protocol.c  ****                         for(y=1;y<=(value[0]-x);y++){
 2600              		.loc 1 527 0
 2601 0310 0123     		movs	r3, #1
 2602 0312 BB77     		strb	r3, [r7, #30]
 2603 0314 0AE0     		b	.L176
 2604              	.L177:
 528:.\protocol.c  ****                             value[x+y]='0';
 2605              		.loc 1 528 0 discriminator 3
 2606 0316 FA7F     		ldrb	r2, [r7, #31]	@ zero_extendqisi2
 2607 0318 BB7F     		ldrb	r3, [r7, #30]	@ zero_extendqisi2
 2608 031a 1344     		add	r3, r3, r2
 2609 031c 1A46     		mov	r2, r3
 2610 031e 3B68     		ldr	r3, [r7]
 2611 0320 1344     		add	r3, r3, r2
 2612 0322 3022     		movs	r2, #48
 2613 0324 1A70     		strb	r2, [r3]
 527:.\protocol.c  ****                         for(y=1;y<=(value[0]-x);y++){
 2614              		.loc 1 527 0 discriminator 3
 2615 0326 BB7F     		ldrb	r3, [r7, #30]	@ zero_extendqisi2
 2616 0328 0133     		adds	r3, r3, #1
 2617 032a BB77     		strb	r3, [r7, #30]
 2618              	.L176:
 527:.\protocol.c  ****                         for(y=1;y<=(value[0]-x);y++){
 2619              		.loc 1 527 0 is_stmt 0 discriminator 1
 2620 032c BA7F     		ldrb	r2, [r7, #30]	@ zero_extendqisi2
 2621 032e 3B68     		ldr	r3, [r7]
 2622 0330 1B78     		ldrb	r3, [r3]	@ zero_extendqisi2
 2623 0332 1946     		mov	r1, r3
 2624 0334 FB7F     		ldrb	r3, [r7, #31]	@ zero_extendqisi2
 2625 0336 CB1A     		subs	r3, r1, r3
ARM GAS  C:\Users\Lenovo\AppData\Local\Temp\cc3dQOqg.s 			page 58


 2626 0338 9A42     		cmp	r2, r3
 2627 033a ECDD     		ble	.L177
 529:.\protocol.c  ****                         }
 530:.\protocol.c  ****                         break;
 2628              		.loc 1 530 0 is_stmt 1 discriminator 2
 2629 033c 00BF     		nop
 2630 033e 4CE0     		b	.L179
 2631              	.L175:
 524:.\protocol.c  ****                     value[x]=value[y+x];
 2632              		.loc 1 524 0 discriminator 2
 2633 0340 FB7F     		ldrb	r3, [r7, #31]	@ zero_extendqisi2
 2634 0342 0133     		adds	r3, r3, #1
 2635 0344 FB77     		strb	r3, [r7, #31]
 2636              	.L174:
 524:.\protocol.c  ****                     value[x]=value[y+x];
 2637              		.loc 1 524 0 is_stmt 0 discriminator 1
 2638 0346 3B68     		ldr	r3, [r7]
 2639 0348 1B78     		ldrb	r3, [r3]	@ zero_extendqisi2
 2640 034a FA7F     		ldrb	r2, [r7, #31]	@ zero_extendqisi2
 2641 034c 9A42     		cmp	r2, r3
 2642 034e CDD9     		bls	.L178
 2643 0350 43E0     		b	.L179
 2644              	.L159:
 531:.\protocol.c  ****                     }
 532:.\protocol.c  ****                 }
 533:.\protocol.c  ****             }
 534:.\protocol.c  ****         }
 535:.\protocol.c  ****     }else{//Dinero
 536:.\protocol.c  ****         buffer[4]=0xF8;	
 2645              		.loc 1 536 0 is_stmt 1
 2646 0352 F823     		movs	r3, #248
 2647 0354 3B73     		strb	r3, [r7, #12]
 537:.\protocol.c  ****         z=5;
 2648              		.loc 1 537 0
 2649 0356 0523     		movs	r3, #5
 2650 0358 7B77     		strb	r3, [r7, #29]
 538:.\protocol.c  ****         if(decimal!=decimalMoney){
 2651              		.loc 1 538 0
 2652 035a 844B     		ldr	r3, .L198
 2653 035c 1B78     		ldrb	r3, [r3]
 2654 035e DBB2     		uxtb	r3, r3
 2655 0360 3A7F     		ldrb	r2, [r7, #28]	@ zero_extendqisi2
 2656 0362 9A42     		cmp	r2, r3
 2657 0364 39D0     		beq	.L179
 539:.\protocol.c  ****             y=decimalMoney-decimal;
 2658              		.loc 1 539 0
 2659 0366 814B     		ldr	r3, .L198
 2660 0368 1B78     		ldrb	r3, [r3]
 2661 036a DAB2     		uxtb	r2, r3
 2662 036c 3B7F     		ldrb	r3, [r7, #28]
 2663 036e D31A     		subs	r3, r2, r3
 2664 0370 BB77     		strb	r3, [r7, #30]
 540:.\protocol.c  ****             for(x=1;x<=value[0];x++){
 2665              		.loc 1 540 0
 2666 0372 0123     		movs	r3, #1
 2667 0374 FB77     		strb	r3, [r7, #31]
 2668 0376 2BE0     		b	.L180
ARM GAS  C:\Users\Lenovo\AppData\Local\Temp\cc3dQOqg.s 			page 59


 2669              	.L184:
 541:.\protocol.c  ****                 value[x]=value[y+x];
 2670              		.loc 1 541 0
 2671 0378 FB7F     		ldrb	r3, [r7, #31]	@ zero_extendqisi2
 2672 037a 3A68     		ldr	r2, [r7]
 2673 037c 1344     		add	r3, r3, r2
 2674 037e B97F     		ldrb	r1, [r7, #30]	@ zero_extendqisi2
 2675 0380 FA7F     		ldrb	r2, [r7, #31]	@ zero_extendqisi2
 2676 0382 0A44     		add	r2, r2, r1
 2677 0384 1146     		mov	r1, r2
 2678 0386 3A68     		ldr	r2, [r7]
 2679 0388 0A44     		add	r2, r2, r1
 2680 038a 1278     		ldrb	r2, [r2]	@ zero_extendqisi2
 2681 038c 1A70     		strb	r2, [r3]
 542:.\protocol.c  ****                 if((x+y)==value[0]){
 2682              		.loc 1 542 0
 2683 038e FA7F     		ldrb	r2, [r7, #31]	@ zero_extendqisi2
 2684 0390 BB7F     		ldrb	r3, [r7, #30]	@ zero_extendqisi2
 2685 0392 1344     		add	r3, r3, r2
 2686 0394 3A68     		ldr	r2, [r7]
 2687 0396 1278     		ldrb	r2, [r2]	@ zero_extendqisi2
 2688 0398 9342     		cmp	r3, r2
 2689 039a 16D1     		bne	.L181
 543:.\protocol.c  ****                     for(y=1;y<=(value[0]-x);y++){
 2690              		.loc 1 543 0
 2691 039c 0123     		movs	r3, #1
 2692 039e BB77     		strb	r3, [r7, #30]
 2693 03a0 0AE0     		b	.L182
 2694              	.L183:
 544:.\protocol.c  ****                         value[x+y]='0';
 2695              		.loc 1 544 0 discriminator 3
 2696 03a2 FA7F     		ldrb	r2, [r7, #31]	@ zero_extendqisi2
 2697 03a4 BB7F     		ldrb	r3, [r7, #30]	@ zero_extendqisi2
 2698 03a6 1344     		add	r3, r3, r2
 2699 03a8 1A46     		mov	r2, r3
 2700 03aa 3B68     		ldr	r3, [r7]
 2701 03ac 1344     		add	r3, r3, r2
 2702 03ae 3022     		movs	r2, #48
 2703 03b0 1A70     		strb	r2, [r3]
 543:.\protocol.c  ****                     for(y=1;y<=(value[0]-x);y++){
 2704              		.loc 1 543 0 discriminator 3
 2705 03b2 BB7F     		ldrb	r3, [r7, #30]	@ zero_extendqisi2
 2706 03b4 0133     		adds	r3, r3, #1
 2707 03b6 BB77     		strb	r3, [r7, #30]
 2708              	.L182:
 543:.\protocol.c  ****                     for(y=1;y<=(value[0]-x);y++){
 2709              		.loc 1 543 0 is_stmt 0 discriminator 1
 2710 03b8 BA7F     		ldrb	r2, [r7, #30]	@ zero_extendqisi2
 2711 03ba 3B68     		ldr	r3, [r7]
 2712 03bc 1B78     		ldrb	r3, [r3]	@ zero_extendqisi2
 2713 03be 1946     		mov	r1, r3
 2714 03c0 FB7F     		ldrb	r3, [r7, #31]	@ zero_extendqisi2
 2715 03c2 CB1A     		subs	r3, r1, r3
 2716 03c4 9A42     		cmp	r2, r3
 2717 03c6 ECDD     		ble	.L183
 545:.\protocol.c  ****                     }
 546:.\protocol.c  ****                     break;
ARM GAS  C:\Users\Lenovo\AppData\Local\Temp\cc3dQOqg.s 			page 60


 2718              		.loc 1 546 0 is_stmt 1
 2719 03c8 07E0     		b	.L179
 2720              	.L181:
 540:.\protocol.c  ****                 value[x]=value[y+x];
 2721              		.loc 1 540 0 discriminator 2
 2722 03ca FB7F     		ldrb	r3, [r7, #31]	@ zero_extendqisi2
 2723 03cc 0133     		adds	r3, r3, #1
 2724 03ce FB77     		strb	r3, [r7, #31]
 2725              	.L180:
 540:.\protocol.c  ****                 value[x]=value[y+x];
 2726              		.loc 1 540 0 is_stmt 0 discriminator 1
 2727 03d0 3B68     		ldr	r3, [r7]
 2728 03d2 1B78     		ldrb	r3, [r3]	@ zero_extendqisi2
 2729 03d4 FA7F     		ldrb	r2, [r7, #31]	@ zero_extendqisi2
 2730 03d6 9A42     		cmp	r2, r3
 2731 03d8 CED9     		bls	.L184
 2732              	.L179:
 547:.\protocol.c  ****                 }
 548:.\protocol.c  ****             }
 549:.\protocol.c  ****         }
 550:.\protocol.c  ****     }
 551:.\protocol.c  ****     for(x=0;x<value[0];x++){
 2733              		.loc 1 551 0 is_stmt 1
 2734 03da 0023     		movs	r3, #0
 2735 03dc FB77     		strb	r3, [r7, #31]
 2736 03de 1BE0     		b	.L185
 2737              	.L186:
 552:.\protocol.c  ****         buffer[z+x]=0xE0|(value[value[0]-x]&0x0F);
 2738              		.loc 1 552 0 discriminator 3
 2739 03e0 7A7F     		ldrb	r2, [r7, #29]	@ zero_extendqisi2
 2740 03e2 FB7F     		ldrb	r3, [r7, #31]	@ zero_extendqisi2
 2741 03e4 1344     		add	r3, r3, r2
 2742 03e6 3A68     		ldr	r2, [r7]
 2743 03e8 1278     		ldrb	r2, [r2]	@ zero_extendqisi2
 2744 03ea 1146     		mov	r1, r2
 2745 03ec FA7F     		ldrb	r2, [r7, #31]	@ zero_extendqisi2
 2746 03ee 8A1A     		subs	r2, r1, r2
 2747 03f0 1146     		mov	r1, r2
 2748 03f2 3A68     		ldr	r2, [r7]
 2749 03f4 0A44     		add	r2, r2, r1
 2750 03f6 1278     		ldrb	r2, [r2]	@ zero_extendqisi2
 2751 03f8 D2B2     		uxtb	r2, r2
 2752 03fa 02F00F02 		and	r2, r2, #15
 2753 03fe D2B2     		uxtb	r2, r2
 2754 0400 62F01F02 		orn	r2, r2, #31
 2755 0404 D2B2     		uxtb	r2, r2
 2756 0406 D2B2     		uxtb	r2, r2
 2757 0408 07F12001 		add	r1, r7, #32
 2758 040c 0B44     		add	r3, r3, r1
 2759 040e 03F8182C 		strb	r2, [r3, #-24]
 551:.\protocol.c  ****         buffer[z+x]=0xE0|(value[value[0]-x]&0x0F);
 2760              		.loc 1 551 0 discriminator 3
 2761 0412 FB7F     		ldrb	r3, [r7, #31]	@ zero_extendqisi2
 2762 0414 0133     		adds	r3, r3, #1
 2763 0416 FB77     		strb	r3, [r7, #31]
 2764              	.L185:
 551:.\protocol.c  ****         buffer[z+x]=0xE0|(value[value[0]-x]&0x0F);
ARM GAS  C:\Users\Lenovo\AppData\Local\Temp\cc3dQOqg.s 			page 61


 2765              		.loc 1 551 0 is_stmt 0 discriminator 1
 2766 0418 3B68     		ldr	r3, [r7]
 2767 041a 1B78     		ldrb	r3, [r3]	@ zero_extendqisi2
 2768 041c FA7F     		ldrb	r2, [r7, #31]	@ zero_extendqisi2
 2769 041e 9A42     		cmp	r2, r3
 2770 0420 DED3     		bcc	.L186
 553:.\protocol.c  ****     }
 554:.\protocol.c  ****     if(value[0]>=7){
 2771              		.loc 1 554 0 is_stmt 1
 2772 0422 3B68     		ldr	r3, [r7]
 2773 0424 1B78     		ldrb	r3, [r3]	@ zero_extendqisi2
 2774 0426 062B     		cmp	r3, #6
 2775 0428 0BD9     		bls	.L187
 555:.\protocol.c  ****         buffer[z+x]=0xE0;
 2776              		.loc 1 555 0
 2777 042a 7A7F     		ldrb	r2, [r7, #29]	@ zero_extendqisi2
 2778 042c FB7F     		ldrb	r3, [r7, #31]	@ zero_extendqisi2
 2779 042e 1344     		add	r3, r3, r2
 2780 0430 07F12002 		add	r2, r7, #32
 2781 0434 1344     		add	r3, r3, r2
 2782 0436 E022     		movs	r2, #224
 2783 0438 03F8182C 		strb	r2, [r3, #-24]
 556:.\protocol.c  ****         x++;
 2784              		.loc 1 556 0
 2785 043c FB7F     		ldrb	r3, [r7, #31]	@ zero_extendqisi2
 2786 043e 0133     		adds	r3, r3, #1
 2787 0440 FB77     		strb	r3, [r7, #31]
 2788              	.L187:
 557:.\protocol.c  ****     }
 558:.\protocol.c  ****     buffer[z+x]=0xFB;
 2789              		.loc 1 558 0
 2790 0442 7A7F     		ldrb	r2, [r7, #29]	@ zero_extendqisi2
 2791 0444 FB7F     		ldrb	r3, [r7, #31]	@ zero_extendqisi2
 2792 0446 1344     		add	r3, r3, r2
 2793 0448 07F12002 		add	r2, r7, #32
 2794 044c 1344     		add	r3, r3, r2
 2795 044e FB22     		movs	r2, #251
 2796 0450 03F8182C 		strb	r2, [r3, #-24]
 559:.\protocol.c  ****     z=z+x+1;
 2797              		.loc 1 559 0
 2798 0454 7A7F     		ldrb	r2, [r7, #29]
 2799 0456 FB7F     		ldrb	r3, [r7, #31]
 2800 0458 1344     		add	r3, r3, r2
 2801 045a DBB2     		uxtb	r3, r3
 2802 045c 0133     		adds	r3, r3, #1
 2803 045e 7B77     		strb	r3, [r7, #29]
 560:.\protocol.c  ****     for(x=0;x<z;x++){
 2804              		.loc 1 560 0
 2805 0460 0023     		movs	r3, #0
 2806 0462 FB77     		strb	r3, [r7, #31]
 2807 0464 19E0     		b	.L188
 2808              	.L189:
 561:.\protocol.c  **** 		buffer[z]+=(buffer[x]&0x0F);	
 2809              		.loc 1 561 0 discriminator 3
 2810 0466 7B7F     		ldrb	r3, [r7, #29]	@ zero_extendqisi2
 2811 0468 7A7F     		ldrb	r2, [r7, #29]	@ zero_extendqisi2
 2812 046a 07F12001 		add	r1, r7, #32
ARM GAS  C:\Users\Lenovo\AppData\Local\Temp\cc3dQOqg.s 			page 62


 2813 046e 0A44     		add	r2, r2, r1
 2814 0470 12F8181C 		ldrb	r1, [r2, #-24]	@ zero_extendqisi2
 2815 0474 FA7F     		ldrb	r2, [r7, #31]	@ zero_extendqisi2
 2816 0476 07F12000 		add	r0, r7, #32
 2817 047a 0244     		add	r2, r2, r0
 2818 047c 12F8182C 		ldrb	r2, [r2, #-24]	@ zero_extendqisi2
 2819 0480 02F00F02 		and	r2, r2, #15
 2820 0484 D2B2     		uxtb	r2, r2
 2821 0486 0A44     		add	r2, r2, r1
 2822 0488 D2B2     		uxtb	r2, r2
 2823 048a 07F12001 		add	r1, r7, #32
 2824 048e 0B44     		add	r3, r3, r1
 2825 0490 03F8182C 		strb	r2, [r3, #-24]
 560:.\protocol.c  ****     for(x=0;x<z;x++){
 2826              		.loc 1 560 0 discriminator 3
 2827 0494 FB7F     		ldrb	r3, [r7, #31]	@ zero_extendqisi2
 2828 0496 0133     		adds	r3, r3, #1
 2829 0498 FB77     		strb	r3, [r7, #31]
 2830              	.L188:
 560:.\protocol.c  ****     for(x=0;x<z;x++){
 2831              		.loc 1 560 0 is_stmt 0 discriminator 1
 2832 049a FA7F     		ldrb	r2, [r7, #31]	@ zero_extendqisi2
 2833 049c 7B7F     		ldrb	r3, [r7, #29]	@ zero_extendqisi2
 2834 049e 9A42     		cmp	r2, r3
 2835 04a0 E1D3     		bcc	.L189
 562:.\protocol.c  **** 	}
 563:.\protocol.c  ****     buffer[z]=(((~buffer[z])+1)&0x0F)|0xE0;
 2836              		.loc 1 563 0 is_stmt 1
 2837 04a2 7B7F     		ldrb	r3, [r7, #29]	@ zero_extendqisi2
 2838 04a4 7A7F     		ldrb	r2, [r7, #29]	@ zero_extendqisi2
 2839 04a6 07F12001 		add	r1, r7, #32
 2840 04aa 0A44     		add	r2, r2, r1
 2841 04ac 12F8182C 		ldrb	r2, [r2, #-24]	@ zero_extendqisi2
 2842 04b0 5242     		negs	r2, r2
 2843 04b2 D2B2     		uxtb	r2, r2
 2844 04b4 D2B2     		uxtb	r2, r2
 2845 04b6 02F00F02 		and	r2, r2, #15
 2846 04ba D2B2     		uxtb	r2, r2
 2847 04bc 62F01F02 		orn	r2, r2, #31
 2848 04c0 D2B2     		uxtb	r2, r2
 2849 04c2 D2B2     		uxtb	r2, r2
 2850 04c4 07F12001 		add	r1, r7, #32
 2851 04c8 0B44     		add	r3, r3, r1
 2852 04ca 03F8182C 		strb	r2, [r3, #-24]
 564:.\protocol.c  ****     z++;
 2853              		.loc 1 564 0
 2854 04ce 7B7F     		ldrb	r3, [r7, #29]	@ zero_extendqisi2
 2855 04d0 0133     		adds	r3, r3, #1
 2856 04d2 7B77     		strb	r3, [r7, #29]
 565:.\protocol.c  ****     buffer[z]=0xF0;
 2857              		.loc 1 565 0
 2858 04d4 7B7F     		ldrb	r3, [r7, #29]	@ zero_extendqisi2
 2859 04d6 07F12002 		add	r2, r7, #32
 2860 04da 1344     		add	r3, r3, r2
 2861 04dc F022     		movs	r2, #240
 2862 04de 03F8182C 		strb	r2, [r3, #-24]
 566:.\protocol.c  ****     Pump_AL_ClearRxBuffer();
ARM GAS  C:\Users\Lenovo\AppData\Local\Temp\cc3dQOqg.s 			page 63


 2863              		.loc 1 566 0
 2864 04e2 FFF7FEFF 		bl	Pump_AL_ClearRxBuffer
 567:.\protocol.c  **** 	Pump_AL_PutChar(0x20|pos);	
 2865              		.loc 1 567 0
 2866 04e6 FB79     		ldrb	r3, [r7, #7]
 2867 04e8 43F02003 		orr	r3, r3, #32
 2868 04ec DBB2     		uxtb	r3, r3
 2869 04ee 1846     		mov	r0, r3
 2870 04f0 FFF7FEFF 		bl	Pump_AL_PutChar
 568:.\protocol.c  ****     CyDelay(50);
 2871              		.loc 1 568 0
 2872 04f4 3220     		movs	r0, #50
 2873 04f6 FFF7FEFF 		bl	CyDelay
 569:.\protocol.c  ****     if(Pump_AL_GetRxBufferSize()>=1){
 2874              		.loc 1 569 0
 2875 04fa FFF7FEFF 		bl	Pump_AL_GetRxBufferSize
 2876 04fe 0346     		mov	r3, r0
 2877 0500 002B     		cmp	r3, #0
 2878 0502 2ED0     		beq	.L190
 570:.\protocol.c  **** 		if(Pump_AL_ReadRxData()==(0xD0|pos)){
 2879              		.loc 1 570 0
 2880 0504 FFF7FEFF 		bl	Pump_AL_ReadRxData
 2881 0508 0346     		mov	r3, r0
 2882 050a 1A46     		mov	r2, r3
 2883 050c FB79     		ldrb	r3, [r7, #7]
 2884 050e 63F02F03 		orn	r3, r3, #47
 2885 0512 DBB2     		uxtb	r3, r3
 2886 0514 9A42     		cmp	r2, r3
 2887 0516 22D1     		bne	.L191
 571:.\protocol.c  ****             Pump_AL_ClearRxBuffer();
 2888              		.loc 1 571 0
 2889 0518 FFF7FEFF 		bl	Pump_AL_ClearRxBuffer
 572:.\protocol.c  ****             for(x=0;x<=z;x++){
 2890              		.loc 1 572 0
 2891 051c 0023     		movs	r3, #0
 2892 051e FB77     		strb	r3, [r7, #31]
 2893 0520 0BE0     		b	.L192
 2894              	.L193:
 573:.\protocol.c  ****                	Pump_AL_PutChar(buffer[x]);
 2895              		.loc 1 573 0 discriminator 3
 2896 0522 FB7F     		ldrb	r3, [r7, #31]	@ zero_extendqisi2
 2897 0524 07F12002 		add	r2, r7, #32
 2898 0528 1344     		add	r3, r3, r2
 2899 052a 13F8183C 		ldrb	r3, [r3, #-24]	@ zero_extendqisi2
 2900 052e 1846     		mov	r0, r3
 2901 0530 FFF7FEFF 		bl	Pump_AL_PutChar
 572:.\protocol.c  ****             for(x=0;x<=z;x++){
 2902              		.loc 1 572 0 discriminator 3
 2903 0534 FB7F     		ldrb	r3, [r7, #31]	@ zero_extendqisi2
 2904 0536 0133     		adds	r3, r3, #1
 2905 0538 FB77     		strb	r3, [r7, #31]
 2906              	.L192:
 572:.\protocol.c  ****             for(x=0;x<=z;x++){
 2907              		.loc 1 572 0 is_stmt 0 discriminator 1
 2908 053a FA7F     		ldrb	r2, [r7, #31]	@ zero_extendqisi2
 2909 053c 7B7F     		ldrb	r3, [r7, #29]	@ zero_extendqisi2
 2910 053e 9A42     		cmp	r2, r3
ARM GAS  C:\Users\Lenovo\AppData\Local\Temp\cc3dQOqg.s 			page 64


 2911 0540 EFD9     		bls	.L193
 574:.\protocol.c  ****             }
 575:.\protocol.c  **** 			CyDelay(50);
 2912              		.loc 1 575 0 is_stmt 1
 2913 0542 3220     		movs	r0, #50
 2914 0544 FFF7FEFF 		bl	CyDelay
 576:.\protocol.c  **** 			if(get_state(pos)==0){
 2915              		.loc 1 576 0
 2916 0548 FB79     		ldrb	r3, [r7, #7]	@ zero_extendqisi2
 2917 054a 1846     		mov	r0, r3
 2918 054c FFF7FEFF 		bl	get_state
 2919 0550 0346     		mov	r3, r0
 2920 0552 002B     		cmp	r3, #0
 2921 0554 01D1     		bne	.L194
 577:.\protocol.c  **** 				return 0; 
 2922              		.loc 1 577 0
 2923 0556 0023     		movs	r3, #0
 2924 0558 04E0     		b	.L195
 2925              	.L194:
 578:.\protocol.c  **** 			}
 579:.\protocol.c  **** 			else{
 580:.\protocol.c  **** 				return 1;
 2926              		.loc 1 580 0
 2927 055a 0123     		movs	r3, #1
 2928 055c 02E0     		b	.L195
 2929              	.L191:
 581:.\protocol.c  **** 			}
 582:.\protocol.c  **** 		}
 583:.\protocol.c  **** 		else{
 584:.\protocol.c  **** 			return 0;
 2930              		.loc 1 584 0
 2931 055e 0023     		movs	r3, #0
 2932 0560 00E0     		b	.L195
 2933              	.L190:
 585:.\protocol.c  **** 		}
 586:.\protocol.c  **** 	}
 587:.\protocol.c  **** 	else{
 588:.\protocol.c  **** 		return 0;	
 2934              		.loc 1 588 0
 2935 0562 0023     		movs	r3, #0
 2936              	.L195:
 589:.\protocol.c  **** 	}      
 590:.\protocol.c  **** }
 2937              		.loc 1 590 0 discriminator 3
 2938 0564 1846     		mov	r0, r3
 2939 0566 2037     		adds	r7, r7, #32
 2940              		.cfi_def_cfa_offset 8
 2941 0568 BD46     		mov	sp, r7
 2942              		.cfi_def_cfa_register 13
 2943              		@ sp needed
 2944 056a 80BD     		pop	{r7, pc}
 2945              	.L199:
 2946              		.align	2
 2947              	.L198:
 2948 056c 00000000 		.word	decimalMoney
 2949              		.cfi_endproc
 2950              	.LFE61:
ARM GAS  C:\Users\Lenovo\AppData\Local\Temp\cc3dQOqg.s 			page 65


 2951              		.size	preset_data, .-preset_data
 2952              		.section	.text.get_sale,"ax",%progbits
 2953              		.align	2
 2954              		.global	get_sale
 2955              		.thumb
 2956              		.thumb_func
 2957              		.type	get_sale, %function
 2958              	get_sale:
 2959              	.LFB62:
 591:.\protocol.c  **** 
 592:.\protocol.c  **** 
 593:.\protocol.c  **** /*
 594:.\protocol.c  **** ***************************************************************************************************
 595:.\protocol.c  **** *                                         uint8 get_sale(uint8 pos)
 596:.\protocol.c  **** *
 597:.\protocol.c  **** * Description : 
 598:.\protocol.c  **** *               
 599:.\protocol.c  **** *
 600:.\protocol.c  **** * Argument(s) : none
 601:.\protocol.c  **** *
 602:.\protocol.c  **** * Return(s)   : none
 603:.\protocol.c  **** *
 604:.\protocol.c  **** * Caller(s)   : 
 605:.\protocol.c  **** *
 606:.\protocol.c  **** * Note(s)     : none.
 607:.\protocol.c  **** ***************************************************************************************************
 608:.\protocol.c  **** */
 609:.\protocol.c  **** uint8 get_sale(uint8 pos){
 2960              		.loc 1 609 0
 2961              		.cfi_startproc
 2962              		@ args = 0, pretend = 0, frame = 16
 2963              		@ frame_needed = 1, uses_anonymous_args = 0
 2964 0000 80B5     		push	{r7, lr}
 2965              		.cfi_def_cfa_offset 8
 2966              		.cfi_offset 7, -8
 2967              		.cfi_offset 14, -4
 2968 0002 84B0     		sub	sp, sp, #16
 2969              		.cfi_def_cfa_offset 24
 2970 0004 00AF     		add	r7, sp, #0
 2971              		.cfi_def_cfa_register 7
 2972 0006 0346     		mov	r3, r0
 2973 0008 FB71     		strb	r3, [r7, #7]
 610:.\protocol.c  **** 	uint8 x;
 611:.\protocol.c  **** 	Pump_AL_ClearRxBuffer();
 2974              		.loc 1 611 0
 2975 000a FFF7FEFF 		bl	Pump_AL_ClearRxBuffer
 612:.\protocol.c  **** 	Pump_AL_PutChar(0x40|pos);
 2976              		.loc 1 612 0
 2977 000e FB79     		ldrb	r3, [r7, #7]
 2978 0010 43F04003 		orr	r3, r3, #64
 2979 0014 DBB2     		uxtb	r3, r3
 2980 0016 1846     		mov	r0, r3
 2981 0018 FFF7FEFF 		bl	Pump_AL_PutChar
 613:.\protocol.c  ****     CyDelay(300);
 2982              		.loc 1 613 0
 2983 001c 4FF49670 		mov	r0, #300
 2984 0020 FFF7FEFF 		bl	CyDelay
ARM GAS  C:\Users\Lenovo\AppData\Local\Temp\cc3dQOqg.s 			page 66


 614:.\protocol.c  ****     CyWdtClear();
 2985              		.loc 1 614 0
 2986 0024 FFF7FEFF 		bl	CyWdtClear
 615:.\protocol.c  **** 	if((digits!=7)&&(Pump_AL_GetRxBufferSize()==33)){
 2987              		.loc 1 615 0
 2988 0028 A74B     		ldr	r3, .L242
 2989 002a 1B78     		ldrb	r3, [r3]
 2990 002c DBB2     		uxtb	r3, r3
 2991 002e 072B     		cmp	r3, #7
 2992 0030 00F05281 		beq	.L201
 2993              		.loc 1 615 0 is_stmt 0 discriminator 1
 2994 0034 FFF7FEFF 		bl	Pump_AL_GetRxBufferSize
 2995 0038 0346     		mov	r3, r0
 2996 003a 212B     		cmp	r3, #33
 2997 003c 40F04C81 		bne	.L201
 616:.\protocol.c  **** 		if((Pump_AL_rxBuffer[0]==0xFF)&&(Pump_AL_rxBuffer[2]==0xF8)&&(Pump_AL_rxBuffer[32]==0xF0)){
 2998              		.loc 1 616 0 is_stmt 1
 2999 0040 A24B     		ldr	r3, .L242+4
 3000 0042 1B78     		ldrb	r3, [r3]
 3001 0044 DBB2     		uxtb	r3, r3
 3002 0046 FF2B     		cmp	r3, #255
 3003 0048 40F03C81 		bne	.L202
 3004              		.loc 1 616 0 is_stmt 0 discriminator 1
 3005 004c 9F4B     		ldr	r3, .L242+4
 3006 004e 9B78     		ldrb	r3, [r3, #2]
 3007 0050 DBB2     		uxtb	r3, r3
 3008 0052 F82B     		cmp	r3, #248
 3009 0054 40F03681 		bne	.L202
 3010              		.loc 1 616 0 discriminator 2
 3011 0058 9C4B     		ldr	r3, .L242+4
 3012 005a 93F82030 		ldrb	r3, [r3, #32]
 3013 005e DBB2     		uxtb	r3, r3
 3014 0060 F02B     		cmp	r3, #240
 3015 0062 40F02F81 		bne	.L202
 617:.\protocol.c  **** 			if(pos==side.a.dir){
 3016              		.loc 1 617 0 is_stmt 1
 3017 0066 9A4B     		ldr	r3, .L242+8
 3018 0068 1B78     		ldrb	r3, [r3]	@ zero_extendqisi2
 3019 006a FA79     		ldrb	r2, [r7, #7]	@ zero_extendqisi2
 3020 006c 9A42     		cmp	r2, r3
 3021 006e 40F09480 		bne	.L203
 618:.\protocol.c  **** 				side.a.productSale=((Pump_AL_rxBuffer[9]&0x0F)+1)+0x30;
 3022              		.loc 1 618 0
 3023 0072 964B     		ldr	r3, .L242+4
 3024 0074 5B7A     		ldrb	r3, [r3, #9]
 3025 0076 DBB2     		uxtb	r3, r3
 3026 0078 03F00F03 		and	r3, r3, #15
 3027 007c DBB2     		uxtb	r3, r3
 3028 007e 3133     		adds	r3, r3, #49
 3029 0080 DAB2     		uxtb	r2, r3
 3030 0082 934B     		ldr	r3, .L242+8
 3031 0084 83F8FF20 		strb	r2, [r3, #255]
 619:.\protocol.c  **** 				for(x=1;x<=4;x++){
 3032              		.loc 1 619 0
 3033 0088 0123     		movs	r3, #1
 3034 008a FB73     		strb	r3, [r7, #15]
 3035 008c 14E0     		b	.L204
ARM GAS  C:\Users\Lenovo\AppData\Local\Temp\cc3dQOqg.s 			page 67


 3036              	.L205:
 620:.\protocol.c  **** 					side.a.ppuSale[5-x]=((Pump_AL_rxBuffer[x+11]&0x0F)+0x30);
 3037              		.loc 1 620 0 discriminator 3
 3038 008e FB7B     		ldrb	r3, [r7, #15]	@ zero_extendqisi2
 3039 0090 C3F10503 		rsb	r3, r3, #5
 3040 0094 FA7B     		ldrb	r2, [r7, #15]	@ zero_extendqisi2
 3041 0096 0B32     		adds	r2, r2, #11
 3042 0098 8C49     		ldr	r1, .L242+4
 3043 009a 8A5C     		ldrb	r2, [r1, r2]
 3044 009c D2B2     		uxtb	r2, r2
 3045 009e 02F00F02 		and	r2, r2, #15
 3046 00a2 D2B2     		uxtb	r2, r2
 3047 00a4 3032     		adds	r2, r2, #48
 3048 00a6 D1B2     		uxtb	r1, r2
 3049 00a8 894A     		ldr	r2, .L242+8
 3050 00aa 1344     		add	r3, r3, r2
 3051 00ac 0A46     		mov	r2, r1
 3052 00ae 83F8F120 		strb	r2, [r3, #241]
 619:.\protocol.c  **** 				for(x=1;x<=4;x++){
 3053              		.loc 1 619 0 discriminator 3
 3054 00b2 FB7B     		ldrb	r3, [r7, #15]	@ zero_extendqisi2
 3055 00b4 0133     		adds	r3, r3, #1
 3056 00b6 FB73     		strb	r3, [r7, #15]
 3057              	.L204:
 619:.\protocol.c  **** 				for(x=1;x<=4;x++){
 3058              		.loc 1 619 0 is_stmt 0 discriminator 1
 3059 00b8 FB7B     		ldrb	r3, [r7, #15]	@ zero_extendqisi2
 3060 00ba 042B     		cmp	r3, #4
 3061 00bc E7D9     		bls	.L205
 621:.\protocol.c  **** 				}
 622:.\protocol.c  ****                 side.a.ppuSale[0]=4;
 3062              		.loc 1 622 0 is_stmt 1
 3063 00be 844B     		ldr	r3, .L242+8
 3064 00c0 0422     		movs	r2, #4
 3065 00c2 83F8F120 		strb	r2, [r3, #241]
 623:.\protocol.c  ****                 if(ppux10==1){
 3066              		.loc 1 623 0
 3067 00c6 834B     		ldr	r3, .L242+12
 3068 00c8 1B78     		ldrb	r3, [r3]
 3069 00ca DBB2     		uxtb	r3, r3
 3070 00cc 012B     		cmp	r3, #1
 3071 00ce 07D1     		bne	.L206
 624:.\protocol.c  ****                     side.a.ppuSale[0]=5;
 3072              		.loc 1 624 0
 3073 00d0 7F4B     		ldr	r3, .L242+8
 3074 00d2 0522     		movs	r2, #5
 3075 00d4 83F8F120 		strb	r2, [r3, #241]
 625:.\protocol.c  ****                     side.a.ppuSale[5]='0';
 3076              		.loc 1 625 0
 3077 00d8 7D4B     		ldr	r3, .L242+8
 3078 00da 3022     		movs	r2, #48
 3079 00dc 83F8F620 		strb	r2, [r3, #246]
 3080              	.L206:
 626:.\protocol.c  ****                 }
 627:.\protocol.c  **** 				for(x=1;x<=6;x++){
 3081              		.loc 1 627 0
 3082 00e0 0123     		movs	r3, #1
ARM GAS  C:\Users\Lenovo\AppData\Local\Temp\cc3dQOqg.s 			page 68


 3083 00e2 FB73     		strb	r3, [r7, #15]
 3084 00e4 14E0     		b	.L207
 3085              	.L208:
 628:.\protocol.c  **** 					side.a.volumeSale[7-x]=((Pump_AL_rxBuffer[x+16]&0x0F)+0x30);
 3086              		.loc 1 628 0 discriminator 3
 3087 00e6 FB7B     		ldrb	r3, [r7, #15]	@ zero_extendqisi2
 3088 00e8 C3F10703 		rsb	r3, r3, #7
 3089 00ec FA7B     		ldrb	r2, [r7, #15]	@ zero_extendqisi2
 3090 00ee 1032     		adds	r2, r2, #16
 3091 00f0 7649     		ldr	r1, .L242+4
 3092 00f2 8A5C     		ldrb	r2, [r1, r2]
 3093 00f4 D2B2     		uxtb	r2, r2
 3094 00f6 02F00F02 		and	r2, r2, #15
 3095 00fa D2B2     		uxtb	r2, r2
 3096 00fc 3032     		adds	r2, r2, #48
 3097 00fe D1B2     		uxtb	r1, r2
 3098 0100 734A     		ldr	r2, .L242+8
 3099 0102 1344     		add	r3, r3, r2
 3100 0104 0A46     		mov	r2, r1
 3101 0106 83F8E320 		strb	r2, [r3, #227]
 627:.\protocol.c  **** 					side.a.volumeSale[7-x]=((Pump_AL_rxBuffer[x+16]&0x0F)+0x30);
 3102              		.loc 1 627 0 discriminator 3
 3103 010a FB7B     		ldrb	r3, [r7, #15]	@ zero_extendqisi2
 3104 010c 0133     		adds	r3, r3, #1
 3105 010e FB73     		strb	r3, [r7, #15]
 3106              	.L207:
 627:.\protocol.c  **** 					side.a.volumeSale[7-x]=((Pump_AL_rxBuffer[x+16]&0x0F)+0x30);
 3107              		.loc 1 627 0 is_stmt 0 discriminator 1
 3108 0110 FB7B     		ldrb	r3, [r7, #15]	@ zero_extendqisi2
 3109 0112 062B     		cmp	r3, #6
 3110 0114 E7D9     		bls	.L208
 629:.\protocol.c  **** 				}		
 630:.\protocol.c  ****                 side.a.volumeSale[0]=6;
 3111              		.loc 1 630 0 is_stmt 1
 3112 0116 6E4B     		ldr	r3, .L242+8
 3113 0118 0622     		movs	r2, #6
 3114 011a 83F8E320 		strb	r2, [r3, #227]
 631:.\protocol.c  **** 				for(x=1;x<=6;x++){
 3115              		.loc 1 631 0
 3116 011e 0123     		movs	r3, #1
 3117 0120 FB73     		strb	r3, [r7, #15]
 3118 0122 14E0     		b	.L209
 3119              	.L210:
 632:.\protocol.c  **** 					side.a.moneySale[7-x]=((Pump_AL_rxBuffer[x+23]&0x0F)+0x30);
 3120              		.loc 1 632 0 discriminator 3
 3121 0124 FB7B     		ldrb	r3, [r7, #15]	@ zero_extendqisi2
 3122 0126 C3F10703 		rsb	r3, r3, #7
 3123 012a FA7B     		ldrb	r2, [r7, #15]	@ zero_extendqisi2
 3124 012c 1732     		adds	r2, r2, #23
 3125 012e 6749     		ldr	r1, .L242+4
 3126 0130 8A5C     		ldrb	r2, [r1, r2]
 3127 0132 D2B2     		uxtb	r2, r2
 3128 0134 02F00F02 		and	r2, r2, #15
 3129 0138 D2B2     		uxtb	r2, r2
 3130 013a 3032     		adds	r2, r2, #48
 3131 013c D1B2     		uxtb	r1, r2
 3132 013e 644A     		ldr	r2, .L242+8
ARM GAS  C:\Users\Lenovo\AppData\Local\Temp\cc3dQOqg.s 			page 69


 3133 0140 1344     		add	r3, r3, r2
 3134 0142 0A46     		mov	r2, r1
 3135 0144 83F8D520 		strb	r2, [r3, #213]
 631:.\protocol.c  **** 				for(x=1;x<=6;x++){
 3136              		.loc 1 631 0 discriminator 3
 3137 0148 FB7B     		ldrb	r3, [r7, #15]	@ zero_extendqisi2
 3138 014a 0133     		adds	r3, r3, #1
 3139 014c FB73     		strb	r3, [r7, #15]
 3140              	.L209:
 631:.\protocol.c  **** 				for(x=1;x<=6;x++){
 3141              		.loc 1 631 0 is_stmt 0 discriminator 1
 3142 014e FB7B     		ldrb	r3, [r7, #15]	@ zero_extendqisi2
 3143 0150 062B     		cmp	r3, #6
 3144 0152 E7D9     		bls	.L210
 633:.\protocol.c  **** 				}
 634:.\protocol.c  ****                 if(digits==5){
 3145              		.loc 1 634 0 is_stmt 1
 3146 0154 5C4B     		ldr	r3, .L242
 3147 0156 1B78     		ldrb	r3, [r3]
 3148 0158 DBB2     		uxtb	r3, r3
 3149 015a 052B     		cmp	r3, #5
 3150 015c 18D1     		bne	.L211
 635:.\protocol.c  ****                     for(x=6;x>1;x--){
 3151              		.loc 1 635 0
 3152 015e 0623     		movs	r3, #6
 3153 0160 FB73     		strb	r3, [r7, #15]
 3154 0162 0EE0     		b	.L212
 3155              	.L213:
 636:.\protocol.c  ****                         side.a.moneySale[x]=side.a.moneySale[x-1];
 3156              		.loc 1 636 0 discriminator 3
 3157 0164 FB7B     		ldrb	r3, [r7, #15]	@ zero_extendqisi2
 3158 0166 FA7B     		ldrb	r2, [r7, #15]	@ zero_extendqisi2
 3159 0168 013A     		subs	r2, r2, #1
 3160 016a 5949     		ldr	r1, .L242+8
 3161 016c 0A44     		add	r2, r2, r1
 3162 016e 92F8D510 		ldrb	r1, [r2, #213]	@ zero_extendqisi2
 3163 0172 574A     		ldr	r2, .L242+8
 3164 0174 1344     		add	r3, r3, r2
 3165 0176 0A46     		mov	r2, r1
 3166 0178 83F8D520 		strb	r2, [r3, #213]
 635:.\protocol.c  ****                     for(x=6;x>1;x--){
 3167              		.loc 1 635 0 discriminator 3
 3168 017c FB7B     		ldrb	r3, [r7, #15]	@ zero_extendqisi2
 3169 017e 013B     		subs	r3, r3, #1
 3170 0180 FB73     		strb	r3, [r7, #15]
 3171              	.L212:
 635:.\protocol.c  ****                     for(x=6;x>1;x--){
 3172              		.loc 1 635 0 is_stmt 0 discriminator 1
 3173 0182 FB7B     		ldrb	r3, [r7, #15]	@ zero_extendqisi2
 3174 0184 012B     		cmp	r3, #1
 3175 0186 EDD8     		bhi	.L213
 637:.\protocol.c  ****                     }
 638:.\protocol.c  ****                     side.a.moneySale[1]='0';
 3176              		.loc 1 638 0 is_stmt 1
 3177 0188 514B     		ldr	r3, .L242+8
 3178 018a 3022     		movs	r2, #48
 3179 018c 83F8D620 		strb	r2, [r3, #214]
ARM GAS  C:\Users\Lenovo\AppData\Local\Temp\cc3dQOqg.s 			page 70


 3180              	.L211:
 639:.\protocol.c  ****                 }
 640:.\protocol.c  ****                 side.a.moneySale[0]=6;
 3181              		.loc 1 640 0
 3182 0190 4F4B     		ldr	r3, .L242+8
 3183 0192 0622     		movs	r2, #6
 3184 0194 83F8D520 		strb	r2, [r3, #213]
 3185 0198 92E0     		b	.L214
 3186              	.L203:
 641:.\protocol.c  **** 			}
 642:.\protocol.c  **** 			else{
 643:.\protocol.c  **** 				side.b.productSale=((Pump_AL_rxBuffer[9]&0x0F)+1)+0x30;
 3187              		.loc 1 643 0
 3188 019a 4C4B     		ldr	r3, .L242+4
 3189 019c 5B7A     		ldrb	r3, [r3, #9]
 3190 019e DBB2     		uxtb	r3, r3
 3191 01a0 03F00F03 		and	r3, r3, #15
 3192 01a4 DBB2     		uxtb	r3, r3
 3193 01a6 3133     		adds	r3, r3, #49
 3194 01a8 DAB2     		uxtb	r2, r3
 3195 01aa 494B     		ldr	r3, .L242+8
 3196 01ac 83F8FF21 		strb	r2, [r3, #511]
 644:.\protocol.c  **** 				for(x=1;x<=4;x++){
 3197              		.loc 1 644 0
 3198 01b0 0123     		movs	r3, #1
 3199 01b2 FB73     		strb	r3, [r7, #15]
 3200 01b4 14E0     		b	.L215
 3201              	.L216:
 645:.\protocol.c  **** 					side.b.ppuSale[5-x]=((Pump_AL_rxBuffer[x+11]&0x0F)+0x30);
 3202              		.loc 1 645 0 discriminator 3
 3203 01b6 FB7B     		ldrb	r3, [r7, #15]	@ zero_extendqisi2
 3204 01b8 C3F10503 		rsb	r3, r3, #5
 3205 01bc FA7B     		ldrb	r2, [r7, #15]	@ zero_extendqisi2
 3206 01be 0B32     		adds	r2, r2, #11
 3207 01c0 4249     		ldr	r1, .L242+4
 3208 01c2 8A5C     		ldrb	r2, [r1, r2]
 3209 01c4 D2B2     		uxtb	r2, r2
 3210 01c6 02F00F02 		and	r2, r2, #15
 3211 01ca D2B2     		uxtb	r2, r2
 3212 01cc 3032     		adds	r2, r2, #48
 3213 01ce D1B2     		uxtb	r1, r2
 3214 01d0 3F4A     		ldr	r2, .L242+8
 3215 01d2 1344     		add	r3, r3, r2
 3216 01d4 0A46     		mov	r2, r1
 3217 01d6 83F8F121 		strb	r2, [r3, #497]
 644:.\protocol.c  **** 				for(x=1;x<=4;x++){
 3218              		.loc 1 644 0 discriminator 3
 3219 01da FB7B     		ldrb	r3, [r7, #15]	@ zero_extendqisi2
 3220 01dc 0133     		adds	r3, r3, #1
 3221 01de FB73     		strb	r3, [r7, #15]
 3222              	.L215:
 644:.\protocol.c  **** 				for(x=1;x<=4;x++){
 3223              		.loc 1 644 0 is_stmt 0 discriminator 1
 3224 01e0 FB7B     		ldrb	r3, [r7, #15]	@ zero_extendqisi2
 3225 01e2 042B     		cmp	r3, #4
 3226 01e4 E7D9     		bls	.L216
 646:.\protocol.c  **** 				}
ARM GAS  C:\Users\Lenovo\AppData\Local\Temp\cc3dQOqg.s 			page 71


 647:.\protocol.c  ****                 side.b.ppuSale[0]=4;
 3227              		.loc 1 647 0 is_stmt 1
 3228 01e6 3A4B     		ldr	r3, .L242+8
 3229 01e8 0422     		movs	r2, #4
 3230 01ea 83F8F121 		strb	r2, [r3, #497]
 648:.\protocol.c  ****                 if(ppux10==1){
 3231              		.loc 1 648 0
 3232 01ee 394B     		ldr	r3, .L242+12
 3233 01f0 1B78     		ldrb	r3, [r3]
 3234 01f2 DBB2     		uxtb	r3, r3
 3235 01f4 012B     		cmp	r3, #1
 3236 01f6 07D1     		bne	.L217
 649:.\protocol.c  ****                     side.b.ppuSale[0]=5;
 3237              		.loc 1 649 0
 3238 01f8 354B     		ldr	r3, .L242+8
 3239 01fa 0522     		movs	r2, #5
 3240 01fc 83F8F121 		strb	r2, [r3, #497]
 650:.\protocol.c  ****                     side.b.ppuSale[5]='0';
 3241              		.loc 1 650 0
 3242 0200 334B     		ldr	r3, .L242+8
 3243 0202 3022     		movs	r2, #48
 3244 0204 83F8F621 		strb	r2, [r3, #502]
 3245              	.L217:
 651:.\protocol.c  ****                 }
 652:.\protocol.c  **** 				for(x=1;x<=6;x++){
 3246              		.loc 1 652 0
 3247 0208 0123     		movs	r3, #1
 3248 020a FB73     		strb	r3, [r7, #15]
 3249 020c 14E0     		b	.L218
 3250              	.L219:
 653:.\protocol.c  **** 					side.b.volumeSale[7-x]=((Pump_AL_rxBuffer[x+16]&0x0F)+0x30);
 3251              		.loc 1 653 0 discriminator 3
 3252 020e FB7B     		ldrb	r3, [r7, #15]	@ zero_extendqisi2
 3253 0210 C3F10703 		rsb	r3, r3, #7
 3254 0214 FA7B     		ldrb	r2, [r7, #15]	@ zero_extendqisi2
 3255 0216 1032     		adds	r2, r2, #16
 3256 0218 2C49     		ldr	r1, .L242+4
 3257 021a 8A5C     		ldrb	r2, [r1, r2]
 3258 021c D2B2     		uxtb	r2, r2
 3259 021e 02F00F02 		and	r2, r2, #15
 3260 0222 D2B2     		uxtb	r2, r2
 3261 0224 3032     		adds	r2, r2, #48
 3262 0226 D1B2     		uxtb	r1, r2
 3263 0228 294A     		ldr	r2, .L242+8
 3264 022a 1344     		add	r3, r3, r2
 3265 022c 0A46     		mov	r2, r1
 3266 022e 83F8E321 		strb	r2, [r3, #483]
 652:.\protocol.c  **** 					side.b.volumeSale[7-x]=((Pump_AL_rxBuffer[x+16]&0x0F)+0x30);
 3267              		.loc 1 652 0 discriminator 3
 3268 0232 FB7B     		ldrb	r3, [r7, #15]	@ zero_extendqisi2
 3269 0234 0133     		adds	r3, r3, #1
 3270 0236 FB73     		strb	r3, [r7, #15]
 3271              	.L218:
 652:.\protocol.c  **** 					side.b.volumeSale[7-x]=((Pump_AL_rxBuffer[x+16]&0x0F)+0x30);
 3272              		.loc 1 652 0 is_stmt 0 discriminator 1
 3273 0238 FB7B     		ldrb	r3, [r7, #15]	@ zero_extendqisi2
 3274 023a 062B     		cmp	r3, #6
ARM GAS  C:\Users\Lenovo\AppData\Local\Temp\cc3dQOqg.s 			page 72


 3275 023c E7D9     		bls	.L219
 654:.\protocol.c  **** 				}
 655:.\protocol.c  ****                 side.b.volumeSale[0]=6;
 3276              		.loc 1 655 0 is_stmt 1
 3277 023e 244B     		ldr	r3, .L242+8
 3278 0240 0622     		movs	r2, #6
 3279 0242 83F8E321 		strb	r2, [r3, #483]
 656:.\protocol.c  **** 				for(x=1;x<=6;x++){
 3280              		.loc 1 656 0
 3281 0246 0123     		movs	r3, #1
 3282 0248 FB73     		strb	r3, [r7, #15]
 3283 024a 14E0     		b	.L220
 3284              	.L221:
 657:.\protocol.c  **** 					side.b.moneySale[7-x]=((Pump_AL_rxBuffer[x+23]&0x0F)+0x30);
 3285              		.loc 1 657 0 discriminator 3
 3286 024c FB7B     		ldrb	r3, [r7, #15]	@ zero_extendqisi2
 3287 024e C3F10703 		rsb	r3, r3, #7
 3288 0252 FA7B     		ldrb	r2, [r7, #15]	@ zero_extendqisi2
 3289 0254 1732     		adds	r2, r2, #23
 3290 0256 1D49     		ldr	r1, .L242+4
 3291 0258 8A5C     		ldrb	r2, [r1, r2]
 3292 025a D2B2     		uxtb	r2, r2
 3293 025c 02F00F02 		and	r2, r2, #15
 3294 0260 D2B2     		uxtb	r2, r2
 3295 0262 3032     		adds	r2, r2, #48
 3296 0264 D1B2     		uxtb	r1, r2
 3297 0266 1A4A     		ldr	r2, .L242+8
 3298 0268 1344     		add	r3, r3, r2
 3299 026a 0A46     		mov	r2, r1
 3300 026c 83F8D521 		strb	r2, [r3, #469]
 656:.\protocol.c  **** 				for(x=1;x<=6;x++){
 3301              		.loc 1 656 0 discriminator 3
 3302 0270 FB7B     		ldrb	r3, [r7, #15]	@ zero_extendqisi2
 3303 0272 0133     		adds	r3, r3, #1
 3304 0274 FB73     		strb	r3, [r7, #15]
 3305              	.L220:
 656:.\protocol.c  **** 				for(x=1;x<=6;x++){
 3306              		.loc 1 656 0 is_stmt 0 discriminator 1
 3307 0276 FB7B     		ldrb	r3, [r7, #15]	@ zero_extendqisi2
 3308 0278 062B     		cmp	r3, #6
 3309 027a E7D9     		bls	.L221
 658:.\protocol.c  **** 				}	
 659:.\protocol.c  ****                 if(digits==5){
 3310              		.loc 1 659 0 is_stmt 1
 3311 027c 124B     		ldr	r3, .L242
 3312 027e 1B78     		ldrb	r3, [r3]
 3313 0280 DBB2     		uxtb	r3, r3
 3314 0282 052B     		cmp	r3, #5
 3315 0284 18D1     		bne	.L222
 660:.\protocol.c  ****                     for(x=6;x>1;x--){
 3316              		.loc 1 660 0
 3317 0286 0623     		movs	r3, #6
 3318 0288 FB73     		strb	r3, [r7, #15]
 3319 028a 0EE0     		b	.L223
 3320              	.L224:
 661:.\protocol.c  ****                         side.b.moneySale[x]=side.b.moneySale[x-1];
 3321              		.loc 1 661 0 discriminator 3
ARM GAS  C:\Users\Lenovo\AppData\Local\Temp\cc3dQOqg.s 			page 73


 3322 028c FB7B     		ldrb	r3, [r7, #15]	@ zero_extendqisi2
 3323 028e FA7B     		ldrb	r2, [r7, #15]	@ zero_extendqisi2
 3324 0290 013A     		subs	r2, r2, #1
 3325 0292 0F49     		ldr	r1, .L242+8
 3326 0294 0A44     		add	r2, r2, r1
 3327 0296 92F8D511 		ldrb	r1, [r2, #469]	@ zero_extendqisi2
 3328 029a 0D4A     		ldr	r2, .L242+8
 3329 029c 1344     		add	r3, r3, r2
 3330 029e 0A46     		mov	r2, r1
 3331 02a0 83F8D521 		strb	r2, [r3, #469]
 660:.\protocol.c  ****                     for(x=6;x>1;x--){
 3332              		.loc 1 660 0 discriminator 3
 3333 02a4 FB7B     		ldrb	r3, [r7, #15]	@ zero_extendqisi2
 3334 02a6 013B     		subs	r3, r3, #1
 3335 02a8 FB73     		strb	r3, [r7, #15]
 3336              	.L223:
 660:.\protocol.c  ****                     for(x=6;x>1;x--){
 3337              		.loc 1 660 0 is_stmt 0 discriminator 1
 3338 02aa FB7B     		ldrb	r3, [r7, #15]	@ zero_extendqisi2
 3339 02ac 012B     		cmp	r3, #1
 3340 02ae EDD8     		bhi	.L224
 662:.\protocol.c  ****                     }
 663:.\protocol.c  ****                     side.b.moneySale[1]='0';
 3341              		.loc 1 663 0 is_stmt 1
 3342 02b0 074B     		ldr	r3, .L242+8
 3343 02b2 3022     		movs	r2, #48
 3344 02b4 83F8D621 		strb	r2, [r3, #470]
 3345              	.L222:
 664:.\protocol.c  ****                 }
 665:.\protocol.c  ****                 side.b.moneySale[0]=6;
 3346              		.loc 1 665 0
 3347 02b8 054B     		ldr	r3, .L242+8
 3348 02ba 0622     		movs	r2, #6
 3349 02bc 83F8D521 		strb	r2, [r3, #469]
 3350              	.L214:
 666:.\protocol.c  **** 			}
 667:.\protocol.c  **** 			return 1;
 3351              		.loc 1 667 0
 3352 02c0 0123     		movs	r3, #1
 3353 02c2 0BE1     		b	.L225
 3354              	.L202:
 668:.\protocol.c  **** 		}
 669:.\protocol.c  **** 		else{
 670:.\protocol.c  **** 			return 0;
 3355              		.loc 1 670 0
 3356 02c4 0023     		movs	r3, #0
 3357 02c6 09E1     		b	.L225
 3358              	.L243:
 3359              		.align	2
 3360              	.L242:
 3361 02c8 00000000 		.word	digits
 3362 02cc 00000000 		.word	Pump_AL_rxBuffer
 3363 02d0 00000000 		.word	side
 3364 02d4 00000000 		.word	ppux10
 3365              	.L201:
 671:.\protocol.c  **** 		}
 672:.\protocol.c  **** 	}
ARM GAS  C:\Users\Lenovo\AppData\Local\Temp\cc3dQOqg.s 			page 74


 673:.\protocol.c  **** 	else if((digits==7)&&(Pump_AL_GetRxBufferSize()==39)){
 3366              		.loc 1 673 0
 3367 02d8 824B     		ldr	r3, .L244
 3368 02da 1B78     		ldrb	r3, [r3]
 3369 02dc DBB2     		uxtb	r3, r3
 3370 02de 072B     		cmp	r3, #7
 3371 02e0 40F0FB80 		bne	.L226
 3372              		.loc 1 673 0 is_stmt 0 discriminator 1
 3373 02e4 FFF7FEFF 		bl	Pump_AL_GetRxBufferSize
 3374 02e8 0346     		mov	r3, r0
 3375 02ea 272B     		cmp	r3, #39
 3376 02ec 40F0F580 		bne	.L226
 674:.\protocol.c  **** 		if((Pump_AL_rxBuffer[0]==0xFF)&&(Pump_AL_rxBuffer[2]==0xF8)&&(Pump_AL_rxBuffer[38]==0xF0)){
 3377              		.loc 1 674 0 is_stmt 1
 3378 02f0 7D4B     		ldr	r3, .L244+4
 3379 02f2 1B78     		ldrb	r3, [r3]
 3380 02f4 DBB2     		uxtb	r3, r3
 3381 02f6 FF2B     		cmp	r3, #255
 3382 02f8 40F0ED80 		bne	.L227
 3383              		.loc 1 674 0 is_stmt 0 discriminator 1
 3384 02fc 7A4B     		ldr	r3, .L244+4
 3385 02fe 9B78     		ldrb	r3, [r3, #2]
 3386 0300 DBB2     		uxtb	r3, r3
 3387 0302 F82B     		cmp	r3, #248
 3388 0304 40F0E780 		bne	.L227
 3389              		.loc 1 674 0 discriminator 2
 3390 0308 774B     		ldr	r3, .L244+4
 3391 030a 93F82630 		ldrb	r3, [r3, #38]
 3392 030e DBB2     		uxtb	r3, r3
 3393 0310 F02B     		cmp	r3, #240
 3394 0312 40F0E080 		bne	.L227
 675:.\protocol.c  **** 			if(pos==side.a.dir){
 3395              		.loc 1 675 0 is_stmt 1
 3396 0316 754B     		ldr	r3, .L244+8
 3397 0318 1B78     		ldrb	r3, [r3]	@ zero_extendqisi2
 3398 031a FA79     		ldrb	r2, [r7, #7]	@ zero_extendqisi2
 3399 031c 9A42     		cmp	r2, r3
 3400 031e 6CD1     		bne	.L228
 676:.\protocol.c  **** 				side.a.productSale=((Pump_AL_rxBuffer[9]&0x0F)+1)+0x30;
 3401              		.loc 1 676 0
 3402 0320 714B     		ldr	r3, .L244+4
 3403 0322 5B7A     		ldrb	r3, [r3, #9]
 3404 0324 DBB2     		uxtb	r3, r3
 3405 0326 03F00F03 		and	r3, r3, #15
 3406 032a DBB2     		uxtb	r3, r3
 3407 032c 3133     		adds	r3, r3, #49
 3408 032e DAB2     		uxtb	r2, r3
 3409 0330 6E4B     		ldr	r3, .L244+8
 3410 0332 83F8FF20 		strb	r2, [r3, #255]
 677:.\protocol.c  **** 				for(x=1;x<=6;x++){
 3411              		.loc 1 677 0
 3412 0336 0123     		movs	r3, #1
 3413 0338 FB73     		strb	r3, [r7, #15]
 3414 033a 14E0     		b	.L229
 3415              	.L230:
 678:.\protocol.c  **** 					side.a.ppuSale[7-x]=((Pump_AL_rxBuffer[x+11]&0x0F)+0x30);
 3416              		.loc 1 678 0 discriminator 3
ARM GAS  C:\Users\Lenovo\AppData\Local\Temp\cc3dQOqg.s 			page 75


 3417 033c FB7B     		ldrb	r3, [r7, #15]	@ zero_extendqisi2
 3418 033e C3F10703 		rsb	r3, r3, #7
 3419 0342 FA7B     		ldrb	r2, [r7, #15]	@ zero_extendqisi2
 3420 0344 0B32     		adds	r2, r2, #11
 3421 0346 6849     		ldr	r1, .L244+4
 3422 0348 8A5C     		ldrb	r2, [r1, r2]
 3423 034a D2B2     		uxtb	r2, r2
 3424 034c 02F00F02 		and	r2, r2, #15
 3425 0350 D2B2     		uxtb	r2, r2
 3426 0352 3032     		adds	r2, r2, #48
 3427 0354 D1B2     		uxtb	r1, r2
 3428 0356 654A     		ldr	r2, .L244+8
 3429 0358 1344     		add	r3, r3, r2
 3430 035a 0A46     		mov	r2, r1
 3431 035c 83F8F120 		strb	r2, [r3, #241]
 677:.\protocol.c  **** 				for(x=1;x<=6;x++){
 3432              		.loc 1 677 0 discriminator 3
 3433 0360 FB7B     		ldrb	r3, [r7, #15]	@ zero_extendqisi2
 3434 0362 0133     		adds	r3, r3, #1
 3435 0364 FB73     		strb	r3, [r7, #15]
 3436              	.L229:
 677:.\protocol.c  **** 				for(x=1;x<=6;x++){
 3437              		.loc 1 677 0 is_stmt 0 discriminator 1
 3438 0366 FB7B     		ldrb	r3, [r7, #15]	@ zero_extendqisi2
 3439 0368 062B     		cmp	r3, #6
 3440 036a E7D9     		bls	.L230
 679:.\protocol.c  **** 				}
 680:.\protocol.c  ****                 side.a.ppuSale[0]=6;
 3441              		.loc 1 680 0 is_stmt 1
 3442 036c 5F4B     		ldr	r3, .L244+8
 3443 036e 0622     		movs	r2, #6
 3444 0370 83F8F120 		strb	r2, [r3, #241]
 681:.\protocol.c  **** 				for(x=1;x<=8;x++){
 3445              		.loc 1 681 0
 3446 0374 0123     		movs	r3, #1
 3447 0376 FB73     		strb	r3, [r7, #15]
 3448 0378 14E0     		b	.L231
 3449              	.L232:
 682:.\protocol.c  **** 					side.a.volumeSale[9-x]=((Pump_AL_rxBuffer[x+18]&0x0F)+0x30);
 3450              		.loc 1 682 0 discriminator 3
 3451 037a FB7B     		ldrb	r3, [r7, #15]	@ zero_extendqisi2
 3452 037c C3F10903 		rsb	r3, r3, #9
 3453 0380 FA7B     		ldrb	r2, [r7, #15]	@ zero_extendqisi2
 3454 0382 1232     		adds	r2, r2, #18
 3455 0384 5849     		ldr	r1, .L244+4
 3456 0386 8A5C     		ldrb	r2, [r1, r2]
 3457 0388 D2B2     		uxtb	r2, r2
 3458 038a 02F00F02 		and	r2, r2, #15
 3459 038e D2B2     		uxtb	r2, r2
 3460 0390 3032     		adds	r2, r2, #48
 3461 0392 D1B2     		uxtb	r1, r2
 3462 0394 554A     		ldr	r2, .L244+8
 3463 0396 1344     		add	r3, r3, r2
 3464 0398 0A46     		mov	r2, r1
 3465 039a 83F8E320 		strb	r2, [r3, #227]
 681:.\protocol.c  **** 				for(x=1;x<=8;x++){
 3466              		.loc 1 681 0 discriminator 3
ARM GAS  C:\Users\Lenovo\AppData\Local\Temp\cc3dQOqg.s 			page 76


 3467 039e FB7B     		ldrb	r3, [r7, #15]	@ zero_extendqisi2
 3468 03a0 0133     		adds	r3, r3, #1
 3469 03a2 FB73     		strb	r3, [r7, #15]
 3470              	.L231:
 681:.\protocol.c  **** 				for(x=1;x<=8;x++){
 3471              		.loc 1 681 0 is_stmt 0 discriminator 1
 3472 03a4 FB7B     		ldrb	r3, [r7, #15]	@ zero_extendqisi2
 3473 03a6 082B     		cmp	r3, #8
 3474 03a8 E7D9     		bls	.L232
 683:.\protocol.c  **** 				}		
 684:.\protocol.c  ****                 side.a.volumeSale[0]=8;
 3475              		.loc 1 684 0 is_stmt 1
 3476 03aa 504B     		ldr	r3, .L244+8
 3477 03ac 0822     		movs	r2, #8
 3478 03ae 83F8E320 		strb	r2, [r3, #227]
 685:.\protocol.c  **** 				for(x=1;x<=7;x++){
 3479              		.loc 1 685 0
 3480 03b2 0123     		movs	r3, #1
 3481 03b4 FB73     		strb	r3, [r7, #15]
 3482 03b6 14E0     		b	.L233
 3483              	.L234:
 686:.\protocol.c  **** 					side.a.moneySale[9-x]=((Pump_AL_rxBuffer[x+28]&0x0F)+0x30);
 3484              		.loc 1 686 0 discriminator 3
 3485 03b8 FB7B     		ldrb	r3, [r7, #15]	@ zero_extendqisi2
 3486 03ba C3F10903 		rsb	r3, r3, #9
 3487 03be FA7B     		ldrb	r2, [r7, #15]	@ zero_extendqisi2
 3488 03c0 1C32     		adds	r2, r2, #28
 3489 03c2 4949     		ldr	r1, .L244+4
 3490 03c4 8A5C     		ldrb	r2, [r1, r2]
 3491 03c6 D2B2     		uxtb	r2, r2
 3492 03c8 02F00F02 		and	r2, r2, #15
 3493 03cc D2B2     		uxtb	r2, r2
 3494 03ce 3032     		adds	r2, r2, #48
 3495 03d0 D1B2     		uxtb	r1, r2
 3496 03d2 464A     		ldr	r2, .L244+8
 3497 03d4 1344     		add	r3, r3, r2
 3498 03d6 0A46     		mov	r2, r1
 3499 03d8 83F8D520 		strb	r2, [r3, #213]
 685:.\protocol.c  **** 				for(x=1;x<=7;x++){
 3500              		.loc 1 685 0 discriminator 3
 3501 03dc FB7B     		ldrb	r3, [r7, #15]	@ zero_extendqisi2
 3502 03de 0133     		adds	r3, r3, #1
 3503 03e0 FB73     		strb	r3, [r7, #15]
 3504              	.L233:
 685:.\protocol.c  **** 				for(x=1;x<=7;x++){
 3505              		.loc 1 685 0 is_stmt 0 discriminator 1
 3506 03e2 FB7B     		ldrb	r3, [r7, #15]	@ zero_extendqisi2
 3507 03e4 072B     		cmp	r3, #7
 3508 03e6 E7D9     		bls	.L234
 687:.\protocol.c  **** 				}
 688:.\protocol.c  ****                 side.a.moneySale[1]='0';
 3509              		.loc 1 688 0 is_stmt 1
 3510 03e8 404B     		ldr	r3, .L244+8
 3511 03ea 3022     		movs	r2, #48
 3512 03ec 83F8D620 		strb	r2, [r3, #214]
 689:.\protocol.c  ****                 side.a.moneySale[0]=8;
 3513              		.loc 1 689 0
ARM GAS  C:\Users\Lenovo\AppData\Local\Temp\cc3dQOqg.s 			page 77


 3514 03f0 3E4B     		ldr	r3, .L244+8
 3515 03f2 0822     		movs	r2, #8
 3516 03f4 83F8D520 		strb	r2, [r3, #213]
 3517 03f8 6BE0     		b	.L235
 3518              	.L228:
 690:.\protocol.c  **** 			}
 691:.\protocol.c  **** 			else{
 692:.\protocol.c  **** 				side.b.productSale=((Pump_AL_rxBuffer[9]&0x0F)+1)+0x30;
 3519              		.loc 1 692 0
 3520 03fa 3B4B     		ldr	r3, .L244+4
 3521 03fc 5B7A     		ldrb	r3, [r3, #9]
 3522 03fe DBB2     		uxtb	r3, r3
 3523 0400 03F00F03 		and	r3, r3, #15
 3524 0404 DBB2     		uxtb	r3, r3
 3525 0406 3133     		adds	r3, r3, #49
 3526 0408 DAB2     		uxtb	r2, r3
 3527 040a 384B     		ldr	r3, .L244+8
 3528 040c 83F8FF21 		strb	r2, [r3, #511]
 693:.\protocol.c  **** 				for(x=1;x<=6;x++){
 3529              		.loc 1 693 0
 3530 0410 0123     		movs	r3, #1
 3531 0412 FB73     		strb	r3, [r7, #15]
 3532 0414 14E0     		b	.L236
 3533              	.L237:
 694:.\protocol.c  **** 					side.b.ppuSale[7-x]=((Pump_AL_rxBuffer[x+11]&0x0F)+0x30);
 3534              		.loc 1 694 0 discriminator 3
 3535 0416 FB7B     		ldrb	r3, [r7, #15]	@ zero_extendqisi2
 3536 0418 C3F10703 		rsb	r3, r3, #7
 3537 041c FA7B     		ldrb	r2, [r7, #15]	@ zero_extendqisi2
 3538 041e 0B32     		adds	r2, r2, #11
 3539 0420 3149     		ldr	r1, .L244+4
 3540 0422 8A5C     		ldrb	r2, [r1, r2]
 3541 0424 D2B2     		uxtb	r2, r2
 3542 0426 02F00F02 		and	r2, r2, #15
 3543 042a D2B2     		uxtb	r2, r2
 3544 042c 3032     		adds	r2, r2, #48
 3545 042e D1B2     		uxtb	r1, r2
 3546 0430 2E4A     		ldr	r2, .L244+8
 3547 0432 1344     		add	r3, r3, r2
 3548 0434 0A46     		mov	r2, r1
 3549 0436 83F8F121 		strb	r2, [r3, #497]
 693:.\protocol.c  **** 				for(x=1;x<=6;x++){
 3550              		.loc 1 693 0 discriminator 3
 3551 043a FB7B     		ldrb	r3, [r7, #15]	@ zero_extendqisi2
 3552 043c 0133     		adds	r3, r3, #1
 3553 043e FB73     		strb	r3, [r7, #15]
 3554              	.L236:
 693:.\protocol.c  **** 				for(x=1;x<=6;x++){
 3555              		.loc 1 693 0 is_stmt 0 discriminator 1
 3556 0440 FB7B     		ldrb	r3, [r7, #15]	@ zero_extendqisi2
 3557 0442 062B     		cmp	r3, #6
 3558 0444 E7D9     		bls	.L237
 695:.\protocol.c  **** 				}
 696:.\protocol.c  ****                 side.b.ppuSale[0]=6;
 3559              		.loc 1 696 0 is_stmt 1
 3560 0446 294B     		ldr	r3, .L244+8
 3561 0448 0622     		movs	r2, #6
ARM GAS  C:\Users\Lenovo\AppData\Local\Temp\cc3dQOqg.s 			page 78


 3562 044a 83F8F121 		strb	r2, [r3, #497]
 697:.\protocol.c  **** 				for(x=1;x<=8;x++){
 3563              		.loc 1 697 0
 3564 044e 0123     		movs	r3, #1
 3565 0450 FB73     		strb	r3, [r7, #15]
 3566 0452 14E0     		b	.L238
 3567              	.L239:
 698:.\protocol.c  **** 					side.b.volumeSale[9-x]=((Pump_AL_rxBuffer[x+18]&0x0F)+0x30);
 3568              		.loc 1 698 0 discriminator 3
 3569 0454 FB7B     		ldrb	r3, [r7, #15]	@ zero_extendqisi2
 3570 0456 C3F10903 		rsb	r3, r3, #9
 3571 045a FA7B     		ldrb	r2, [r7, #15]	@ zero_extendqisi2
 3572 045c 1232     		adds	r2, r2, #18
 3573 045e 2249     		ldr	r1, .L244+4
 3574 0460 8A5C     		ldrb	r2, [r1, r2]
 3575 0462 D2B2     		uxtb	r2, r2
 3576 0464 02F00F02 		and	r2, r2, #15
 3577 0468 D2B2     		uxtb	r2, r2
 3578 046a 3032     		adds	r2, r2, #48
 3579 046c D1B2     		uxtb	r1, r2
 3580 046e 1F4A     		ldr	r2, .L244+8
 3581 0470 1344     		add	r3, r3, r2
 3582 0472 0A46     		mov	r2, r1
 3583 0474 83F8E321 		strb	r2, [r3, #483]
 697:.\protocol.c  **** 				for(x=1;x<=8;x++){
 3584              		.loc 1 697 0 discriminator 3
 3585 0478 FB7B     		ldrb	r3, [r7, #15]	@ zero_extendqisi2
 3586 047a 0133     		adds	r3, r3, #1
 3587 047c FB73     		strb	r3, [r7, #15]
 3588              	.L238:
 697:.\protocol.c  **** 				for(x=1;x<=8;x++){
 3589              		.loc 1 697 0 is_stmt 0 discriminator 1
 3590 047e FB7B     		ldrb	r3, [r7, #15]	@ zero_extendqisi2
 3591 0480 082B     		cmp	r3, #8
 3592 0482 E7D9     		bls	.L239
 699:.\protocol.c  **** 				}	
 700:.\protocol.c  ****                 side.b.volumeSale[0]=8;
 3593              		.loc 1 700 0 is_stmt 1
 3594 0484 194B     		ldr	r3, .L244+8
 3595 0486 0822     		movs	r2, #8
 3596 0488 83F8E321 		strb	r2, [r3, #483]
 701:.\protocol.c  **** 				for(x=1;x<=7;x++){
 3597              		.loc 1 701 0
 3598 048c 0123     		movs	r3, #1
 3599 048e FB73     		strb	r3, [r7, #15]
 3600 0490 14E0     		b	.L240
 3601              	.L241:
 702:.\protocol.c  **** 					side.b.moneySale[9-x]=((Pump_AL_rxBuffer[x+28]&0x0F)+0x30);
 3602              		.loc 1 702 0 discriminator 3
 3603 0492 FB7B     		ldrb	r3, [r7, #15]	@ zero_extendqisi2
 3604 0494 C3F10903 		rsb	r3, r3, #9
 3605 0498 FA7B     		ldrb	r2, [r7, #15]	@ zero_extendqisi2
 3606 049a 1C32     		adds	r2, r2, #28
 3607 049c 1249     		ldr	r1, .L244+4
 3608 049e 8A5C     		ldrb	r2, [r1, r2]
 3609 04a0 D2B2     		uxtb	r2, r2
 3610 04a2 02F00F02 		and	r2, r2, #15
ARM GAS  C:\Users\Lenovo\AppData\Local\Temp\cc3dQOqg.s 			page 79


 3611 04a6 D2B2     		uxtb	r2, r2
 3612 04a8 3032     		adds	r2, r2, #48
 3613 04aa D1B2     		uxtb	r1, r2
 3614 04ac 0F4A     		ldr	r2, .L244+8
 3615 04ae 1344     		add	r3, r3, r2
 3616 04b0 0A46     		mov	r2, r1
 3617 04b2 83F8D521 		strb	r2, [r3, #469]
 701:.\protocol.c  **** 				for(x=1;x<=7;x++){
 3618              		.loc 1 701 0 discriminator 3
 3619 04b6 FB7B     		ldrb	r3, [r7, #15]	@ zero_extendqisi2
 3620 04b8 0133     		adds	r3, r3, #1
 3621 04ba FB73     		strb	r3, [r7, #15]
 3622              	.L240:
 701:.\protocol.c  **** 				for(x=1;x<=7;x++){
 3623              		.loc 1 701 0 is_stmt 0 discriminator 1
 3624 04bc FB7B     		ldrb	r3, [r7, #15]	@ zero_extendqisi2
 3625 04be 072B     		cmp	r3, #7
 3626 04c0 E7D9     		bls	.L241
 703:.\protocol.c  **** 				}	
 704:.\protocol.c  ****                 side.b.moneySale[1]='0';
 3627              		.loc 1 704 0 is_stmt 1
 3628 04c2 0A4B     		ldr	r3, .L244+8
 3629 04c4 3022     		movs	r2, #48
 3630 04c6 83F8D621 		strb	r2, [r3, #470]
 705:.\protocol.c  ****                 side.b.moneySale[0]=8;
 3631              		.loc 1 705 0
 3632 04ca 084B     		ldr	r3, .L244+8
 3633 04cc 0822     		movs	r2, #8
 3634 04ce 83F8D521 		strb	r2, [r3, #469]
 3635              	.L235:
 706:.\protocol.c  **** 			}
 707:.\protocol.c  **** 			return 1;
 3636              		.loc 1 707 0
 3637 04d2 0123     		movs	r3, #1
 3638 04d4 02E0     		b	.L225
 3639              	.L227:
 708:.\protocol.c  **** 		}
 709:.\protocol.c  **** 		else{
 710:.\protocol.c  **** 			return 0;
 3640              		.loc 1 710 0
 3641 04d6 0023     		movs	r3, #0
 3642 04d8 00E0     		b	.L225
 3643              	.L226:
 711:.\protocol.c  **** 		}
 712:.\protocol.c  **** 	}
 713:.\protocol.c  **** 	return 0;
 3644              		.loc 1 713 0
 3645 04da 0023     		movs	r3, #0
 3646              	.L225:
 714:.\protocol.c  **** }...
 3647              		.loc 1 714 0
 3648 04dc 1846     		mov	r0, r3
 3649 04de 1037     		adds	r7, r7, #16
 3650              		.cfi_def_cfa_offset 8
 3651 04e0 BD46     		mov	sp, r7
 3652              		.cfi_def_cfa_register 13
 3653              		@ sp needed
ARM GAS  C:\Users\Lenovo\AppData\Local\Temp\cc3dQOqg.s 			page 80


 3654 04e2 80BD     		pop	{r7, pc}
 3655              	.L245:
 3656              		.align	2
 3657              	.L244:
 3658 04e4 00000000 		.word	digits
 3659 04e8 00000000 		.word	Pump_AL_rxBuffer
 3660 04ec 00000000 		.word	side
 3661              		.cfi_endproc
 3662              	.LFE62:
 3663              		.size	get_sale, .-get_sale
 3664              		.text
 3665              	.Letext0:
 3666              		.file 2 "c:\\program files (x86)\\cypress\\psoc creator\\3.3\\psoc creator\\import\\gnu\\arm\\4.9.
 3667              		.file 3 "c:\\program files (x86)\\cypress\\psoc creator\\3.3\\psoc creator\\import\\gnu\\arm\\4.9.
 3668              		.file 4 "Generated_Source\\PSoC5/cytypes.h"
 3669              		.file 5 "./variables.h"
 3670              		.file 6 "Generated_Source\\PSoC5/Pump_AL.h"
 3671              		.file 7 "Generated_Source\\PSoC5/core_cm3.h"