ARM GAS  C:\Users\Lenovo\AppData\Local\Temp\ccxEp1Mg.s 			page 1


   1              		.syntax unified
   2              		.cpu cortex-m3
   3              		.fpu softvfp
   4              		.eabi_attribute 20, 1
   5              		.eabi_attribute 21, 1
   6              		.eabi_attribute 23, 3
   7              		.eabi_attribute 24, 1
   8              		.eabi_attribute 25, 1
   9              		.eabi_attribute 26, 1
  10              		.eabi_attribute 30, 6
  11              		.eabi_attribute 34, 1
  12              		.eabi_attribute 18, 4
  13              		.thumb
  14              		.file	"Tag.c"
  15              		.text
  16              	.Ltext0:
  17              		.cfi_sections	.debug_frame
  18              		.global	Tag_initVar
  19              		.bss
  20              		.type	Tag_initVar, %object
  21              		.size	Tag_initVar, 1
  22              	Tag_initVar:
  23 0000 00       		.space	1
  24              		.comm	Tag_rxBuffer,256,4
  25              		.global	Tag_rxBufferRead
  26 0001 00       		.align	1
  27              		.type	Tag_rxBufferRead, %object
  28              		.size	Tag_rxBufferRead, 2
  29              	Tag_rxBufferRead:
  30 0002 0000     		.space	2
  31              		.global	Tag_rxBufferWrite
  32              		.align	1
  33              		.type	Tag_rxBufferWrite, %object
  34              		.size	Tag_rxBufferWrite, 2
  35              	Tag_rxBufferWrite:
  36 0004 0000     		.space	2
  37              		.global	Tag_rxBufferLoopDetect
  38              		.type	Tag_rxBufferLoopDetect, %object
  39              		.size	Tag_rxBufferLoopDetect, 1
  40              	Tag_rxBufferLoopDetect:
  41 0006 00       		.space	1
  42              		.global	Tag_rxBufferOverflow
  43              		.type	Tag_rxBufferOverflow, %object
  44              		.size	Tag_rxBufferOverflow, 1
  45              	Tag_rxBufferOverflow:
  46 0007 00       		.space	1
  47              		.section	.text.Tag_Start,"ax",%progbits
  48              		.align	2
  49              		.global	Tag_Start
  50              		.thumb
  51              		.thumb_func
  52              		.type	Tag_Start, %function
  53              	Tag_Start:
  54              	.LFB0:
  55              		.file 1 ".\\Generated_Source\\PSoC5\\Tag.c"
   1:.\Generated_Source\PSoC5/Tag.c **** /*******************************************************************************
   2:.\Generated_Source\PSoC5/Tag.c **** * File Name: Tag.c
ARM GAS  C:\Users\Lenovo\AppData\Local\Temp\ccxEp1Mg.s 			page 2


   3:.\Generated_Source\PSoC5/Tag.c **** * Version 2.30
   4:.\Generated_Source\PSoC5/Tag.c **** *
   5:.\Generated_Source\PSoC5/Tag.c **** * Description:
   6:.\Generated_Source\PSoC5/Tag.c **** *  This file provides all API functionality of the UART component
   7:.\Generated_Source\PSoC5/Tag.c **** *
   8:.\Generated_Source\PSoC5/Tag.c **** * Note:
   9:.\Generated_Source\PSoC5/Tag.c **** *
  10:.\Generated_Source\PSoC5/Tag.c **** ********************************************************************************
  11:.\Generated_Source\PSoC5/Tag.c **** * Copyright 2008-2012, Cypress Semiconductor Corporation.  All rights reserved.
  12:.\Generated_Source\PSoC5/Tag.c **** * You may use this file only in accordance with the license, terms, conditions,
  13:.\Generated_Source\PSoC5/Tag.c **** * disclaimers, and limitations in the end user license agreement accompanying
  14:.\Generated_Source\PSoC5/Tag.c **** * the software package with which this file was provided.
  15:.\Generated_Source\PSoC5/Tag.c **** *******************************************************************************/
  16:.\Generated_Source\PSoC5/Tag.c **** 
  17:.\Generated_Source\PSoC5/Tag.c **** #include "Tag.h"
  18:.\Generated_Source\PSoC5/Tag.c **** #include "CyLib.h"
  19:.\Generated_Source\PSoC5/Tag.c **** #if(Tag_INTERNAL_CLOCK_USED)
  20:.\Generated_Source\PSoC5/Tag.c ****     #include "Tag_IntClock.h"
  21:.\Generated_Source\PSoC5/Tag.c **** #endif /* End Tag_INTERNAL_CLOCK_USED */
  22:.\Generated_Source\PSoC5/Tag.c **** 
  23:.\Generated_Source\PSoC5/Tag.c **** 
  24:.\Generated_Source\PSoC5/Tag.c **** /***************************************
  25:.\Generated_Source\PSoC5/Tag.c **** * Global data allocation
  26:.\Generated_Source\PSoC5/Tag.c **** ***************************************/
  27:.\Generated_Source\PSoC5/Tag.c **** 
  28:.\Generated_Source\PSoC5/Tag.c **** uint8 Tag_initVar = 0u;
  29:.\Generated_Source\PSoC5/Tag.c **** #if( Tag_TX_ENABLED && (Tag_TXBUFFERSIZE > Tag_FIFO_LENGTH))
  30:.\Generated_Source\PSoC5/Tag.c ****     volatile uint8 Tag_txBuffer[Tag_TXBUFFERSIZE];
  31:.\Generated_Source\PSoC5/Tag.c ****     volatile uint8 Tag_txBufferRead = 0u;
  32:.\Generated_Source\PSoC5/Tag.c ****     uint8 Tag_txBufferWrite = 0u;
  33:.\Generated_Source\PSoC5/Tag.c **** #endif /* End Tag_TX_ENABLED */
  34:.\Generated_Source\PSoC5/Tag.c **** #if( ( Tag_RX_ENABLED || Tag_HD_ENABLED ) && \
  35:.\Generated_Source\PSoC5/Tag.c ****      (Tag_RXBUFFERSIZE > Tag_FIFO_LENGTH) )
  36:.\Generated_Source\PSoC5/Tag.c ****     volatile uint8 Tag_rxBuffer[Tag_RXBUFFERSIZE];
  37:.\Generated_Source\PSoC5/Tag.c ****     volatile uint16 Tag_rxBufferRead = 0u;
  38:.\Generated_Source\PSoC5/Tag.c ****     volatile uint16 Tag_rxBufferWrite = 0u;
  39:.\Generated_Source\PSoC5/Tag.c ****     volatile uint8 Tag_rxBufferLoopDetect = 0u;
  40:.\Generated_Source\PSoC5/Tag.c ****     volatile uint8 Tag_rxBufferOverflow = 0u;
  41:.\Generated_Source\PSoC5/Tag.c ****     #if (Tag_RXHW_ADDRESS_ENABLED)
  42:.\Generated_Source\PSoC5/Tag.c ****         volatile uint8 Tag_rxAddressMode = Tag_RXADDRESSMODE;
  43:.\Generated_Source\PSoC5/Tag.c ****         volatile uint8 Tag_rxAddressDetected = 0u;
  44:.\Generated_Source\PSoC5/Tag.c ****     #endif /* End EnableHWAddress */
  45:.\Generated_Source\PSoC5/Tag.c **** #endif /* End Tag_RX_ENABLED */
  46:.\Generated_Source\PSoC5/Tag.c **** 
  47:.\Generated_Source\PSoC5/Tag.c **** 
  48:.\Generated_Source\PSoC5/Tag.c **** /*******************************************************************************
  49:.\Generated_Source\PSoC5/Tag.c **** * Function Name: Tag_Start
  50:.\Generated_Source\PSoC5/Tag.c **** ********************************************************************************
  51:.\Generated_Source\PSoC5/Tag.c **** *
  52:.\Generated_Source\PSoC5/Tag.c **** * Summary:
  53:.\Generated_Source\PSoC5/Tag.c **** *  Initialize and Enable the UART component.
  54:.\Generated_Source\PSoC5/Tag.c **** *  Enable the clock input to enable operation.
  55:.\Generated_Source\PSoC5/Tag.c **** *
  56:.\Generated_Source\PSoC5/Tag.c **** * Parameters:
  57:.\Generated_Source\PSoC5/Tag.c **** *  None.
  58:.\Generated_Source\PSoC5/Tag.c **** *
  59:.\Generated_Source\PSoC5/Tag.c **** * Return:
ARM GAS  C:\Users\Lenovo\AppData\Local\Temp\ccxEp1Mg.s 			page 3


  60:.\Generated_Source\PSoC5/Tag.c **** *  None.
  61:.\Generated_Source\PSoC5/Tag.c **** *
  62:.\Generated_Source\PSoC5/Tag.c **** * Global variables:
  63:.\Generated_Source\PSoC5/Tag.c **** *  The Tag_intiVar variable is used to indicate initial
  64:.\Generated_Source\PSoC5/Tag.c **** *  configuration of this component. The variable is initialized to zero (0u)
  65:.\Generated_Source\PSoC5/Tag.c **** *  and set to one (1u) the first time UART_Start() is called. This allows for
  66:.\Generated_Source\PSoC5/Tag.c **** *  component initialization without re-initialization in all subsequent calls
  67:.\Generated_Source\PSoC5/Tag.c **** *  to the Tag_Start() routine.
  68:.\Generated_Source\PSoC5/Tag.c **** *
  69:.\Generated_Source\PSoC5/Tag.c **** * Reentrant:
  70:.\Generated_Source\PSoC5/Tag.c **** *  No.
  71:.\Generated_Source\PSoC5/Tag.c **** *
  72:.\Generated_Source\PSoC5/Tag.c **** *******************************************************************************/
  73:.\Generated_Source\PSoC5/Tag.c **** void Tag_Start(void) 
  74:.\Generated_Source\PSoC5/Tag.c **** {
  56              		.loc 1 74 0
  57              		.cfi_startproc
  58              		@ args = 0, pretend = 0, frame = 0
  59              		@ frame_needed = 1, uses_anonymous_args = 0
  60 0000 80B5     		push	{r7, lr}
  61              		.cfi_def_cfa_offset 8
  62              		.cfi_offset 7, -8
  63              		.cfi_offset 14, -4
  64 0002 00AF     		add	r7, sp, #0
  65              		.cfi_def_cfa_register 7
  75:.\Generated_Source\PSoC5/Tag.c ****     /* If not Initialized then initialize all required hardware and software */
  76:.\Generated_Source\PSoC5/Tag.c ****     if(Tag_initVar == 0u)
  66              		.loc 1 76 0
  67 0004 054B     		ldr	r3, .L3
  68 0006 1B78     		ldrb	r3, [r3]	@ zero_extendqisi2
  69 0008 002B     		cmp	r3, #0
  70 000a 04D1     		bne	.L2
  77:.\Generated_Source\PSoC5/Tag.c ****     {
  78:.\Generated_Source\PSoC5/Tag.c ****         Tag_Init();
  71              		.loc 1 78 0
  72 000c FFF7FEFF 		bl	Tag_Init
  79:.\Generated_Source\PSoC5/Tag.c ****         Tag_initVar = 1u;
  73              		.loc 1 79 0
  74 0010 024B     		ldr	r3, .L3
  75 0012 0122     		movs	r2, #1
  76 0014 1A70     		strb	r2, [r3]
  77              	.L2:
  80:.\Generated_Source\PSoC5/Tag.c ****     }
  81:.\Generated_Source\PSoC5/Tag.c ****     Tag_Enable();
  78              		.loc 1 81 0
  79 0016 FFF7FEFF 		bl	Tag_Enable
  82:.\Generated_Source\PSoC5/Tag.c **** }
  80              		.loc 1 82 0
  81 001a 80BD     		pop	{r7, pc}
  82              	.L4:
  83              		.align	2
  84              	.L3:
  85 001c 00000000 		.word	Tag_initVar
  86              		.cfi_endproc
  87              	.LFE0:
  88              		.size	Tag_Start, .-Tag_Start
  89              		.section	.text.Tag_Init,"ax",%progbits
ARM GAS  C:\Users\Lenovo\AppData\Local\Temp\ccxEp1Mg.s 			page 4


  90              		.align	2
  91              		.global	Tag_Init
  92              		.thumb
  93              		.thumb_func
  94              		.type	Tag_Init, %function
  95              	Tag_Init:
  96              	.LFB1:
  83:.\Generated_Source\PSoC5/Tag.c **** 
  84:.\Generated_Source\PSoC5/Tag.c **** 
  85:.\Generated_Source\PSoC5/Tag.c **** /*******************************************************************************
  86:.\Generated_Source\PSoC5/Tag.c **** * Function Name: Tag_Init
  87:.\Generated_Source\PSoC5/Tag.c **** ********************************************************************************
  88:.\Generated_Source\PSoC5/Tag.c **** *
  89:.\Generated_Source\PSoC5/Tag.c **** * Summary:
  90:.\Generated_Source\PSoC5/Tag.c **** *  Initialize component's parameters to the parameters set by user in the
  91:.\Generated_Source\PSoC5/Tag.c **** *  customizer of the component placed onto schematic. Usually called in
  92:.\Generated_Source\PSoC5/Tag.c **** *  Tag_Start().
  93:.\Generated_Source\PSoC5/Tag.c **** *
  94:.\Generated_Source\PSoC5/Tag.c **** * Parameters:
  95:.\Generated_Source\PSoC5/Tag.c **** *  None.
  96:.\Generated_Source\PSoC5/Tag.c **** *
  97:.\Generated_Source\PSoC5/Tag.c **** * Return:
  98:.\Generated_Source\PSoC5/Tag.c **** *  None.
  99:.\Generated_Source\PSoC5/Tag.c **** *
 100:.\Generated_Source\PSoC5/Tag.c **** *******************************************************************************/
 101:.\Generated_Source\PSoC5/Tag.c **** void Tag_Init(void) 
 102:.\Generated_Source\PSoC5/Tag.c **** {
  97              		.loc 1 102 0
  98              		.cfi_startproc
  99              		@ args = 0, pretend = 0, frame = 0
 100              		@ frame_needed = 1, uses_anonymous_args = 0
 101 0000 80B5     		push	{r7, lr}
 102              		.cfi_def_cfa_offset 8
 103              		.cfi_offset 7, -8
 104              		.cfi_offset 14, -4
 105 0002 00AF     		add	r7, sp, #0
 106              		.cfi_def_cfa_register 7
 103:.\Generated_Source\PSoC5/Tag.c ****     #if(Tag_RX_ENABLED || Tag_HD_ENABLED)
 104:.\Generated_Source\PSoC5/Tag.c **** 
 105:.\Generated_Source\PSoC5/Tag.c ****         #if(Tag_RX_INTERRUPT_ENABLED && (Tag_RXBUFFERSIZE > Tag_FIFO_LENGTH))
 106:.\Generated_Source\PSoC5/Tag.c ****             /* Set the RX Interrupt. */
 107:.\Generated_Source\PSoC5/Tag.c ****             (void)CyIntSetVector(Tag_RX_VECT_NUM, &Tag_RXISR);
 107              		.loc 1 107 0
 108 0004 0520     		movs	r0, #5
 109 0006 0B49     		ldr	r1, .L6
 110 0008 FFF7FEFF 		bl	CyIntSetVector
 108:.\Generated_Source\PSoC5/Tag.c ****             CyIntSetPriority(Tag_RX_VECT_NUM, Tag_RX_PRIOR_NUM);
 111              		.loc 1 108 0
 112 000c 0520     		movs	r0, #5
 113 000e 0721     		movs	r1, #7
 114 0010 FFF7FEFF 		bl	CyIntSetPriority
 109:.\Generated_Source\PSoC5/Tag.c ****         #endif /* End Tag_RX_INTERRUPT_ENABLED */
 110:.\Generated_Source\PSoC5/Tag.c **** 
 111:.\Generated_Source\PSoC5/Tag.c ****         #if (Tag_RXHW_ADDRESS_ENABLED)
 112:.\Generated_Source\PSoC5/Tag.c ****             Tag_SetRxAddressMode(Tag_RXAddressMode);
 113:.\Generated_Source\PSoC5/Tag.c ****             Tag_SetRxAddress1(Tag_RXHWADDRESS1);
 114:.\Generated_Source\PSoC5/Tag.c ****             Tag_SetRxAddress2(Tag_RXHWADDRESS2);
ARM GAS  C:\Users\Lenovo\AppData\Local\Temp\ccxEp1Mg.s 			page 5


 115:.\Generated_Source\PSoC5/Tag.c ****         #endif /* End Tag_RXHW_ADDRESS_ENABLED */
 116:.\Generated_Source\PSoC5/Tag.c **** 
 117:.\Generated_Source\PSoC5/Tag.c ****         /* Init Count7 period */
 118:.\Generated_Source\PSoC5/Tag.c ****         Tag_RXBITCTR_PERIOD_REG = Tag_RXBITCTR_INIT;
 115              		.loc 1 118 0
 116 0014 084B     		ldr	r3, .L6+4
 117 0016 7222     		movs	r2, #114
 118 0018 1A70     		strb	r2, [r3]
 119:.\Generated_Source\PSoC5/Tag.c ****         /* Configure the Initial RX interrupt mask */
 120:.\Generated_Source\PSoC5/Tag.c ****         Tag_RXSTATUS_MASK_REG  = Tag_INIT_RX_INTERRUPTS_MASK;
 119              		.loc 1 120 0
 120 001a 084B     		ldr	r3, .L6+8
 121 001c 2022     		movs	r2, #32
 122 001e 1A70     		strb	r2, [r3]
 121:.\Generated_Source\PSoC5/Tag.c ****     #endif /* End Tag_RX_ENABLED || Tag_HD_ENABLED*/
 122:.\Generated_Source\PSoC5/Tag.c **** 
 123:.\Generated_Source\PSoC5/Tag.c ****     #if(Tag_TX_ENABLED)
 124:.\Generated_Source\PSoC5/Tag.c ****         #if(Tag_TX_INTERRUPT_ENABLED && (Tag_TXBUFFERSIZE > Tag_FIFO_LENGTH))
 125:.\Generated_Source\PSoC5/Tag.c ****             /* Set the TX Interrupt. */
 126:.\Generated_Source\PSoC5/Tag.c ****             (void)CyIntSetVector(Tag_TX_VECT_NUM, &Tag_TXISR);
 127:.\Generated_Source\PSoC5/Tag.c ****             CyIntSetPriority(Tag_TX_VECT_NUM, Tag_TX_PRIOR_NUM);
 128:.\Generated_Source\PSoC5/Tag.c ****         #endif /* End Tag_TX_INTERRUPT_ENABLED */
 129:.\Generated_Source\PSoC5/Tag.c **** 
 130:.\Generated_Source\PSoC5/Tag.c ****         /* Write Counter Value for TX Bit Clk Generator*/
 131:.\Generated_Source\PSoC5/Tag.c ****         #if(Tag_TXCLKGEN_DP)
 132:.\Generated_Source\PSoC5/Tag.c ****             Tag_TXBITCLKGEN_CTR_REG = Tag_BIT_CENTER;
 123              		.loc 1 132 0
 124 0020 074B     		ldr	r3, .L6+12
 125 0022 0722     		movs	r2, #7
 126 0024 1A70     		strb	r2, [r3]
 133:.\Generated_Source\PSoC5/Tag.c ****             Tag_TXBITCLKTX_COMPLETE_REG = (Tag_NUMBER_OF_DATA_BITS +
 127              		.loc 1 133 0
 128 0026 074B     		ldr	r3, .L6+16
 129 0028 4822     		movs	r2, #72
 130 002a 1A70     		strb	r2, [r3]
 134:.\Generated_Source\PSoC5/Tag.c ****                         Tag_NUMBER_OF_START_BIT) * Tag_OVER_SAMPLE_COUNT;
 135:.\Generated_Source\PSoC5/Tag.c ****         #else
 136:.\Generated_Source\PSoC5/Tag.c ****             Tag_TXBITCTR_PERIOD_REG = ((Tag_NUMBER_OF_DATA_BITS +
 137:.\Generated_Source\PSoC5/Tag.c ****                         Tag_NUMBER_OF_START_BIT) * Tag_OVER_SAMPLE_8) - 1u;
 138:.\Generated_Source\PSoC5/Tag.c ****         #endif /* End Tag_TXCLKGEN_DP */
 139:.\Generated_Source\PSoC5/Tag.c **** 
 140:.\Generated_Source\PSoC5/Tag.c ****         /* Configure the Initial TX interrupt mask */
 141:.\Generated_Source\PSoC5/Tag.c ****         #if(Tag_TX_INTERRUPT_ENABLED && (Tag_TXBUFFERSIZE > Tag_FIFO_LENGTH))
 142:.\Generated_Source\PSoC5/Tag.c ****             Tag_TXSTATUS_MASK_REG = Tag_TX_STS_FIFO_EMPTY;
 143:.\Generated_Source\PSoC5/Tag.c ****         #else
 144:.\Generated_Source\PSoC5/Tag.c ****             Tag_TXSTATUS_MASK_REG = Tag_INIT_TX_INTERRUPTS_MASK;
 131              		.loc 1 144 0
 132 002c 064B     		ldr	r3, .L6+20
 133 002e 0022     		movs	r2, #0
 134 0030 1A70     		strb	r2, [r3]
 145:.\Generated_Source\PSoC5/Tag.c ****         #endif /*End Tag_TX_INTERRUPT_ENABLED*/
 146:.\Generated_Source\PSoC5/Tag.c **** 
 147:.\Generated_Source\PSoC5/Tag.c ****     #endif /* End Tag_TX_ENABLED */
 148:.\Generated_Source\PSoC5/Tag.c **** 
 149:.\Generated_Source\PSoC5/Tag.c ****     #if(Tag_PARITY_TYPE_SW)  /* Write Parity to Control Register */
 150:.\Generated_Source\PSoC5/Tag.c ****         Tag_WriteControlRegister( \
 151:.\Generated_Source\PSoC5/Tag.c ****             (Tag_ReadControlRegister() & (uint8)~Tag_CTRL_PARITY_TYPE_MASK) | \
ARM GAS  C:\Users\Lenovo\AppData\Local\Temp\ccxEp1Mg.s 			page 6


 152:.\Generated_Source\PSoC5/Tag.c ****             (uint8)(Tag_PARITY_TYPE << Tag_CTRL_PARITY_TYPE0_SHIFT) );
 153:.\Generated_Source\PSoC5/Tag.c ****     #endif /* End Tag_PARITY_TYPE_SW */
 154:.\Generated_Source\PSoC5/Tag.c **** }
 135              		.loc 1 154 0
 136 0032 80BD     		pop	{r7, pc}
 137              	.L7:
 138              		.align	2
 139              	.L6:
 140 0034 00000000 		.word	Tag_RXISR
 141 0038 84640040 		.word	1073767556
 142 003c 83640040 		.word	1073767555
 143 0040 26640040 		.word	1073767462
 144 0044 36640040 		.word	1073767478
 145 0048 8B650040 		.word	1073767819
 146              		.cfi_endproc
 147              	.LFE1:
 148              		.size	Tag_Init, .-Tag_Init
 149              		.section	.text.Tag_Enable,"ax",%progbits
 150              		.align	2
 151              		.global	Tag_Enable
 152              		.thumb
 153              		.thumb_func
 154              		.type	Tag_Enable, %function
 155              	Tag_Enable:
 156              	.LFB2:
 155:.\Generated_Source\PSoC5/Tag.c **** 
 156:.\Generated_Source\PSoC5/Tag.c **** 
 157:.\Generated_Source\PSoC5/Tag.c **** /*******************************************************************************
 158:.\Generated_Source\PSoC5/Tag.c **** * Function Name: Tag_Enable
 159:.\Generated_Source\PSoC5/Tag.c **** ********************************************************************************
 160:.\Generated_Source\PSoC5/Tag.c **** *
 161:.\Generated_Source\PSoC5/Tag.c **** * Summary:
 162:.\Generated_Source\PSoC5/Tag.c **** *  Enables the UART block operation
 163:.\Generated_Source\PSoC5/Tag.c **** *
 164:.\Generated_Source\PSoC5/Tag.c **** * Parameters:
 165:.\Generated_Source\PSoC5/Tag.c **** *  None.
 166:.\Generated_Source\PSoC5/Tag.c **** *
 167:.\Generated_Source\PSoC5/Tag.c **** * Return:
 168:.\Generated_Source\PSoC5/Tag.c **** *  None.
 169:.\Generated_Source\PSoC5/Tag.c **** *
 170:.\Generated_Source\PSoC5/Tag.c **** * Global Variables:
 171:.\Generated_Source\PSoC5/Tag.c **** *  Tag_rxAddressDetected - set to initial state (0).
 172:.\Generated_Source\PSoC5/Tag.c **** *
 173:.\Generated_Source\PSoC5/Tag.c **** *******************************************************************************/
 174:.\Generated_Source\PSoC5/Tag.c **** void Tag_Enable(void) 
 175:.\Generated_Source\PSoC5/Tag.c **** {
 157              		.loc 1 175 0
 158              		.cfi_startproc
 159              		@ args = 0, pretend = 0, frame = 8
 160              		@ frame_needed = 1, uses_anonymous_args = 0
 161 0000 80B5     		push	{r7, lr}
 162              		.cfi_def_cfa_offset 8
 163              		.cfi_offset 7, -8
 164              		.cfi_offset 14, -4
 165 0002 82B0     		sub	sp, sp, #8
 166              		.cfi_def_cfa_offset 16
 167 0004 00AF     		add	r7, sp, #0
ARM GAS  C:\Users\Lenovo\AppData\Local\Temp\ccxEp1Mg.s 			page 7


 168              		.cfi_def_cfa_register 7
 176:.\Generated_Source\PSoC5/Tag.c ****     uint8 enableInterrupts;
 177:.\Generated_Source\PSoC5/Tag.c ****     enableInterrupts = CyEnterCriticalSection();
 169              		.loc 1 177 0
 170 0006 FFF7FEFF 		bl	CyEnterCriticalSection
 171 000a 0346     		mov	r3, r0
 172 000c FB71     		strb	r3, [r7, #7]
 178:.\Generated_Source\PSoC5/Tag.c **** 
 179:.\Generated_Source\PSoC5/Tag.c ****     #if(Tag_RX_ENABLED || Tag_HD_ENABLED)
 180:.\Generated_Source\PSoC5/Tag.c ****         /*RX Counter (Count7) Enable */
 181:.\Generated_Source\PSoC5/Tag.c ****         Tag_RXBITCTR_CONTROL_REG |= Tag_CNTR_ENABLE;
 173              		.loc 1 181 0
 174 000e 124A     		ldr	r2, .L9
 175 0010 114B     		ldr	r3, .L9
 176 0012 1B78     		ldrb	r3, [r3]
 177 0014 DBB2     		uxtb	r3, r3
 178 0016 43F02003 		orr	r3, r3, #32
 179 001a DBB2     		uxtb	r3, r3
 180 001c 1370     		strb	r3, [r2]
 182:.\Generated_Source\PSoC5/Tag.c ****         /* Enable the RX Interrupt. */
 183:.\Generated_Source\PSoC5/Tag.c ****         Tag_RXSTATUS_ACTL_REG  |= Tag_INT_ENABLE;
 181              		.loc 1 183 0
 182 001e 0F4A     		ldr	r2, .L9+4
 183 0020 0E4B     		ldr	r3, .L9+4
 184 0022 1B78     		ldrb	r3, [r3]
 185 0024 DBB2     		uxtb	r3, r3
 186 0026 43F01003 		orr	r3, r3, #16
 187 002a DBB2     		uxtb	r3, r3
 188 002c 1370     		strb	r3, [r2]
 184:.\Generated_Source\PSoC5/Tag.c ****         #if(Tag_RX_INTERRUPT_ENABLED && (Tag_RXBUFFERSIZE > Tag_FIFO_LENGTH))
 185:.\Generated_Source\PSoC5/Tag.c ****             CyIntEnable(Tag_RX_VECT_NUM);
 189              		.loc 1 185 0
 190 002e 0C4B     		ldr	r3, .L9+8
 191 0030 2022     		movs	r2, #32
 192 0032 1A60     		str	r2, [r3]
 186:.\Generated_Source\PSoC5/Tag.c ****             #if (Tag_RXHW_ADDRESS_ENABLED)
 187:.\Generated_Source\PSoC5/Tag.c ****                 Tag_rxAddressDetected = 0u;
 188:.\Generated_Source\PSoC5/Tag.c ****             #endif /* End Tag_RXHW_ADDRESS_ENABLED */
 189:.\Generated_Source\PSoC5/Tag.c ****         #endif /* End Tag_RX_INTERRUPT_ENABLED */
 190:.\Generated_Source\PSoC5/Tag.c ****     #endif /* End Tag_RX_ENABLED || Tag_HD_ENABLED*/
 191:.\Generated_Source\PSoC5/Tag.c **** 
 192:.\Generated_Source\PSoC5/Tag.c ****     #if(Tag_TX_ENABLED)
 193:.\Generated_Source\PSoC5/Tag.c ****         /*TX Counter (DP/Count7) Enable */
 194:.\Generated_Source\PSoC5/Tag.c ****         #if(!Tag_TXCLKGEN_DP)
 195:.\Generated_Source\PSoC5/Tag.c ****             Tag_TXBITCTR_CONTROL_REG |= Tag_CNTR_ENABLE;
 196:.\Generated_Source\PSoC5/Tag.c ****         #endif /* End Tag_TXCLKGEN_DP */
 197:.\Generated_Source\PSoC5/Tag.c ****         /* Enable the TX Interrupt. */
 198:.\Generated_Source\PSoC5/Tag.c ****         Tag_TXSTATUS_ACTL_REG |= Tag_INT_ENABLE;
 193              		.loc 1 198 0
 194 0034 0B4A     		ldr	r2, .L9+12
 195 0036 0B4B     		ldr	r3, .L9+12
 196 0038 1B78     		ldrb	r3, [r3]
 197 003a DBB2     		uxtb	r3, r3
 198 003c 43F01003 		orr	r3, r3, #16
 199 0040 DBB2     		uxtb	r3, r3
 200 0042 1370     		strb	r3, [r2]
 199:.\Generated_Source\PSoC5/Tag.c ****         #if(Tag_TX_INTERRUPT_ENABLED && (Tag_TXBUFFERSIZE > Tag_FIFO_LENGTH))
ARM GAS  C:\Users\Lenovo\AppData\Local\Temp\ccxEp1Mg.s 			page 8


 200:.\Generated_Source\PSoC5/Tag.c ****             CyIntEnable(Tag_TX_VECT_NUM);
 201:.\Generated_Source\PSoC5/Tag.c ****         #endif /* End Tag_TX_INTERRUPT_ENABLED*/
 202:.\Generated_Source\PSoC5/Tag.c ****      #endif /* End Tag_TX_ENABLED */
 203:.\Generated_Source\PSoC5/Tag.c **** 
 204:.\Generated_Source\PSoC5/Tag.c ****     #if(Tag_INTERNAL_CLOCK_USED)
 205:.\Generated_Source\PSoC5/Tag.c ****         /* Enable the clock. */
 206:.\Generated_Source\PSoC5/Tag.c ****         Tag_IntClock_Start();
 201              		.loc 1 206 0
 202 0044 FFF7FEFF 		bl	Tag_IntClock_Start
 207:.\Generated_Source\PSoC5/Tag.c ****     #endif /* End Tag_INTERNAL_CLOCK_USED */
 208:.\Generated_Source\PSoC5/Tag.c **** 
 209:.\Generated_Source\PSoC5/Tag.c ****     CyExitCriticalSection(enableInterrupts);
 203              		.loc 1 209 0
 204 0048 FB79     		ldrb	r3, [r7, #7]	@ zero_extendqisi2
 205 004a 1846     		mov	r0, r3
 206 004c FFF7FEFF 		bl	CyExitCriticalSection
 210:.\Generated_Source\PSoC5/Tag.c **** }
 207              		.loc 1 210 0
 208 0050 0837     		adds	r7, r7, #8
 209              		.cfi_def_cfa_offset 8
 210 0052 BD46     		mov	sp, r7
 211              		.cfi_def_cfa_register 13
 212              		@ sp needed
 213 0054 80BD     		pop	{r7, pc}
 214              	.L10:
 215 0056 00BF     		.align	2
 216              	.L9:
 217 0058 94640040 		.word	1073767572
 218 005c 93640040 		.word	1073767571
 219 0060 00E100E0 		.word	-536813312
 220 0064 9B650040 		.word	1073767835
 221              		.cfi_endproc
 222              	.LFE2:
 223              		.size	Tag_Enable, .-Tag_Enable
 224              		.section	.text.Tag_Stop,"ax",%progbits
 225              		.align	2
 226              		.global	Tag_Stop
 227              		.thumb
 228              		.thumb_func
 229              		.type	Tag_Stop, %function
 230              	Tag_Stop:
 231              	.LFB3:
 211:.\Generated_Source\PSoC5/Tag.c **** 
 212:.\Generated_Source\PSoC5/Tag.c **** 
 213:.\Generated_Source\PSoC5/Tag.c **** /*******************************************************************************
 214:.\Generated_Source\PSoC5/Tag.c **** * Function Name: Tag_Stop
 215:.\Generated_Source\PSoC5/Tag.c **** ********************************************************************************
 216:.\Generated_Source\PSoC5/Tag.c **** *
 217:.\Generated_Source\PSoC5/Tag.c **** * Summary:
 218:.\Generated_Source\PSoC5/Tag.c **** *  Disable the UART component
 219:.\Generated_Source\PSoC5/Tag.c **** *
 220:.\Generated_Source\PSoC5/Tag.c **** * Parameters:
 221:.\Generated_Source\PSoC5/Tag.c **** *  None.
 222:.\Generated_Source\PSoC5/Tag.c **** *
 223:.\Generated_Source\PSoC5/Tag.c **** * Return:
 224:.\Generated_Source\PSoC5/Tag.c **** *  None.
 225:.\Generated_Source\PSoC5/Tag.c **** *
ARM GAS  C:\Users\Lenovo\AppData\Local\Temp\ccxEp1Mg.s 			page 9


 226:.\Generated_Source\PSoC5/Tag.c **** *******************************************************************************/
 227:.\Generated_Source\PSoC5/Tag.c **** void Tag_Stop(void) 
 228:.\Generated_Source\PSoC5/Tag.c **** {
 232              		.loc 1 228 0
 233              		.cfi_startproc
 234              		@ args = 0, pretend = 0, frame = 8
 235              		@ frame_needed = 1, uses_anonymous_args = 0
 236 0000 80B5     		push	{r7, lr}
 237              		.cfi_def_cfa_offset 8
 238              		.cfi_offset 7, -8
 239              		.cfi_offset 14, -4
 240 0002 82B0     		sub	sp, sp, #8
 241              		.cfi_def_cfa_offset 16
 242 0004 00AF     		add	r7, sp, #0
 243              		.cfi_def_cfa_register 7
 229:.\Generated_Source\PSoC5/Tag.c ****     uint8 enableInterrupts;
 230:.\Generated_Source\PSoC5/Tag.c ****     enableInterrupts = CyEnterCriticalSection();
 244              		.loc 1 230 0
 245 0006 FFF7FEFF 		bl	CyEnterCriticalSection
 246 000a 0346     		mov	r3, r0
 247 000c FB71     		strb	r3, [r7, #7]
 231:.\Generated_Source\PSoC5/Tag.c **** 
 232:.\Generated_Source\PSoC5/Tag.c ****     /* Write Bit Counter Disable */
 233:.\Generated_Source\PSoC5/Tag.c ****     #if(Tag_RX_ENABLED || Tag_HD_ENABLED)
 234:.\Generated_Source\PSoC5/Tag.c ****         Tag_RXBITCTR_CONTROL_REG &= (uint8)~Tag_CNTR_ENABLE;
 248              		.loc 1 234 0
 249 000e 114A     		ldr	r2, .L12
 250 0010 104B     		ldr	r3, .L12
 251 0012 1B78     		ldrb	r3, [r3]
 252 0014 DBB2     		uxtb	r3, r3
 253 0016 23F02003 		bic	r3, r3, #32
 254 001a DBB2     		uxtb	r3, r3
 255 001c 1370     		strb	r3, [r2]
 235:.\Generated_Source\PSoC5/Tag.c ****     #endif /* End Tag_RX_ENABLED */
 236:.\Generated_Source\PSoC5/Tag.c **** 
 237:.\Generated_Source\PSoC5/Tag.c ****     #if(Tag_TX_ENABLED)
 238:.\Generated_Source\PSoC5/Tag.c ****         #if(!Tag_TXCLKGEN_DP)
 239:.\Generated_Source\PSoC5/Tag.c ****             Tag_TXBITCTR_CONTROL_REG &= (uint8)~Tag_CNTR_ENABLE;
 240:.\Generated_Source\PSoC5/Tag.c ****         #endif /* End Tag_TXCLKGEN_DP */
 241:.\Generated_Source\PSoC5/Tag.c ****     #endif /* Tag_TX_ENABLED */
 242:.\Generated_Source\PSoC5/Tag.c **** 
 243:.\Generated_Source\PSoC5/Tag.c ****     #if(Tag_INTERNAL_CLOCK_USED)
 244:.\Generated_Source\PSoC5/Tag.c ****         /* Disable the clock. */
 245:.\Generated_Source\PSoC5/Tag.c ****         Tag_IntClock_Stop();
 256              		.loc 1 245 0
 257 001e FFF7FEFF 		bl	Tag_IntClock_Stop
 246:.\Generated_Source\PSoC5/Tag.c ****     #endif /* End Tag_INTERNAL_CLOCK_USED */
 247:.\Generated_Source\PSoC5/Tag.c **** 
 248:.\Generated_Source\PSoC5/Tag.c ****     /* Disable internal interrupt component */
 249:.\Generated_Source\PSoC5/Tag.c ****     #if(Tag_RX_ENABLED || Tag_HD_ENABLED)
 250:.\Generated_Source\PSoC5/Tag.c ****         Tag_RXSTATUS_ACTL_REG  &= (uint8)~Tag_INT_ENABLE;
 258              		.loc 1 250 0
 259 0022 0D4A     		ldr	r2, .L12+4
 260 0024 0C4B     		ldr	r3, .L12+4
 261 0026 1B78     		ldrb	r3, [r3]
 262 0028 DBB2     		uxtb	r3, r3
 263 002a 23F01003 		bic	r3, r3, #16
ARM GAS  C:\Users\Lenovo\AppData\Local\Temp\ccxEp1Mg.s 			page 10


 264 002e DBB2     		uxtb	r3, r3
 265 0030 1370     		strb	r3, [r2]
 251:.\Generated_Source\PSoC5/Tag.c ****         #if(Tag_RX_INTERRUPT_ENABLED && (Tag_RXBUFFERSIZE > Tag_FIFO_LENGTH))
 252:.\Generated_Source\PSoC5/Tag.c ****             Tag_DisableRxInt();
 266              		.loc 1 252 0
 267 0032 FFF7FEFF 		bl	Tag_DisableRxInt
 253:.\Generated_Source\PSoC5/Tag.c ****         #endif /* End Tag_RX_INTERRUPT_ENABLED */
 254:.\Generated_Source\PSoC5/Tag.c ****     #endif /* End Tag_RX_ENABLED */
 255:.\Generated_Source\PSoC5/Tag.c **** 
 256:.\Generated_Source\PSoC5/Tag.c ****     #if(Tag_TX_ENABLED)
 257:.\Generated_Source\PSoC5/Tag.c ****         Tag_TXSTATUS_ACTL_REG &= (uint8)~Tag_INT_ENABLE;
 268              		.loc 1 257 0
 269 0036 094A     		ldr	r2, .L12+8
 270 0038 084B     		ldr	r3, .L12+8
 271 003a 1B78     		ldrb	r3, [r3]
 272 003c DBB2     		uxtb	r3, r3
 273 003e 23F01003 		bic	r3, r3, #16
 274 0042 DBB2     		uxtb	r3, r3
 275 0044 1370     		strb	r3, [r2]
 258:.\Generated_Source\PSoC5/Tag.c ****         #if(Tag_TX_INTERRUPT_ENABLED && (Tag_TXBUFFERSIZE > Tag_FIFO_LENGTH))
 259:.\Generated_Source\PSoC5/Tag.c ****             Tag_DisableTxInt();
 260:.\Generated_Source\PSoC5/Tag.c ****         #endif /* End Tag_TX_INTERRUPT_ENABLED */
 261:.\Generated_Source\PSoC5/Tag.c ****     #endif /* End Tag_TX_ENABLED */
 262:.\Generated_Source\PSoC5/Tag.c **** 
 263:.\Generated_Source\PSoC5/Tag.c ****     CyExitCriticalSection(enableInterrupts);
 276              		.loc 1 263 0
 277 0046 FB79     		ldrb	r3, [r7, #7]	@ zero_extendqisi2
 278 0048 1846     		mov	r0, r3
 279 004a FFF7FEFF 		bl	CyExitCriticalSection
 264:.\Generated_Source\PSoC5/Tag.c **** }
 280              		.loc 1 264 0
 281 004e 0837     		adds	r7, r7, #8
 282              		.cfi_def_cfa_offset 8
 283 0050 BD46     		mov	sp, r7
 284              		.cfi_def_cfa_register 13
 285              		@ sp needed
 286 0052 80BD     		pop	{r7, pc}
 287              	.L13:
 288              		.align	2
 289              	.L12:
 290 0054 94640040 		.word	1073767572
 291 0058 93640040 		.word	1073767571
 292 005c 9B650040 		.word	1073767835
 293              		.cfi_endproc
 294              	.LFE3:
 295              		.size	Tag_Stop, .-Tag_Stop
 296              		.section	.text.Tag_ReadControlRegister,"ax",%progbits
 297              		.align	2
 298              		.global	Tag_ReadControlRegister
 299              		.thumb
 300              		.thumb_func
 301              		.type	Tag_ReadControlRegister, %function
 302              	Tag_ReadControlRegister:
 303              	.LFB4:
 265:.\Generated_Source\PSoC5/Tag.c **** 
 266:.\Generated_Source\PSoC5/Tag.c **** 
 267:.\Generated_Source\PSoC5/Tag.c **** /*******************************************************************************
ARM GAS  C:\Users\Lenovo\AppData\Local\Temp\ccxEp1Mg.s 			page 11


 268:.\Generated_Source\PSoC5/Tag.c **** * Function Name: Tag_ReadControlRegister
 269:.\Generated_Source\PSoC5/Tag.c **** ********************************************************************************
 270:.\Generated_Source\PSoC5/Tag.c **** *
 271:.\Generated_Source\PSoC5/Tag.c **** * Summary:
 272:.\Generated_Source\PSoC5/Tag.c **** *  Read the current state of the control register
 273:.\Generated_Source\PSoC5/Tag.c **** *
 274:.\Generated_Source\PSoC5/Tag.c **** * Parameters:
 275:.\Generated_Source\PSoC5/Tag.c **** *  None.
 276:.\Generated_Source\PSoC5/Tag.c **** *
 277:.\Generated_Source\PSoC5/Tag.c **** * Return:
 278:.\Generated_Source\PSoC5/Tag.c **** *  Current state of the control register.
 279:.\Generated_Source\PSoC5/Tag.c **** *
 280:.\Generated_Source\PSoC5/Tag.c **** *******************************************************************************/
 281:.\Generated_Source\PSoC5/Tag.c **** uint8 Tag_ReadControlRegister(void) 
 282:.\Generated_Source\PSoC5/Tag.c **** {
 304              		.loc 1 282 0
 305              		.cfi_startproc
 306              		@ args = 0, pretend = 0, frame = 0
 307              		@ frame_needed = 1, uses_anonymous_args = 0
 308              		@ link register save eliminated.
 309 0000 80B4     		push	{r7}
 310              		.cfi_def_cfa_offset 4
 311              		.cfi_offset 7, -4
 312 0002 00AF     		add	r7, sp, #0
 313              		.cfi_def_cfa_register 7
 283:.\Generated_Source\PSoC5/Tag.c ****     #if( Tag_CONTROL_REG_REMOVED )
 284:.\Generated_Source\PSoC5/Tag.c ****         return(0u);
 314              		.loc 1 284 0
 315 0004 0023     		movs	r3, #0
 285:.\Generated_Source\PSoC5/Tag.c ****     #else
 286:.\Generated_Source\PSoC5/Tag.c ****         return(Tag_CONTROL_REG);
 287:.\Generated_Source\PSoC5/Tag.c ****     #endif /* End Tag_CONTROL_REG_REMOVED */
 288:.\Generated_Source\PSoC5/Tag.c **** }
 316              		.loc 1 288 0
 317 0006 1846     		mov	r0, r3
 318 0008 BD46     		mov	sp, r7
 319              		.cfi_def_cfa_register 13
 320              		@ sp needed
 321 000a 5DF8047B 		ldr	r7, [sp], #4
 322              		.cfi_restore 7
 323              		.cfi_def_cfa_offset 0
 324 000e 7047     		bx	lr
 325              		.cfi_endproc
 326              	.LFE4:
 327              		.size	Tag_ReadControlRegister, .-Tag_ReadControlRegister
 328              		.section	.text.Tag_WriteControlRegister,"ax",%progbits
 329              		.align	2
 330              		.global	Tag_WriteControlRegister
 331              		.thumb
 332              		.thumb_func
 333              		.type	Tag_WriteControlRegister, %function
 334              	Tag_WriteControlRegister:
 335              	.LFB5:
 289:.\Generated_Source\PSoC5/Tag.c **** 
 290:.\Generated_Source\PSoC5/Tag.c **** 
 291:.\Generated_Source\PSoC5/Tag.c **** /*******************************************************************************
 292:.\Generated_Source\PSoC5/Tag.c **** * Function Name: Tag_WriteControlRegister
ARM GAS  C:\Users\Lenovo\AppData\Local\Temp\ccxEp1Mg.s 			page 12


 293:.\Generated_Source\PSoC5/Tag.c **** ********************************************************************************
 294:.\Generated_Source\PSoC5/Tag.c **** *
 295:.\Generated_Source\PSoC5/Tag.c **** * Summary:
 296:.\Generated_Source\PSoC5/Tag.c **** *  Writes an 8-bit value into the control register
 297:.\Generated_Source\PSoC5/Tag.c **** *
 298:.\Generated_Source\PSoC5/Tag.c **** * Parameters:
 299:.\Generated_Source\PSoC5/Tag.c **** *  control:  control register value
 300:.\Generated_Source\PSoC5/Tag.c **** *
 301:.\Generated_Source\PSoC5/Tag.c **** * Return:
 302:.\Generated_Source\PSoC5/Tag.c **** *  None.
 303:.\Generated_Source\PSoC5/Tag.c **** *
 304:.\Generated_Source\PSoC5/Tag.c **** *******************************************************************************/
 305:.\Generated_Source\PSoC5/Tag.c **** void  Tag_WriteControlRegister(uint8 control) 
 306:.\Generated_Source\PSoC5/Tag.c **** {
 336              		.loc 1 306 0
 337              		.cfi_startproc
 338              		@ args = 0, pretend = 0, frame = 8
 339              		@ frame_needed = 1, uses_anonymous_args = 0
 340              		@ link register save eliminated.
 341 0000 80B4     		push	{r7}
 342              		.cfi_def_cfa_offset 4
 343              		.cfi_offset 7, -4
 344 0002 83B0     		sub	sp, sp, #12
 345              		.cfi_def_cfa_offset 16
 346 0004 00AF     		add	r7, sp, #0
 347              		.cfi_def_cfa_register 7
 348 0006 0346     		mov	r3, r0
 349 0008 FB71     		strb	r3, [r7, #7]
 307:.\Generated_Source\PSoC5/Tag.c ****     #if( Tag_CONTROL_REG_REMOVED )
 308:.\Generated_Source\PSoC5/Tag.c ****         if(control != 0u) { }      /* release compiler warning */
 309:.\Generated_Source\PSoC5/Tag.c ****     #else
 310:.\Generated_Source\PSoC5/Tag.c ****        Tag_CONTROL_REG = control;
 311:.\Generated_Source\PSoC5/Tag.c ****     #endif /* End Tag_CONTROL_REG_REMOVED */
 312:.\Generated_Source\PSoC5/Tag.c **** }
 350              		.loc 1 312 0
 351 000a 0C37     		adds	r7, r7, #12
 352              		.cfi_def_cfa_offset 4
 353 000c BD46     		mov	sp, r7
 354              		.cfi_def_cfa_register 13
 355              		@ sp needed
 356 000e 5DF8047B 		ldr	r7, [sp], #4
 357              		.cfi_restore 7
 358              		.cfi_def_cfa_offset 0
 359 0012 7047     		bx	lr
 360              		.cfi_endproc
 361              	.LFE5:
 362              		.size	Tag_WriteControlRegister, .-Tag_WriteControlRegister
 363              		.section	.text.Tag_EnableRxInt,"ax",%progbits
 364              		.align	2
 365              		.global	Tag_EnableRxInt
 366              		.thumb
 367              		.thumb_func
 368              		.type	Tag_EnableRxInt, %function
 369              	Tag_EnableRxInt:
 370              	.LFB6:
 313:.\Generated_Source\PSoC5/Tag.c **** 
 314:.\Generated_Source\PSoC5/Tag.c **** 
ARM GAS  C:\Users\Lenovo\AppData\Local\Temp\ccxEp1Mg.s 			page 13


 315:.\Generated_Source\PSoC5/Tag.c **** #if(Tag_RX_ENABLED || Tag_HD_ENABLED)
 316:.\Generated_Source\PSoC5/Tag.c **** 
 317:.\Generated_Source\PSoC5/Tag.c ****     #if(Tag_RX_INTERRUPT_ENABLED)
 318:.\Generated_Source\PSoC5/Tag.c **** 
 319:.\Generated_Source\PSoC5/Tag.c ****         /*******************************************************************************
 320:.\Generated_Source\PSoC5/Tag.c ****         * Function Name: Tag_EnableRxInt
 321:.\Generated_Source\PSoC5/Tag.c ****         ********************************************************************************
 322:.\Generated_Source\PSoC5/Tag.c ****         *
 323:.\Generated_Source\PSoC5/Tag.c ****         * Summary:
 324:.\Generated_Source\PSoC5/Tag.c ****         *  Enable RX interrupt generation
 325:.\Generated_Source\PSoC5/Tag.c ****         *
 326:.\Generated_Source\PSoC5/Tag.c ****         * Parameters:
 327:.\Generated_Source\PSoC5/Tag.c ****         *  None.
 328:.\Generated_Source\PSoC5/Tag.c ****         *
 329:.\Generated_Source\PSoC5/Tag.c ****         * Return:
 330:.\Generated_Source\PSoC5/Tag.c ****         *  None.
 331:.\Generated_Source\PSoC5/Tag.c ****         *
 332:.\Generated_Source\PSoC5/Tag.c ****         * Theory:
 333:.\Generated_Source\PSoC5/Tag.c ****         *  Enable the interrupt output -or- the interrupt component itself
 334:.\Generated_Source\PSoC5/Tag.c ****         *
 335:.\Generated_Source\PSoC5/Tag.c ****         *******************************************************************************/
 336:.\Generated_Source\PSoC5/Tag.c ****         void Tag_EnableRxInt(void) 
 337:.\Generated_Source\PSoC5/Tag.c ****         {
 371              		.loc 1 337 0
 372              		.cfi_startproc
 373              		@ args = 0, pretend = 0, frame = 0
 374              		@ frame_needed = 1, uses_anonymous_args = 0
 375              		@ link register save eliminated.
 376 0000 80B4     		push	{r7}
 377              		.cfi_def_cfa_offset 4
 378              		.cfi_offset 7, -4
 379 0002 00AF     		add	r7, sp, #0
 380              		.cfi_def_cfa_register 7
 338:.\Generated_Source\PSoC5/Tag.c ****             CyIntEnable(Tag_RX_VECT_NUM);
 381              		.loc 1 338 0
 382 0004 034B     		ldr	r3, .L18
 383 0006 2022     		movs	r2, #32
 384 0008 1A60     		str	r2, [r3]
 339:.\Generated_Source\PSoC5/Tag.c ****         }
 385              		.loc 1 339 0
 386 000a BD46     		mov	sp, r7
 387              		.cfi_def_cfa_register 13
 388              		@ sp needed
 389 000c 5DF8047B 		ldr	r7, [sp], #4
 390              		.cfi_restore 7
 391              		.cfi_def_cfa_offset 0
 392 0010 7047     		bx	lr
 393              	.L19:
 394 0012 00BF     		.align	2
 395              	.L18:
 396 0014 00E100E0 		.word	-536813312
 397              		.cfi_endproc
 398              	.LFE6:
 399              		.size	Tag_EnableRxInt, .-Tag_EnableRxInt
 400              		.section	.text.Tag_DisableRxInt,"ax",%progbits
 401              		.align	2
 402              		.global	Tag_DisableRxInt
ARM GAS  C:\Users\Lenovo\AppData\Local\Temp\ccxEp1Mg.s 			page 14


 403              		.thumb
 404              		.thumb_func
 405              		.type	Tag_DisableRxInt, %function
 406              	Tag_DisableRxInt:
 407              	.LFB7:
 340:.\Generated_Source\PSoC5/Tag.c **** 
 341:.\Generated_Source\PSoC5/Tag.c **** 
 342:.\Generated_Source\PSoC5/Tag.c ****         /*******************************************************************************
 343:.\Generated_Source\PSoC5/Tag.c ****         * Function Name: Tag_DisableRxInt
 344:.\Generated_Source\PSoC5/Tag.c ****         ********************************************************************************
 345:.\Generated_Source\PSoC5/Tag.c ****         *
 346:.\Generated_Source\PSoC5/Tag.c ****         * Summary:
 347:.\Generated_Source\PSoC5/Tag.c ****         *  Disable RX interrupt generation
 348:.\Generated_Source\PSoC5/Tag.c ****         *
 349:.\Generated_Source\PSoC5/Tag.c ****         * Parameters:
 350:.\Generated_Source\PSoC5/Tag.c ****         *  None.
 351:.\Generated_Source\PSoC5/Tag.c ****         *
 352:.\Generated_Source\PSoC5/Tag.c ****         * Return:
 353:.\Generated_Source\PSoC5/Tag.c ****         *  None.
 354:.\Generated_Source\PSoC5/Tag.c ****         *
 355:.\Generated_Source\PSoC5/Tag.c ****         * Theory:
 356:.\Generated_Source\PSoC5/Tag.c ****         *  Disable the interrupt output -or- the interrupt component itself
 357:.\Generated_Source\PSoC5/Tag.c ****         *
 358:.\Generated_Source\PSoC5/Tag.c ****         *******************************************************************************/
 359:.\Generated_Source\PSoC5/Tag.c ****         void Tag_DisableRxInt(void) 
 360:.\Generated_Source\PSoC5/Tag.c ****         {
 408              		.loc 1 360 0
 409              		.cfi_startproc
 410              		@ args = 0, pretend = 0, frame = 0
 411              		@ frame_needed = 1, uses_anonymous_args = 0
 412              		@ link register save eliminated.
 413 0000 80B4     		push	{r7}
 414              		.cfi_def_cfa_offset 4
 415              		.cfi_offset 7, -4
 416 0002 00AF     		add	r7, sp, #0
 417              		.cfi_def_cfa_register 7
 361:.\Generated_Source\PSoC5/Tag.c ****             CyIntDisable(Tag_RX_VECT_NUM);
 418              		.loc 1 361 0
 419 0004 034B     		ldr	r3, .L21
 420 0006 2022     		movs	r2, #32
 421 0008 1A60     		str	r2, [r3]
 362:.\Generated_Source\PSoC5/Tag.c ****         }
 422              		.loc 1 362 0
 423 000a BD46     		mov	sp, r7
 424              		.cfi_def_cfa_register 13
 425              		@ sp needed
 426 000c 5DF8047B 		ldr	r7, [sp], #4
 427              		.cfi_restore 7
 428              		.cfi_def_cfa_offset 0
 429 0010 7047     		bx	lr
 430              	.L22:
 431 0012 00BF     		.align	2
 432              	.L21:
 433 0014 80E100E0 		.word	-536813184
 434              		.cfi_endproc
 435              	.LFE7:
 436              		.size	Tag_DisableRxInt, .-Tag_DisableRxInt
ARM GAS  C:\Users\Lenovo\AppData\Local\Temp\ccxEp1Mg.s 			page 15


 437              		.section	.text.Tag_SetRxInterruptMode,"ax",%progbits
 438              		.align	2
 439              		.global	Tag_SetRxInterruptMode
 440              		.thumb
 441              		.thumb_func
 442              		.type	Tag_SetRxInterruptMode, %function
 443              	Tag_SetRxInterruptMode:
 444              	.LFB8:
 363:.\Generated_Source\PSoC5/Tag.c **** 
 364:.\Generated_Source\PSoC5/Tag.c ****     #endif /* Tag_RX_INTERRUPT_ENABLED */
 365:.\Generated_Source\PSoC5/Tag.c **** 
 366:.\Generated_Source\PSoC5/Tag.c **** 
 367:.\Generated_Source\PSoC5/Tag.c ****     /*******************************************************************************
 368:.\Generated_Source\PSoC5/Tag.c ****     * Function Name: Tag_SetRxInterruptMode
 369:.\Generated_Source\PSoC5/Tag.c ****     ********************************************************************************
 370:.\Generated_Source\PSoC5/Tag.c ****     *
 371:.\Generated_Source\PSoC5/Tag.c ****     * Summary:
 372:.\Generated_Source\PSoC5/Tag.c ****     *  Configure which status bits trigger an interrupt event
 373:.\Generated_Source\PSoC5/Tag.c ****     *
 374:.\Generated_Source\PSoC5/Tag.c ****     * Parameters:
 375:.\Generated_Source\PSoC5/Tag.c ****     *  IntSrc:  An or'd combination of the desired status bit masks (defined in
 376:.\Generated_Source\PSoC5/Tag.c ****     *           the header file)
 377:.\Generated_Source\PSoC5/Tag.c ****     *
 378:.\Generated_Source\PSoC5/Tag.c ****     * Return:
 379:.\Generated_Source\PSoC5/Tag.c ****     *  None.
 380:.\Generated_Source\PSoC5/Tag.c ****     *
 381:.\Generated_Source\PSoC5/Tag.c ****     * Theory:
 382:.\Generated_Source\PSoC5/Tag.c ****     *  Enables the output of specific status bits to the interrupt controller
 383:.\Generated_Source\PSoC5/Tag.c ****     *
 384:.\Generated_Source\PSoC5/Tag.c ****     *******************************************************************************/
 385:.\Generated_Source\PSoC5/Tag.c ****     void Tag_SetRxInterruptMode(uint8 intSrc) 
 386:.\Generated_Source\PSoC5/Tag.c ****     {
 445              		.loc 1 386 0
 446              		.cfi_startproc
 447              		@ args = 0, pretend = 0, frame = 8
 448              		@ frame_needed = 1, uses_anonymous_args = 0
 449              		@ link register save eliminated.
 450 0000 80B4     		push	{r7}
 451              		.cfi_def_cfa_offset 4
 452              		.cfi_offset 7, -4
 453 0002 83B0     		sub	sp, sp, #12
 454              		.cfi_def_cfa_offset 16
 455 0004 00AF     		add	r7, sp, #0
 456              		.cfi_def_cfa_register 7
 457 0006 0346     		mov	r3, r0
 458 0008 FB71     		strb	r3, [r7, #7]
 387:.\Generated_Source\PSoC5/Tag.c ****         Tag_RXSTATUS_MASK_REG  = intSrc;
 459              		.loc 1 387 0
 460 000a 044A     		ldr	r2, .L24
 461 000c FB79     		ldrb	r3, [r7, #7]
 462 000e 1370     		strb	r3, [r2]
 388:.\Generated_Source\PSoC5/Tag.c ****     }
 463              		.loc 1 388 0
 464 0010 0C37     		adds	r7, r7, #12
 465              		.cfi_def_cfa_offset 4
 466 0012 BD46     		mov	sp, r7
 467              		.cfi_def_cfa_register 13
ARM GAS  C:\Users\Lenovo\AppData\Local\Temp\ccxEp1Mg.s 			page 16


 468              		@ sp needed
 469 0014 5DF8047B 		ldr	r7, [sp], #4
 470              		.cfi_restore 7
 471              		.cfi_def_cfa_offset 0
 472 0018 7047     		bx	lr
 473              	.L25:
 474 001a 00BF     		.align	2
 475              	.L24:
 476 001c 83640040 		.word	1073767555
 477              		.cfi_endproc
 478              	.LFE8:
 479              		.size	Tag_SetRxInterruptMode, .-Tag_SetRxInterruptMode
 480              		.section	.text.Tag_ReadRxData,"ax",%progbits
 481              		.align	2
 482              		.global	Tag_ReadRxData
 483              		.thumb
 484              		.thumb_func
 485              		.type	Tag_ReadRxData, %function
 486              	Tag_ReadRxData:
 487              	.LFB9:
 389:.\Generated_Source\PSoC5/Tag.c **** 
 390:.\Generated_Source\PSoC5/Tag.c **** 
 391:.\Generated_Source\PSoC5/Tag.c ****     /*******************************************************************************
 392:.\Generated_Source\PSoC5/Tag.c ****     * Function Name: Tag_ReadRxData
 393:.\Generated_Source\PSoC5/Tag.c ****     ********************************************************************************
 394:.\Generated_Source\PSoC5/Tag.c ****     *
 395:.\Generated_Source\PSoC5/Tag.c ****     * Summary:
 396:.\Generated_Source\PSoC5/Tag.c ****     *  Returns data in RX Data register without checking status register to
 397:.\Generated_Source\PSoC5/Tag.c ****     *  determine if data is valid
 398:.\Generated_Source\PSoC5/Tag.c ****     *
 399:.\Generated_Source\PSoC5/Tag.c ****     * Parameters:
 400:.\Generated_Source\PSoC5/Tag.c ****     *  None.
 401:.\Generated_Source\PSoC5/Tag.c ****     *
 402:.\Generated_Source\PSoC5/Tag.c ****     * Return:
 403:.\Generated_Source\PSoC5/Tag.c ****     *  Received data from RX register
 404:.\Generated_Source\PSoC5/Tag.c ****     *
 405:.\Generated_Source\PSoC5/Tag.c ****     * Global Variables:
 406:.\Generated_Source\PSoC5/Tag.c ****     *  Tag_rxBuffer - RAM buffer pointer for save received data.
 407:.\Generated_Source\PSoC5/Tag.c ****     *  Tag_rxBufferWrite - cyclic index for write to rxBuffer,
 408:.\Generated_Source\PSoC5/Tag.c ****     *     checked to identify new data.
 409:.\Generated_Source\PSoC5/Tag.c ****     *  Tag_rxBufferRead - cyclic index for read from rxBuffer,
 410:.\Generated_Source\PSoC5/Tag.c ****     *     incremented after each byte has been read from buffer.
 411:.\Generated_Source\PSoC5/Tag.c ****     *  Tag_rxBufferLoopDetect - creared if loop condition was detected
 412:.\Generated_Source\PSoC5/Tag.c ****     *     in RX ISR.
 413:.\Generated_Source\PSoC5/Tag.c ****     *
 414:.\Generated_Source\PSoC5/Tag.c ****     * Reentrant:
 415:.\Generated_Source\PSoC5/Tag.c ****     *  No.
 416:.\Generated_Source\PSoC5/Tag.c ****     *
 417:.\Generated_Source\PSoC5/Tag.c ****     *******************************************************************************/
 418:.\Generated_Source\PSoC5/Tag.c ****     uint8 Tag_ReadRxData(void) 
 419:.\Generated_Source\PSoC5/Tag.c ****     {
 488              		.loc 1 419 0
 489              		.cfi_startproc
 490              		@ args = 0, pretend = 0, frame = 8
 491              		@ frame_needed = 1, uses_anonymous_args = 0
 492 0000 80B5     		push	{r7, lr}
 493              		.cfi_def_cfa_offset 8
ARM GAS  C:\Users\Lenovo\AppData\Local\Temp\ccxEp1Mg.s 			page 17


 494              		.cfi_offset 7, -8
 495              		.cfi_offset 14, -4
 496 0002 82B0     		sub	sp, sp, #8
 497              		.cfi_def_cfa_offset 16
 498 0004 00AF     		add	r7, sp, #0
 499              		.cfi_def_cfa_register 7
 420:.\Generated_Source\PSoC5/Tag.c ****         uint8 rxData;
 421:.\Generated_Source\PSoC5/Tag.c **** 
 422:.\Generated_Source\PSoC5/Tag.c ****         #if(Tag_RXBUFFERSIZE > Tag_FIFO_LENGTH)
 423:.\Generated_Source\PSoC5/Tag.c ****             uint16 loc_rxBufferRead;
 424:.\Generated_Source\PSoC5/Tag.c ****             uint16 loc_rxBufferWrite;
 425:.\Generated_Source\PSoC5/Tag.c ****             /* Protect variables that could change on interrupt. */
 426:.\Generated_Source\PSoC5/Tag.c ****             /* Disable Rx interrupt. */
 427:.\Generated_Source\PSoC5/Tag.c ****             #if(Tag_RX_INTERRUPT_ENABLED)
 428:.\Generated_Source\PSoC5/Tag.c ****                 Tag_DisableRxInt();
 500              		.loc 1 428 0
 501 0006 FFF7FEFF 		bl	Tag_DisableRxInt
 429:.\Generated_Source\PSoC5/Tag.c ****             #endif /* Tag_RX_INTERRUPT_ENABLED */
 430:.\Generated_Source\PSoC5/Tag.c ****             loc_rxBufferRead = Tag_rxBufferRead;
 502              		.loc 1 430 0
 503 000a 194B     		ldr	r3, .L33
 504 000c 1B88     		ldrh	r3, [r3]	@ movhi
 505 000e BB80     		strh	r3, [r7, #4]	@ movhi
 431:.\Generated_Source\PSoC5/Tag.c ****             loc_rxBufferWrite = Tag_rxBufferWrite;
 506              		.loc 1 431 0
 507 0010 184B     		ldr	r3, .L33+4
 508 0012 1B88     		ldrh	r3, [r3]	@ movhi
 509 0014 7B80     		strh	r3, [r7, #2]	@ movhi
 432:.\Generated_Source\PSoC5/Tag.c **** 
 433:.\Generated_Source\PSoC5/Tag.c ****             if( (Tag_rxBufferLoopDetect != 0u) || (loc_rxBufferRead != loc_rxBufferWrite) )
 510              		.loc 1 433 0
 511 0016 184B     		ldr	r3, .L33+8
 512 0018 1B78     		ldrb	r3, [r3]
 513 001a DBB2     		uxtb	r3, r3
 514 001c 002B     		cmp	r3, #0
 515 001e 03D1     		bne	.L27
 516              		.loc 1 433 0 is_stmt 0 discriminator 1
 517 0020 BA88     		ldrh	r2, [r7, #4]
 518 0022 7B88     		ldrh	r3, [r7, #2]
 519 0024 9A42     		cmp	r2, r3
 520 0026 18D0     		beq	.L28
 521              	.L27:
 434:.\Generated_Source\PSoC5/Tag.c ****             {
 435:.\Generated_Source\PSoC5/Tag.c ****                 rxData = Tag_rxBuffer[loc_rxBufferRead];
 522              		.loc 1 435 0 is_stmt 1
 523 0028 BB88     		ldrh	r3, [r7, #4]
 524 002a 144A     		ldr	r2, .L33+12
 525 002c D35C     		ldrb	r3, [r2, r3]
 526 002e FB71     		strb	r3, [r7, #7]
 436:.\Generated_Source\PSoC5/Tag.c ****                 loc_rxBufferRead++;
 527              		.loc 1 436 0
 528 0030 BB88     		ldrh	r3, [r7, #4]
 529 0032 0133     		adds	r3, r3, #1
 530 0034 BB80     		strh	r3, [r7, #4]	@ movhi
 437:.\Generated_Source\PSoC5/Tag.c **** 
 438:.\Generated_Source\PSoC5/Tag.c ****                 if(loc_rxBufferRead >= Tag_RXBUFFERSIZE)
 531              		.loc 1 438 0
ARM GAS  C:\Users\Lenovo\AppData\Local\Temp\ccxEp1Mg.s 			page 18


 532 0036 BB88     		ldrh	r3, [r7, #4]
 533 0038 FF2B     		cmp	r3, #255
 534 003a 01D9     		bls	.L29
 439:.\Generated_Source\PSoC5/Tag.c ****                 {
 440:.\Generated_Source\PSoC5/Tag.c ****                     loc_rxBufferRead = 0u;
 535              		.loc 1 440 0
 536 003c 0023     		movs	r3, #0
 537 003e BB80     		strh	r3, [r7, #4]	@ movhi
 538              	.L29:
 441:.\Generated_Source\PSoC5/Tag.c ****                 }
 442:.\Generated_Source\PSoC5/Tag.c ****                 /* Update the real pointer */
 443:.\Generated_Source\PSoC5/Tag.c ****                 Tag_rxBufferRead = loc_rxBufferRead;
 539              		.loc 1 443 0
 540 0040 0B4A     		ldr	r2, .L33
 541 0042 BB88     		ldrh	r3, [r7, #4]	@ movhi
 542 0044 1380     		strh	r3, [r2]	@ movhi
 444:.\Generated_Source\PSoC5/Tag.c **** 
 445:.\Generated_Source\PSoC5/Tag.c ****                 if(Tag_rxBufferLoopDetect != 0u )
 543              		.loc 1 445 0
 544 0046 0C4B     		ldr	r3, .L33+8
 545 0048 1B78     		ldrb	r3, [r3]
 546 004a DBB2     		uxtb	r3, r3
 547 004c 002B     		cmp	r3, #0
 548 004e 03D0     		beq	.L30
 446:.\Generated_Source\PSoC5/Tag.c ****                 {
 447:.\Generated_Source\PSoC5/Tag.c ****                     Tag_rxBufferLoopDetect = 0u;
 549              		.loc 1 447 0
 550 0050 094B     		ldr	r3, .L33+8
 551 0052 0022     		movs	r2, #0
 552 0054 1A70     		strb	r2, [r3]
 445:.\Generated_Source\PSoC5/Tag.c ****                 {
 553              		.loc 1 445 0
 554 0056 03E0     		b	.L31
 555              	.L30:
 556 0058 02E0     		b	.L31
 557              	.L28:
 448:.\Generated_Source\PSoC5/Tag.c ****                     #if( (Tag_RX_INTERRUPT_ENABLED) && (Tag_FLOW_CONTROL != 0u) && \
 449:.\Generated_Source\PSoC5/Tag.c ****                          (Tag_RXBUFFERSIZE > Tag_FIFO_LENGTH) )
 450:.\Generated_Source\PSoC5/Tag.c ****                         /* When Hardware Flow Control selected - return RX mask */
 451:.\Generated_Source\PSoC5/Tag.c ****                         #if( Tag_HD_ENABLED )
 452:.\Generated_Source\PSoC5/Tag.c ****                             if((Tag_CONTROL_REG & Tag_CTRL_HD_SEND) == 0u)
 453:.\Generated_Source\PSoC5/Tag.c ****                             {   /* In Half duplex mode return RX mask only in RX
 454:.\Generated_Source\PSoC5/Tag.c ****                                 *  configuration set, otherwise
 455:.\Generated_Source\PSoC5/Tag.c ****                                 *  mask will be returned in LoadRxConfig() API.
 456:.\Generated_Source\PSoC5/Tag.c ****                                 */
 457:.\Generated_Source\PSoC5/Tag.c ****                                 Tag_RXSTATUS_MASK_REG  |= Tag_RX_STS_FIFO_NOTEMPTY;
 458:.\Generated_Source\PSoC5/Tag.c ****                             }
 459:.\Generated_Source\PSoC5/Tag.c ****                         #else
 460:.\Generated_Source\PSoC5/Tag.c ****                             Tag_RXSTATUS_MASK_REG  |= Tag_RX_STS_FIFO_NOTEMPTY;
 461:.\Generated_Source\PSoC5/Tag.c ****                         #endif /* end Tag_HD_ENABLED */
 462:.\Generated_Source\PSoC5/Tag.c ****                     #endif /* Tag_RX_INTERRUPT_ENABLED and Hardware flow control*/
 463:.\Generated_Source\PSoC5/Tag.c ****                 }
 464:.\Generated_Source\PSoC5/Tag.c ****             }
 465:.\Generated_Source\PSoC5/Tag.c ****             else
 466:.\Generated_Source\PSoC5/Tag.c ****             {   /* Needs to check status for RX_STS_FIFO_NOTEMPTY bit*/
 467:.\Generated_Source\PSoC5/Tag.c ****                 rxData = Tag_RXDATA_REG;
 558              		.loc 1 467 0
ARM GAS  C:\Users\Lenovo\AppData\Local\Temp\ccxEp1Mg.s 			page 19


 559 005a 094B     		ldr	r3, .L33+16
 560 005c 1B78     		ldrb	r3, [r3]
 561 005e FB71     		strb	r3, [r7, #7]
 562              	.L31:
 468:.\Generated_Source\PSoC5/Tag.c ****             }
 469:.\Generated_Source\PSoC5/Tag.c **** 
 470:.\Generated_Source\PSoC5/Tag.c ****             /* Enable Rx interrupt. */
 471:.\Generated_Source\PSoC5/Tag.c ****             #if(Tag_RX_INTERRUPT_ENABLED)
 472:.\Generated_Source\PSoC5/Tag.c ****                 Tag_EnableRxInt();
 563              		.loc 1 472 0
 564 0060 FFF7FEFF 		bl	Tag_EnableRxInt
 473:.\Generated_Source\PSoC5/Tag.c ****             #endif /* End Tag_RX_INTERRUPT_ENABLED */
 474:.\Generated_Source\PSoC5/Tag.c **** 
 475:.\Generated_Source\PSoC5/Tag.c ****         #else /* Tag_RXBUFFERSIZE > Tag_FIFO_LENGTH */
 476:.\Generated_Source\PSoC5/Tag.c **** 
 477:.\Generated_Source\PSoC5/Tag.c ****             /* Needs to check status for RX_STS_FIFO_NOTEMPTY bit*/
 478:.\Generated_Source\PSoC5/Tag.c ****             rxData = Tag_RXDATA_REG;
 479:.\Generated_Source\PSoC5/Tag.c **** 
 480:.\Generated_Source\PSoC5/Tag.c ****         #endif /* Tag_RXBUFFERSIZE > Tag_FIFO_LENGTH */
 481:.\Generated_Source\PSoC5/Tag.c **** 
 482:.\Generated_Source\PSoC5/Tag.c ****         return(rxData);
 565              		.loc 1 482 0
 566 0064 FB79     		ldrb	r3, [r7, #7]	@ zero_extendqisi2
 483:.\Generated_Source\PSoC5/Tag.c ****     }
 567              		.loc 1 483 0
 568 0066 1846     		mov	r0, r3
 569 0068 0837     		adds	r7, r7, #8
 570              		.cfi_def_cfa_offset 8
 571 006a BD46     		mov	sp, r7
 572              		.cfi_def_cfa_register 13
 573              		@ sp needed
 574 006c 80BD     		pop	{r7, pc}
 575              	.L34:
 576 006e 00BF     		.align	2
 577              	.L33:
 578 0070 00000000 		.word	Tag_rxBufferRead
 579 0074 00000000 		.word	Tag_rxBufferWrite
 580 0078 00000000 		.word	Tag_rxBufferLoopDetect
 581 007c 00000000 		.word	Tag_rxBuffer
 582 0080 44640040 		.word	1073767492
 583              		.cfi_endproc
 584              	.LFE9:
 585              		.size	Tag_ReadRxData, .-Tag_ReadRxData
 586              		.section	.text.Tag_ReadRxStatus,"ax",%progbits
 587              		.align	2
 588              		.global	Tag_ReadRxStatus
 589              		.thumb
 590              		.thumb_func
 591              		.type	Tag_ReadRxStatus, %function
 592              	Tag_ReadRxStatus:
 593              	.LFB10:
 484:.\Generated_Source\PSoC5/Tag.c **** 
 485:.\Generated_Source\PSoC5/Tag.c **** 
 486:.\Generated_Source\PSoC5/Tag.c ****     /*******************************************************************************
 487:.\Generated_Source\PSoC5/Tag.c ****     * Function Name: Tag_ReadRxStatus
 488:.\Generated_Source\PSoC5/Tag.c ****     ********************************************************************************
 489:.\Generated_Source\PSoC5/Tag.c ****     *
ARM GAS  C:\Users\Lenovo\AppData\Local\Temp\ccxEp1Mg.s 			page 20


 490:.\Generated_Source\PSoC5/Tag.c ****     * Summary:
 491:.\Generated_Source\PSoC5/Tag.c ****     *  Read the current state of the status register
 492:.\Generated_Source\PSoC5/Tag.c ****     *  And detect software buffer overflow.
 493:.\Generated_Source\PSoC5/Tag.c ****     *
 494:.\Generated_Source\PSoC5/Tag.c ****     * Parameters:
 495:.\Generated_Source\PSoC5/Tag.c ****     *  None.
 496:.\Generated_Source\PSoC5/Tag.c ****     *
 497:.\Generated_Source\PSoC5/Tag.c ****     * Return:
 498:.\Generated_Source\PSoC5/Tag.c ****     *  Current state of the status register.
 499:.\Generated_Source\PSoC5/Tag.c ****     *
 500:.\Generated_Source\PSoC5/Tag.c ****     * Global Variables:
 501:.\Generated_Source\PSoC5/Tag.c ****     *  Tag_rxBufferOverflow - used to indicate overload condition.
 502:.\Generated_Source\PSoC5/Tag.c ****     *   It set to one in RX interrupt when there isn?t free space in
 503:.\Generated_Source\PSoC5/Tag.c ****     *   Tag_rxBufferRead to write new data. This condition returned
 504:.\Generated_Source\PSoC5/Tag.c ****     *   and cleared to zero by this API as an
 505:.\Generated_Source\PSoC5/Tag.c ****     *   Tag_RX_STS_SOFT_BUFF_OVER bit along with RX Status register
 506:.\Generated_Source\PSoC5/Tag.c ****     *   bits.
 507:.\Generated_Source\PSoC5/Tag.c ****     *
 508:.\Generated_Source\PSoC5/Tag.c ****     *******************************************************************************/
 509:.\Generated_Source\PSoC5/Tag.c ****     uint8 Tag_ReadRxStatus(void) 
 510:.\Generated_Source\PSoC5/Tag.c ****     {
 594              		.loc 1 510 0
 595              		.cfi_startproc
 596              		@ args = 0, pretend = 0, frame = 8
 597              		@ frame_needed = 1, uses_anonymous_args = 0
 598              		@ link register save eliminated.
 599 0000 80B4     		push	{r7}
 600              		.cfi_def_cfa_offset 4
 601              		.cfi_offset 7, -4
 602 0002 83B0     		sub	sp, sp, #12
 603              		.cfi_def_cfa_offset 16
 604 0004 00AF     		add	r7, sp, #0
 605              		.cfi_def_cfa_register 7
 511:.\Generated_Source\PSoC5/Tag.c ****         uint8 status;
 512:.\Generated_Source\PSoC5/Tag.c **** 
 513:.\Generated_Source\PSoC5/Tag.c ****         status = Tag_RXSTATUS_REG & Tag_RX_HW_MASK;
 606              		.loc 1 513 0
 607 0006 0C4B     		ldr	r3, .L38
 608 0008 1B78     		ldrb	r3, [r3]
 609 000a DBB2     		uxtb	r3, r3
 610 000c 03F07F03 		and	r3, r3, #127
 611 0010 FB71     		strb	r3, [r7, #7]
 514:.\Generated_Source\PSoC5/Tag.c **** 
 515:.\Generated_Source\PSoC5/Tag.c ****         #if(Tag_RXBUFFERSIZE > Tag_FIFO_LENGTH)
 516:.\Generated_Source\PSoC5/Tag.c ****             if( Tag_rxBufferOverflow != 0u )
 612              		.loc 1 516 0
 613 0012 0A4B     		ldr	r3, .L38+4
 614 0014 1B78     		ldrb	r3, [r3]
 615 0016 DBB2     		uxtb	r3, r3
 616 0018 002B     		cmp	r3, #0
 617 001a 06D0     		beq	.L36
 517:.\Generated_Source\PSoC5/Tag.c ****             {
 518:.\Generated_Source\PSoC5/Tag.c ****                 status |= Tag_RX_STS_SOFT_BUFF_OVER;
 618              		.loc 1 518 0
 619 001c FB79     		ldrb	r3, [r7, #7]
 620 001e 63F07F03 		orn	r3, r3, #127
 621 0022 FB71     		strb	r3, [r7, #7]
ARM GAS  C:\Users\Lenovo\AppData\Local\Temp\ccxEp1Mg.s 			page 21


 519:.\Generated_Source\PSoC5/Tag.c ****                 Tag_rxBufferOverflow = 0u;
 622              		.loc 1 519 0
 623 0024 054B     		ldr	r3, .L38+4
 624 0026 0022     		movs	r2, #0
 625 0028 1A70     		strb	r2, [r3]
 626              	.L36:
 520:.\Generated_Source\PSoC5/Tag.c ****             }
 521:.\Generated_Source\PSoC5/Tag.c ****         #endif /* Tag_RXBUFFERSIZE */
 522:.\Generated_Source\PSoC5/Tag.c **** 
 523:.\Generated_Source\PSoC5/Tag.c ****         return(status);
 627              		.loc 1 523 0
 628 002a FB79     		ldrb	r3, [r7, #7]	@ zero_extendqisi2
 524:.\Generated_Source\PSoC5/Tag.c ****     }
 629              		.loc 1 524 0
 630 002c 1846     		mov	r0, r3
 631 002e 0C37     		adds	r7, r7, #12
 632              		.cfi_def_cfa_offset 4
 633 0030 BD46     		mov	sp, r7
 634              		.cfi_def_cfa_register 13
 635              		@ sp needed
 636 0032 5DF8047B 		ldr	r7, [sp], #4
 637              		.cfi_restore 7
 638              		.cfi_def_cfa_offset 0
 639 0036 7047     		bx	lr
 640              	.L39:
 641              		.align	2
 642              	.L38:
 643 0038 63640040 		.word	1073767523
 644 003c 00000000 		.word	Tag_rxBufferOverflow
 645              		.cfi_endproc
 646              	.LFE10:
 647              		.size	Tag_ReadRxStatus, .-Tag_ReadRxStatus
 648              		.section	.text.Tag_GetChar,"ax",%progbits
 649              		.align	2
 650              		.global	Tag_GetChar
 651              		.thumb
 652              		.thumb_func
 653              		.type	Tag_GetChar, %function
 654              	Tag_GetChar:
 655              	.LFB11:
 525:.\Generated_Source\PSoC5/Tag.c **** 
 526:.\Generated_Source\PSoC5/Tag.c **** 
 527:.\Generated_Source\PSoC5/Tag.c ****     /*******************************************************************************
 528:.\Generated_Source\PSoC5/Tag.c ****     * Function Name: Tag_GetChar
 529:.\Generated_Source\PSoC5/Tag.c ****     ********************************************************************************
 530:.\Generated_Source\PSoC5/Tag.c ****     *
 531:.\Generated_Source\PSoC5/Tag.c ****     * Summary:
 532:.\Generated_Source\PSoC5/Tag.c ****     *  Reads UART RX buffer immediately, if data is not available or an error
 533:.\Generated_Source\PSoC5/Tag.c ****     *  condition exists, zero is returned; otherwise, character is read and
 534:.\Generated_Source\PSoC5/Tag.c ****     *  returned.
 535:.\Generated_Source\PSoC5/Tag.c ****     *
 536:.\Generated_Source\PSoC5/Tag.c ****     * Parameters:
 537:.\Generated_Source\PSoC5/Tag.c ****     *  None.
 538:.\Generated_Source\PSoC5/Tag.c ****     *
 539:.\Generated_Source\PSoC5/Tag.c ****     * Return:
 540:.\Generated_Source\PSoC5/Tag.c ****     *  Character read from UART RX buffer. ASCII characters from 1 to 255 are valid.
 541:.\Generated_Source\PSoC5/Tag.c ****     *  A returned zero signifies an error condition or no data available.
ARM GAS  C:\Users\Lenovo\AppData\Local\Temp\ccxEp1Mg.s 			page 22


 542:.\Generated_Source\PSoC5/Tag.c ****     *
 543:.\Generated_Source\PSoC5/Tag.c ****     * Global Variables:
 544:.\Generated_Source\PSoC5/Tag.c ****     *  Tag_rxBuffer - RAM buffer pointer for save received data.
 545:.\Generated_Source\PSoC5/Tag.c ****     *  Tag_rxBufferWrite - cyclic index for write to rxBuffer,
 546:.\Generated_Source\PSoC5/Tag.c ****     *     checked to identify new data.
 547:.\Generated_Source\PSoC5/Tag.c ****     *  Tag_rxBufferRead - cyclic index for read from rxBuffer,
 548:.\Generated_Source\PSoC5/Tag.c ****     *     incremented after each byte has been read from buffer.
 549:.\Generated_Source\PSoC5/Tag.c ****     *  Tag_rxBufferLoopDetect - creared if loop condition was detected
 550:.\Generated_Source\PSoC5/Tag.c ****     *     in RX ISR.
 551:.\Generated_Source\PSoC5/Tag.c ****     *
 552:.\Generated_Source\PSoC5/Tag.c ****     * Reentrant:
 553:.\Generated_Source\PSoC5/Tag.c ****     *  No.
 554:.\Generated_Source\PSoC5/Tag.c ****     *
 555:.\Generated_Source\PSoC5/Tag.c ****     *******************************************************************************/
 556:.\Generated_Source\PSoC5/Tag.c ****     uint8 Tag_GetChar(void) 
 557:.\Generated_Source\PSoC5/Tag.c ****     {
 656              		.loc 1 557 0
 657              		.cfi_startproc
 658              		@ args = 0, pretend = 0, frame = 8
 659              		@ frame_needed = 1, uses_anonymous_args = 0
 660 0000 80B5     		push	{r7, lr}
 661              		.cfi_def_cfa_offset 8
 662              		.cfi_offset 7, -8
 663              		.cfi_offset 14, -4
 664 0002 82B0     		sub	sp, sp, #8
 665              		.cfi_def_cfa_offset 16
 666 0004 00AF     		add	r7, sp, #0
 667              		.cfi_def_cfa_register 7
 558:.\Generated_Source\PSoC5/Tag.c ****         uint8 rxData = 0u;
 668              		.loc 1 558 0
 669 0006 0023     		movs	r3, #0
 670 0008 FB71     		strb	r3, [r7, #7]
 559:.\Generated_Source\PSoC5/Tag.c ****         uint8 rxStatus;
 560:.\Generated_Source\PSoC5/Tag.c **** 
 561:.\Generated_Source\PSoC5/Tag.c ****         #if(Tag_RXBUFFERSIZE > Tag_FIFO_LENGTH)
 562:.\Generated_Source\PSoC5/Tag.c ****             uint16 loc_rxBufferRead;
 563:.\Generated_Source\PSoC5/Tag.c ****             uint16 loc_rxBufferWrite;
 564:.\Generated_Source\PSoC5/Tag.c ****             /* Protect variables that could change on interrupt. */
 565:.\Generated_Source\PSoC5/Tag.c ****             /* Disable Rx interrupt. */
 566:.\Generated_Source\PSoC5/Tag.c ****             #if(Tag_RX_INTERRUPT_ENABLED)
 567:.\Generated_Source\PSoC5/Tag.c ****                 Tag_DisableRxInt();
 671              		.loc 1 567 0
 672 000a FFF7FEFF 		bl	Tag_DisableRxInt
 568:.\Generated_Source\PSoC5/Tag.c ****             #endif /* Tag_RX_INTERRUPT_ENABLED */
 569:.\Generated_Source\PSoC5/Tag.c ****             loc_rxBufferRead = Tag_rxBufferRead;
 673              		.loc 1 569 0
 674 000e 204B     		ldr	r3, .L47
 675 0010 1B88     		ldrh	r3, [r3]	@ movhi
 676 0012 BB80     		strh	r3, [r7, #4]	@ movhi
 570:.\Generated_Source\PSoC5/Tag.c ****             loc_rxBufferWrite = Tag_rxBufferWrite;
 677              		.loc 1 570 0
 678 0014 1F4B     		ldr	r3, .L47+4
 679 0016 1B88     		ldrh	r3, [r3]	@ movhi
 680 0018 7B80     		strh	r3, [r7, #2]	@ movhi
 571:.\Generated_Source\PSoC5/Tag.c **** 
 572:.\Generated_Source\PSoC5/Tag.c ****             if( (Tag_rxBufferLoopDetect != 0u) || (loc_rxBufferRead != loc_rxBufferWrite) )
 681              		.loc 1 572 0
ARM GAS  C:\Users\Lenovo\AppData\Local\Temp\ccxEp1Mg.s 			page 23


 682 001a 1F4B     		ldr	r3, .L47+8
 683 001c 1B78     		ldrb	r3, [r3]
 684 001e DBB2     		uxtb	r3, r3
 685 0020 002B     		cmp	r3, #0
 686 0022 03D1     		bne	.L41
 687              		.loc 1 572 0 is_stmt 0 discriminator 1
 688 0024 BA88     		ldrh	r2, [r7, #4]
 689 0026 7B88     		ldrh	r3, [r7, #2]
 690 0028 9A42     		cmp	r2, r3
 691 002a 18D0     		beq	.L42
 692              	.L41:
 573:.\Generated_Source\PSoC5/Tag.c ****             {
 574:.\Generated_Source\PSoC5/Tag.c ****                 rxData = Tag_rxBuffer[loc_rxBufferRead];
 693              		.loc 1 574 0 is_stmt 1
 694 002c BB88     		ldrh	r3, [r7, #4]
 695 002e 1B4A     		ldr	r2, .L47+12
 696 0030 D35C     		ldrb	r3, [r2, r3]
 697 0032 FB71     		strb	r3, [r7, #7]
 575:.\Generated_Source\PSoC5/Tag.c ****                 loc_rxBufferRead++;
 698              		.loc 1 575 0
 699 0034 BB88     		ldrh	r3, [r7, #4]
 700 0036 0133     		adds	r3, r3, #1
 701 0038 BB80     		strh	r3, [r7, #4]	@ movhi
 576:.\Generated_Source\PSoC5/Tag.c ****                 if(loc_rxBufferRead >= Tag_RXBUFFERSIZE)
 702              		.loc 1 576 0
 703 003a BB88     		ldrh	r3, [r7, #4]
 704 003c FF2B     		cmp	r3, #255
 705 003e 01D9     		bls	.L43
 577:.\Generated_Source\PSoC5/Tag.c ****                 {
 578:.\Generated_Source\PSoC5/Tag.c ****                     loc_rxBufferRead = 0u;
 706              		.loc 1 578 0
 707 0040 0023     		movs	r3, #0
 708 0042 BB80     		strh	r3, [r7, #4]	@ movhi
 709              	.L43:
 579:.\Generated_Source\PSoC5/Tag.c ****                 }
 580:.\Generated_Source\PSoC5/Tag.c ****                 /* Update the real pointer */
 581:.\Generated_Source\PSoC5/Tag.c ****                 Tag_rxBufferRead = loc_rxBufferRead;
 710              		.loc 1 581 0
 711 0044 124A     		ldr	r2, .L47
 712 0046 BB88     		ldrh	r3, [r7, #4]	@ movhi
 713 0048 1380     		strh	r3, [r2]	@ movhi
 582:.\Generated_Source\PSoC5/Tag.c **** 
 583:.\Generated_Source\PSoC5/Tag.c ****                 if(Tag_rxBufferLoopDetect > 0u )
 714              		.loc 1 583 0
 715 004a 134B     		ldr	r3, .L47+8
 716 004c 1B78     		ldrb	r3, [r3]
 717 004e DBB2     		uxtb	r3, r3
 718 0050 002B     		cmp	r3, #0
 719 0052 03D0     		beq	.L44
 584:.\Generated_Source\PSoC5/Tag.c ****                 {
 585:.\Generated_Source\PSoC5/Tag.c ****                     Tag_rxBufferLoopDetect = 0u;
 720              		.loc 1 585 0
 721 0054 104B     		ldr	r3, .L47+8
 722 0056 0022     		movs	r2, #0
 723 0058 1A70     		strb	r2, [r3]
 583:.\Generated_Source\PSoC5/Tag.c ****                 {
 724              		.loc 1 583 0
ARM GAS  C:\Users\Lenovo\AppData\Local\Temp\ccxEp1Mg.s 			page 24


 725 005a 12E0     		b	.L45
 726              	.L44:
 727 005c 11E0     		b	.L45
 728              	.L42:
 586:.\Generated_Source\PSoC5/Tag.c ****                     #if( (Tag_RX_INTERRUPT_ENABLED) && (Tag_FLOW_CONTROL != 0u) )
 587:.\Generated_Source\PSoC5/Tag.c ****                         /* When Hardware Flow Control selected - return RX mask */
 588:.\Generated_Source\PSoC5/Tag.c ****                         #if( Tag_HD_ENABLED )
 589:.\Generated_Source\PSoC5/Tag.c ****                             if((Tag_CONTROL_REG & Tag_CTRL_HD_SEND) == 0u)
 590:.\Generated_Source\PSoC5/Tag.c ****                             {   /* In Half duplex mode return RX mask only if
 591:.\Generated_Source\PSoC5/Tag.c ****                                 *  RX configuration set, otherwise
 592:.\Generated_Source\PSoC5/Tag.c ****                                 *  mask will be returned in LoadRxConfig() API.
 593:.\Generated_Source\PSoC5/Tag.c ****                                 */
 594:.\Generated_Source\PSoC5/Tag.c ****                                 Tag_RXSTATUS_MASK_REG  |= Tag_RX_STS_FIFO_NOTEMPTY;
 595:.\Generated_Source\PSoC5/Tag.c ****                             }
 596:.\Generated_Source\PSoC5/Tag.c ****                         #else
 597:.\Generated_Source\PSoC5/Tag.c ****                             Tag_RXSTATUS_MASK_REG  |= Tag_RX_STS_FIFO_NOTEMPTY;
 598:.\Generated_Source\PSoC5/Tag.c ****                         #endif /* end Tag_HD_ENABLED */
 599:.\Generated_Source\PSoC5/Tag.c ****                     #endif /* Tag_RX_INTERRUPT_ENABLED and Hardware flow control*/
 600:.\Generated_Source\PSoC5/Tag.c ****                 }
 601:.\Generated_Source\PSoC5/Tag.c **** 
 602:.\Generated_Source\PSoC5/Tag.c ****             }
 603:.\Generated_Source\PSoC5/Tag.c ****             else
 604:.\Generated_Source\PSoC5/Tag.c ****             {   rxStatus = Tag_RXSTATUS_REG;
 729              		.loc 1 604 0
 730 005e 104B     		ldr	r3, .L47+16
 731 0060 1B78     		ldrb	r3, [r3]
 732 0062 7B70     		strb	r3, [r7, #1]
 605:.\Generated_Source\PSoC5/Tag.c ****                 if((rxStatus & Tag_RX_STS_FIFO_NOTEMPTY) != 0u)
 733              		.loc 1 605 0
 734 0064 7B78     		ldrb	r3, [r7, #1]	@ zero_extendqisi2
 735 0066 03F02003 		and	r3, r3, #32
 736 006a 002B     		cmp	r3, #0
 737 006c 09D0     		beq	.L45
 606:.\Generated_Source\PSoC5/Tag.c ****                 {   /* Read received data from FIFO*/
 607:.\Generated_Source\PSoC5/Tag.c ****                     rxData = Tag_RXDATA_REG;
 738              		.loc 1 607 0
 739 006e 0D4B     		ldr	r3, .L47+20
 740 0070 1B78     		ldrb	r3, [r3]
 741 0072 FB71     		strb	r3, [r7, #7]
 608:.\Generated_Source\PSoC5/Tag.c ****                     /*Check status on error*/
 609:.\Generated_Source\PSoC5/Tag.c ****                     if((rxStatus & (Tag_RX_STS_BREAK | Tag_RX_STS_PAR_ERROR |
 610:.\Generated_Source\PSoC5/Tag.c ****                                    Tag_RX_STS_STOP_ERROR | Tag_RX_STS_OVERRUN)) != 0u)
 742              		.loc 1 610 0
 743 0074 7B78     		ldrb	r3, [r7, #1]	@ zero_extendqisi2
 744 0076 03F01E03 		and	r3, r3, #30
 609:.\Generated_Source\PSoC5/Tag.c ****                                    Tag_RX_STS_STOP_ERROR | Tag_RX_STS_OVERRUN)) != 0u)
 745              		.loc 1 609 0
 746 007a 002B     		cmp	r3, #0
 747 007c 01D0     		beq	.L45
 611:.\Generated_Source\PSoC5/Tag.c ****                     {
 612:.\Generated_Source\PSoC5/Tag.c ****                         rxData = 0u;
 748              		.loc 1 612 0
 749 007e 0023     		movs	r3, #0
 750 0080 FB71     		strb	r3, [r7, #7]
 751              	.L45:
 613:.\Generated_Source\PSoC5/Tag.c ****                     }
 614:.\Generated_Source\PSoC5/Tag.c ****                 }
ARM GAS  C:\Users\Lenovo\AppData\Local\Temp\ccxEp1Mg.s 			page 25


 615:.\Generated_Source\PSoC5/Tag.c ****             }
 616:.\Generated_Source\PSoC5/Tag.c **** 
 617:.\Generated_Source\PSoC5/Tag.c ****             /* Enable Rx interrupt. */
 618:.\Generated_Source\PSoC5/Tag.c ****             #if(Tag_RX_INTERRUPT_ENABLED)
 619:.\Generated_Source\PSoC5/Tag.c ****                 Tag_EnableRxInt();
 752              		.loc 1 619 0
 753 0082 FFF7FEFF 		bl	Tag_EnableRxInt
 620:.\Generated_Source\PSoC5/Tag.c ****             #endif /* Tag_RX_INTERRUPT_ENABLED */
 621:.\Generated_Source\PSoC5/Tag.c **** 
 622:.\Generated_Source\PSoC5/Tag.c ****         #else /* Tag_RXBUFFERSIZE > Tag_FIFO_LENGTH */
 623:.\Generated_Source\PSoC5/Tag.c **** 
 624:.\Generated_Source\PSoC5/Tag.c ****             rxStatus =Tag_RXSTATUS_REG;
 625:.\Generated_Source\PSoC5/Tag.c ****             if((rxStatus & Tag_RX_STS_FIFO_NOTEMPTY) != 0u)
 626:.\Generated_Source\PSoC5/Tag.c ****             {   /* Read received data from FIFO*/
 627:.\Generated_Source\PSoC5/Tag.c ****                 rxData = Tag_RXDATA_REG;
 628:.\Generated_Source\PSoC5/Tag.c ****                 /*Check status on error*/
 629:.\Generated_Source\PSoC5/Tag.c ****                 if((rxStatus & (Tag_RX_STS_BREAK | Tag_RX_STS_PAR_ERROR |
 630:.\Generated_Source\PSoC5/Tag.c ****                                Tag_RX_STS_STOP_ERROR | Tag_RX_STS_OVERRUN)) != 0u)
 631:.\Generated_Source\PSoC5/Tag.c ****                 {
 632:.\Generated_Source\PSoC5/Tag.c ****                     rxData = 0u;
 633:.\Generated_Source\PSoC5/Tag.c ****                 }
 634:.\Generated_Source\PSoC5/Tag.c ****             }
 635:.\Generated_Source\PSoC5/Tag.c ****         #endif /* Tag_RXBUFFERSIZE > Tag_FIFO_LENGTH */
 636:.\Generated_Source\PSoC5/Tag.c **** 
 637:.\Generated_Source\PSoC5/Tag.c ****         return(rxData);
 754              		.loc 1 637 0
 755 0086 FB79     		ldrb	r3, [r7, #7]	@ zero_extendqisi2
 638:.\Generated_Source\PSoC5/Tag.c ****     }
 756              		.loc 1 638 0
 757 0088 1846     		mov	r0, r3
 758 008a 0837     		adds	r7, r7, #8
 759              		.cfi_def_cfa_offset 8
 760 008c BD46     		mov	sp, r7
 761              		.cfi_def_cfa_register 13
 762              		@ sp needed
 763 008e 80BD     		pop	{r7, pc}
 764              	.L48:
 765              		.align	2
 766              	.L47:
 767 0090 00000000 		.word	Tag_rxBufferRead
 768 0094 00000000 		.word	Tag_rxBufferWrite
 769 0098 00000000 		.word	Tag_rxBufferLoopDetect
 770 009c 00000000 		.word	Tag_rxBuffer
 771 00a0 63640040 		.word	1073767523
 772 00a4 44640040 		.word	1073767492
 773              		.cfi_endproc
 774              	.LFE11:
 775              		.size	Tag_GetChar, .-Tag_GetChar
 776              		.section	.text.Tag_GetByte,"ax",%progbits
 777              		.align	2
 778              		.global	Tag_GetByte
 779              		.thumb
 780              		.thumb_func
 781              		.type	Tag_GetByte, %function
 782              	Tag_GetByte:
 783              	.LFB12:
 639:.\Generated_Source\PSoC5/Tag.c **** 
ARM GAS  C:\Users\Lenovo\AppData\Local\Temp\ccxEp1Mg.s 			page 26


 640:.\Generated_Source\PSoC5/Tag.c **** 
 641:.\Generated_Source\PSoC5/Tag.c ****     /*******************************************************************************
 642:.\Generated_Source\PSoC5/Tag.c ****     * Function Name: Tag_GetByte
 643:.\Generated_Source\PSoC5/Tag.c ****     ********************************************************************************
 644:.\Generated_Source\PSoC5/Tag.c ****     *
 645:.\Generated_Source\PSoC5/Tag.c ****     * Summary:
 646:.\Generated_Source\PSoC5/Tag.c ****     *  Grab the next available byte of data from the recieve FIFO
 647:.\Generated_Source\PSoC5/Tag.c ****     *
 648:.\Generated_Source\PSoC5/Tag.c ****     * Parameters:
 649:.\Generated_Source\PSoC5/Tag.c ****     *  None.
 650:.\Generated_Source\PSoC5/Tag.c ****     *
 651:.\Generated_Source\PSoC5/Tag.c ****     * Return:
 652:.\Generated_Source\PSoC5/Tag.c ****     *  MSB contains Status Register and LSB contains UART RX data
 653:.\Generated_Source\PSoC5/Tag.c ****     *
 654:.\Generated_Source\PSoC5/Tag.c ****     * Reentrant:
 655:.\Generated_Source\PSoC5/Tag.c ****     *  No.
 656:.\Generated_Source\PSoC5/Tag.c ****     *
 657:.\Generated_Source\PSoC5/Tag.c ****     *******************************************************************************/
 658:.\Generated_Source\PSoC5/Tag.c ****     uint16 Tag_GetByte(void) 
 659:.\Generated_Source\PSoC5/Tag.c ****     {
 784              		.loc 1 659 0
 785              		.cfi_startproc
 786              		@ args = 0, pretend = 0, frame = 0
 787              		@ frame_needed = 1, uses_anonymous_args = 0
 788 0000 98B5     		push	{r3, r4, r7, lr}
 789              		.cfi_def_cfa_offset 16
 790              		.cfi_offset 3, -16
 791              		.cfi_offset 4, -12
 792              		.cfi_offset 7, -8
 793              		.cfi_offset 14, -4
 794 0002 00AF     		add	r7, sp, #0
 795              		.cfi_def_cfa_register 7
 660:.\Generated_Source\PSoC5/Tag.c ****         return ( ((uint16)Tag_ReadRxStatus() << 8u) | Tag_ReadRxData() );
 796              		.loc 1 660 0
 797 0004 FFF7FEFF 		bl	Tag_ReadRxStatus
 798 0008 0346     		mov	r3, r0
 799 000a 1B02     		lsls	r3, r3, #8
 800 000c 9CB2     		uxth	r4, r3
 801 000e FFF7FEFF 		bl	Tag_ReadRxData
 802 0012 0346     		mov	r3, r0
 803 0014 9BB2     		uxth	r3, r3
 804 0016 2246     		mov	r2, r4	@ movhi
 805 0018 1343     		orrs	r3, r3, r2
 806 001a 9BB2     		uxth	r3, r3
 807 001c 9BB2     		uxth	r3, r3
 661:.\Generated_Source\PSoC5/Tag.c ****     }
 808              		.loc 1 661 0
 809 001e 1846     		mov	r0, r3
 810 0020 98BD     		pop	{r3, r4, r7, pc}
 811              		.cfi_endproc
 812              	.LFE12:
 813              		.size	Tag_GetByte, .-Tag_GetByte
 814 0022 00BF     		.section	.text.Tag_GetRxBufferSize,"ax",%progbits
 815              		.align	2
 816              		.global	Tag_GetRxBufferSize
 817              		.thumb
 818              		.thumb_func
ARM GAS  C:\Users\Lenovo\AppData\Local\Temp\ccxEp1Mg.s 			page 27


 819              		.type	Tag_GetRxBufferSize, %function
 820              	Tag_GetRxBufferSize:
 821              	.LFB13:
 662:.\Generated_Source\PSoC5/Tag.c **** 
 663:.\Generated_Source\PSoC5/Tag.c **** 
 664:.\Generated_Source\PSoC5/Tag.c ****     /*******************************************************************************
 665:.\Generated_Source\PSoC5/Tag.c ****     * Function Name: Tag_GetRxBufferSize
 666:.\Generated_Source\PSoC5/Tag.c ****     ********************************************************************************
 667:.\Generated_Source\PSoC5/Tag.c ****     *
 668:.\Generated_Source\PSoC5/Tag.c ****     * Summary:
 669:.\Generated_Source\PSoC5/Tag.c ****     *  Determine the amount of bytes left in the RX buffer and return the count in
 670:.\Generated_Source\PSoC5/Tag.c ****     *  bytes
 671:.\Generated_Source\PSoC5/Tag.c ****     *
 672:.\Generated_Source\PSoC5/Tag.c ****     * Parameters:
 673:.\Generated_Source\PSoC5/Tag.c ****     *  None.
 674:.\Generated_Source\PSoC5/Tag.c ****     *
 675:.\Generated_Source\PSoC5/Tag.c ****     * Return:
 676:.\Generated_Source\PSoC5/Tag.c ****     *  uint16: Integer count of the number of bytes left
 677:.\Generated_Source\PSoC5/Tag.c ****     *  in the RX buffer
 678:.\Generated_Source\PSoC5/Tag.c ****     *
 679:.\Generated_Source\PSoC5/Tag.c ****     * Global Variables:
 680:.\Generated_Source\PSoC5/Tag.c ****     *  Tag_rxBufferWrite - used to calculate left bytes.
 681:.\Generated_Source\PSoC5/Tag.c ****     *  Tag_rxBufferRead - used to calculate left bytes.
 682:.\Generated_Source\PSoC5/Tag.c ****     *  Tag_rxBufferLoopDetect - checked to decide left bytes amount.
 683:.\Generated_Source\PSoC5/Tag.c ****     *
 684:.\Generated_Source\PSoC5/Tag.c ****     * Reentrant:
 685:.\Generated_Source\PSoC5/Tag.c ****     *  No.
 686:.\Generated_Source\PSoC5/Tag.c ****     *
 687:.\Generated_Source\PSoC5/Tag.c ****     * Theory:
 688:.\Generated_Source\PSoC5/Tag.c ****     *  Allows the user to find out how full the RX Buffer is.
 689:.\Generated_Source\PSoC5/Tag.c ****     *
 690:.\Generated_Source\PSoC5/Tag.c ****     *******************************************************************************/
 691:.\Generated_Source\PSoC5/Tag.c ****     uint16 Tag_GetRxBufferSize(void)
 692:.\Generated_Source\PSoC5/Tag.c ****                                                             
 693:.\Generated_Source\PSoC5/Tag.c ****     {
 822              		.loc 1 693 0
 823              		.cfi_startproc
 824              		@ args = 0, pretend = 0, frame = 8
 825              		@ frame_needed = 1, uses_anonymous_args = 0
 826 0000 80B5     		push	{r7, lr}
 827              		.cfi_def_cfa_offset 8
 828              		.cfi_offset 7, -8
 829              		.cfi_offset 14, -4
 830 0002 82B0     		sub	sp, sp, #8
 831              		.cfi_def_cfa_offset 16
 832 0004 00AF     		add	r7, sp, #0
 833              		.cfi_def_cfa_register 7
 694:.\Generated_Source\PSoC5/Tag.c ****         uint16 size;
 695:.\Generated_Source\PSoC5/Tag.c **** 
 696:.\Generated_Source\PSoC5/Tag.c ****         #if(Tag_RXBUFFERSIZE > Tag_FIFO_LENGTH)
 697:.\Generated_Source\PSoC5/Tag.c **** 
 698:.\Generated_Source\PSoC5/Tag.c ****             /* Disable Rx interrupt. */
 699:.\Generated_Source\PSoC5/Tag.c ****             /* Protect variables that could change on interrupt. */
 700:.\Generated_Source\PSoC5/Tag.c ****             #if(Tag_RX_INTERRUPT_ENABLED)
 701:.\Generated_Source\PSoC5/Tag.c ****                 Tag_DisableRxInt();
 834              		.loc 1 701 0
 835 0006 FFF7FEFF 		bl	Tag_DisableRxInt
ARM GAS  C:\Users\Lenovo\AppData\Local\Temp\ccxEp1Mg.s 			page 28


 702:.\Generated_Source\PSoC5/Tag.c ****             #endif /* Tag_RX_INTERRUPT_ENABLED */
 703:.\Generated_Source\PSoC5/Tag.c **** 
 704:.\Generated_Source\PSoC5/Tag.c ****             if(Tag_rxBufferRead == Tag_rxBufferWrite)
 836              		.loc 1 704 0
 837 000a 1B4B     		ldr	r3, .L58
 838 000c 1B88     		ldrh	r3, [r3]	@ movhi
 839 000e 9AB2     		uxth	r2, r3
 840 0010 1A4B     		ldr	r3, .L58+4
 841 0012 1B88     		ldrh	r3, [r3]	@ movhi
 842 0014 9BB2     		uxth	r3, r3
 843 0016 9A42     		cmp	r2, r3
 844 0018 0BD1     		bne	.L52
 705:.\Generated_Source\PSoC5/Tag.c ****             {
 706:.\Generated_Source\PSoC5/Tag.c ****                 if(Tag_rxBufferLoopDetect > 0u)
 845              		.loc 1 706 0
 846 001a 194B     		ldr	r3, .L58+8
 847 001c 1B78     		ldrb	r3, [r3]
 848 001e DBB2     		uxtb	r3, r3
 849 0020 002B     		cmp	r3, #0
 850 0022 03D0     		beq	.L53
 707:.\Generated_Source\PSoC5/Tag.c ****                 {
 708:.\Generated_Source\PSoC5/Tag.c ****                     size = Tag_RXBUFFERSIZE;
 851              		.loc 1 708 0
 852 0024 4FF48073 		mov	r3, #256
 853 0028 FB80     		strh	r3, [r7, #6]	@ movhi
 854 002a 1EE0     		b	.L55
 855              	.L53:
 709:.\Generated_Source\PSoC5/Tag.c ****                 }
 710:.\Generated_Source\PSoC5/Tag.c ****                 else
 711:.\Generated_Source\PSoC5/Tag.c ****                 {
 712:.\Generated_Source\PSoC5/Tag.c ****                     size = 0u;
 856              		.loc 1 712 0
 857 002c 0023     		movs	r3, #0
 858 002e FB80     		strh	r3, [r7, #6]	@ movhi
 859 0030 1BE0     		b	.L55
 860              	.L52:
 713:.\Generated_Source\PSoC5/Tag.c ****                 }
 714:.\Generated_Source\PSoC5/Tag.c ****             }
 715:.\Generated_Source\PSoC5/Tag.c ****             else if(Tag_rxBufferRead < Tag_rxBufferWrite)
 861              		.loc 1 715 0
 862 0032 114B     		ldr	r3, .L58
 863 0034 1B88     		ldrh	r3, [r3]	@ movhi
 864 0036 9AB2     		uxth	r2, r3
 865 0038 104B     		ldr	r3, .L58+4
 866 003a 1B88     		ldrh	r3, [r3]	@ movhi
 867 003c 9BB2     		uxth	r3, r3
 868 003e 9A42     		cmp	r2, r3
 869 0040 08D2     		bcs	.L56
 716:.\Generated_Source\PSoC5/Tag.c ****             {
 717:.\Generated_Source\PSoC5/Tag.c ****                 size = (Tag_rxBufferWrite - Tag_rxBufferRead);
 870              		.loc 1 717 0
 871 0042 0E4B     		ldr	r3, .L58+4
 872 0044 1B88     		ldrh	r3, [r3]	@ movhi
 873 0046 9AB2     		uxth	r2, r3
 874 0048 0B4B     		ldr	r3, .L58
 875 004a 1B88     		ldrh	r3, [r3]	@ movhi
 876 004c 9BB2     		uxth	r3, r3
ARM GAS  C:\Users\Lenovo\AppData\Local\Temp\ccxEp1Mg.s 			page 29


 877 004e D31A     		subs	r3, r2, r3
 878 0050 FB80     		strh	r3, [r7, #6]	@ movhi
 879 0052 0AE0     		b	.L55
 880              	.L56:
 718:.\Generated_Source\PSoC5/Tag.c ****             }
 719:.\Generated_Source\PSoC5/Tag.c ****             else
 720:.\Generated_Source\PSoC5/Tag.c ****             {
 721:.\Generated_Source\PSoC5/Tag.c ****                 size = (Tag_RXBUFFERSIZE - Tag_rxBufferRead) + Tag_rxBufferWrite;
 881              		.loc 1 721 0
 882 0054 094B     		ldr	r3, .L58+4
 883 0056 1B88     		ldrh	r3, [r3]	@ movhi
 884 0058 9AB2     		uxth	r2, r3
 885 005a 074B     		ldr	r3, .L58
 886 005c 1B88     		ldrh	r3, [r3]	@ movhi
 887 005e 9BB2     		uxth	r3, r3
 888 0060 D31A     		subs	r3, r2, r3
 889 0062 9BB2     		uxth	r3, r3
 890 0064 03F58073 		add	r3, r3, #256
 891 0068 FB80     		strh	r3, [r7, #6]	@ movhi
 892              	.L55:
 722:.\Generated_Source\PSoC5/Tag.c ****             }
 723:.\Generated_Source\PSoC5/Tag.c **** 
 724:.\Generated_Source\PSoC5/Tag.c ****             /* Enable Rx interrupt. */
 725:.\Generated_Source\PSoC5/Tag.c ****             #if(Tag_RX_INTERRUPT_ENABLED)
 726:.\Generated_Source\PSoC5/Tag.c ****                 Tag_EnableRxInt();
 893              		.loc 1 726 0
 894 006a FFF7FEFF 		bl	Tag_EnableRxInt
 727:.\Generated_Source\PSoC5/Tag.c ****             #endif /* End Tag_RX_INTERRUPT_ENABLED */
 728:.\Generated_Source\PSoC5/Tag.c **** 
 729:.\Generated_Source\PSoC5/Tag.c ****         #else /* Tag_RXBUFFERSIZE > Tag_FIFO_LENGTH */
 730:.\Generated_Source\PSoC5/Tag.c **** 
 731:.\Generated_Source\PSoC5/Tag.c ****             /* We can only know if there is data in the fifo. */
 732:.\Generated_Source\PSoC5/Tag.c ****             size = ((Tag_RXSTATUS_REG & Tag_RX_STS_FIFO_NOTEMPTY) != 0u) ? 1u : 0u;
 733:.\Generated_Source\PSoC5/Tag.c **** 
 734:.\Generated_Source\PSoC5/Tag.c ****         #endif /* End Tag_RXBUFFERSIZE > Tag_FIFO_LENGTH */
 735:.\Generated_Source\PSoC5/Tag.c **** 
 736:.\Generated_Source\PSoC5/Tag.c ****         return(size);
 895              		.loc 1 736 0
 896 006e FB88     		ldrh	r3, [r7, #6]
 737:.\Generated_Source\PSoC5/Tag.c ****     }
 897              		.loc 1 737 0
 898 0070 1846     		mov	r0, r3
 899 0072 0837     		adds	r7, r7, #8
 900              		.cfi_def_cfa_offset 8
 901 0074 BD46     		mov	sp, r7
 902              		.cfi_def_cfa_register 13
 903              		@ sp needed
 904 0076 80BD     		pop	{r7, pc}
 905              	.L59:
 906              		.align	2
 907              	.L58:
 908 0078 00000000 		.word	Tag_rxBufferRead
 909 007c 00000000 		.word	Tag_rxBufferWrite
 910 0080 00000000 		.word	Tag_rxBufferLoopDetect
 911              		.cfi_endproc
 912              	.LFE13:
 913              		.size	Tag_GetRxBufferSize, .-Tag_GetRxBufferSize
ARM GAS  C:\Users\Lenovo\AppData\Local\Temp\ccxEp1Mg.s 			page 30


 914              		.section	.text.Tag_ClearRxBuffer,"ax",%progbits
 915              		.align	2
 916              		.global	Tag_ClearRxBuffer
 917              		.thumb
 918              		.thumb_func
 919              		.type	Tag_ClearRxBuffer, %function
 920              	Tag_ClearRxBuffer:
 921              	.LFB14:
 738:.\Generated_Source\PSoC5/Tag.c **** 
 739:.\Generated_Source\PSoC5/Tag.c **** 
 740:.\Generated_Source\PSoC5/Tag.c ****     /*******************************************************************************
 741:.\Generated_Source\PSoC5/Tag.c ****     * Function Name: Tag_ClearRxBuffer
 742:.\Generated_Source\PSoC5/Tag.c ****     ********************************************************************************
 743:.\Generated_Source\PSoC5/Tag.c ****     *
 744:.\Generated_Source\PSoC5/Tag.c ****     * Summary:
 745:.\Generated_Source\PSoC5/Tag.c ****     *  Clears the RX RAM buffer by setting the read and write pointers both to zero.
 746:.\Generated_Source\PSoC5/Tag.c ****     *  Clears hardware RX FIFO.
 747:.\Generated_Source\PSoC5/Tag.c ****     *
 748:.\Generated_Source\PSoC5/Tag.c ****     * Parameters:
 749:.\Generated_Source\PSoC5/Tag.c ****     *  None.
 750:.\Generated_Source\PSoC5/Tag.c ****     *
 751:.\Generated_Source\PSoC5/Tag.c ****     * Return:
 752:.\Generated_Source\PSoC5/Tag.c ****     *  None.
 753:.\Generated_Source\PSoC5/Tag.c ****     *
 754:.\Generated_Source\PSoC5/Tag.c ****     * Global Variables:
 755:.\Generated_Source\PSoC5/Tag.c ****     *  Tag_rxBufferWrite - cleared to zero.
 756:.\Generated_Source\PSoC5/Tag.c ****     *  Tag_rxBufferRead - cleared to zero.
 757:.\Generated_Source\PSoC5/Tag.c ****     *  Tag_rxBufferLoopDetect - cleared to zero.
 758:.\Generated_Source\PSoC5/Tag.c ****     *  Tag_rxBufferOverflow - cleared to zero.
 759:.\Generated_Source\PSoC5/Tag.c ****     *
 760:.\Generated_Source\PSoC5/Tag.c ****     * Reentrant:
 761:.\Generated_Source\PSoC5/Tag.c ****     *  No.
 762:.\Generated_Source\PSoC5/Tag.c ****     *
 763:.\Generated_Source\PSoC5/Tag.c ****     * Theory:
 764:.\Generated_Source\PSoC5/Tag.c ****     *  Setting the pointers to zero makes the system believe there is no data to
 765:.\Generated_Source\PSoC5/Tag.c ****     *  read and writing will resume at address 0 overwriting any data that may
 766:.\Generated_Source\PSoC5/Tag.c ****     *  have remained in the RAM.
 767:.\Generated_Source\PSoC5/Tag.c ****     *
 768:.\Generated_Source\PSoC5/Tag.c ****     * Side Effects:
 769:.\Generated_Source\PSoC5/Tag.c ****     *  Any received data not read from the RAM or FIFO buffer will be lost.
 770:.\Generated_Source\PSoC5/Tag.c ****     *******************************************************************************/
 771:.\Generated_Source\PSoC5/Tag.c ****     void Tag_ClearRxBuffer(void) 
 772:.\Generated_Source\PSoC5/Tag.c ****     {
 922              		.loc 1 772 0
 923              		.cfi_startproc
 924              		@ args = 0, pretend = 0, frame = 8
 925              		@ frame_needed = 1, uses_anonymous_args = 0
 926 0000 80B5     		push	{r7, lr}
 927              		.cfi_def_cfa_offset 8
 928              		.cfi_offset 7, -8
 929              		.cfi_offset 14, -4
 930 0002 82B0     		sub	sp, sp, #8
 931              		.cfi_def_cfa_offset 16
 932 0004 00AF     		add	r7, sp, #0
 933              		.cfi_def_cfa_register 7
 773:.\Generated_Source\PSoC5/Tag.c ****         uint8 enableInterrupts;
 774:.\Generated_Source\PSoC5/Tag.c **** 
ARM GAS  C:\Users\Lenovo\AppData\Local\Temp\ccxEp1Mg.s 			page 31


 775:.\Generated_Source\PSoC5/Tag.c ****         /* clear the HW FIFO */
 776:.\Generated_Source\PSoC5/Tag.c ****         /* Enter critical section */
 777:.\Generated_Source\PSoC5/Tag.c ****         enableInterrupts = CyEnterCriticalSection();
 934              		.loc 1 777 0
 935 0006 FFF7FEFF 		bl	CyEnterCriticalSection
 936 000a 0346     		mov	r3, r0
 937 000c FB71     		strb	r3, [r7, #7]
 778:.\Generated_Source\PSoC5/Tag.c ****         Tag_RXDATA_AUX_CTL_REG |=  Tag_RX_FIFO_CLR;
 938              		.loc 1 778 0
 939 000e 134A     		ldr	r2, .L61
 940 0010 124B     		ldr	r3, .L61
 941 0012 1B78     		ldrb	r3, [r3]
 942 0014 DBB2     		uxtb	r3, r3
 943 0016 43F00103 		orr	r3, r3, #1
 944 001a DBB2     		uxtb	r3, r3
 945 001c 1370     		strb	r3, [r2]
 779:.\Generated_Source\PSoC5/Tag.c ****         Tag_RXDATA_AUX_CTL_REG &= (uint8)~Tag_RX_FIFO_CLR;
 946              		.loc 1 779 0
 947 001e 0F4A     		ldr	r2, .L61
 948 0020 0E4B     		ldr	r3, .L61
 949 0022 1B78     		ldrb	r3, [r3]
 950 0024 DBB2     		uxtb	r3, r3
 951 0026 23F00103 		bic	r3, r3, #1
 952 002a DBB2     		uxtb	r3, r3
 953 002c 1370     		strb	r3, [r2]
 780:.\Generated_Source\PSoC5/Tag.c ****         /* Exit critical section */
 781:.\Generated_Source\PSoC5/Tag.c ****         CyExitCriticalSection(enableInterrupts);
 954              		.loc 1 781 0
 955 002e FB79     		ldrb	r3, [r7, #7]	@ zero_extendqisi2
 956 0030 1846     		mov	r0, r3
 957 0032 FFF7FEFF 		bl	CyExitCriticalSection
 782:.\Generated_Source\PSoC5/Tag.c **** 
 783:.\Generated_Source\PSoC5/Tag.c ****         #if(Tag_RXBUFFERSIZE > Tag_FIFO_LENGTH)
 784:.\Generated_Source\PSoC5/Tag.c ****             /* Disable Rx interrupt. */
 785:.\Generated_Source\PSoC5/Tag.c ****             /* Protect variables that could change on interrupt. */
 786:.\Generated_Source\PSoC5/Tag.c ****             #if(Tag_RX_INTERRUPT_ENABLED)
 787:.\Generated_Source\PSoC5/Tag.c ****                 Tag_DisableRxInt();
 958              		.loc 1 787 0
 959 0036 FFF7FEFF 		bl	Tag_DisableRxInt
 788:.\Generated_Source\PSoC5/Tag.c ****             #endif /* End Tag_RX_INTERRUPT_ENABLED */
 789:.\Generated_Source\PSoC5/Tag.c **** 
 790:.\Generated_Source\PSoC5/Tag.c ****             Tag_rxBufferRead = 0u;
 960              		.loc 1 790 0
 961 003a 094B     		ldr	r3, .L61+4
 962 003c 0022     		movs	r2, #0
 963 003e 1A80     		strh	r2, [r3]	@ movhi
 791:.\Generated_Source\PSoC5/Tag.c ****             Tag_rxBufferWrite = 0u;
 964              		.loc 1 791 0
 965 0040 084B     		ldr	r3, .L61+8
 966 0042 0022     		movs	r2, #0
 967 0044 1A80     		strh	r2, [r3]	@ movhi
 792:.\Generated_Source\PSoC5/Tag.c ****             Tag_rxBufferLoopDetect = 0u;
 968              		.loc 1 792 0
 969 0046 084B     		ldr	r3, .L61+12
 970 0048 0022     		movs	r2, #0
 971 004a 1A70     		strb	r2, [r3]
 793:.\Generated_Source\PSoC5/Tag.c ****             Tag_rxBufferOverflow = 0u;
ARM GAS  C:\Users\Lenovo\AppData\Local\Temp\ccxEp1Mg.s 			page 32


 972              		.loc 1 793 0
 973 004c 074B     		ldr	r3, .L61+16
 974 004e 0022     		movs	r2, #0
 975 0050 1A70     		strb	r2, [r3]
 794:.\Generated_Source\PSoC5/Tag.c **** 
 795:.\Generated_Source\PSoC5/Tag.c ****             /* Enable Rx interrupt. */
 796:.\Generated_Source\PSoC5/Tag.c ****             #if(Tag_RX_INTERRUPT_ENABLED)
 797:.\Generated_Source\PSoC5/Tag.c ****                 Tag_EnableRxInt();
 976              		.loc 1 797 0
 977 0052 FFF7FEFF 		bl	Tag_EnableRxInt
 798:.\Generated_Source\PSoC5/Tag.c ****             #endif /* End Tag_RX_INTERRUPT_ENABLED */
 799:.\Generated_Source\PSoC5/Tag.c ****         #endif /* End Tag_RXBUFFERSIZE > Tag_FIFO_LENGTH */
 800:.\Generated_Source\PSoC5/Tag.c **** 
 801:.\Generated_Source\PSoC5/Tag.c ****     }
 978              		.loc 1 801 0
 979 0056 0837     		adds	r7, r7, #8
 980              		.cfi_def_cfa_offset 8
 981 0058 BD46     		mov	sp, r7
 982              		.cfi_def_cfa_register 13
 983              		@ sp needed
 984 005a 80BD     		pop	{r7, pc}
 985              	.L62:
 986              		.align	2
 987              	.L61:
 988 005c 94640040 		.word	1073767572
 989 0060 00000000 		.word	Tag_rxBufferRead
 990 0064 00000000 		.word	Tag_rxBufferWrite
 991 0068 00000000 		.word	Tag_rxBufferLoopDetect
 992 006c 00000000 		.word	Tag_rxBufferOverflow
 993              		.cfi_endproc
 994              	.LFE14:
 995              		.size	Tag_ClearRxBuffer, .-Tag_ClearRxBuffer
 996              		.section	.text.Tag_SetRxAddressMode,"ax",%progbits
 997              		.align	2
 998              		.global	Tag_SetRxAddressMode
 999              		.thumb
 1000              		.thumb_func
 1001              		.type	Tag_SetRxAddressMode, %function
 1002              	Tag_SetRxAddressMode:
 1003              	.LFB15:
 802:.\Generated_Source\PSoC5/Tag.c **** 
 803:.\Generated_Source\PSoC5/Tag.c **** 
 804:.\Generated_Source\PSoC5/Tag.c ****     /*******************************************************************************
 805:.\Generated_Source\PSoC5/Tag.c ****     * Function Name: Tag_SetRxAddressMode
 806:.\Generated_Source\PSoC5/Tag.c ****     ********************************************************************************
 807:.\Generated_Source\PSoC5/Tag.c ****     *
 808:.\Generated_Source\PSoC5/Tag.c ****     * Summary:
 809:.\Generated_Source\PSoC5/Tag.c ****     *  Set the receive addressing mode
 810:.\Generated_Source\PSoC5/Tag.c ****     *
 811:.\Generated_Source\PSoC5/Tag.c ****     * Parameters:
 812:.\Generated_Source\PSoC5/Tag.c ****     *  addressMode: Enumerated value indicating the mode of RX addressing
 813:.\Generated_Source\PSoC5/Tag.c ****     *  Tag__B_UART__AM_SW_BYTE_BYTE -  Software Byte-by-Byte address
 814:.\Generated_Source\PSoC5/Tag.c ****     *                                               detection
 815:.\Generated_Source\PSoC5/Tag.c ****     *  Tag__B_UART__AM_SW_DETECT_TO_BUFFER - Software Detect to Buffer
 816:.\Generated_Source\PSoC5/Tag.c ****     *                                               address detection
 817:.\Generated_Source\PSoC5/Tag.c ****     *  Tag__B_UART__AM_HW_BYTE_BY_BYTE - Hardware Byte-by-Byte address
 818:.\Generated_Source\PSoC5/Tag.c ****     *                                               detection
ARM GAS  C:\Users\Lenovo\AppData\Local\Temp\ccxEp1Mg.s 			page 33


 819:.\Generated_Source\PSoC5/Tag.c ****     *  Tag__B_UART__AM_HW_DETECT_TO_BUFFER - Hardware Detect to Buffer
 820:.\Generated_Source\PSoC5/Tag.c ****     *                                               address detection
 821:.\Generated_Source\PSoC5/Tag.c ****     *  Tag__B_UART__AM_NONE - No address detection
 822:.\Generated_Source\PSoC5/Tag.c ****     *
 823:.\Generated_Source\PSoC5/Tag.c ****     * Return:
 824:.\Generated_Source\PSoC5/Tag.c ****     *  None.
 825:.\Generated_Source\PSoC5/Tag.c ****     *
 826:.\Generated_Source\PSoC5/Tag.c ****     * Global Variables:
 827:.\Generated_Source\PSoC5/Tag.c ****     *  Tag_rxAddressMode - the parameter stored in this variable for
 828:.\Generated_Source\PSoC5/Tag.c ****     *   the farther usage in RX ISR.
 829:.\Generated_Source\PSoC5/Tag.c ****     *  Tag_rxAddressDetected - set to initial state (0).
 830:.\Generated_Source\PSoC5/Tag.c ****     *
 831:.\Generated_Source\PSoC5/Tag.c ****     *******************************************************************************/
 832:.\Generated_Source\PSoC5/Tag.c ****     void Tag_SetRxAddressMode(uint8 addressMode)
 833:.\Generated_Source\PSoC5/Tag.c ****                                                         
 834:.\Generated_Source\PSoC5/Tag.c ****     {
 1004              		.loc 1 834 0
 1005              		.cfi_startproc
 1006              		@ args = 0, pretend = 0, frame = 8
 1007              		@ frame_needed = 1, uses_anonymous_args = 0
 1008              		@ link register save eliminated.
 1009 0000 80B4     		push	{r7}
 1010              		.cfi_def_cfa_offset 4
 1011              		.cfi_offset 7, -4
 1012 0002 83B0     		sub	sp, sp, #12
 1013              		.cfi_def_cfa_offset 16
 1014 0004 00AF     		add	r7, sp, #0
 1015              		.cfi_def_cfa_register 7
 1016 0006 0346     		mov	r3, r0
 1017 0008 FB71     		strb	r3, [r7, #7]
 835:.\Generated_Source\PSoC5/Tag.c ****         #if(Tag_RXHW_ADDRESS_ENABLED)
 836:.\Generated_Source\PSoC5/Tag.c ****             #if(Tag_CONTROL_REG_REMOVED)
 837:.\Generated_Source\PSoC5/Tag.c ****                 if(addressMode != 0u) { }     /* release compiler warning */
 838:.\Generated_Source\PSoC5/Tag.c ****             #else /* Tag_CONTROL_REG_REMOVED */
 839:.\Generated_Source\PSoC5/Tag.c ****                 uint8 tmpCtrl;
 840:.\Generated_Source\PSoC5/Tag.c ****                 tmpCtrl = Tag_CONTROL_REG & (uint8)~Tag_CTRL_RXADDR_MODE_MASK;
 841:.\Generated_Source\PSoC5/Tag.c ****                 tmpCtrl |= (uint8)(addressMode << Tag_CTRL_RXADDR_MODE0_SHIFT);
 842:.\Generated_Source\PSoC5/Tag.c ****                 Tag_CONTROL_REG = tmpCtrl;
 843:.\Generated_Source\PSoC5/Tag.c ****                 #if(Tag_RX_INTERRUPT_ENABLED && \
 844:.\Generated_Source\PSoC5/Tag.c ****                    (Tag_RXBUFFERSIZE > Tag_FIFO_LENGTH) )
 845:.\Generated_Source\PSoC5/Tag.c ****                     Tag_rxAddressMode = addressMode;
 846:.\Generated_Source\PSoC5/Tag.c ****                     Tag_rxAddressDetected = 0u;
 847:.\Generated_Source\PSoC5/Tag.c ****                 #endif /* End Tag_RXBUFFERSIZE > Tag_FIFO_LENGTH*/
 848:.\Generated_Source\PSoC5/Tag.c ****             #endif /* End Tag_CONTROL_REG_REMOVED */
 849:.\Generated_Source\PSoC5/Tag.c ****         #else /* Tag_RXHW_ADDRESS_ENABLED */
 850:.\Generated_Source\PSoC5/Tag.c ****             if(addressMode != 0u) { }     /* release compiler warning */
 851:.\Generated_Source\PSoC5/Tag.c ****         #endif /* End Tag_RXHW_ADDRESS_ENABLED */
 852:.\Generated_Source\PSoC5/Tag.c ****     }
 1018              		.loc 1 852 0
 1019 000a 0C37     		adds	r7, r7, #12
 1020              		.cfi_def_cfa_offset 4
 1021 000c BD46     		mov	sp, r7
 1022              		.cfi_def_cfa_register 13
 1023              		@ sp needed
 1024 000e 5DF8047B 		ldr	r7, [sp], #4
 1025              		.cfi_restore 7
 1026              		.cfi_def_cfa_offset 0
ARM GAS  C:\Users\Lenovo\AppData\Local\Temp\ccxEp1Mg.s 			page 34


 1027 0012 7047     		bx	lr
 1028              		.cfi_endproc
 1029              	.LFE15:
 1030              		.size	Tag_SetRxAddressMode, .-Tag_SetRxAddressMode
 1031              		.section	.text.Tag_SetRxAddress1,"ax",%progbits
 1032              		.align	2
 1033              		.global	Tag_SetRxAddress1
 1034              		.thumb
 1035              		.thumb_func
 1036              		.type	Tag_SetRxAddress1, %function
 1037              	Tag_SetRxAddress1:
 1038              	.LFB16:
 853:.\Generated_Source\PSoC5/Tag.c **** 
 854:.\Generated_Source\PSoC5/Tag.c **** 
 855:.\Generated_Source\PSoC5/Tag.c ****     /*******************************************************************************
 856:.\Generated_Source\PSoC5/Tag.c ****     * Function Name: Tag_SetRxAddress1
 857:.\Generated_Source\PSoC5/Tag.c ****     ********************************************************************************
 858:.\Generated_Source\PSoC5/Tag.c ****     *
 859:.\Generated_Source\PSoC5/Tag.c ****     * Summary:
 860:.\Generated_Source\PSoC5/Tag.c ****     *  Set the first hardware address compare value
 861:.\Generated_Source\PSoC5/Tag.c ****     *
 862:.\Generated_Source\PSoC5/Tag.c ****     * Parameters:
 863:.\Generated_Source\PSoC5/Tag.c ****     *  address
 864:.\Generated_Source\PSoC5/Tag.c ****     *
 865:.\Generated_Source\PSoC5/Tag.c ****     * Return:
 866:.\Generated_Source\PSoC5/Tag.c ****     *  None.
 867:.\Generated_Source\PSoC5/Tag.c ****     *
 868:.\Generated_Source\PSoC5/Tag.c ****     *******************************************************************************/
 869:.\Generated_Source\PSoC5/Tag.c ****     void Tag_SetRxAddress1(uint8 address) 
 870:.\Generated_Source\PSoC5/Tag.c **** 
 871:.\Generated_Source\PSoC5/Tag.c ****     {
 1039              		.loc 1 871 0
 1040              		.cfi_startproc
 1041              		@ args = 0, pretend = 0, frame = 8
 1042              		@ frame_needed = 1, uses_anonymous_args = 0
 1043              		@ link register save eliminated.
 1044 0000 80B4     		push	{r7}
 1045              		.cfi_def_cfa_offset 4
 1046              		.cfi_offset 7, -4
 1047 0002 83B0     		sub	sp, sp, #12
 1048              		.cfi_def_cfa_offset 16
 1049 0004 00AF     		add	r7, sp, #0
 1050              		.cfi_def_cfa_register 7
 1051 0006 0346     		mov	r3, r0
 1052 0008 FB71     		strb	r3, [r7, #7]
 872:.\Generated_Source\PSoC5/Tag.c ****         Tag_RXADDRESS1_REG = address;
 1053              		.loc 1 872 0
 1054 000a 044A     		ldr	r2, .L65
 1055 000c FB79     		ldrb	r3, [r7, #7]
 1056 000e 1370     		strb	r3, [r2]
 873:.\Generated_Source\PSoC5/Tag.c ****     }
 1057              		.loc 1 873 0
 1058 0010 0C37     		adds	r7, r7, #12
 1059              		.cfi_def_cfa_offset 4
 1060 0012 BD46     		mov	sp, r7
 1061              		.cfi_def_cfa_register 13
 1062              		@ sp needed
ARM GAS  C:\Users\Lenovo\AppData\Local\Temp\ccxEp1Mg.s 			page 35


 1063 0014 5DF8047B 		ldr	r7, [sp], #4
 1064              		.cfi_restore 7
 1065              		.cfi_def_cfa_offset 0
 1066 0018 7047     		bx	lr
 1067              	.L66:
 1068 001a 00BF     		.align	2
 1069              	.L65:
 1070 001c 24640040 		.word	1073767460
 1071              		.cfi_endproc
 1072              	.LFE16:
 1073              		.size	Tag_SetRxAddress1, .-Tag_SetRxAddress1
 1074              		.section	.text.Tag_SetRxAddress2,"ax",%progbits
 1075              		.align	2
 1076              		.global	Tag_SetRxAddress2
 1077              		.thumb
 1078              		.thumb_func
 1079              		.type	Tag_SetRxAddress2, %function
 1080              	Tag_SetRxAddress2:
 1081              	.LFB17:
 874:.\Generated_Source\PSoC5/Tag.c **** 
 875:.\Generated_Source\PSoC5/Tag.c **** 
 876:.\Generated_Source\PSoC5/Tag.c ****     /*******************************************************************************
 877:.\Generated_Source\PSoC5/Tag.c ****     * Function Name: Tag_SetRxAddress2
 878:.\Generated_Source\PSoC5/Tag.c ****     ********************************************************************************
 879:.\Generated_Source\PSoC5/Tag.c ****     *
 880:.\Generated_Source\PSoC5/Tag.c ****     * Summary:
 881:.\Generated_Source\PSoC5/Tag.c ****     *  Set the second hardware address compare value
 882:.\Generated_Source\PSoC5/Tag.c ****     *
 883:.\Generated_Source\PSoC5/Tag.c ****     * Parameters:
 884:.\Generated_Source\PSoC5/Tag.c ****     *  address
 885:.\Generated_Source\PSoC5/Tag.c ****     *
 886:.\Generated_Source\PSoC5/Tag.c ****     * Return:
 887:.\Generated_Source\PSoC5/Tag.c ****     *  None.
 888:.\Generated_Source\PSoC5/Tag.c ****     *
 889:.\Generated_Source\PSoC5/Tag.c ****     *******************************************************************************/
 890:.\Generated_Source\PSoC5/Tag.c ****     void Tag_SetRxAddress2(uint8 address) 
 891:.\Generated_Source\PSoC5/Tag.c ****     {
 1082              		.loc 1 891 0
 1083              		.cfi_startproc
 1084              		@ args = 0, pretend = 0, frame = 8
 1085              		@ frame_needed = 1, uses_anonymous_args = 0
 1086              		@ link register save eliminated.
 1087 0000 80B4     		push	{r7}
 1088              		.cfi_def_cfa_offset 4
 1089              		.cfi_offset 7, -4
 1090 0002 83B0     		sub	sp, sp, #12
 1091              		.cfi_def_cfa_offset 16
 1092 0004 00AF     		add	r7, sp, #0
 1093              		.cfi_def_cfa_register 7
 1094 0006 0346     		mov	r3, r0
 1095 0008 FB71     		strb	r3, [r7, #7]
 892:.\Generated_Source\PSoC5/Tag.c ****         Tag_RXADDRESS2_REG = address;
 1096              		.loc 1 892 0
 1097 000a 044A     		ldr	r2, .L68
 1098 000c FB79     		ldrb	r3, [r7, #7]
 1099 000e 1370     		strb	r3, [r2]
 893:.\Generated_Source\PSoC5/Tag.c ****     }
ARM GAS  C:\Users\Lenovo\AppData\Local\Temp\ccxEp1Mg.s 			page 36


 1100              		.loc 1 893 0
 1101 0010 0C37     		adds	r7, r7, #12
 1102              		.cfi_def_cfa_offset 4
 1103 0012 BD46     		mov	sp, r7
 1104              		.cfi_def_cfa_register 13
 1105              		@ sp needed
 1106 0014 5DF8047B 		ldr	r7, [sp], #4
 1107              		.cfi_restore 7
 1108              		.cfi_def_cfa_offset 0
 1109 0018 7047     		bx	lr
 1110              	.L69:
 1111 001a 00BF     		.align	2
 1112              	.L68:
 1113 001c 34640040 		.word	1073767476
 1114              		.cfi_endproc
 1115              	.LFE17:
 1116              		.size	Tag_SetRxAddress2, .-Tag_SetRxAddress2
 1117              		.section	.text.Tag_SetTxInterruptMode,"ax",%progbits
 1118              		.align	2
 1119              		.global	Tag_SetTxInterruptMode
 1120              		.thumb
 1121              		.thumb_func
 1122              		.type	Tag_SetTxInterruptMode, %function
 1123              	Tag_SetTxInterruptMode:
 1124              	.LFB18:
 894:.\Generated_Source\PSoC5/Tag.c **** 
 895:.\Generated_Source\PSoC5/Tag.c **** #endif  /* Tag_RX_ENABLED || Tag_HD_ENABLED*/
 896:.\Generated_Source\PSoC5/Tag.c **** 
 897:.\Generated_Source\PSoC5/Tag.c **** 
 898:.\Generated_Source\PSoC5/Tag.c **** #if( (Tag_TX_ENABLED) || (Tag_HD_ENABLED) )
 899:.\Generated_Source\PSoC5/Tag.c **** 
 900:.\Generated_Source\PSoC5/Tag.c ****     #if(Tag_TX_INTERRUPT_ENABLED)
 901:.\Generated_Source\PSoC5/Tag.c **** 
 902:.\Generated_Source\PSoC5/Tag.c ****         /*******************************************************************************
 903:.\Generated_Source\PSoC5/Tag.c ****         * Function Name: Tag_EnableTxInt
 904:.\Generated_Source\PSoC5/Tag.c ****         ********************************************************************************
 905:.\Generated_Source\PSoC5/Tag.c ****         *
 906:.\Generated_Source\PSoC5/Tag.c ****         * Summary:
 907:.\Generated_Source\PSoC5/Tag.c ****         *  Enable TX interrupt generation
 908:.\Generated_Source\PSoC5/Tag.c ****         *
 909:.\Generated_Source\PSoC5/Tag.c ****         * Parameters:
 910:.\Generated_Source\PSoC5/Tag.c ****         *  None.
 911:.\Generated_Source\PSoC5/Tag.c ****         *
 912:.\Generated_Source\PSoC5/Tag.c ****         * Return:
 913:.\Generated_Source\PSoC5/Tag.c ****         *  None.
 914:.\Generated_Source\PSoC5/Tag.c ****         *
 915:.\Generated_Source\PSoC5/Tag.c ****         * Theory:
 916:.\Generated_Source\PSoC5/Tag.c ****         *  Enable the interrupt output -or- the interrupt component itself
 917:.\Generated_Source\PSoC5/Tag.c ****         *
 918:.\Generated_Source\PSoC5/Tag.c ****         *******************************************************************************/
 919:.\Generated_Source\PSoC5/Tag.c ****         void Tag_EnableTxInt(void) 
 920:.\Generated_Source\PSoC5/Tag.c ****         {
 921:.\Generated_Source\PSoC5/Tag.c ****             CyIntEnable(Tag_TX_VECT_NUM);
 922:.\Generated_Source\PSoC5/Tag.c ****         }
 923:.\Generated_Source\PSoC5/Tag.c **** 
 924:.\Generated_Source\PSoC5/Tag.c **** 
 925:.\Generated_Source\PSoC5/Tag.c ****         /*******************************************************************************
ARM GAS  C:\Users\Lenovo\AppData\Local\Temp\ccxEp1Mg.s 			page 37


 926:.\Generated_Source\PSoC5/Tag.c ****         * Function Name: Tag_DisableTxInt
 927:.\Generated_Source\PSoC5/Tag.c ****         ********************************************************************************
 928:.\Generated_Source\PSoC5/Tag.c ****         *
 929:.\Generated_Source\PSoC5/Tag.c ****         * Summary:
 930:.\Generated_Source\PSoC5/Tag.c ****         *  Disable TX interrupt generation
 931:.\Generated_Source\PSoC5/Tag.c ****         *
 932:.\Generated_Source\PSoC5/Tag.c ****         * Parameters:
 933:.\Generated_Source\PSoC5/Tag.c ****         *  None.
 934:.\Generated_Source\PSoC5/Tag.c ****         *
 935:.\Generated_Source\PSoC5/Tag.c ****         * Return:
 936:.\Generated_Source\PSoC5/Tag.c ****         *  None.
 937:.\Generated_Source\PSoC5/Tag.c ****         *
 938:.\Generated_Source\PSoC5/Tag.c ****         * Theory:
 939:.\Generated_Source\PSoC5/Tag.c ****         *  Disable the interrupt output -or- the interrupt component itself
 940:.\Generated_Source\PSoC5/Tag.c ****         *
 941:.\Generated_Source\PSoC5/Tag.c ****         *******************************************************************************/
 942:.\Generated_Source\PSoC5/Tag.c ****         void Tag_DisableTxInt(void) 
 943:.\Generated_Source\PSoC5/Tag.c ****         {
 944:.\Generated_Source\PSoC5/Tag.c ****             CyIntDisable(Tag_TX_VECT_NUM);
 945:.\Generated_Source\PSoC5/Tag.c ****         }
 946:.\Generated_Source\PSoC5/Tag.c **** 
 947:.\Generated_Source\PSoC5/Tag.c ****     #endif /* Tag_TX_INTERRUPT_ENABLED */
 948:.\Generated_Source\PSoC5/Tag.c **** 
 949:.\Generated_Source\PSoC5/Tag.c **** 
 950:.\Generated_Source\PSoC5/Tag.c ****     /*******************************************************************************
 951:.\Generated_Source\PSoC5/Tag.c ****     * Function Name: Tag_SetTxInterruptMode
 952:.\Generated_Source\PSoC5/Tag.c ****     ********************************************************************************
 953:.\Generated_Source\PSoC5/Tag.c ****     *
 954:.\Generated_Source\PSoC5/Tag.c ****     * Summary:
 955:.\Generated_Source\PSoC5/Tag.c ****     *  Configure which status bits trigger an interrupt event
 956:.\Generated_Source\PSoC5/Tag.c ****     *
 957:.\Generated_Source\PSoC5/Tag.c ****     * Parameters:
 958:.\Generated_Source\PSoC5/Tag.c ****     *  intSrc: An or'd combination of the desired status bit masks (defined in
 959:.\Generated_Source\PSoC5/Tag.c ****     *          the header file)
 960:.\Generated_Source\PSoC5/Tag.c ****     *
 961:.\Generated_Source\PSoC5/Tag.c ****     * Return:
 962:.\Generated_Source\PSoC5/Tag.c ****     *  None.
 963:.\Generated_Source\PSoC5/Tag.c ****     *
 964:.\Generated_Source\PSoC5/Tag.c ****     * Theory:
 965:.\Generated_Source\PSoC5/Tag.c ****     *  Enables the output of specific status bits to the interrupt controller
 966:.\Generated_Source\PSoC5/Tag.c ****     *
 967:.\Generated_Source\PSoC5/Tag.c ****     *******************************************************************************/
 968:.\Generated_Source\PSoC5/Tag.c ****     void Tag_SetTxInterruptMode(uint8 intSrc) 
 969:.\Generated_Source\PSoC5/Tag.c ****     {
 1125              		.loc 1 969 0
 1126              		.cfi_startproc
 1127              		@ args = 0, pretend = 0, frame = 8
 1128              		@ frame_needed = 1, uses_anonymous_args = 0
 1129              		@ link register save eliminated.
 1130 0000 80B4     		push	{r7}
 1131              		.cfi_def_cfa_offset 4
 1132              		.cfi_offset 7, -4
 1133 0002 83B0     		sub	sp, sp, #12
 1134              		.cfi_def_cfa_offset 16
 1135 0004 00AF     		add	r7, sp, #0
 1136              		.cfi_def_cfa_register 7
 1137 0006 0346     		mov	r3, r0
ARM GAS  C:\Users\Lenovo\AppData\Local\Temp\ccxEp1Mg.s 			page 38


 1138 0008 FB71     		strb	r3, [r7, #7]
 970:.\Generated_Source\PSoC5/Tag.c ****         Tag_TXSTATUS_MASK_REG = intSrc;
 1139              		.loc 1 970 0
 1140 000a 044A     		ldr	r2, .L71
 1141 000c FB79     		ldrb	r3, [r7, #7]
 1142 000e 1370     		strb	r3, [r2]
 971:.\Generated_Source\PSoC5/Tag.c ****     }
 1143              		.loc 1 971 0
 1144 0010 0C37     		adds	r7, r7, #12
 1145              		.cfi_def_cfa_offset 4
 1146 0012 BD46     		mov	sp, r7
 1147              		.cfi_def_cfa_register 13
 1148              		@ sp needed
 1149 0014 5DF8047B 		ldr	r7, [sp], #4
 1150              		.cfi_restore 7
 1151              		.cfi_def_cfa_offset 0
 1152 0018 7047     		bx	lr
 1153              	.L72:
 1154 001a 00BF     		.align	2
 1155              	.L71:
 1156 001c 8B650040 		.word	1073767819
 1157              		.cfi_endproc
 1158              	.LFE18:
 1159              		.size	Tag_SetTxInterruptMode, .-Tag_SetTxInterruptMode
 1160              		.section	.text.Tag_WriteTxData,"ax",%progbits
 1161              		.align	2
 1162              		.global	Tag_WriteTxData
 1163              		.thumb
 1164              		.thumb_func
 1165              		.type	Tag_WriteTxData, %function
 1166              	Tag_WriteTxData:
 1167              	.LFB19:
 972:.\Generated_Source\PSoC5/Tag.c **** 
 973:.\Generated_Source\PSoC5/Tag.c **** 
 974:.\Generated_Source\PSoC5/Tag.c ****     /*******************************************************************************
 975:.\Generated_Source\PSoC5/Tag.c ****     * Function Name: Tag_WriteTxData
 976:.\Generated_Source\PSoC5/Tag.c ****     ********************************************************************************
 977:.\Generated_Source\PSoC5/Tag.c ****     *
 978:.\Generated_Source\PSoC5/Tag.c ****     * Summary:
 979:.\Generated_Source\PSoC5/Tag.c ****     *  Write a byte of data to the Transmit FIFO or TX buffer to be sent when the
 980:.\Generated_Source\PSoC5/Tag.c ****     *  bus is available. WriteTxData sends a byte without checking for buffer room
 981:.\Generated_Source\PSoC5/Tag.c ****     *  or status. It is up to the user to separately check status.
 982:.\Generated_Source\PSoC5/Tag.c ****     *
 983:.\Generated_Source\PSoC5/Tag.c ****     * Parameters:
 984:.\Generated_Source\PSoC5/Tag.c ****     *  TXDataByte: byte of data to place in the transmit FIFO
 985:.\Generated_Source\PSoC5/Tag.c ****     *
 986:.\Generated_Source\PSoC5/Tag.c ****     * Return:
 987:.\Generated_Source\PSoC5/Tag.c ****     * void
 988:.\Generated_Source\PSoC5/Tag.c ****     *
 989:.\Generated_Source\PSoC5/Tag.c ****     * Global Variables:
 990:.\Generated_Source\PSoC5/Tag.c ****     *  Tag_txBuffer - RAM buffer pointer for save data for transmission
 991:.\Generated_Source\PSoC5/Tag.c ****     *  Tag_txBufferWrite - cyclic index for write to txBuffer,
 992:.\Generated_Source\PSoC5/Tag.c ****     *    incremented after each byte saved to buffer.
 993:.\Generated_Source\PSoC5/Tag.c ****     *  Tag_txBufferRead - cyclic index for read from txBuffer,
 994:.\Generated_Source\PSoC5/Tag.c ****     *    checked to identify the condition to write to FIFO directly or to TX buffer
 995:.\Generated_Source\PSoC5/Tag.c ****     *  Tag_initVar - checked to identify that the component has been
 996:.\Generated_Source\PSoC5/Tag.c ****     *    initialized.
ARM GAS  C:\Users\Lenovo\AppData\Local\Temp\ccxEp1Mg.s 			page 39


 997:.\Generated_Source\PSoC5/Tag.c ****     *
 998:.\Generated_Source\PSoC5/Tag.c ****     * Reentrant:
 999:.\Generated_Source\PSoC5/Tag.c ****     *  No.
1000:.\Generated_Source\PSoC5/Tag.c ****     *
1001:.\Generated_Source\PSoC5/Tag.c ****     *******************************************************************************/
1002:.\Generated_Source\PSoC5/Tag.c ****     void Tag_WriteTxData(uint8 txDataByte) 
1003:.\Generated_Source\PSoC5/Tag.c ****     {
 1168              		.loc 1 1003 0
 1169              		.cfi_startproc
 1170              		@ args = 0, pretend = 0, frame = 8
 1171              		@ frame_needed = 1, uses_anonymous_args = 0
 1172              		@ link register save eliminated.
 1173 0000 80B4     		push	{r7}
 1174              		.cfi_def_cfa_offset 4
 1175              		.cfi_offset 7, -4
 1176 0002 83B0     		sub	sp, sp, #12
 1177              		.cfi_def_cfa_offset 16
 1178 0004 00AF     		add	r7, sp, #0
 1179              		.cfi_def_cfa_register 7
 1180 0006 0346     		mov	r3, r0
 1181 0008 FB71     		strb	r3, [r7, #7]
1004:.\Generated_Source\PSoC5/Tag.c ****         /* If not Initialized then skip this function*/
1005:.\Generated_Source\PSoC5/Tag.c ****         if(Tag_initVar != 0u)
 1182              		.loc 1 1005 0
 1183 000a 064B     		ldr	r3, .L75
 1184 000c 1B78     		ldrb	r3, [r3]	@ zero_extendqisi2
 1185 000e 002B     		cmp	r3, #0
 1186 0010 02D0     		beq	.L73
1006:.\Generated_Source\PSoC5/Tag.c ****         {
1007:.\Generated_Source\PSoC5/Tag.c ****             #if(Tag_TXBUFFERSIZE > Tag_FIFO_LENGTH)
1008:.\Generated_Source\PSoC5/Tag.c **** 
1009:.\Generated_Source\PSoC5/Tag.c ****                 /* Disable Tx interrupt. */
1010:.\Generated_Source\PSoC5/Tag.c ****                 /* Protect variables that could change on interrupt. */
1011:.\Generated_Source\PSoC5/Tag.c ****                 #if(Tag_TX_INTERRUPT_ENABLED)
1012:.\Generated_Source\PSoC5/Tag.c ****                     Tag_DisableTxInt();
1013:.\Generated_Source\PSoC5/Tag.c ****                 #endif /* End Tag_TX_INTERRUPT_ENABLED */
1014:.\Generated_Source\PSoC5/Tag.c **** 
1015:.\Generated_Source\PSoC5/Tag.c ****                 if( (Tag_txBufferRead == Tag_txBufferWrite) &&
1016:.\Generated_Source\PSoC5/Tag.c ****                     ((Tag_TXSTATUS_REG & Tag_TX_STS_FIFO_FULL) == 0u) )
1017:.\Generated_Source\PSoC5/Tag.c ****                 {
1018:.\Generated_Source\PSoC5/Tag.c ****                     /* Add directly to the FIFO. */
1019:.\Generated_Source\PSoC5/Tag.c ****                     Tag_TXDATA_REG = txDataByte;
1020:.\Generated_Source\PSoC5/Tag.c ****                 }
1021:.\Generated_Source\PSoC5/Tag.c ****                 else
1022:.\Generated_Source\PSoC5/Tag.c ****                 {
1023:.\Generated_Source\PSoC5/Tag.c ****                     if(Tag_txBufferWrite >= Tag_TXBUFFERSIZE)
1024:.\Generated_Source\PSoC5/Tag.c ****                     {
1025:.\Generated_Source\PSoC5/Tag.c ****                         Tag_txBufferWrite = 0u;
1026:.\Generated_Source\PSoC5/Tag.c ****                     }
1027:.\Generated_Source\PSoC5/Tag.c **** 
1028:.\Generated_Source\PSoC5/Tag.c ****                     Tag_txBuffer[Tag_txBufferWrite] = txDataByte;
1029:.\Generated_Source\PSoC5/Tag.c **** 
1030:.\Generated_Source\PSoC5/Tag.c ****                     /* Add to the software buffer. */
1031:.\Generated_Source\PSoC5/Tag.c ****                     Tag_txBufferWrite++;
1032:.\Generated_Source\PSoC5/Tag.c **** 
1033:.\Generated_Source\PSoC5/Tag.c ****                 }
1034:.\Generated_Source\PSoC5/Tag.c **** 
ARM GAS  C:\Users\Lenovo\AppData\Local\Temp\ccxEp1Mg.s 			page 40


1035:.\Generated_Source\PSoC5/Tag.c ****                 /* Enable Tx interrupt. */
1036:.\Generated_Source\PSoC5/Tag.c ****                 #if(Tag_TX_INTERRUPT_ENABLED)
1037:.\Generated_Source\PSoC5/Tag.c ****                     Tag_EnableTxInt();
1038:.\Generated_Source\PSoC5/Tag.c ****                 #endif /* End Tag_TX_INTERRUPT_ENABLED */
1039:.\Generated_Source\PSoC5/Tag.c **** 
1040:.\Generated_Source\PSoC5/Tag.c ****             #else /* Tag_TXBUFFERSIZE > Tag_FIFO_LENGTH */
1041:.\Generated_Source\PSoC5/Tag.c **** 
1042:.\Generated_Source\PSoC5/Tag.c ****                 /* Add directly to the FIFO. */
1043:.\Generated_Source\PSoC5/Tag.c ****                 Tag_TXDATA_REG = txDataByte;
 1187              		.loc 1 1043 0
 1188 0012 054A     		ldr	r2, .L75+4
 1189 0014 FB79     		ldrb	r3, [r7, #7]
 1190 0016 1370     		strb	r3, [r2]
 1191              	.L73:
1044:.\Generated_Source\PSoC5/Tag.c **** 
1045:.\Generated_Source\PSoC5/Tag.c ****             #endif /* End Tag_TXBUFFERSIZE > Tag_FIFO_LENGTH */
1046:.\Generated_Source\PSoC5/Tag.c ****         }
1047:.\Generated_Source\PSoC5/Tag.c ****     }
 1192              		.loc 1 1047 0
 1193 0018 0C37     		adds	r7, r7, #12
 1194              		.cfi_def_cfa_offset 4
 1195 001a BD46     		mov	sp, r7
 1196              		.cfi_def_cfa_register 13
 1197              		@ sp needed
 1198 001c 5DF8047B 		ldr	r7, [sp], #4
 1199              		.cfi_restore 7
 1200              		.cfi_def_cfa_offset 0
 1201 0020 7047     		bx	lr
 1202              	.L76:
 1203 0022 00BF     		.align	2
 1204              	.L75:
 1205 0024 00000000 		.word	Tag_initVar
 1206 0028 44650040 		.word	1073767748
 1207              		.cfi_endproc
 1208              	.LFE19:
 1209              		.size	Tag_WriteTxData, .-Tag_WriteTxData
 1210              		.section	.text.Tag_ReadTxStatus,"ax",%progbits
 1211              		.align	2
 1212              		.global	Tag_ReadTxStatus
 1213              		.thumb
 1214              		.thumb_func
 1215              		.type	Tag_ReadTxStatus, %function
 1216              	Tag_ReadTxStatus:
 1217              	.LFB20:
1048:.\Generated_Source\PSoC5/Tag.c **** 
1049:.\Generated_Source\PSoC5/Tag.c **** 
1050:.\Generated_Source\PSoC5/Tag.c ****     /*******************************************************************************
1051:.\Generated_Source\PSoC5/Tag.c ****     * Function Name: Tag_ReadTxStatus
1052:.\Generated_Source\PSoC5/Tag.c ****     ********************************************************************************
1053:.\Generated_Source\PSoC5/Tag.c ****     *
1054:.\Generated_Source\PSoC5/Tag.c ****     * Summary:
1055:.\Generated_Source\PSoC5/Tag.c ****     *  Read the status register for the component
1056:.\Generated_Source\PSoC5/Tag.c ****     *
1057:.\Generated_Source\PSoC5/Tag.c ****     * Parameters:
1058:.\Generated_Source\PSoC5/Tag.c ****     *  None.
1059:.\Generated_Source\PSoC5/Tag.c ****     *
1060:.\Generated_Source\PSoC5/Tag.c ****     * Return:
ARM GAS  C:\Users\Lenovo\AppData\Local\Temp\ccxEp1Mg.s 			page 41


1061:.\Generated_Source\PSoC5/Tag.c ****     *  Contents of the status register
1062:.\Generated_Source\PSoC5/Tag.c ****     *
1063:.\Generated_Source\PSoC5/Tag.c ****     * Theory:
1064:.\Generated_Source\PSoC5/Tag.c ****     *  This function reads the status register which is clear on read. It is up to
1065:.\Generated_Source\PSoC5/Tag.c ****     *  the user to handle all bits in this return value accordingly, even if the bit
1066:.\Generated_Source\PSoC5/Tag.c ****     *  was not enabled as an interrupt source the event happened and must be handled
1067:.\Generated_Source\PSoC5/Tag.c ****     *  accordingly.
1068:.\Generated_Source\PSoC5/Tag.c ****     *
1069:.\Generated_Source\PSoC5/Tag.c ****     *******************************************************************************/
1070:.\Generated_Source\PSoC5/Tag.c ****     uint8 Tag_ReadTxStatus(void) 
1071:.\Generated_Source\PSoC5/Tag.c ****     {
 1218              		.loc 1 1071 0
 1219              		.cfi_startproc
 1220              		@ args = 0, pretend = 0, frame = 0
 1221              		@ frame_needed = 1, uses_anonymous_args = 0
 1222              		@ link register save eliminated.
 1223 0000 80B4     		push	{r7}
 1224              		.cfi_def_cfa_offset 4
 1225              		.cfi_offset 7, -4
 1226 0002 00AF     		add	r7, sp, #0
 1227              		.cfi_def_cfa_register 7
1072:.\Generated_Source\PSoC5/Tag.c ****         return(Tag_TXSTATUS_REG);
 1228              		.loc 1 1072 0
 1229 0004 034B     		ldr	r3, .L79
 1230 0006 1B78     		ldrb	r3, [r3]
 1231 0008 DBB2     		uxtb	r3, r3
1073:.\Generated_Source\PSoC5/Tag.c ****     }
 1232              		.loc 1 1073 0
 1233 000a 1846     		mov	r0, r3
 1234 000c BD46     		mov	sp, r7
 1235              		.cfi_def_cfa_register 13
 1236              		@ sp needed
 1237 000e 5DF8047B 		ldr	r7, [sp], #4
 1238              		.cfi_restore 7
 1239              		.cfi_def_cfa_offset 0
 1240 0012 7047     		bx	lr
 1241              	.L80:
 1242              		.align	2
 1243              	.L79:
 1244 0014 6B650040 		.word	1073767787
 1245              		.cfi_endproc
 1246              	.LFE20:
 1247              		.size	Tag_ReadTxStatus, .-Tag_ReadTxStatus
 1248              		.section	.text.Tag_PutChar,"ax",%progbits
 1249              		.align	2
 1250              		.global	Tag_PutChar
 1251              		.thumb
 1252              		.thumb_func
 1253              		.type	Tag_PutChar, %function
 1254              	Tag_PutChar:
 1255              	.LFB21:
1074:.\Generated_Source\PSoC5/Tag.c **** 
1075:.\Generated_Source\PSoC5/Tag.c **** 
1076:.\Generated_Source\PSoC5/Tag.c ****     /*******************************************************************************
1077:.\Generated_Source\PSoC5/Tag.c ****     * Function Name: Tag_PutChar
1078:.\Generated_Source\PSoC5/Tag.c ****     ********************************************************************************
1079:.\Generated_Source\PSoC5/Tag.c ****     *
ARM GAS  C:\Users\Lenovo\AppData\Local\Temp\ccxEp1Mg.s 			page 42


1080:.\Generated_Source\PSoC5/Tag.c ****     * Summary:
1081:.\Generated_Source\PSoC5/Tag.c ****     *  Wait to send byte until TX register or buffer has room.
1082:.\Generated_Source\PSoC5/Tag.c ****     *
1083:.\Generated_Source\PSoC5/Tag.c ****     * Parameters:
1084:.\Generated_Source\PSoC5/Tag.c ****     *  txDataByte: The 8-bit data value to send across the UART.
1085:.\Generated_Source\PSoC5/Tag.c ****     *
1086:.\Generated_Source\PSoC5/Tag.c ****     * Return:
1087:.\Generated_Source\PSoC5/Tag.c ****     *  None.
1088:.\Generated_Source\PSoC5/Tag.c ****     *
1089:.\Generated_Source\PSoC5/Tag.c ****     * Global Variables:
1090:.\Generated_Source\PSoC5/Tag.c ****     *  Tag_txBuffer - RAM buffer pointer for save data for transmission
1091:.\Generated_Source\PSoC5/Tag.c ****     *  Tag_txBufferWrite - cyclic index for write to txBuffer,
1092:.\Generated_Source\PSoC5/Tag.c ****     *     checked to identify free space in txBuffer and incremented after each byte
1093:.\Generated_Source\PSoC5/Tag.c ****     *     saved to buffer.
1094:.\Generated_Source\PSoC5/Tag.c ****     *  Tag_txBufferRead - cyclic index for read from txBuffer,
1095:.\Generated_Source\PSoC5/Tag.c ****     *     checked to identify free space in txBuffer.
1096:.\Generated_Source\PSoC5/Tag.c ****     *  Tag_initVar - checked to identify that the component has been
1097:.\Generated_Source\PSoC5/Tag.c ****     *     initialized.
1098:.\Generated_Source\PSoC5/Tag.c ****     *
1099:.\Generated_Source\PSoC5/Tag.c ****     * Reentrant:
1100:.\Generated_Source\PSoC5/Tag.c ****     *  No.
1101:.\Generated_Source\PSoC5/Tag.c ****     *
1102:.\Generated_Source\PSoC5/Tag.c ****     * Theory:
1103:.\Generated_Source\PSoC5/Tag.c ****     *  Allows the user to transmit any byte of data in a single transfer
1104:.\Generated_Source\PSoC5/Tag.c ****     *
1105:.\Generated_Source\PSoC5/Tag.c ****     *******************************************************************************/
1106:.\Generated_Source\PSoC5/Tag.c ****     void Tag_PutChar(uint8 txDataByte) 
1107:.\Generated_Source\PSoC5/Tag.c ****     {
 1256              		.loc 1 1107 0
 1257              		.cfi_startproc
 1258              		@ args = 0, pretend = 0, frame = 8
 1259              		@ frame_needed = 1, uses_anonymous_args = 0
 1260              		@ link register save eliminated.
 1261 0000 80B4     		push	{r7}
 1262              		.cfi_def_cfa_offset 4
 1263              		.cfi_offset 7, -4
 1264 0002 83B0     		sub	sp, sp, #12
 1265              		.cfi_def_cfa_offset 16
 1266 0004 00AF     		add	r7, sp, #0
 1267              		.cfi_def_cfa_register 7
 1268 0006 0346     		mov	r3, r0
 1269 0008 FB71     		strb	r3, [r7, #7]
1108:.\Generated_Source\PSoC5/Tag.c ****             #if(Tag_TXBUFFERSIZE > Tag_FIFO_LENGTH)
1109:.\Generated_Source\PSoC5/Tag.c ****                 /* The temporary output pointer is used since it takes two instructions
1110:.\Generated_Source\PSoC5/Tag.c ****                 *  to increment with a wrap, and we can't risk doing that with the real
1111:.\Generated_Source\PSoC5/Tag.c ****                 *  pointer and getting an interrupt in between instructions.
1112:.\Generated_Source\PSoC5/Tag.c ****                 */
1113:.\Generated_Source\PSoC5/Tag.c ****                 uint8 loc_txBufferWrite;
1114:.\Generated_Source\PSoC5/Tag.c ****                 uint8 loc_txBufferRead;
1115:.\Generated_Source\PSoC5/Tag.c **** 
1116:.\Generated_Source\PSoC5/Tag.c ****                 do{
1117:.\Generated_Source\PSoC5/Tag.c ****                     /* Block if software buffer is full, so we don't overwrite. */
1118:.\Generated_Source\PSoC5/Tag.c ****                     #if ((Tag_TXBUFFERSIZE > Tag_MAX_BYTE_VALUE) && (CY_PSOC3))
1119:.\Generated_Source\PSoC5/Tag.c ****                         /* Disable TX interrupt to protect variables that could change on interrupt
1120:.\Generated_Source\PSoC5/Tag.c ****                         CyIntDisable(Tag_TX_VECT_NUM);
1121:.\Generated_Source\PSoC5/Tag.c ****                     #endif /* End TXBUFFERSIZE > 255 */
1122:.\Generated_Source\PSoC5/Tag.c ****                     loc_txBufferWrite = Tag_txBufferWrite;
ARM GAS  C:\Users\Lenovo\AppData\Local\Temp\ccxEp1Mg.s 			page 43


1123:.\Generated_Source\PSoC5/Tag.c ****                     loc_txBufferRead = Tag_txBufferRead;
1124:.\Generated_Source\PSoC5/Tag.c ****                     #if ((Tag_TXBUFFERSIZE > Tag_MAX_BYTE_VALUE) && (CY_PSOC3))
1125:.\Generated_Source\PSoC5/Tag.c ****                         /* Enable interrupt to continue transmission */
1126:.\Generated_Source\PSoC5/Tag.c ****                         CyIntEnable(Tag_TX_VECT_NUM);
1127:.\Generated_Source\PSoC5/Tag.c ****                     #endif /* End TXBUFFERSIZE > 255 */
1128:.\Generated_Source\PSoC5/Tag.c ****                 }while( (loc_txBufferWrite < loc_txBufferRead) ? (loc_txBufferWrite == (loc_txBuffe
1129:.\Generated_Source\PSoC5/Tag.c ****                                         ((loc_txBufferWrite - loc_txBufferRead) ==
1130:.\Generated_Source\PSoC5/Tag.c ****                                         (uint8)(Tag_TXBUFFERSIZE - 1u)) );
1131:.\Generated_Source\PSoC5/Tag.c **** 
1132:.\Generated_Source\PSoC5/Tag.c ****                 if( (loc_txBufferRead == loc_txBufferWrite) &&
1133:.\Generated_Source\PSoC5/Tag.c ****                     ((Tag_TXSTATUS_REG & Tag_TX_STS_FIFO_FULL) == 0u) )
1134:.\Generated_Source\PSoC5/Tag.c ****                 {
1135:.\Generated_Source\PSoC5/Tag.c ****                     /* Add directly to the FIFO. */
1136:.\Generated_Source\PSoC5/Tag.c ****                     Tag_TXDATA_REG = txDataByte;
1137:.\Generated_Source\PSoC5/Tag.c ****                 }
1138:.\Generated_Source\PSoC5/Tag.c ****                 else
1139:.\Generated_Source\PSoC5/Tag.c ****                 {
1140:.\Generated_Source\PSoC5/Tag.c ****                     if(loc_txBufferWrite >= Tag_TXBUFFERSIZE)
1141:.\Generated_Source\PSoC5/Tag.c ****                     {
1142:.\Generated_Source\PSoC5/Tag.c ****                         loc_txBufferWrite = 0u;
1143:.\Generated_Source\PSoC5/Tag.c ****                     }
1144:.\Generated_Source\PSoC5/Tag.c ****                     /* Add to the software buffer. */
1145:.\Generated_Source\PSoC5/Tag.c ****                     Tag_txBuffer[loc_txBufferWrite] = txDataByte;
1146:.\Generated_Source\PSoC5/Tag.c ****                     loc_txBufferWrite++;
1147:.\Generated_Source\PSoC5/Tag.c **** 
1148:.\Generated_Source\PSoC5/Tag.c ****                     /* Finally, update the real output pointer */
1149:.\Generated_Source\PSoC5/Tag.c ****                     #if ((Tag_TXBUFFERSIZE > Tag_MAX_BYTE_VALUE) && (CY_PSOC3))
1150:.\Generated_Source\PSoC5/Tag.c ****                         CyIntDisable(Tag_TX_VECT_NUM);
1151:.\Generated_Source\PSoC5/Tag.c ****                     #endif /* End TXBUFFERSIZE > 255 */
1152:.\Generated_Source\PSoC5/Tag.c ****                     Tag_txBufferWrite = loc_txBufferWrite;
1153:.\Generated_Source\PSoC5/Tag.c ****                     #if ((Tag_TXBUFFERSIZE > Tag_MAX_BYTE_VALUE) && (CY_PSOC3))
1154:.\Generated_Source\PSoC5/Tag.c ****                         CyIntEnable(Tag_TX_VECT_NUM);
1155:.\Generated_Source\PSoC5/Tag.c ****                     #endif /* End TXBUFFERSIZE > 255 */
1156:.\Generated_Source\PSoC5/Tag.c ****                 }
1157:.\Generated_Source\PSoC5/Tag.c **** 
1158:.\Generated_Source\PSoC5/Tag.c ****             #else /* Tag_TXBUFFERSIZE > Tag_FIFO_LENGTH */
1159:.\Generated_Source\PSoC5/Tag.c **** 
1160:.\Generated_Source\PSoC5/Tag.c ****                 while((Tag_TXSTATUS_REG & Tag_TX_STS_FIFO_FULL) != 0u)
 1270              		.loc 1 1160 0
 1271 000a 00BF     		nop
 1272              	.L82:
 1273              		.loc 1 1160 0 is_stmt 0 discriminator 1
 1274 000c 074B     		ldr	r3, .L83
 1275 000e 1B78     		ldrb	r3, [r3]
 1276 0010 DBB2     		uxtb	r3, r3
 1277 0012 03F00403 		and	r3, r3, #4
 1278 0016 002B     		cmp	r3, #0
 1279 0018 F8D1     		bne	.L82
1161:.\Generated_Source\PSoC5/Tag.c ****                 {
1162:.\Generated_Source\PSoC5/Tag.c ****                     ; /* Wait for room in the FIFO. */
1163:.\Generated_Source\PSoC5/Tag.c ****                 }
1164:.\Generated_Source\PSoC5/Tag.c **** 
1165:.\Generated_Source\PSoC5/Tag.c ****                 /* Add directly to the FIFO. */
1166:.\Generated_Source\PSoC5/Tag.c ****                 Tag_TXDATA_REG = txDataByte;
 1280              		.loc 1 1166 0 is_stmt 1
 1281 001a 054A     		ldr	r2, .L83+4
 1282 001c FB79     		ldrb	r3, [r7, #7]
ARM GAS  C:\Users\Lenovo\AppData\Local\Temp\ccxEp1Mg.s 			page 44


 1283 001e 1370     		strb	r3, [r2]
1167:.\Generated_Source\PSoC5/Tag.c **** 
1168:.\Generated_Source\PSoC5/Tag.c ****             #endif /* End Tag_TXBUFFERSIZE > Tag_FIFO_LENGTH */
1169:.\Generated_Source\PSoC5/Tag.c ****     }
 1284              		.loc 1 1169 0
 1285 0020 0C37     		adds	r7, r7, #12
 1286              		.cfi_def_cfa_offset 4
 1287 0022 BD46     		mov	sp, r7
 1288              		.cfi_def_cfa_register 13
 1289              		@ sp needed
 1290 0024 5DF8047B 		ldr	r7, [sp], #4
 1291              		.cfi_restore 7
 1292              		.cfi_def_cfa_offset 0
 1293 0028 7047     		bx	lr
 1294              	.L84:
 1295 002a 00BF     		.align	2
 1296              	.L83:
 1297 002c 6B650040 		.word	1073767787
 1298 0030 44650040 		.word	1073767748
 1299              		.cfi_endproc
 1300              	.LFE21:
 1301              		.size	Tag_PutChar, .-Tag_PutChar
 1302              		.section	.text.Tag_PutString,"ax",%progbits
 1303              		.align	2
 1304              		.global	Tag_PutString
 1305              		.thumb
 1306              		.thumb_func
 1307              		.type	Tag_PutString, %function
 1308              	Tag_PutString:
 1309              	.LFB22:
1170:.\Generated_Source\PSoC5/Tag.c **** 
1171:.\Generated_Source\PSoC5/Tag.c **** 
1172:.\Generated_Source\PSoC5/Tag.c ****     /*******************************************************************************
1173:.\Generated_Source\PSoC5/Tag.c ****     * Function Name: Tag_PutString
1174:.\Generated_Source\PSoC5/Tag.c ****     ********************************************************************************
1175:.\Generated_Source\PSoC5/Tag.c ****     *
1176:.\Generated_Source\PSoC5/Tag.c ****     * Summary:
1177:.\Generated_Source\PSoC5/Tag.c ****     *  Write a Sequence of bytes on the Transmit line. Data comes from RAM or ROM.
1178:.\Generated_Source\PSoC5/Tag.c ****     *
1179:.\Generated_Source\PSoC5/Tag.c ****     * Parameters:
1180:.\Generated_Source\PSoC5/Tag.c ****     *  string: char pointer to character string of Data to Send.
1181:.\Generated_Source\PSoC5/Tag.c ****     *
1182:.\Generated_Source\PSoC5/Tag.c ****     * Return:
1183:.\Generated_Source\PSoC5/Tag.c ****     *  None.
1184:.\Generated_Source\PSoC5/Tag.c ****     *
1185:.\Generated_Source\PSoC5/Tag.c ****     * Global Variables:
1186:.\Generated_Source\PSoC5/Tag.c ****     *  Tag_initVar - checked to identify that the component has been
1187:.\Generated_Source\PSoC5/Tag.c ****     *     initialized.
1188:.\Generated_Source\PSoC5/Tag.c ****     *
1189:.\Generated_Source\PSoC5/Tag.c ****     * Reentrant:
1190:.\Generated_Source\PSoC5/Tag.c ****     *  No.
1191:.\Generated_Source\PSoC5/Tag.c ****     *
1192:.\Generated_Source\PSoC5/Tag.c ****     * Theory:
1193:.\Generated_Source\PSoC5/Tag.c ****     *  This function will block if there is not enough memory to place the whole
1194:.\Generated_Source\PSoC5/Tag.c ****     *  string, it will block until the entire string has been written to the
1195:.\Generated_Source\PSoC5/Tag.c ****     *  transmit buffer.
1196:.\Generated_Source\PSoC5/Tag.c ****     *
ARM GAS  C:\Users\Lenovo\AppData\Local\Temp\ccxEp1Mg.s 			page 45


1197:.\Generated_Source\PSoC5/Tag.c ****     *******************************************************************************/
1198:.\Generated_Source\PSoC5/Tag.c ****     void Tag_PutString(const char8 string[]) 
1199:.\Generated_Source\PSoC5/Tag.c ****     {
 1310              		.loc 1 1199 0
 1311              		.cfi_startproc
 1312              		@ args = 0, pretend = 0, frame = 16
 1313              		@ frame_needed = 1, uses_anonymous_args = 0
 1314 0000 80B5     		push	{r7, lr}
 1315              		.cfi_def_cfa_offset 8
 1316              		.cfi_offset 7, -8
 1317              		.cfi_offset 14, -4
 1318 0002 84B0     		sub	sp, sp, #16
 1319              		.cfi_def_cfa_offset 24
 1320 0004 00AF     		add	r7, sp, #0
 1321              		.cfi_def_cfa_register 7
 1322 0006 7860     		str	r0, [r7, #4]
1200:.\Generated_Source\PSoC5/Tag.c ****         uint16 buf_index = 0u;
 1323              		.loc 1 1200 0
 1324 0008 0023     		movs	r3, #0
 1325 000a FB81     		strh	r3, [r7, #14]	@ movhi
1201:.\Generated_Source\PSoC5/Tag.c ****         /* If not Initialized then skip this function*/
1202:.\Generated_Source\PSoC5/Tag.c ****         if(Tag_initVar != 0u)
 1326              		.loc 1 1202 0
 1327 000c 0B4B     		ldr	r3, .L89
 1328 000e 1B78     		ldrb	r3, [r3]	@ zero_extendqisi2
 1329 0010 002B     		cmp	r3, #0
 1330 0012 10D0     		beq	.L85
1203:.\Generated_Source\PSoC5/Tag.c ****         {
1204:.\Generated_Source\PSoC5/Tag.c ****             /* This is a blocking function, it will not exit until all data is sent*/
1205:.\Generated_Source\PSoC5/Tag.c ****             while(string[buf_index] != (char8)0)
 1331              		.loc 1 1205 0
 1332 0014 09E0     		b	.L87
 1333              	.L88:
1206:.\Generated_Source\PSoC5/Tag.c ****             {
1207:.\Generated_Source\PSoC5/Tag.c ****                 Tag_PutChar((uint8)string[buf_index]);
 1334              		.loc 1 1207 0
 1335 0016 FB89     		ldrh	r3, [r7, #14]
 1336 0018 7A68     		ldr	r2, [r7, #4]
 1337 001a 1344     		add	r3, r3, r2
 1338 001c 1B78     		ldrb	r3, [r3]	@ zero_extendqisi2
 1339 001e 1846     		mov	r0, r3
 1340 0020 FFF7FEFF 		bl	Tag_PutChar
1208:.\Generated_Source\PSoC5/Tag.c ****                 buf_index++;
 1341              		.loc 1 1208 0
 1342 0024 FB89     		ldrh	r3, [r7, #14]
 1343 0026 0133     		adds	r3, r3, #1
 1344 0028 FB81     		strh	r3, [r7, #14]	@ movhi
 1345              	.L87:
1205:.\Generated_Source\PSoC5/Tag.c ****             {
 1346              		.loc 1 1205 0
 1347 002a FB89     		ldrh	r3, [r7, #14]
 1348 002c 7A68     		ldr	r2, [r7, #4]
 1349 002e 1344     		add	r3, r3, r2
 1350 0030 1B78     		ldrb	r3, [r3]	@ zero_extendqisi2
 1351 0032 002B     		cmp	r3, #0
 1352 0034 EFD1     		bne	.L88
 1353              	.L85:
ARM GAS  C:\Users\Lenovo\AppData\Local\Temp\ccxEp1Mg.s 			page 46


1209:.\Generated_Source\PSoC5/Tag.c ****             }
1210:.\Generated_Source\PSoC5/Tag.c ****         }
1211:.\Generated_Source\PSoC5/Tag.c ****     }
 1354              		.loc 1 1211 0
 1355 0036 1037     		adds	r7, r7, #16
 1356              		.cfi_def_cfa_offset 8
 1357 0038 BD46     		mov	sp, r7
 1358              		.cfi_def_cfa_register 13
 1359              		@ sp needed
 1360 003a 80BD     		pop	{r7, pc}
 1361              	.L90:
 1362              		.align	2
 1363              	.L89:
 1364 003c 00000000 		.word	Tag_initVar
 1365              		.cfi_endproc
 1366              	.LFE22:
 1367              		.size	Tag_PutString, .-Tag_PutString
 1368              		.section	.text.Tag_PutArray,"ax",%progbits
 1369              		.align	2
 1370              		.global	Tag_PutArray
 1371              		.thumb
 1372              		.thumb_func
 1373              		.type	Tag_PutArray, %function
 1374              	Tag_PutArray:
 1375              	.LFB23:
1212:.\Generated_Source\PSoC5/Tag.c **** 
1213:.\Generated_Source\PSoC5/Tag.c **** 
1214:.\Generated_Source\PSoC5/Tag.c ****     /*******************************************************************************
1215:.\Generated_Source\PSoC5/Tag.c ****     * Function Name: Tag_PutArray
1216:.\Generated_Source\PSoC5/Tag.c ****     ********************************************************************************
1217:.\Generated_Source\PSoC5/Tag.c ****     *
1218:.\Generated_Source\PSoC5/Tag.c ****     * Summary:
1219:.\Generated_Source\PSoC5/Tag.c ****     *  Write a Sequence of bytes on the Transmit line. Data comes from RAM or ROM.
1220:.\Generated_Source\PSoC5/Tag.c ****     *
1221:.\Generated_Source\PSoC5/Tag.c ****     * Parameters:
1222:.\Generated_Source\PSoC5/Tag.c ****     *  string: Address of the memory array residing in RAM or ROM.
1223:.\Generated_Source\PSoC5/Tag.c ****     *  byteCount: Number of Bytes to be transmitted.
1224:.\Generated_Source\PSoC5/Tag.c ****     *
1225:.\Generated_Source\PSoC5/Tag.c ****     * Return:
1226:.\Generated_Source\PSoC5/Tag.c ****     *  None.
1227:.\Generated_Source\PSoC5/Tag.c ****     *
1228:.\Generated_Source\PSoC5/Tag.c ****     * Global Variables:
1229:.\Generated_Source\PSoC5/Tag.c ****     *  Tag_initVar - checked to identify that the component has been
1230:.\Generated_Source\PSoC5/Tag.c ****     *     initialized.
1231:.\Generated_Source\PSoC5/Tag.c ****     *
1232:.\Generated_Source\PSoC5/Tag.c ****     * Reentrant:
1233:.\Generated_Source\PSoC5/Tag.c ****     *  No.
1234:.\Generated_Source\PSoC5/Tag.c ****     *
1235:.\Generated_Source\PSoC5/Tag.c ****     *******************************************************************************/
1236:.\Generated_Source\PSoC5/Tag.c ****     void Tag_PutArray(const uint8 string[], uint8 byteCount)
1237:.\Generated_Source\PSoC5/Tag.c ****                                                                     
1238:.\Generated_Source\PSoC5/Tag.c ****     {
 1376              		.loc 1 1238 0
 1377              		.cfi_startproc
 1378              		@ args = 0, pretend = 0, frame = 16
 1379              		@ frame_needed = 1, uses_anonymous_args = 0
 1380 0000 80B5     		push	{r7, lr}
ARM GAS  C:\Users\Lenovo\AppData\Local\Temp\ccxEp1Mg.s 			page 47


 1381              		.cfi_def_cfa_offset 8
 1382              		.cfi_offset 7, -8
 1383              		.cfi_offset 14, -4
 1384 0002 84B0     		sub	sp, sp, #16
 1385              		.cfi_def_cfa_offset 24
 1386 0004 00AF     		add	r7, sp, #0
 1387              		.cfi_def_cfa_register 7
 1388 0006 7860     		str	r0, [r7, #4]
 1389 0008 0B46     		mov	r3, r1
 1390 000a FB70     		strb	r3, [r7, #3]
1239:.\Generated_Source\PSoC5/Tag.c ****         uint8 buf_index = 0u;
 1391              		.loc 1 1239 0
 1392 000c 0023     		movs	r3, #0
 1393 000e FB73     		strb	r3, [r7, #15]
1240:.\Generated_Source\PSoC5/Tag.c ****         /* If not Initialized then skip this function*/
1241:.\Generated_Source\PSoC5/Tag.c ****         if(Tag_initVar != 0u)
 1394              		.loc 1 1241 0
 1395 0010 0A4B     		ldr	r3, .L94
 1396 0012 1B78     		ldrb	r3, [r3]	@ zero_extendqisi2
 1397 0014 002B     		cmp	r3, #0
 1398 0016 0DD0     		beq	.L91
 1399              	.L93:
1242:.\Generated_Source\PSoC5/Tag.c ****         {
1243:.\Generated_Source\PSoC5/Tag.c ****             do
1244:.\Generated_Source\PSoC5/Tag.c ****             {
1245:.\Generated_Source\PSoC5/Tag.c ****                 Tag_PutChar(string[buf_index]);
 1400              		.loc 1 1245 0 discriminator 1
 1401 0018 FB7B     		ldrb	r3, [r7, #15]	@ zero_extendqisi2
 1402 001a 7A68     		ldr	r2, [r7, #4]
 1403 001c 1344     		add	r3, r3, r2
 1404 001e 1B78     		ldrb	r3, [r3]	@ zero_extendqisi2
 1405 0020 1846     		mov	r0, r3
 1406 0022 FFF7FEFF 		bl	Tag_PutChar
1246:.\Generated_Source\PSoC5/Tag.c ****                 buf_index++;
 1407              		.loc 1 1246 0 discriminator 1
 1408 0026 FB7B     		ldrb	r3, [r7, #15]	@ zero_extendqisi2
 1409 0028 0133     		adds	r3, r3, #1
 1410 002a FB73     		strb	r3, [r7, #15]
1247:.\Generated_Source\PSoC5/Tag.c ****             }while(buf_index < byteCount);
 1411              		.loc 1 1247 0 discriminator 1
 1412 002c FA7B     		ldrb	r2, [r7, #15]	@ zero_extendqisi2
 1413 002e FB78     		ldrb	r3, [r7, #3]	@ zero_extendqisi2
 1414 0030 9A42     		cmp	r2, r3
 1415 0032 F1D3     		bcc	.L93
 1416              	.L91:
1248:.\Generated_Source\PSoC5/Tag.c ****         }
1249:.\Generated_Source\PSoC5/Tag.c ****     }
 1417              		.loc 1 1249 0
 1418 0034 1037     		adds	r7, r7, #16
 1419              		.cfi_def_cfa_offset 8
 1420 0036 BD46     		mov	sp, r7
 1421              		.cfi_def_cfa_register 13
 1422              		@ sp needed
 1423 0038 80BD     		pop	{r7, pc}
 1424              	.L95:
 1425 003a 00BF     		.align	2
 1426              	.L94:
ARM GAS  C:\Users\Lenovo\AppData\Local\Temp\ccxEp1Mg.s 			page 48


 1427 003c 00000000 		.word	Tag_initVar
 1428              		.cfi_endproc
 1429              	.LFE23:
 1430              		.size	Tag_PutArray, .-Tag_PutArray
 1431              		.section	.text.Tag_PutCRLF,"ax",%progbits
 1432              		.align	2
 1433              		.global	Tag_PutCRLF
 1434              		.thumb
 1435              		.thumb_func
 1436              		.type	Tag_PutCRLF, %function
 1437              	Tag_PutCRLF:
 1438              	.LFB24:
1250:.\Generated_Source\PSoC5/Tag.c **** 
1251:.\Generated_Source\PSoC5/Tag.c **** 
1252:.\Generated_Source\PSoC5/Tag.c ****     /*******************************************************************************
1253:.\Generated_Source\PSoC5/Tag.c ****     * Function Name: Tag_PutCRLF
1254:.\Generated_Source\PSoC5/Tag.c ****     ********************************************************************************
1255:.\Generated_Source\PSoC5/Tag.c ****     *
1256:.\Generated_Source\PSoC5/Tag.c ****     * Summary:
1257:.\Generated_Source\PSoC5/Tag.c ****     *  Write a character and then carriage return and line feed.
1258:.\Generated_Source\PSoC5/Tag.c ****     *
1259:.\Generated_Source\PSoC5/Tag.c ****     * Parameters:
1260:.\Generated_Source\PSoC5/Tag.c ****     *  txDataByte: uint8 Character to send.
1261:.\Generated_Source\PSoC5/Tag.c ****     *
1262:.\Generated_Source\PSoC5/Tag.c ****     * Return:
1263:.\Generated_Source\PSoC5/Tag.c ****     *  None.
1264:.\Generated_Source\PSoC5/Tag.c ****     *
1265:.\Generated_Source\PSoC5/Tag.c ****     * Global Variables:
1266:.\Generated_Source\PSoC5/Tag.c ****     *  Tag_initVar - checked to identify that the component has been
1267:.\Generated_Source\PSoC5/Tag.c ****     *     initialized.
1268:.\Generated_Source\PSoC5/Tag.c ****     *
1269:.\Generated_Source\PSoC5/Tag.c ****     * Reentrant:
1270:.\Generated_Source\PSoC5/Tag.c ****     *  No.
1271:.\Generated_Source\PSoC5/Tag.c ****     *
1272:.\Generated_Source\PSoC5/Tag.c ****     *******************************************************************************/
1273:.\Generated_Source\PSoC5/Tag.c ****     void Tag_PutCRLF(uint8 txDataByte) 
1274:.\Generated_Source\PSoC5/Tag.c ****     {
 1439              		.loc 1 1274 0
 1440              		.cfi_startproc
 1441              		@ args = 0, pretend = 0, frame = 8
 1442              		@ frame_needed = 1, uses_anonymous_args = 0
 1443 0000 80B5     		push	{r7, lr}
 1444              		.cfi_def_cfa_offset 8
 1445              		.cfi_offset 7, -8
 1446              		.cfi_offset 14, -4
 1447 0002 82B0     		sub	sp, sp, #8
 1448              		.cfi_def_cfa_offset 16
 1449 0004 00AF     		add	r7, sp, #0
 1450              		.cfi_def_cfa_register 7
 1451 0006 0346     		mov	r3, r0
 1452 0008 FB71     		strb	r3, [r7, #7]
1275:.\Generated_Source\PSoC5/Tag.c ****         /* If not Initialized then skip this function*/
1276:.\Generated_Source\PSoC5/Tag.c ****         if(Tag_initVar != 0u)
 1453              		.loc 1 1276 0
 1454 000a 084B     		ldr	r3, .L98
 1455 000c 1B78     		ldrb	r3, [r3]	@ zero_extendqisi2
 1456 000e 002B     		cmp	r3, #0
ARM GAS  C:\Users\Lenovo\AppData\Local\Temp\ccxEp1Mg.s 			page 49


 1457 0010 09D0     		beq	.L96
1277:.\Generated_Source\PSoC5/Tag.c ****         {
1278:.\Generated_Source\PSoC5/Tag.c ****             Tag_PutChar(txDataByte);
 1458              		.loc 1 1278 0
 1459 0012 FB79     		ldrb	r3, [r7, #7]	@ zero_extendqisi2
 1460 0014 1846     		mov	r0, r3
 1461 0016 FFF7FEFF 		bl	Tag_PutChar
1279:.\Generated_Source\PSoC5/Tag.c ****             Tag_PutChar(0x0Du);
 1462              		.loc 1 1279 0
 1463 001a 0D20     		movs	r0, #13
 1464 001c FFF7FEFF 		bl	Tag_PutChar
1280:.\Generated_Source\PSoC5/Tag.c ****             Tag_PutChar(0x0Au);
 1465              		.loc 1 1280 0
 1466 0020 0A20     		movs	r0, #10
 1467 0022 FFF7FEFF 		bl	Tag_PutChar
 1468              	.L96:
1281:.\Generated_Source\PSoC5/Tag.c ****         }
1282:.\Generated_Source\PSoC5/Tag.c ****     }
 1469              		.loc 1 1282 0
 1470 0026 0837     		adds	r7, r7, #8
 1471              		.cfi_def_cfa_offset 8
 1472 0028 BD46     		mov	sp, r7
 1473              		.cfi_def_cfa_register 13
 1474              		@ sp needed
 1475 002a 80BD     		pop	{r7, pc}
 1476              	.L99:
 1477              		.align	2
 1478              	.L98:
 1479 002c 00000000 		.word	Tag_initVar
 1480              		.cfi_endproc
 1481              	.LFE24:
 1482              		.size	Tag_PutCRLF, .-Tag_PutCRLF
 1483              		.section	.text.Tag_GetTxBufferSize,"ax",%progbits
 1484              		.align	2
 1485              		.global	Tag_GetTxBufferSize
 1486              		.thumb
 1487              		.thumb_func
 1488              		.type	Tag_GetTxBufferSize, %function
 1489              	Tag_GetTxBufferSize:
 1490              	.LFB25:
1283:.\Generated_Source\PSoC5/Tag.c **** 
1284:.\Generated_Source\PSoC5/Tag.c **** 
1285:.\Generated_Source\PSoC5/Tag.c ****     /*******************************************************************************
1286:.\Generated_Source\PSoC5/Tag.c ****     * Function Name: Tag_GetTxBufferSize
1287:.\Generated_Source\PSoC5/Tag.c ****     ********************************************************************************
1288:.\Generated_Source\PSoC5/Tag.c ****     *
1289:.\Generated_Source\PSoC5/Tag.c ****     * Summary:
1290:.\Generated_Source\PSoC5/Tag.c ****     *  Determine the amount of space left in the TX buffer and return the count in
1291:.\Generated_Source\PSoC5/Tag.c ****     *  bytes
1292:.\Generated_Source\PSoC5/Tag.c ****     *
1293:.\Generated_Source\PSoC5/Tag.c ****     * Parameters:
1294:.\Generated_Source\PSoC5/Tag.c ****     *  None.
1295:.\Generated_Source\PSoC5/Tag.c ****     *
1296:.\Generated_Source\PSoC5/Tag.c ****     * Return:
1297:.\Generated_Source\PSoC5/Tag.c ****     *  Integer count of the number of bytes left in the TX buffer
1298:.\Generated_Source\PSoC5/Tag.c ****     *
1299:.\Generated_Source\PSoC5/Tag.c ****     * Global Variables:
ARM GAS  C:\Users\Lenovo\AppData\Local\Temp\ccxEp1Mg.s 			page 50


1300:.\Generated_Source\PSoC5/Tag.c ****     *  Tag_txBufferWrite - used to calculate left space.
1301:.\Generated_Source\PSoC5/Tag.c ****     *  Tag_txBufferRead - used to calculate left space.
1302:.\Generated_Source\PSoC5/Tag.c ****     *
1303:.\Generated_Source\PSoC5/Tag.c ****     * Reentrant:
1304:.\Generated_Source\PSoC5/Tag.c ****     *  No.
1305:.\Generated_Source\PSoC5/Tag.c ****     *
1306:.\Generated_Source\PSoC5/Tag.c ****     * Theory:
1307:.\Generated_Source\PSoC5/Tag.c ****     *  Allows the user to find out how full the TX Buffer is.
1308:.\Generated_Source\PSoC5/Tag.c ****     *
1309:.\Generated_Source\PSoC5/Tag.c ****     *******************************************************************************/
1310:.\Generated_Source\PSoC5/Tag.c ****     uint8 Tag_GetTxBufferSize(void)
1311:.\Generated_Source\PSoC5/Tag.c ****                                                             
1312:.\Generated_Source\PSoC5/Tag.c ****     {
 1491              		.loc 1 1312 0
 1492              		.cfi_startproc
 1493              		@ args = 0, pretend = 0, frame = 8
 1494              		@ frame_needed = 1, uses_anonymous_args = 0
 1495              		@ link register save eliminated.
 1496 0000 80B4     		push	{r7}
 1497              		.cfi_def_cfa_offset 4
 1498              		.cfi_offset 7, -4
 1499 0002 83B0     		sub	sp, sp, #12
 1500              		.cfi_def_cfa_offset 16
 1501 0004 00AF     		add	r7, sp, #0
 1502              		.cfi_def_cfa_register 7
1313:.\Generated_Source\PSoC5/Tag.c ****         uint8 size;
1314:.\Generated_Source\PSoC5/Tag.c **** 
1315:.\Generated_Source\PSoC5/Tag.c ****         #if(Tag_TXBUFFERSIZE > Tag_FIFO_LENGTH)
1316:.\Generated_Source\PSoC5/Tag.c **** 
1317:.\Generated_Source\PSoC5/Tag.c ****             /* Disable Tx interrupt. */
1318:.\Generated_Source\PSoC5/Tag.c ****             /* Protect variables that could change on interrupt. */
1319:.\Generated_Source\PSoC5/Tag.c ****             #if(Tag_TX_INTERRUPT_ENABLED)
1320:.\Generated_Source\PSoC5/Tag.c ****                 Tag_DisableTxInt();
1321:.\Generated_Source\PSoC5/Tag.c ****             #endif /* End Tag_TX_INTERRUPT_ENABLED */
1322:.\Generated_Source\PSoC5/Tag.c **** 
1323:.\Generated_Source\PSoC5/Tag.c ****             if(Tag_txBufferRead == Tag_txBufferWrite)
1324:.\Generated_Source\PSoC5/Tag.c ****             {
1325:.\Generated_Source\PSoC5/Tag.c ****                 size = 0u;
1326:.\Generated_Source\PSoC5/Tag.c ****             }
1327:.\Generated_Source\PSoC5/Tag.c ****             else if(Tag_txBufferRead < Tag_txBufferWrite)
1328:.\Generated_Source\PSoC5/Tag.c ****             {
1329:.\Generated_Source\PSoC5/Tag.c ****                 size = (Tag_txBufferWrite - Tag_txBufferRead);
1330:.\Generated_Source\PSoC5/Tag.c ****             }
1331:.\Generated_Source\PSoC5/Tag.c ****             else
1332:.\Generated_Source\PSoC5/Tag.c ****             {
1333:.\Generated_Source\PSoC5/Tag.c ****                 size = (Tag_TXBUFFERSIZE - Tag_txBufferRead) + Tag_txBufferWrite;
1334:.\Generated_Source\PSoC5/Tag.c ****             }
1335:.\Generated_Source\PSoC5/Tag.c **** 
1336:.\Generated_Source\PSoC5/Tag.c ****             /* Enable Tx interrupt. */
1337:.\Generated_Source\PSoC5/Tag.c ****             #if(Tag_TX_INTERRUPT_ENABLED)
1338:.\Generated_Source\PSoC5/Tag.c ****                 Tag_EnableTxInt();
1339:.\Generated_Source\PSoC5/Tag.c ****             #endif /* End Tag_TX_INTERRUPT_ENABLED */
1340:.\Generated_Source\PSoC5/Tag.c **** 
1341:.\Generated_Source\PSoC5/Tag.c ****         #else /* Tag_TXBUFFERSIZE > Tag_FIFO_LENGTH */
1342:.\Generated_Source\PSoC5/Tag.c **** 
1343:.\Generated_Source\PSoC5/Tag.c ****             size = Tag_TXSTATUS_REG;
 1503              		.loc 1 1343 0
ARM GAS  C:\Users\Lenovo\AppData\Local\Temp\ccxEp1Mg.s 			page 51


 1504 0006 0E4B     		ldr	r3, .L105
 1505 0008 1B78     		ldrb	r3, [r3]
 1506 000a FB71     		strb	r3, [r7, #7]
1344:.\Generated_Source\PSoC5/Tag.c **** 
1345:.\Generated_Source\PSoC5/Tag.c ****             /* Is the fifo is full. */
1346:.\Generated_Source\PSoC5/Tag.c ****             if((size & Tag_TX_STS_FIFO_FULL) != 0u)
 1507              		.loc 1 1346 0
 1508 000c FB79     		ldrb	r3, [r7, #7]	@ zero_extendqisi2
 1509 000e 03F00403 		and	r3, r3, #4
 1510 0012 002B     		cmp	r3, #0
 1511 0014 02D0     		beq	.L101
1347:.\Generated_Source\PSoC5/Tag.c ****             {
1348:.\Generated_Source\PSoC5/Tag.c ****                 size = Tag_FIFO_LENGTH;
 1512              		.loc 1 1348 0
 1513 0016 0423     		movs	r3, #4
 1514 0018 FB71     		strb	r3, [r7, #7]
 1515 001a 09E0     		b	.L102
 1516              	.L101:
1349:.\Generated_Source\PSoC5/Tag.c ****             }
1350:.\Generated_Source\PSoC5/Tag.c ****             else if((size & Tag_TX_STS_FIFO_EMPTY) != 0u)
 1517              		.loc 1 1350 0
 1518 001c FB79     		ldrb	r3, [r7, #7]	@ zero_extendqisi2
 1519 001e 03F00203 		and	r3, r3, #2
 1520 0022 002B     		cmp	r3, #0
 1521 0024 02D0     		beq	.L103
1351:.\Generated_Source\PSoC5/Tag.c ****             {
1352:.\Generated_Source\PSoC5/Tag.c ****                 size = 0u;
 1522              		.loc 1 1352 0
 1523 0026 0023     		movs	r3, #0
 1524 0028 FB71     		strb	r3, [r7, #7]
 1525 002a 01E0     		b	.L102
 1526              	.L103:
1353:.\Generated_Source\PSoC5/Tag.c ****             }
1354:.\Generated_Source\PSoC5/Tag.c ****             else
1355:.\Generated_Source\PSoC5/Tag.c ****             {
1356:.\Generated_Source\PSoC5/Tag.c ****                 /* We only know there is data in the fifo. */
1357:.\Generated_Source\PSoC5/Tag.c ****                 size = 1u;
 1527              		.loc 1 1357 0
 1528 002c 0123     		movs	r3, #1
 1529 002e FB71     		strb	r3, [r7, #7]
 1530              	.L102:
1358:.\Generated_Source\PSoC5/Tag.c ****             }
1359:.\Generated_Source\PSoC5/Tag.c **** 
1360:.\Generated_Source\PSoC5/Tag.c ****         #endif /* End Tag_TXBUFFERSIZE > Tag_FIFO_LENGTH */
1361:.\Generated_Source\PSoC5/Tag.c **** 
1362:.\Generated_Source\PSoC5/Tag.c ****         return(size);
 1531              		.loc 1 1362 0
 1532 0030 FB79     		ldrb	r3, [r7, #7]	@ zero_extendqisi2
1363:.\Generated_Source\PSoC5/Tag.c ****     }
 1533              		.loc 1 1363 0
 1534 0032 1846     		mov	r0, r3
 1535 0034 0C37     		adds	r7, r7, #12
 1536              		.cfi_def_cfa_offset 4
 1537 0036 BD46     		mov	sp, r7
 1538              		.cfi_def_cfa_register 13
 1539              		@ sp needed
 1540 0038 5DF8047B 		ldr	r7, [sp], #4
ARM GAS  C:\Users\Lenovo\AppData\Local\Temp\ccxEp1Mg.s 			page 52


 1541              		.cfi_restore 7
 1542              		.cfi_def_cfa_offset 0
 1543 003c 7047     		bx	lr
 1544              	.L106:
 1545 003e 00BF     		.align	2
 1546              	.L105:
 1547 0040 6B650040 		.word	1073767787
 1548              		.cfi_endproc
 1549              	.LFE25:
 1550              		.size	Tag_GetTxBufferSize, .-Tag_GetTxBufferSize
 1551              		.section	.text.Tag_ClearTxBuffer,"ax",%progbits
 1552              		.align	2
 1553              		.global	Tag_ClearTxBuffer
 1554              		.thumb
 1555              		.thumb_func
 1556              		.type	Tag_ClearTxBuffer, %function
 1557              	Tag_ClearTxBuffer:
 1558              	.LFB26:
1364:.\Generated_Source\PSoC5/Tag.c **** 
1365:.\Generated_Source\PSoC5/Tag.c **** 
1366:.\Generated_Source\PSoC5/Tag.c ****     /*******************************************************************************
1367:.\Generated_Source\PSoC5/Tag.c ****     * Function Name: Tag_ClearTxBuffer
1368:.\Generated_Source\PSoC5/Tag.c ****     ********************************************************************************
1369:.\Generated_Source\PSoC5/Tag.c ****     *
1370:.\Generated_Source\PSoC5/Tag.c ****     * Summary:
1371:.\Generated_Source\PSoC5/Tag.c ****     *  Clears the TX RAM buffer by setting the read and write pointers both to zero.
1372:.\Generated_Source\PSoC5/Tag.c ****     *  Clears the hardware TX FIFO.  Any data present in the FIFO will not be sent.
1373:.\Generated_Source\PSoC5/Tag.c ****     *
1374:.\Generated_Source\PSoC5/Tag.c ****     * Parameters:
1375:.\Generated_Source\PSoC5/Tag.c ****     *  None.
1376:.\Generated_Source\PSoC5/Tag.c ****     *
1377:.\Generated_Source\PSoC5/Tag.c ****     * Return:
1378:.\Generated_Source\PSoC5/Tag.c ****     *  None.
1379:.\Generated_Source\PSoC5/Tag.c ****     *
1380:.\Generated_Source\PSoC5/Tag.c ****     * Global Variables:
1381:.\Generated_Source\PSoC5/Tag.c ****     *  Tag_txBufferWrite - cleared to zero.
1382:.\Generated_Source\PSoC5/Tag.c ****     *  Tag_txBufferRead - cleared to zero.
1383:.\Generated_Source\PSoC5/Tag.c ****     *
1384:.\Generated_Source\PSoC5/Tag.c ****     * Reentrant:
1385:.\Generated_Source\PSoC5/Tag.c ****     *  No.
1386:.\Generated_Source\PSoC5/Tag.c ****     *
1387:.\Generated_Source\PSoC5/Tag.c ****     * Theory:
1388:.\Generated_Source\PSoC5/Tag.c ****     *  Setting the pointers to zero makes the system believe there is no data to
1389:.\Generated_Source\PSoC5/Tag.c ****     *  read and writing will resume at address 0 overwriting any data that may have
1390:.\Generated_Source\PSoC5/Tag.c ****     *  remained in the RAM.
1391:.\Generated_Source\PSoC5/Tag.c ****     *
1392:.\Generated_Source\PSoC5/Tag.c ****     * Side Effects:
1393:.\Generated_Source\PSoC5/Tag.c ****     *  Any received data not read from the RAM buffer will be lost when overwritten.
1394:.\Generated_Source\PSoC5/Tag.c ****     *
1395:.\Generated_Source\PSoC5/Tag.c ****     *******************************************************************************/
1396:.\Generated_Source\PSoC5/Tag.c ****     void Tag_ClearTxBuffer(void) 
1397:.\Generated_Source\PSoC5/Tag.c ****     {
 1559              		.loc 1 1397 0
 1560              		.cfi_startproc
 1561              		@ args = 0, pretend = 0, frame = 8
 1562              		@ frame_needed = 1, uses_anonymous_args = 0
 1563 0000 80B5     		push	{r7, lr}
ARM GAS  C:\Users\Lenovo\AppData\Local\Temp\ccxEp1Mg.s 			page 53


 1564              		.cfi_def_cfa_offset 8
 1565              		.cfi_offset 7, -8
 1566              		.cfi_offset 14, -4
 1567 0002 82B0     		sub	sp, sp, #8
 1568              		.cfi_def_cfa_offset 16
 1569 0004 00AF     		add	r7, sp, #0
 1570              		.cfi_def_cfa_register 7
1398:.\Generated_Source\PSoC5/Tag.c ****         uint8 enableInterrupts;
1399:.\Generated_Source\PSoC5/Tag.c **** 
1400:.\Generated_Source\PSoC5/Tag.c ****         /* Enter critical section */
1401:.\Generated_Source\PSoC5/Tag.c ****         enableInterrupts = CyEnterCriticalSection();
 1571              		.loc 1 1401 0
 1572 0006 FFF7FEFF 		bl	CyEnterCriticalSection
 1573 000a 0346     		mov	r3, r0
 1574 000c FB71     		strb	r3, [r7, #7]
1402:.\Generated_Source\PSoC5/Tag.c ****         /* clear the HW FIFO */
1403:.\Generated_Source\PSoC5/Tag.c ****         Tag_TXDATA_AUX_CTL_REG |=  Tag_TX_FIFO_CLR;
 1575              		.loc 1 1403 0
 1576 000e 0B4A     		ldr	r2, .L108
 1577 0010 0A4B     		ldr	r3, .L108
 1578 0012 1B78     		ldrb	r3, [r3]
 1579 0014 DBB2     		uxtb	r3, r3
 1580 0016 43F00103 		orr	r3, r3, #1
 1581 001a DBB2     		uxtb	r3, r3
 1582 001c 1370     		strb	r3, [r2]
1404:.\Generated_Source\PSoC5/Tag.c ****         Tag_TXDATA_AUX_CTL_REG &= (uint8)~Tag_TX_FIFO_CLR;
 1583              		.loc 1 1404 0
 1584 001e 074A     		ldr	r2, .L108
 1585 0020 064B     		ldr	r3, .L108
 1586 0022 1B78     		ldrb	r3, [r3]
 1587 0024 DBB2     		uxtb	r3, r3
 1588 0026 23F00103 		bic	r3, r3, #1
 1589 002a DBB2     		uxtb	r3, r3
 1590 002c 1370     		strb	r3, [r2]
1405:.\Generated_Source\PSoC5/Tag.c ****         /* Exit critical section */
1406:.\Generated_Source\PSoC5/Tag.c ****         CyExitCriticalSection(enableInterrupts);
 1591              		.loc 1 1406 0
 1592 002e FB79     		ldrb	r3, [r7, #7]	@ zero_extendqisi2
 1593 0030 1846     		mov	r0, r3
 1594 0032 FFF7FEFF 		bl	CyExitCriticalSection
1407:.\Generated_Source\PSoC5/Tag.c **** 
1408:.\Generated_Source\PSoC5/Tag.c ****         #if(Tag_TXBUFFERSIZE > Tag_FIFO_LENGTH)
1409:.\Generated_Source\PSoC5/Tag.c **** 
1410:.\Generated_Source\PSoC5/Tag.c ****             /* Disable Tx interrupt. */
1411:.\Generated_Source\PSoC5/Tag.c ****             /* Protect variables that could change on interrupt. */
1412:.\Generated_Source\PSoC5/Tag.c ****             #if(Tag_TX_INTERRUPT_ENABLED)
1413:.\Generated_Source\PSoC5/Tag.c ****                 Tag_DisableTxInt();
1414:.\Generated_Source\PSoC5/Tag.c ****             #endif /* End Tag_TX_INTERRUPT_ENABLED */
1415:.\Generated_Source\PSoC5/Tag.c **** 
1416:.\Generated_Source\PSoC5/Tag.c ****             Tag_txBufferRead = 0u;
1417:.\Generated_Source\PSoC5/Tag.c ****             Tag_txBufferWrite = 0u;
1418:.\Generated_Source\PSoC5/Tag.c **** 
1419:.\Generated_Source\PSoC5/Tag.c ****             /* Enable Tx interrupt. */
1420:.\Generated_Source\PSoC5/Tag.c ****             #if(Tag_TX_INTERRUPT_ENABLED)
1421:.\Generated_Source\PSoC5/Tag.c ****                 Tag_EnableTxInt();
1422:.\Generated_Source\PSoC5/Tag.c ****             #endif /* End Tag_TX_INTERRUPT_ENABLED */
1423:.\Generated_Source\PSoC5/Tag.c **** 
ARM GAS  C:\Users\Lenovo\AppData\Local\Temp\ccxEp1Mg.s 			page 54


1424:.\Generated_Source\PSoC5/Tag.c ****         #endif /* End Tag_TXBUFFERSIZE > Tag_FIFO_LENGTH */
1425:.\Generated_Source\PSoC5/Tag.c ****     }
 1595              		.loc 1 1425 0
 1596 0036 0837     		adds	r7, r7, #8
 1597              		.cfi_def_cfa_offset 8
 1598 0038 BD46     		mov	sp, r7
 1599              		.cfi_def_cfa_register 13
 1600              		@ sp needed
 1601 003a 80BD     		pop	{r7, pc}
 1602              	.L109:
 1603              		.align	2
 1604              	.L108:
 1605 003c 94650040 		.word	1073767828
 1606              		.cfi_endproc
 1607              	.LFE26:
 1608              		.size	Tag_ClearTxBuffer, .-Tag_ClearTxBuffer
 1609              		.section	.text.Tag_SendBreak,"ax",%progbits
 1610              		.align	2
 1611              		.global	Tag_SendBreak
 1612              		.thumb
 1613              		.thumb_func
 1614              		.type	Tag_SendBreak, %function
 1615              	Tag_SendBreak:
 1616              	.LFB27:
1426:.\Generated_Source\PSoC5/Tag.c **** 
1427:.\Generated_Source\PSoC5/Tag.c **** 
1428:.\Generated_Source\PSoC5/Tag.c ****     /*******************************************************************************
1429:.\Generated_Source\PSoC5/Tag.c ****     * Function Name: Tag_SendBreak
1430:.\Generated_Source\PSoC5/Tag.c ****     ********************************************************************************
1431:.\Generated_Source\PSoC5/Tag.c ****     *
1432:.\Generated_Source\PSoC5/Tag.c ****     * Summary:
1433:.\Generated_Source\PSoC5/Tag.c ****     *  Write a Break command to the UART
1434:.\Generated_Source\PSoC5/Tag.c ****     *
1435:.\Generated_Source\PSoC5/Tag.c ****     * Parameters:
1436:.\Generated_Source\PSoC5/Tag.c ****     *  uint8 retMode:  Wait mode,
1437:.\Generated_Source\PSoC5/Tag.c ****     *   0 - Initialize registers for Break, sends the Break signal and return
1438:.\Generated_Source\PSoC5/Tag.c ****     *       imediately.
1439:.\Generated_Source\PSoC5/Tag.c ****     *   1 - Wait until Break sending is complete, reinitialize registers to normal
1440:.\Generated_Source\PSoC5/Tag.c ****     *       transmission mode then return.
1441:.\Generated_Source\PSoC5/Tag.c ****     *   2 - Reinitialize registers to normal transmission mode then return.
1442:.\Generated_Source\PSoC5/Tag.c ****     *   3 - both steps: 0 and 1
1443:.\Generated_Source\PSoC5/Tag.c ****     *       init registers for Break, send Break signal
1444:.\Generated_Source\PSoC5/Tag.c ****     *       wait until Break sending is complete, reinit registers to normal
1445:.\Generated_Source\PSoC5/Tag.c ****     *       transmission mode then return.
1446:.\Generated_Source\PSoC5/Tag.c ****     *
1447:.\Generated_Source\PSoC5/Tag.c ****     * Return:
1448:.\Generated_Source\PSoC5/Tag.c ****     *  None.
1449:.\Generated_Source\PSoC5/Tag.c ****     *
1450:.\Generated_Source\PSoC5/Tag.c ****     * Global Variables:
1451:.\Generated_Source\PSoC5/Tag.c ****     *  Tag_initVar - checked to identify that the component has been
1452:.\Generated_Source\PSoC5/Tag.c ****     *     initialized.
1453:.\Generated_Source\PSoC5/Tag.c ****     *  tx_period - static variable, used for keeping TX period configuration.
1454:.\Generated_Source\PSoC5/Tag.c ****     *
1455:.\Generated_Source\PSoC5/Tag.c ****     * Reentrant:
1456:.\Generated_Source\PSoC5/Tag.c ****     *  No.
1457:.\Generated_Source\PSoC5/Tag.c ****     *
1458:.\Generated_Source\PSoC5/Tag.c ****     * Theory:
ARM GAS  C:\Users\Lenovo\AppData\Local\Temp\ccxEp1Mg.s 			page 55


1459:.\Generated_Source\PSoC5/Tag.c ****     *  SendBreak function initializes registers to send 13-bit break signal. It is
1460:.\Generated_Source\PSoC5/Tag.c ****     *  important to return the registers configuration to normal for continue 8-bit
1461:.\Generated_Source\PSoC5/Tag.c ****     *  operation.
1462:.\Generated_Source\PSoC5/Tag.c ****     *  Trere are 3 variants for this API usage:
1463:.\Generated_Source\PSoC5/Tag.c ****     *  1) SendBreak(3) - function will send the Break signal and take care on the
1464:.\Generated_Source\PSoC5/Tag.c ****     *     configuration returning. Funcition will block CPU untill transmition
1465:.\Generated_Source\PSoC5/Tag.c ****     *     complete.
1466:.\Generated_Source\PSoC5/Tag.c ****     *  2) User may want to use bloking time if UART configured to the low speed
1467:.\Generated_Source\PSoC5/Tag.c ****     *     operation
1468:.\Generated_Source\PSoC5/Tag.c ****     *     Emample for this case:
1469:.\Generated_Source\PSoC5/Tag.c ****     *     SendBreak(0);     - init Break signal transmition
1470:.\Generated_Source\PSoC5/Tag.c ****     *         Add your code here to use CPU time
1471:.\Generated_Source\PSoC5/Tag.c ****     *     SendBreak(1);     - complete Break operation
1472:.\Generated_Source\PSoC5/Tag.c ****     *  3) Same to 2) but user may want to init and use the interrupt for complete
1473:.\Generated_Source\PSoC5/Tag.c ****     *     break operation.
1474:.\Generated_Source\PSoC5/Tag.c ****     *     Example for this case:
1475:.\Generated_Source\PSoC5/Tag.c ****     *     Init TX interrupt whith "TX - On TX Complete" parameter
1476:.\Generated_Source\PSoC5/Tag.c ****     *     SendBreak(0);     - init Break signal transmition
1477:.\Generated_Source\PSoC5/Tag.c ****     *         Add your code here to use CPU time
1478:.\Generated_Source\PSoC5/Tag.c ****     *     When interrupt appear with UART_TX_STS_COMPLETE status:
1479:.\Generated_Source\PSoC5/Tag.c ****     *     SendBreak(2);     - complete Break operation
1480:.\Generated_Source\PSoC5/Tag.c ****     *
1481:.\Generated_Source\PSoC5/Tag.c ****     * Side Effects:
1482:.\Generated_Source\PSoC5/Tag.c ****     *   Uses static variable to keep registers configuration.
1483:.\Generated_Source\PSoC5/Tag.c ****     *
1484:.\Generated_Source\PSoC5/Tag.c ****     *******************************************************************************/
1485:.\Generated_Source\PSoC5/Tag.c ****     void Tag_SendBreak(uint8 retMode) 
1486:.\Generated_Source\PSoC5/Tag.c ****     {
 1617              		.loc 1 1486 0
 1618              		.cfi_startproc
 1619              		@ args = 0, pretend = 0, frame = 16
 1620              		@ frame_needed = 1, uses_anonymous_args = 0
 1621              		@ link register save eliminated.
 1622 0000 80B4     		push	{r7}
 1623              		.cfi_def_cfa_offset 4
 1624              		.cfi_offset 7, -4
 1625 0002 85B0     		sub	sp, sp, #20
 1626              		.cfi_def_cfa_offset 24
 1627 0004 00AF     		add	r7, sp, #0
 1628              		.cfi_def_cfa_register 7
 1629 0006 0346     		mov	r3, r0
 1630 0008 FB71     		strb	r3, [r7, #7]
1487:.\Generated_Source\PSoC5/Tag.c **** 
1488:.\Generated_Source\PSoC5/Tag.c ****         /* If not Initialized then skip this function*/
1489:.\Generated_Source\PSoC5/Tag.c ****         if(Tag_initVar != 0u)
 1631              		.loc 1 1489 0
 1632 000a 1F4B     		ldr	r3, .L118
 1633 000c 1B78     		ldrb	r3, [r3]	@ zero_extendqisi2
 1634 000e 002B     		cmp	r3, #0
 1635 0010 35D0     		beq	.L110
 1636              	.LBB2:
1490:.\Generated_Source\PSoC5/Tag.c ****         {
1491:.\Generated_Source\PSoC5/Tag.c ****             /*Set the Counter to 13-bits and transmit a 00 byte*/
1492:.\Generated_Source\PSoC5/Tag.c ****             /*When that is done then reset the counter value back*/
1493:.\Generated_Source\PSoC5/Tag.c ****             uint8 tmpStat;
1494:.\Generated_Source\PSoC5/Tag.c **** 
1495:.\Generated_Source\PSoC5/Tag.c ****             #if(Tag_HD_ENABLED) /* Half Duplex mode*/
ARM GAS  C:\Users\Lenovo\AppData\Local\Temp\ccxEp1Mg.s 			page 56


1496:.\Generated_Source\PSoC5/Tag.c **** 
1497:.\Generated_Source\PSoC5/Tag.c ****                 if( (retMode == Tag_SEND_BREAK) ||
1498:.\Generated_Source\PSoC5/Tag.c ****                     (retMode == Tag_SEND_WAIT_REINIT ) )
1499:.\Generated_Source\PSoC5/Tag.c ****                 {
1500:.\Generated_Source\PSoC5/Tag.c ****                     /* CTRL_HD_SEND_BREAK - sends break bits in HD mode*/
1501:.\Generated_Source\PSoC5/Tag.c ****                     Tag_WriteControlRegister(Tag_ReadControlRegister() |
1502:.\Generated_Source\PSoC5/Tag.c ****                                                           Tag_CTRL_HD_SEND_BREAK);
1503:.\Generated_Source\PSoC5/Tag.c ****                     /* Send zeros*/
1504:.\Generated_Source\PSoC5/Tag.c ****                     Tag_TXDATA_REG = 0u;
1505:.\Generated_Source\PSoC5/Tag.c **** 
1506:.\Generated_Source\PSoC5/Tag.c ****                     do /*wait until transmit starts*/
1507:.\Generated_Source\PSoC5/Tag.c ****                     {
1508:.\Generated_Source\PSoC5/Tag.c ****                         tmpStat = Tag_TXSTATUS_REG;
1509:.\Generated_Source\PSoC5/Tag.c ****                     }while((tmpStat & Tag_TX_STS_FIFO_EMPTY) != 0u);
1510:.\Generated_Source\PSoC5/Tag.c ****                 }
1511:.\Generated_Source\PSoC5/Tag.c **** 
1512:.\Generated_Source\PSoC5/Tag.c ****                 if( (retMode == Tag_WAIT_FOR_COMPLETE_REINIT) ||
1513:.\Generated_Source\PSoC5/Tag.c ****                     (retMode == Tag_SEND_WAIT_REINIT) )
1514:.\Generated_Source\PSoC5/Tag.c ****                 {
1515:.\Generated_Source\PSoC5/Tag.c ****                     do /*wait until transmit complete*/
1516:.\Generated_Source\PSoC5/Tag.c ****                     {
1517:.\Generated_Source\PSoC5/Tag.c ****                         tmpStat = Tag_TXSTATUS_REG;
1518:.\Generated_Source\PSoC5/Tag.c ****                     }while(((uint8)~tmpStat & Tag_TX_STS_COMPLETE) != 0u);
1519:.\Generated_Source\PSoC5/Tag.c ****                 }
1520:.\Generated_Source\PSoC5/Tag.c **** 
1521:.\Generated_Source\PSoC5/Tag.c ****                 if( (retMode == Tag_WAIT_FOR_COMPLETE_REINIT) ||
1522:.\Generated_Source\PSoC5/Tag.c ****                     (retMode == Tag_REINIT) ||
1523:.\Generated_Source\PSoC5/Tag.c ****                     (retMode == Tag_SEND_WAIT_REINIT) )
1524:.\Generated_Source\PSoC5/Tag.c ****                 {
1525:.\Generated_Source\PSoC5/Tag.c ****                     Tag_WriteControlRegister(Tag_ReadControlRegister() &
1526:.\Generated_Source\PSoC5/Tag.c ****                                                   (uint8)~Tag_CTRL_HD_SEND_BREAK);
1527:.\Generated_Source\PSoC5/Tag.c ****                 }
1528:.\Generated_Source\PSoC5/Tag.c **** 
1529:.\Generated_Source\PSoC5/Tag.c ****             #else /* Tag_HD_ENABLED Full Duplex mode */
1530:.\Generated_Source\PSoC5/Tag.c **** 
1531:.\Generated_Source\PSoC5/Tag.c ****                 static uint8 tx_period;
1532:.\Generated_Source\PSoC5/Tag.c **** 
1533:.\Generated_Source\PSoC5/Tag.c ****                 if( (retMode == Tag_SEND_BREAK) ||
 1637              		.loc 1 1533 0
 1638 0012 FB79     		ldrb	r3, [r7, #7]	@ zero_extendqisi2
 1639 0014 002B     		cmp	r3, #0
 1640 0016 02D0     		beq	.L112
 1641              		.loc 1 1533 0 is_stmt 0 discriminator 1
 1642 0018 FB79     		ldrb	r3, [r7, #7]	@ zero_extendqisi2
 1643 001a 032B     		cmp	r3, #3
 1644 001c 12D1     		bne	.L113
 1645              	.L112:
1534:.\Generated_Source\PSoC5/Tag.c ****                     (retMode == Tag_SEND_WAIT_REINIT) )
1535:.\Generated_Source\PSoC5/Tag.c ****                 {
1536:.\Generated_Source\PSoC5/Tag.c ****                     /* CTRL_HD_SEND_BREAK - skip to send parity bit at Break signal in Full Duplex 
1537:.\Generated_Source\PSoC5/Tag.c ****                     #if( (Tag_PARITY_TYPE != Tag__B_UART__NONE_REVB) || \
1538:.\Generated_Source\PSoC5/Tag.c ****                                         (Tag_PARITY_TYPE_SW != 0u) )
1539:.\Generated_Source\PSoC5/Tag.c ****                         Tag_WriteControlRegister(Tag_ReadControlRegister() |
1540:.\Generated_Source\PSoC5/Tag.c ****                                                               Tag_CTRL_HD_SEND_BREAK);
1541:.\Generated_Source\PSoC5/Tag.c ****                     #endif /* End Tag_PARITY_TYPE != Tag__B_UART__NONE_REVB  */
1542:.\Generated_Source\PSoC5/Tag.c **** 
1543:.\Generated_Source\PSoC5/Tag.c ****                     #if(Tag_TXCLKGEN_DP)
ARM GAS  C:\Users\Lenovo\AppData\Local\Temp\ccxEp1Mg.s 			page 57


1544:.\Generated_Source\PSoC5/Tag.c ****                         tx_period = Tag_TXBITCLKTX_COMPLETE_REG;
 1646              		.loc 1 1544 0 is_stmt 1
 1647 001e 1B4B     		ldr	r3, .L118+4
 1648 0020 1B78     		ldrb	r3, [r3]
 1649 0022 DAB2     		uxtb	r2, r3
 1650 0024 1A4B     		ldr	r3, .L118+8
 1651 0026 1A70     		strb	r2, [r3]
1545:.\Generated_Source\PSoC5/Tag.c ****                         Tag_TXBITCLKTX_COMPLETE_REG = Tag_TXBITCTR_BREAKBITS;
 1652              		.loc 1 1545 0
 1653 0028 184B     		ldr	r3, .L118+4
 1654 002a 6722     		movs	r2, #103
 1655 002c 1A70     		strb	r2, [r3]
1546:.\Generated_Source\PSoC5/Tag.c ****                     #else
1547:.\Generated_Source\PSoC5/Tag.c ****                         tx_period = Tag_TXBITCTR_PERIOD_REG;
1548:.\Generated_Source\PSoC5/Tag.c ****                         Tag_TXBITCTR_PERIOD_REG = Tag_TXBITCTR_BREAKBITS8X;
1549:.\Generated_Source\PSoC5/Tag.c ****                     #endif /* End Tag_TXCLKGEN_DP */
1550:.\Generated_Source\PSoC5/Tag.c **** 
1551:.\Generated_Source\PSoC5/Tag.c ****                     /* Send zeros*/
1552:.\Generated_Source\PSoC5/Tag.c ****                     Tag_TXDATA_REG = 0u;
 1656              		.loc 1 1552 0
 1657 002e 194B     		ldr	r3, .L118+12
 1658 0030 0022     		movs	r2, #0
 1659 0032 1A70     		strb	r2, [r3]
 1660              	.L114:
1553:.\Generated_Source\PSoC5/Tag.c **** 
1554:.\Generated_Source\PSoC5/Tag.c ****                     do /* wait until transmit starts */
1555:.\Generated_Source\PSoC5/Tag.c ****                     {
1556:.\Generated_Source\PSoC5/Tag.c ****                         tmpStat = Tag_TXSTATUS_REG;
 1661              		.loc 1 1556 0 discriminator 1
 1662 0034 184B     		ldr	r3, .L118+16
 1663 0036 1B78     		ldrb	r3, [r3]
 1664 0038 FB73     		strb	r3, [r7, #15]
1557:.\Generated_Source\PSoC5/Tag.c ****                     }while((tmpStat & Tag_TX_STS_FIFO_EMPTY) != 0u);
 1665              		.loc 1 1557 0 discriminator 1
 1666 003a FB7B     		ldrb	r3, [r7, #15]	@ zero_extendqisi2
 1667 003c 03F00203 		and	r3, r3, #2
 1668 0040 002B     		cmp	r3, #0
 1669 0042 F7D1     		bne	.L114
 1670              	.L113:
1558:.\Generated_Source\PSoC5/Tag.c ****                 }
1559:.\Generated_Source\PSoC5/Tag.c **** 
1560:.\Generated_Source\PSoC5/Tag.c ****                 if( (retMode == Tag_WAIT_FOR_COMPLETE_REINIT) ||
 1671              		.loc 1 1560 0
 1672 0044 FB79     		ldrb	r3, [r7, #7]	@ zero_extendqisi2
 1673 0046 012B     		cmp	r3, #1
 1674 0048 02D0     		beq	.L115
 1675              		.loc 1 1560 0 is_stmt 0 discriminator 1
 1676 004a FB79     		ldrb	r3, [r7, #7]	@ zero_extendqisi2
 1677 004c 032B     		cmp	r3, #3
 1678 004e 09D1     		bne	.L116
 1679              	.L115:
1561:.\Generated_Source\PSoC5/Tag.c ****                     (retMode == Tag_SEND_WAIT_REINIT) )
1562:.\Generated_Source\PSoC5/Tag.c ****                 {
1563:.\Generated_Source\PSoC5/Tag.c ****                     do /*wait until transmit complete*/
1564:.\Generated_Source\PSoC5/Tag.c ****                     {
1565:.\Generated_Source\PSoC5/Tag.c ****                         tmpStat = Tag_TXSTATUS_REG;
 1680              		.loc 1 1565 0 is_stmt 1 discriminator 1
ARM GAS  C:\Users\Lenovo\AppData\Local\Temp\ccxEp1Mg.s 			page 58


 1681 0050 114B     		ldr	r3, .L118+16
 1682 0052 1B78     		ldrb	r3, [r3]
 1683 0054 FB73     		strb	r3, [r7, #15]
1566:.\Generated_Source\PSoC5/Tag.c ****                     }while(((uint8)~tmpStat & Tag_TX_STS_COMPLETE) != 0u);
 1684              		.loc 1 1566 0 discriminator 1
 1685 0056 FB7B     		ldrb	r3, [r7, #15]
 1686 0058 DB43     		mvns	r3, r3
 1687 005a DBB2     		uxtb	r3, r3
 1688 005c 03F00103 		and	r3, r3, #1
 1689 0060 002B     		cmp	r3, #0
 1690 0062 F5D1     		bne	.L115
 1691              	.L116:
1567:.\Generated_Source\PSoC5/Tag.c ****                 }
1568:.\Generated_Source\PSoC5/Tag.c **** 
1569:.\Generated_Source\PSoC5/Tag.c ****                 if( (retMode == Tag_WAIT_FOR_COMPLETE_REINIT) ||
 1692              		.loc 1 1569 0
 1693 0064 FB79     		ldrb	r3, [r7, #7]	@ zero_extendqisi2
 1694 0066 012B     		cmp	r3, #1
 1695 0068 05D0     		beq	.L117
 1696              		.loc 1 1569 0 is_stmt 0 discriminator 1
 1697 006a FB79     		ldrb	r3, [r7, #7]	@ zero_extendqisi2
 1698 006c 022B     		cmp	r3, #2
 1699 006e 02D0     		beq	.L117
1570:.\Generated_Source\PSoC5/Tag.c ****                     (retMode == Tag_REINIT) ||
 1700              		.loc 1 1570 0 is_stmt 1
 1701 0070 FB79     		ldrb	r3, [r7, #7]	@ zero_extendqisi2
 1702 0072 032B     		cmp	r3, #3
 1703 0074 03D1     		bne	.L110
 1704              	.L117:
1571:.\Generated_Source\PSoC5/Tag.c ****                     (retMode == Tag_SEND_WAIT_REINIT) )
1572:.\Generated_Source\PSoC5/Tag.c ****                 {
1573:.\Generated_Source\PSoC5/Tag.c **** 
1574:.\Generated_Source\PSoC5/Tag.c ****                     #if(Tag_TXCLKGEN_DP)
1575:.\Generated_Source\PSoC5/Tag.c ****                         Tag_TXBITCLKTX_COMPLETE_REG = tx_period;
 1705              		.loc 1 1575 0
 1706 0076 054B     		ldr	r3, .L118+4
 1707 0078 054A     		ldr	r2, .L118+8
 1708 007a 1278     		ldrb	r2, [r2]	@ zero_extendqisi2
 1709 007c 1A70     		strb	r2, [r3]
 1710              	.L110:
 1711              	.LBE2:
1576:.\Generated_Source\PSoC5/Tag.c ****                     #else
1577:.\Generated_Source\PSoC5/Tag.c ****                         Tag_TXBITCTR_PERIOD_REG = tx_period;
1578:.\Generated_Source\PSoC5/Tag.c ****                     #endif /* End Tag_TXCLKGEN_DP */
1579:.\Generated_Source\PSoC5/Tag.c **** 
1580:.\Generated_Source\PSoC5/Tag.c ****                     #if( (Tag_PARITY_TYPE != Tag__B_UART__NONE_REVB) || \
1581:.\Generated_Source\PSoC5/Tag.c ****                          (Tag_PARITY_TYPE_SW != 0u) )
1582:.\Generated_Source\PSoC5/Tag.c ****                         Tag_WriteControlRegister(Tag_ReadControlRegister() &
1583:.\Generated_Source\PSoC5/Tag.c ****                                                       (uint8)~Tag_CTRL_HD_SEND_BREAK);
1584:.\Generated_Source\PSoC5/Tag.c ****                     #endif /* End Tag_PARITY_TYPE != NONE */
1585:.\Generated_Source\PSoC5/Tag.c ****                 }
1586:.\Generated_Source\PSoC5/Tag.c ****             #endif    /* End Tag_HD_ENABLED */
1587:.\Generated_Source\PSoC5/Tag.c ****         }
1588:.\Generated_Source\PSoC5/Tag.c ****     }
 1712              		.loc 1 1588 0
 1713 007e 1437     		adds	r7, r7, #20
 1714              		.cfi_def_cfa_offset 4
ARM GAS  C:\Users\Lenovo\AppData\Local\Temp\ccxEp1Mg.s 			page 59


 1715 0080 BD46     		mov	sp, r7
 1716              		.cfi_def_cfa_register 13
 1717              		@ sp needed
 1718 0082 5DF8047B 		ldr	r7, [sp], #4
 1719              		.cfi_restore 7
 1720              		.cfi_def_cfa_offset 0
 1721 0086 7047     		bx	lr
 1722              	.L119:
 1723              		.align	2
 1724              	.L118:
 1725 0088 00000000 		.word	Tag_initVar
 1726 008c 36640040 		.word	1073767478
 1727 0090 08000000 		.word	tx_period.5012
 1728 0094 44650040 		.word	1073767748
 1729 0098 6B650040 		.word	1073767787
 1730              		.cfi_endproc
 1731              	.LFE27:
 1732              		.size	Tag_SendBreak, .-Tag_SendBreak
 1733              		.section	.text.Tag_SetTxAddressMode,"ax",%progbits
 1734              		.align	2
 1735              		.global	Tag_SetTxAddressMode
 1736              		.thumb
 1737              		.thumb_func
 1738              		.type	Tag_SetTxAddressMode, %function
 1739              	Tag_SetTxAddressMode:
 1740              	.LFB28:
1589:.\Generated_Source\PSoC5/Tag.c **** 
1590:.\Generated_Source\PSoC5/Tag.c **** 
1591:.\Generated_Source\PSoC5/Tag.c ****     /*******************************************************************************
1592:.\Generated_Source\PSoC5/Tag.c ****     * Function Name: Tag_SetTxAddressMode
1593:.\Generated_Source\PSoC5/Tag.c ****     ********************************************************************************
1594:.\Generated_Source\PSoC5/Tag.c ****     *
1595:.\Generated_Source\PSoC5/Tag.c ****     * Summary:
1596:.\Generated_Source\PSoC5/Tag.c ****     *  Set the transmit addressing mode
1597:.\Generated_Source\PSoC5/Tag.c ****     *
1598:.\Generated_Source\PSoC5/Tag.c ****     * Parameters:
1599:.\Generated_Source\PSoC5/Tag.c ****     *  addressMode: 0 -> Space
1600:.\Generated_Source\PSoC5/Tag.c ****     *               1 -> Mark
1601:.\Generated_Source\PSoC5/Tag.c ****     *
1602:.\Generated_Source\PSoC5/Tag.c ****     * Return:
1603:.\Generated_Source\PSoC5/Tag.c ****     *  None.
1604:.\Generated_Source\PSoC5/Tag.c ****     *
1605:.\Generated_Source\PSoC5/Tag.c ****     *******************************************************************************/
1606:.\Generated_Source\PSoC5/Tag.c ****     void Tag_SetTxAddressMode(uint8 addressMode) 
1607:.\Generated_Source\PSoC5/Tag.c ****     {
 1741              		.loc 1 1607 0
 1742              		.cfi_startproc
 1743              		@ args = 0, pretend = 0, frame = 8
 1744              		@ frame_needed = 1, uses_anonymous_args = 0
 1745              		@ link register save eliminated.
 1746 0000 80B4     		push	{r7}
 1747              		.cfi_def_cfa_offset 4
 1748              		.cfi_offset 7, -4
 1749 0002 83B0     		sub	sp, sp, #12
 1750              		.cfi_def_cfa_offset 16
 1751 0004 00AF     		add	r7, sp, #0
 1752              		.cfi_def_cfa_register 7
ARM GAS  C:\Users\Lenovo\AppData\Local\Temp\ccxEp1Mg.s 			page 60


 1753 0006 0346     		mov	r3, r0
 1754 0008 FB71     		strb	r3, [r7, #7]
1608:.\Generated_Source\PSoC5/Tag.c ****         /* Mark/Space sending enable*/
1609:.\Generated_Source\PSoC5/Tag.c ****         if(addressMode != 0u)
1610:.\Generated_Source\PSoC5/Tag.c ****         {
1611:.\Generated_Source\PSoC5/Tag.c ****             #if( Tag_CONTROL_REG_REMOVED == 0u )
1612:.\Generated_Source\PSoC5/Tag.c ****                 Tag_WriteControlRegister(Tag_ReadControlRegister() |
1613:.\Generated_Source\PSoC5/Tag.c ****                                                       Tag_CTRL_MARK);
1614:.\Generated_Source\PSoC5/Tag.c ****             #endif /* End Tag_CONTROL_REG_REMOVED == 0u */
1615:.\Generated_Source\PSoC5/Tag.c ****         }
1616:.\Generated_Source\PSoC5/Tag.c ****         else
1617:.\Generated_Source\PSoC5/Tag.c ****         {
1618:.\Generated_Source\PSoC5/Tag.c ****             #if( Tag_CONTROL_REG_REMOVED == 0u )
1619:.\Generated_Source\PSoC5/Tag.c ****                 Tag_WriteControlRegister(Tag_ReadControlRegister() &
1620:.\Generated_Source\PSoC5/Tag.c ****                                                     (uint8)~Tag_CTRL_MARK);
1621:.\Generated_Source\PSoC5/Tag.c ****             #endif /* End Tag_CONTROL_REG_REMOVED == 0u */
1622:.\Generated_Source\PSoC5/Tag.c ****         }
1623:.\Generated_Source\PSoC5/Tag.c ****     }
 1755              		.loc 1 1623 0
 1756 000a 0C37     		adds	r7, r7, #12
 1757              		.cfi_def_cfa_offset 4
 1758 000c BD46     		mov	sp, r7
 1759              		.cfi_def_cfa_register 13
 1760              		@ sp needed
 1761 000e 5DF8047B 		ldr	r7, [sp], #4
 1762              		.cfi_restore 7
 1763              		.cfi_def_cfa_offset 0
 1764 0012 7047     		bx	lr
 1765              		.cfi_endproc
 1766              	.LFE28:
 1767              		.size	Tag_SetTxAddressMode, .-Tag_SetTxAddressMode
 1768              		.bss
 1769              	tx_period.5012:
 1770 0008 00       		.space	1
 1771 0009 00       		.text
 1772              	.Letext0:
 1773              		.file 2 ".\\Generated_Source\\PSoC5\\cytypes.h"